ASxxxx Linker V03.00/V05.40 + sdld,  page 1.
Hexadecimal  [32-Bits]

Area                                    Addr        Size        Decimal Bytes (Attributes)
--------------------------------        ----        ----        ------- ----- ------------
.  .ABS.                            00000000    00000000 =           0. bytes (ABS,CON)

      Value  Global                              Global Defined In Module
      -----  --------------------------------   ------------------------
     00000000  .__.ABS.                           SetTileMap
     00000000  _rMBC7_SRAM_ENABLE_1               
     00000000  _rRAMG                             
     00000000  l__BASE                         
     00000000  l__BSS                          
     00000000  l__CABS                         
     00000000  l__CODE_0                       
     00000000  l__DABS                         
     00000000  l__HEADER                       
     00000000  l__LIT                          
     00000000  s__CABS                         
     00000000  s__DABS                         
     00000000  s__HEADER                       
     00000000  s__HEADER0                      
     00000000  s__HEADER1                      
     00000000  s__HEADER10                     
     00000000  s__HEADER11                     
     00000000  s__HEADER2                      
     00000000  s__HEADER3                      
     00000000  s__HEADER4                      
     00000000  s__HEADER5                      
     00000000  s__HEADER6                      
     00000000  s__HEADER7                      
     00000000  s__HEADER8                      
     00000000  s__HEADER9                      
     00000000  s__HEADERa                      
     00000000  s__HEADERb                      
     00000000  s__HEADERc                      
     00000000  s__HEADERd                      
     00000000  s__HEADERe                      
     00000000  s__HEADERf                      
     00000001  l__GSFINAL                      
     00000001  l__HEADER0                      
     00000001  l__HEADER5                      
     00000001  l__HEADERa                      
     00000001  l__HEADERb                      
     00000001  l__HEADERc                      
     00000001  l__HEADERe                      
     00000001  l__HEADERf                      
     00000001  l__HEAP_END                     
     00000002  l__HEADER10                     
     00000002  l__HEADER6                      
     00000002  l__HEADERd                      
     00000003  l__HEADER9                      
     00000005  l__HEADER1                      
     00000006  l__HEADER8                      
     00000007  l__HEADER2                      
     00000008  l__HEADER3                      
     0000000F  l__GSINIT                       
     00000013  l__HRAM                         
ASxxxx Linker V03.00/V05.40 + sdld,  page 2.
Hexadecimal  [32-Bits]

Area                                    Addr        Size        Decimal Bytes (Attributes)
--------------------------------        ----        ----        ------- ----- ------------
.  .ABS.                            00000000    00000000 =           0. bytes (ABS,CON)

      Value  Global                              Global Defined In Module
      -----  --------------------------------   ------------------------
     00000030  l__HEADER7                      
     00000060  l__HEADER4                      
     000000AB  l__HEADER11                     
     0000012C  l__HOME                         
     00000200  s__CODE                         
     0000022F  l__INITIALIZED                  
     0000022F  l__INITIALIZER                  
     000002CB  l__DATA                         
     00000776  l__CODE_2                       
     000007FF  l__HEAP                         
     00001220  l__CODE_1                       
     00002000  _rROMB0                            
     00002D3E  l__CODE                         
     00002F3E  s__HOME                         
     00003000  _rROMB1                            
     0000306A  s__BASE                         
     0000306A  s__CODE_0                       
     0000306A  s__INITIALIZER                  
     0000306A  s__LIT                          
     00003299  s__GSINIT                       
     000032A8  s__GSFINAL                      
     00004000  _rMBC7_SRAM_ENABLE_2               
     00004000  _rRAMB                             
     00008000  __VRAM                             
     00008000  __VRAM8000                         
     00008800  __VRAM8800                         
     00009000  __VRAM9000                         
     00009800  __SCRN0                            
     00009C00  __SCRN1                            
     0000A000  __SRAM                             
     0000A000  _rMBC7_LATCH_1                     
     0000A010  _rMBC7_LATCH_2                     
     0000A020  _rMBC7_ACCEL_X_LO                  
     0000A030  _rMBC7_ACCEL_X_HI                  
     0000A040  _rMBC7_ACCEL_Y_LO                  
     0000A050  _rMBC7_ACCEL_Y_HI                  
     0000C000  __RAM                              
     0000C000  _shadow_OAM                     
     0000C0A0  s__DATA                         
     0000C36B  s__BSS                          
     0000C36B  s__INITIALIZED                  
     0000C59A  s__HEAP                         
     0000CD99  s__HEAP_END                     
     0000D000  __RAMBANK                          
     0000E000  .STACK                          
     0000FE00  __OAMRAM                           
     0000FF00  _P1_REG                            
     0000FF00  __IO                               
     0000FF01  _SB_REG                            
     0000FF02  _SC_REG                            
     0000FF04  _DIV_REG                           
ASxxxx Linker V03.00/V05.40 + sdld,  page 3.
Hexadecimal  [32-Bits]

Area                                    Addr        Size        Decimal Bytes (Attributes)
--------------------------------        ----        ----        ------- ----- ------------
.  .ABS.                            00000000    00000000 =           0. bytes (ABS,CON)

      Value  Global                              Global Defined In Module
      -----  --------------------------------   ------------------------
     0000FF05  _TIMA_REG                          
     0000FF06  _TMA_REG                           
     0000FF07  _TAC_REG                           
     0000FF0F  _IF_REG                            
     0000FF10  _NR10_REG                          
     0000FF11  _NR11_REG                          
     0000FF12  _NR12_REG                          
     0000FF13  _NR13_REG                          
     0000FF14  _NR14_REG                          
     0000FF16  _NR21_REG                          
     0000FF17  _NR22_REG                          
     0000FF18  _NR23_REG                          
     0000FF19  _NR24_REG                          
     0000FF1A  _NR30_REG                          
     0000FF1B  _NR31_REG                          
     0000FF1C  _NR32_REG                          
     0000FF1D  _NR33_REG                          
     0000FF1E  _NR34_REG                          
     0000FF20  _NR41_REG                          
     0000FF21  _NR42_REG                          
     0000FF22  _NR43_REG                          
     0000FF23  _NR44_REG                          
     0000FF24  _NR50_REG                          
     0000FF25  _NR51_REG                          
     0000FF26  _NR52_REG                          
     0000FF30  _AUD3WAVE                          
     0000FF30  _PCM_SAMPLE                        
     0000FF30  __AUD3WAVERAM                      
     0000FF40  _LCDC_REG                          
     0000FF41  _STAT_REG                          
     0000FF42  _SCY_REG                           
     0000FF43  _SCX_REG                           
     0000FF44  _LY_REG                            
     0000FF45  _LYC_REG                           
     0000FF46  _DMA_REG                           
     0000FF47  _BGP_REG                           
     0000FF48  _OBP0_REG                          
     0000FF49  _OBP1_REG                          
     0000FF4A  _WY_REG                            
     0000FF4B  _WX_REG                            
     0000FF4D  _KEY1_REG                          
     0000FF4F  _VBK_REG                           
     0000FF51  _HDMA1_REG                         
     0000FF52  _HDMA2_REG                         
     0000FF53  _HDMA3_REG                         
     0000FF54  _HDMA4_REG                         
     0000FF55  _HDMA5_REG                         
     0000FF56  _RP_REG                            
     0000FF68  _BCPS_REG                          
     0000FF69  _BCPD_REG                          
     0000FF6A  _OCPS_REG                          
ASxxxx Linker V03.00/V05.40 + sdld,  page 4.
Hexadecimal  [32-Bits]

Area                                    Addr        Size        Decimal Bytes (Attributes)
--------------------------------        ----        ----        ------- ----- ------------
.  .ABS.                            00000000    00000000 =           0. bytes (ABS,CON)

      Value  Global                              Global Defined In Module
      -----  --------------------------------   ------------------------
     0000FF6B  _OCPD_REG                          
     0000FF70  _SVBK_REG                          
     0000FF76  _PCM12_REG                         
     0000FF77  _PCM34_REG                         
     0000FF80  __HRAM                             
     0000FF80  s__HRAM                         
     0000FFFF  _IE_REG                            
     00014000  s__CODE_1                       
     00024000  s__CODE_2                       

ASxxxx Linker V03.00/V05.40 + sdld,  page 5.
Hexadecimal  [32-Bits]

Area                                    Addr        Size        Decimal Bytes (Attributes)
--------------------------------        ----        ----        ------- ----- ------------
_CODE                               00000200    00002D3E =       11582. bytes (REL,CON)

      Value  Global                              Global Defined In Module
      -----  --------------------------------   ------------------------
     00000200  G$chars_tileset$0_0$0              chars
     00000200  _chars_tileset                     chars
     00000400  G$chars_tilemap$0_0$0              chars
     00000400  _chars_tilemap                     chars
     0000041F  G$numbers_tileset$0_0$0            numbers
     0000041F  _numbers_tileset                   numbers
     000004BF  G$numbers_tilemap$0_0$0            numbers
     000004BF  _numbers_tilemap                   numbers
     000004C9  G$gender_select_tilemap$0_0$0      gender_select_tilemap
     000004C9  _gender_select_tilemap             gender_select_tilemap
     00000631  G$gender_select_tileset$0_0$0      gender_select_tileset
     00000631  _gender_select_tileset             gender_select_tileset
     00000921  G$bkg_leaves_example_tileset$0_0   bkg_leaves_example
     00000921  _bkg_leaves_example_tileset        bkg_leaves_example
     00000D41  G$bkg_leaves_example_tilemap$0_0   bkg_leaves_example
     00000D41  _bkg_leaves_example_tilemap        bkg_leaves_example
     00000EA9  A$lcc227048$58                     npc_icons
     00000EA9  C$npc_icons.c$27$0_0$127           npc_icons
     00000EA9  C$npc_icons.c$28$1_0$127           npc_icons
     00000EA9  G$InitNPCIcons$0$0                 npc_icons
     00000EA9  _InitNPCIcons                      npc_icons
     00000EAC  A$lcc227048$59                     npc_icons
     00000EAD  A$lcc227048$60                     npc_icons
     00000EB0  A$lcc227048$61                     npc_icons
     00000EB1  A$lcc227048$62                     npc_icons
     00000EB4  A$lcc227048$63                     npc_icons
     00000EB6  A$lcc227048$71                     npc_icons
     00000EB6  C$npc_icons.c$29$1_0$127           npc_icons
     00000EB6  XG$InitNPCIcons$0$0                npc_icons
     00000EB7  G$npc_icons_tileset$0_0$0          npc_icons
     00000EB7  _npc_icons_tileset                 npc_icons
     00000F17  G$npc_icons_tilemap$0_0$0          npc_icons
     00000F17  _npc_icons_tilemap                 npc_icons
     00000F1D  G$spr_Branch$0_0$0                 spr_Branch
     00000F1D  _spr_Branch                        spr_Branch
     00000F2D  A$lcc2270422$59                    action
     00000F2D  C$action.c$11$0_0$170              action
     00000F2D  G$move_up$0$0                      action
     00000F2D  _move_up                           action
     00000F2F  A$lcc2270422$60                    action
     00000F31  A$lcc2270422$61                    action
     00000F32  A$lcc2270422$65                    action
     00000F32  C$action.c$13$2_0$171              action
     00000F35  A$lcc2270422$66                    action
     00000F37  A$lcc2270422$70                    action
     00000F37  C$action.c$14$2_0$171              action
     00000F39  A$lcc2270422$74                    action
     00000F39  C$action.c$16$1_0$170              action
     00000F3B  A$lcc2270422$75                    action
     00000F3C  A$lcc2270422$76                    action
ASxxxx Linker V03.00/V05.40 + sdld,  page 6.
Hexadecimal  [32-Bits]

Area                                    Addr        Size        Decimal Bytes (Attributes)
--------------------------------        ----        ----        ------- ----- ------------
_CODE                               00000200    00002D3E =       11582. bytes (REL,CON)

      Value  Global                              Global Defined In Module
      -----  --------------------------------   ------------------------
     00000F3D  A$lcc2270422$77                    action
     00000F3F  A$lcc2270422$78                    action
     00000F40  A$lcc2270422$79                    action
     00000F42  A$lcc2270422$80                    action
     00000F44  A$lcc2270422$81                    action
     00000F45  A$lcc2270422$82                    action
     00000F46  A$lcc2270422$83                    action
     00000F47  A$lcc2270422$84                    action
     00000F48  A$lcc2270422$85                    action
     00000F49  A$lcc2270422$86                    action
     00000F4A  A$lcc2270422$87                    action
     00000F4D  A$lcc2270422$88                    action
     00000F4E  A$lcc2270422$89                    action
     00000F4F  A$lcc2270422$90                    action
     00000F50  A$lcc2270422$91                    action
     00000F51  A$lcc2270422$92                    action
     00000F53  A$lcc2270422$93                    action
     00000F54  A$lcc2270422$94                    action
     00000F55  A$lcc2270422$95                    action
     00000F56  A$lcc2270422$96                    action
     00000F57  A$lcc2270422$97                    action
     00000F58  A$lcc2270422$98                    action
     00000F59  A$lcc2270422$99                    action
     00000F5A  A$lcc2270422$100                   action
     00000F5C  A$lcc2270422$101                   action
     00000F5D  A$lcc2270422$102                   action
     00000F5E  A$lcc2270422$103                   action
     00000F5F  A$lcc2270422$104                   action
     00000F60  A$lcc2270422$105                   action
     00000F61  A$lcc2270422$106                   action
     00000F62  A$lcc2270422$107                   action
     00000F63  A$lcc2270422$108                   action
     00000F64  A$lcc2270422$109                   action
     00000F65  A$lcc2270422$110                   action
     00000F66  A$lcc2270422$111                   action
     00000F67  A$lcc2270422$112                   action
     00000F68  A$lcc2270422$113                   action
     00000F69  A$lcc2270422$114                   action
     00000F6A  A$lcc2270422$115                   action
     00000F6C  A$lcc2270422$116                   action
     00000F6D  A$lcc2270422$117                   action
     00000F6E  A$lcc2270422$118                   action
     00000F6F  A$lcc2270422$119                   action
     00000F70  A$lcc2270422$120                   action
     00000F71  A$lcc2270422$124                   action
     00000F71  C$action.c$17$1_0$170              action
     00000F72  A$lcc2270422$125                   action
     00000F73  A$lcc2270422$126                   action
     00000F76  A$lcc2270422$127                   action
     00000F77  A$lcc2270422$128                   action
     00000F79  A$lcc2270422$129                   action
ASxxxx Linker V03.00/V05.40 + sdld,  page 7.
Hexadecimal  [32-Bits]

Area                                    Addr        Size        Decimal Bytes (Attributes)
--------------------------------        ----        ----        ------- ----- ------------
_CODE                               00000200    00002D3E =       11582. bytes (REL,CON)

      Value  Global                              Global Defined In Module
      -----  --------------------------------   ------------------------
     00000F7A  A$lcc2270422$130                   action
     00000F7B  A$lcc2270422$131                   action
     00000F7C  A$lcc2270422$132                   action
     00000F7E  A$lcc2270422$133                   action
     00000F7F  A$lcc2270422$134                   action
     00000F80  A$lcc2270422$139                   action
     00000F82  A$lcc2270422$144                   action
     00000F82  C$action.c$18$1_0$170              action
     00000F82  XG$move_up$0$0                     action
     00000F83  A$lcc2270422$154                   action
     00000F83  C$action.c$20$1_0$173              action
     00000F83  G$move_down$0$0                    action
     00000F83  _move_down                         action
     00000F85  A$lcc2270422$155                   action
     00000F87  A$lcc2270422$156                   action
     00000F88  A$lcc2270422$160                   action
     00000F88  C$action.c$22$2_0$174              action
     00000F8B  A$lcc2270422$161                   action
     00000F8D  A$lcc2270422$165                   action
     00000F8D  C$action.c$23$2_0$174              action
     00000F8F  A$lcc2270422$169                   action
     00000F8F  C$action.c$25$1_0$173              action
     00000F91  A$lcc2270422$170                   action
     00000F92  A$lcc2270422$171                   action
     00000F93  A$lcc2270422$172                   action
     00000F95  A$lcc2270422$173                   action
     00000F96  A$lcc2270422$174                   action
     00000F98  A$lcc2270422$175                   action
     00000F9A  A$lcc2270422$176                   action
     00000F9B  A$lcc2270422$177                   action
     00000F9C  A$lcc2270422$178                   action
     00000F9D  A$lcc2270422$179                   action
     00000F9E  A$lcc2270422$180                   action
     00000F9F  A$lcc2270422$181                   action
     00000FA0  A$lcc2270422$182                   action
     00000FA3  A$lcc2270422$183                   action
     00000FA4  A$lcc2270422$184                   action
     00000FA5  A$lcc2270422$185                   action
     00000FA6  A$lcc2270422$186                   action
     00000FA7  A$lcc2270422$187                   action
     00000FA9  A$lcc2270422$188                   action
     00000FAA  A$lcc2270422$189                   action
     00000FAB  A$lcc2270422$190                   action
     00000FAC  A$lcc2270422$191                   action
     00000FAD  A$lcc2270422$192                   action
     00000FAE  A$lcc2270422$193                   action
     00000FAF  A$lcc2270422$194                   action
     00000FB0  A$lcc2270422$195                   action
     00000FB2  A$lcc2270422$196                   action
     00000FB3  A$lcc2270422$197                   action
     00000FB4  A$lcc2270422$198                   action
ASxxxx Linker V03.00/V05.40 + sdld,  page 8.
Hexadecimal  [32-Bits]

Area                                    Addr        Size        Decimal Bytes (Attributes)
--------------------------------        ----        ----        ------- ----- ------------
_CODE                               00000200    00002D3E =       11582. bytes (REL,CON)

      Value  Global                              Global Defined In Module
      -----  --------------------------------   ------------------------
     00000FB5  A$lcc2270422$199                   action
     00000FB6  A$lcc2270422$200                   action
     00000FB7  A$lcc2270422$201                   action
     00000FB8  A$lcc2270422$202                   action
     00000FB9  A$lcc2270422$203                   action
     00000FBA  A$lcc2270422$204                   action
     00000FBB  A$lcc2270422$205                   action
     00000FBC  A$lcc2270422$206                   action
     00000FBD  A$lcc2270422$207                   action
     00000FBE  A$lcc2270422$208                   action
     00000FBF  A$lcc2270422$209                   action
     00000FC0  A$lcc2270422$210                   action
     00000FC1  A$lcc2270422$211                   action
     00000FC2  A$lcc2270422$212                   action
     00000FC3  A$lcc2270422$216                   action
     00000FC3  C$action.c$26$1_0$173              action
     00000FC6  A$lcc2270422$217                   action
     00000FC8  A$lcc2270422$218                   action
     00000FC9  A$lcc2270422$219                   action
     00000FCB  A$lcc2270422$220                   action
     00000FCC  A$lcc2270422$221                   action
     00000FCD  A$lcc2270422$222                   action
     00000FCE  A$lcc2270422$223                   action
     00000FCF  A$lcc2270422$224                   action
     00000FD0  A$lcc2270422$229                   action
     00000FD2  A$lcc2270422$234                   action
     00000FD2  C$action.c$27$1_0$173              action
     00000FD2  XG$move_down$0$0                   action
     00000FD3  A$lcc2270422$244                   action
     00000FD3  C$action.c$29$1_0$176              action
     00000FD3  G$move_left$0$0                    action
     00000FD3  _move_left                         action
     00000FD5  A$lcc2270422$245                   action
     00000FD7  A$lcc2270422$246                   action
     00000FD8  A$lcc2270422$250                   action
     00000FD8  C$action.c$31$2_0$177              action
     00000FDB  A$lcc2270422$251                   action
     00000FDD  A$lcc2270422$255                   action
     00000FDD  C$action.c$32$2_0$177              action
     00000FDF  A$lcc2270422$259                   action
     00000FDF  C$action.c$34$1_0$176              action
     00000FE1  A$lcc2270422$260                   action
     00000FE2  A$lcc2270422$261                   action
     00000FE3  A$lcc2270422$262                   action
     00000FE5  A$lcc2270422$263                   action
     00000FE6  A$lcc2270422$264                   action
     00000FE8  A$lcc2270422$265                   action
     00000FEA  A$lcc2270422$266                   action
     00000FEB  A$lcc2270422$267                   action
     00000FEC  A$lcc2270422$268                   action
     00000FED  A$lcc2270422$269                   action
ASxxxx Linker V03.00/V05.40 + sdld,  page 9.
Hexadecimal  [32-Bits]

Area                                    Addr        Size        Decimal Bytes (Attributes)
--------------------------------        ----        ----        ------- ----- ------------
_CODE                               00000200    00002D3E =       11582. bytes (REL,CON)

      Value  Global                              Global Defined In Module
      -----  --------------------------------   ------------------------
     00000FEE  A$lcc2270422$270                   action
     00000FEF  A$lcc2270422$271                   action
     00000FF0  A$lcc2270422$272                   action
     00000FF3  A$lcc2270422$273                   action
     00000FF4  A$lcc2270422$274                   action
     00000FF5  A$lcc2270422$275                   action
     00000FF6  A$lcc2270422$276                   action
     00000FF7  A$lcc2270422$277                   action
     00000FF9  A$lcc2270422$278                   action
     00000FFA  A$lcc2270422$279                   action
     00000FFB  A$lcc2270422$280                   action
     00000FFC  A$lcc2270422$281                   action
     00000FFD  A$lcc2270422$282                   action
     00000FFE  A$lcc2270422$283                   action
     00000FFF  A$lcc2270422$284                   action
     00001000  A$lcc2270422$285                   action
     00001002  A$lcc2270422$286                   action
     00001003  A$lcc2270422$287                   action
     00001004  A$lcc2270422$288                   action
     00001005  A$lcc2270422$289                   action
     00001006  A$lcc2270422$290                   action
     00001007  A$lcc2270422$291                   action
     00001008  A$lcc2270422$292                   action
     00001009  A$lcc2270422$293                   action
     0000100A  A$lcc2270422$294                   action
     0000100B  A$lcc2270422$295                   action
     0000100C  A$lcc2270422$296                   action
     0000100D  A$lcc2270422$297                   action
     0000100E  A$lcc2270422$298                   action
     0000100F  A$lcc2270422$299                   action
     00001010  A$lcc2270422$300                   action
     00001012  A$lcc2270422$301                   action
     00001013  A$lcc2270422$302                   action
     00001014  A$lcc2270422$303                   action
     00001015  A$lcc2270422$304                   action
     00001016  A$lcc2270422$305                   action
     00001017  A$lcc2270422$309                   action
     00001017  C$action.c$35$1_0$176              action
     00001018  A$lcc2270422$310                   action
     00001019  A$lcc2270422$311                   action
     0000101C  A$lcc2270422$312                   action
     0000101D  A$lcc2270422$313                   action
     0000101F  A$lcc2270422$314                   action
     00001020  A$lcc2270422$315                   action
     00001021  A$lcc2270422$316                   action
     00001022  A$lcc2270422$317                   action
     00001024  A$lcc2270422$318                   action
     00001025  A$lcc2270422$319                   action
     00001026  A$lcc2270422$324                   action
     00001028  A$lcc2270422$329                   action
     00001028  C$action.c$36$1_0$176              action
ASxxxx Linker V03.00/V05.40 + sdld,  page 10.
Hexadecimal  [32-Bits]

Area                                    Addr        Size        Decimal Bytes (Attributes)
--------------------------------        ----        ----        ------- ----- ------------
_CODE                               00000200    00002D3E =       11582. bytes (REL,CON)

      Value  Global                              Global Defined In Module
      -----  --------------------------------   ------------------------
     00001028  XG$move_left$0$0                   action
     00001029  A$lcc2270422$339                   action
     00001029  C$action.c$38$1_0$179              action
     00001029  G$move_right$0$0                   action
     00001029  _move_right                        action
     0000102B  A$lcc2270422$340                   action
     0000102D  A$lcc2270422$341                   action
     0000102E  A$lcc2270422$345                   action
     0000102E  C$action.c$40$2_0$180              action
     00001031  A$lcc2270422$346                   action
     00001033  A$lcc2270422$350                   action
     00001033  C$action.c$41$2_0$180              action
     00001035  A$lcc2270422$354                   action
     00001035  C$action.c$43$1_0$179              action
     00001037  A$lcc2270422$355                   action
     00001038  A$lcc2270422$356                   action
     00001039  A$lcc2270422$357                   action
     0000103B  A$lcc2270422$358                   action
     0000103C  A$lcc2270422$359                   action
     0000103E  A$lcc2270422$360                   action
     00001040  A$lcc2270422$361                   action
     00001041  A$lcc2270422$362                   action
     00001042  A$lcc2270422$363                   action
     00001043  A$lcc2270422$364                   action
     00001044  A$lcc2270422$365                   action
     00001045  A$lcc2270422$366                   action
     00001046  A$lcc2270422$367                   action
     00001049  A$lcc2270422$368                   action
     0000104A  A$lcc2270422$369                   action
     0000104B  A$lcc2270422$370                   action
     0000104C  A$lcc2270422$371                   action
     0000104D  A$lcc2270422$372                   action
     0000104F  A$lcc2270422$373                   action
     00001050  A$lcc2270422$374                   action
     00001051  A$lcc2270422$375                   action
     00001052  A$lcc2270422$376                   action
     00001053  A$lcc2270422$377                   action
     00001054  A$lcc2270422$378                   action
     00001055  A$lcc2270422$379                   action
     00001056  A$lcc2270422$380                   action
     00001058  A$lcc2270422$381                   action
     00001059  A$lcc2270422$382                   action
     0000105A  A$lcc2270422$383                   action
     0000105B  A$lcc2270422$384                   action
     0000105C  A$lcc2270422$385                   action
     0000105D  A$lcc2270422$386                   action
     0000105E  A$lcc2270422$387                   action
     0000105F  A$lcc2270422$388                   action
     00001060  A$lcc2270422$389                   action
     00001061  A$lcc2270422$390                   action
     00001062  A$lcc2270422$391                   action
ASxxxx Linker V03.00/V05.40 + sdld,  page 11.
Hexadecimal  [32-Bits]

Area                                    Addr        Size        Decimal Bytes (Attributes)
--------------------------------        ----        ----        ------- ----- ------------
_CODE                               00000200    00002D3E =       11582. bytes (REL,CON)

      Value  Global                              Global Defined In Module
      -----  --------------------------------   ------------------------
     00001063  A$lcc2270422$392                   action
     00001064  A$lcc2270422$393                   action
     00001065  A$lcc2270422$394                   action
     00001066  A$lcc2270422$395                   action
     00001067  A$lcc2270422$396                   action
     00001068  A$lcc2270422$397                   action
     00001069  A$lcc2270422$401                   action
     00001069  C$action.c$44$1_0$179              action
     0000106A  A$lcc2270422$402                   action
     0000106D  A$lcc2270422$403                   action
     0000106F  A$lcc2270422$404                   action
     00001070  A$lcc2270422$405                   action
     00001072  A$lcc2270422$406                   action
     00001073  A$lcc2270422$407                   action
     00001074  A$lcc2270422$408                   action
     00001075  A$lcc2270422$409                   action
     00001076  A$lcc2270422$410                   action
     00001077  A$lcc2270422$411                   action
     00001078  A$lcc2270422$416                   action
     0000107A  A$lcc2270422$421                   action
     0000107A  C$action.c$45$1_0$179              action
     0000107A  XG$move_right$0$0                  action
     0000107B  A$lcc2270423$59                    animation
     0000107B  C$animation.c$7$0_0$137            animation
     0000107B  G$init_animation$0$0               animation
     0000107B  _init_animation                    animation
     0000107D  A$lcc2270423$60                    animation
     0000107F  A$lcc2270423$61                    animation
     00001080  A$lcc2270423$62                    animation
     00001081  A$lcc2270423$63                    animation
     00001082  A$lcc2270423$64                    animation
     00001083  A$lcc2270423$65                    animation
     00001084  A$lcc2270423$69                    animation
     00001084  C$animation.c$12$1_0$137           animation
     00001086  A$lcc2270423$70                    animation
     00001087  A$lcc2270423$71                    animation
     00001088  A$lcc2270423$72                    animation
     00001089  A$lcc2270423$73                    animation
     0000108A  A$lcc2270423$74                    animation
     0000108B  A$lcc2270423$75                    animation
     0000108C  A$lcc2270423$76                    animation
     0000108E  A$lcc2270423$77                    animation
     00001090  A$lcc2270423$78                    animation
     00001091  A$lcc2270423$79                    animation
     00001092  A$lcc2270423$80                    animation
     00001093  A$lcc2270423$81                    animation
     00001094  A$lcc2270423$82                    animation
     00001095  A$lcc2270423$83                    animation
     00001096  A$lcc2270423$87                    animation
     00001096  C$animation.c$14$1_0$137           animation
     00001097  A$lcc2270423$88                    animation
ASxxxx Linker V03.00/V05.40 + sdld,  page 12.
Hexadecimal  [32-Bits]

Area                                    Addr        Size        Decimal Bytes (Attributes)
--------------------------------        ----        ----        ------- ----- ------------
_CODE                               00000200    00002D3E =       11582. bytes (REL,CON)

      Value  Global                              Global Defined In Module
      -----  --------------------------------   ------------------------
     00001098  A$lcc2270423$89                    animation
     00001099  A$lcc2270423$90                    animation
     0000109B  A$lcc2270423$91                    animation
     0000109C  A$lcc2270423$92                    animation
     0000109D  A$lcc2270423$96                    animation
     0000109D  C$animation.c$15$1_0$137           animation
     0000109E  A$lcc2270423$97                    animation
     0000109F  A$lcc2270423$98                    animation
     000010A0  A$lcc2270423$99                    animation
     000010A1  A$lcc2270423$100                   animation
     000010A2  A$lcc2270423$101                   animation
     000010A3  A$lcc2270423$102                   animation
     000010A5  A$lcc2270423$103                   animation
     000010A6  A$lcc2270423$104                   animation
     000010A7  A$lcc2270423$105                   animation
     000010A8  A$lcc2270423$109                   animation
     000010A8  C$animation.c$16$1_0$137           animation
     000010AB  A$lcc2270423$110                   animation
     000010AC  A$lcc2270423$111                   animation
     000010AE  A$lcc2270423$115                   animation
     000010AE  C$animation.c$17$1_0$137           animation
     000010AF  A$lcc2270423$116                   animation
     000010B0  A$lcc2270423$117                   animation
     000010B1  A$lcc2270423$118                   animation
     000010B2  A$lcc2270423$119                   animation
     000010B4  A$lcc2270423$123                   animation
     000010B4  C$animation.c$18$1_0$137           animation
     000010B7  A$lcc2270423$124                   animation
     000010B8  A$lcc2270423$125                   animation
     000010B9  A$lcc2270423$126                   animation
     000010BB  A$lcc2270423$127                   animation
     000010BC  A$lcc2270423$128                   animation
     000010BD  A$lcc2270423$129                   animation
     000010BE  A$lcc2270423$133                   animation
     000010BE  C$animation.c$21$1_0$137           animation
     000010BF  A$lcc2270423$134                   animation
     000010C0  A$lcc2270423$135                   animation
     000010C1  A$lcc2270423$136                   animation
     000010C2  A$lcc2270423$137                   animation
     000010C4  A$lcc2270423$138                   animation
     000010C5  A$lcc2270423$139                   animation
     000010C6  A$lcc2270423$140                   animation
     000010C7  A$lcc2270423$141                   animation
     000010C8  A$lcc2270423$142                   animation
     000010CB  A$lcc2270423$143                   animation
     000010CC  A$lcc2270423$144                   animation
     000010CD  A$lcc2270423$145                   animation
     000010CE  A$lcc2270423$146                   animation
     000010D0  A$lcc2270423$147                   animation
     000010D1  A$lcc2270423$148                   animation
     000010D2  A$lcc2270423$149                   animation
ASxxxx Linker V03.00/V05.40 + sdld,  page 13.
Hexadecimal  [32-Bits]

Area                                    Addr        Size        Decimal Bytes (Attributes)
--------------------------------        ----        ----        ------- ----- ------------
_CODE                               00000200    00002D3E =       11582. bytes (REL,CON)

      Value  Global                              Global Defined In Module
      -----  --------------------------------   ------------------------
     000010D3  A$lcc2270423$150                   animation
     000010D5  A$lcc2270423$151                   animation
     000010D6  A$lcc2270423$152                   animation
     000010D9  A$lcc2270423$153                   animation
     000010DA  A$lcc2270423$154                   animation
     000010DB  A$lcc2270423$155                   animation
     000010DC  A$lcc2270423$156                   animation
     000010DD  A$lcc2270423$160                   animation
     000010DD  C$animation.c$24$2_0$137           animation
     000010DF  A$lcc2270423$162                   animation
     000010E0  A$lcc2270423$163                   animation
     000010E1  A$lcc2270423$164                   animation
     000010E2  A$lcc2270423$165                   animation
     000010E3  A$lcc2270423$166                   animation
     000010E5  A$lcc2270423$167                   animation
     000010E6  A$lcc2270423$168                   animation
     000010E8  A$lcc2270423$173                   animation
     000010E8  C$animation.c$32$2_0$140           animation
     000010EA  A$lcc2270423$174                   animation
     000010EB  A$lcc2270423$175                   animation
     000010EC  A$lcc2270423$176                   animation
     000010ED  A$lcc2270423$177                   animation
     000010F0  A$lcc2270423$178                   animation
     000010F1  A$lcc2270423$179                   animation
     000010F2  A$lcc2270423$180                   animation
     000010F3  A$lcc2270423$181                   animation
     000010F4  A$lcc2270423$182                   animation
     000010F5  A$lcc2270423$183                   animation
     000010F7  A$lcc2270423$187                   animation
     000010F7  C$animation.c$33$2_0$140           animation
     000010F9  A$lcc2270423$188                   animation
     000010FA  A$lcc2270423$189                   animation
     000010FB  A$lcc2270423$194                   animation
     000010FB  C$animation.c$34$2_0$137           animation
     000010FD  A$lcc2270423$195                   animation
     000010FE  A$lcc2270423$196                   animation
     00001100  A$lcc2270423$197                   animation
     00001101  A$lcc2270423$207                   animation
     00001101  C$animation.c$36$2_0$142           animation
     00001101  G$update_animation$0$0             animation
     00001101  _update_animation                  animation
     00001102  A$lcc2270423$208                   animation
     00001103  A$lcc2270423$209                   animation
     00001104  A$lcc2270423$210                   animation
     00001105  A$lcc2270423$214                   animation
     00001105  C$animation.c$38$1_0$142           animation
     00001108  A$lcc2270423$215                   animation
     00001109  A$lcc2270423$216                   animation
     0000110A  A$lcc2270423$217                   animation
     0000110B  A$lcc2270423$218                   animation
     0000110C  A$lcc2270423$219                   animation
ASxxxx Linker V03.00/V05.40 + sdld,  page 14.
Hexadecimal  [32-Bits]

Area                                    Addr        Size        Decimal Bytes (Attributes)
--------------------------------        ----        ----        ------- ----- ------------
_CODE                               00000200    00002D3E =       11582. bytes (REL,CON)

      Value  Global                              Global Defined In Module
      -----  --------------------------------   ------------------------
     0000110D  A$lcc2270423$220                   animation
     0000110E  A$lcc2270423$221                   animation
     0000110F  A$lcc2270423$222                   animation
     00001110  A$lcc2270423$223                   animation
     00001112  A$lcc2270423$224                   animation
     00001113  A$lcc2270423$225                   animation
     00001114  A$lcc2270423$229                   animation
     00001114  C$animation.c$40$1_0$142           animation
     00001117  A$lcc2270423$230                   animation
     00001118  A$lcc2270423$231                   animation
     00001119  A$lcc2270423$232                   animation
     0000111A  A$lcc2270423$233                   animation
     0000111B  A$lcc2270423$234                   animation
     0000111C  A$lcc2270423$235                   animation
     0000111E  A$lcc2270423$236                   animation
     0000111F  A$lcc2270423$237                   animation
     00001120  A$lcc2270423$241                   animation
     00001120  C$animation.c$41$2_0$143           animation
     00001121  A$lcc2270423$242                   animation
     00001122  A$lcc2270423$243                   animation
     00001123  A$lcc2270423$244                   animation
     00001124  A$lcc2270423$245                   animation
     00001125  A$lcc2270423$246                   animation
     00001126  A$lcc2270423$247                   animation
     00001128  A$lcc2270423$248                   animation
     00001129  A$lcc2270423$249                   animation
     0000112B  A$lcc2270423$250                   animation
     0000112C  A$lcc2270423$251                   animation
     0000112D  A$lcc2270423$252                   animation
     0000112F  A$lcc2270423$256                   animation
     0000112F  C$animation.c$43$3_0$144           animation
     00001130  A$lcc2270423$257                   animation
     00001131  A$lcc2270423$261                   animation
     00001131  C$animation.c$44$3_0$144           animation
     00001132  A$lcc2270423$262                   animation
     00001133  A$lcc2270423$263                   animation
     00001134  A$lcc2270423$264                   animation
     00001135  A$lcc2270423$265                   animation
     00001136  A$lcc2270423$266                   animation
     00001137  A$lcc2270423$270                   animation
     00001137  C$animation.c$45$4_0$145           animation
     00001138  A$lcc2270423$271                   animation
     00001139  A$lcc2270423$272                   animation
     0000113A  A$lcc2270423$273                   animation
     0000113B  A$lcc2270423$274                   animation
     0000113C  A$lcc2270423$275                   animation
     0000113E  A$lcc2270423$279                   animation
     0000113E  C$animation.c$46$4_0$145           animation
     00001140  A$lcc2270423$284                   animation
     00001141  A$lcc2270423$285                   animation
     00001142  A$lcc2270423$290                   animation
ASxxxx Linker V03.00/V05.40 + sdld,  page 15.
Hexadecimal  [32-Bits]

Area                                    Addr        Size        Decimal Bytes (Attributes)
--------------------------------        ----        ----        ------- ----- ------------
_CODE                               00000200    00002D3E =       11582. bytes (REL,CON)

      Value  Global                              Global Defined In Module
      -----  --------------------------------   ------------------------
     00001142  C$animation.c$48$2_0$142           animation
     00001142  XG$update_animation$0$0            animation
     00001143  A$lcc2270423$300                   animation
     00001143  C$animation.c$50$2_0$147           animation
     00001143  G$set_animation$0$0                animation
     00001143  _set_animation                     animation
     00001144  A$lcc2270423$301                   animation
     00001145  A$lcc2270423$302                   animation
     00001146  A$lcc2270423$306                   animation
     00001146  C$animation.c$52$2_0$148           animation
     00001147  A$lcc2270423$307                   animation
     00001149  A$lcc2270423$308                   animation
     0000114A  A$lcc2270423$309                   animation
     0000114B  A$lcc2270423$310                   animation
     0000114D  A$lcc2270423$311                   animation
     0000114E  A$lcc2270423$312                   animation
     0000114F  A$lcc2270423$313                   animation
     00001150  A$lcc2270423$314                   animation
     00001151  A$lcc2270423$321                   animation
     00001151  C$animation.c$53$2_0$148           animation
     00001151  C$animation.c$55$1_0$147           animation
     00001152  A$lcc2270423$322                   animation
     00001153  A$lcc2270423$326                   animation
     00001153  C$animation.c$56$1_1$149           animation
     00001154  A$lcc2270423$327                   animation
     00001155  A$lcc2270423$328                   animation
     00001156  A$lcc2270423$329                   animation
     00001157  A$lcc2270423$330                   animation
     00001159  A$lcc2270423$331                   animation
     0000115A  A$lcc2270423$335                   animation
     0000115A  C$animation.c$57$1_1$149           animation
     0000115B  A$lcc2270423$336                   animation
     0000115C  A$lcc2270423$337                   animation
     0000115D  A$lcc2270423$338                   animation
     0000115E  A$lcc2270423$339                   animation
     0000115F  A$lcc2270423$340                   animation
     00001160  A$lcc2270423$344                   animation
     00001160  C$animation.c$58$1_1$149           animation
     00001163  A$lcc2270423$345                   animation
     00001164  A$lcc2270423$346                   animation
     00001166  A$lcc2270423$354                   animation
     00001166  C$animation.c$59$1_1$147           animation
     00001166  XG$set_animation$0$0               animation
     00001167  A$lcc2270425$52                    char_to_tile
     00001167  C$char_to_tile.c$3$0_0$3           char_to_tile
     00001167  G$char_to_tile$0$0                 char_to_tile
     00001167  _char_to_tile                      char_to_tile
     00001169  A$lcc2270425$53                    char_to_tile
     0000116B  A$lcc2270425$54                    char_to_tile
     0000116C  A$lcc2270425$58                    char_to_tile
     0000116C  C$char_to_tile.c$4$2_0$3           char_to_tile
ASxxxx Linker V03.00/V05.40 + sdld,  page 16.
Hexadecimal  [32-Bits]

Area                                    Addr        Size        Decimal Bytes (Attributes)
--------------------------------        ----        ----        ------- ----- ------------
_CODE                               00000200    00002D3E =       11582. bytes (REL,CON)

      Value  Global                              Global Defined In Module
      -----  --------------------------------   ------------------------
     0000116E  A$lcc2270425$59                    char_to_tile
     00001170  A$lcc2270425$60                    char_to_tile
     00001171  A$lcc2270425$61                    char_to_tile
     00001173  A$lcc2270425$62                    char_to_tile
     00001174  A$lcc2270425$63                    char_to_tile
     00001176  A$lcc2270425$64                    char_to_tile
     00001177  A$lcc2270425$65                    char_to_tile
     00001179  A$lcc2270425$66                    char_to_tile
     0000117A  A$lcc2270425$67                    char_to_tile
     0000117C  A$lcc2270425$68                    char_to_tile
     0000117D  A$lcc2270425$69                    char_to_tile
     0000117F  A$lcc2270425$70                    char_to_tile
     00001180  A$lcc2270425$71                    char_to_tile
     00001182  A$lcc2270425$72                    char_to_tile
     00001183  A$lcc2270425$73                    char_to_tile
     00001185  A$lcc2270425$74                    char_to_tile
     00001186  A$lcc2270425$75                    char_to_tile
     00001188  A$lcc2270425$76                    char_to_tile
     00001189  A$lcc2270425$77                    char_to_tile
     0000118B  A$lcc2270425$78                    char_to_tile
     0000118C  A$lcc2270425$79                    char_to_tile
     0000118E  A$lcc2270425$80                    char_to_tile
     0000118F  A$lcc2270425$81                    char_to_tile
     00001191  A$lcc2270425$82                    char_to_tile
     00001192  A$lcc2270425$83                    char_to_tile
     00001194  A$lcc2270425$84                    char_to_tile
     00001195  A$lcc2270425$85                    char_to_tile
     00001197  A$lcc2270425$86                    char_to_tile
     00001198  A$lcc2270425$87                    char_to_tile
     0000119A  A$lcc2270425$88                    char_to_tile
     0000119B  A$lcc2270425$89                    char_to_tile
     0000119D  A$lcc2270425$90                    char_to_tile
     0000119E  A$lcc2270425$91                    char_to_tile
     000011A0  A$lcc2270425$92                    char_to_tile
     000011A1  A$lcc2270425$93                    char_to_tile
     000011A3  A$lcc2270425$94                    char_to_tile
     000011A4  A$lcc2270425$95                    char_to_tile
     000011A6  A$lcc2270425$96                    char_to_tile
     000011A7  A$lcc2270425$97                    char_to_tile
     000011A9  A$lcc2270425$98                    char_to_tile
     000011AA  A$lcc2270425$99                    char_to_tile
     000011AC  A$lcc2270425$100                   char_to_tile
     000011AD  A$lcc2270425$101                   char_to_tile
     000011AF  A$lcc2270425$102                   char_to_tile
     000011B0  A$lcc2270425$103                   char_to_tile
     000011B2  A$lcc2270425$104                   char_to_tile
     000011B3  A$lcc2270425$105                   char_to_tile
     000011B5  A$lcc2270425$106                   char_to_tile
     000011B6  A$lcc2270425$107                   char_to_tile
     000011B8  A$lcc2270425$108                   char_to_tile
     000011B9  A$lcc2270425$109                   char_to_tile
ASxxxx Linker V03.00/V05.40 + sdld,  page 17.
Hexadecimal  [32-Bits]

Area                                    Addr        Size        Decimal Bytes (Attributes)
--------------------------------        ----        ----        ------- ----- ------------
_CODE                               00000200    00002D3E =       11582. bytes (REL,CON)

      Value  Global                              Global Defined In Module
      -----  --------------------------------   ------------------------
     000011BB  A$lcc2270425$110                   char_to_tile
     000011BC  A$lcc2270425$111                   char_to_tile
     000011BE  A$lcc2270425$112                   char_to_tile
     000011BF  A$lcc2270425$113                   char_to_tile
     000011C1  A$lcc2270425$114                   char_to_tile
     000011C2  A$lcc2270425$115                   char_to_tile
     000011C4  A$lcc2270425$116                   char_to_tile
     000011C5  A$lcc2270425$117                   char_to_tile
     000011C7  A$lcc2270425$118                   char_to_tile
     000011C8  A$lcc2270425$119                   char_to_tile
     000011CA  A$lcc2270425$120                   char_to_tile
     000011CB  A$lcc2270425$124                   char_to_tile
     000011CB  C$char_to_tile.c$5$3_0$4           char_to_tile
     000011CC  A$lcc2270425$125                   char_to_tile
     000011CD  A$lcc2270425$126                   char_to_tile
     000011CE  A$lcc2270425$127                   char_to_tile
     000011CF  A$lcc2270425$128                   char_to_tile
     000011D2  A$lcc2270425$130                   char_to_tile
     000011D3  A$lcc2270425$131                   char_to_tile
     000011D5  A$lcc2270425$132                   char_to_tile
     000011D7  A$lcc2270425$136                   char_to_tile
     000011D7  C$char_to_tile.c$6$4_0$6           char_to_tile
     000011DA  A$lcc2270425$137                   char_to_tile
     000011DB  A$lcc2270425$138                   char_to_tile
     000011DC  A$lcc2270425$139                   char_to_tile
     000011DD  A$lcc2270425$140                   char_to_tile
     000011DF  A$lcc2270425$141                   char_to_tile
     000011E0  A$lcc2270425$142                   char_to_tile
     000011E1  A$lcc2270425$143                   char_to_tile
     000011E3  A$lcc2270425$147                   char_to_tile
     000011E3  C$char_to_tile.c$7$5_0$7           char_to_tile
     000011E5  A$lcc2270425$148                   char_to_tile
     000011E6  A$lcc2270425$149                   char_to_tile
     000011E8  A$lcc2270425$150                   char_to_tile
     000011E9  A$lcc2270425$151                   char_to_tile
     000011EB  A$lcc2270425$156                   char_to_tile
     000011EB  C$char_to_tile.c$5$2_0$4           char_to_tile
     000011EC  A$lcc2270425$157                   char_to_tile
     000011EE  A$lcc2270425$158                   char_to_tile
     000011EF  A$lcc2270425$159                   char_to_tile
     000011F0  A$lcc2270425$160                   char_to_tile
     000011F1  A$lcc2270425$161                   char_to_tile
     000011F3  A$lcc2270425$166                   char_to_tile
     000011F3  C$char_to_tile.c$11$1_0$3          char_to_tile
     000011F6  A$lcc2270425$171                   char_to_tile
     000011F8  A$lcc2270425$176                   char_to_tile
     000011F8  C$char_to_tile.c$12$1_0$3          char_to_tile
     000011F8  XG$char_to_tile$0$0                char_to_tile
     000011F9  A$lcc2270426$52                    collision
     000011F9  C$collision.c$3$0_0$3              collision
     000011F9  G$check_collision$0$0              collision
ASxxxx Linker V03.00/V05.40 + sdld,  page 18.
Hexadecimal  [32-Bits]

Area                                    Addr        Size        Decimal Bytes (Attributes)
--------------------------------        ----        ----        ------- ----- ------------
_CODE                               00000200    00002D3E =       11582. bytes (REL,CON)

      Value  Global                              Global Defined In Module
      -----  --------------------------------   ------------------------
     000011F9  _check_collision                   collision
     000011FB  A$lcc2270426$53                    collision
     000011FC  A$lcc2270426$54                    collision
     000011FE  A$lcc2270426$55                    collision
     000011FF  A$lcc2270426$59                    collision
     000011FF  C$collision.c$8$1_0$3              collision
     00001201  A$lcc2270426$60                    collision
     00001202  A$lcc2270426$61                    collision
     00001204  A$lcc2270426$62                    collision
     00001205  A$lcc2270426$63                    collision
     00001207  A$lcc2270426$64                    collision
     00001209  A$lcc2270426$65                    collision
     0000120A  A$lcc2270426$66                    collision
     0000120C  A$lcc2270426$67                    collision
     0000120D  A$lcc2270426$68                    collision
     0000120E  A$lcc2270426$69                    collision
     0000120F  A$lcc2270426$70                    collision
     00001210  A$lcc2270426$71                    collision
     00001211  A$lcc2270426$72                    collision
     00001212  A$lcc2270426$73                    collision
     00001213  A$lcc2270426$74                    collision
     00001214  A$lcc2270426$75                    collision
     00001215  A$lcc2270426$76                    collision
     00001216  A$lcc2270426$77                    collision
     00001217  A$lcc2270426$78                    collision
     00001219  A$lcc2270426$79                    collision
     0000121A  A$lcc2270426$80                    collision
     0000121B  A$lcc2270426$81                    collision
     0000121C  A$lcc2270426$82                    collision
     0000121E  A$lcc2270426$83                    collision
     0000121F  A$lcc2270426$84                    collision
     00001221  A$lcc2270426$85                    collision
     00001222  A$lcc2270426$86                    collision
     00001223  A$lcc2270426$87                    collision
     00001224  A$lcc2270426$88                    collision
     00001225  A$lcc2270426$89                    collision
     00001226  A$lcc2270426$90                    collision
     00001228  A$lcc2270426$94                    collision
     00001228  C$collision.c$9$1_0$3              collision
     00001229  A$lcc2270426$95                    collision
     0000122A  A$lcc2270426$96                    collision
     0000122B  A$lcc2270426$97                    collision
     0000122C  A$lcc2270426$98                    collision
     0000122D  A$lcc2270426$99                    collision
     0000122F  A$lcc2270426$100                   collision
     00001230  A$lcc2270426$101                   collision
     00001231  A$lcc2270426$102                   collision
     00001232  A$lcc2270426$103                   collision
     00001233  A$lcc2270426$104                   collision
     00001235  A$lcc2270426$108                   collision
     00001235  C$collision.c$10$1_0$3             collision
ASxxxx Linker V03.00/V05.40 + sdld,  page 19.
Hexadecimal  [32-Bits]

Area                                    Addr        Size        Decimal Bytes (Attributes)
--------------------------------        ----        ----        ------- ----- ------------
_CODE                               00000200    00002D3E =       11582. bytes (REL,CON)

      Value  Global                              Global Defined In Module
      -----  --------------------------------   ------------------------
     00001237  A$lcc2270426$109                   collision
     00001238  A$lcc2270426$110                   collision
     0000123A  A$lcc2270426$111                   collision
     0000123B  A$lcc2270426$112                   collision
     0000123C  A$lcc2270426$113                   collision
     0000123D  A$lcc2270426$114                   collision
     0000123E  A$lcc2270426$115                   collision
     0000123F  A$lcc2270426$116                   collision
     00001240  A$lcc2270426$117                   collision
     00001241  A$lcc2270426$118                   collision
     00001242  A$lcc2270426$119                   collision
     00001243  A$lcc2270426$120                   collision
     00001244  A$lcc2270426$121                   collision
     00001245  A$lcc2270426$122                   collision
     00001247  A$lcc2270426$123                   collision
     00001248  A$lcc2270426$124                   collision
     00001249  A$lcc2270426$125                   collision
     0000124A  A$lcc2270426$126                   collision
     0000124C  A$lcc2270426$127                   collision
     0000124D  A$lcc2270426$128                   collision
     0000124E  A$lcc2270426$129                   collision
     0000124F  A$lcc2270426$130                   collision
     00001250  A$lcc2270426$131                   collision
     00001252  A$lcc2270426$132                   collision
     00001253  A$lcc2270426$133                   collision
     00001254  A$lcc2270426$134                   collision
     00001255  A$lcc2270426$135                   collision
     00001256  A$lcc2270426$136                   collision
     00001257  A$lcc2270426$137                   collision
     00001259  A$lcc2270426$141                   collision
     00001259  C$collision.c$11$1_0$3             collision
     0000125A  A$lcc2270426$142                   collision
     0000125B  A$lcc2270426$143                   collision
     0000125C  A$lcc2270426$144                   collision
     0000125D  A$lcc2270426$145                   collision
     0000125E  A$lcc2270426$146                   collision
     00001260  A$lcc2270426$147                   collision
     00001261  A$lcc2270426$148                   collision
     00001262  A$lcc2270426$149                   collision
     00001263  A$lcc2270426$150                   collision
     00001264  A$lcc2270426$151                   collision
     00001266  A$lcc2270426$153                   collision
     00001267  A$lcc2270426$154                   collision
     00001269  A$lcc2270426$156                   collision
     0000126B  A$lcc2270426$161                   collision
     0000126B  C$collision.c$12$1_0$3             collision
     0000126D  A$lcc2270426$162                   collision
     0000126E  A$lcc2270426$163                   collision
     00001270  A$lcc2270426$164                   collision
     00001271  A$lcc2270427$53                    draw
     00001271  C$draw.c$7$0_0$139                 draw
ASxxxx Linker V03.00/V05.40 + sdld,  page 20.
Hexadecimal  [32-Bits]

Area                                    Addr        Size        Decimal Bytes (Attributes)
--------------------------------        ----        ----        ------- ----- ------------
_CODE                               00000200    00002D3E =       11582. bytes (REL,CON)

      Value  Global                              Global Defined In Module
      -----  --------------------------------   ------------------------
     00001271  G$draw_actor$0$0                   draw
     00001271  _draw_actor                        draw
     00001273  A$lcc2270427$54                    draw
     00001275  A$lcc2270427$55                    draw
     00001276  A$lcc2270427$59                    draw
     00001276  C$draw.c$9$1_0$139                 draw
     00001279  A$lcc2270427$60                    draw
     0000127A  A$lcc2270427$61                    draw
     0000127C  A$lcc2270427$62                    draw
     0000127D  A$lcc2270427$63                    draw
     0000127E  A$lcc2270427$64                    draw
     0000127F  A$lcc2270427$65                    draw
     00001280  A$lcc2270427$66                    draw
     00001282  A$lcc2270427$67                    draw
     00001283  A$lcc2270427$71                    draw
     00001283  C$draw.c$10$1_0$139                draw
     00001286  A$lcc2270427$72                    draw
     00001288  A$lcc2270427$73                    draw
     00001289  A$lcc2270427$74                    draw
     0000128B  A$lcc2270427$75                    draw
     0000128C  A$lcc2270427$76                    draw
     0000128D  A$lcc2270427$77                    draw
     0000128E  A$lcc2270427$78                    draw
     0000128F  A$lcc2270427$79                    draw
     00001291  A$lcc2270427$80                    draw
     00001292  A$lcc2270427$84                    draw
     00001292  C$draw.c$12$1_0$139                draw
     00001295  A$lcc2270427$85                    draw
     00001297  A$lcc2270427$86                    draw
     00001298  A$lcc2270427$87                    draw
     0000129A  A$lcc2270427$88                    draw
     0000129B  A$lcc2270427$89                    draw
     0000129C  A$lcc2270427$90                    draw
     0000129D  A$lcc2270427$91                    draw
     0000129E  A$lcc2270427$92                    draw
     0000129F  A$lcc2270427$93                    draw
     000012A0  A$lcc2270427$94                    draw
     000012A1  A$lcc2270427$95                    draw
     000012A2  A$lcc2270427$96                    draw
     000012A3  A$lcc2270427$97                    draw
     000012A4  A$lcc2270427$98                    draw
     000012A5  A$lcc2270427$99                    draw
     000012A6  A$lcc2270427$103                   draw
     000012A6  C$draw.c$13$1_0$139                draw
     000012A9  A$lcc2270427$104                   draw
     000012AA  A$lcc2270427$105                   draw
     000012AB  A$lcc2270427$106                   draw
     000012AC  A$lcc2270427$107                   draw
     000012AD  A$lcc2270427$108                   draw
     000012AE  A$lcc2270427$109                   draw
     000012AF  A$lcc2270427$110                   draw
ASxxxx Linker V03.00/V05.40 + sdld,  page 21.
Hexadecimal  [32-Bits]

Area                                    Addr        Size        Decimal Bytes (Attributes)
--------------------------------        ----        ----        ------- ----- ------------
_CODE                               00000200    00002D3E =       11582. bytes (REL,CON)

      Value  Global                              Global Defined In Module
      -----  --------------------------------   ------------------------
     000012B0  A$lcc2270427$111                   draw
     000012B1  A$lcc2270427$112                   draw
     000012B3  A$lcc2270427$113                   draw
     000012B4  A$lcc2270427$114                   draw
     000012B5  A$lcc2270427$118                   draw
     000012B5  C$draw.c$15$1_0$139                draw
     000012B8  A$lcc2270427$119                   draw
     000012B9  A$lcc2270427$120                   draw
     000012BA  A$lcc2270427$121                   draw
     000012BC  A$lcc2270427$122                   draw
     000012BD  A$lcc2270427$126                   draw
     000012BD  C$draw.c$16$1_0$139                draw
     000012BE  A$lcc2270427$127                   draw
     000012BF  A$lcc2270427$128                   draw
     000012C0  A$lcc2270427$129                   draw
     000012C1  A$lcc2270427$130                   draw
     000012C2  A$lcc2270427$131                   draw
     000012C3  A$lcc2270427$132                   draw
     000012C6  A$lcc2270427$133                   draw
     000012C7  A$lcc2270427$134                   draw
     000012C8  A$lcc2270427$135                   draw
     000012C9  A$lcc2270427$136                   draw
     000012CB  A$lcc2270427$140                   draw
     000012CB  C$draw.c$18$1_0$139                draw
     000012CC  A$lcc2270427$141                   draw
     000012CD  A$lcc2270427$142                   draw
     000012CE  A$lcc2270427$143                   draw
     000012CF  A$lcc2270427$144                   draw
     000012D0  A$lcc2270427$148                   draw
     000012D0  C$draw.c$19$1_0$139                draw
     000012D2  A$lcc2270427$149                   draw
     000012D3  A$lcc2270427$150                   draw
     000012D4  A$lcc2270427$151                   draw
     000012D5  A$lcc2270427$152                   draw
     000012D6  A$lcc2270427$153                   draw
     000012D7  A$lcc2270427$154                   draw
     000012D8  A$lcc2270427$155                   draw
     000012D9  A$lcc2270427$156                   draw
     000012DA  A$lcc2270427$157                   draw
     000012DB  A$lcc2270427$158                   draw
     000012DC  A$lcc2270427$159                   draw
     000012DD  A$lcc2270427$160                   draw
     000012DE  A$lcc2270427$161                   draw
     000012DF  A$lcc2270427$162                   draw
     000012E0  A$lcc2270427$166                   draw
     000012E0  C$draw.c$21$2_0$140                draw
     000012E2  A$lcc2270427$167                   draw
     000012E3  A$lcc2270427$174                   draw
     000012E3  C$draw.c$22$2_0$140                draw
     000012E3  C$draw.c$25$2_0$139                draw
     000012E6  A$lcc2270427$175                   draw
ASxxxx Linker V03.00/V05.40 + sdld,  page 22.
Hexadecimal  [32-Bits]

Area                                    Addr        Size        Decimal Bytes (Attributes)
--------------------------------        ----        ----        ------- ----- ------------
_CODE                               00000200    00002D3E =       11582. bytes (REL,CON)

      Value  Global                              Global Defined In Module
      -----  --------------------------------   ------------------------
     000012E8  A$lcc2270427$177                   draw
     000012E9  A$lcc2270427$178                   draw
     000012EB  A$lcc2270427$179                   draw
     000012EC  A$lcc2270427$180                   draw
     000012EE  A$lcc2270427$182                   draw
     000012EF  A$lcc2270427$183                   draw
     000012F0  A$lcc2270427$184                   draw
     000012F1  A$lcc2270427$185                   draw
     000012F2  A$lcc2270427$186                   draw
     000012F3  A$lcc2270427$187                   draw
     000012F5  A$lcc2270427$188                   draw
     000012F8  A$lcc2270427$189                   draw
     000012F9  A$lcc2270427$190                   draw
     000012FA  A$lcc2270427$191                   draw
     000012FB  A$lcc2270427$192                   draw
     000012FC  A$lcc2270427$194                   draw
     000012FD  A$lcc2270427$195                   draw
     000012FE  A$lcc2270427$196                   draw
     000012FF  A$lcc2270427$197                   draw
     00001300  A$lcc2270427$198                   draw
     00001301  A$lcc2270427$199                   draw
     00001302  A$lcc2270427$200                   draw
     00001305  A$lcc2270427$201                   draw
     00001306  A$lcc2270427$202                   draw
     00001307  A$lcc2270427$203                   draw
     00001308  A$lcc2270427$204                   draw
     00001309  A$lcc2270427$205                   draw
     0000130A  A$lcc2270427$209                   draw
     0000130A  C$draw.c$25$2_0$141                draw
     0000130B  A$lcc2270427$210                   draw
     0000130D  A$lcc2270427$215                   draw
     0000130D  C$draw.c$29$2_0$142                draw
     0000130F  A$lcc2270427$216                   draw
     00001310  A$lcc2270427$217                   draw
     00001311  A$lcc2270427$218                   draw
     00001313  A$lcc2270427$220                   draw
     00001315  A$lcc2270427$221                   draw
     00001316  A$lcc2270427$223                   draw
     00001317  A$lcc2270427$224                   draw
     00001318  A$lcc2270427$225                   draw
     00001319  A$lcc2270427$226                   draw
     0000131A  A$lcc2270427$227                   draw
     0000131B  A$lcc2270427$228                   draw
     0000131E  A$lcc2270427$229                   draw
     0000131F  A$lcc2270427$230                   draw
     00001320  A$lcc2270427$231                   draw
     00001321  A$lcc2270427$233                   draw
     00001323  A$lcc2270427$234                   draw
     00001324  A$lcc2270427$235                   draw
     00001325  A$lcc2270427$236                   draw
     00001326  A$lcc2270427$237                   draw
ASxxxx Linker V03.00/V05.40 + sdld,  page 23.
Hexadecimal  [32-Bits]

Area                                    Addr        Size        Decimal Bytes (Attributes)
--------------------------------        ----        ----        ------- ----- ------------
_CODE                               00000200    00002D3E =       11582. bytes (REL,CON)

      Value  Global                              Global Defined In Module
      -----  --------------------------------   ------------------------
     00001327  A$lcc2270427$238                   draw
     00001328  A$lcc2270427$242                   draw
     00001328  C$draw.c$31$2_0$142                draw
     0000132B  A$lcc2270427$247                   draw
     0000132B  C$draw.c$33$3_0$144                draw
     0000132D  A$lcc2270427$248                   draw
     0000132E  A$lcc2270427$249                   draw
     00001330  A$lcc2270427$250                   draw
     00001332  A$lcc2270427$254                   draw
     00001335  A$lcc2270427$255                   draw
     00001337  A$lcc2270427$256                   draw
     00001338  A$lcc2270427$257                   draw
     0000133A  A$lcc2270427$258                   draw
     0000133B  A$lcc2270427$259                   draw
     0000133C  A$lcc2270427$260                   draw
     0000133D  A$lcc2270427$261                   draw
     0000133E  A$lcc2270427$262                   draw
     0000133F  A$lcc2270427$266                   draw
     0000133F  C$draw.c$31$2_0$139                draw
     00001341  A$lcc2270427$267                   draw
     00001342  A$lcc2270427$271                   draw
     00001342  C$draw.c$35$5_0$146                draw
     00001344  A$lcc2270427$272                   draw
     00001346  A$lcc2270427$275                   draw
     00001347  A$lcc2270427$276                   draw
     00001348  A$lcc2270427$277                   draw
     00001349  A$lcc2270427$278                   draw
     0000134A  A$lcc2270427$279                   draw
     0000134B  A$lcc2270427$280                   draw
     0000134E  A$lcc2270427$281                   draw
     0000134F  A$lcc2270427$282                   draw
     00001350  A$lcc2270427$283                   draw
     00001351  A$lcc2270427$285                   draw
     00001353  A$lcc2270427$286                   draw
     00001354  A$lcc2270427$287                   draw
     00001355  A$lcc2270427$288                   draw
     00001356  A$lcc2270427$290                   draw
     00001357  A$lcc2270427$291                   draw
     00001358  A$lcc2270427$292                   draw
     00001359  A$lcc2270427$293                   draw
     0000135B  A$lcc2270427$294                   draw
     0000135C  A$lcc2270427$295                   draw
     0000135E  A$lcc2270427$297                   draw
     0000135F  A$lcc2270427$298                   draw
     00001362  A$lcc2270427$299                   draw
     00001363  A$lcc2270427$300                   draw
     00001364  A$lcc2270427$301                   draw
     00001365  A$lcc2270427$302                   draw
     00001366  A$lcc2270427$303                   draw
     00001367  A$lcc2270427$304                   draw
     00001368  A$lcc2270427$305                   draw
ASxxxx Linker V03.00/V05.40 + sdld,  page 24.
Hexadecimal  [32-Bits]

Area                                    Addr        Size        Decimal Bytes (Attributes)
--------------------------------        ----        ----        ------- ----- ------------
_CODE                               00000200    00002D3E =       11582. bytes (REL,CON)

      Value  Global                              Global Defined In Module
      -----  --------------------------------   ------------------------
     00001369  A$lcc2270427$307                   draw
     0000136A  A$lcc2270427$308                   draw
     0000136B  A$lcc2270427$309                   draw
     0000136C  A$lcc2270427$310                   draw
     0000136E  A$lcc2270427$311                   draw
     0000136F  A$lcc2270427$312                   draw
     00001370  A$lcc2270427$316                   draw
     00001370  C$draw.c$38$5_0$146                draw
     00001373  A$lcc2270427$320                   draw
     00001374  A$lcc2270427$321                   draw
     00001375  A$lcc2270427$322                   draw
     00001376  A$lcc2270427$323                   draw
     00001377  A$lcc2270427$324                   draw
     00001378  A$lcc2270427$325                   draw
     0000137B  A$lcc2270427$326                   draw
     0000137C  A$lcc2270427$327                   draw
     0000137D  A$lcc2270427$328                   draw
     0000137E  A$lcc2270427$330                   draw
     00001380  A$lcc2270427$331                   draw
     00001381  A$lcc2270427$332                   draw
     00001382  A$lcc2270427$333                   draw
     00001383  A$lcc2270427$334                   draw
     00001384  A$lcc2270427$335                   draw
     00001385  A$lcc2270427$337                   draw
     00001386  A$lcc2270427$338                   draw
     00001388  A$lcc2270427$339                   draw
     00001389  A$lcc2270427$340                   draw
     0000138B  A$lcc2270427$342                   draw
     0000138C  A$lcc2270427$343                   draw
     0000138D  A$lcc2270427$344                   draw
     0000138E  A$lcc2270427$345                   draw
     0000138F  A$lcc2270427$346                   draw
     00001390  A$lcc2270427$347                   draw
     00001393  A$lcc2270427$348                   draw
     00001394  A$lcc2270427$350                   draw
     00001395  A$lcc2270427$351                   draw
     00001397  A$lcc2270427$352                   draw
     00001398  A$lcc2270427$353                   draw
     00001399  A$lcc2270427$354                   draw
     0000139A  A$lcc2270427$355                   draw
     0000139B  A$lcc2270427$359                   draw
     0000139B  C$draw.c$43$3_0$144                draw
     0000139D  A$lcc2270427$364                   draw
     0000139D  C$draw.c$46$4_0$149                draw
     0000139F  A$lcc2270427$365                   draw
     000013A0  A$lcc2270427$366                   draw
     000013A2  A$lcc2270427$367                   draw
     000013A4  A$lcc2270427$369                   draw
     000013A6  A$lcc2270427$370                   draw
     000013A7  A$lcc2270427$372                   draw
     000013A8  A$lcc2270427$373                   draw
ASxxxx Linker V03.00/V05.40 + sdld,  page 25.
Hexadecimal  [32-Bits]

Area                                    Addr        Size        Decimal Bytes (Attributes)
--------------------------------        ----        ----        ------- ----- ------------
_CODE                               00000200    00002D3E =       11582. bytes (REL,CON)

      Value  Global                              Global Defined In Module
      -----  --------------------------------   ------------------------
     000013A9  A$lcc2270427$374                   draw
     000013AA  A$lcc2270427$375                   draw
     000013AB  A$lcc2270427$376                   draw
     000013AC  A$lcc2270427$377                   draw
     000013AF  A$lcc2270427$378                   draw
     000013B0  A$lcc2270427$379                   draw
     000013B1  A$lcc2270427$380                   draw
     000013B2  A$lcc2270427$382                   draw
     000013B4  A$lcc2270427$383                   draw
     000013B5  A$lcc2270427$384                   draw
     000013B6  A$lcc2270427$385                   draw
     000013B7  A$lcc2270427$386                   draw
     000013B8  A$lcc2270427$387                   draw
     000013B9  A$lcc2270427$389                   draw
     000013BA  A$lcc2270427$390                   draw
     000013BC  A$lcc2270427$391                   draw
     000013BE  A$lcc2270427$392                   draw
     000013BF  A$lcc2270427$393                   draw
     000013C0  A$lcc2270427$394                   draw
     000013C2  A$lcc2270427$396                   draw
     000013C3  A$lcc2270427$397                   draw
     000013C4  A$lcc2270427$398                   draw
     000013C5  A$lcc2270427$399                   draw
     000013C6  A$lcc2270427$400                   draw
     000013C7  A$lcc2270427$401                   draw
     000013CA  A$lcc2270427$402                   draw
     000013CB  A$lcc2270427$404                   draw
     000013CC  A$lcc2270427$405                   draw
     000013CE  A$lcc2270427$406                   draw
     000013CF  A$lcc2270427$407                   draw
     000013D0  A$lcc2270427$408                   draw
     000013D1  A$lcc2270427$409                   draw
     000013D2  A$lcc2270427$411                   draw
     000013D4  A$lcc2270427$412                   draw
     000013D5  A$lcc2270427$413                   draw
     000013D7  A$lcc2270427$414                   draw
     000013D8  A$lcc2270427$415                   draw
     000013D9  A$lcc2270427$416                   draw
     000013DB  A$lcc2270427$418                   draw
     000013DC  A$lcc2270427$419                   draw
     000013DD  A$lcc2270427$420                   draw
     000013DE  A$lcc2270427$421                   draw
     000013DF  A$lcc2270427$422                   draw
     000013E0  A$lcc2270427$423                   draw
     000013E3  A$lcc2270427$424                   draw
     000013E4  A$lcc2270427$425                   draw
     000013E5  A$lcc2270427$426                   draw
     000013E6  A$lcc2270427$428                   draw
     000013E8  A$lcc2270427$429                   draw
     000013E9  A$lcc2270427$430                   draw
     000013EA  A$lcc2270427$431                   draw
ASxxxx Linker V03.00/V05.40 + sdld,  page 26.
Hexadecimal  [32-Bits]

Area                                    Addr        Size        Decimal Bytes (Attributes)
--------------------------------        ----        ----        ------- ----- ------------
_CODE                               00000200    00002D3E =       11582. bytes (REL,CON)

      Value  Global                              Global Defined In Module
      -----  --------------------------------   ------------------------
     000013EB  A$lcc2270427$432                   draw
     000013EC  A$lcc2270427$434                   draw
     000013ED  A$lcc2270427$435                   draw
     000013EE  A$lcc2270427$437                   draw
     000013EF  A$lcc2270427$438                   draw
     000013F2  A$lcc2270427$439                   draw
     000013F3  A$lcc2270427$440                   draw
     000013F4  A$lcc2270427$441                   draw
     000013F5  A$lcc2270427$442                   draw
     000013F6  A$lcc2270427$443                   draw
     000013F7  A$lcc2270427$444                   draw
     000013F8  A$lcc2270427$445                   draw
     000013F9  A$lcc2270427$447                   draw
     000013FA  A$lcc2270427$448                   draw
     000013FB  A$lcc2270427$449                   draw
     000013FC  A$lcc2270427$450                   draw
     000013FE  A$lcc2270427$451                   draw
     000013FF  A$lcc2270427$452                   draw
     00001400  A$lcc2270427$460                   draw
     00001400  C$draw.c$51$2_0$139                draw
     00001402  A$lcc2270427$465                   draw
     00001402  C$draw.c$53$2_0$139                draw
     00001402  XG$draw_actor$0$0                  draw
     00001403  A$lcc2270427$475                   draw
     00001403  C$draw.c$55$2_0$182                draw
     00001403  G$draw_extra$0$0                   draw
     00001403  _draw_extra                        draw
     00001405  A$lcc2270427$476                   draw
     00001406  A$lcc2270427$477                   draw
     00001408  A$lcc2270427$478                   draw
     00001409  A$lcc2270427$482                   draw
     00001409  C$draw.c$58$1_0$182                draw
     0000140B  A$lcc2270427$483                   draw
     0000140C  A$lcc2270427$484                   draw
     0000140D  A$lcc2270427$485                   draw
     0000140E  A$lcc2270427$486                   draw
     0000140F  A$lcc2270427$487                   draw
     00001412  A$lcc2270427$488                   draw
     00001413  A$lcc2270427$489                   draw
     00001414  A$lcc2270427$490                   draw
     00001415  A$lcc2270427$491                   draw
     00001417  A$lcc2270427$492                   draw
     00001418  A$lcc2270427$496                   draw
     00001418  C$draw.c$61$2_0$182                draw
     0000141A  A$lcc2270427$497                   draw
     0000141B  A$lcc2270427$498                   draw
     0000141C  A$lcc2270427$499                   draw
     0000141F  A$lcc2270427$500                   draw
     00001420  A$lcc2270427$501                   draw
     00001422  A$lcc2270427$502                   draw
     00001424  A$lcc2270427$503                   draw
ASxxxx Linker V03.00/V05.40 + sdld,  page 27.
Hexadecimal  [32-Bits]

Area                                    Addr        Size        Decimal Bytes (Attributes)
--------------------------------        ----        ----        ------- ----- ------------
_CODE                               00000200    00002D3E =       11582. bytes (REL,CON)

      Value  Global                              Global Defined In Module
      -----  --------------------------------   ------------------------
     00001425  A$lcc2270427$507                   draw
     00001425  C$draw.c$64$2_0$183                draw
     00001426  A$lcc2270427$508                   draw
     00001428  A$lcc2270427$509                   draw
     0000142A  A$lcc2270427$510                   draw
     0000142B  A$lcc2270427$511                   draw
     0000142D  A$lcc2270427$512                   draw
     0000142E  A$lcc2270427$513                   draw
     0000142F  A$lcc2270427$514                   draw
     00001431  A$lcc2270427$515                   draw
     00001432  A$lcc2270427$516                   draw
     00001434  A$lcc2270427$517                   draw
     00001435  A$lcc2270427$524                   draw
     00001435  C$draw.c$65$2_0$183                draw
     00001435  C$draw.c$68$2_0$182                draw
     00001438  A$lcc2270427$525                   draw
     0000143A  A$lcc2270427$527                   draw
     0000143B  A$lcc2270427$528                   draw
     0000143D  A$lcc2270427$529                   draw
     0000143E  A$lcc2270427$530                   draw
     00001440  A$lcc2270427$532                   draw
     00001442  A$lcc2270427$533                   draw
     00001443  A$lcc2270427$534                   draw
     00001444  A$lcc2270427$535                   draw
     00001445  A$lcc2270427$536                   draw
     00001446  A$lcc2270427$537                   draw
     00001447  A$lcc2270427$538                   draw
     00001448  A$lcc2270427$540                   draw
     00001449  A$lcc2270427$541                   draw
     0000144A  A$lcc2270427$542                   draw
     0000144B  A$lcc2270427$543                   draw
     0000144C  A$lcc2270427$544                   draw
     0000144D  A$lcc2270427$545                   draw
     0000144E  A$lcc2270427$546                   draw
     00001451  A$lcc2270427$547                   draw
     00001452  A$lcc2270427$548                   draw
     00001453  A$lcc2270427$549                   draw
     00001454  A$lcc2270427$550                   draw
     00001455  A$lcc2270427$551                   draw
     00001456  A$lcc2270427$552                   draw
     00001458  A$lcc2270427$553                   draw
     00001459  A$lcc2270427$554                   draw
     0000145A  A$lcc2270427$555                   draw
     0000145B  A$lcc2270427$559                   draw
     0000145B  C$draw.c$68$2_0$184                draw
     0000145C  A$lcc2270427$560                   draw
     0000145E  A$lcc2270427$565                   draw
     0000145E  C$draw.c$74$2_0$182                draw
     00001460  A$lcc2270427$566                   draw
     00001461  A$lcc2270427$567                   draw
     00001463  A$lcc2270427$568                   draw
ASxxxx Linker V03.00/V05.40 + sdld,  page 28.
Hexadecimal  [32-Bits]

Area                                    Addr        Size        Decimal Bytes (Attributes)
--------------------------------        ----        ----        ------- ----- ------------
_CODE                               00000200    00002D3E =       11582. bytes (REL,CON)

      Value  Global                              Global Defined In Module
      -----  --------------------------------   ------------------------
     00001464  A$lcc2270427$572                   draw
     00001464  C$draw.c$72$2_0$185                draw
     00001466  A$lcc2270427$573                   draw
     00001467  A$lcc2270427$574                   draw
     00001468  A$lcc2270427$575                   draw
     0000146A  A$lcc2270427$577                   draw
     0000146B  A$lcc2270427$578                   draw
     0000146C  A$lcc2270427$579                   draw
     0000146D  A$lcc2270427$580                   draw
     0000146E  A$lcc2270427$581                   draw
     00001471  A$lcc2270427$582                   draw
     00001472  A$lcc2270427$583                   draw
     00001473  A$lcc2270427$584                   draw
     00001474  A$lcc2270427$586                   draw
     00001476  A$lcc2270427$587                   draw
     00001477  A$lcc2270427$588                   draw
     00001478  A$lcc2270427$589                   draw
     00001479  A$lcc2270427$590                   draw
     0000147B  A$lcc2270427$591                   draw
     0000147C  A$lcc2270427$592                   draw
     0000147D  A$lcc2270427$596                   draw
     0000147D  C$draw.c$74$2_0$185                draw
     00001480  A$lcc2270427$601                   draw
     00001480  C$draw.c$76$3_0$187                draw
     00001482  A$lcc2270427$602                   draw
     00001483  A$lcc2270427$603                   draw
     00001485  A$lcc2270427$604                   draw
     00001487  A$lcc2270427$608                   draw
     00001487  C$draw.c$78$5_0$189                draw
     00001489  A$lcc2270427$609                   draw
     0000148A  A$lcc2270427$610                   draw
     0000148B  A$lcc2270427$611                   draw
     0000148D  A$lcc2270427$613                   draw
     0000148E  A$lcc2270427$614                   draw
     0000148F  A$lcc2270427$615                   draw
     00001490  A$lcc2270427$616                   draw
     00001491  A$lcc2270427$617                   draw
     00001494  A$lcc2270427$618                   draw
     00001495  A$lcc2270427$619                   draw
     00001496  A$lcc2270427$620                   draw
     00001497  A$lcc2270427$622                   draw
     00001499  A$lcc2270427$623                   draw
     0000149A  A$lcc2270427$624                   draw
     0000149B  A$lcc2270427$625                   draw
     0000149C  A$lcc2270427$626                   draw
     0000149E  A$lcc2270427$627                   draw
     0000149F  A$lcc2270427$628                   draw
     000014A0  A$lcc2270427$630                   draw
     000014A2  A$lcc2270427$631                   draw
     000014A3  A$lcc2270427$632                   draw
     000014A4  A$lcc2270427$633                   draw
ASxxxx Linker V03.00/V05.40 + sdld,  page 29.
Hexadecimal  [32-Bits]

Area                                    Addr        Size        Decimal Bytes (Attributes)
--------------------------------        ----        ----        ------- ----- ------------
_CODE                               00000200    00002D3E =       11582. bytes (REL,CON)

      Value  Global                              Global Defined In Module
      -----  --------------------------------   ------------------------
     000014A6  A$lcc2270427$634                   draw
     000014A7  A$lcc2270427$635                   draw
     000014A8  A$lcc2270427$636                   draw
     000014A9  A$lcc2270427$638                   draw
     000014AA  A$lcc2270427$639                   draw
     000014AB  A$lcc2270427$640                   draw
     000014AC  A$lcc2270427$641                   draw
     000014AD  A$lcc2270427$642                   draw
     000014AE  A$lcc2270427$643                   draw
     000014B1  A$lcc2270427$644                   draw
     000014B2  A$lcc2270427$646                   draw
     000014B3  A$lcc2270427$647                   draw
     000014B4  A$lcc2270427$648                   draw
     000014B5  A$lcc2270427$649                   draw
     000014B6  A$lcc2270427$650                   draw
     000014B8  A$lcc2270427$651                   draw
     000014B9  A$lcc2270427$652                   draw
     000014BA  A$lcc2270427$656                   draw
     000014BA  C$draw.c$81$5_0$189                draw
     000014BD  A$lcc2270427$659                   draw
     000014BE  A$lcc2270427$660                   draw
     000014BF  A$lcc2270427$661                   draw
     000014C0  A$lcc2270427$662                   draw
     000014C1  A$lcc2270427$663                   draw
     000014C4  A$lcc2270427$664                   draw
     000014C5  A$lcc2270427$665                   draw
     000014C6  A$lcc2270427$666                   draw
     000014C7  A$lcc2270427$668                   draw
     000014C9  A$lcc2270427$669                   draw
     000014CA  A$lcc2270427$670                   draw
     000014CB  A$lcc2270427$671                   draw
     000014CC  A$lcc2270427$672                   draw
     000014CE  A$lcc2270427$673                   draw
     000014CF  A$lcc2270427$674                   draw
     000014D0  A$lcc2270427$676                   draw
     000014D1  A$lcc2270427$677                   draw
     000014D3  A$lcc2270427$678                   draw
     000014D4  A$lcc2270427$679                   draw
     000014D5  A$lcc2270427$680                   draw
     000014D6  A$lcc2270427$682                   draw
     000014D7  A$lcc2270427$683                   draw
     000014D8  A$lcc2270427$684                   draw
     000014D9  A$lcc2270427$685                   draw
     000014DA  A$lcc2270427$686                   draw
     000014DB  A$lcc2270427$687                   draw
     000014DE  A$lcc2270427$688                   draw
     000014DF  A$lcc2270427$690                   draw
     000014E0  A$lcc2270427$691                   draw
     000014E2  A$lcc2270427$692                   draw
     000014E3  A$lcc2270427$693                   draw
     000014E4  A$lcc2270427$694                   draw
ASxxxx Linker V03.00/V05.40 + sdld,  page 30.
Hexadecimal  [32-Bits]

Area                                    Addr        Size        Decimal Bytes (Attributes)
--------------------------------        ----        ----        ------- ----- ------------
_CODE                               00000200    00002D3E =       11582. bytes (REL,CON)

      Value  Global                              Global Defined In Module
      -----  --------------------------------   ------------------------
     000014E5  A$lcc2270427$695                   draw
     000014E6  A$lcc2270427$699                   draw
     000014E6  C$draw.c$86$3_0$187                draw
     000014E8  A$lcc2270427$704                   draw
     000014E8  C$draw.c$89$4_0$192                draw
     000014EA  A$lcc2270427$705                   draw
     000014EB  A$lcc2270427$706                   draw
     000014ED  A$lcc2270427$707                   draw
     000014EF  A$lcc2270427$709                   draw
     000014F0  A$lcc2270427$710                   draw
     000014F1  A$lcc2270427$711                   draw
     000014F2  A$lcc2270427$712                   draw
     000014F3  A$lcc2270427$713                   draw
     000014F6  A$lcc2270427$714                   draw
     000014F7  A$lcc2270427$715                   draw
     000014F8  A$lcc2270427$716                   draw
     000014F9  A$lcc2270427$718                   draw
     000014FB  A$lcc2270427$719                   draw
     000014FC  A$lcc2270427$720                   draw
     000014FD  A$lcc2270427$721                   draw
     000014FE  A$lcc2270427$722                   draw
     00001500  A$lcc2270427$723                   draw
     00001501  A$lcc2270427$724                   draw
     00001502  A$lcc2270427$726                   draw
     00001503  A$lcc2270427$727                   draw
     00001504  A$lcc2270427$728                   draw
     00001506  A$lcc2270427$729                   draw
     00001507  A$lcc2270427$730                   draw
     00001508  A$lcc2270427$731                   draw
     00001509  A$lcc2270427$732                   draw
     0000150A  A$lcc2270427$733                   draw
     0000150B  A$lcc2270427$735                   draw
     0000150C  A$lcc2270427$736                   draw
     0000150D  A$lcc2270427$737                   draw
     0000150E  A$lcc2270427$738                   draw
     0000150F  A$lcc2270427$739                   draw
     00001510  A$lcc2270427$740                   draw
     00001513  A$lcc2270427$741                   draw
     00001514  A$lcc2270427$743                   draw
     00001515  A$lcc2270427$744                   draw
     00001517  A$lcc2270427$745                   draw
     00001518  A$lcc2270427$746                   draw
     00001519  A$lcc2270427$747                   draw
     0000151A  A$lcc2270427$748                   draw
     0000151B  A$lcc2270427$750                   draw
     0000151D  A$lcc2270427$751                   draw
     0000151E  A$lcc2270427$752                   draw
     00001520  A$lcc2270427$753                   draw
     00001521  A$lcc2270427$754                   draw
     00001522  A$lcc2270427$755                   draw
     00001523  A$lcc2270427$756                   draw
ASxxxx Linker V03.00/V05.40 + sdld,  page 31.
Hexadecimal  [32-Bits]

Area                                    Addr        Size        Decimal Bytes (Attributes)
--------------------------------        ----        ----        ------- ----- ------------
_CODE                               00000200    00002D3E =       11582. bytes (REL,CON)

      Value  Global                              Global Defined In Module
      -----  --------------------------------   ------------------------
     00001524  A$lcc2270427$757                   draw
     00001525  A$lcc2270427$758                   draw
     00001526  A$lcc2270427$760                   draw
     00001529  A$lcc2270427$761                   draw
     0000152A  A$lcc2270427$762                   draw
     0000152B  A$lcc2270427$763                   draw
     0000152C  A$lcc2270427$764                   draw
     0000152D  A$lcc2270427$765                   draw
     0000152E  A$lcc2270427$766                   draw
     0000152F  A$lcc2270427$767                   draw
     00001530  A$lcc2270427$768                   draw
     00001531  A$lcc2270427$770                   draw
     00001533  A$lcc2270427$771                   draw
     00001534  A$lcc2270427$772                   draw
     00001535  A$lcc2270427$773                   draw
     00001536  A$lcc2270427$774                   draw
     00001538  A$lcc2270427$776                   draw
     00001539  A$lcc2270427$777                   draw
     0000153A  A$lcc2270427$778                   draw
     0000153B  A$lcc2270427$779                   draw
     0000153C  A$lcc2270427$780                   draw
     0000153D  A$lcc2270427$781                   draw
     0000153E  A$lcc2270427$783                   draw
     00001541  A$lcc2270427$784                   draw
     00001542  A$lcc2270427$785                   draw
     00001543  A$lcc2270427$786                   draw
     00001544  A$lcc2270427$787                   draw
     00001545  A$lcc2270427$788                   draw
     00001546  A$lcc2270427$789                   draw
     00001547  A$lcc2270427$790                   draw
     00001548  A$lcc2270427$791                   draw
     00001549  A$lcc2270427$793                   draw
     0000154A  A$lcc2270427$794                   draw
     0000154B  A$lcc2270427$795                   draw
     0000154C  A$lcc2270427$796                   draw
     0000154E  A$lcc2270427$797                   draw
     0000154F  A$lcc2270427$798                   draw
     00001550  A$lcc2270427$806                   draw
     00001550  C$draw.c$94$2_0$182                draw
     00001550  C$draw.c$96$2_0$182                draw
     00001552  A$lcc2270427$807                   draw
     00001553  A$lcc2270427$808                   draw
     00001555  A$lcc2270427$809                   draw
     00001556  A$lcc2270428$60                    entity
     00001556  C$entity.c$7$0_0$3                 entity
     00001556  C$entity.c$9$2_0$4                 entity
     00001556  G$create_entity$0$0                entity
     00001556  _create_entity                     entity
     00001559  A$lcc2270428$61                    entity
     0000155B  A$lcc2270428$62                    entity
     0000155D  A$lcc2270428$66                    entity
ASxxxx Linker V03.00/V05.40 + sdld,  page 32.
Hexadecimal  [32-Bits]

Area                                    Addr        Size        Decimal Bytes (Attributes)
--------------------------------        ----        ----        ------- ----- ------------
_CODE                               00000200    00002D3E =       11582. bytes (REL,CON)

      Value  Global                              Global Defined In Module
      -----  --------------------------------   ------------------------
     0000155D  C$entity.c$10$3_0$5                entity
     0000155E  A$lcc2270428$67                    entity
     0000155F  A$lcc2270428$72                    entity
     0000155F  C$entity.c$13$1_0$3                entity
     00001562  A$lcc2270428$73                    entity
     00001563  A$lcc2270428$74                    entity
     00001566  A$lcc2270428$75                    entity
     00001567  A$lcc2270428$76                    entity
     00001568  A$lcc2270428$84                    entity
     00001568  C$entity.c$14$1_0$3                entity
     00001568  XG$create_entity$0$0               entity
     00001569  A$lcc2270428$97                    entity
     00001569  C$entity.c$16$1_0$6                entity
     00001569  C$entity.c$18$1_0$6                entity
     00001569  G$reset_entities$0$0               entity
     00001569  _reset_entities                    entity
     0000156C  A$lcc2270428$98                    entity
     0000156E  A$lcc2270428$106                   entity
     0000156E  C$entity.c$19$1_0$6                entity
     0000156E  XG$reset_entities$0$0              entity
     0000156F  A$lcc2270432$57                    inventory
     0000156F  C$inventory.c$11$0_0$143           inventory
     0000156F  G$init_arrow$0$0                   inventory
     0000156F  _init_arrow                        inventory
     00001570  A$lcc2270432$58                    inventory
     00001571  A$lcc2270432$62                    inventory
     00001571  C$inventory.c$13$1_0$143           inventory
     00001574  A$lcc2270432$63                    inventory
     00001575  A$lcc2270432$64                    inventory
     00001577  A$lcc2270432$65                    inventory
     0000157A  A$lcc2270432$66                    inventory
     0000157B  A$lcc2270432$67                    inventory
     0000157D  A$lcc2270432$71                    inventory
     0000157D  C$inventory.c$14$1_0$143           inventory
     00001580  A$lcc2270432$72                    inventory
     00001583  A$lcc2270432$73                    inventory
     00001584  A$lcc2270432$74                    inventory
     00001586  A$lcc2270432$75                    inventory
     00001587  A$lcc2270432$76                    inventory
     00001589  A$lcc2270432$80                    inventory
     00001589  C$inventory.c$16$1_0$143           inventory
     0000158C  A$lcc2270432$81                    inventory
     0000158F  A$lcc2270432$82                    inventory
     00001590  A$lcc2270432$83                    inventory
     00001591  A$lcc2270432$84                    inventory
     00001593  A$lcc2270432$85                    inventory
     00001594  A$lcc2270432$86                    inventory
     00001597  A$lcc2270432$87                    inventory
     00001599  A$lcc2270432$88                    inventory
     0000159A  A$lcc2270432$89                    inventory
     0000159C  A$lcc2270432$90                    inventory
ASxxxx Linker V03.00/V05.40 + sdld,  page 33.
Hexadecimal  [32-Bits]

Area                                    Addr        Size        Decimal Bytes (Attributes)
--------------------------------        ----        ----        ------- ----- ------------
_CODE                               00000200    00002D3E =       11582. bytes (REL,CON)

      Value  Global                              Global Defined In Module
      -----  --------------------------------   ------------------------
     0000159E  A$lcc2270432$91                    inventory
     0000159F  A$lcc2270432$92                    inventory
     000015A0  A$lcc2270432$93                    inventory
     000015A1  A$lcc2270432$94                    inventory
     000015A2  A$lcc2270432$95                    inventory
     000015A3  A$lcc2270432$96                    inventory
     000015A4  A$lcc2270432$100                   inventory
     000015A4  C$inventory.c$17$1_0$143           inventory
     000015A7  A$lcc2270432$101                   inventory
     000015A8  A$lcc2270432$102                   inventory
     000015A9  A$lcc2270432$103                   inventory
     000015AB  A$lcc2270432$104                   inventory
     000015AC  A$lcc2270432$105                   inventory
     000015AE  A$lcc2270432$106                   inventory
     000015B0  A$lcc2270432$107                   inventory
     000015B1  A$lcc2270432$108                   inventory
     000015B2  A$lcc2270432$109                   inventory
     000015B4  A$lcc2270432$110                   inventory
     000015B5  A$lcc2270432$111                   inventory
     000015B6  A$lcc2270432$112                   inventory
     000015B7  A$lcc2270432$113                   inventory
     000015B8  A$lcc2270432$114                   inventory
     000015B9  A$lcc2270432$115                   inventory
     000015BA  A$lcc2270432$116                   inventory
     000015BB  A$lcc2270432$120                   inventory
     000015BB  C$inventory.c$19$1_0$143           inventory
     000015BE  A$lcc2270432$121                   inventory
     000015BF  A$lcc2270432$122                   inventory
     000015C1  A$lcc2270432$123                   inventory
     000015C4  A$lcc2270432$124                   inventory
     000015C5  A$lcc2270432$125                   inventory
     000015C7  A$lcc2270432$129                   inventory
     000015C7  C$inventory.c$20$1_0$143           inventory
     000015CA  A$lcc2270432$130                   inventory
     000015CD  A$lcc2270432$131                   inventory
     000015CE  A$lcc2270432$132                   inventory
     000015D0  A$lcc2270432$133                   inventory
     000015D1  A$lcc2270432$134                   inventory
     000015D3  A$lcc2270432$138                   inventory
     000015D3  C$inventory.c$21$1_0$143           inventory
     000015D6  A$lcc2270432$139                   inventory
     000015D9  A$lcc2270432$140                   inventory
     000015DA  A$lcc2270432$141                   inventory
     000015DC  A$lcc2270432$142                   inventory
     000015DD  A$lcc2270432$143                   inventory
     000015DF  A$lcc2270432$147                   inventory
     000015DF  C$inventory.c$23$2_0$144           inventory
     000015E1  A$lcc2270432$148                   inventory
     000015E3  A$lcc2270432$149                   inventory
     000015E4  A$lcc2270432$150                   inventory
     000015E6  A$lcc2270432$154                   inventory
ASxxxx Linker V03.00/V05.40 + sdld,  page 34.
Hexadecimal  [32-Bits]

Area                                    Addr        Size        Decimal Bytes (Attributes)
--------------------------------        ----        ----        ------- ----- ------------
_CODE                               00000200    00002D3E =       11582. bytes (REL,CON)

      Value  Global                              Global Defined In Module
      -----  --------------------------------   ------------------------
     000015E6  C$inventory.c$25$1_1$144           inventory
     000015E9  A$lcc2270432$155                   inventory
     000015EA  A$lcc2270432$156                   inventory
     000015EC  A$lcc2270432$157                   inventory
     000015ED  A$lcc2270432$158                   inventory
     000015EE  A$lcc2270432$159                   inventory
     000015EF  A$lcc2270432$160                   inventory
     000015F0  A$lcc2270432$161                   inventory
     000015F1  A$lcc2270432$162                   inventory
     000015F2  A$lcc2270432$163                   inventory
     000015F3  A$lcc2270432$164                   inventory
     000015F4  A$lcc2270432$165                   inventory
     000015F5  A$lcc2270432$166                   inventory
     000015F8  A$lcc2270432$167                   inventory
     000015F9  A$lcc2270432$168                   inventory
     000015FA  A$lcc2270432$169                   inventory
     000015FB  A$lcc2270432$170                   inventory
     000015FE  A$lcc2270432$171                   inventory
     000015FF  A$lcc2270432$172                   inventory
     00001601  A$lcc2270432$173                   inventory
     00001602  A$lcc2270432$174                   inventory
     00001603  A$lcc2270432$175                   inventory
     00001606  A$lcc2270432$176                   inventory
     00001607  A$lcc2270432$177                   inventory
     00001608  A$lcc2270432$178                   inventory
     00001609  A$lcc2270432$179                   inventory
     0000160A  A$lcc2270432$180                   inventory
     0000160B  A$lcc2270432$181                   inventory
     0000160C  A$lcc2270432$182                   inventory
     0000160F  A$lcc2270432$186                   inventory
     00001612  A$lcc2270432$187                   inventory
     00001613  A$lcc2270432$192                   inventory
     00001613  C$inventory.c$26$1_1$143           inventory
     00001613  XG$init_arrow$0$0                  inventory
     00001614  A$lcc2270433$62                    inventory_input
     00001614  C$inventory_input.c$19$0_0$150     inventory_input
     00001614  C$inventory_input.c$23$2_0$151     inventory_input
     00001614  G$inventory_input$0$0              inventory_input
     00001614  _inventory_input                   inventory_input
     00001617  A$lcc2270433$63                    inventory_input
     00001619  A$lcc2270433$64                    inventory_input
     0000161B  A$lcc2270433$65                    inventory_input
     0000161E  A$lcc2270433$66                    inventory_input
     00001620  A$lcc2270433$67                    inventory_input
     00001622  A$lcc2270433$71                    inventory_input
     00001622  C$inventory_input.c$25$3_0$152     inventory_input
     00001625  A$lcc2270433$72                    inventory_input
     00001628  A$lcc2270433$73                    inventory_input
     00001629  A$lcc2270433$74                    inventory_input
     0000162A  A$lcc2270433$75                    inventory_input
     0000162B  A$lcc2270433$76                    inventory_input
ASxxxx Linker V03.00/V05.40 + sdld,  page 35.
Hexadecimal  [32-Bits]

Area                                    Addr        Size        Decimal Bytes (Attributes)
--------------------------------        ----        ----        ------- ----- ------------
_CODE                               00000200    00002D3E =       11582. bytes (REL,CON)

      Value  Global                              Global Defined In Module
      -----  --------------------------------   ------------------------
     0000162C  A$lcc2270433$77                    inventory_input
     0000162D  A$lcc2270433$78                    inventory_input
     0000162E  A$lcc2270433$79                    inventory_input
     0000162F  A$lcc2270433$80                    inventory_input
     00001632  A$lcc2270433$81                    inventory_input
     00001634  A$lcc2270433$82                    inventory_input
     00001635  A$lcc2270433$83                    inventory_input
     00001637  A$lcc2270433$84                    inventory_input
     00001638  A$lcc2270433$85                    inventory_input
     00001639  A$lcc2270433$86                    inventory_input
     0000163C  A$lcc2270433$90                    inventory_input
     0000163C  C$inventory_input.c$26$3_0$152     inventory_input
     0000163F  A$lcc2270433$91                    inventory_input
     00001642  A$lcc2270433$92                    inventory_input
     00001643  A$lcc2270433$93                    inventory_input
     00001645  A$lcc2270433$94                    inventory_input
     00001646  A$lcc2270433$95                    inventory_input
     00001648  A$lcc2270433$99                    inventory_input
     00001648  C$inventory_input.c$27$3_0$152     inventory_input
     0000164B  A$lcc2270433$100                   inventory_input
     0000164E  A$lcc2270433$108                   inventory_input
     0000164E  C$inventory_input.c$26$1_1$150     inventory_input
     00001651  A$lcc2270433$109                   inventory_input
     00001652  A$lcc2270433$113                   inventory_input
     00001652  C$inventory_input.c$30$1_1$153     inventory_input
     00001655  A$lcc2270433$114                   inventory_input
     00001657  A$lcc2270433$115                   inventory_input
     00001658  A$lcc2270433$116                   inventory_input
     00001659  A$lcc2270433$120                   inventory_input
     00001659  C$inventory_input.c$31$1_1$153     inventory_input
     0000165C  A$lcc2270433$121                   inventory_input
     0000165E  A$lcc2270433$122                   inventory_input
     0000165F  A$lcc2270433$123                   inventory_input
     00001660  A$lcc2270433$127                   inventory_input
     00001660  C$inventory_input.c$23$1_1$150     inventory_input
     00001663  A$lcc2270433$128                   inventory_input
     00001664  A$lcc2270433$129                   inventory_input
     00001667  A$lcc2270433$133                   inventory_input
     00001667  C$inventory_input.c$33$2_1$154     inventory_input
     00001669  A$lcc2270433$134                   inventory_input
     0000166B  A$lcc2270433$135                   inventory_input
     0000166D  A$lcc2270433$136                   inventory_input
     0000166F  A$lcc2270433$140                   inventory_input
     0000166F  C$inventory_input.c$35$3_1$155     inventory_input
     00001670  A$lcc2270433$141                   inventory_input
     00001672  A$lcc2270433$142                   inventory_input
     00001673  A$lcc2270433$143                   inventory_input
     00001675  A$lcc2270433$148                   inventory_input
     00001675  C$inventory_input.c$37$3_1$156     inventory_input
     00001677  A$lcc2270433$149                   inventory_input
     00001679  A$lcc2270433$150                   inventory_input
ASxxxx Linker V03.00/V05.40 + sdld,  page 36.
Hexadecimal  [32-Bits]

Area                                    Addr        Size        Decimal Bytes (Attributes)
--------------------------------        ----        ----        ------- ----- ------------
_CODE                               00000200    00002D3E =       11582. bytes (REL,CON)

      Value  Global                              Global Defined In Module
      -----  --------------------------------   ------------------------
     0000167B  A$lcc2270433$151                   inventory_input
     0000167D  A$lcc2270433$155                   inventory_input
     0000167D  C$inventory_input.c$39$4_1$157     inventory_input
     0000167E  A$lcc2270433$156                   inventory_input
     00001680  A$lcc2270433$157                   inventory_input
     00001681  A$lcc2270433$158                   inventory_input
     00001683  A$lcc2270433$163                   inventory_input
     00001683  C$inventory_input.c$41$4_1$158     inventory_input
     00001685  A$lcc2270433$164                   inventory_input
     00001687  A$lcc2270433$165                   inventory_input
     00001689  A$lcc2270433$166                   inventory_input
     0000168B  A$lcc2270433$170                   inventory_input
     0000168B  C$inventory_input.c$43$5_1$159     inventory_input
     0000168C  A$lcc2270433$171                   inventory_input
     0000168E  A$lcc2270433$172                   inventory_input
     0000168F  A$lcc2270433$173                   inventory_input
     00001691  A$lcc2270433$178                   inventory_input
     00001691  C$inventory_input.c$45$5_1$160     inventory_input
     00001693  A$lcc2270433$179                   inventory_input
     00001695  A$lcc2270433$180                   inventory_input
     00001697  A$lcc2270433$181                   inventory_input
     00001699  A$lcc2270433$185                   inventory_input
     00001699  C$inventory_input.c$47$6_1$161     inventory_input
     0000169A  A$lcc2270433$186                   inventory_input
     0000169C  A$lcc2270433$187                   inventory_input
     0000169D  A$lcc2270433$192                   inventory_input
     0000169D  C$inventory_input.c$50$2_1$162     inventory_input
     0000169F  A$lcc2270433$193                   inventory_input
     000016A0  A$lcc2270433$194                   inventory_input
     000016A2  A$lcc2270433$198                   inventory_input
     000016A2  C$inventory_input.c$51$2_1$162     inventory_input
     000016A4  A$lcc2270433$203                   inventory_input
     000016A4  C$inventory_input.c$52$2_1$163     inventory_input
     000016A5  A$lcc2270433$204                   inventory_input
     000016A7  A$lcc2270433$205                   inventory_input
     000016A9  A$lcc2270433$209                   inventory_input
     000016A9  C$inventory_input.c$53$2_1$163     inventory_input
     000016AB  A$lcc2270433$214                   inventory_input
     000016AB  C$inventory_input.c$55$2_1$164     inventory_input
     000016AD  A$lcc2270433$215                   inventory_input
     000016AE  A$lcc2270433$216                   inventory_input
     000016B0  A$lcc2270433$220                   inventory_input
     000016B0  C$inventory_input.c$56$2_1$164     inventory_input
     000016B2  A$lcc2270433$225                   inventory_input
     000016B2  C$inventory_input.c$57$2_1$165     inventory_input
     000016B3  A$lcc2270433$226                   inventory_input
     000016B5  A$lcc2270433$227                   inventory_input
     000016B7  A$lcc2270433$231                   inventory_input
     000016B7  C$inventory_input.c$58$2_1$165     inventory_input
     000016B9  A$lcc2270433$236                   inventory_input
     000016B9  C$inventory_input.c$60$1_1$153     inventory_input
ASxxxx Linker V03.00/V05.40 + sdld,  page 37.
Hexadecimal  [32-Bits]

Area                                    Addr        Size        Decimal Bytes (Attributes)
--------------------------------        ----        ----        ------- ----- ------------
_CODE                               00000200    00002D3E =       11582. bytes (REL,CON)

      Value  Global                              Global Defined In Module
      -----  --------------------------------   ------------------------
     000016BA  A$lcc2270433$240                   inventory_input
     000016BA  C$inventory_input.c$61$1_1$153     inventory_input
     000016BD  A$lcc2270433$241                   inventory_input
     000016BE  A$lcc2270433$242                   inventory_input
     000016C0  A$lcc2270433$243                   inventory_input
     000016C3  A$lcc2270433$244                   inventory_input
     000016C4  A$lcc2270433$245                   inventory_input
     000016C5  A$lcc2270433$253                   inventory_input
     000016C5  C$inventory_input.c$64$1_1$150     inventory_input
     000016C5  XG$inventory_input$0$0             inventory_input
     000016C6  G$top_limit$0_0$0                  inventory_input
     000016C6  _top_limit                         inventory_input
     000016C7  G$bottom_limit$0_0$0               inventory_input
     000016C7  _bottom_limit                      inventory_input
     000016C8  G$left_limit$0_0$0                 inventory_input
     000016C8  _left_limit                        inventory_input
     000016C9  G$right_limit$0_0$0                inventory_input
     000016C9  _right_limit                       inventory_input
     000016CA  G$VERTICAL_MOVEMENT$0_0$0          inventory_input
     000016CA  _VERTICAL_MOVEMENT                 inventory_input
     000016CB  G$HORIZONTAL_MOVEMENT$0_0$0        inventory_input
     000016CB  _HORIZONTAL_MOVEMENT               inventory_input
     000016CC  A$lcc2270434$64                    load
     000016CC  C$load.c$10$0_0$134                load
     000016CC  G$load_actor_tiles$0$0             load
     000016CC  _load_actor_tiles                  load
     000016CE  A$lcc2270434$65                    load
     000016D0  A$lcc2270434$66                    load
     000016D1  A$lcc2270434$67                    load
     000016D2  A$lcc2270434$68                    load
     000016D3  A$lcc2270434$69                    load
     000016D4  A$lcc2270434$70                    load
     000016D5  A$lcc2270434$74                    load
     000016D5  C$load.c$12$2_0$134                load
     000016D8  A$lcc2270434$75                    load
     000016D9  A$lcc2270434$79                    load
     000016D9  C$load.c$15$1_0$134                load
     000016DB  A$lcc2270434$81                    load
     000016DC  A$lcc2270434$82                    load
     000016DE  A$lcc2270434$83                    load
     000016DF  A$lcc2270434$84                    load
     000016E1  A$lcc2270434$88                    load
     000016E1  C$load.c$17$3_0$136                load
     000016E2  A$lcc2270434$89                    load
     000016E4  A$lcc2270434$90                    load
     000016E5  A$lcc2270434$91                    load
     000016E6  A$lcc2270434$92                    load
     000016E7  A$lcc2270434$93                    load
     000016E9  A$lcc2270434$94                    load
     000016EA  A$lcc2270434$95                    load
     000016EB  A$lcc2270434$96                    load
ASxxxx Linker V03.00/V05.40 + sdld,  page 38.
Hexadecimal  [32-Bits]

Area                                    Addr        Size        Decimal Bytes (Attributes)
--------------------------------        ----        ----        ------- ----- ------------
_CODE                               00000200    00002D3E =       11582. bytes (REL,CON)

      Value  Global                              Global Defined In Module
      -----  --------------------------------   ------------------------
     000016EC  A$lcc2270434$97                    load
     000016ED  A$lcc2270434$98                    load
     000016EE  A$lcc2270434$99                    load
     000016EF  A$lcc2270434$100                   load
     000016F0  A$lcc2270434$101                   load
     000016F1  A$lcc2270434$102                   load
     000016F2  A$lcc2270434$103                   load
     000016F3  A$lcc2270434$104                   load
     000016F4  A$lcc2270434$105                   load
     000016F5  A$lcc2270434$106                   load
     000016F6  A$lcc2270434$107                   load
     000016F7  A$lcc2270434$108                   load
     000016F8  A$lcc2270434$109                   load
     000016F9  A$lcc2270434$110                   load
     000016FA  A$lcc2270434$111                   load
     000016FC  A$lcc2270434$112                   load
     000016FD  A$lcc2270434$113                   load
     000016FE  A$lcc2270434$114                   load
     000016FF  A$lcc2270434$115                   load
     00001700  A$lcc2270434$116                   load
     00001703  A$lcc2270434$117                   load
     00001705  A$lcc2270434$121                   load
     00001705  C$load.c$15$2_0$135                load
     00001706  A$lcc2270434$122                   load
     00001708  A$lcc2270434$127                   load
     00001708  C$load.c$21$1_0$134                load
     0000170B  A$lcc2270434$128                   load
     0000170D  A$lcc2270434$129                   load
     0000170E  A$lcc2270434$130                   load
     00001710  A$lcc2270434$131                   load
     00001711  A$lcc2270434$132                   load
     00001712  A$lcc2270434$133                   load
     00001713  A$lcc2270434$134                   load
     00001714  A$lcc2270434$135                   load
     00001715  A$lcc2270434$139                   load
     00001715  C$load.c$22$1_0$134                load
     00001718  A$lcc2270434$140                   load
     0000171A  A$lcc2270434$141                   load
     0000171B  A$lcc2270434$142                   load
     0000171D  A$lcc2270434$143                   load
     0000171E  A$lcc2270434$144                   load
     0000171F  A$lcc2270434$145                   load
     00001720  A$lcc2270434$146                   load
     00001722  A$lcc2270434$147                   load
     00001723  A$lcc2270434$148                   load
     00001724  A$lcc2270434$152                   load
     00001724  C$load.c$25$1_0$134                load
     00001727  A$lcc2270434$153                   load
     00001729  A$lcc2270434$154                   load
     0000172A  A$lcc2270434$155                   load
     0000172D  A$lcc2270434$159                   load
ASxxxx Linker V03.00/V05.40 + sdld,  page 39.
Hexadecimal  [32-Bits]

Area                                    Addr        Size        Decimal Bytes (Attributes)
--------------------------------        ----        ----        ------- ----- ------------
_CODE                               00000200    00002D3E =       11582. bytes (REL,CON)

      Value  Global                              Global Defined In Module
      -----  --------------------------------   ------------------------
     0000172D  C$load.c$27$1_0$134                load
     0000172E  A$lcc2270434$163                   load
     0000172E  C$load.c$28$1_0$134                load
     00001730  A$lcc2270434$164                   load
     00001731  A$lcc2270434$165                   load
     00001732  A$lcc2270434$166                   load
     00001733  A$lcc2270434$176                   load
     00001733  C$load.c$30$1_0$138                load
     00001733  G$load_extra_tiles$0$0             load
     00001733  _load_extra_tiles                  load
     00001735  A$lcc2270434$177                   load
     00001736  A$lcc2270434$181                   load
     00001736  C$load.c$32$2_0$139                load
     00001739  A$lcc2270434$182                   load
     0000173A  A$lcc2270434$183                   load
     0000173C  A$lcc2270434$184                   load
     0000173E  A$lcc2270434$188                   load
     0000173E  C$load.c$33$2_0$139                load
     00001740  A$lcc2270434$193                   load
     00001740  C$load.c$35$2_0$140                load
     00001743  A$lcc2270434$194                   load
     00001744  A$lcc2270434$198                   load
     00001744  C$load.c$37$1_1$140                load
     00001745  A$lcc2270434$199                   load
     00001747  A$lcc2270434$200                   load
     00001748  A$lcc2270434$201                   load
     00001749  A$lcc2270434$202                   load
     0000174A  A$lcc2270434$203                   load
     0000174B  A$lcc2270434$204                   load
     0000174C  A$lcc2270434$205                   load
     0000174F  A$lcc2270434$206                   load
     00001751  A$lcc2270434$210                   load
     00001751  C$load.c$39$1_1$140                load
     00001754  A$lcc2270434$211                   load
     00001756  A$lcc2270434$212                   load
     00001757  A$lcc2270434$213                   load
     0000175A  A$lcc2270434$217                   load
     0000175A  C$load.c$42$1_2$141                load
     0000175C  A$lcc2270434$218                   load
     0000175D  A$lcc2270434$222                   load
     0000175D  C$load.c$43$1_2$141                load
     0000175F  A$lcc2270434$223                   load
     00001760  A$lcc2270434$224                   load
     00001762  A$lcc2270434$228                   load
     00001762  C$load.c$44$1_2$141                load
     00001763  A$lcc2270434$229                   load
     00001764  A$lcc2270434$233                   load
     00001764  C$load.c$46$1_2$141                load
     00001767  A$lcc2270434$234                   load
     00001768  A$lcc2270434$235                   load
     0000176A  A$lcc2270434$236                   load
ASxxxx Linker V03.00/V05.40 + sdld,  page 40.
Hexadecimal  [32-Bits]

Area                                    Addr        Size        Decimal Bytes (Attributes)
--------------------------------        ----        ----        ------- ----- ------------
_CODE                               00000200    00002D3E =       11582. bytes (REL,CON)

      Value  Global                              Global Defined In Module
      -----  --------------------------------   ------------------------
     0000176B  A$lcc2270434$237                   load
     0000176C  A$lcc2270434$238                   load
     0000176D  A$lcc2270434$239                   load
     0000176E  A$lcc2270434$240                   load
     00001771  A$lcc2270434$241                   load
     00001772  A$lcc2270434$242                   load
     00001773  A$lcc2270434$243                   load
     00001774  A$lcc2270434$244                   load
     00001777  A$lcc2270434$245                   load
     00001778  A$lcc2270434$246                   load
     0000177B  A$lcc2270434$247                   load
     0000177C  A$lcc2270434$248                   load
     0000177D  A$lcc2270434$249                   load
     0000177E  A$lcc2270434$250                   load
     00001781  A$lcc2270434$254                   load
     00001781  C$load.c$48$1_2$141                load
     00001784  A$lcc2270434$255                   load
     00001785  A$lcc2270434$256                   load
     00001788  A$lcc2270434$257                   load
     00001789  A$lcc2270434$258                   load
     0000178A  A$lcc2270434$262                   load
     0000178A  C$load.c$49$1_2$138                load
     0000178C  A$lcc2270434$263                   load
     0000178D  A$lcc2270434$264                   load
     0000178E  A$lcc2270434$265                   load
     0000178F  A$lcc2270434$278                   load
     0000178F  C$load.c$51$1_2$142                load
     0000178F  C$load.c$53$1_0$142                load
     0000178F  G$reset_extra_tiles$0$0            load
     0000178F  _reset_extra_tiles                 load
     00001792  A$lcc2270434$279                   load
     00001794  A$lcc2270434$287                   load
     00001794  C$load.c$54$1_0$142                load
     00001794  XG$reset_extra_tiles$0$0           load
     00001795  A$lcc2270434$300                   load
     00001795  C$load.c$56$1_0$144                load
     00001795  C$load.c$58$3_0$146                load
     00001795  G$reset_render_component$0$0       load
     00001795  _reset_render_component            load
     00001797  A$lcc2270434$302                   load
     00001798  A$lcc2270434$303                   load
     0000179B  A$lcc2270434$304                   load
     0000179C  A$lcc2270434$305                   load
     0000179E  A$lcc2270434$309                   load
     0000179E  C$load.c$60$3_0$146                load
     000017A1  A$lcc2270434$310                   load
     000017A3  A$lcc2270434$311                   load
     000017A4  A$lcc2270434$312                   load
     000017A6  A$lcc2270434$316                   load
     000017A6  C$load.c$61$3_0$146                load
     000017A9  A$lcc2270434$317                   load
ASxxxx Linker V03.00/V05.40 + sdld,  page 41.
Hexadecimal  [32-Bits]

Area                                    Addr        Size        Decimal Bytes (Attributes)
--------------------------------        ----        ----        ------- ----- ------------
_CODE                               00000200    00002D3E =       11582. bytes (REL,CON)

      Value  Global                              Global Defined In Module
      -----  --------------------------------   ------------------------
     000017AB  A$lcc2270434$318                   load
     000017AC  A$lcc2270434$319                   load
     000017AE  A$lcc2270434$323                   load
     000017AE  C$load.c$58$2_0$145                load
     000017AF  A$lcc2270434$324                   load
     000017B1  A$lcc2270434$329                   load
     000017B1  C$load.c$64$1_0$144                load
     000017B2  A$lcc2270434$330                   load
     000017B5  A$lcc2270434$338                   load
     000017B5  C$load.c$65$1_0$144                load
     000017B5  XG$reset_render_component$0$0      load
     000017B6  A$lcc2270435$57                    map_scenes
     000017B6  C$map_scenes.c$17$0_0$173          map_scenes
     000017B6  G$scene_manager_MapScene$0$0       map_scenes
     000017B6  _scene_manager_MapScene            map_scenes
     000017B7  A$lcc2270435$61                    map_scenes
     000017B7  C$map_scenes.c$19$2_0$173          map_scenes
     000017B9  A$lcc2270435$62                    map_scenes
     000017BA  A$lcc2270435$63                    map_scenes
     000017BC  A$lcc2270435$64                    map_scenes
     000017BE  A$lcc2270435$65                    map_scenes
     000017C1  A$lcc2270435$66                    map_scenes
     000017C2  A$lcc2270435$67                    map_scenes
     000017C3  A$lcc2270435$68                    map_scenes
     000017C4  A$lcc2270435$69                    map_scenes
     000017C5  A$lcc2270435$70                    map_scenes
     000017C6  A$lcc2270435$71                    map_scenes
     000017C7  A$lcc2270435$72                    map_scenes
     000017D2  A$lcc2270435$86                    map_scenes
     000017D2  C$map_scenes.c$21$3_0$174          map_scenes
     000017D2  C$map_scenes.c$22$3_0$174          map_scenes
     000017D5  A$lcc2270435$90                    map_scenes
     000017D5  C$map_scenes.c$23$3_0$174          map_scenes
     000017D8  A$lcc2270435$91                    map_scenes
     000017D9  A$lcc2270435$99                    map_scenes
     000017D9  C$map_scenes.c$24$3_0$174          map_scenes
     000017D9  C$map_scenes.c$25$3_0$174          map_scenes
     000017DC  A$lcc2270435$103                   map_scenes
     000017DC  C$map_scenes.c$26$3_0$174          map_scenes
     000017DF  A$lcc2270435$104                   map_scenes
     000017E0  A$lcc2270435$112                   map_scenes
     000017E0  C$map_scenes.c$27$3_0$174          map_scenes
     000017E0  C$map_scenes.c$28$3_0$174          map_scenes
     000017E3  A$lcc2270435$116                   map_scenes
     000017E3  C$map_scenes.c$29$3_0$174          map_scenes
     000017E6  A$lcc2270435$117                   map_scenes
     000017E7  A$lcc2270435$125                   map_scenes
     000017E7  C$map_scenes.c$32$3_0$174          map_scenes
     000017E7  C$map_scenes.c$33$3_0$174          map_scenes
     000017EA  A$lcc2270435$129                   map_scenes
     000017EA  C$map_scenes.c$34$3_0$174          map_scenes
ASxxxx Linker V03.00/V05.40 + sdld,  page 42.
Hexadecimal  [32-Bits]

Area                                    Addr        Size        Decimal Bytes (Attributes)
--------------------------------        ----        ----        ------- ----- ------------
_CODE                               00000200    00002D3E =       11582. bytes (REL,CON)

      Value  Global                              Global Defined In Module
      -----  --------------------------------   ------------------------
     000017ED  A$lcc2270435$130                   map_scenes
     000017EE  A$lcc2270435$138                   map_scenes
     000017EE  C$map_scenes.c$36$3_0$174          map_scenes
     000017EE  C$map_scenes.c$37$3_0$174          map_scenes
     000017F1  A$lcc2270435$142                   map_scenes
     000017F1  C$map_scenes.c$38$3_0$174          map_scenes
     000017F4  A$lcc2270435$143                   map_scenes
     000017F5  A$lcc2270435$151                   map_scenes
     000017F5  C$map_scenes.c$39$3_0$174          map_scenes
     000017F5  C$map_scenes.c$40$3_0$174          map_scenes
     000017F8  A$lcc2270435$162                   map_scenes
     000017F8  C$map_scenes.c$41$2_0$173          map_scenes
     000017F8  C$map_scenes.c$42$2_0$173          map_scenes
     000017F8  XG$scene_manager_MapScene$0$0      map_scenes
     000017F9  A$lcc2270436$56                    money
     000017F9  C$money.c$5$0_0$3                  money
     000017F9  G$add_money$0$0                    money
     000017F9  _add_money                         money
     000017FA  A$lcc2270436$60                    money
     000017FA  C$money.c$6$1_0$3                  money
     000017FB  A$lcc2270436$61                    money
     000017FD  A$lcc2270436$62                    money
     000017FE  A$lcc2270436$63                    money
     000017FF  A$lcc2270436$64                    money
     00001800  A$lcc2270436$65                    money
     00001801  A$lcc2270436$66                    money
     00001802  A$lcc2270436$67                    money
     00001803  A$lcc2270436$68                    money
     00001804  A$lcc2270436$69                    money
     00001805  A$lcc2270436$70                    money
     00001806  A$lcc2270436$71                    money
     00001809  A$lcc2270436$72                    money
     0000180A  A$lcc2270436$73                    money
     0000180D  A$lcc2270436$74                    money
     0000180E  A$lcc2270436$75                    money
     0000180F  A$lcc2270436$76                    money
     00001810  A$lcc2270436$77                    money
     00001811  A$lcc2270436$78                    money
     00001812  A$lcc2270436$79                    money
     00001813  A$lcc2270436$80                    money
     00001816  A$lcc2270436$81                    money
     00001817  A$lcc2270436$82                    money
     00001818  A$lcc2270436$83                    money
     00001819  A$lcc2270436$87                    money
     00001819  C$money.c$7$1_0$3                  money
     0000181B  A$lcc2270436$88                    money
     0000181C  A$lcc2270436$89                    money
     0000181D  A$lcc2270436$90                    money
     0000181E  A$lcc2270436$91                    money
     0000181F  A$lcc2270436$92                    money
     00001820  A$lcc2270436$93                    money
ASxxxx Linker V03.00/V05.40 + sdld,  page 43.
Hexadecimal  [32-Bits]

Area                                    Addr        Size        Decimal Bytes (Attributes)
--------------------------------        ----        ----        ------- ----- ------------
_CODE                               00000200    00002D3E =       11582. bytes (REL,CON)

      Value  Global                              Global Defined In Module
      -----  --------------------------------   ------------------------
     00001821  A$lcc2270436$94                    money
     00001822  A$lcc2270436$95                    money
     00001823  A$lcc2270436$96                    money
     00001824  A$lcc2270436$97                    money
     00001825  A$lcc2270436$98                    money
     00001826  A$lcc2270436$99                    money
     00001827  A$lcc2270436$100                   money
     0000182A  A$lcc2270436$101                   money
     0000182D  A$lcc2270436$102                   money
     0000182E  A$lcc2270436$103                   money
     0000182F  A$lcc2270436$104                   money
     00001830  A$lcc2270436$105                   money
     00001831  A$lcc2270436$106                   money
     00001832  A$lcc2270436$107                   money
     00001833  A$lcc2270436$108                   money
     00001834  A$lcc2270436$109                   money
     00001835  A$lcc2270436$110                   money
     00001836  A$lcc2270436$118                   money
     00001836  C$money.c$8$1_0$3                  money
     00001836  XG$add_money$0$0                   money
     00001837  A$lcc2270438$75                    npcs
     00001837  C$npcs.c$21$0_0$135                npcs
     00001837  C$npcs.c$23$1_0$135                npcs
     00001837  G$init_NPCs$0$0                    npcs
     00001837  _init_NPCs                         npcs
     0000183A  A$lcc2270438$76                    npcs
     0000183D  A$lcc2270438$80                    npcs
     0000183D  C$npcs.c$24$1_0$135                npcs
     00001840  A$lcc2270438$81                    npcs
     00001843  A$lcc2270438$85                    npcs
     00001843  C$npcs.c$25$1_0$135                npcs
     00001846  A$lcc2270438$86                    npcs
     00001849  A$lcc2270438$94                    npcs
     00001849  C$npcs.c$26$1_0$135                npcs
     00001849  XG$init_NPCs$0$0                   npcs
     0000184A  A$lcc2270438$104                   npcs
     0000184A  C$npcs.c$28$1_0$137                npcs
     0000184A  G$Scene_DrawNPCLine$0$0            npcs
     0000184A  _Scene_DrawNPCLine                 npcs
     0000184C  A$lcc2270438$105                   npcs
     0000184E  A$lcc2270438$106                   npcs
     0000184F  A$lcc2270438$110                   npcs
     0000184F  C$npcs.c$36$1_0$137                npcs
     00001851  A$lcc2270438$111                   npcs
     00001854  A$lcc2270438$112                   npcs
     00001855  A$lcc2270438$113                   npcs
     00001856  A$lcc2270438$114                   npcs
     00001857  A$lcc2270438$115                   npcs
     00001859  A$lcc2270438$116                   npcs
     0000185A  A$lcc2270438$117                   npcs
     0000185B  A$lcc2270438$118                   npcs
ASxxxx Linker V03.00/V05.40 + sdld,  page 44.
Hexadecimal  [32-Bits]

Area                                    Addr        Size        Decimal Bytes (Attributes)
--------------------------------        ----        ----        ------- ----- ------------
_CODE                               00000200    00002D3E =       11582. bytes (REL,CON)

      Value  Global                              Global Defined In Module
      -----  --------------------------------   ------------------------
     0000185C  A$lcc2270438$119                   npcs
     0000185E  A$lcc2270438$120                   npcs
     0000185F  A$lcc2270438$121                   npcs
     00001860  A$lcc2270438$122                   npcs
     00001861  A$lcc2270438$123                   npcs
     00001862  A$lcc2270438$124                   npcs
     00001863  A$lcc2270438$125                   npcs
     00001865  A$lcc2270438$126                   npcs
     00001866  A$lcc2270438$130                   npcs
     00001866  C$npcs.c$38$1_0$137                npcs
     00001869  A$lcc2270438$131                   npcs
     0000186B  A$lcc2270438$132                   npcs
     0000186C  A$lcc2270438$133                   npcs
     0000186D  A$lcc2270438$134                   npcs
     0000186E  A$lcc2270438$135                   npcs
     0000186F  A$lcc2270438$136                   npcs
     00001870  A$lcc2270438$137                   npcs
     00001871  A$lcc2270438$138                   npcs
     00001872  A$lcc2270438$139                   npcs
     00001873  A$lcc2270438$140                   npcs
     00001874  A$lcc2270438$144                   npcs
     00001874  C$npcs.c$40$1_0$137                npcs
     00001877  A$lcc2270438$145                   npcs
     00001878  A$lcc2270438$146                   npcs
     00001879  A$lcc2270438$147                   npcs
     0000187A  A$lcc2270438$148                   npcs
     0000187C  A$lcc2270438$149                   npcs
     0000187D  A$lcc2270438$150                   npcs
     0000187E  A$lcc2270438$151                   npcs
     0000187F  A$lcc2270438$152                   npcs
     00001880  A$lcc2270438$153                   npcs
     00001881  A$lcc2270438$154                   npcs
     00001882  A$lcc2270438$155                   npcs
     00001883  A$lcc2270438$156                   npcs
     00001884  A$lcc2270438$157                   npcs
     00001885  A$lcc2270438$158                   npcs
     00001886  A$lcc2270438$159                   npcs
     00001888  A$lcc2270438$160                   npcs
     00001889  A$lcc2270438$161                   npcs
     0000188A  A$lcc2270438$162                   npcs
     0000188B  A$lcc2270438$163                   npcs
     0000188C  A$lcc2270438$164                   npcs
     0000188D  A$lcc2270438$168                   npcs
     0000188D  C$npcs.c$41$1_0$137                npcs
     00001890  A$lcc2270438$169                   npcs
     00001891  A$lcc2270438$170                   npcs
     00001892  A$lcc2270438$171                   npcs
     00001893  A$lcc2270438$175                   npcs
     00001893  C$npcs.c$44$1_2$137                npcs
     00001894  A$lcc2270438$176                   npcs
     00001896  A$lcc2270438$177                   npcs
ASxxxx Linker V03.00/V05.40 + sdld,  page 45.
Hexadecimal  [32-Bits]

Area                                    Addr        Size        Decimal Bytes (Attributes)
--------------------------------        ----        ----        ------- ----- ------------
_CODE                               00000200    00002D3E =       11582. bytes (REL,CON)

      Value  Global                              Global Defined In Module
      -----  --------------------------------   ------------------------
     00001897  A$lcc2270438$178                   npcs
     00001898  A$lcc2270438$180                   npcs
     00001899  A$lcc2270438$181                   npcs
     0000189B  A$lcc2270438$182                   npcs
     0000189C  A$lcc2270438$183                   npcs
     0000189D  A$lcc2270438$184                   npcs
     0000189E  A$lcc2270438$185                   npcs
     000018A0  A$lcc2270438$186                   npcs
     000018A1  A$lcc2270438$187                   npcs
     000018A2  A$lcc2270438$188                   npcs
     000018A3  A$lcc2270438$189                   npcs
     000018A4  A$lcc2270438$190                   npcs
     000018A5  A$lcc2270438$191                   npcs
     000018A6  A$lcc2270438$192                   npcs
     000018A7  A$lcc2270438$193                   npcs
     000018A8  A$lcc2270438$194                   npcs
     000018A9  A$lcc2270438$195                   npcs
     000018AB  A$lcc2270438$199                   npcs
     000018AB  C$npcs.c$46$3_0$139                npcs
     000018AC  A$lcc2270438$200                   npcs
     000018AF  A$lcc2270438$201                   npcs
     000018B0  A$lcc2270438$202                   npcs
     000018B1  A$lcc2270438$203                   npcs
     000018B3  A$lcc2270438$204                   npcs
     000018B5  A$lcc2270438$205                   npcs
     000018B6  A$lcc2270438$209                   npcs
     000018B6  C$npcs.c$47$3_0$139                npcs
     000018B8  A$lcc2270438$210                   npcs
     000018B9  A$lcc2270438$211                   npcs
     000018BA  A$lcc2270438$212                   npcs
     000018BB  A$lcc2270438$213                   npcs
     000018BE  A$lcc2270438$214                   npcs
     000018BF  A$lcc2270438$215                   npcs
     000018C0  A$lcc2270438$216                   npcs
     000018C3  A$lcc2270438$217                   npcs
     000018C4  A$lcc2270438$218                   npcs
     000018C6  A$lcc2270438$219                   npcs
     000018C7  A$lcc2270438$220                   npcs
     000018C8  A$lcc2270438$221                   npcs
     000018C9  A$lcc2270438$222                   npcs
     000018CA  A$lcc2270438$223                   npcs
     000018CD  A$lcc2270438$224                   npcs
     000018CF  A$lcc2270438$225                   npcs
     000018D0  A$lcc2270438$229                   npcs
     000018D0  C$npcs.c$44$2_0$138                npcs
     000018D2  A$lcc2270438$230                   npcs
     000018D3  A$lcc2270438$231                   npcs
     000018D5  A$lcc2270438$232                   npcs
     000018D6  A$lcc2270438$233                   npcs
     000018D7  A$lcc2270438$234                   npcs
     000018D9  A$lcc2270438$239                   npcs
ASxxxx Linker V03.00/V05.40 + sdld,  page 46.
Hexadecimal  [32-Bits]

Area                                    Addr        Size        Decimal Bytes (Attributes)
--------------------------------        ----        ----        ------- ----- ------------
_CODE                               00000200    00002D3E =       11582. bytes (REL,CON)

      Value  Global                              Global Defined In Module
      -----  --------------------------------   ------------------------
     000018D9  C$npcs.c$51$1_2$137                npcs
     000018DA  A$lcc2270438$240                   npcs
     000018DC  A$lcc2270438$241                   npcs
     000018DD  A$lcc2270438$242                   npcs
     000018DE  A$lcc2270438$244                   npcs
     000018DF  A$lcc2270438$245                   npcs
     000018E1  A$lcc2270438$246                   npcs
     000018E2  A$lcc2270438$247                   npcs
     000018E3  A$lcc2270438$248                   npcs
     000018E4  A$lcc2270438$249                   npcs
     000018E5  A$lcc2270438$250                   npcs
     000018E6  A$lcc2270438$251                   npcs
     000018E7  A$lcc2270438$252                   npcs
     000018E8  A$lcc2270438$253                   npcs
     000018E9  A$lcc2270438$254                   npcs
     000018EA  A$lcc2270438$255                   npcs
     000018EC  A$lcc2270438$259                   npcs
     000018EC  C$npcs.c$53$3_0$141                npcs
     000018ED  A$lcc2270438$260                   npcs
     000018F0  A$lcc2270438$261                   npcs
     000018F1  A$lcc2270438$262                   npcs
     000018F2  A$lcc2270438$263                   npcs
     000018F4  A$lcc2270438$267                   npcs
     000018F4  C$npcs.c$54$3_0$141                npcs
     000018F6  A$lcc2270438$268                   npcs
     000018F7  A$lcc2270438$269                   npcs
     000018F8  A$lcc2270438$270                   npcs
     000018F9  A$lcc2270438$271                   npcs
     000018FB  A$lcc2270438$272                   npcs
     000018FC  A$lcc2270438$273                   npcs
     000018FD  A$lcc2270438$274                   npcs
     000018FE  A$lcc2270438$275                   npcs
     000018FF  A$lcc2270438$276                   npcs
     00001901  A$lcc2270438$277                   npcs
     00001902  A$lcc2270438$278                   npcs
     00001903  A$lcc2270438$279                   npcs
     00001905  A$lcc2270438$280                   npcs
     00001906  A$lcc2270438$281                   npcs
     00001907  A$lcc2270438$282                   npcs
     00001909  A$lcc2270438$283                   npcs
     0000190A  A$lcc2270438$284                   npcs
     0000190B  A$lcc2270438$285                   npcs
     0000190C  A$lcc2270438$286                   npcs
     0000190D  A$lcc2270438$287                   npcs
     00001910  A$lcc2270438$288                   npcs
     00001912  A$lcc2270438$289                   npcs
     00001913  A$lcc2270438$293                   npcs
     00001913  C$npcs.c$51$2_0$140                npcs
     00001915  A$lcc2270438$294                   npcs
     00001916  A$lcc2270438$295                   npcs
     00001918  A$lcc2270438$296                   npcs
ASxxxx Linker V03.00/V05.40 + sdld,  page 47.
Hexadecimal  [32-Bits]

Area                                    Addr        Size        Decimal Bytes (Attributes)
--------------------------------        ----        ----        ------- ----- ------------
_CODE                               00000200    00002D3E =       11582. bytes (REL,CON)

      Value  Global                              Global Defined In Module
      -----  --------------------------------   ------------------------
     00001919  A$lcc2270438$297                   npcs
     0000191A  A$lcc2270438$298                   npcs
     0000191C  A$lcc2270438$303                   npcs
     0000191E  A$lcc2270438$304                   npcs
     0000191F  A$lcc2270438$305                   npcs
     00001921  A$lcc2270438$306                   npcs
     00001922  A$lcc2270438$307                   npcs
     00001923  A$lcc2270438$308                   npcs
     00001924  A$lcc2270438$309                   npcs
     00001925  A$lcc2270438$310                   npcs
     00001926  A$lcc2270438$311                   npcs
     00001927  A$lcc2270438$312                   npcs
     0000192A  A$lcc2270438$313                   npcs
     0000192B  A$lcc2270438$314                   npcs
     0000192C  A$lcc2270438$315                   npcs
     0000192D  A$lcc2270438$316                   npcs
     0000192F  A$lcc2270438$317                   npcs
     00001930  A$lcc2270438$318                   npcs
     00001931  A$lcc2270438$319                   npcs
     00001932  A$lcc2270438$320                   npcs
     00001934  A$lcc2270438$321                   npcs
     00001935  A$lcc2270438$322                   npcs
     00001938  A$lcc2270438$324                   npcs
     0000193A  A$lcc2270438$325                   npcs
     0000193B  A$lcc2270438$326                   npcs
     0000193C  A$lcc2270438$327                   npcs
     0000193D  A$lcc2270438$328                   npcs
     0000193E  A$lcc2270438$329                   npcs
     0000193F  A$lcc2270438$330                   npcs
     00001940  A$lcc2270438$331                   npcs
     00001941  A$lcc2270438$332                   npcs
     00001942  A$lcc2270438$333                   npcs
     00001944  A$lcc2270438$337                   npcs
     00001944  C$npcs.c$60$3_0$143                npcs
     00001945  A$lcc2270438$338                   npcs
     00001948  A$lcc2270438$339                   npcs
     00001949  A$lcc2270438$340                   npcs
     0000194A  A$lcc2270438$341                   npcs
     0000194B  A$lcc2270438$342                   npcs
     0000194D  A$lcc2270438$343                   npcs
     0000194F  A$lcc2270438$344                   npcs
     00001950  A$lcc2270438$348                   npcs
     00001950  C$npcs.c$61$3_0$143                npcs
     00001951  A$lcc2270438$349                   npcs
     00001952  A$lcc2270438$350                   npcs
     00001955  A$lcc2270438$351                   npcs
     00001956  A$lcc2270438$352                   npcs
     00001957  A$lcc2270438$353                   npcs
     0000195A  A$lcc2270438$354                   npcs
     0000195B  A$lcc2270438$355                   npcs
     0000195D  A$lcc2270438$356                   npcs
ASxxxx Linker V03.00/V05.40 + sdld,  page 48.
Hexadecimal  [32-Bits]

Area                                    Addr        Size        Decimal Bytes (Attributes)
--------------------------------        ----        ----        ------- ----- ------------
_CODE                               00000200    00002D3E =       11582. bytes (REL,CON)

      Value  Global                              Global Defined In Module
      -----  --------------------------------   ------------------------
     0000195E  A$lcc2270438$357                   npcs
     00001961  A$lcc2270438$358                   npcs
     00001963  A$lcc2270438$362                   npcs
     00001963  C$npcs.c$58$2_0$142                npcs
     00001964  A$lcc2270438$363                   npcs
     00001966  A$lcc2270438$368                   npcs
     00001966  C$npcs.c$65$1_1$144                npcs
     00001968  A$lcc2270438$369                   npcs
     00001969  A$lcc2270438$370                   npcs
     0000196A  A$lcc2270438$371                   npcs
     0000196B  A$lcc2270438$372                   npcs
     0000196C  A$lcc2270438$373                   npcs
     0000196E  A$lcc2270438$374                   npcs
     00001970  A$lcc2270438$375                   npcs
     00001971  A$lcc2270438$379                   npcs
     00001971  C$npcs.c$66$1_1$144                npcs
     00001974  A$lcc2270438$380                   npcs
     00001975  A$lcc2270438$381                   npcs
     00001976  A$lcc2270438$382                   npcs
     00001979  A$lcc2270438$383                   npcs
     0000197A  A$lcc2270438$384                   npcs
     0000197D  A$lcc2270438$385                   npcs
     0000197E  A$lcc2270438$386                   npcs
     00001981  A$lcc2270438$387                   npcs
     00001983  A$lcc2270438$391                   npcs
     00001983  C$npcs.c$69$2_1$145                npcs
     00001985  A$lcc2270438$392                   npcs
     00001987  A$lcc2270438$396                   npcs
     00001987  C$npcs.c$70$1_2$145                npcs
     0000198A  A$lcc2270438$397                   npcs
     0000198B  A$lcc2270438$398                   npcs
     0000198C  A$lcc2270438$399                   npcs
     0000198F  A$lcc2270438$400                   npcs
     00001990  A$lcc2270438$401                   npcs
     00001993  A$lcc2270438$402                   npcs
     00001994  A$lcc2270438$403                   npcs
     00001997  A$lcc2270438$407                   npcs
     00001997  C$npcs.c$71$1_2$137                npcs
     00001999  A$lcc2270438$408                   npcs
     0000199A  A$lcc2270438$409                   npcs
     0000199C  A$lcc2270438$410                   npcs
     0000199D  A$lcc2270440$74                    player
     0000199D  C$player.c$10$0_0$157              player
     0000199D  C$player.c$12$1_0$157              player
     0000199D  G$create_player$0$0                player
     0000199D  _create_player                     player
     000019A0  A$lcc2270440$75                    player
     000019A3  A$lcc2270440$79                    player
     000019A3  C$player.c$13$1_0$157              player
     000019A6  A$lcc2270440$80                    player
     000019A9  A$lcc2270440$88                    player
ASxxxx Linker V03.00/V05.40 + sdld,  page 49.
Hexadecimal  [32-Bits]

Area                                    Addr        Size        Decimal Bytes (Attributes)
--------------------------------        ----        ----        ------- ----- ------------
_CODE                               00000200    00002D3E =       11582. bytes (REL,CON)

      Value  Global                              Global Defined In Module
      -----  --------------------------------   ------------------------
     000019A9  C$player.c$14$1_0$157              player
     000019A9  XG$create_player$0$0               player
     000019AA  A$lcc2270440$98                    player
     000019AA  C$player.c$16$1_0$159              player
     000019AA  G$init_player$0$0                  player
     000019AA  _init_player                       player
     000019AC  A$lcc2270440$102                   player
     000019AC  C$player.c$18$1_0$159              player
     000019AF  A$lcc2270440$103                   player
     000019B0  A$lcc2270440$104                   player
     000019B2  A$lcc2270440$105                   player
     000019B5  A$lcc2270440$106                   player
     000019B6  A$lcc2270440$107                   player
     000019B8  A$lcc2270440$111                   player
     000019B8  C$player.c$19$1_0$159              player
     000019BB  A$lcc2270440$112                   player
     000019BE  A$lcc2270440$113                   player
     000019BF  A$lcc2270440$114                   player
     000019C1  A$lcc2270440$115                   player
     000019C2  A$lcc2270440$116                   player
     000019C4  A$lcc2270440$120                   player
     000019C4  C$player.c$21$1_0$159              player
     000019C7  A$lcc2270440$121                   player
     000019CA  A$lcc2270440$122                   player
     000019CB  A$lcc2270440$123                   player
     000019CC  A$lcc2270440$124                   player
     000019CD  A$lcc2270440$125                   player
     000019CE  A$lcc2270440$126                   player
     000019CF  A$lcc2270440$127                   player
     000019D1  A$lcc2270440$128                   player
     000019D2  A$lcc2270440$129                   player
     000019D4  A$lcc2270440$133                   player
     000019D4  C$player.c$18$1_1$159              player
     000019D7  A$lcc2270440$134                   player
     000019D8  A$lcc2270440$138                   player
     000019D8  C$player.c$23$1_0$159              player
     000019D9  A$lcc2270440$139                   player
     000019DB  A$lcc2270440$140                   player
     000019DC  A$lcc2270440$141                   player
     000019DD  A$lcc2270440$142                   player
     000019E0  A$lcc2270440$146                   player
     000019E0  C$player.c$25$1_0$159              player
     000019E3  A$lcc2270440$147                   player
     000019E4  A$lcc2270440$148                   player
     000019E6  A$lcc2270440$149                   player
     000019E7  A$lcc2270440$150                   player
     000019E9  A$lcc2270440$151                   player
     000019EB  A$lcc2270440$152                   player
     000019EC  A$lcc2270440$153                   player
     000019EE  A$lcc2270440$154                   player
     000019EF  A$lcc2270440$155                   player
ASxxxx Linker V03.00/V05.40 + sdld,  page 50.
Hexadecimal  [32-Bits]

Area                                    Addr        Size        Decimal Bytes (Attributes)
--------------------------------        ----        ----        ------- ----- ------------
_CODE                               00000200    00002D3E =       11582. bytes (REL,CON)

      Value  Global                              Global Defined In Module
      -----  --------------------------------   ------------------------
     000019F0  A$lcc2270440$156                   player
     000019F2  A$lcc2270440$157                   player
     000019F4  A$lcc2270440$158                   player
     000019F5  A$lcc2270440$159                   player
     000019F6  A$lcc2270440$160                   player
     000019F7  A$lcc2270440$161                   player
     000019F8  A$lcc2270440$162                   player
     000019F9  A$lcc2270440$163                   player
     000019FA  A$lcc2270440$167                   player
     000019FA  C$player.c$26$1_0$159              player
     000019FD  A$lcc2270440$168                   player
     000019FE  A$lcc2270440$169                   player
     000019FF  A$lcc2270440$170                   player
     00001A01  A$lcc2270440$171                   player
     00001A02  A$lcc2270440$172                   player
     00001A04  A$lcc2270440$173                   player
     00001A06  A$lcc2270440$174                   player
     00001A07  A$lcc2270440$175                   player
     00001A08  A$lcc2270440$176                   player
     00001A0A  A$lcc2270440$177                   player
     00001A0B  A$lcc2270440$178                   player
     00001A0C  A$lcc2270440$179                   player
     00001A0D  A$lcc2270440$180                   player
     00001A0E  A$lcc2270440$181                   player
     00001A0F  A$lcc2270440$182                   player
     00001A10  A$lcc2270440$183                   player
     00001A11  A$lcc2270440$187                   player
     00001A11  C$player.c$28$1_0$159              player
     00001A14  A$lcc2270440$188                   player
     00001A15  A$lcc2270440$189                   player
     00001A17  A$lcc2270440$190                   player
     00001A1A  A$lcc2270440$191                   player
     00001A1B  A$lcc2270440$192                   player
     00001A1D  A$lcc2270440$196                   player
     00001A1D  C$player.c$29$1_0$159              player
     00001A20  A$lcc2270440$197                   player
     00001A23  A$lcc2270440$198                   player
     00001A24  A$lcc2270440$199                   player
     00001A26  A$lcc2270440$200                   player
     00001A27  A$lcc2270440$201                   player
     00001A29  A$lcc2270440$205                   player
     00001A29  C$player.c$30$1_0$159              player
     00001A2C  A$lcc2270440$206                   player
     00001A2F  A$lcc2270440$207                   player
     00001A30  A$lcc2270440$208                   player
     00001A32  A$lcc2270440$209                   player
     00001A33  A$lcc2270440$210                   player
     00001A35  A$lcc2270440$214                   player
     00001A35  C$player.c$33$2_0$160              player
     00001A38  A$lcc2270440$215                   player
     00001A39  A$lcc2270440$216                   player
ASxxxx Linker V03.00/V05.40 + sdld,  page 51.
Hexadecimal  [32-Bits]

Area                                    Addr        Size        Decimal Bytes (Attributes)
--------------------------------        ----        ----        ------- ----- ------------
_CODE                               00000200    00002D3E =       11582. bytes (REL,CON)

      Value  Global                              Global Defined In Module
      -----  --------------------------------   ------------------------
     00001A3A  A$lcc2270440$217                   player
     00001A3B  A$lcc2270440$218                   player
     00001A3D  A$lcc2270440$219                   player
     00001A3F  A$lcc2270440$220                   player
     00001A40  A$lcc2270440$221                   player
     00001A42  A$lcc2270440$222                   player
     00001A43  A$lcc2270440$223                   player
     00001A45  A$lcc2270440$224                   player
     00001A46  A$lcc2270440$225                   player
     00001A48  A$lcc2270440$226                   player
     00001A49  A$lcc2270440$227                   player
     00001A4B  A$lcc2270440$228                   player
     00001A4C  A$lcc2270440$229                   player
     00001A4E  A$lcc2270440$233                   player
     00001A4E  C$player.c$39$2_0$160              player
     00001A4F  A$lcc2270440$234                   player
     00001A51  A$lcc2270440$235                   player
     00001A52  A$lcc2270440$236                   player
     00001A54  A$lcc2270440$237                   player
     00001A55  A$lcc2270440$238                   player
     00001A57  A$lcc2270440$239                   player
     00001A58  A$lcc2270440$240                   player
     00001A5A  A$lcc2270440$241                   player
     00001A5B  A$lcc2270440$242                   player
     00001A5D  A$lcc2270440$243                   player
     00001A5E  A$lcc2270440$244                   player
     00001A60  A$lcc2270440$245                   player
     00001A61  A$lcc2270440$246                   player
     00001A63  A$lcc2270440$247                   player
     00001A64  A$lcc2270440$248                   player
     00001A66  A$lcc2270440$249                   player
     00001A67  A$lcc2270440$250                   player
     00001A68  A$lcc2270440$251                   player
     00001A69  A$lcc2270440$252                   player
     00001A6A  A$lcc2270440$253                   player
     00001A6B  A$lcc2270440$254                   player
     00001A6D  A$lcc2270440$255                   player
     00001A6E  A$lcc2270440$256                   player
     00001A70  A$lcc2270440$257                   player
     00001A71  A$lcc2270440$258                   player
     00001A73  A$lcc2270440$259                   player
     00001A74  A$lcc2270440$260                   player
     00001A76  A$lcc2270440$261                   player
     00001A77  A$lcc2270440$262                   player
     00001A79  A$lcc2270440$263                   player
     00001A7A  A$lcc2270440$264                   player
     00001A7C  A$lcc2270440$265                   player
     00001A7D  A$lcc2270440$266                   player
     00001A7F  A$lcc2270440$267                   player
     00001A80  A$lcc2270440$268                   player
     00001A82  A$lcc2270440$269                   player
ASxxxx Linker V03.00/V05.40 + sdld,  page 52.
Hexadecimal  [32-Bits]

Area                                    Addr        Size        Decimal Bytes (Attributes)
--------------------------------        ----        ----        ------- ----- ------------
_CODE                               00000200    00002D3E =       11582. bytes (REL,CON)

      Value  Global                              Global Defined In Module
      -----  --------------------------------   ------------------------
     00001A83  A$lcc2270440$270                   player
     00001A85  A$lcc2270440$271                   player
     00001A86  A$lcc2270440$272                   player
     00001A88  A$lcc2270440$273                   player
     00001A89  A$lcc2270440$274                   player
     00001A8B  A$lcc2270440$275                   player
     00001A8C  A$lcc2270440$276                   player
     00001A8E  A$lcc2270440$277                   player
     00001A8F  A$lcc2270440$278                   player
     00001A91  A$lcc2270440$279                   player
     00001A92  A$lcc2270440$280                   player
     00001A94  A$lcc2270440$281                   player
     00001A95  A$lcc2270440$282                   player
     00001A96  A$lcc2270440$283                   player
     00001A97  A$lcc2270440$284                   player
     00001A98  A$lcc2270440$285                   player
     00001A99  A$lcc2270440$286                   player
     00001A9B  A$lcc2270440$287                   player
     00001A9C  A$lcc2270440$288                   player
     00001A9E  A$lcc2270440$289                   player
     00001A9F  A$lcc2270440$290                   player
     00001AA1  A$lcc2270440$291                   player
     00001AA2  A$lcc2270440$292                   player
     00001AA4  A$lcc2270440$293                   player
     00001AA5  A$lcc2270440$294                   player
     00001AA7  A$lcc2270440$295                   player
     00001AA8  A$lcc2270440$296                   player
     00001AAA  A$lcc2270440$300                   player
     00001AAA  C$player.c$62$2_0$160              player
     00001AAB  A$lcc2270440$301                   player
     00001AAE  A$lcc2270440$302                   player
     00001AAF  A$lcc2270440$303                   player
     00001AB0  A$lcc2270440$304                   player
     00001AB1  A$lcc2270440$305                   player
     00001AB2  A$lcc2270440$306                   player
     00001AB4  A$lcc2270440$307                   player
     00001AB5  A$lcc2270440$308                   player
     00001AB7  A$lcc2270440$309                   player
     00001AB8  A$lcc2270440$310                   player
     00001ABA  A$lcc2270440$311                   player
     00001ABB  A$lcc2270440$312                   player
     00001ABD  A$lcc2270440$313                   player
     00001ABE  A$lcc2270440$314                   player
     00001AC0  A$lcc2270440$315                   player
     00001AC1  A$lcc2270440$316                   player
     00001AC3  A$lcc2270440$320                   player
     00001AC3  C$player.c$68$2_0$160              player
     00001AC4  A$lcc2270440$321                   player
     00001AC6  A$lcc2270440$322                   player
     00001AC7  A$lcc2270440$323                   player
     00001AC9  A$lcc2270440$324                   player
ASxxxx Linker V03.00/V05.40 + sdld,  page 53.
Hexadecimal  [32-Bits]

Area                                    Addr        Size        Decimal Bytes (Attributes)
--------------------------------        ----        ----        ------- ----- ------------
_CODE                               00000200    00002D3E =       11582. bytes (REL,CON)

      Value  Global                              Global Defined In Module
      -----  --------------------------------   ------------------------
     00001ACA  A$lcc2270440$325                   player
     00001ACC  A$lcc2270440$326                   player
     00001ACD  A$lcc2270440$327                   player
     00001ACF  A$lcc2270440$328                   player
     00001AD0  A$lcc2270440$329                   player
     00001AD2  A$lcc2270440$330                   player
     00001AD3  A$lcc2270440$331                   player
     00001AD5  A$lcc2270440$332                   player
     00001AD6  A$lcc2270440$333                   player
     00001AD8  A$lcc2270440$334                   player
     00001AD9  A$lcc2270440$335                   player
     00001ADB  A$lcc2270440$336                   player
     00001ADC  A$lcc2270440$337                   player
     00001ADD  A$lcc2270440$338                   player
     00001ADE  A$lcc2270440$339                   player
     00001ADF  A$lcc2270440$340                   player
     00001AE0  A$lcc2270440$341                   player
     00001AE2  A$lcc2270440$342                   player
     00001AE3  A$lcc2270440$343                   player
     00001AE5  A$lcc2270440$344                   player
     00001AE6  A$lcc2270440$345                   player
     00001AE8  A$lcc2270440$346                   player
     00001AE9  A$lcc2270440$347                   player
     00001AEB  A$lcc2270440$348                   player
     00001AEC  A$lcc2270440$349                   player
     00001AEE  A$lcc2270440$350                   player
     00001AEF  A$lcc2270440$351                   player
     00001AF1  A$lcc2270440$352                   player
     00001AF2  A$lcc2270440$353                   player
     00001AF4  A$lcc2270440$354                   player
     00001AF5  A$lcc2270440$355                   player
     00001AF7  A$lcc2270440$356                   player
     00001AF8  A$lcc2270440$357                   player
     00001AFA  A$lcc2270440$358                   player
     00001AFB  A$lcc2270440$359                   player
     00001AFD  A$lcc2270440$360                   player
     00001AFE  A$lcc2270440$361                   player
     00001B00  A$lcc2270440$362                   player
     00001B01  A$lcc2270440$363                   player
     00001B03  A$lcc2270440$364                   player
     00001B04  A$lcc2270440$365                   player
     00001B06  A$lcc2270440$366                   player
     00001B07  A$lcc2270440$367                   player
     00001B09  A$lcc2270440$368                   player
     00001B0A  A$lcc2270440$369                   player
     00001B0B  A$lcc2270440$370                   player
     00001B0C  A$lcc2270440$371                   player
     00001B0D  A$lcc2270440$372                   player
     00001B0E  A$lcc2270440$373                   player
     00001B10  A$lcc2270440$374                   player
     00001B11  A$lcc2270440$375                   player
ASxxxx Linker V03.00/V05.40 + sdld,  page 54.
Hexadecimal  [32-Bits]

Area                                    Addr        Size        Decimal Bytes (Attributes)
--------------------------------        ----        ----        ------- ----- ------------
_CODE                               00000200    00002D3E =       11582. bytes (REL,CON)

      Value  Global                              Global Defined In Module
      -----  --------------------------------   ------------------------
     00001B13  A$lcc2270440$376                   player
     00001B14  A$lcc2270440$377                   player
     00001B16  A$lcc2270440$378                   player
     00001B17  A$lcc2270440$379                   player
     00001B19  A$lcc2270440$380                   player
     00001B1A  A$lcc2270440$381                   player
     00001B1C  A$lcc2270440$382                   player
     00001B1D  A$lcc2270440$383                   player
     00001B1F  A$lcc2270440$387                   player
     00001B1F  C$player.c$90$1_1$160              player
     00001B22  A$lcc2270440$388                   player
     00001B23  A$lcc2270440$389                   player
     00001B25  A$lcc2270440$390                   player
     00001B26  A$lcc2270440$391                   player
     00001B27  A$lcc2270440$392                   player
     00001B28  A$lcc2270440$393                   player
     00001B29  A$lcc2270440$394                   player
     00001B2A  A$lcc2270440$395                   player
     00001B2B  A$lcc2270440$396                   player
     00001B2C  A$lcc2270440$397                   player
     00001B2D  A$lcc2270440$398                   player
     00001B2E  A$lcc2270440$399                   player
     00001B31  A$lcc2270440$400                   player
     00001B32  A$lcc2270440$401                   player
     00001B33  A$lcc2270440$402                   player
     00001B34  A$lcc2270440$403                   player
     00001B37  A$lcc2270440$404                   player
     00001B38  A$lcc2270440$405                   player
     00001B3A  A$lcc2270440$406                   player
     00001B3B  A$lcc2270440$407                   player
     00001B3C  A$lcc2270440$408                   player
     00001B3F  A$lcc2270440$409                   player
     00001B40  A$lcc2270440$410                   player
     00001B41  A$lcc2270440$411                   player
     00001B42  A$lcc2270440$412                   player
     00001B43  A$lcc2270440$413                   player
     00001B44  A$lcc2270440$414                   player
     00001B45  A$lcc2270440$415                   player
     00001B48  A$lcc2270440$416                   player
     00001B4B  A$lcc2270440$420                   player
     00001B4B  C$player.c$91$1_1$160              player
     00001B4E  A$lcc2270440$421                   player
     00001B4F  A$lcc2270440$422                   player
     00001B51  A$lcc2270440$423                   player
     00001B52  A$lcc2270440$424                   player
     00001B53  A$lcc2270440$425                   player
     00001B54  A$lcc2270440$426                   player
     00001B55  A$lcc2270440$427                   player
     00001B56  A$lcc2270440$428                   player
     00001B57  A$lcc2270440$429                   player
     00001B58  A$lcc2270440$430                   player
ASxxxx Linker V03.00/V05.40 + sdld,  page 55.
Hexadecimal  [32-Bits]

Area                                    Addr        Size        Decimal Bytes (Attributes)
--------------------------------        ----        ----        ------- ----- ------------
_CODE                               00000200    00002D3E =       11582. bytes (REL,CON)

      Value  Global                              Global Defined In Module
      -----  --------------------------------   ------------------------
     00001B59  A$lcc2270440$431                   player
     00001B5A  A$lcc2270440$432                   player
     00001B5D  A$lcc2270440$433                   player
     00001B5E  A$lcc2270440$434                   player
     00001B5F  A$lcc2270440$435                   player
     00001B60  A$lcc2270440$436                   player
     00001B63  A$lcc2270440$437                   player
     00001B64  A$lcc2270440$438                   player
     00001B66  A$lcc2270440$439                   player
     00001B67  A$lcc2270440$440                   player
     00001B68  A$lcc2270440$441                   player
     00001B6B  A$lcc2270440$442                   player
     00001B6C  A$lcc2270440$443                   player
     00001B6D  A$lcc2270440$444                   player
     00001B6F  A$lcc2270440$445                   player
     00001B70  A$lcc2270440$446                   player
     00001B71  A$lcc2270440$447                   player
     00001B72  A$lcc2270440$448                   player
     00001B75  A$lcc2270440$449                   player
     00001B78  A$lcc2270440$453                   player
     00001B78  C$player.c$92$1_1$160              player
     00001B7B  A$lcc2270440$454                   player
     00001B7C  A$lcc2270440$455                   player
     00001B7E  A$lcc2270440$456                   player
     00001B7F  A$lcc2270440$457                   player
     00001B80  A$lcc2270440$458                   player
     00001B81  A$lcc2270440$459                   player
     00001B82  A$lcc2270440$460                   player
     00001B83  A$lcc2270440$461                   player
     00001B84  A$lcc2270440$462                   player
     00001B85  A$lcc2270440$463                   player
     00001B86  A$lcc2270440$464                   player
     00001B87  A$lcc2270440$465                   player
     00001B8A  A$lcc2270440$466                   player
     00001B8B  A$lcc2270440$467                   player
     00001B8C  A$lcc2270440$468                   player
     00001B8D  A$lcc2270440$469                   player
     00001B90  A$lcc2270440$470                   player
     00001B91  A$lcc2270440$471                   player
     00001B93  A$lcc2270440$472                   player
     00001B94  A$lcc2270440$473                   player
     00001B95  A$lcc2270440$474                   player
     00001B98  A$lcc2270440$475                   player
     00001B99  A$lcc2270440$476                   player
     00001B9A  A$lcc2270440$477                   player
     00001B9C  A$lcc2270440$478                   player
     00001B9D  A$lcc2270440$479                   player
     00001B9E  A$lcc2270440$480                   player
     00001B9F  A$lcc2270440$481                   player
     00001BA2  A$lcc2270440$482                   player
     00001BA5  A$lcc2270440$486                   player
ASxxxx Linker V03.00/V05.40 + sdld,  page 56.
Hexadecimal  [32-Bits]

Area                                    Addr        Size        Decimal Bytes (Attributes)
--------------------------------        ----        ----        ------- ----- ------------
_CODE                               00000200    00002D3E =       11582. bytes (REL,CON)

      Value  Global                              Global Defined In Module
      -----  --------------------------------   ------------------------
     00001BA5  C$player.c$93$1_1$160              player
     00001BA8  A$lcc2270440$487                   player
     00001BA9  A$lcc2270440$488                   player
     00001BAB  A$lcc2270440$489                   player
     00001BAC  A$lcc2270440$490                   player
     00001BAD  A$lcc2270440$491                   player
     00001BAE  A$lcc2270440$492                   player
     00001BAF  A$lcc2270440$493                   player
     00001BB0  A$lcc2270440$494                   player
     00001BB1  A$lcc2270440$495                   player
     00001BB2  A$lcc2270440$496                   player
     00001BB3  A$lcc2270440$497                   player
     00001BB4  A$lcc2270440$498                   player
     00001BB7  A$lcc2270440$499                   player
     00001BB8  A$lcc2270440$500                   player
     00001BB9  A$lcc2270440$501                   player
     00001BBA  A$lcc2270440$502                   player
     00001BBD  A$lcc2270440$503                   player
     00001BBE  A$lcc2270440$504                   player
     00001BC0  A$lcc2270440$505                   player
     00001BC1  A$lcc2270440$506                   player
     00001BC2  A$lcc2270440$507                   player
     00001BC5  A$lcc2270440$508                   player
     00001BC6  A$lcc2270440$509                   player
     00001BC7  A$lcc2270440$510                   player
     00001BC9  A$lcc2270440$511                   player
     00001BCA  A$lcc2270440$512                   player
     00001BCB  A$lcc2270440$513                   player
     00001BCC  A$lcc2270440$514                   player
     00001BCF  A$lcc2270440$515                   player
     00001BD2  A$lcc2270440$519                   player
     00001BD2  C$player.c$95$1_1$160              player
     00001BD5  A$lcc2270440$523                   player
     00001BD5  C$player.c$96$1_1$160              player
     00001BD6  A$lcc2270440$524                   player
     00001BD7  A$lcc2270440$525                   player
     00001BD9  A$lcc2270440$529                   player
     00001BD9  C$player.c$97$1_1$160              player
     00001BDC  A$lcc2270440$530                   player
     00001BDE  A$lcc2270440$534                   player
     00001BDE  C$player.c$98$1_1$160              player
     00001BE1  A$lcc2270440$535                   player
     00001BE3  A$lcc2270440$539                   player
     00001BE3  C$player.c$100$1_1$160             player
     00001BE6  A$lcc2270440$543                   player
     00001BE8  A$lcc2270440$548                   player
     00001BE8  C$player.c$101$1_1$159             player
     00001BE8  XG$init_player$0$0                 player
     00001BE9  A$lcc2270442$59                    random
     00001BE9  C$random.c$5$0_0$1                 random
     00001BE9  C$random.c$7$1_0$1                 random
ASxxxx Linker V03.00/V05.40 + sdld,  page 57.
Hexadecimal  [32-Bits]

Area                                    Addr        Size        Decimal Bytes (Attributes)
--------------------------------        ----        ----        ------- ----- ------------
_CODE                               00000200    00002D3E =       11582. bytes (REL,CON)

      Value  Global                              Global Defined In Module
      -----  --------------------------------   ------------------------
     00001BE9  G$my_rand$0$0                      random
     00001BE9  _my_rand                           random
     00001BEC  A$lcc2270442$60                    random
     00001BED  A$lcc2270442$61                    random
     00001BEE  A$lcc2270442$62                    random
     00001BEF  A$lcc2270442$63                    random
     00001BF0  A$lcc2270442$64                    random
     00001BF1  A$lcc2270442$65                    random
     00001BF2  A$lcc2270442$66                    random
     00001BF3  A$lcc2270442$67                    random
     00001BF4  A$lcc2270442$68                    random
     00001BF5  A$lcc2270442$69                    random
     00001BF6  A$lcc2270442$70                    random
     00001BF7  A$lcc2270442$71                    random
     00001BF8  A$lcc2270442$72                    random
     00001BF9  A$lcc2270442$73                    random
     00001BFA  A$lcc2270442$74                    random
     00001BFB  A$lcc2270442$75                    random
     00001BFC  A$lcc2270442$76                    random
     00001BFD  A$lcc2270442$77                    random
     00001BFE  A$lcc2270442$78                    random
     00001BFF  A$lcc2270442$79                    random
     00001C00  A$lcc2270442$80                    random
     00001C01  A$lcc2270442$81                    random
     00001C02  A$lcc2270442$82                    random
     00001C03  A$lcc2270442$83                    random
     00001C04  A$lcc2270442$84                    random
     00001C05  A$lcc2270442$85                    random
     00001C06  A$lcc2270442$86                    random
     00001C07  A$lcc2270442$87                    random
     00001C08  A$lcc2270442$88                    random
     00001C0A  A$lcc2270442$89                    random
     00001C0D  A$lcc2270442$90                    random
     00001C0E  A$lcc2270442$91                    random
     00001C0F  A$lcc2270442$92                    random
     00001C11  A$lcc2270442$96                    random
     00001C11  C$random.c$8$1_0$1                 random
     00001C12  A$lcc2270442$97                    random
     00001C13  A$lcc2270442$98                    random
     00001C14  A$lcc2270442$99                    random
     00001C15  A$lcc2270442$107                   random
     00001C15  C$random.c$9$1_0$1                 random
     00001C15  XG$my_rand$0$0                     random
     00001C16  A$lcc2270443$56                    render
     00001C16  C$render.c$5$0_0$130               render
     00001C16  G$render_reset$0$0                 render
     00001C16  _render_reset                      render
     00001C17  A$lcc2270443$60                    render
     00001C17  C$render.c$6$1_0$130               render
     00001C1A  A$lcc2270443$61                    render
     00001C1C  A$lcc2270443$62                    render
ASxxxx Linker V03.00/V05.40 + sdld,  page 58.
Hexadecimal  [32-Bits]

Area                                    Addr        Size        Decimal Bytes (Attributes)
--------------------------------        ----        ----        ------- ----- ------------
_CODE                               00000200    00002D3E =       11582. bytes (REL,CON)

      Value  Global                              Global Defined In Module
      -----  --------------------------------   ------------------------
     00001C1D  A$lcc2270443$63                    render
     00001C1F  A$lcc2270443$67                    render
     00001C1F  C$render.c$7$1_0$130               render
     00001C22  A$lcc2270443$68                    render
     00001C24  A$lcc2270443$69                    render
     00001C25  A$lcc2270443$70                    render
     00001C27  A$lcc2270443$78                    render
     00001C27  C$render.c$8$1_0$130               render
     00001C27  XG$render_reset$0$0                render
     00001C28  A$lcc2270444$56                    scene
     00001C28  C$scene.c$6$0_0$27                 scene
     00001C28  C$scene.c$8$2_0$28                 scene
     00001C28  G$Scene_Destroy$0$0                scene
     00001C28  _Scene_Destroy                     scene
     00001C2B  A$lcc2270444$57                    scene
     00001C2C  A$lcc2270444$58                    scene
     00001C2D  A$lcc2270444$59                    scene
     00001C2E  A$lcc2270444$60                    scene
     00001C2F  A$lcc2270444$61                    scene
     00001C30  A$lcc2270444$62                    scene
     00001C31  A$lcc2270444$63                    scene
     00001C32  A$lcc2270444$67                    scene
     00001C32  C$scene.c$9$2_0$28                 scene
     00001C33  A$lcc2270444$71                    scene
     00001C33  C$scene.c$11$1_0$27                scene
     00001C34  A$lcc2270444$72                    scene
     00001C35  A$lcc2270444$73                    scene
     00001C36  A$lcc2270444$74                    scene
     00001C39  A$lcc2270444$75                    scene
     00001C3A  A$lcc2270444$79                    scene
     00001C3A  C$scene.c$12$1_0$27                scene
     00001C3B  A$lcc2270444$80                    scene
     00001C3C  A$lcc2270444$81                    scene
     00001C3D  A$lcc2270444$82                    scene
     00001C3E  A$lcc2270444$90                    scene
     00001C3E  C$scene.c$13$1_0$27                scene
     00001C3E  XG$Scene_Destroy$0$0               scene
     00001C3F  A$lcc2270445$64                    scene_manager
     00001C3F  C$scene_manager.c$15$0_0$168       scene_manager
     00001C3F  C$scene_manager.c$17$1_0$168       scene_manager
     00001C3F  G$SceneManager_CleanScreen$0$0     scene_manager
     00001C3F  _SceneManager_CleanScreen          scene_manager
     00001C42  A$lcc2270445$68                    scene_manager
     00001C42  C$scene_manager.c$18$1_0$168       scene_manager
     00001C44  A$lcc2270445$69                    scene_manager
     00001C46  A$lcc2270445$70                    scene_manager
     00001C48  A$lcc2270445$74                    scene_manager
     00001C48  C$scene_manager.c$19$1_0$168       scene_manager
     00001C4A  A$lcc2270445$75                    scene_manager
     00001C4C  A$lcc2270445$76                    scene_manager
     00001C4E  A$lcc2270445$80                    scene_manager
ASxxxx Linker V03.00/V05.40 + sdld,  page 59.
Hexadecimal  [32-Bits]

Area                                    Addr        Size        Decimal Bytes (Attributes)
--------------------------------        ----        ----        ------- ----- ------------
_CODE                               00000200    00002D3E =       11582. bytes (REL,CON)

      Value  Global                              Global Defined In Module
      -----  --------------------------------   ------------------------
     00001C4E  C$scene_manager.c$21$2_0$168       scene_manager
     00001C50  A$lcc2270445$82                    scene_manager
     00001C51  A$lcc2270445$83                    scene_manager
     00001C53  A$lcc2270445$84                    scene_manager
     00001C54  A$lcc2270445$86                    scene_manager
     00001C57  A$lcc2270445$87                    scene_manager
     00001C58  A$lcc2270445$88                    scene_manager
     00001C59  A$lcc2270445$89                    scene_manager
     00001C5A  A$lcc2270445$90                    scene_manager
     00001C5B  A$lcc2270445$91                    scene_manager
     00001C5C  A$lcc2270445$92                    scene_manager
     00001C5D  A$lcc2270445$94                    scene_manager
     00001C5E  A$lcc2270445$95                    scene_manager
     00001C5F  A$lcc2270445$96                    scene_manager
     00001C60  A$lcc2270445$100                   scene_manager
     00001C60  C$scene_manager.c$21$2_0$169       scene_manager
     00001C61  A$lcc2270445$108                   scene_manager
     00001C61  C$scene_manager.c$23$2_0$168       scene_manager
     00001C61  XG$SceneManager_CleanScreen$0$0    scene_manager
     00001C63  A$lcc2270445$121                   scene_manager
     00001C63  C$scene_manager.c$25$2_0$174       scene_manager
     00001C63  C$scene_manager.c$27$1_0$174       scene_manager
     00001C63  G$SceneManager_Create$0$0          scene_manager
     00001C63  _SceneManager_Create               scene_manager
     00001C64  A$lcc2270445$122                   scene_manager
     00001C67  A$lcc2270445$123                   scene_manager
     00001C6A  A$lcc2270445$124                   scene_manager
     00001C6B  A$lcc2270445$125                   scene_manager
     00001C6E  A$lcc2270445$126                   scene_manager
     00001C6F  A$lcc2270445$127                   scene_manager
     00001C70  A$lcc2270445$131                   scene_manager
     00001C70  C$scene_manager.c$29$1_0$174       scene_manager
     00001C71  A$lcc2270445$132                   scene_manager
     00001C72  A$lcc2270445$133                   scene_manager
     00001C73  A$lcc2270445$134                   scene_manager
     00001C76  A$lcc2270445$135                   scene_manager
     00001C77  A$lcc2270445$136                   scene_manager
     00001C78  A$lcc2270445$137                   scene_manager
     00001C79  A$lcc2270445$138                   scene_manager
     00001C7A  A$lcc2270445$142                   scene_manager
     00001C7A  C$scene_manager.c$30$1_0$174       scene_manager
     00001C7D  A$lcc2270445$143                   scene_manager
     00001C80  A$lcc2270445$144                   scene_manager
     00001C81  A$lcc2270445$145                   scene_manager
     00001C82  A$lcc2270445$146                   scene_manager
     00001C83  A$lcc2270445$147                   scene_manager
     00001C84  A$lcc2270445$148                   scene_manager
     00001C86  A$lcc2270445$149                   scene_manager
     00001C87  A$lcc2270445$150                   scene_manager
     00001C89  A$lcc2270445$158                   scene_manager
     00001C89  C$scene_manager.c$31$1_0$174       scene_manager
ASxxxx Linker V03.00/V05.40 + sdld,  page 60.
Hexadecimal  [32-Bits]

Area                                    Addr        Size        Decimal Bytes (Attributes)
--------------------------------        ----        ----        ------- ----- ------------
_CODE                               00000200    00002D3E =       11582. bytes (REL,CON)

      Value  Global                              Global Defined In Module
      -----  --------------------------------   ------------------------
     00001C89  XG$SceneManager_Create$0$0         scene_manager
     00001C8A  A$lcc2270445$168                   scene_manager
     00001C8A  C$scene_manager.c$33$1_0$176       scene_manager
     00001C8A  G$SceneManager_ChangeScene$0$0     scene_manager
     00001C8A  _SceneManager_ChangeScene          scene_manager
     00001C8C  A$lcc2270445$169                   scene_manager
     00001C8E  A$lcc2270445$170                   scene_manager
     00001C8F  A$lcc2270445$171                   scene_manager
     00001C90  A$lcc2270445$172                   scene_manager
     00001C91  A$lcc2270445$173                   scene_manager
     00001C92  A$lcc2270445$174                   scene_manager
     00001C93  A$lcc2270445$178                   scene_manager
     00001C93  C$scene_manager.c$35$2_0$177       scene_manager
     00001C96  A$lcc2270445$179                   scene_manager
     00001C97  A$lcc2270445$180                   scene_manager
     00001C98  A$lcc2270445$181                   scene_manager
     00001C99  A$lcc2270445$182                   scene_manager
     00001C9A  A$lcc2270445$183                   scene_manager
     00001C9B  A$lcc2270445$184                   scene_manager
     00001C9C  A$lcc2270445$185                   scene_manager
     00001C9D  A$lcc2270445$186                   scene_manager
     00001C9E  A$lcc2270445$190                   scene_manager
     00001C9E  C$scene_manager.c$36$2_0$177       scene_manager
     00001CA1  A$lcc2270445$194                   scene_manager
     00001CA1  C$scene_manager.c$38$1_1$176       scene_manager
     00001CA2  A$lcc2270445$195                   scene_manager
     00001CA3  A$lcc2270445$196                   scene_manager
     00001CA4  A$lcc2270445$197                   scene_manager
     00001CA5  A$lcc2270445$198                   scene_manager
     00001CA6  A$lcc2270445$199                   scene_manager
     00001CA7  A$lcc2270445$200                   scene_manager
     00001CA8  A$lcc2270445$201                   scene_manager
     00001CAA  A$lcc2270445$202                   scene_manager
     00001CAD  A$lcc2270445$203                   scene_manager
     00001CAE  A$lcc2270445$204                   scene_manager
     00001CAF  A$lcc2270445$205                   scene_manager
     00001CB0  A$lcc2270445$206                   scene_manager
     00001CB2  A$lcc2270445$207                   scene_manager
     00001CB3  A$lcc2270445$208                   scene_manager
     00001CB4  A$lcc2270445$209                   scene_manager
     00001CB5  A$lcc2270445$210                   scene_manager
     00001CB7  A$lcc2270445$211                   scene_manager
     00001CB8  A$lcc2270445$212                   scene_manager
     00001CB9  A$lcc2270445$213                   scene_manager
     00001CBA  A$lcc2270445$214                   scene_manager
     00001CBB  A$lcc2270445$215                   scene_manager
     00001CBC  A$lcc2270445$216                   scene_manager
     00001CBD  A$lcc2270445$217                   scene_manager
     00001CBE  A$lcc2270445$218                   scene_manager
     00001CBF  A$lcc2270445$219                   scene_manager
     00001CC0  A$lcc2270445$220                   scene_manager
ASxxxx Linker V03.00/V05.40 + sdld,  page 61.
Hexadecimal  [32-Bits]

Area                                    Addr        Size        Decimal Bytes (Attributes)
--------------------------------        ----        ----        ------- ----- ------------
_CODE                               00000200    00002D3E =       11582. bytes (REL,CON)

      Value  Global                              Global Defined In Module
      -----  --------------------------------   ------------------------
     00001CC1  A$lcc2270445$221                   scene_manager
     00001CC3  A$lcc2270445$225                   scene_manager
     00001CC3  C$scene_manager.c$39$2_0$178       scene_manager
     00001CC4  A$lcc2270445$226                   scene_manager
     00001CC5  A$lcc2270445$227                   scene_manager
     00001CC8  A$lcc2270445$228                   scene_manager
     00001CC9  A$lcc2270445$229                   scene_manager
     00001CCA  A$lcc2270445$230                   scene_manager
     00001CCB  A$lcc2270445$236                   scene_manager
     00001CCB  C$scene_manager.c$41$1_0$176       scene_manager
     00001CCE  A$lcc2270445$240                   scene_manager
     00001CCE  C$scene_manager.c$43$1_0$176       scene_manager
     00001CD1  A$lcc2270445$241                   scene_manager
     00001CD2  A$lcc2270445$242                   scene_manager
     00001CD3  A$lcc2270445$243                   scene_manager
     00001CD4  A$lcc2270445$244                   scene_manager
     00001CD5  A$lcc2270445$245                   scene_manager
     00001CD6  A$lcc2270445$246                   scene_manager
     00001CD7  A$lcc2270445$247                   scene_manager
     00001CD8  A$lcc2270445$248                   scene_manager
     00001CDA  A$lcc2270445$249                   scene_manager
     00001CDB  A$lcc2270445$250                   scene_manager
     00001CDE  A$lcc2270445$251                   scene_manager
     00001CDF  A$lcc2270445$252                   scene_manager
     00001CE0  A$lcc2270445$253                   scene_manager
     00001CE1  A$lcc2270445$254                   scene_manager
     00001CE2  A$lcc2270445$255                   scene_manager
     00001CE3  A$lcc2270445$256                   scene_manager
     00001CE4  A$lcc2270445$257                   scene_manager
     00001CE5  A$lcc2270445$258                   scene_manager
     00001CE6  A$lcc2270445$262                   scene_manager
     00001CE6  C$scene_manager.c$45$2_0$179       scene_manager
     00001CE8  A$lcc2270445$263                   scene_manager
     00001CEA  A$lcc2270445$264                   scene_manager
     00001CEB  A$lcc2270445$268                   scene_manager
     00001CEB  C$scene_manager.c$46$2_1$180       scene_manager
     00001CEE  A$lcc2270445$269                   scene_manager
     00001CEF  A$lcc2270445$270                   scene_manager
     00001CF2  A$lcc2270445$271                   scene_manager
     00001CF3  A$lcc2270445$272                   scene_manager
     00001CF4  A$lcc2270445$273                   scene_manager
     00001CF5  A$lcc2270445$274                   scene_manager
     00001CF6  A$lcc2270445$275                   scene_manager
     00001CF8  A$lcc2270445$276                   scene_manager
     00001CF9  A$lcc2270445$277                   scene_manager
     00001CFA  A$lcc2270445$278                   scene_manager
     00001CFB  A$lcc2270445$279                   scene_manager
     00001CFC  A$lcc2270445$280                   scene_manager
     00001CFD  A$lcc2270445$281                   scene_manager
     00001CFE  A$lcc2270445$282                   scene_manager
     00001CFF  A$lcc2270445$283                   scene_manager
ASxxxx Linker V03.00/V05.40 + sdld,  page 62.
Hexadecimal  [32-Bits]

Area                                    Addr        Size        Decimal Bytes (Attributes)
--------------------------------        ----        ----        ------- ----- ------------
_CODE                               00000200    00002D3E =       11582. bytes (REL,CON)

      Value  Global                              Global Defined In Module
      -----  --------------------------------   ------------------------
     00001D00  A$lcc2270445$284                   scene_manager
     00001D01  A$lcc2270445$285                   scene_manager
     00001D02  A$lcc2270445$286                   scene_manager
     00001D03  A$lcc2270445$287                   scene_manager
     00001D04  A$lcc2270445$288                   scene_manager
     00001D07  A$lcc2270445$289                   scene_manager
     00001D08  A$lcc2270445$290                   scene_manager
     00001D09  A$lcc2270445$291                   scene_manager
     00001D0B  A$lcc2270445$292                   scene_manager
     00001D0C  A$lcc2270445$293                   scene_manager
     00001D0E  A$lcc2270445$297                   scene_manager
     00001D0E  C$scene_manager.c$47$2_1$180       scene_manager
     00001D10  A$lcc2270445$298                   scene_manager
     00001D11  A$lcc2270445$299                   scene_manager
     00001D12  A$lcc2270445$300                   scene_manager
     00001D13  A$lcc2270445$301                   scene_manager
     00001D14  A$lcc2270445$302                   scene_manager
     00001D15  A$lcc2270445$303                   scene_manager
     00001D16  A$lcc2270445$304                   scene_manager
     00001D17  A$lcc2270445$305                   scene_manager
     00001D18  A$lcc2270445$306                   scene_manager
     00001D1B  A$lcc2270445$307                   scene_manager
     00001D1C  A$lcc2270445$308                   scene_manager
     00001D1D  A$lcc2270445$309                   scene_manager
     00001D1F  A$lcc2270445$310                   scene_manager
     00001D20  A$lcc2270445$311                   scene_manager
     00001D21  A$lcc2270445$312                   scene_manager
     00001D22  A$lcc2270445$313                   scene_manager
     00001D23  A$lcc2270445$314                   scene_manager
     00001D24  A$lcc2270445$315                   scene_manager
     00001D25  A$lcc2270445$316                   scene_manager
     00001D26  A$lcc2270445$317                   scene_manager
     00001D27  A$lcc2270445$318                   scene_manager
     00001D2A  A$lcc2270445$319                   scene_manager
     00001D2B  A$lcc2270445$320                   scene_manager
     00001D2C  A$lcc2270445$321                   scene_manager
     00001D2F  A$lcc2270445$326                   scene_manager
     00001D2F  C$scene_manager.c$49$1_1$179       scene_manager
     00001D30  A$lcc2270445$327                   scene_manager
     00001D31  A$lcc2270445$328                   scene_manager
     00001D32  A$lcc2270445$329                   scene_manager
     00001D33  A$lcc2270445$330                   scene_manager
     00001D34  A$lcc2270445$331                   scene_manager
     00001D35  A$lcc2270445$332                   scene_manager
     00001D36  A$lcc2270445$333                   scene_manager
     00001D37  A$lcc2270445$334                   scene_manager
     00001D38  A$lcc2270445$335                   scene_manager
     00001D39  A$lcc2270445$336                   scene_manager
     00001D3A  A$lcc2270445$337                   scene_manager
     00001D3C  A$lcc2270445$338                   scene_manager
     00001D3D  A$lcc2270445$339                   scene_manager
ASxxxx Linker V03.00/V05.40 + sdld,  page 63.
Hexadecimal  [32-Bits]

Area                                    Addr        Size        Decimal Bytes (Attributes)
--------------------------------        ----        ----        ------- ----- ------------
_CODE                               00000200    00002D3E =       11582. bytes (REL,CON)

      Value  Global                              Global Defined In Module
      -----  --------------------------------   ------------------------
     00001D3E  A$lcc2270445$340                   scene_manager
     00001D3F  A$lcc2270445$341                   scene_manager
     00001D40  A$lcc2270445$342                   scene_manager
     00001D41  A$lcc2270445$343                   scene_manager
     00001D42  A$lcc2270445$344                   scene_manager
     00001D43  A$lcc2270445$345                   scene_manager
     00001D44  A$lcc2270445$346                   scene_manager
     00001D46  A$lcc2270445$347                   scene_manager
     00001D47  A$lcc2270445$348                   scene_manager
     00001D48  A$lcc2270445$349                   scene_manager
     00001D49  A$lcc2270445$350                   scene_manager
     00001D4A  A$lcc2270445$351                   scene_manager
     00001D4D  A$lcc2270445$355                   scene_manager
     00001D4D  C$scene_manager.c$51$2_1$181       scene_manager
     00001D4F  A$lcc2270445$356                   scene_manager
     00001D51  A$lcc2270445$357                   scene_manager
     00001D52  A$lcc2270445$358                   scene_manager
     00001D54  A$lcc2270445$362                   scene_manager
     00001D54  C$scene_manager.c$52$2_1$181       scene_manager
     00001D56  A$lcc2270445$363                   scene_manager
     00001D57  A$lcc2270445$364                   scene_manager
     00001D59  A$lcc2270445$365                   scene_manager
     00001D5A  A$lcc2270445$366                   scene_manager
     00001D5D  A$lcc2270445$374                   scene_manager
     00001D5D  C$scene_manager.c$54$1_1$179       scene_manager
     00001D5D  C$scene_manager.c$55$1_1$179       scene_manager
     00001D5E  A$lcc2270445$375                   scene_manager
     00001D61  A$lcc2270445$376                   scene_manager
     00001D64  A$lcc2270445$380                   scene_manager
     00001D64  C$scene_manager.c$57$1_1$179       scene_manager
     00001D66  A$lcc2270445$381                   scene_manager
     00001D68  A$lcc2270445$382                   scene_manager
     00001D6A  A$lcc2270445$386                   scene_manager
     00001D6A  C$scene_manager.c$58$1_1$179       scene_manager
     00001D6C  A$lcc2270445$387                   scene_manager
     00001D6E  A$lcc2270445$388                   scene_manager
     00001D70  A$lcc2270445$392                   scene_manager
     00001D70  C$scene_manager.c$59$1_1$179       scene_manager
     00001D72  A$lcc2270445$393                   scene_manager
     00001D74  A$lcc2270445$394                   scene_manager
     00001D76  A$lcc2270445$399                   scene_manager
     00001D78  A$lcc2270445$404                   scene_manager
     00001D78  C$scene_manager.c$60$1_1$176       scene_manager
     00001D78  XG$SceneManager_ChangeScene$0$0    scene_manager
     00001D79  A$lcc2270447$61                    gender_select
     00001D79  C$gender_select.c$6$0_0$30         gender_select
     00001D79  C$gender_select.c$8$1_0$30         gender_select
     00001D79  G$GenderSelect_Create$0$0          gender_select
     00001D79  _GenderSelect_Create               gender_select
     00001D7C  A$lcc2270447$62                    gender_select
     00001D7E  A$lcc2270447$63                    gender_select
ASxxxx Linker V03.00/V05.40 + sdld,  page 64.
Hexadecimal  [32-Bits]

Area                                    Addr        Size        Decimal Bytes (Attributes)
--------------------------------        ----        ----        ------- ----- ------------
_CODE                               00000200    00002D3E =       11582. bytes (REL,CON)

      Value  Global                              Global Defined In Module
      -----  --------------------------------   ------------------------
     00001D7F  A$lcc2270447$64                    gender_select
     00001D81  A$lcc2270447$68                    gender_select
     00001D81  C$gender_select.c$9$1_0$30         gender_select
     00001D82  A$lcc2270447$69                    gender_select
     00001D84  A$lcc2270447$70                    gender_select
     00001D85  A$lcc2270447$71                    gender_select
     00001D87  A$lcc2270447$75                    gender_select
     00001D87  C$gender_select.c$11$1_0$30        gender_select
     00001D8A  A$lcc2270447$76                    gender_select
     00001D8B  A$lcc2270447$77                    gender_select
     00001D8C  A$lcc2270447$78                    gender_select
     00001D8D  A$lcc2270447$86                    gender_select
     00001D8D  C$gender_select.c$12$1_0$30        gender_select
     00001D8D  XG$GenderSelect_Create$0$0         gender_select
     00001D8E  A$lcc2270448$58                    gender_select_init
     00001D8E  C$gender_select_init.c$11$1_0$15   gender_select_init
     00001D8E  C$gender_select_init.c$9$0_0$155   gender_select_init
     00001D8E  G$GenderSelect_Init$0$0            gender_select_init
     00001D8E  _GenderSelect_Init                 gender_select_init
     00001D8F  A$lcc2270448$59                    gender_select_init
     00001D92  A$lcc2270448$60                    gender_select_init
     00001D95  A$lcc2270448$61                    gender_select_init
     00001D96  A$lcc2270448$62                    gender_select_init
     00001D97  A$lcc2270448$63                    gender_select_init
     00001D98  A$lcc2270448$67                    gender_select_init
     00001D98  C$gender_select_init.c$12$2_0$15   gender_select_init
     00001D99  A$lcc2270448$68                    gender_select_init
     00001D9A  A$lcc2270448$72                    gender_select_init
     00001D9A  C$gender_select_init.c$13$2_0$15   gender_select_init
     00001D9B  A$lcc2270448$76                    gender_select_init
     00001D9B  C$gender_select_init.c$15$1_0$15   gender_select_init
     00001D9C  A$lcc2270448$77                    gender_select_init
     00001D9D  A$lcc2270448$81                    gender_select_init
     00001D9D  C$gender_select_init.c$16$1_0$15   gender_select_init
     00001DA0  A$lcc2270448$82                    gender_select_init
     00001DA1  A$lcc2270448$83                    gender_select_init
     00001DA2  A$lcc2270448$84                    gender_select_init
     00001DA3  A$lcc2270448$85                    gender_select_init
     00001DA4  A$lcc2270448$89                    gender_select_init
     00001DA4  C$gender_select_init.c$18$1_0$15   gender_select_init
     00001DA7  A$lcc2270448$90                    gender_select_init
     00001DA8  A$lcc2270448$91                    gender_select_init
     00001DAB  A$lcc2270448$92                    gender_select_init
     00001DAC  A$lcc2270448$93                    gender_select_init
     00001DAF  A$lcc2270448$94                    gender_select_init
     00001DB1  A$lcc2270448$98                    gender_select_init
     00001DB1  C$gender_select_init.c$19$1_0$15   gender_select_init
     00001DB4  A$lcc2270448$99                    gender_select_init
     00001DB5  A$lcc2270448$100                   gender_select_init
     00001DB8  A$lcc2270448$101                   gender_select_init
     00001DB9  A$lcc2270448$102                   gender_select_init
ASxxxx Linker V03.00/V05.40 + sdld,  page 65.
Hexadecimal  [32-Bits]

Area                                    Addr        Size        Decimal Bytes (Attributes)
--------------------------------        ----        ----        ------- ----- ------------
_CODE                               00000200    00002D3E =       11582. bytes (REL,CON)

      Value  Global                              Global Defined In Module
      -----  --------------------------------   ------------------------
     00001DBA  A$lcc2270448$103                   gender_select_init
     00001DBB  A$lcc2270448$104                   gender_select_init
     00001DBC  A$lcc2270448$105                   gender_select_init
     00001DBF  A$lcc2270448$106                   gender_select_init
     00001DC1  A$lcc2270448$114                   gender_select_init
     00001DC1  C$gender_select_init.c$20$1_0$15   gender_select_init
     00001DC1  XG$GenderSelect_Init$0$0           gender_select_init
     00001DC2  A$lcc2270449$62                    gender_select_update
     00001DC2  C$gender_select_update.c$6$0_0$1   gender_select_update
     00001DC2  C$gender_select_update.c$8$1_0$1   gender_select_update
     00001DC2  C$gender_select_update.c$9$1_0$1   gender_select_update
     00001DC2  G$GenderSelect_Update$0$0          gender_select_update
     00001DC2  XG$GenderSelect_Update$0$0         gender_select_update
     00001DC2  _GenderSelect_Update               gender_select_update
     00001DC3  A$lcc2270450$61                    inventory_scene
     00001DC3  C$inventory_scene.c$6$0_0$30       inventory_scene
     00001DC3  C$inventory_scene.c$8$1_0$30       inventory_scene
     00001DC3  G$InventoryScene_Create$0$0        inventory_scene
     00001DC3  _InventoryScene_Create             inventory_scene
     00001DC6  A$lcc2270450$62                    inventory_scene
     00001DC8  A$lcc2270450$63                    inventory_scene
     00001DC9  A$lcc2270450$64                    inventory_scene
     00001DCB  A$lcc2270450$68                    inventory_scene
     00001DCB  C$inventory_scene.c$9$1_0$30       inventory_scene
     00001DCC  A$lcc2270450$69                    inventory_scene
     00001DCE  A$lcc2270450$70                    inventory_scene
     00001DCF  A$lcc2270450$71                    inventory_scene
     00001DD1  A$lcc2270450$75                    inventory_scene
     00001DD1  C$inventory_scene.c$10$1_0$30      inventory_scene
     00001DD4  A$lcc2270450$76                    inventory_scene
     00001DD6  A$lcc2270450$80                    inventory_scene
     00001DD6  C$inventory_scene.c$11$1_0$30      inventory_scene
     00001DD9  A$lcc2270450$81                    inventory_scene
     00001DDA  A$lcc2270450$82                    inventory_scene
     00001DDB  A$lcc2270450$83                    inventory_scene
     00001DDC  A$lcc2270450$91                    inventory_scene
     00001DDC  C$inventory_scene.c$12$1_0$30      inventory_scene
     00001DDC  XG$InventoryScene_Create$0$0       inventory_scene
     00001DDD  A$lcc2270451$56                    inventory_scene_init
     00001DDD  C$inventory_scene_init.c$13$0_0$   inventory_scene_init
     00001DDD  G$InventoryScene_DrawCoins$0$0     inventory_scene_init
     00001DDD  _InventoryScene_DrawCoins          inventory_scene_init
     00001DDF  A$lcc2270451$60                    inventory_scene_init
     00001DDF  C$inventory_scene_init.c$15$1_0$   inventory_scene_init
     00001DE2  A$lcc2270451$61                    inventory_scene_init
     00001DE4  A$lcc2270451$62                    inventory_scene_init
     00001DE5  A$lcc2270451$63                    inventory_scene_init
     00001DE8  A$lcc2270451$64                    inventory_scene_init
     00001DEA  A$lcc2270451$65                    inventory_scene_init
     00001DEB  A$lcc2270451$66                    inventory_scene_init
     00001DEE  A$lcc2270451$67                    inventory_scene_init
ASxxxx Linker V03.00/V05.40 + sdld,  page 66.
Hexadecimal  [32-Bits]

Area                                    Addr        Size        Decimal Bytes (Attributes)
--------------------------------        ----        ----        ------- ----- ------------
_CODE                               00000200    00002D3E =       11582. bytes (REL,CON)

      Value  Global                              Global Defined In Module
      -----  --------------------------------   ------------------------
     00001DEF  A$lcc2270451$68                    inventory_scene_init
     00001DF0  A$lcc2270451$69                    inventory_scene_init
     00001DF1  A$lcc2270451$70                    inventory_scene_init
     00001DF4  A$lcc2270451$71                    inventory_scene_init
     00001DF5  A$lcc2270451$72                    inventory_scene_init
     00001DF7  A$lcc2270451$73                    inventory_scene_init
     00001DFA  A$lcc2270451$74                    inventory_scene_init
     00001DFB  A$lcc2270451$75                    inventory_scene_init
     00001DFD  A$lcc2270451$76                    inventory_scene_init
     00001DFF  A$lcc2270451$77                    inventory_scene_init
     00001E00  A$lcc2270451$81                    inventory_scene_init
     00001E00  C$inventory_scene_init.c$16$1_0$   inventory_scene_init
     00001E03  A$lcc2270451$82                    inventory_scene_init
     00001E05  A$lcc2270451$83                    inventory_scene_init
     00001E06  A$lcc2270451$84                    inventory_scene_init
     00001E07  A$lcc2270451$85                    inventory_scene_init
     00001E08  A$lcc2270451$86                    inventory_scene_init
     00001E0B  A$lcc2270451$87                    inventory_scene_init
     00001E0C  A$lcc2270451$88                    inventory_scene_init
     00001E0D  A$lcc2270451$89                    inventory_scene_init
     00001E10  A$lcc2270451$90                    inventory_scene_init
     00001E13  A$lcc2270451$91                    inventory_scene_init
     00001E14  A$lcc2270451$92                    inventory_scene_init
     00001E16  A$lcc2270451$93                    inventory_scene_init
     00001E18  A$lcc2270451$94                    inventory_scene_init
     00001E19  A$lcc2270451$98                    inventory_scene_init
     00001E19  C$inventory_scene_init.c$17$1_0$   inventory_scene_init
     00001E1C  A$lcc2270451$99                    inventory_scene_init
     00001E1E  A$lcc2270451$100                   inventory_scene_init
     00001E1F  A$lcc2270451$101                   inventory_scene_init
     00001E20  A$lcc2270451$102                   inventory_scene_init
     00001E21  A$lcc2270451$103                   inventory_scene_init
     00001E24  A$lcc2270451$104                   inventory_scene_init
     00001E25  A$lcc2270451$105                   inventory_scene_init
     00001E26  A$lcc2270451$106                   inventory_scene_init
     00001E29  A$lcc2270451$107                   inventory_scene_init
     00001E2C  A$lcc2270451$108                   inventory_scene_init
     00001E2D  A$lcc2270451$109                   inventory_scene_init
     00001E2F  A$lcc2270451$110                   inventory_scene_init
     00001E31  A$lcc2270451$114                   inventory_scene_init
     00001E31  C$inventory_scene_init.c$18$1_0$   inventory_scene_init
     00001E32  A$lcc2270451$115                   inventory_scene_init
     00001E33  A$lcc2270451$116                   inventory_scene_init
     00001E36  A$lcc2270451$117                   inventory_scene_init
     00001E37  A$lcc2270451$118                   inventory_scene_init
     00001E38  A$lcc2270451$119                   inventory_scene_init
     00001E39  A$lcc2270451$120                   inventory_scene_init
     00001E3C  A$lcc2270451$121                   inventory_scene_init
     00001E3D  A$lcc2270451$122                   inventory_scene_init
     00001E3F  A$lcc2270451$123                   inventory_scene_init
     00001E41  A$lcc2270451$124                   inventory_scene_init
ASxxxx Linker V03.00/V05.40 + sdld,  page 67.
Hexadecimal  [32-Bits]

Area                                    Addr        Size        Decimal Bytes (Attributes)
--------------------------------        ----        ----        ------- ----- ------------
_CODE                               00000200    00002D3E =       11582. bytes (REL,CON)

      Value  Global                              Global Defined In Module
      -----  --------------------------------   ------------------------
     00001E42  A$lcc2270451$128                   inventory_scene_init
     00001E42  C$inventory_scene_init.c$20$1_0$   inventory_scene_init
     00001E44  A$lcc2270451$129                   inventory_scene_init
     00001E45  A$lcc2270451$130                   inventory_scene_init
     00001E48  A$lcc2270451$131                   inventory_scene_init
     00001E49  A$lcc2270451$132                   inventory_scene_init
     00001E4C  A$lcc2270451$133                   inventory_scene_init
     00001E4D  A$lcc2270451$134                   inventory_scene_init
     00001E50  A$lcc2270451$135                   inventory_scene_init
     00001E52  A$lcc2270451$139                   inventory_scene_init
     00001E52  C$inventory_scene_init.c$21$1_0$   inventory_scene_init
     00001E54  A$lcc2270451$140                   inventory_scene_init
     00001E55  A$lcc2270451$141                   inventory_scene_init
     00001E58  A$lcc2270451$142                   inventory_scene_init
     00001E59  A$lcc2270451$143                   inventory_scene_init
     00001E5C  A$lcc2270451$144                   inventory_scene_init
     00001E5D  A$lcc2270451$145                   inventory_scene_init
     00001E60  A$lcc2270451$146                   inventory_scene_init
     00001E62  A$lcc2270451$150                   inventory_scene_init
     00001E62  C$inventory_scene_init.c$22$1_0$   inventory_scene_init
     00001E64  A$lcc2270451$151                   inventory_scene_init
     00001E65  A$lcc2270451$152                   inventory_scene_init
     00001E68  A$lcc2270451$153                   inventory_scene_init
     00001E69  A$lcc2270451$154                   inventory_scene_init
     00001E6C  A$lcc2270451$155                   inventory_scene_init
     00001E6D  A$lcc2270451$156                   inventory_scene_init
     00001E70  A$lcc2270451$157                   inventory_scene_init
     00001E72  A$lcc2270451$161                   inventory_scene_init
     00001E72  C$inventory_scene_init.c$23$1_0$   inventory_scene_init
     00001E74  A$lcc2270451$162                   inventory_scene_init
     00001E75  A$lcc2270451$163                   inventory_scene_init
     00001E76  A$lcc2270451$164                   inventory_scene_init
     00001E77  A$lcc2270451$165                   inventory_scene_init
     00001E7A  A$lcc2270451$166                   inventory_scene_init
     00001E7B  A$lcc2270451$167                   inventory_scene_init
     00001E7E  A$lcc2270451$168                   inventory_scene_init
     00001E7F  A$lcc2270451$169                   inventory_scene_init
     00001E82  A$lcc2270451$173                   inventory_scene_init
     00001E84  A$lcc2270451$178                   inventory_scene_init
     00001E84  C$inventory_scene_init.c$24$1_0$   inventory_scene_init
     00001E84  XG$InventoryScene_DrawCoins$0$0    inventory_scene_init
     00001E85  A$lcc2270451$188                   inventory_scene_init
     00001E85  C$inventory_scene_init.c$26$1_0$   inventory_scene_init
     00001E85  G$InventoryScene_Init$0$0          inventory_scene_init
     00001E85  _InventoryScene_Init               inventory_scene_init
     00001E86  A$lcc2270451$192                   inventory_scene_init
     00001E86  C$inventory_scene_init.c$28$1_0$   inventory_scene_init
     00001E89  A$lcc2270451$193                   inventory_scene_init
     00001E8A  A$lcc2270451$194                   inventory_scene_init
     00001E8B  A$lcc2270451$195                   inventory_scene_init
     00001E8C  A$lcc2270451$196                   inventory_scene_init
ASxxxx Linker V03.00/V05.40 + sdld,  page 68.
Hexadecimal  [32-Bits]

Area                                    Addr        Size        Decimal Bytes (Attributes)
--------------------------------        ----        ----        ------- ----- ------------
_CODE                               00000200    00002D3E =       11582. bytes (REL,CON)

      Value  Global                              Global Defined In Module
      -----  --------------------------------   ------------------------
     00001E8D  A$lcc2270451$200                   inventory_scene_init
     00001E8D  C$inventory_scene_init.c$29$1_0$   inventory_scene_init
     00001E90  A$lcc2270451$204                   inventory_scene_init
     00001E90  C$inventory_scene_init.c$31$2_0$   inventory_scene_init
     00001E92  A$lcc2270451$205                   inventory_scene_init
     00001E94  A$lcc2270451$209                   inventory_scene_init
     00001E94  C$inventory_scene_init.c$33$2_0$   inventory_scene_init
     00001E96  A$lcc2270451$210                   inventory_scene_init
     00001E97  A$lcc2270451$214                   inventory_scene_init
     00001E97  C$inventory_scene_init.c$34$1_1$   inventory_scene_init
     00001E99  A$lcc2270451$215                   inventory_scene_init
     00001E9B  A$lcc2270451$216                   inventory_scene_init
     00001E9E  A$lcc2270451$217                   inventory_scene_init
     00001EA0  A$lcc2270451$221                   inventory_scene_init
     00001EA0  C$inventory_scene_init.c$36$1_1$   inventory_scene_init
     00001EA3  A$lcc2270451$222                   inventory_scene_init
     00001EA4  A$lcc2270451$223                   inventory_scene_init
     00001EA7  A$lcc2270451$224                   inventory_scene_init
     00001EA8  A$lcc2270451$225                   inventory_scene_init
     00001EAB  A$lcc2270451$226                   inventory_scene_init
     00001EAD  A$lcc2270451$230                   inventory_scene_init
     00001EAD  C$inventory_scene_init.c$37$1_1$   inventory_scene_init
     00001EB0  A$lcc2270451$231                   inventory_scene_init
     00001EB1  A$lcc2270451$232                   inventory_scene_init
     00001EB4  A$lcc2270451$233                   inventory_scene_init
     00001EB5  A$lcc2270451$234                   inventory_scene_init
     00001EB6  A$lcc2270451$235                   inventory_scene_init
     00001EB7  A$lcc2270451$236                   inventory_scene_init
     00001EB8  A$lcc2270451$237                   inventory_scene_init
     00001EBB  A$lcc2270451$238                   inventory_scene_init
     00001EBD  A$lcc2270451$242                   inventory_scene_init
     00001EBD  C$inventory_scene_init.c$39$1_1$   inventory_scene_init
     00001EC0  A$lcc2270451$243                   inventory_scene_init
     00001EC1  A$lcc2270451$244                   inventory_scene_init
     00001EC4  A$lcc2270451$245                   inventory_scene_init
     00001EC5  A$lcc2270451$246                   inventory_scene_init
     00001EC8  A$lcc2270451$247                   inventory_scene_init
     00001ECA  A$lcc2270451$251                   inventory_scene_init
     00001ECA  C$inventory_scene_init.c$40$1_1$   inventory_scene_init
     00001ECD  A$lcc2270451$252                   inventory_scene_init
     00001ECE  A$lcc2270451$253                   inventory_scene_init
     00001ECF  A$lcc2270451$254                   inventory_scene_init
     00001ED2  A$lcc2270451$255                   inventory_scene_init
     00001ED3  A$lcc2270451$256                   inventory_scene_init
     00001ED6  A$lcc2270451$257                   inventory_scene_init
     00001ED7  A$lcc2270451$258                   inventory_scene_init
     00001EDA  A$lcc2270451$259                   inventory_scene_init
     00001EDC  A$lcc2270451$263                   inventory_scene_init
     00001EDC  C$inventory_scene_init.c$42$1_1$   inventory_scene_init
     00001EDD  A$lcc2270451$264                   inventory_scene_init
     00001EE0  A$lcc2270451$265                   inventory_scene_init
ASxxxx Linker V03.00/V05.40 + sdld,  page 69.
Hexadecimal  [32-Bits]

Area                                    Addr        Size        Decimal Bytes (Attributes)
--------------------------------        ----        ----        ------- ----- ------------
_CODE                               00000200    00002D3E =       11582. bytes (REL,CON)

      Value  Global                              Global Defined In Module
      -----  --------------------------------   ------------------------
     00001EE1  A$lcc2270451$269                   inventory_scene_init
     00001EE1  C$inventory_scene_init.c$44$1_1$   inventory_scene_init
     00001EE2  A$lcc2270451$270                   inventory_scene_init
     00001EE4  A$lcc2270451$271                   inventory_scene_init
     00001EE7  A$lcc2270451$272                   inventory_scene_init
     00001EE8  A$lcc2270451$276                   inventory_scene_init
     00001EE9  A$lcc2270451$281                   inventory_scene_init
     00001EE9  C$inventory_scene_init.c$45$1_1$   inventory_scene_init
     00001EE9  XG$InventoryScene_Init$0$0         inventory_scene_init
     00001EEA  A$lcc2270452$57                    inventory_scene_update
     00001EEA  C$inventory_scene_update.c$8$0_0   inventory_scene_update
     00001EEA  C$inventory_scene_update.c$9$1_0   inventory_scene_update
     00001EEA  G$InventoryScene_Update$0$0        inventory_scene_update
     00001EEA  _InventoryScene_Update             inventory_scene_update
     00001EED  A$lcc2270452$58                    inventory_scene_update
     00001EF0  A$lcc2270452$69                    inventory_scene_update
     00001EF0  C$inventory_scene_update.c$10$1_   inventory_scene_update
     00001EF0  C$inventory_scene_update.c$11$1_   inventory_scene_update
     00001EF0  XG$InventoryScene_Update$0$0       inventory_scene_update
     00001EF3  A$lcc2270453$73                    main_menu
     00001EF3  C$main_menu.c$11$1_0$31            main_menu
     00001EF3  C$main_menu.c$9$0_0$31             main_menu
     00001EF3  G$MainMenu_Create$0$0              main_menu
     00001EF3  _MainMenu_Create                   main_menu
     00001EF6  A$lcc2270453$74                    main_menu
     00001EF8  A$lcc2270453$75                    main_menu
     00001EF9  A$lcc2270453$76                    main_menu
     00001EFB  A$lcc2270453$80                    main_menu
     00001EFB  C$main_menu.c$12$1_0$31            main_menu
     00001EFC  A$lcc2270453$81                    main_menu
     00001EFE  A$lcc2270453$82                    main_menu
     00001EFF  A$lcc2270453$83                    main_menu
     00001F01  A$lcc2270453$87                    main_menu
     00001F01  C$main_menu.c$13$1_0$31            main_menu
     00001F04  A$lcc2270453$88                    main_menu
     00001F06  A$lcc2270453$92                    main_menu
     00001F06  C$main_menu.c$15$1_0$31            main_menu
     00001F09  A$lcc2270453$93                    main_menu
     00001F0A  A$lcc2270453$94                    main_menu
     00001F0B  A$lcc2270453$95                    main_menu
     00001F0C  A$lcc2270453$103                   main_menu
     00001F0C  C$main_menu.c$16$1_0$31            main_menu
     00001F0C  XG$MainMenu_Create$0$0             main_menu
     00001F0D  A$lcc2270454$57                    main_menu_init
     00001F0D  C$main_menu_init.c$10$1_0$166      main_menu_init
     00001F0D  C$main_menu_init.c$8$0_0$166       main_menu_init
     00001F0D  G$MainMenu_Init$0$0                main_menu_init
     00001F0D  _MainMenu_Init                     main_menu_init
     00001F10  A$lcc2270454$58                    main_menu_init
     00001F11  A$lcc2270454$59                    main_menu_init
     00001F12  A$lcc2270454$60                    main_menu_init
ASxxxx Linker V03.00/V05.40 + sdld,  page 70.
Hexadecimal  [32-Bits]

Area                                    Addr        Size        Decimal Bytes (Attributes)
--------------------------------        ----        ----        ------- ----- ------------
_CODE                               00000200    00002D3E =       11582. bytes (REL,CON)

      Value  Global                              Global Defined In Module
      -----  --------------------------------   ------------------------
     00001F13  A$lcc2270454$61                    main_menu_init
     00001F14  A$lcc2270454$65                    main_menu_init
     00001F14  C$main_menu_init.c$12$2_0$167      main_menu_init
     00001F16  A$lcc2270454$66                    main_menu_init
     00001F17  A$lcc2270454$70                    main_menu_init
     00001F17  C$main_menu_init.c$13$1_1$167      main_menu_init
     00001F19  A$lcc2270454$71                    main_menu_init
     00001F1B  A$lcc2270454$72                    main_menu_init
     00001F1E  A$lcc2270454$73                    main_menu_init
     00001F20  A$lcc2270454$77                    main_menu_init
     00001F20  C$main_menu_init.c$15$1_1$167      main_menu_init
     00001F23  A$lcc2270454$78                    main_menu_init
     00001F24  A$lcc2270454$79                    main_menu_init
     00001F27  A$lcc2270454$80                    main_menu_init
     00001F28  A$lcc2270454$81                    main_menu_init
     00001F2B  A$lcc2270454$82                    main_menu_init
     00001F2D  A$lcc2270454$86                    main_menu_init
     00001F2D  C$main_menu_init.c$16$1_1$167      main_menu_init
     00001F30  A$lcc2270454$87                    main_menu_init
     00001F31  A$lcc2270454$88                    main_menu_init
     00001F34  A$lcc2270454$89                    main_menu_init
     00001F35  A$lcc2270454$90                    main_menu_init
     00001F36  A$lcc2270454$91                    main_menu_init
     00001F37  A$lcc2270454$92                    main_menu_init
     00001F38  A$lcc2270454$93                    main_menu_init
     00001F3B  A$lcc2270454$94                    main_menu_init
     00001F3D  A$lcc2270454$98                    main_menu_init
     00001F3D  C$main_menu_init.c$18$1_1$167      main_menu_init
     00001F3E  A$lcc2270454$99                    main_menu_init
     00001F40  A$lcc2270454$100                   main_menu_init
     00001F43  A$lcc2270454$101                   main_menu_init
     00001F44  A$lcc2270454$109                   main_menu_init
     00001F44  C$main_menu_init.c$19$1_1$166      main_menu_init
     00001F44  XG$MainMenu_Init$0$0               main_menu_init
     00001F45  A$lcc2270455$59                    main_menu_init_stats
     00001F45  C$main_menu_init_stats.c$3$0_0$3   main_menu_init_stats
     00001F45  C$main_menu_init_stats.c$5$0_0$3   main_menu_init_stats
     00001F45  G$MainMenu_InitRandomStats$0$0     main_menu_init_stats
     00001F45  XG$MainMenu_InitRandomStats$0$0    main_menu_init_stats
     00001F45  _MainMenu_InitRandomStats          main_menu_init_stats
     00001F46  A$lcc2270456$53                    main_menu_input
     00001F46  C$main_menu_input.c$12$0_0$172     main_menu_input
     00001F46  G$MainMenu_CheckInput$0$0          main_menu_input
     00001F46  _MainMenu_CheckInput               main_menu_input
     00001F47  A$lcc2270456$57                    main_menu_input
     00001F47  C$main_menu_input.c$14$2_0$172     main_menu_input
     00001F4A  A$lcc2270456$58                    main_menu_input
     00001F4B  A$lcc2270456$59                    main_menu_input
     00001F4D  A$lcc2270456$60                    main_menu_input
     00001F50  A$lcc2270456$61                    main_menu_input
     00001F51  A$lcc2270456$62                    main_menu_input
ASxxxx Linker V03.00/V05.40 + sdld,  page 71.
Hexadecimal  [32-Bits]

Area                                    Addr        Size        Decimal Bytes (Attributes)
--------------------------------        ----        ----        ------- ----- ------------
_CODE                               00000200    00002D3E =       11582. bytes (REL,CON)

      Value  Global                              Global Defined In Module
      -----  --------------------------------   ------------------------
     00001F53  A$lcc2270456$66                    main_menu_input
     00001F53  C$main_menu_input.c$16$3_0$173     main_menu_input
     00001F55  A$lcc2270456$67                    main_menu_input
     00001F58  A$lcc2270456$68                    main_menu_input
     00001F59  A$lcc2270456$69                    main_menu_input
     00001F5B  A$lcc2270456$73                    main_menu_input
     00001F5B  C$main_menu_input.c$17$3_0$173     main_menu_input
     00001F5D  A$lcc2270456$74                    main_menu_input
     00001F5E  A$lcc2270456$75                    main_menu_input
     00001F5F  A$lcc2270456$79                    main_menu_input
     00001F5F  C$main_menu_input.c$19$5_0$175     main_menu_input
     00001F61  A$lcc2270456$80                    main_menu_input
     00001F63  A$lcc2270456$82                    main_menu_input
     00001F65  A$lcc2270456$83                    main_menu_input
     00001F66  A$lcc2270456$84                    main_menu_input
     00001F68  A$lcc2270456$85                    main_menu_input
     00001F6A  A$lcc2270456$89                    main_menu_input
     00001F6A  C$main_menu_input.c$21$5_0$175     main_menu_input
     00001F6D  A$lcc2270456$90                    main_menu_input
     00001F6E  A$lcc2270456$91                    main_menu_input
     00001F70  A$lcc2270456$92                    main_menu_input
     00001F71  A$lcc2270456$93                    main_menu_input
     00001F72  A$lcc2270456$94                    main_menu_input
     00001F75  A$lcc2270456$95                    main_menu_input
     00001F76  A$lcc2270456$96                    main_menu_input
     00001F77  A$lcc2270456$97                    main_menu_input
     00001F7A  A$lcc2270456$98                    main_menu_input
     00001F7B  A$lcc2270456$99                    main_menu_input
     00001F7C  A$lcc2270456$100                   main_menu_input
     00001F7F  A$lcc2270456$101                   main_menu_input
     00001F80  A$lcc2270456$102                   main_menu_input
     00001F81  A$lcc2270456$103                   main_menu_input
     00001F82  A$lcc2270456$107                   main_menu_input
     00001F82  C$main_menu_input.c$19$4_0$174     main_menu_input
     00001F84  A$lcc2270456$108                   main_menu_input
     00001F85  A$lcc2270456$109                   main_menu_input
     00001F87  A$lcc2270456$114                   main_menu_input
     00001F87  C$main_menu_input.c$24$3_0$173     main_menu_input
     00001F8A  A$lcc2270456$115                   main_menu_input
     00001F8D  A$lcc2270456$116                   main_menu_input
     00001F8E  A$lcc2270456$117                   main_menu_input
     00001F8F  A$lcc2270456$118                   main_menu_input
     00001F90  A$lcc2270456$119                   main_menu_input
     00001F91  A$lcc2270456$120                   main_menu_input
     00001F92  A$lcc2270456$121                   main_menu_input
     00001F93  A$lcc2270456$122                   main_menu_input
     00001F94  A$lcc2270456$123                   main_menu_input
     00001F97  A$lcc2270456$124                   main_menu_input
     00001F99  A$lcc2270456$125                   main_menu_input
     00001F9A  A$lcc2270456$126                   main_menu_input
     00001F9C  A$lcc2270456$127                   main_menu_input
ASxxxx Linker V03.00/V05.40 + sdld,  page 72.
Hexadecimal  [32-Bits]

Area                                    Addr        Size        Decimal Bytes (Attributes)
--------------------------------        ----        ----        ------- ----- ------------
_CODE                               00000200    00002D3E =       11582. bytes (REL,CON)

      Value  Global                              Global Defined In Module
      -----  --------------------------------   ------------------------
     00001F9D  A$lcc2270456$128                   main_menu_input
     00001F9E  A$lcc2270456$129                   main_menu_input
     00001F9F  A$lcc2270456$130                   main_menu_input
     00001FA0  A$lcc2270456$135                   main_menu_input
     00001FA1  A$lcc2270456$140                   main_menu_input
     00001FA1  C$main_menu_input.c$26$2_0$172     main_menu_input
     00001FA1  XG$MainMenu_CheckInput$0$0         main_menu_input
     00001FA2  A$lcc2270457$55                    main_menu_update
     00001FA2  C$main_menu_update.c$7$0_0$157     main_menu_update
     00001FA2  G$MainMenu_Update$0$0              main_menu_update
     00001FA2  _MainMenu_Update                   main_menu_update
     00001FA4  A$lcc2270457$59                    main_menu_update
     00001FA4  C$main_menu_update.c$9$1_0$157     main_menu_update
     00001FA7  A$lcc2270457$60                    main_menu_update
     00001FA8  A$lcc2270457$61                    main_menu_update
     00001FAA  A$lcc2270457$62                    main_menu_update
     00001FAB  A$lcc2270457$63                    main_menu_update
     00001FAC  A$lcc2270457$68                    main_menu_update
     00001FAC  C$main_menu_update.c$10$1_0$157    main_menu_update
     00001FAF  A$lcc2270457$72                    main_menu_update
     00001FAF  C$main_menu_update.c$12$2_0$158    main_menu_update
     00001FB2  A$lcc2270457$73                    main_menu_update
     00001FB3  A$lcc2270457$74                    main_menu_update
     00001FB5  A$lcc2270457$75                    main_menu_update
     00001FB8  A$lcc2270457$76                    main_menu_update
     00001FB9  A$lcc2270457$77                    main_menu_update
     00001FBA  A$lcc2270457$78                    main_menu_update
     00001FBB  A$lcc2270457$79                    main_menu_update
     00001FBC  A$lcc2270457$80                    main_menu_update
     00001FBF  A$lcc2270457$84                    main_menu_update
     00001FBF  C$main_menu_update.c$14$3_0$159    main_menu_update
     00001FC0  A$lcc2270457$85                    main_menu_update
     00001FC1  A$lcc2270457$86                    main_menu_update
     00001FC2  A$lcc2270457$87                    main_menu_update
     00001FC3  A$lcc2270457$91                    main_menu_update
     00001FC3  C$main_menu_update.c$16$4_0$160    main_menu_update
     00001FC6  A$lcc2270457$95                    main_menu_update
     00001FC6  C$main_menu_update.c$18$5_0$161    main_menu_update
     00001FC7  A$lcc2270457$96                    main_menu_update
     00001FC9  A$lcc2270457$97                    main_menu_update
     00001FCC  A$lcc2270457$101                   main_menu_update
     00001FCC  C$main_menu_update.c$20$6_0$163    main_menu_update
     00001FCE  A$lcc2270457$102                   main_menu_update
     00001FD0  A$lcc2270457$106                   main_menu_update
     00001FD0  C$main_menu_update.c$21$2_0$157    main_menu_update
     00001FD2  A$lcc2270457$108                   main_menu_update
     00001FD3  A$lcc2270457$109                   main_menu_update
     00001FD5  A$lcc2270457$110                   main_menu_update
     00001FD7  A$lcc2270457$114                   main_menu_update
     00001FD7  C$main_menu_update.c$23$7_1$164    main_menu_update
     00001FD8  A$lcc2270457$115                   main_menu_update
ASxxxx Linker V03.00/V05.40 + sdld,  page 73.
Hexadecimal  [32-Bits]

Area                                    Addr        Size        Decimal Bytes (Attributes)
--------------------------------        ----        ----        ------- ----- ------------
_CODE                               00000200    00002D3E =       11582. bytes (REL,CON)

      Value  Global                              Global Defined In Module
      -----  --------------------------------   ------------------------
     00001FDB  A$lcc2270457$116                   main_menu_update
     00001FDC  A$lcc2270457$117                   main_menu_update
     00001FDD  A$lcc2270457$118                   main_menu_update
     00001FE0  A$lcc2270457$119                   main_menu_update
     00001FE1  A$lcc2270457$120                   main_menu_update
     00001FE3  A$lcc2270457$121                   main_menu_update
     00001FE4  A$lcc2270457$122                   main_menu_update
     00001FE5  A$lcc2270457$123                   main_menu_update
     00001FE6  A$lcc2270457$124                   main_menu_update
     00001FE7  A$lcc2270457$125                   main_menu_update
     00001FEA  A$lcc2270457$126                   main_menu_update
     00001FEC  A$lcc2270457$130                   main_menu_update
     00001FEC  C$main_menu_update.c$21$6_1$163    main_menu_update
     00001FED  A$lcc2270457$131                   main_menu_update
     00001FEF  A$lcc2270457$136                   main_menu_update
     00001FEF  C$main_menu_update.c$28$5_0$165    main_menu_update
     00001FF2  A$lcc2270457$137                   main_menu_update
     00001FF4  A$lcc2270457$141                   main_menu_update
     00001FF4  C$main_menu_update.c$30$6_0$167    main_menu_update
     00001FF6  A$lcc2270457$142                   main_menu_update
     00001FF8  A$lcc2270457$143                   main_menu_update
     00001FF9  A$lcc2270457$144                   main_menu_update
     00001FFB  A$lcc2270457$145                   main_menu_update
     00001FFC  A$lcc2270457$146                   main_menu_update
     00001FFE  A$lcc2270457$147                   main_menu_update
     00001FFF  A$lcc2270457$148                   main_menu_update
     00002001  A$lcc2270457$149                   main_menu_update
     00002002  A$lcc2270457$150                   main_menu_update
     00002003  A$lcc2270457$151                   main_menu_update
     00002005  A$lcc2270457$152                   main_menu_update
     00002006  A$lcc2270457$153                   main_menu_update
     00002007  A$lcc2270457$154                   main_menu_update
     00002009  A$lcc2270457$155                   main_menu_update
     0000200A  A$lcc2270457$156                   main_menu_update
     0000200C  A$lcc2270457$157                   main_menu_update
     0000200D  A$lcc2270457$158                   main_menu_update
     0000200F  A$lcc2270457$159                   main_menu_update
     00002010  A$lcc2270457$160                   main_menu_update
     00002012  A$lcc2270457$161                   main_menu_update
     00002013  A$lcc2270457$162                   main_menu_update
     00002015  A$lcc2270457$163                   main_menu_update
     00002016  A$lcc2270457$167                   main_menu_update
     00002016  C$main_menu_update.c$33$2_0$157    main_menu_update
     00002019  A$lcc2270457$168                   main_menu_update
     0000201A  A$lcc2270457$170                   main_menu_update
     0000201B  A$lcc2270457$171                   main_menu_update
     0000201D  A$lcc2270457$172                   main_menu_update
     0000201F  A$lcc2270457$176                   main_menu_update
     0000201F  C$main_menu_update.c$35$7_1$168    main_menu_update
     00002020  A$lcc2270457$177                   main_menu_update
     00002022  A$lcc2270457$178                   main_menu_update
ASxxxx Linker V03.00/V05.40 + sdld,  page 74.
Hexadecimal  [32-Bits]

Area                                    Addr        Size        Decimal Bytes (Attributes)
--------------------------------        ----        ----        ------- ----- ------------
_CODE                               00000200    00002D3E =       11582. bytes (REL,CON)

      Value  Global                              Global Defined In Module
      -----  --------------------------------   ------------------------
     00002025  A$lcc2270457$179                   main_menu_update
     00002026  A$lcc2270457$180                   main_menu_update
     00002027  A$lcc2270457$181                   main_menu_update
     00002028  A$lcc2270457$182                   main_menu_update
     00002029  A$lcc2270457$183                   main_menu_update
     0000202C  A$lcc2270457$184                   main_menu_update
     0000202D  A$lcc2270457$185                   main_menu_update
     0000202E  A$lcc2270457$186                   main_menu_update
     0000202F  A$lcc2270457$187                   main_menu_update
     00002031  A$lcc2270457$191                   main_menu_update
     00002031  C$main_menu_update.c$36$7_1$168    main_menu_update
     00002033  A$lcc2270457$192                   main_menu_update
     00002034  A$lcc2270457$193                   main_menu_update
     00002035  A$lcc2270457$194                   main_menu_update
     00002038  A$lcc2270457$195                   main_menu_update
     00002039  A$lcc2270457$196                   main_menu_update
     0000203B  A$lcc2270457$197                   main_menu_update
     0000203C  A$lcc2270457$198                   main_menu_update
     0000203D  A$lcc2270457$199                   main_menu_update
     0000203E  A$lcc2270457$200                   main_menu_update
     0000203F  A$lcc2270457$201                   main_menu_update
     00002042  A$lcc2270457$202                   main_menu_update
     00002044  A$lcc2270457$206                   main_menu_update
     00002044  C$main_menu_update.c$37$7_1$168    main_menu_update
     00002045  A$lcc2270457$210                   main_menu_update
     00002045  C$main_menu_update.c$33$6_1$167    main_menu_update
     00002046  A$lcc2270457$211                   main_menu_update
     00002048  A$lcc2270457$216                   main_menu_update
     0000204A  A$lcc2270457$221                   main_menu_update
     0000204A  C$main_menu_update.c$41$2_0$157    main_menu_update
     0000204A  XG$MainMenu_Update$0$0             main_menu_update
     0000204B  A$lcc2270458$57                    clean_text
     0000204B  C$clean_text.c$7$0_0$133           clean_text
     0000204B  C$clean_text.c$9$1_0$133           clean_text
     0000204B  G$clean$0$0                        clean_text
     0000204B  _clean                             clean_text
     0000204E  A$lcc2270458$58                    clean_text
     00002050  A$lcc2270458$62                    clean_text
     00002050  C$clean_text.c$11$1_0$133          clean_text
     00002052  A$lcc2270458$64                    clean_text
     00002054  A$lcc2270458$65                    clean_text
     00002055  A$lcc2270458$66                    clean_text
     00002057  A$lcc2270458$70                    clean_text
     00002057  C$clean_text.c$13$3_0$135          clean_text
     0000205A  A$lcc2270458$71                    clean_text
     0000205B  A$lcc2270458$72                    clean_text
     0000205C  A$lcc2270458$73                    clean_text
     0000205D  A$lcc2270458$74                    clean_text
     00002060  A$lcc2270458$75                    clean_text
     00002061  A$lcc2270458$76                    clean_text
     00002063  A$lcc2270458$77                    clean_text
ASxxxx Linker V03.00/V05.40 + sdld,  page 75.
Hexadecimal  [32-Bits]

Area                                    Addr        Size        Decimal Bytes (Attributes)
--------------------------------        ----        ----        ------- ----- ------------
_CODE                               00000200    00002D3E =       11582. bytes (REL,CON)

      Value  Global                              Global Defined In Module
      -----  --------------------------------   ------------------------
     00002064  A$lcc2270458$78                    clean_text
     00002065  A$lcc2270458$79                    clean_text
     00002066  A$lcc2270458$80                    clean_text
     00002067  A$lcc2270458$81                    clean_text
     0000206A  A$lcc2270458$82                    clean_text
     0000206C  A$lcc2270458$86                    clean_text
     0000206C  C$clean_text.c$14$3_0$135          clean_text
     0000206F  A$lcc2270458$87                    clean_text
     00002070  A$lcc2270458$88                    clean_text
     00002072  A$lcc2270458$89                    clean_text
     00002073  A$lcc2270458$90                    clean_text
     00002074  A$lcc2270458$91                    clean_text
     00002075  A$lcc2270458$92                    clean_text
     00002076  A$lcc2270458$93                    clean_text
     00002079  A$lcc2270458$94                    clean_text
     0000207B  A$lcc2270458$98                    clean_text
     0000207B  C$clean_text.c$11$2_0$134          clean_text
     0000207C  A$lcc2270458$99                    clean_text
     0000207E  A$lcc2270458$104                   clean_text
     0000207E  C$clean_text.c$17$1_0$133          clean_text
     00002080  A$lcc2270458$109                   clean_text
     00002080  C$clean_text.c$19$3_0$137          clean_text
     00002081  A$lcc2270458$110                   clean_text
     00002083  A$lcc2270458$111                   clean_text
     00002085  A$lcc2270458$112                   clean_text
     00002088  A$lcc2270458$113                   clean_text
     00002089  A$lcc2270458$114                   clean_text
     0000208B  A$lcc2270458$115                   clean_text
     0000208C  A$lcc2270458$116                   clean_text
     0000208D  A$lcc2270458$117                   clean_text
     0000208F  A$lcc2270458$118                   clean_text
     00002090  A$lcc2270458$119                   clean_text
     00002091  A$lcc2270458$120                   clean_text
     00002093  A$lcc2270458$121                   clean_text
     00002094  A$lcc2270458$122                   clean_text
     00002095  A$lcc2270458$123                   clean_text
     00002096  A$lcc2270458$124                   clean_text
     00002097  A$lcc2270458$125                   clean_text
     0000209A  A$lcc2270458$126                   clean_text
     0000209C  A$lcc2270458$130                   clean_text
     0000209C  C$clean_text.c$17$2_0$136          clean_text
     0000209D  A$lcc2270458$131                   clean_text
     0000209F  A$lcc2270458$136                   clean_text
     0000209F  C$clean_text.c$22$1_0$133          clean_text
     000020A2  A$lcc2270458$137                   clean_text
     000020A3  A$lcc2270458$138                   clean_text
     000020A6  A$lcc2270458$139                   clean_text
     000020A7  A$lcc2270458$140                   clean_text
     000020AA  A$lcc2270458$141                   clean_text
     000020AB  A$lcc2270458$142                   clean_text
     000020AE  A$lcc2270458$143                   clean_text
ASxxxx Linker V03.00/V05.40 + sdld,  page 76.
Hexadecimal  [32-Bits]

Area                                    Addr        Size        Decimal Bytes (Attributes)
--------------------------------        ----        ----        ------- ----- ------------
_CODE                               00000200    00002D3E =       11582. bytes (REL,CON)

      Value  Global                              Global Defined In Module
      -----  --------------------------------   ------------------------
     000020B0  A$lcc2270458$147                   clean_text
     000020B0  C$clean_text.c$23$1_0$133          clean_text
     000020B1  A$lcc2270458$148                   clean_text
     000020B4  A$lcc2270458$149                   clean_text
     000020B5  A$lcc2270458$150                   clean_text
     000020B8  A$lcc2270458$151                   clean_text
     000020B9  A$lcc2270458$152                   clean_text
     000020BC  A$lcc2270458$153                   clean_text
     000020BE  A$lcc2270458$161                   clean_text
     000020BE  C$clean_text.c$24$1_0$133          clean_text
     000020BE  XG$clean$0$0                       clean_text
     000020BF  G$empty_tile$0_0$0                 clean_text
     000020BF  _empty_tile                        clean_text
     000020C0  A$lcc2270459$53                    map_collision
     000020C0  C$map_collision.c$12$0_0$135       map_collision
     000020C0  Fmap_collision$get_tile$0$0        map_collision
     000020C2  A$lcc2270459$54                    map_collision
     000020C4  A$lcc2270459$55                    map_collision
     000020C5  A$lcc2270459$56                    map_collision
     000020C6  A$lcc2270459$57                    map_collision
     000020C7  A$lcc2270459$61                    map_collision
     000020C7  C$map_collision.c$14$1_0$135       map_collision
     000020CA  A$lcc2270459$62                    map_collision
     000020CB  A$lcc2270459$63                    map_collision
     000020CC  A$lcc2270459$64                    map_collision
     000020CD  A$lcc2270459$65                    map_collision
     000020CE  A$lcc2270459$66                    map_collision
     000020D0  A$lcc2270459$67                    map_collision
     000020D1  A$lcc2270459$68                    map_collision
     000020D2  A$lcc2270459$69                    map_collision
     000020D3  A$lcc2270459$70                    map_collision
     000020D4  A$lcc2270459$71                    map_collision
     000020D6  A$lcc2270459$72                    map_collision
     000020D7  A$lcc2270459$73                    map_collision
     000020D8  A$lcc2270459$74                    map_collision
     000020D9  A$lcc2270459$75                    map_collision
     000020DA  A$lcc2270459$76                    map_collision
     000020DB  A$lcc2270459$77                    map_collision
     000020DC  A$lcc2270459$78                    map_collision
     000020DD  A$lcc2270459$79                    map_collision
     000020DE  A$lcc2270459$80                    map_collision
     000020DF  A$lcc2270459$81                    map_collision
     000020E0  A$lcc2270459$82                    map_collision
     000020E1  A$lcc2270459$83                    map_collision
     000020E2  A$lcc2270459$84                    map_collision
     000020E4  A$lcc2270459$85                    map_collision
     000020E5  A$lcc2270459$86                    map_collision
     000020E6  A$lcc2270459$87                    map_collision
     000020E7  A$lcc2270459$88                    map_collision
     000020E8  A$lcc2270459$89                    map_collision
     000020E9  A$lcc2270459$90                    map_collision
ASxxxx Linker V03.00/V05.40 + sdld,  page 77.
Hexadecimal  [32-Bits]

Area                                    Addr        Size        Decimal Bytes (Attributes)
--------------------------------        ----        ----        ------- ----- ------------
_CODE                               00000200    00002D3E =       11582. bytes (REL,CON)

      Value  Global                              Global Defined In Module
      -----  --------------------------------   ------------------------
     000020EA  A$lcc2270459$91                    map_collision
     000020EB  A$lcc2270459$92                    map_collision
     000020EC  A$lcc2270459$93                    map_collision
     000020ED  A$lcc2270459$94                    map_collision
     000020EE  A$lcc2270459$95                    map_collision
     000020EF  A$lcc2270459$96                    map_collision
     000020F0  A$lcc2270459$97                    map_collision
     000020F1  A$lcc2270459$98                    map_collision
     000020F2  A$lcc2270459$99                    map_collision
     000020F3  A$lcc2270459$100                   map_collision
     000020F4  A$lcc2270459$101                   map_collision
     000020F5  A$lcc2270459$105                   map_collision
     000020F5  C$map_collision.c$15$1_0$135       map_collision
     000020F7  A$lcc2270459$106                   map_collision
     000020F8  A$lcc2270459$107                   map_collision
     000020F9  A$lcc2270459$108                   map_collision
     000020FA  A$lcc2270459$118                   map_collision
     000020FA  C$map_collision.c$18$1_0$137       map_collision
     000020FA  G$Map_Collision$0$0                map_collision
     000020FA  _Map_Collision                     map_collision
     000020FC  A$lcc2270459$122                   map_collision
     000020FC  C$map_collision.c$20$1_0$137       map_collision
     000020FF  A$lcc2270459$123                   map_collision
     00002100  A$lcc2270459$124                   map_collision
     00002101  A$lcc2270459$125                   map_collision
     00002102  A$lcc2270459$126                   map_collision
     00002104  A$lcc2270459$127                   map_collision
     00002105  A$lcc2270459$128                   map_collision
     00002106  A$lcc2270459$132                   map_collision
     00002106  C$map_collision.c$21$1_0$137       map_collision
     00002107  A$lcc2270459$133                   map_collision
     00002108  A$lcc2270459$134                   map_collision
     00002109  A$lcc2270459$135                   map_collision
     0000210A  A$lcc2270459$136                   map_collision
     0000210B  A$lcc2270459$137                   map_collision
     0000210C  A$lcc2270459$141                   map_collision
     0000210C  C$map_collision.c$29$1_0$137       map_collision
     0000210F  A$lcc2270459$142                   map_collision
     00002111  A$lcc2270459$143                   map_collision
     00002112  A$lcc2270459$144                   map_collision
     00002113  A$lcc2270459$145                   map_collision
     00002115  A$lcc2270459$146                   map_collision
     00002116  A$lcc2270459$147                   map_collision
     00002118  A$lcc2270459$148                   map_collision
     0000211A  A$lcc2270459$149                   map_collision
     0000211B  A$lcc2270459$153                   map_collision
     0000211B  C$map_collision.c$30$1_0$137       map_collision
     0000211E  A$lcc2270459$154                   map_collision
     00002120  A$lcc2270459$155                   map_collision
     00002121  A$lcc2270459$156                   map_collision
     00002122  A$lcc2270459$157                   map_collision
ASxxxx Linker V03.00/V05.40 + sdld,  page 78.
Hexadecimal  [32-Bits]

Area                                    Addr        Size        Decimal Bytes (Attributes)
--------------------------------        ----        ----        ------- ----- ------------
_CODE                               00000200    00002D3E =       11582. bytes (REL,CON)

      Value  Global                              Global Defined In Module
      -----  --------------------------------   ------------------------
     00002124  A$lcc2270459$158                   map_collision
     00002125  A$lcc2270459$159                   map_collision
     00002127  A$lcc2270459$160                   map_collision
     00002128  A$lcc2270459$164                   map_collision
     00002128  C$map_collision.c$35$1_0$137       map_collision
     00002129  A$lcc2270459$165                   map_collision
     0000212A  A$lcc2270459$166                   map_collision
     0000212D  A$lcc2270459$167                   map_collision
     0000212E  A$lcc2270459$168                   map_collision
     0000212F  A$lcc2270459$169                   map_collision
     00002130  A$lcc2270459$170                   map_collision
     00002132  A$lcc2270459$171                   map_collision
     00002133  A$lcc2270459$172                   map_collision
     00002134  A$lcc2270459$173                   map_collision
     00002135  A$lcc2270459$174                   map_collision
     00002137  A$lcc2270459$175                   map_collision
     00002138  A$lcc2270459$176                   map_collision
     00002139  A$lcc2270459$177                   map_collision
     0000213A  A$lcc2270459$178                   map_collision
     0000213B  A$lcc2270459$179                   map_collision
     0000213C  A$lcc2270459$180                   map_collision
     0000213E  A$lcc2270459$181                   map_collision
     0000213F  A$lcc2270459$182                   map_collision
     00002140  A$lcc2270459$183                   map_collision
     00002141  A$lcc2270459$184                   map_collision
     00002142  A$lcc2270459$185                   map_collision
     00002144  A$lcc2270459$186                   map_collision
     00002145  A$lcc2270459$187                   map_collision
     00002146  A$lcc2270459$188                   map_collision
     00002147  A$lcc2270459$189                   map_collision
     00002148  A$lcc2270459$190                   map_collision
     00002149  A$lcc2270459$191                   map_collision
     0000214A  A$lcc2270459$192                   map_collision
     0000214B  A$lcc2270459$193                   map_collision
     0000214C  A$lcc2270459$194                   map_collision
     0000214D  A$lcc2270459$195                   map_collision
     0000214F  A$lcc2270459$196                   map_collision
     00002150  A$lcc2270459$197                   map_collision
     00002151  A$lcc2270459$198                   map_collision
     00002152  A$lcc2270459$199                   map_collision
     00002154  A$lcc2270459$200                   map_collision
     00002155  A$lcc2270459$201                   map_collision
     00002156  A$lcc2270459$202                   map_collision
     00002157  A$lcc2270459$203                   map_collision
     00002158  A$lcc2270459$204                   map_collision
     0000215A  A$lcc2270459$205                   map_collision
     0000215B  A$lcc2270459$206                   map_collision
     0000215C  A$lcc2270459$207                   map_collision
     0000215D  A$lcc2270459$208                   map_collision
     0000215E  A$lcc2270459$209                   map_collision
     0000215F  A$lcc2270459$210                   map_collision
ASxxxx Linker V03.00/V05.40 + sdld,  page 79.
Hexadecimal  [32-Bits]

Area                                    Addr        Size        Decimal Bytes (Attributes)
--------------------------------        ----        ----        ------- ----- ------------
_CODE                               00000200    00002D3E =       11582. bytes (REL,CON)

      Value  Global                              Global Defined In Module
      -----  --------------------------------   ------------------------
     00002160  A$lcc2270459$211                   map_collision
     00002162  A$lcc2270459$212                   map_collision
     00002163  A$lcc2270459$213                   map_collision
     00002164  A$lcc2270459$214                   map_collision
     00002165  A$lcc2270459$215                   map_collision
     00002167  A$lcc2270459$216                   map_collision
     00002168  A$lcc2270459$217                   map_collision
     00002169  A$lcc2270459$218                   map_collision
     0000216A  A$lcc2270459$219                   map_collision
     0000216C  A$lcc2270459$220                   map_collision
     0000216E  A$lcc2270459$221                   map_collision
     0000216F  A$lcc2270459$223                   map_collision
     00002171  A$lcc2270459$224                   map_collision
     00002174  A$lcc2270459$228                   map_collision
     00002174  C$map_collision.c$36$1_0$137       map_collision
     00002176  A$lcc2270459$229                   map_collision
     00002177  A$lcc2270459$230                   map_collision
     00002178  A$lcc2270459$231                   map_collision
     00002179  A$lcc2270459$232                   map_collision
     0000217A  A$lcc2270459$233                   map_collision
     0000217C  A$lcc2270459$234                   map_collision
     0000217D  A$lcc2270459$235                   map_collision
     0000217E  A$lcc2270459$236                   map_collision
     0000217F  A$lcc2270459$237                   map_collision
     00002180  A$lcc2270459$238                   map_collision
     00002181  A$lcc2270459$239                   map_collision
     00002182  A$lcc2270459$240                   map_collision
     00002183  A$lcc2270459$241                   map_collision
     00002185  A$lcc2270459$242                   map_collision
     00002186  A$lcc2270459$243                   map_collision
     00002187  A$lcc2270459$244                   map_collision
     00002188  A$lcc2270459$245                   map_collision
     00002189  A$lcc2270459$246                   map_collision
     0000218A  A$lcc2270459$247                   map_collision
     0000218B  A$lcc2270459$248                   map_collision
     0000218C  A$lcc2270459$249                   map_collision
     0000218D  A$lcc2270459$250                   map_collision
     0000218F  A$lcc2270459$251                   map_collision
     00002190  A$lcc2270459$252                   map_collision
     00002191  A$lcc2270459$253                   map_collision
     00002192  A$lcc2270459$254                   map_collision
     00002194  A$lcc2270459$255                   map_collision
     00002196  A$lcc2270459$256                   map_collision
     00002197  A$lcc2270459$258                   map_collision
     00002199  A$lcc2270459$259                   map_collision
     0000219C  A$lcc2270459$263                   map_collision
     0000219C  C$map_collision.c$37$1_0$137       map_collision
     0000219E  A$lcc2270459$264                   map_collision
     0000219F  A$lcc2270459$265                   map_collision
     000021A0  A$lcc2270459$266                   map_collision
     000021A1  A$lcc2270459$267                   map_collision
ASxxxx Linker V03.00/V05.40 + sdld,  page 80.
Hexadecimal  [32-Bits]

Area                                    Addr        Size        Decimal Bytes (Attributes)
--------------------------------        ----        ----        ------- ----- ------------
_CODE                               00000200    00002D3E =       11582. bytes (REL,CON)

      Value  Global                              Global Defined In Module
      -----  --------------------------------   ------------------------
     000021A2  A$lcc2270459$268                   map_collision
     000021A4  A$lcc2270459$269                   map_collision
     000021A5  A$lcc2270459$270                   map_collision
     000021A6  A$lcc2270459$271                   map_collision
     000021A7  A$lcc2270459$272                   map_collision
     000021A8  A$lcc2270459$273                   map_collision
     000021A9  A$lcc2270459$274                   map_collision
     000021AA  A$lcc2270459$275                   map_collision
     000021AB  A$lcc2270459$276                   map_collision
     000021AC  A$lcc2270459$277                   map_collision
     000021AD  A$lcc2270459$278                   map_collision
     000021AE  A$lcc2270459$279                   map_collision
     000021AF  A$lcc2270459$280                   map_collision
     000021B0  A$lcc2270459$281                   map_collision
     000021B1  A$lcc2270459$282                   map_collision
     000021B2  A$lcc2270459$283                   map_collision
     000021B3  A$lcc2270459$284                   map_collision
     000021B4  A$lcc2270459$285                   map_collision
     000021B5  A$lcc2270459$286                   map_collision
     000021B6  A$lcc2270459$287                   map_collision
     000021B7  A$lcc2270459$288                   map_collision
     000021B8  A$lcc2270459$289                   map_collision
     000021B9  A$lcc2270459$290                   map_collision
     000021BB  A$lcc2270459$291                   map_collision
     000021BC  A$lcc2270459$292                   map_collision
     000021BD  A$lcc2270459$293                   map_collision
     000021BE  A$lcc2270459$294                   map_collision
     000021BF  A$lcc2270459$295                   map_collision
     000021C0  A$lcc2270459$296                   map_collision
     000021C1  A$lcc2270459$297                   map_collision
     000021C3  A$lcc2270459$298                   map_collision
     000021C4  A$lcc2270459$299                   map_collision
     000021C6  A$lcc2270459$300                   map_collision
     000021C7  A$lcc2270459$301                   map_collision
     000021C8  A$lcc2270459$302                   map_collision
     000021C9  A$lcc2270459$303                   map_collision
     000021CA  A$lcc2270459$304                   map_collision
     000021CB  A$lcc2270459$305                   map_collision
     000021CD  A$lcc2270459$306                   map_collision
     000021CF  A$lcc2270459$307                   map_collision
     000021D0  A$lcc2270459$309                   map_collision
     000021D2  A$lcc2270459$310                   map_collision
     000021D5  A$lcc2270459$314                   map_collision
     000021D5  C$map_collision.c$38$1_0$137       map_collision
     000021D7  A$lcc2270459$315                   map_collision
     000021D8  A$lcc2270459$316                   map_collision
     000021D9  A$lcc2270459$317                   map_collision
     000021DA  A$lcc2270459$318                   map_collision
     000021DB  A$lcc2270459$319                   map_collision
     000021DC  A$lcc2270459$320                   map_collision
     000021DD  A$lcc2270459$321                   map_collision
ASxxxx Linker V03.00/V05.40 + sdld,  page 81.
Hexadecimal  [32-Bits]

Area                                    Addr        Size        Decimal Bytes (Attributes)
--------------------------------        ----        ----        ------- ----- ------------
_CODE                               00000200    00002D3E =       11582. bytes (REL,CON)

      Value  Global                              Global Defined In Module
      -----  --------------------------------   ------------------------
     000021DE  A$lcc2270459$322                   map_collision
     000021DF  A$lcc2270459$323                   map_collision
     000021E1  A$lcc2270459$324                   map_collision
     000021E2  A$lcc2270459$325                   map_collision
     000021E4  A$lcc2270459$326                   map_collision
     000021E5  A$lcc2270459$327                   map_collision
     000021E6  A$lcc2270459$328                   map_collision
     000021E7  A$lcc2270459$329                   map_collision
     000021E8  A$lcc2270459$330                   map_collision
     000021E9  A$lcc2270459$331                   map_collision
     000021EA  A$lcc2270459$332                   map_collision
     000021EB  A$lcc2270459$333                   map_collision
     000021EC  A$lcc2270459$334                   map_collision
     000021ED  A$lcc2270459$335                   map_collision
     000021EE  A$lcc2270459$336                   map_collision
     000021EF  A$lcc2270459$337                   map_collision
     000021F0  A$lcc2270459$338                   map_collision
     000021F2  A$lcc2270459$339                   map_collision
     000021F3  A$lcc2270459$340                   map_collision
     000021F5  A$lcc2270459$341                   map_collision
     000021F6  A$lcc2270459$342                   map_collision
     000021F7  A$lcc2270459$343                   map_collision
     000021F8  A$lcc2270459$344                   map_collision
     000021F9  A$lcc2270459$345                   map_collision
     000021FA  A$lcc2270459$346                   map_collision
     000021FC  A$lcc2270459$347                   map_collision
     000021FE  A$lcc2270459$348                   map_collision
     000021FF  A$lcc2270459$350                   map_collision
     00002201  A$lcc2270459$351                   map_collision
     00002204  A$lcc2270459$355                   map_collision
     00002204  C$map_collision.c$44$2_0$138       map_collision
     00002206  A$lcc2270459$356                   map_collision
     00002207  A$lcc2270459$357                   map_collision
     00002208  A$lcc2270459$358                   map_collision
     00002209  A$lcc2270459$359                   map_collision
     0000220A  A$lcc2270459$360                   map_collision
     0000220B  A$lcc2270459$361                   map_collision
     0000220C  A$lcc2270459$362                   map_collision
     0000220D  A$lcc2270459$363                   map_collision
     0000220E  A$lcc2270459$364                   map_collision
     0000220F  A$lcc2270459$365                   map_collision
     00002210  A$lcc2270459$366                   map_collision
     00002211  A$lcc2270459$367                   map_collision
     00002212  A$lcc2270459$368                   map_collision
     00002213  A$lcc2270459$369                   map_collision
     00002214  A$lcc2270459$370                   map_collision
     00002215  A$lcc2270459$371                   map_collision
     00002217  A$lcc2270459$372                   map_collision
     00002218  A$lcc2270459$373                   map_collision
     0000221A  A$lcc2270459$374                   map_collision
     0000221B  A$lcc2270459$375                   map_collision
ASxxxx Linker V03.00/V05.40 + sdld,  page 82.
Hexadecimal  [32-Bits]

Area                                    Addr        Size        Decimal Bytes (Attributes)
--------------------------------        ----        ----        ------- ----- ------------
_CODE                               00000200    00002D3E =       11582. bytes (REL,CON)

      Value  Global                              Global Defined In Module
      -----  --------------------------------   ------------------------
     0000221C  A$lcc2270459$376                   map_collision
     0000221D  A$lcc2270459$377                   map_collision
     0000221E  A$lcc2270459$378                   map_collision
     0000221F  A$lcc2270459$379                   map_collision
     00002221  A$lcc2270459$380                   map_collision
     00002223  A$lcc2270459$381                   map_collision
     00002224  A$lcc2270459$383                   map_collision
     00002225  A$lcc2270459$384                   map_collision
     00002228  A$lcc2270459$385                   map_collision
     00002229  A$lcc2270459$386                   map_collision
     0000222B  A$lcc2270459$387                   map_collision
     0000222D  A$lcc2270459$388                   map_collision
     0000222E  A$lcc2270459$390                   map_collision
     0000222F  A$lcc2270459$391                   map_collision
     00002231  A$lcc2270459$395                   map_collision
     00002231  C$map_collision.c$46$3_0$139       map_collision
     00002234  A$lcc2270459$400                   map_collision
     00002234  C$map_collision.c$49$2_0$140       map_collision
     00002236  A$lcc2270459$401                   map_collision
     00002237  A$lcc2270459$402                   map_collision
     00002238  A$lcc2270459$403                   map_collision
     00002239  A$lcc2270459$404                   map_collision
     0000223A  A$lcc2270459$405                   map_collision
     0000223B  A$lcc2270459$406                   map_collision
     0000223C  A$lcc2270459$407                   map_collision
     0000223D  A$lcc2270459$408                   map_collision
     0000223E  A$lcc2270459$409                   map_collision
     0000223F  A$lcc2270459$410                   map_collision
     00002240  A$lcc2270459$411                   map_collision
     00002241  A$lcc2270459$412                   map_collision
     00002242  A$lcc2270459$413                   map_collision
     00002243  A$lcc2270459$414                   map_collision
     00002244  A$lcc2270459$415                   map_collision
     00002245  A$lcc2270459$416                   map_collision
     00002247  A$lcc2270459$417                   map_collision
     00002248  A$lcc2270459$418                   map_collision
     0000224A  A$lcc2270459$419                   map_collision
     0000224B  A$lcc2270459$420                   map_collision
     0000224C  A$lcc2270459$421                   map_collision
     0000224D  A$lcc2270459$422                   map_collision
     0000224E  A$lcc2270459$423                   map_collision
     0000224F  A$lcc2270459$424                   map_collision
     00002251  A$lcc2270459$431                   map_collision
     00002251  C$map_collision.c$51$3_0$141       map_collision
     00002251  C$map_collision.c$52$3_0$141       map_collision
     00002252  A$lcc2270459$432                   map_collision
     00002253  A$lcc2270459$433                   map_collision
     00002254  A$lcc2270459$437                   map_collision
     00002254  C$map_collision.c$54$4_0$142       map_collision
     00002255  A$lcc2270459$438                   map_collision
     00002256  A$lcc2270459$439                   map_collision
ASxxxx Linker V03.00/V05.40 + sdld,  page 83.
Hexadecimal  [32-Bits]

Area                                    Addr        Size        Decimal Bytes (Attributes)
--------------------------------        ----        ----        ------- ----- ------------
_CODE                               00000200    00002D3E =       11582. bytes (REL,CON)

      Value  Global                              Global Defined In Module
      -----  --------------------------------   ------------------------
     00002259  A$lcc2270459$440                   map_collision
     0000225A  A$lcc2270459$441                   map_collision
     0000225B  A$lcc2270459$442                   map_collision
     0000225C  A$lcc2270459$443                   map_collision
     0000225D  A$lcc2270459$444                   map_collision
     0000225E  A$lcc2270459$445                   map_collision
     0000225F  A$lcc2270459$446                   map_collision
     00002260  A$lcc2270459$447                   map_collision
     00002262  A$lcc2270459$448                   map_collision
     00002264  A$lcc2270459$452                   map_collision
     00002264  C$map_collision.c$55$4_0$142       map_collision
     00002266  A$lcc2270459$456                   map_collision
     00002266  C$map_collision.c$57$4_0$143       map_collision
     00002267  A$lcc2270459$457                   map_collision
     00002268  A$lcc2270459$458                   map_collision
     0000226B  A$lcc2270459$459                   map_collision
     0000226C  A$lcc2270459$460                   map_collision
     0000226D  A$lcc2270459$461                   map_collision
     0000226E  A$lcc2270459$462                   map_collision
     0000226F  A$lcc2270459$463                   map_collision
     00002270  A$lcc2270459$464                   map_collision
     00002271  A$lcc2270459$465                   map_collision
     00002273  A$lcc2270459$466                   map_collision
     00002274  A$lcc2270459$467                   map_collision
     00002275  A$lcc2270459$468                   map_collision
     00002276  A$lcc2270459$469                   map_collision
     00002277  A$lcc2270459$470                   map_collision
     00002278  A$lcc2270459$471                   map_collision
     00002279  A$lcc2270459$475                   map_collision
     00002279  C$map_collision.c$58$4_0$143       map_collision
     0000227B  A$lcc2270459$479                   map_collision
     0000227B  C$map_collision.c$60$3_0$141       map_collision
     0000227C  A$lcc2270459$480                   map_collision
     0000227D  A$lcc2270459$481                   map_collision
     00002280  A$lcc2270459$486                   map_collision
     00002282  A$lcc2270459$491                   map_collision
     00002282  C$map_collision.c$62$2_0$137       map_collision
     00002282  XG$Map_Collision$0$0               map_collision
     00002283  A$lcc2270461$57                    map_player_movement
     00002283  C$map_player_movement.c$10$0_0$1   map_player_movement
     00002283  G$Map_PlayerMovement$0$0           map_player_movement
     00002283  _Map_PlayerMovement                map_player_movement
     00002284  A$lcc2270461$61                    map_player_movement
     00002284  C$map_player_movement.c$12$2_0$1   map_player_movement
     00002287  A$lcc2270461$62                    map_player_movement
     00002289  A$lcc2270461$63                    map_player_movement
     0000228B  A$lcc2270461$64                    map_player_movement
     0000228E  A$lcc2270461$65                    map_player_movement
     00002290  A$lcc2270461$66                    map_player_movement
     00002292  A$lcc2270461$70                    map_player_movement
     00002292  C$map_player_movement.c$14$3_0$1   map_player_movement
ASxxxx Linker V03.00/V05.40 + sdld,  page 84.
Hexadecimal  [32-Bits]

Area                                    Addr        Size        Decimal Bytes (Attributes)
--------------------------------        ----        ----        ------- ----- ------------
_CODE                               00000200    00002D3E =       11582. bytes (REL,CON)

      Value  Global                              Global Defined In Module
      -----  --------------------------------   ------------------------
     00002295  A$lcc2270461$71                    map_player_movement
     00002298  A$lcc2270461$72                    map_player_movement
     00002299  A$lcc2270461$73                    map_player_movement
     0000229A  A$lcc2270461$74                    map_player_movement
     0000229B  A$lcc2270461$75                    map_player_movement
     0000229C  A$lcc2270461$76                    map_player_movement
     0000229D  A$lcc2270461$77                    map_player_movement
     0000229E  A$lcc2270461$78                    map_player_movement
     0000229F  A$lcc2270461$79                    map_player_movement
     000022A2  A$lcc2270461$80                    map_player_movement
     000022A4  A$lcc2270461$81                    map_player_movement
     000022A5  A$lcc2270461$82                    map_player_movement
     000022A7  A$lcc2270461$83                    map_player_movement
     000022A8  A$lcc2270461$84                    map_player_movement
     000022A9  A$lcc2270461$85                    map_player_movement
     000022AC  A$lcc2270461$90                    map_player_movement
     000022AC  C$map_player_movement.c$18$2_0$1   map_player_movement
     000022AF  A$lcc2270461$91                    map_player_movement
     000022B0  A$lcc2270461$92                    map_player_movement
     000022B2  A$lcc2270461$96                    map_player_movement
     000022B5  A$lcc2270461$100                   map_player_movement
     000022B5  C$map_player_movement.c$20$4_0$1   map_player_movement
     000022B7  A$lcc2270461$101                   map_player_movement
     000022B9  A$lcc2270461$105                   map_player_movement
     000022B9  C$map_player_movement.c$21$4_0$1   map_player_movement
     000022BC  A$lcc2270461$106                   map_player_movement
     000022BE  A$lcc2270461$107                   map_player_movement
     000022C0  A$lcc2270461$112                   map_player_movement
     000022C0  C$map_player_movement.c$22$5_0$1   map_player_movement
     000022C2  A$lcc2270461$113                   map_player_movement
     000022C4  A$lcc2270461$117                   map_player_movement
     000022C4  C$map_player_movement.c$23$5_0$1   map_player_movement
     000022C7  A$lcc2270461$118                   map_player_movement
     000022C9  A$lcc2270461$119                   map_player_movement
     000022CB  A$lcc2270461$124                   map_player_movement
     000022CB  C$map_player_movement.c$24$6_0$1   map_player_movement
     000022CD  A$lcc2270461$125                   map_player_movement
     000022CF  A$lcc2270461$129                   map_player_movement
     000022CF  C$map_player_movement.c$25$6_0$1   map_player_movement
     000022D2  A$lcc2270461$130                   map_player_movement
     000022D4  A$lcc2270461$131                   map_player_movement
     000022D6  A$lcc2270461$136                   map_player_movement
     000022D6  C$map_player_movement.c$26$7_0$1   map_player_movement
     000022D7  A$lcc2270461$137                   map_player_movement
     000022D9  A$lcc2270461$141                   map_player_movement
     000022D9  C$map_player_movement.c$27$7_0$1   map_player_movement
     000022DC  A$lcc2270461$142                   map_player_movement
     000022DE  A$lcc2270461$147                   map_player_movement
     000022DE  C$map_player_movement.c$31$2_0$1   map_player_movement
     000022E1  A$lcc2270461$148                   map_player_movement
     000022E2  A$lcc2270461$149                   map_player_movement
ASxxxx Linker V03.00/V05.40 + sdld,  page 85.
Hexadecimal  [32-Bits]

Area                                    Addr        Size        Decimal Bytes (Attributes)
--------------------------------        ----        ----        ------- ----- ------------
_CODE                               00000200    00002D3E =       11582. bytes (REL,CON)

      Value  Global                              Global Defined In Module
      -----  --------------------------------   ------------------------
     000022E4  A$lcc2270461$150                   map_player_movement
     000022E7  A$lcc2270461$151                   map_player_movement
     000022E9  A$lcc2270461$152                   map_player_movement
     000022EB  A$lcc2270461$153                   map_player_movement
     000022ED  A$lcc2270461$154                   map_player_movement
     000022EF  A$lcc2270461$155                   map_player_movement
     000022F1  A$lcc2270461$156                   map_player_movement
     000022F3  A$lcc2270461$157                   map_player_movement
     000022F5  A$lcc2270461$165                   map_player_movement
     000022F5  C$map_player_movement.c$33$3_0$1   map_player_movement
     000022F5  C$map_player_movement.c$34$3_0$1   map_player_movement
     000022F8  A$lcc2270461$166                   map_player_movement
     000022FB  A$lcc2270461$170                   map_player_movement
     000022FB  C$map_player_movement.c$35$3_0$1   map_player_movement
     000022FE  A$lcc2270461$171                   map_player_movement
     00002300  A$lcc2270461$172                   map_player_movement
     00002301  A$lcc2270461$173                   map_player_movement
     00002304  A$lcc2270461$174                   map_player_movement
     00002305  A$lcc2270461$175                   map_player_movement
     00002307  A$lcc2270461$176                   map_player_movement
     00002308  A$lcc2270461$177                   map_player_movement
     00002309  A$lcc2270461$178                   map_player_movement
     0000230A  A$lcc2270461$179                   map_player_movement
     0000230B  A$lcc2270461$180                   map_player_movement
     0000230C  A$lcc2270461$181                   map_player_movement
     0000230D  A$lcc2270461$182                   map_player_movement
     0000230E  A$lcc2270461$183                   map_player_movement
     0000230F  A$lcc2270461$184                   map_player_movement
     00002310  A$lcc2270461$185                   map_player_movement
     00002313  A$lcc2270461$186                   map_player_movement
     00002314  A$lcc2270461$187                   map_player_movement
     00002315  A$lcc2270461$188                   map_player_movement
     00002316  A$lcc2270461$189                   map_player_movement
     00002318  A$lcc2270461$190                   map_player_movement
     00002319  A$lcc2270461$191                   map_player_movement
     0000231C  A$lcc2270461$195                   map_player_movement
     0000231C  C$map_player_movement.c$36$3_0$1   map_player_movement
     0000231E  A$lcc2270461$203                   map_player_movement
     0000231E  C$map_player_movement.c$37$3_0$1   map_player_movement
     0000231E  C$map_player_movement.c$38$3_0$1   map_player_movement
     00002321  A$lcc2270461$204                   map_player_movement
     00002324  A$lcc2270461$208                   map_player_movement
     00002324  C$map_player_movement.c$39$3_0$1   map_player_movement
     00002327  A$lcc2270461$209                   map_player_movement
     00002329  A$lcc2270461$210                   map_player_movement
     0000232A  A$lcc2270461$211                   map_player_movement
     0000232D  A$lcc2270461$212                   map_player_movement
     0000232E  A$lcc2270461$213                   map_player_movement
     00002330  A$lcc2270461$214                   map_player_movement
     00002331  A$lcc2270461$215                   map_player_movement
     00002332  A$lcc2270461$216                   map_player_movement
ASxxxx Linker V03.00/V05.40 + sdld,  page 86.
Hexadecimal  [32-Bits]

Area                                    Addr        Size        Decimal Bytes (Attributes)
--------------------------------        ----        ----        ------- ----- ------------
_CODE                               00000200    00002D3E =       11582. bytes (REL,CON)

      Value  Global                              Global Defined In Module
      -----  --------------------------------   ------------------------
     00002333  A$lcc2270461$217                   map_player_movement
     00002334  A$lcc2270461$218                   map_player_movement
     00002335  A$lcc2270461$219                   map_player_movement
     00002336  A$lcc2270461$220                   map_player_movement
     00002337  A$lcc2270461$221                   map_player_movement
     00002338  A$lcc2270461$222                   map_player_movement
     00002339  A$lcc2270461$223                   map_player_movement
     0000233C  A$lcc2270461$224                   map_player_movement
     0000233D  A$lcc2270461$225                   map_player_movement
     0000233E  A$lcc2270461$226                   map_player_movement
     0000233F  A$lcc2270461$227                   map_player_movement
     00002341  A$lcc2270461$228                   map_player_movement
     00002342  A$lcc2270461$229                   map_player_movement
     00002345  A$lcc2270461$233                   map_player_movement
     00002345  C$map_player_movement.c$40$3_0$1   map_player_movement
     00002347  A$lcc2270461$241                   map_player_movement
     00002347  C$map_player_movement.c$41$3_0$1   map_player_movement
     00002347  C$map_player_movement.c$42$3_0$1   map_player_movement
     0000234A  A$lcc2270461$242                   map_player_movement
     0000234D  A$lcc2270461$246                   map_player_movement
     0000234D  C$map_player_movement.c$43$3_0$1   map_player_movement
     0000234F  A$lcc2270461$254                   map_player_movement
     0000234F  C$map_player_movement.c$44$3_0$1   map_player_movement
     0000234F  C$map_player_movement.c$45$3_0$1   map_player_movement
     00002352  A$lcc2270461$255                   map_player_movement
     00002355  A$lcc2270461$263                   map_player_movement
     00002355  C$map_player_movement.c$49$2_0$1   map_player_movement
     00002355  C$map_player_movement.c$52$2_0$1   map_player_movement
     00002358  A$lcc2270461$264                   map_player_movement
     00002359  A$lcc2270461$265                   map_player_movement
     0000235B  A$lcc2270461$266                   map_player_movement
     0000235E  A$lcc2270461$267                   map_player_movement
     00002360  A$lcc2270461$268                   map_player_movement
     00002362  A$lcc2270461$272                   map_player_movement
     00002362  C$map_player_movement.c$54$3_0$1   map_player_movement
     00002363  A$lcc2270461$273                   map_player_movement
     00002366  A$lcc2270461$277                   map_player_movement
     00002366  C$map_player_movement.c$55$3_0$1   map_player_movement
     00002369  A$lcc2270461$278                   map_player_movement
     0000236B  A$lcc2270461$279                   map_player_movement
     0000236C  A$lcc2270461$280                   map_player_movement
     0000236F  A$lcc2270461$281                   map_player_movement
     00002370  A$lcc2270461$282                   map_player_movement
     00002372  A$lcc2270461$283                   map_player_movement
     00002373  A$lcc2270461$284                   map_player_movement
     00002374  A$lcc2270461$285                   map_player_movement
     00002375  A$lcc2270461$286                   map_player_movement
     00002376  A$lcc2270461$287                   map_player_movement
     00002377  A$lcc2270461$288                   map_player_movement
     00002378  A$lcc2270461$289                   map_player_movement
     00002379  A$lcc2270461$290                   map_player_movement
ASxxxx Linker V03.00/V05.40 + sdld,  page 87.
Hexadecimal  [32-Bits]

Area                                    Addr        Size        Decimal Bytes (Attributes)
--------------------------------        ----        ----        ------- ----- ------------
_CODE                               00000200    00002D3E =       11582. bytes (REL,CON)

      Value  Global                              Global Defined In Module
      -----  --------------------------------   ------------------------
     0000237A  A$lcc2270461$291                   map_player_movement
     0000237B  A$lcc2270461$292                   map_player_movement
     0000237E  A$lcc2270461$293                   map_player_movement
     0000237F  A$lcc2270461$294                   map_player_movement
     00002380  A$lcc2270461$295                   map_player_movement
     00002381  A$lcc2270461$296                   map_player_movement
     00002383  A$lcc2270461$297                   map_player_movement
     00002384  A$lcc2270461$298                   map_player_movement
     00002387  A$lcc2270461$303                   map_player_movement
     00002387  C$map_player_movement.c$58$2_0$1   map_player_movement
     0000238A  A$lcc2270461$304                   map_player_movement
     0000238C  A$lcc2270461$305                   map_player_movement
     0000238E  A$lcc2270461$306                   map_player_movement
     00002391  A$lcc2270461$307                   map_player_movement
     00002393  A$lcc2270461$308                   map_player_movement
     00002395  A$lcc2270461$312                   map_player_movement
     00002395  C$map_player_movement.c$60$3_0$1   map_player_movement
     00002396  A$lcc2270461$313                   map_player_movement
     00002399  A$lcc2270461$317                   map_player_movement
     00002399  C$map_player_movement.c$61$3_0$1   map_player_movement
     0000239C  A$lcc2270461$318                   map_player_movement
     0000239E  A$lcc2270461$319                   map_player_movement
     0000239F  A$lcc2270461$320                   map_player_movement
     000023A2  A$lcc2270461$321                   map_player_movement
     000023A3  A$lcc2270461$322                   map_player_movement
     000023A5  A$lcc2270461$323                   map_player_movement
     000023A6  A$lcc2270461$324                   map_player_movement
     000023A7  A$lcc2270461$325                   map_player_movement
     000023A8  A$lcc2270461$326                   map_player_movement
     000023A9  A$lcc2270461$327                   map_player_movement
     000023AA  A$lcc2270461$328                   map_player_movement
     000023AB  A$lcc2270461$329                   map_player_movement
     000023AC  A$lcc2270461$330                   map_player_movement
     000023AD  A$lcc2270461$331                   map_player_movement
     000023AE  A$lcc2270461$332                   map_player_movement
     000023B1  A$lcc2270461$333                   map_player_movement
     000023B2  A$lcc2270461$334                   map_player_movement
     000023B3  A$lcc2270461$335                   map_player_movement
     000023B4  A$lcc2270461$336                   map_player_movement
     000023B6  A$lcc2270461$337                   map_player_movement
     000023B7  A$lcc2270461$338                   map_player_movement
     000023BA  A$lcc2270461$343                   map_player_movement
     000023BA  C$map_player_movement.c$12$2_0$1   map_player_movement
     000023BD  A$lcc2270461$344                   map_player_movement
     000023BE  A$lcc2270461$348                   map_player_movement
     000023BE  C$map_player_movement.c$64$2_0$1   map_player_movement
     000023C1  A$lcc2270461$349                   map_player_movement
     000023C3  A$lcc2270461$350                   map_player_movement
     000023C5  A$lcc2270461$351                   map_player_movement
     000023C7  A$lcc2270461$352                   map_player_movement
     000023C9  A$lcc2270461$356                   map_player_movement
ASxxxx Linker V03.00/V05.40 + sdld,  page 88.
Hexadecimal  [32-Bits]

Area                                    Addr        Size        Decimal Bytes (Attributes)
--------------------------------        ----        ----        ------- ----- ------------
_CODE                               00000200    00002D3E =       11582. bytes (REL,CON)

      Value  Global                              Global Defined In Module
      -----  --------------------------------   ------------------------
     000023C9  C$map_player_movement.c$65$2_0$1   map_player_movement
     000023CA  A$lcc2270461$357                   map_player_movement
     000023CD  A$lcc2270461$362                   map_player_movement
     000023CD  C$map_player_movement.c$66$2_0$1   map_player_movement
     000023D0  A$lcc2270461$363                   map_player_movement
     000023D2  A$lcc2270461$364                   map_player_movement
     000023D4  A$lcc2270461$365                   map_player_movement
     000023D6  A$lcc2270461$366                   map_player_movement
     000023D8  A$lcc2270461$370                   map_player_movement
     000023D8  C$map_player_movement.c$67$2_0$1   map_player_movement
     000023D9  A$lcc2270461$371                   map_player_movement
     000023DC  A$lcc2270461$376                   map_player_movement
     000023DD  A$lcc2270461$381                   map_player_movement
     000023DD  C$map_player_movement.c$68$2_0$1   map_player_movement
     000023DD  XG$Map_PlayerMovement$0$0          map_player_movement
     000023DE  A$lcc2270462$61                    map_00
     000023DE  C$map_00.c$6$0_0$34                map_00
     000023DE  C$map_00.c$8$1_0$34                map_00
     000023DE  G$Map_00_Create$0$0                map_00
     000023DE  _Map_00_Create                     map_00
     000023E1  A$lcc2270462$62                    map_00
     000023E3  A$lcc2270462$63                    map_00
     000023E4  A$lcc2270462$64                    map_00
     000023E6  A$lcc2270462$68                    map_00
     000023E6  C$map_00.c$9$1_0$34                map_00
     000023E7  A$lcc2270462$69                    map_00
     000023E9  A$lcc2270462$70                    map_00
     000023EA  A$lcc2270462$71                    map_00
     000023EC  A$lcc2270462$75                    map_00
     000023EC  C$map_00.c$10$1_0$34               map_00
     000023EF  A$lcc2270462$76                    map_00
     000023F1  A$lcc2270462$80                    map_00
     000023F1  C$map_00.c$11$1_0$34               map_00
     000023F4  A$lcc2270462$81                    map_00
     000023F5  A$lcc2270462$82                    map_00
     000023F6  A$lcc2270462$83                    map_00
     000023F7  A$lcc2270462$91                    map_00
     000023F7  C$map_00.c$12$1_0$34               map_00
     000023F7  XG$Map_00_Create$0$0               map_00
     000023F8  G$map_00_example_collision$0_0$0   map_00_collision
     000023F8  _map_00_example_collision          map_00_collision
     00002560  A$lcc2270464$63                    map_00_init
     00002560  C$map_00_init.c$21$0_0$171         map_00_init
     00002560  C$map_00_init.c$22$2_0$172         map_00_init
     00002560  G$hello_event$0$0                  map_00_init
     00002560  _hello_event                       map_00_init
     00002563  A$lcc2270464$64                    map_00_init
     00002564  A$lcc2270464$65                    map_00_init
     00002565  A$lcc2270464$66                    map_00_init
     00002566  A$lcc2270464$73                    map_00_init
     00002566  C$map_00_init.c$23$2_0$172         map_00_init
ASxxxx Linker V03.00/V05.40 + sdld,  page 89.
Hexadecimal  [32-Bits]

Area                                    Addr        Size        Decimal Bytes (Attributes)
--------------------------------        ----        ----        ------- ----- ------------
_CODE                               00000200    00002D3E =       11582. bytes (REL,CON)

      Value  Global                              Global Defined In Module
      -----  --------------------------------   ------------------------
     00002566  C$map_00_init.c$25$1_0$171         map_00_init
     00002568  A$lcc2270464$74                    map_00_init
     00002569  A$lcc2270464$78                    map_00_init
     00002569  C$map_00_init.c$26$1_0$171         map_00_init
     0000256B  A$lcc2270464$79                    map_00_init
     0000256C  A$lcc2270464$80                    map_00_init
     0000256D  A$lcc2270464$81                    map_00_init
     0000256E  A$lcc2270464$82                    map_00_init
     0000256F  A$lcc2270464$83                    map_00_init
     00002570  A$lcc2270464$84                    map_00_init
     00002572  A$lcc2270464$85                    map_00_init
     00002575  A$lcc2270464$86                    map_00_init
     00002578  A$lcc2270464$94                    map_00_init
     00002578  C$map_00_init.c$27$1_0$171         map_00_init
     00002578  XG$hello_event$0$0                 map_00_init
     00002579  A$lcc2270464$107                   map_00_init
     00002579  C$map_00_init.c$29$1_0$174         map_00_init
     00002579  C$map_00_init.c$30$1_0$174         map_00_init
     00002579  G$Map_00_Init$0$0                  map_00_init
     00002579  _Map_00_Init                       map_00_init
     0000257A  A$lcc2270464$108                   map_00_init
     0000257D  A$lcc2270464$109                   map_00_init
     0000257E  A$lcc2270464$113                   map_00_init
     0000257E  C$map_00_init.c$32$1_0$174         map_00_init
     00002581  A$lcc2270464$114                   map_00_init
     00002582  A$lcc2270464$115                   map_00_init
     00002584  A$lcc2270464$116                   map_00_init
     00002587  A$lcc2270464$117                   map_00_init
     00002588  A$lcc2270464$118                   map_00_init
     0000258B  A$lcc2270464$119                   map_00_init
     0000258C  A$lcc2270464$123                   map_00_init
     0000258C  C$map_00_init.c$33$1_0$174         map_00_init
     0000258F  A$lcc2270464$124                   map_00_init
     00002592  A$lcc2270464$125                   map_00_init
     00002593  A$lcc2270464$129                   map_00_init
     00002593  C$map_00_init.c$34$1_0$174         map_00_init
     00002596  A$lcc2270464$130                   map_00_init
     00002598  A$lcc2270464$131                   map_00_init
     00002599  A$lcc2270464$132                   map_00_init
     0000259B  A$lcc2270464$136                   map_00_init
     0000259B  C$map_00_init.c$35$1_0$174         map_00_init
     0000259E  A$lcc2270464$137                   map_00_init
     000025A0  A$lcc2270464$141                   map_00_init
     000025A0  C$map_00_init.c$36$1_0$174         map_00_init
     000025A1  A$lcc2270464$142                   map_00_init
     000025A2  A$lcc2270464$143                   map_00_init
     000025A4  A$lcc2270464$147                   map_00_init
     000025A4  C$map_00_init.c$38$1_0$174         map_00_init
     000025A7  A$lcc2270464$148                   map_00_init
     000025A9  A$lcc2270464$152                   map_00_init
     000025A9  C$map_00_init.c$39$1_0$174         map_00_init
ASxxxx Linker V03.00/V05.40 + sdld,  page 90.
Hexadecimal  [32-Bits]

Area                                    Addr        Size        Decimal Bytes (Attributes)
--------------------------------        ----        ----        ------- ----- ------------
_CODE                               00000200    00002D3E =       11582. bytes (REL,CON)

      Value  Global                              Global Defined In Module
      -----  --------------------------------   ------------------------
     000025AC  A$lcc2270464$153                   map_00_init
     000025AE  A$lcc2270464$154                   map_00_init
     000025AF  A$lcc2270464$155                   map_00_init
     000025B1  A$lcc2270464$159                   map_00_init
     000025B1  C$map_00_init.c$40$1_0$174         map_00_init
     000025B4  A$lcc2270464$160                   map_00_init
     000025B6  A$lcc2270464$164                   map_00_init
     000025B6  C$map_00_init.c$42$1_0$174         map_00_init
     000025B9  A$lcc2270464$165                   map_00_init
     000025BA  A$lcc2270464$166                   map_00_init
     000025BC  A$lcc2270464$167                   map_00_init
     000025BD  A$lcc2270464$168                   map_00_init
     000025BF  A$lcc2270464$172                   map_00_init
     000025BF  C$map_00_init.c$44$1_0$174         map_00_init
     000025C0  A$lcc2270464$173                   map_00_init
     000025C1  A$lcc2270464$174                   map_00_init
     000025C4  A$lcc2270464$178                   map_00_init
     000025C4  C$map_00_init.c$45$1_0$174         map_00_init
     000025C7  A$lcc2270464$182                   map_00_init
     000025C7  C$map_00_init.c$47$2_0$175         map_00_init
     000025C9  A$lcc2270464$183                   map_00_init
     000025CA  A$lcc2270464$187                   map_00_init
     000025CA  C$map_00_init.c$48$1_1$175         map_00_init
     000025CC  A$lcc2270464$188                   map_00_init
     000025CE  A$lcc2270464$189                   map_00_init
     000025D1  A$lcc2270464$190                   map_00_init
     000025D3  A$lcc2270464$194                   map_00_init
     000025D3  C$map_00_init.c$50$1_1$175         map_00_init
     000025D6  A$lcc2270464$195                   map_00_init
     000025D7  A$lcc2270464$196                   map_00_init
     000025DA  A$lcc2270464$197                   map_00_init
     000025DB  A$lcc2270464$198                   map_00_init
     000025DE  A$lcc2270464$199                   map_00_init
     000025E0  A$lcc2270464$203                   map_00_init
     000025E0  C$map_00_init.c$51$1_1$175         map_00_init
     000025E3  A$lcc2270464$204                   map_00_init
     000025E4  A$lcc2270464$205                   map_00_init
     000025E7  A$lcc2270464$206                   map_00_init
     000025E8  A$lcc2270464$207                   map_00_init
     000025E9  A$lcc2270464$208                   map_00_init
     000025EA  A$lcc2270464$209                   map_00_init
     000025EB  A$lcc2270464$210                   map_00_init
     000025EE  A$lcc2270464$211                   map_00_init
     000025F0  A$lcc2270464$215                   map_00_init
     000025F0  C$map_00_init.c$53$1_1$175         map_00_init
     000025F1  A$lcc2270464$216                   map_00_init
     000025F3  A$lcc2270464$217                   map_00_init
     000025F6  A$lcc2270464$218                   map_00_init
     000025F7  A$lcc2270464$222                   map_00_init
     000025F7  C$map_00_init.c$55$1_1$175         map_00_init
     000025FA  A$lcc2270464$223                   map_00_init
ASxxxx Linker V03.00/V05.40 + sdld,  page 91.
Hexadecimal  [32-Bits]

Area                                    Addr        Size        Decimal Bytes (Attributes)
--------------------------------        ----        ----        ------- ----- ------------
_CODE                               00000200    00002D3E =       11582. bytes (REL,CON)

      Value  Global                              Global Defined In Module
      -----  --------------------------------   ------------------------
     000025FD  A$lcc2270464$227                   map_00_init
     000025FD  C$map_00_init.c$56$1_1$175         map_00_init
     00002600  A$lcc2270464$235                   map_00_init
     00002600  C$map_00_init.c$57$1_1$174         map_00_init
     00002600  XG$Map_00_Init$0$0                 map_00_init
     00002603  A$lcc2270465$56                    map_00_init_dialogues
     00002603  C$map_00_init_dialogues.c$11$1_0   map_00_init_dialogues
     00002603  C$map_00_init_dialogues.c$9$0_0$   map_00_init_dialogues
     00002603  G$Map_00_InitDialogues$0$0         map_00_init_dialogues
     00002603  _Map_00_InitDialogues              map_00_init_dialogues
     00002606  A$lcc2270465$57                    map_00_init_dialogues
     00002608  A$lcc2270465$58                    map_00_init_dialogues
     00002609  A$lcc2270465$59                    map_00_init_dialogues
     0000260B  A$lcc2270465$67                    map_00_init_dialogues
     0000260B  C$map_00_init_dialogues.c$12$1_0   map_00_init_dialogues
     0000260B  XG$Map_00_InitDialogues$0$0        map_00_init_dialogues
     0000260C  G$dialogue_00$0_0$0                map_00_init_dialogues
     0000260C  _dialogue_00                       map_00_init_dialogues
     00002750  A$lcc2270466$53                    map_00_init_npc
     00002750  C$map_00_init_npc.c$12$0_0$167     map_00_init_npc
     00002750  G$Map_00_NPC_Init$0$0              map_00_init_npc
     00002750  _Map_00_NPC_Init                   map_00_init_npc
     00002752  A$lcc2270466$57                    map_00_init_npc
     00002752  C$map_00_init_npc.c$14$1_0$167     map_00_init_npc
     00002755  A$lcc2270466$58                    map_00_init_npc
     00002756  A$lcc2270466$59                    map_00_init_npc
     00002758  A$lcc2270466$60                    map_00_init_npc
     0000275B  A$lcc2270466$61                    map_00_init_npc
     0000275C  A$lcc2270466$62                    map_00_init_npc
     0000275E  A$lcc2270466$66                    map_00_init_npc
     0000275E  C$map_00_init_npc.c$15$1_0$167     map_00_init_npc
     00002761  A$lcc2270466$67                    map_00_init_npc
     00002762  A$lcc2270466$68                    map_00_init_npc
     00002764  A$lcc2270466$69                    map_00_init_npc
     00002767  A$lcc2270466$70                    map_00_init_npc
     00002768  A$lcc2270466$71                    map_00_init_npc
     0000276A  A$lcc2270466$75                    map_00_init_npc
     0000276A  C$map_00_init_npc.c$17$2_0$168     map_00_init_npc
     0000276C  A$lcc2270466$76                    map_00_init_npc
     0000276E  A$lcc2270466$77                    map_00_init_npc
     0000276F  A$lcc2270466$78                    map_00_init_npc
     00002771  A$lcc2270466$79                    map_00_init_npc
     00002772  A$lcc2270466$80                    map_00_init_npc
     00002774  A$lcc2270466$81                    map_00_init_npc
     00002775  A$lcc2270466$82                    map_00_init_npc
     00002777  A$lcc2270466$83                    map_00_init_npc
     00002778  A$lcc2270466$84                    map_00_init_npc
     0000277A  A$lcc2270466$85                    map_00_init_npc
     0000277B  A$lcc2270466$86                    map_00_init_npc
     0000277C  A$lcc2270466$87                    map_00_init_npc
     0000277D  A$lcc2270466$88                    map_00_init_npc
ASxxxx Linker V03.00/V05.40 + sdld,  page 92.
Hexadecimal  [32-Bits]

Area                                    Addr        Size        Decimal Bytes (Attributes)
--------------------------------        ----        ----        ------- ----- ------------
_CODE                               00000200    00002D3E =       11582. bytes (REL,CON)

      Value  Global                              Global Defined In Module
      -----  --------------------------------   ------------------------
     0000277E  A$lcc2270466$89                    map_00_init_npc
     0000277F  A$lcc2270466$90                    map_00_init_npc
     00002780  A$lcc2270466$91                    map_00_init_npc
     00002781  A$lcc2270466$95                    map_00_init_npc
     00002784  A$lcc2270466$96                    map_00_init_npc
     00002785  A$lcc2270466$98                    map_00_init_npc
     00002788  A$lcc2270466$99                    map_00_init_npc
     00002789  A$lcc2270466$100                   map_00_init_npc
     0000278A  A$lcc2270466$101                   map_00_init_npc
     0000278B  A$lcc2270466$102                   map_00_init_npc
     0000278D  A$lcc2270466$103                   map_00_init_npc
     0000278E  A$lcc2270466$104                   map_00_init_npc
     0000278F  A$lcc2270466$105                   map_00_init_npc
     00002791  A$lcc2270466$109                   map_00_init_npc
     00002791  C$map_00_init_npc.c$19$2_1$169     map_00_init_npc
     00002794  A$lcc2270466$110                   map_00_init_npc
     00002795  A$lcc2270466$111                   map_00_init_npc
     00002797  A$lcc2270466$112                   map_00_init_npc
     00002798  A$lcc2270466$113                   map_00_init_npc
     00002799  A$lcc2270466$114                   map_00_init_npc
     0000279A  A$lcc2270466$115                   map_00_init_npc
     0000279B  A$lcc2270466$116                   map_00_init_npc
     0000279C  A$lcc2270466$117                   map_00_init_npc
     0000279D  A$lcc2270466$118                   map_00_init_npc
     0000279E  A$lcc2270466$119                   map_00_init_npc
     0000279F  A$lcc2270466$120                   map_00_init_npc
     000027A1  A$lcc2270466$121                   map_00_init_npc
     000027A2  A$lcc2270466$122                   map_00_init_npc
     000027A3  A$lcc2270466$123                   map_00_init_npc
     000027A4  A$lcc2270466$124                   map_00_init_npc
     000027A6  A$lcc2270466$125                   map_00_init_npc
     000027A7  A$lcc2270466$126                   map_00_init_npc
     000027A8  A$lcc2270466$127                   map_00_init_npc
     000027A9  A$lcc2270466$128                   map_00_init_npc
     000027AA  A$lcc2270466$129                   map_00_init_npc
     000027AD  A$lcc2270466$130                   map_00_init_npc
     000027AE  A$lcc2270466$131                   map_00_init_npc
     000027AF  A$lcc2270466$132                   map_00_init_npc
     000027B0  A$lcc2270466$133                   map_00_init_npc
     000027B2  A$lcc2270466$134                   map_00_init_npc
     000027B3  A$lcc2270466$135                   map_00_init_npc
     000027B4  A$lcc2270466$136                   map_00_init_npc
     000027B5  A$lcc2270466$140                   map_00_init_npc
     000027B5  C$map_00_init_npc.c$18$2_1$169     map_00_init_npc
     000027B6  A$lcc2270466$141                   map_00_init_npc
     000027B8  A$lcc2270466$146                   map_00_init_npc
     000027B8  C$map_00_init_npc.c$21$1_1$168     map_00_init_npc
     000027BB  A$lcc2270466$147                   map_00_init_npc
     000027BC  A$lcc2270466$148                   map_00_init_npc
     000027BD  A$lcc2270466$149                   map_00_init_npc
     000027BF  A$lcc2270466$150                   map_00_init_npc
ASxxxx Linker V03.00/V05.40 + sdld,  page 93.
Hexadecimal  [32-Bits]

Area                                    Addr        Size        Decimal Bytes (Attributes)
--------------------------------        ----        ----        ------- ----- ------------
_CODE                               00000200    00002D3E =       11582. bytes (REL,CON)

      Value  Global                              Global Defined In Module
      -----  --------------------------------   ------------------------
     000027C2  A$lcc2270466$151                   map_00_init_npc
     000027C3  A$lcc2270466$152                   map_00_init_npc
     000027C6  A$lcc2270466$153                   map_00_init_npc
     000027C8  A$lcc2270466$154                   map_00_init_npc
     000027C9  A$lcc2270466$155                   map_00_init_npc
     000027CB  A$lcc2270466$156                   map_00_init_npc
     000027CD  A$lcc2270466$157                   map_00_init_npc
     000027CE  A$lcc2270466$158                   map_00_init_npc
     000027CF  A$lcc2270466$159                   map_00_init_npc
     000027D0  A$lcc2270466$160                   map_00_init_npc
     000027D1  A$lcc2270466$161                   map_00_init_npc
     000027D2  A$lcc2270466$162                   map_00_init_npc
     000027D3  A$lcc2270466$166                   map_00_init_npc
     000027D3  C$map_00_init_npc.c$22$1_1$168     map_00_init_npc
     000027D6  A$lcc2270466$167                   map_00_init_npc
     000027D7  A$lcc2270466$168                   map_00_init_npc
     000027D8  A$lcc2270466$169                   map_00_init_npc
     000027DA  A$lcc2270466$170                   map_00_init_npc
     000027DD  A$lcc2270466$171                   map_00_init_npc
     000027DE  A$lcc2270466$172                   map_00_init_npc
     000027E1  A$lcc2270466$173                   map_00_init_npc
     000027E3  A$lcc2270466$174                   map_00_init_npc
     000027E4  A$lcc2270466$175                   map_00_init_npc
     000027E6  A$lcc2270466$176                   map_00_init_npc
     000027E8  A$lcc2270466$177                   map_00_init_npc
     000027E9  A$lcc2270466$178                   map_00_init_npc
     000027EA  A$lcc2270466$179                   map_00_init_npc
     000027EB  A$lcc2270466$180                   map_00_init_npc
     000027EC  A$lcc2270466$181                   map_00_init_npc
     000027ED  A$lcc2270466$182                   map_00_init_npc
     000027EE  A$lcc2270466$186                   map_00_init_npc
     000027EE  C$map_00_init_npc.c$24$1_1$168     map_00_init_npc
     000027F1  A$lcc2270466$187                   map_00_init_npc
     000027F2  A$lcc2270466$188                   map_00_init_npc
     000027F4  A$lcc2270466$189                   map_00_init_npc
     000027F7  A$lcc2270466$190                   map_00_init_npc
     000027F8  A$lcc2270466$191                   map_00_init_npc
     000027FA  A$lcc2270466$195                   map_00_init_npc
     000027FA  C$map_00_init_npc.c$25$1_1$168     map_00_init_npc
     000027FD  A$lcc2270466$196                   map_00_init_npc
     000027FE  A$lcc2270466$197                   map_00_init_npc
     00002800  A$lcc2270466$198                   map_00_init_npc
     00002803  A$lcc2270466$199                   map_00_init_npc
     00002804  A$lcc2270466$200                   map_00_init_npc
     00002806  A$lcc2270466$204                   map_00_init_npc
     00002806  C$map_00_init_npc.c$26$1_1$168     map_00_init_npc
     00002809  A$lcc2270466$205                   map_00_init_npc
     0000280A  A$lcc2270466$206                   map_00_init_npc
     0000280C  A$lcc2270466$207                   map_00_init_npc
     0000280F  A$lcc2270466$208                   map_00_init_npc
     00002810  A$lcc2270466$209                   map_00_init_npc
ASxxxx Linker V03.00/V05.40 + sdld,  page 94.
Hexadecimal  [32-Bits]

Area                                    Addr        Size        Decimal Bytes (Attributes)
--------------------------------        ----        ----        ------- ----- ------------
_CODE                               00000200    00002D3E =       11582. bytes (REL,CON)

      Value  Global                              Global Defined In Module
      -----  --------------------------------   ------------------------
     00002812  A$lcc2270466$213                   map_00_init_npc
     00002812  C$map_00_init_npc.c$29$2_1$170     map_00_init_npc
     00002814  A$lcc2270466$214                   map_00_init_npc
     00002816  A$lcc2270466$215                   map_00_init_npc
     00002817  A$lcc2270466$216                   map_00_init_npc
     00002819  A$lcc2270466$217                   map_00_init_npc
     0000281A  A$lcc2270466$218                   map_00_init_npc
     0000281C  A$lcc2270466$219                   map_00_init_npc
     0000281D  A$lcc2270466$220                   map_00_init_npc
     0000281F  A$lcc2270466$221                   map_00_init_npc
     00002820  A$lcc2270466$222                   map_00_init_npc
     00002822  A$lcc2270466$223                   map_00_init_npc
     00002823  A$lcc2270466$224                   map_00_init_npc
     00002825  A$lcc2270466$225                   map_00_init_npc
     00002826  A$lcc2270466$226                   map_00_init_npc
     00002828  A$lcc2270466$227                   map_00_init_npc
     00002829  A$lcc2270466$228                   map_00_init_npc
     0000282B  A$lcc2270466$232                   map_00_init_npc
     0000282B  C$map_00_init_npc.c$35$1_2$170     map_00_init_npc
     0000282E  A$lcc2270466$233                   map_00_init_npc
     0000282F  A$lcc2270466$234                   map_00_init_npc
     00002831  A$lcc2270466$235                   map_00_init_npc
     00002832  A$lcc2270466$236                   map_00_init_npc
     00002833  A$lcc2270466$237                   map_00_init_npc
     00002834  A$lcc2270466$238                   map_00_init_npc
     00002835  A$lcc2270466$239                   map_00_init_npc
     00002836  A$lcc2270466$240                   map_00_init_npc
     00002837  A$lcc2270466$241                   map_00_init_npc
     00002838  A$lcc2270466$242                   map_00_init_npc
     00002839  A$lcc2270466$243                   map_00_init_npc
     0000283A  A$lcc2270466$244                   map_00_init_npc
     0000283D  A$lcc2270466$245                   map_00_init_npc
     0000283E  A$lcc2270466$246                   map_00_init_npc
     0000283F  A$lcc2270466$247                   map_00_init_npc
     00002840  A$lcc2270466$248                   map_00_init_npc
     00002843  A$lcc2270466$249                   map_00_init_npc
     00002844  A$lcc2270466$250                   map_00_init_npc
     00002846  A$lcc2270466$251                   map_00_init_npc
     00002847  A$lcc2270466$252                   map_00_init_npc
     00002848  A$lcc2270466$253                   map_00_init_npc
     0000284B  A$lcc2270466$254                   map_00_init_npc
     0000284C  A$lcc2270466$255                   map_00_init_npc
     0000284D  A$lcc2270466$256                   map_00_init_npc
     0000284E  A$lcc2270466$257                   map_00_init_npc
     0000284F  A$lcc2270466$258                   map_00_init_npc
     00002850  A$lcc2270466$259                   map_00_init_npc
     00002853  A$lcc2270466$260                   map_00_init_npc
     00002856  A$lcc2270466$264                   map_00_init_npc
     00002858  A$lcc2270466$269                   map_00_init_npc
     00002858  C$map_00_init_npc.c$36$1_2$167     map_00_init_npc
     00002858  XG$Map_00_NPC_Init$0$0             map_00_init_npc
ASxxxx Linker V03.00/V05.40 + sdld,  page 95.
Hexadecimal  [32-Bits]

Area                                    Addr        Size        Decimal Bytes (Attributes)
--------------------------------        ----        ----        ------- ----- ------------
_CODE                               00000200    00002D3E =       11582. bytes (REL,CON)

      Value  Global                              Global Defined In Module
      -----  --------------------------------   ------------------------
     00002859  A$lcc2270467$57                    map_00_update
     00002859  C$map_00_update.c$17$0_0$183       map_00_update
     00002859  G$Map_00_Update$0$0                map_00_update
     00002859  _Map_00_Update                     map_00_update
     0000285B  A$lcc2270467$58                    map_00_update
     0000285D  A$lcc2270467$59                    map_00_update
     0000285E  A$lcc2270467$60                    map_00_update
     0000285F  A$lcc2270467$61                    map_00_update
     00002860  A$lcc2270467$65                    map_00_update
     00002860  C$map_00_update.c$19$1_0$183       map_00_update
     00002863  A$lcc2270467$69                    map_00_update
     00002863  C$map_00_update.c$21$1_1$184       map_00_update
     00002865  A$lcc2270467$70                    map_00_update
     00002866  A$lcc2270467$71                    map_00_update
     00002867  A$lcc2270467$72                    map_00_update
     00002868  A$lcc2270467$73                    map_00_update
     0000286B  A$lcc2270467$74                    map_00_update
     0000286C  A$lcc2270467$75                    map_00_update
     0000286D  A$lcc2270467$76                    map_00_update
     0000286E  A$lcc2270467$77                    map_00_update
     00002870  A$lcc2270467$78                    map_00_update
     00002871  A$lcc2270467$79                    map_00_update
     00002872  A$lcc2270467$80                    map_00_update
     00002873  A$lcc2270467$81                    map_00_update
     00002875  A$lcc2270467$82                    map_00_update
     00002876  A$lcc2270467$83                    map_00_update
     00002877  A$lcc2270467$84                    map_00_update
     00002878  A$lcc2270467$85                    map_00_update
     00002879  A$lcc2270467$86                    map_00_update
     0000287A  A$lcc2270467$87                    map_00_update
     0000287B  A$lcc2270467$88                    map_00_update
     0000287C  A$lcc2270467$89                    map_00_update
     0000287D  A$lcc2270467$90                    map_00_update
     0000287E  A$lcc2270467$91                    map_00_update
     0000287F  A$lcc2270467$92                    map_00_update
     00002880  A$lcc2270467$93                    map_00_update
     00002881  A$lcc2270467$94                    map_00_update
     00002882  A$lcc2270467$98                    map_00_update
     00002885  A$lcc2270467$99                    map_00_update
     00002886  A$lcc2270467$100                   map_00_update
     00002887  A$lcc2270467$101                   map_00_update
     00002888  A$lcc2270467$102                   map_00_update
     00002889  A$lcc2270467$103                   map_00_update
     0000288A  A$lcc2270467$104                   map_00_update
     0000288C  A$lcc2270467$105                   map_00_update
     0000288D  A$lcc2270467$106                   map_00_update
     0000288E  A$lcc2270467$108                   map_00_update
     0000288F  A$lcc2270467$109                   map_00_update
     00002890  A$lcc2270467$110                   map_00_update
     00002891  A$lcc2270467$111                   map_00_update
     00002892  A$lcc2270467$112                   map_00_update
ASxxxx Linker V03.00/V05.40 + sdld,  page 96.
Hexadecimal  [32-Bits]

Area                                    Addr        Size        Decimal Bytes (Attributes)
--------------------------------        ----        ----        ------- ----- ------------
_CODE                               00000200    00002D3E =       11582. bytes (REL,CON)

      Value  Global                              Global Defined In Module
      -----  --------------------------------   ------------------------
     00002894  A$lcc2270467$113                   map_00_update
     00002896  A$lcc2270467$114                   map_00_update
     00002897  A$lcc2270467$115                   map_00_update
     00002898  A$lcc2270467$116                   map_00_update
     00002899  A$lcc2270467$117                   map_00_update
     0000289A  A$lcc2270467$118                   map_00_update
     0000289C  A$lcc2270467$122                   map_00_update
     0000289C  C$map_00_update.c$25$3_1$186       map_00_update
     0000289D  A$lcc2270467$123                   map_00_update
     0000289E  A$lcc2270467$124                   map_00_update
     0000289F  A$lcc2270467$125                   map_00_update
     000028A0  A$lcc2270467$126                   map_00_update
     000028A1  A$lcc2270467$127                   map_00_update
     000028A2  A$lcc2270467$128                   map_00_update
     000028A3  A$lcc2270467$129                   map_00_update
     000028A4  A$lcc2270467$130                   map_00_update
     000028A7  A$lcc2270467$131                   map_00_update
     000028A8  A$lcc2270467$135                   map_00_update
     000028A8  C$map_00_update.c$23$2_1$185       map_00_update
     000028AA  A$lcc2270467$136                   map_00_update
     000028AB  A$lcc2270467$137                   map_00_update
     000028AD  A$lcc2270467$138                   map_00_update
     000028AE  A$lcc2270467$139                   map_00_update
     000028AF  A$lcc2270467$140                   map_00_update
     000028B1  A$lcc2270467$145                   map_00_update
     000028B1  C$map_00_update.c$28$1_1$184       map_00_update
     000028B2  A$lcc2270467$146                   map_00_update
     000028B5  A$lcc2270467$147                   map_00_update
     000028B8  A$lcc2270467$148                   map_00_update
     000028B9  A$lcc2270467$152                   map_00_update
     000028B9  C$map_00_update.c$29$1_1$184       map_00_update
     000028BA  A$lcc2270467$153                   map_00_update
     000028BB  A$lcc2270467$154                   map_00_update
     000028BC  A$lcc2270467$155                   map_00_update
     000028BD  A$lcc2270467$156                   map_00_update
     000028C0  A$lcc2270467$160                   map_00_update
     000028C0  C$map_00_update.c$31$1_1$184       map_00_update
     000028C2  A$lcc2270467$161                   map_00_update
     000028C3  A$lcc2270467$162                   map_00_update
     000028C4  A$lcc2270467$163                   map_00_update
     000028C5  A$lcc2270467$164                   map_00_update
     000028C8  A$lcc2270467$168                   map_00_update
     000028C8  C$map_00_update.c$33$2_1$187       map_00_update
     000028CB  A$lcc2270467$169                   map_00_update
     000028CD  A$lcc2270467$170                   map_00_update
     000028CF  A$lcc2270467$171                   map_00_update
     000028D2  A$lcc2270467$172                   map_00_update
     000028D4  A$lcc2270467$173                   map_00_update
     000028D6  A$lcc2270467$177                   map_00_update
     000028D6  C$map_00_update.c$35$3_1$188       map_00_update
     000028D8  A$lcc2270467$178                   map_00_update
ASxxxx Linker V03.00/V05.40 + sdld,  page 97.
Hexadecimal  [32-Bits]

Area                                    Addr        Size        Decimal Bytes (Attributes)
--------------------------------        ----        ----        ------- ----- ------------
_CODE                               00000200    00002D3E =       11582. bytes (REL,CON)

      Value  Global                              Global Defined In Module
      -----  --------------------------------   ------------------------
     000028DB  A$lcc2270467$179                   map_00_update
     000028DC  A$lcc2270467$180                   map_00_update
     000028DE  A$lcc2270467$184                   map_00_update
     000028DE  C$map_00_update.c$36$3_1$188       map_00_update
     000028E0  A$lcc2270467$185                   map_00_update
     000028E1  A$lcc2270467$186                   map_00_update
     000028E2  A$lcc2270467$190                   map_00_update
     000028E2  C$map_00_update.c$38$5_1$190       map_00_update
     000028E5  A$lcc2270467$192                   map_00_update
     000028E6  A$lcc2270467$193                   map_00_update
     000028E8  A$lcc2270467$194                   map_00_update
     000028EA  A$lcc2270467$198                   map_00_update
     000028EA  C$map_00_update.c$40$5_1$190       map_00_update
     000028EB  A$lcc2270467$199                   map_00_update
     000028EE  A$lcc2270467$200                   map_00_update
     000028EF  A$lcc2270467$201                   map_00_update
     000028F0  A$lcc2270467$202                   map_00_update
     000028F3  A$lcc2270467$203                   map_00_update
     000028F4  A$lcc2270467$204                   map_00_update
     000028F5  A$lcc2270467$205                   map_00_update
     000028F8  A$lcc2270467$206                   map_00_update
     000028F9  A$lcc2270467$210                   map_00_update
     000028F9  C$map_00_update.c$41$5_1$190       map_00_update
     000028FA  A$lcc2270467$211                   map_00_update
     000028FB  A$lcc2270467$212                   map_00_update
     000028FC  A$lcc2270467$213                   map_00_update
     000028FD  A$lcc2270467$214                   map_00_update
     00002900  A$lcc2270467$215                   map_00_update
     00002901  A$lcc2270467$216                   map_00_update
     00002902  A$lcc2270467$217                   map_00_update
     00002903  A$lcc2270467$218                   map_00_update
     00002905  A$lcc2270467$219                   map_00_update
     00002906  A$lcc2270467$220                   map_00_update
     00002907  A$lcc2270467$221                   map_00_update
     00002909  A$lcc2270467$222                   map_00_update
     0000290A  A$lcc2270467$223                   map_00_update
     0000290B  A$lcc2270467$224                   map_00_update
     0000290C  A$lcc2270467$228                   map_00_update
     0000290C  C$map_00_update.c$38$4_1$189       map_00_update
     0000290D  A$lcc2270467$229                   map_00_update
     0000290F  A$lcc2270467$234                   map_00_update
     0000290F  C$map_00_update.c$44$3_1$188       map_00_update
     00002912  A$lcc2270467$235                   map_00_update
     00002915  A$lcc2270467$236                   map_00_update
     00002916  A$lcc2270467$237                   map_00_update
     00002917  A$lcc2270467$238                   map_00_update
     00002918  A$lcc2270467$239                   map_00_update
     00002919  A$lcc2270467$240                   map_00_update
     0000291A  A$lcc2270467$241                   map_00_update
     0000291B  A$lcc2270467$242                   map_00_update
     0000291C  A$lcc2270467$243                   map_00_update
ASxxxx Linker V03.00/V05.40 + sdld,  page 98.
Hexadecimal  [32-Bits]

Area                                    Addr        Size        Decimal Bytes (Attributes)
--------------------------------        ----        ----        ------- ----- ------------
_CODE                               00000200    00002D3E =       11582. bytes (REL,CON)

      Value  Global                              Global Defined In Module
      -----  --------------------------------   ------------------------
     0000291F  A$lcc2270467$244                   map_00_update
     00002921  A$lcc2270467$245                   map_00_update
     00002922  A$lcc2270467$246                   map_00_update
     00002924  A$lcc2270467$247                   map_00_update
     00002925  A$lcc2270467$248                   map_00_update
     00002926  A$lcc2270467$249                   map_00_update
     00002929  A$lcc2270467$257                   map_00_update
     00002929  C$map_00_update.c$47$1_1$184       map_00_update
     0000292B  A$lcc2270467$262                   map_00_update
     0000292B  C$map_00_update.c$48$1_1$183       map_00_update
     0000292B  XG$Map_00_Update$0$0               map_00_update
     0000292C  A$lcc2270468$56                    mg_player_movement
     0000292C  C$mg_player_movement.c$10$0_0$15   mg_player_movement
     0000292C  G$Mg_PlayerMovement$0$0            mg_player_movement
     0000292C  _Mg_PlayerMovement                 mg_player_movement
     0000292D  A$lcc2270468$60                    mg_player_movement
     0000292D  C$mg_player_movement.c$13$2_0$15   mg_player_movement
     00002930  A$lcc2270468$61                    mg_player_movement
     00002931  A$lcc2270468$62                    mg_player_movement
     00002933  A$lcc2270468$66                    mg_player_movement
     00002936  A$lcc2270468$67                    mg_player_movement
     00002938  A$lcc2270468$68                    mg_player_movement
     0000293A  A$lcc2270468$69                    mg_player_movement
     0000293B  A$lcc2270468$70                    mg_player_movement
     0000293C  A$lcc2270468$71                    mg_player_movement
     0000293E  A$lcc2270468$75                    mg_player_movement
     0000293E  C$mg_player_movement.c$16$4_0$15   mg_player_movement
     00002941  A$lcc2270468$76                    mg_player_movement
     00002943  A$lcc2270468$77                    mg_player_movement
     00002945  A$lcc2270468$82                    mg_player_movement
     00002945  C$mg_player_movement.c$17$5_0$15   mg_player_movement
     00002947  A$lcc2270468$83                    mg_player_movement
     00002949  A$lcc2270468$84                    mg_player_movement
     0000294A  A$lcc2270468$85                    mg_player_movement
     0000294B  A$lcc2270468$86                    mg_player_movement
     0000294D  A$lcc2270468$90                    mg_player_movement
     0000294D  C$mg_player_movement.c$18$5_0$15   mg_player_movement
     00002950  A$lcc2270468$91                    mg_player_movement
     00002952  A$lcc2270468$92                    mg_player_movement
     00002954  A$lcc2270468$97                    mg_player_movement
     00002954  C$mg_player_movement.c$19$6_0$15   mg_player_movement
     00002956  A$lcc2270468$98                    mg_player_movement
     00002958  A$lcc2270468$99                    mg_player_movement
     00002959  A$lcc2270468$100                   mg_player_movement
     0000295A  A$lcc2270468$101                   mg_player_movement
     0000295C  A$lcc2270468$105                   mg_player_movement
     0000295C  C$mg_player_movement.c$20$6_0$15   mg_player_movement
     0000295F  A$lcc2270468$106                   mg_player_movement
     00002961  A$lcc2270468$107                   mg_player_movement
     00002963  A$lcc2270468$112                   mg_player_movement
     00002963  C$mg_player_movement.c$21$7_0$15   mg_player_movement
ASxxxx Linker V03.00/V05.40 + sdld,  page 99.
Hexadecimal  [32-Bits]

Area                                    Addr        Size        Decimal Bytes (Attributes)
--------------------------------        ----        ----        ------- ----- ------------
_CODE                               00000200    00002D3E =       11582. bytes (REL,CON)

      Value  Global                              Global Defined In Module
      -----  --------------------------------   ------------------------
     00002964  A$lcc2270468$113                   mg_player_movement
     00002966  A$lcc2270468$114                   mg_player_movement
     00002967  A$lcc2270468$115                   mg_player_movement
     00002968  A$lcc2270468$116                   mg_player_movement
     0000296A  A$lcc2270468$120                   mg_player_movement
     0000296A  C$mg_player_movement.c$22$7_0$15   mg_player_movement
     0000296D  A$lcc2270468$121                   mg_player_movement
     0000296F  A$lcc2270468$126                   mg_player_movement
     0000296F  C$mg_player_movement.c$26$2_0$15   mg_player_movement
     00002972  A$lcc2270468$127                   mg_player_movement
     00002973  A$lcc2270468$128                   mg_player_movement
     00002975  A$lcc2270468$129                   mg_player_movement
     00002978  A$lcc2270468$130                   mg_player_movement
     0000297A  A$lcc2270468$131                   mg_player_movement
     0000297C  A$lcc2270468$132                   mg_player_movement
     0000297E  A$lcc2270468$133                   mg_player_movement
     00002980  A$lcc2270468$134                   mg_player_movement
     00002982  A$lcc2270468$135                   mg_player_movement
     00002984  A$lcc2270468$136                   mg_player_movement
     00002986  A$lcc2270468$144                   mg_player_movement
     00002986  C$mg_player_movement.c$28$3_0$16   mg_player_movement
     00002986  C$mg_player_movement.c$29$3_0$16   mg_player_movement
     00002989  A$lcc2270468$145                   mg_player_movement
     0000298C  A$lcc2270468$149                   mg_player_movement
     0000298C  C$mg_player_movement.c$30$3_0$16   mg_player_movement
     0000298E  A$lcc2270468$157                   mg_player_movement
     0000298E  C$mg_player_movement.c$31$3_0$16   mg_player_movement
     0000298E  C$mg_player_movement.c$32$3_0$16   mg_player_movement
     00002991  A$lcc2270468$158                   mg_player_movement
     00002994  A$lcc2270468$162                   mg_player_movement
     00002994  C$mg_player_movement.c$33$3_0$16   mg_player_movement
     00002996  A$lcc2270468$170                   mg_player_movement
     00002996  C$mg_player_movement.c$34$3_0$16   mg_player_movement
     00002996  C$mg_player_movement.c$35$3_0$16   mg_player_movement
     00002999  A$lcc2270468$171                   mg_player_movement
     0000299C  A$lcc2270468$175                   mg_player_movement
     0000299C  C$mg_player_movement.c$36$3_0$16   mg_player_movement
     0000299E  A$lcc2270468$183                   mg_player_movement
     0000299E  C$mg_player_movement.c$37$3_0$16   mg_player_movement
     0000299E  C$mg_player_movement.c$38$3_0$16   mg_player_movement
     000029A1  A$lcc2270468$184                   mg_player_movement
     000029A4  A$lcc2270468$192                   mg_player_movement
     000029A4  C$mg_player_movement.c$15$2_0$15   mg_player_movement
     000029A4  C$mg_player_movement.c$42$2_0$15   mg_player_movement
     000029A7  A$lcc2270468$193                   mg_player_movement
     000029A8  A$lcc2270468$197                   mg_player_movement
     000029A8  C$mg_player_movement.c$45$2_0$16   mg_player_movement
     000029AB  A$lcc2270468$198                   mg_player_movement
     000029AC  A$lcc2270468$199                   mg_player_movement
     000029AE  A$lcc2270468$200                   mg_player_movement
     000029B0  A$lcc2270468$201                   mg_player_movement
ASxxxx Linker V03.00/V05.40 + sdld,  page 100.
Hexadecimal  [32-Bits]

Area                                    Addr        Size        Decimal Bytes (Attributes)
--------------------------------        ----        ----        ------- ----- ------------
_CODE                               00000200    00002D3E =       11582. bytes (REL,CON)

      Value  Global                              Global Defined In Module
      -----  --------------------------------   ------------------------
     000029B2  A$lcc2270468$205                   mg_player_movement
     000029B2  C$mg_player_movement.c$46$2_0$16   mg_player_movement
     000029B3  A$lcc2270468$206                   mg_player_movement
     000029B6  A$lcc2270468$211                   mg_player_movement
     000029B6  C$mg_player_movement.c$48$2_0$16   mg_player_movement
     000029B9  A$lcc2270468$212                   mg_player_movement
     000029BB  A$lcc2270468$213                   mg_player_movement
     000029BD  A$lcc2270468$214                   mg_player_movement
     000029BF  A$lcc2270468$215                   mg_player_movement
     000029C1  A$lcc2270468$219                   mg_player_movement
     000029C1  C$mg_player_movement.c$49$2_0$16   mg_player_movement
     000029C2  A$lcc2270468$220                   mg_player_movement
     000029C5  A$lcc2270468$225                   mg_player_movement
     000029C5  C$mg_player_movement.c$51$2_0$16   mg_player_movement
     000029C8  A$lcc2270468$226                   mg_player_movement
     000029CA  A$lcc2270468$227                   mg_player_movement
     000029CC  A$lcc2270468$228                   mg_player_movement
     000029CE  A$lcc2270468$229                   mg_player_movement
     000029D0  A$lcc2270468$233                   mg_player_movement
     000029D0  C$mg_player_movement.c$52$2_0$16   mg_player_movement
     000029D1  A$lcc2270468$234                   mg_player_movement
     000029D4  A$lcc2270468$239                   mg_player_movement
     000029D4  C$mg_player_movement.c$54$2_0$16   mg_player_movement
     000029D7  A$lcc2270468$240                   mg_player_movement
     000029D9  A$lcc2270468$241                   mg_player_movement
     000029DA  A$lcc2270468$242                   mg_player_movement
     000029DC  A$lcc2270468$243                   mg_player_movement
     000029DD  A$lcc2270468$247                   mg_player_movement
     000029DD  C$mg_player_movement.c$55$2_0$16   mg_player_movement
     000029DE  A$lcc2270468$248                   mg_player_movement
     000029E1  A$lcc2270468$256                   mg_player_movement
     000029E1  C$mg_player_movement.c$56$2_0$15   mg_player_movement
     000029E1  XG$Mg_PlayerMovement$0$0           mg_player_movement
     000029E2  A$lcc2270469$70                    mg_timer
     000029E2  C$mg_timer.c$8$0_0$3               mg_timer
     000029E2  G$Mg_TimerStart$0$0                mg_timer
     000029E2  _Mg_TimerStart                     mg_timer
     000029E3  A$lcc2270469$71                    mg_timer
     000029E4  A$lcc2270469$75                    mg_timer
     000029E4  C$mg_timer.c$9$1_0$3               mg_timer
     000029E5  A$lcc2270469$76                    mg_timer
     000029E6  A$lcc2270469$77                    mg_timer
     000029E7  A$lcc2270469$78                    mg_timer
     000029E8  A$lcc2270469$79                    mg_timer
     000029E9  A$lcc2270469$80                    mg_timer
     000029EA  A$lcc2270469$81                    mg_timer
     000029EB  A$lcc2270469$82                    mg_timer
     000029EC  A$lcc2270469$83                    mg_timer
     000029ED  A$lcc2270469$84                    mg_timer
     000029EE  A$lcc2270469$85                    mg_timer
     000029EF  A$lcc2270469$86                    mg_timer
ASxxxx Linker V03.00/V05.40 + sdld,  page 101.
Hexadecimal  [32-Bits]

Area                                    Addr        Size        Decimal Bytes (Attributes)
--------------------------------        ----        ----        ------- ----- ------------
_CODE                               00000200    00002D3E =       11582. bytes (REL,CON)

      Value  Global                              Global Defined In Module
      -----  --------------------------------   ------------------------
     000029F0  A$lcc2270469$87                    mg_timer
     000029F3  A$lcc2270469$88                    mg_timer
     000029F4  A$lcc2270469$89                    mg_timer
     000029F5  A$lcc2270469$90                    mg_timer
     000029F6  A$lcc2270469$94                    mg_timer
     000029F6  C$mg_timer.c$10$1_0$3              mg_timer
     000029F9  A$lcc2270469$95                    mg_timer
     000029FB  A$lcc2270469$99                    mg_timer
     000029FB  C$mg_timer.c$11$1_0$3              mg_timer
     000029FC  A$lcc2270469$100                   mg_timer
     000029FF  A$lcc2270469$101                   mg_timer
     00002A00  A$lcc2270469$102                   mg_timer
     00002A01  A$lcc2270469$106                   mg_timer
     00002A01  C$mg_timer.c$12$1_0$3              mg_timer
     00002A02  A$lcc2270469$107                   mg_timer
     00002A05  A$lcc2270469$115                   mg_timer
     00002A05  C$mg_timer.c$13$1_0$3              mg_timer
     00002A05  XG$Mg_TimerStart$0$0               mg_timer
     00002A06  A$lcc2270469$128                   mg_timer
     00002A06  C$mg_timer.c$15$1_0$4              mg_timer
     00002A06  C$mg_timer.c$16$2_0$5              mg_timer
     00002A06  G$Mg_TimerUpdate$0$0               mg_timer
     00002A06  _Mg_TimerUpdate                    mg_timer
     00002A09  A$lcc2270469$129                   mg_timer
     00002A0A  A$lcc2270469$133                   mg_timer
     00002A0A  C$mg_timer.c$17$2_0$5              mg_timer
     00002A0B  A$lcc2270469$137                   mg_timer
     00002A0B  C$mg_timer.c$19$1_0$4              mg_timer
     00002A0E  A$lcc2270469$138                   mg_timer
     00002A0F  A$lcc2270469$139                   mg_timer
     00002A11  A$lcc2270469$140                   mg_timer
     00002A12  A$lcc2270469$141                   mg_timer
     00002A13  A$lcc2270469$146                   mg_timer
     00002A13  C$mg_timer.c$21$2_0$6              mg_timer
     00002A16  A$lcc2270469$147                   mg_timer
     00002A19  A$lcc2270469$148                   mg_timer
     00002A1A  A$lcc2270469$149                   mg_timer
     00002A1B  A$lcc2270469$150                   mg_timer
     00002A1C  A$lcc2270469$151                   mg_timer
     00002A1D  A$lcc2270469$152                   mg_timer
     00002A1E  A$lcc2270469$153                   mg_timer
     00002A1F  A$lcc2270469$154                   mg_timer
     00002A20  A$lcc2270469$158                   mg_timer
     00002A20  C$mg_timer.c$22$3_0$7              mg_timer
     00002A21  A$lcc2270469$159                   mg_timer
     00002A24  A$lcc2270469$163                   mg_timer
     00002A24  C$mg_timer.c$23$3_0$7              mg_timer
     00002A27  A$lcc2270469$164                   mg_timer
     00002A29  A$lcc2270469$172                   mg_timer
     00002A29  C$mg_timer.c$25$2_0$4              mg_timer
     00002A29  XG$Mg_TimerUpdate$0$0              mg_timer
ASxxxx Linker V03.00/V05.40 + sdld,  page 102.
Hexadecimal  [32-Bits]

Area                                    Addr        Size        Decimal Bytes (Attributes)
--------------------------------        ----        ----        ------- ----- ------------
_CODE                               00000200    00002D3E =       11582. bytes (REL,CON)

      Value  Global                              Global Defined In Module
      -----  --------------------------------   ------------------------
     00002A2A  A$lcc2270469$182                   mg_timer
     00002A2A  C$mg_timer.c$27$2_0$8              mg_timer
     00002A2A  G$Mg_TimerStopAlarm$0$0            mg_timer
     00002A2A  _Mg_TimerStopAlarm                 mg_timer
     00002A2B  A$lcc2270469$183                   mg_timer
     00002A2E  A$lcc2270469$188                   mg_timer
     00002A2E  C$mg_timer.c$27$1_0$8              mg_timer
     00002A2E  XG$Mg_TimerStopAlarm$0$0           mg_timer
     00002A2F  A$lcc2270470$54                    mini_games
     00002A2F  C$mini_games.c$9$0_0$149           mini_games
     00002A2F  G$Mg_SetTitle$0$0                  mini_games
     00002A2F  _Mg_SetTitle                       mini_games
     00002A30  A$lcc2270470$58                    mini_games
     00002A32  A$lcc2270470$60                    mini_games
     00002A33  A$lcc2270470$61                    mini_games
     00002A35  A$lcc2270470$62                    mini_games
     00002A36  A$lcc2270470$63                    mini_games
     00002A37  A$lcc2270470$64                    mini_games
     00002A38  A$lcc2270470$65                    mini_games
     00002A3A  A$lcc2270470$69                    mini_games
     00002A3A  C$mini_games.c$13$3_0$150          mini_games
     00002A3B  A$lcc2270470$70                    mini_games
     00002A3C  A$lcc2270470$71                    mini_games
     00002A3F  A$lcc2270470$72                    mini_games
     00002A40  A$lcc2270470$73                    mini_games
     00002A41  A$lcc2270470$74                    mini_games
     00002A42  A$lcc2270470$75                    mini_games
     00002A43  A$lcc2270470$76                    mini_games
     00002A45  A$lcc2270470$77                    mini_games
     00002A47  A$lcc2270470$78                    mini_games
     00002A48  A$lcc2270470$82                    mini_games
     00002A48  C$mini_games.c$14$3_0$150          mini_games
     00002A49  A$lcc2270470$83                    mini_games
     00002A4A  A$lcc2270470$84                    mini_games
     00002A4B  A$lcc2270470$85                    mini_games
     00002A4E  A$lcc2270470$86                    mini_games
     00002A4F  A$lcc2270470$87                    mini_games
     00002A50  A$lcc2270470$88                    mini_games
     00002A52  A$lcc2270470$89                    mini_games
     00002A53  A$lcc2270470$90                    mini_games
     00002A54  A$lcc2270470$91                    mini_games
     00002A56  A$lcc2270470$92                    mini_games
     00002A57  A$lcc2270470$93                    mini_games
     00002A58  A$lcc2270470$94                    mini_games
     00002A5A  A$lcc2270470$95                    mini_games
     00002A5B  A$lcc2270470$96                    mini_games
     00002A5C  A$lcc2270470$97                    mini_games
     00002A5D  A$lcc2270470$98                    mini_games
     00002A5E  A$lcc2270470$99                    mini_games
     00002A61  A$lcc2270470$100                   mini_games
     00002A63  A$lcc2270470$101                   mini_games
ASxxxx Linker V03.00/V05.40 + sdld,  page 103.
Hexadecimal  [32-Bits]

Area                                    Addr        Size        Decimal Bytes (Attributes)
--------------------------------        ----        ----        ------- ----- ------------
_CODE                               00000200    00002D3E =       11582. bytes (REL,CON)

      Value  Global                              Global Defined In Module
      -----  --------------------------------   ------------------------
     00002A64  A$lcc2270470$105                   mini_games
     00002A64  C$mini_games.c$11$2_0$149          mini_games
     00002A65  A$lcc2270470$106                   mini_games
     00002A67  A$lcc2270470$111                   mini_games
     00002A68  A$lcc2270470$116                   mini_games
     00002A68  C$mini_games.c$16$2_0$149          mini_games
     00002A68  XG$Mg_SetTitle$0$0                 mini_games
     00002A69  A$lcc2270471$61                    mg_leaves
     00002A69  C$mg_leaves.c$6$0_0$156            mg_leaves
     00002A69  C$mg_leaves.c$8$1_0$156            mg_leaves
     00002A69  G$Mg_Leaves_Create$0$0             mg_leaves
     00002A69  _Mg_Leaves_Create                  mg_leaves
     00002A6C  A$lcc2270471$62                    mg_leaves
     00002A6E  A$lcc2270471$63                    mg_leaves
     00002A6F  A$lcc2270471$64                    mg_leaves
     00002A71  A$lcc2270471$68                    mg_leaves
     00002A71  C$mg_leaves.c$9$1_0$156            mg_leaves
     00002A72  A$lcc2270471$69                    mg_leaves
     00002A74  A$lcc2270471$70                    mg_leaves
     00002A75  A$lcc2270471$71                    mg_leaves
     00002A77  A$lcc2270471$75                    mg_leaves
     00002A77  C$mg_leaves.c$10$1_0$156           mg_leaves
     00002A7A  A$lcc2270471$76                    mg_leaves
     00002A7C  A$lcc2270471$80                    mg_leaves
     00002A7C  C$mg_leaves.c$11$1_0$156           mg_leaves
     00002A7F  A$lcc2270471$81                    mg_leaves
     00002A80  A$lcc2270471$82                    mg_leaves
     00002A81  A$lcc2270471$83                    mg_leaves
     00002A82  A$lcc2270471$91                    mg_leaves
     00002A82  C$mg_leaves.c$12$1_0$156           mg_leaves
     00002A82  XG$Mg_Leaves_Create$0$0            mg_leaves
     00002A83  A$lcc2270473$57                    mg_leaves_load_bkg
     00002A83  C$mg_leaves_load_bkg.c$5$0_0$155   mg_leaves_load_bkg
     00002A83  C$mg_leaves_load_bkg.c$7$2_0$155   mg_leaves_load_bkg
     00002A83  G$Mg_Leaves_LoadBKG$0$0            mg_leaves_load_bkg
     00002A83  _Mg_Leaves_LoadBKG                 mg_leaves_load_bkg
     00002A85  A$lcc2270473$58                    mg_leaves_load_bkg
     00002A86  A$lcc2270473$62                    mg_leaves_load_bkg
     00002A86  C$mg_leaves_load_bkg.c$8$1_0$155   mg_leaves_load_bkg
     00002A88  A$lcc2270473$63                    mg_leaves_load_bkg
     00002A8A  A$lcc2270473$64                    mg_leaves_load_bkg
     00002A8D  A$lcc2270473$65                    mg_leaves_load_bkg
     00002A8F  A$lcc2270473$69                    mg_leaves_load_bkg
     00002A8F  C$mg_leaves_load_bkg.c$10$1_0$15   mg_leaves_load_bkg
     00002A92  A$lcc2270473$70                    mg_leaves_load_bkg
     00002A93  A$lcc2270473$71                    mg_leaves_load_bkg
     00002A96  A$lcc2270473$72                    mg_leaves_load_bkg
     00002A97  A$lcc2270473$73                    mg_leaves_load_bkg
     00002A9A  A$lcc2270473$74                    mg_leaves_load_bkg
     00002A9C  A$lcc2270473$78                    mg_leaves_load_bkg
     00002A9C  C$mg_leaves_load_bkg.c$11$1_0$15   mg_leaves_load_bkg
ASxxxx Linker V03.00/V05.40 + sdld,  page 104.
Hexadecimal  [32-Bits]

Area                                    Addr        Size        Decimal Bytes (Attributes)
--------------------------------        ----        ----        ------- ----- ------------
_CODE                               00000200    00002D3E =       11582. bytes (REL,CON)

      Value  Global                              Global Defined In Module
      -----  --------------------------------   ------------------------
     00002A9F  A$lcc2270473$79                    mg_leaves_load_bkg
     00002AA0  A$lcc2270473$80                    mg_leaves_load_bkg
     00002AA3  A$lcc2270473$81                    mg_leaves_load_bkg
     00002AA4  A$lcc2270473$82                    mg_leaves_load_bkg
     00002AA5  A$lcc2270473$83                    mg_leaves_load_bkg
     00002AA6  A$lcc2270473$84                    mg_leaves_load_bkg
     00002AA7  A$lcc2270473$85                    mg_leaves_load_bkg
     00002AAA  A$lcc2270473$86                    mg_leaves_load_bkg
     00002AAC  A$lcc2270473$90                    mg_leaves_load_bkg
     00002AAC  C$mg_leaves_load_bkg.c$13$1_0$15   mg_leaves_load_bkg
     00002AAD  A$lcc2270473$91                    mg_leaves_load_bkg
     00002AAF  A$lcc2270473$92                    mg_leaves_load_bkg
     00002AB2  A$lcc2270473$93                    mg_leaves_load_bkg
     00002AB3  A$lcc2270473$101                   mg_leaves_load_bkg
     00002AB3  C$mg_leaves_load_bkg.c$14$1_0$15   mg_leaves_load_bkg
     00002AB3  XG$Mg_Leaves_LoadBKG$0$0           mg_leaves_load_bkg
     00002AB4  A$lcc2270476$66                    main
     00002AB4  C$main.c$26$0_0$177                main
     00002AB4  C$main.c$28$1_0$177                main
     00002AB4  G$load_number_tiles$0$0            main
     00002AB4  _load_number_tiles                 main
     00002AB7  A$lcc2270476$67                    main
     00002AB8  A$lcc2270476$68                    main
     00002ABB  A$lcc2270476$69                    main
     00002ABC  A$lcc2270476$70                    main
     00002ABF  A$lcc2270476$71                    main
     00002AC1  A$lcc2270476$75                    main
     00002AC1  C$main.c$29$1_0$177                main
     00002AC4  A$lcc2270476$76                    main
     00002AC5  A$lcc2270476$77                    main
     00002AC8  A$lcc2270476$78                    main
     00002AC9  A$lcc2270476$79                    main
     00002ACC  A$lcc2270476$80                    main
     00002ACE  A$lcc2270476$88                    main
     00002ACE  C$main.c$30$1_0$177                main
     00002ACE  XG$load_number_tiles$0$0           main
     00002ACF  A$lcc2270476$101                   main
     00002ACF  C$main.c$32$1_0$179                main
     00002ACF  C$main.c$34$1_0$179                main
     00002ACF  G$main$0$0                         main
     00002ACF  _main                              main
     00002AD1  A$lcc2270476$102                   main
     00002AD3  A$lcc2270476$103                   main
     00002AD5  A$lcc2270476$107                   main
     00002AD5  C$main.c$35$1_0$179                main
     00002AD7  A$lcc2270476$108                   main
     00002AD9  A$lcc2270476$109                   main
     00002ADB  A$lcc2270476$113                   main
     00002ADB  C$main.c$44$1_1$180                main
     00002ADE  A$lcc2270476$114                   main
     00002AE0  A$lcc2270476$115                   main
ASxxxx Linker V03.00/V05.40 + sdld,  page 105.
Hexadecimal  [32-Bits]

Area                                    Addr        Size        Decimal Bytes (Attributes)
--------------------------------        ----        ----        ------- ----- ------------
_CODE                               00000200    00002D3E =       11582. bytes (REL,CON)

      Value  Global                              Global Defined In Module
      -----  --------------------------------   ------------------------
     00002AE1  A$lcc2270476$116                   main
     00002AE3  A$lcc2270476$120                   main
     00002AE3  C$main.c$46$1_1$180                main
     00002AE6  A$lcc2270476$124                   main
     00002AE6  C$main.c$48$1_1$180                main
     00002AE9  A$lcc2270476$128                   main
     00002AE9  C$main.c$49$1_1$180                main
     00002AEC  A$lcc2270476$132                   main
     00002AEC  C$main.c$52$1_2$181                main
     00002AEF  A$lcc2270476$133                   main
     00002AF2  A$lcc2270476$137                   main
     00002AF2  C$main.c$54$1_2$181                main
     00002AF5  A$lcc2270476$138                   main
     00002AF8  A$lcc2270476$139                   main
     00002AF9  A$lcc2270476$140                   main
     00002AFA  A$lcc2270476$141                   main
     00002AFB  A$lcc2270476$142                   main
     00002AFC  A$lcc2270476$143                   main
     00002AFD  A$lcc2270476$144                   main
     00002AFE  A$lcc2270476$145                   main
     00002AFF  A$lcc2270476$146                   main
     00002B02  A$lcc2270476$147                   main
     00002B04  A$lcc2270476$148                   main
     00002B05  A$lcc2270476$149                   main
     00002B06  A$lcc2270476$150                   main
     00002B07  A$lcc2270476$151                   main
     00002B08  A$lcc2270476$152                   main
     00002B0B  A$lcc2270476$156                   main
     00002B0B  C$main.c$56$1_2$181                main
     00002B0E  A$lcc2270476$161                   main
     00002B0E  C$main.c$58$1_2$181                main
     00002B11  A$lcc2270476$162                   main
     00002B12  A$lcc2270476$163                   main
     00002B13  A$lcc2270476$164                   main
     00002B14  A$lcc2270476$165                   main
     00002B15  A$lcc2270476$166                   main
     00002B16  A$lcc2270476$167                   main
     00002B17  A$lcc2270476$171                   main
     00002B17  C$main.c$60$2_2$182                main
     00002B1A  A$lcc2270476$175                   main
     00002B1A  C$main.c$62$2_2$182                main
     00002B1D  A$lcc2270476$176                   main
     00002B20  A$lcc2270476$180                   main
     00002B20  C$main.c$63$2_2$182                main
     00002B23  A$lcc2270476$181                   main
     00002B26  A$lcc2270476$185                   main
     00002B26  C$main.c$65$3_2$183                main
     00002B28  A$lcc2270476$186                   main
     00002B29  A$lcc2270476$190                   main
     00002B29  C$main.c$66$3_3$184                main
     00002B2C  A$lcc2270476$191                   main
ASxxxx Linker V03.00/V05.40 + sdld,  page 106.
Hexadecimal  [32-Bits]

Area                                    Addr        Size        Decimal Bytes (Attributes)
--------------------------------        ----        ----        ------- ----- ------------
_CODE                               00000200    00002D3E =       11582. bytes (REL,CON)

      Value  Global                              Global Defined In Module
      -----  --------------------------------   ------------------------
     00002B2D  A$lcc2270476$192                   main
     00002B2E  A$lcc2270476$193                   main
     00002B2F  A$lcc2270476$194                   main
     00002B32  A$lcc2270476$195                   main
     00002B33  A$lcc2270476$196                   main
     00002B34  A$lcc2270476$197                   main
     00002B36  A$lcc2270476$198                   main
     00002B37  A$lcc2270476$199                   main
     00002B39  A$lcc2270476$203                   main
     00002B39  C$main.c$67$3_3$184                main
     00002B3A  A$lcc2270476$204                   main
     00002B3C  A$lcc2270476$205                   main
     00002B3D  A$lcc2270476$206                   main
     00002B40  A$lcc2270476$211                   main
     00002B40  C$main.c$69$2_3$183                main
     00002B43  A$lcc2270476$212                   main
     00002B44  A$lcc2270476$213                   main
     00002B45  A$lcc2270476$214                   main
     00002B46  A$lcc2270476$215                   main
     00002B47  A$lcc2270476$216                   main
     00002B48  A$lcc2270476$217                   main
     00002B49  A$lcc2270476$218                   main
     00002B4A  A$lcc2270476$219                   main
     00002B4B  A$lcc2270476$220                   main
     00002B4C  A$lcc2270476$221                   main
     00002B4D  A$lcc2270476$222                   main
     00002B4E  A$lcc2270476$223                   main
     00002B4F  A$lcc2270476$224                   main
     00002B50  A$lcc2270476$225                   main
     00002B51  A$lcc2270476$226                   main
     00002B52  A$lcc2270476$227                   main
     00002B55  A$lcc2270476$228                   main
     00002B56  A$lcc2270476$229                   main
     00002B57  A$lcc2270476$230                   main
     00002B58  A$lcc2270476$232                   main
     00002B59  A$lcc2270476$236                   main
     00002B59  C$main.c$71$3_3$185                main
     00002B5B  A$lcc2270476$237                   main
     00002B5C  A$lcc2270476$238                   main
     00002B5E  A$lcc2270476$242                   main
     00002B5E  C$main.c$72$3_3$185                main
     00002B5F  A$lcc2270476$243                   main
     00002B61  A$lcc2270476$244                   main
     00002B64  A$lcc2270476$245                   main
     00002B65  A$lcc2270476$253                   main
     00002B65  C$main.c$74$1_2$179                main
     00002B65  XG$main$0$0                        main
     00002B67  __divsuchar                        divmod
     00002B6D  __modsuchar                        divmod
     00002B76  __divuschar                        divmod
     00002B7F  __moduschar                        divmod
ASxxxx Linker V03.00/V05.40 + sdld,  page 107.
Hexadecimal  [32-Bits]

Area                                    Addr        Size        Decimal Bytes (Attributes)
--------------------------------        ----        ----        ------- ----- ------------
_CODE                               00000200    00002D3E =       11582. bytes (REL,CON)

      Value  Global                              Global Defined In Module
      -----  --------------------------------   ------------------------
     00002B8B  __divschar                         divmod
     00002B90  __modschar                         divmod
     00002B97  __divsint                          divmod
     00002BA0  __modsint                          divmod
     00002BAC  __divuchar                         divmod
     00002BB1  __moduchar                         divmod
     00002BB8  __divuint                          divmod
     00002BC1  __moduint                          divmod
     00002BCD  .div8                              divmod
     00002BCD  .mod8                              divmod
     00002BD5  .div16                             divmod
     00002BD5  .mod16                             divmod
     00002C0B  .divu8                             divmod
     00002C0B  .modu8                             divmod
     00002C0E  .divu16                            divmod
     00002C0E  .modu16                            divmod
     00002C4E  _free                              free
     00002D5E  ___sdcc_heap_init                  malloc
     00002D80  _malloc                            malloc
     00002E86  _set_vram_byte                     
     00002E8F  _set_win_tile_xy                   
     00002E98  _set_bkg_tile_xy                   
     00002EC7  __mulsuchar                        mul
     00002ECA  __muluschar                        mul
     00002ED3  __mulschar                         mul
     00002EDB  __mulint                           mul
     00002EFA  __muluchar                         mul
     00002F0C  ___memcpy                          
     00002F0C  _memcpy                            

ASxxxx Linker V03.00/V05.40 + sdld,  page 108.
Hexadecimal  [32-Bits]

Area                                    Addr        Size        Decimal Bytes (Attributes)
--------------------------------        ----        ----        ------- ----- ------------
_HEADER0                            00000000    00000001 =           1. bytes (ABS,CON)

      Value  Global                              Global Defined In Module
      -----  --------------------------------   ------------------------
     00000020  .call_hl                           Runtime

ASxxxx Linker V03.00/V05.40 + sdld,  page 109.
Hexadecimal  [32-Bits]

Area                                    Addr        Size        Decimal Bytes (Attributes)
--------------------------------        ----        ----        ------- ----- ------------
_HEADER1                            00000000    00000005 =           5. bytes (ABS,CON)

      Value  Global                              Global Defined In Module
      -----  --------------------------------   ------------------------
     00000028  .MemsetSmall                       Runtime

ASxxxx Linker V03.00/V05.40 + sdld,  page 110.
Hexadecimal  [32-Bits]

Area                                    Addr        Size        Decimal Bytes (Attributes)
--------------------------------        ----        ----        ------- ----- ------------
_HEADER2                            00000000    00000007 =           7. bytes (ABS,CON)

      Value  Global                              Global Defined In Module
      -----  --------------------------------   ------------------------
     00000030  .MemcpySmall                       Runtime

ASxxxx Linker V03.00/V05.40 + sdld,  page 111.
Hexadecimal  [32-Bits]

Area                                    Addr        Size        Decimal Bytes (Attributes)
--------------------------------        ----        ----        ------- ----- ------------
_HEADER3                            00000000    00000008 =           8. bytes (ABS,CON)

      Value  Global                              Global Defined In Module
      -----  --------------------------------   ------------------------
ASxxxx Linker V03.00/V05.40 + sdld,  page 112.
Hexadecimal  [32-Bits]

Area                                    Addr        Size        Decimal Bytes (Attributes)
--------------------------------        ----        ----        ------- ----- ------------
_HEADER4                            00000000    00000060 =          96. bytes (ABS,CON)

      Value  Global                              Global Defined In Module
      -----  --------------------------------   ------------------------
     00000080  .int                               Runtime
     0000008F  _wait_int_handler                  Runtime
     0000009C  __standard_VBL_handler             Runtime
     000000AB  _refresh_OAM                       Runtime
     000000CC  _set_interrupts                    Runtime

ASxxxx Linker V03.00/V05.40 + sdld,  page 113.
Hexadecimal  [32-Bits]

Area                                    Addr        Size        Decimal Bytes (Attributes)
--------------------------------        ----        ----        ------- ----- ------------
_HEADER5                            00000000    00000001 =           1. bytes (ABS,CON)

      Value  Global                              Global Defined In Module
      -----  --------------------------------   ------------------------
ASxxxx Linker V03.00/V05.40 + sdld,  page 114.
Hexadecimal  [32-Bits]

Area                                    Addr        Size        Decimal Bytes (Attributes)
--------------------------------        ----        ----        ------- ----- ------------
_HEADER6                            00000000    00000002 =           2. bytes (ABS,CON)

      Value  Global                              Global Defined In Module
      -----  --------------------------------   ------------------------
ASxxxx Linker V03.00/V05.40 + sdld,  page 115.
Hexadecimal  [32-Bits]

Area                                    Addr        Size        Decimal Bytes (Attributes)
--------------------------------        ----        ----        ------- ----- ------------
_HEADER7                            00000000    00000030 =          48. bytes (ABS,CON)

      Value  Global                              Global Defined In Module
      -----  --------------------------------   ------------------------
ASxxxx Linker V03.00/V05.40 + sdld,  page 116.
Hexadecimal  [32-Bits]

Area                                    Addr        Size        Decimal Bytes (Attributes)
--------------------------------        ----        ----        ------- ----- ------------
_HEADER8                            00000000    00000006 =           6. bytes (ABS,CON)

      Value  Global                              Global Defined In Module
      -----  --------------------------------   ------------------------
ASxxxx Linker V03.00/V05.40 + sdld,  page 117.
Hexadecimal  [32-Bits]

Area                                    Addr        Size        Decimal Bytes (Attributes)
--------------------------------        ----        ----        ------- ----- ------------
_HEADER9                            00000000    00000003 =           3. bytes (ABS,CON)

      Value  Global                              Global Defined In Module
      -----  --------------------------------   ------------------------
ASxxxx Linker V03.00/V05.40 + sdld,  page 118.
Hexadecimal  [32-Bits]

Area                                    Addr        Size        Decimal Bytes (Attributes)
--------------------------------        ----        ----        ------- ----- ------------
_HEADERa                            00000000    00000001 =           1. bytes (ABS,CON)

      Value  Global                              Global Defined In Module
      -----  --------------------------------   ------------------------
ASxxxx Linker V03.00/V05.40 + sdld,  page 119.
Hexadecimal  [32-Bits]

Area                                    Addr        Size        Decimal Bytes (Attributes)
--------------------------------        ----        ----        ------- ----- ------------
_HEADERb                            00000000    00000001 =           1. bytes (ABS,CON)

      Value  Global                              Global Defined In Module
      -----  --------------------------------   ------------------------
ASxxxx Linker V03.00/V05.40 + sdld,  page 120.
Hexadecimal  [32-Bits]

Area                                    Addr        Size        Decimal Bytes (Attributes)
--------------------------------        ----        ----        ------- ----- ------------
_HEADERc                            00000000    00000001 =           1. bytes (ABS,CON)

      Value  Global                              Global Defined In Module
      -----  --------------------------------   ------------------------
ASxxxx Linker V03.00/V05.40 + sdld,  page 121.
Hexadecimal  [32-Bits]

Area                                    Addr        Size        Decimal Bytes (Attributes)
--------------------------------        ----        ----        ------- ----- ------------
_HEADERd                            00000000    00000002 =           2. bytes (ABS,CON)

      Value  Global                              Global Defined In Module
      -----  --------------------------------   ------------------------
ASxxxx Linker V03.00/V05.40 + sdld,  page 122.
Hexadecimal  [32-Bits]

Area                                    Addr        Size        Decimal Bytes (Attributes)
--------------------------------        ----        ----        ------- ----- ------------
_HEADERe                            00000000    00000001 =           1. bytes (ABS,CON)

      Value  Global                              Global Defined In Module
      -----  --------------------------------   ------------------------
ASxxxx Linker V03.00/V05.40 + sdld,  page 123.
Hexadecimal  [32-Bits]

Area                                    Addr        Size        Decimal Bytes (Attributes)
--------------------------------        ----        ----        ------- ----- ------------
_HEADERf                            00000000    00000001 =           1. bytes (ABS,CON)

      Value  Global                              Global Defined In Module
      -----  --------------------------------   ------------------------
ASxxxx Linker V03.00/V05.40 + sdld,  page 124.
Hexadecimal  [32-Bits]

Area                                    Addr        Size        Decimal Bytes (Attributes)
--------------------------------        ----        ----        ------- ----- ------------
_HEADER10                           00000000    00000002 =           2. bytes (ABS,CON)

      Value  Global                              Global Defined In Module
      -----  --------------------------------   ------------------------
ASxxxx Linker V03.00/V05.40 + sdld,  page 125.
Hexadecimal  [32-Bits]

Area                                    Addr        Size        Decimal Bytes (Attributes)
--------------------------------        ----        ----        ------- ----- ------------
_HEADER11                           00000000    000000AB =         171. bytes (ABS,CON)

      Value  Global                              Global Defined In Module
      -----  --------------------------------   ------------------------
     00000150  .reset                             Runtime
     00000150  _reset                             Runtime
     00000157  .code_start                        Runtime
     000001B9  _exit                              Runtime
     000001BD  .wait_vbl_done                     Runtime
     000001BD  _vsync                             Runtime
     000001BD  _wait_vbl_done                     Runtime
     000001CD  .remove_VBL                        Runtime
     000001CD  _remove_VBL                        Runtime
     000001D0  .remove_int                        Runtime
     000001ED  .add_VBL                           Runtime
     000001ED  _add_VBL                           Runtime
     000001F0  .add_int                           Runtime

ASxxxx Linker V03.00/V05.40 + sdld,  page 126.
Hexadecimal  [32-Bits]

Area                                    Addr        Size        Decimal Bytes (Attributes)
--------------------------------        ----        ----        ------- ----- ------------
_HOME                               00002F3E    0000012C =         300. bytes (REL,CON)

      Value  Global                              Global Defined In Module
      -----  --------------------------------   ------------------------
     00002F3E  .memset_simple                     Runtime
     00002F47  .memcpy_simple                     Runtime
     00002F64  .display_off                       Runtime
     00002F64  _display_off                       Runtime
     00002F7C  _set_tile_data                     
     00002F81  _set_bkg_data                      
     00002F81  _set_win_data                      
     00002F89  _set_sprite_data                   
     00002FB9  .padup                             
     00002FB9  _waitpadup                         
     00002FC9  .jpad                              
     00002FC9  _joypad                            
     00002FF1  _waitpad                           
     00002FF2  .wait_pad                          
     00002FF9  ___sdcc_call_hl                    call_hl
     00002FFA  _set_bkg_tiles                     
     0000300E  .set_xy_wtt                        SetTileMap
     00003017  .set_xy_btt                        SetTileMap
     00003026  .set_xy_tt                         SetTileMap

ASxxxx Linker V03.00/V05.40 + sdld,  page 127.
Hexadecimal  [32-Bits]

Area                                    Addr        Size        Decimal Bytes (Attributes)
--------------------------------        ----        ----        ------- ----- ------------
_INITIALIZER                        0000306A    0000022F =         559. bytes (REL,CON)

      Value  Global                              Global Defined In Module
      -----  --------------------------------   ------------------------
     0000306A  Fspr_InventoryArrow_idle$__xinit   spr_InventoryArrow_idle
     0000307A  Fbroom$__xinit_spr_broom_00$0_0$   broom
     0000308A  Fbroom$__xinit_spr_broom_01$0_0$   broom
     0000309A  Fspr_garbage$__xinit_spr_garbage   spr_garbage
     000030AA  Fleaf$__xinit_spr_leaf_00$0_0$0    leaf
     000030BA  Fexample_npc$__xinit_spr_example   example_npc
     000030CA  Fexample_npc$__xinit_spr_example   example_npc
     000030DA  Fexample_npc$__xinit_spr_example   example_npc
     000030EA  Fexample_npc$__xinit_spr_example   example_npc
     000030FA  Fspr_Player_down0$__xinit_spr_Pl   spr_Player_down0
     0000310A  Fspr_Player_down0$__xinit_spr_Pl   spr_Player_down0
     0000311A  Fspr_Player_down0$__xinit_spr_Pl   spr_Player_down0
     0000312A  Fspr_Player_down0$__xinit_spr_Pl   spr_Player_down0
     0000313A  Fspr_Player_down1$__xinit_spr_Pl   spr_Player_down1
     0000314A  Fspr_Player_down1$__xinit_spr_Pl   spr_Player_down1
     0000315A  Fspr_Player_down1$__xinit_spr_Pl   spr_Player_down1
     0000316A  Fspr_Player_down1$__xinit_spr_Pl   spr_Player_down1
     0000317A  Fspr_Player_down2$__xinit_spr_Pl   spr_Player_down2
     0000318A  Fspr_Player_down2$__xinit_spr_Pl   spr_Player_down2
     0000319A  Fspr_Player_down2$__xinit_spr_Pl   spr_Player_down2
     000031AA  Fspr_Player_down2$__xinit_spr_Pl   spr_Player_down2
     000031BA  Fspr_Player_up0$__xinit_spr_Play   spr_Player_up0
     000031CA  Fspr_Player_up0$__xinit_spr_Play   spr_Player_up0
     000031DA  Fspr_Player_up0$__xinit_spr_Play   spr_Player_up0
     000031EA  Fspr_Player_up0$__xinit_spr_Play   spr_Player_up0
     000031FA  Fspr_Player_up1$__xinit_spr_Play   spr_Player_up1
     0000320A  Fspr_Player_up1$__xinit_spr_Play   spr_Player_up1
     0000321A  Fspr_Player_up1$__xinit_spr_Play   spr_Player_up1
     0000322A  Fspr_Player_up1$__xinit_spr_Play   spr_Player_up1
     0000323A  Fspr_Player_up2$__xinit_spr_Play   spr_Player_up2
     0000324A  Fspr_Player_up2$__xinit_spr_Play   spr_Player_up2
     0000325A  Fspr_Player_up2$__xinit_spr_Play   spr_Player_up2
     0000326A  Fspr_Player_up2$__xinit_spr_Play   spr_Player_up2
     0000327A  Faction$__xinit_current_directio   action
     0000327B  Fcan_move$__xinit_can_move$0_0$0   can_move
     0000327F  Fentity$__xinit_next_entity_id$0   entity
     00003280  Fextra_actors$__xinit_extra_acto   extra_actors
     00003281  Fgender_selection$__xinit_GENDER   gender_selection
     00003282  Finput$__xinit_keys$0_0$0          input
     00003283  Finput$__xinit_prev_keys$0_0$0     input
     00003284  Finventory$__xinit_inventory_act   inventory
     00003285  Fload$__xinit_vram_next_index$0_   load
     00003286  Fload$__xinit_vram_extra_start$0   load
     00003287  Fmoney$__xinit_money$0_0$0         money
     00003289  Frandom$__xinit_seed$0_0$0         random
     0000328B  Fmain_menu$__xinit_timer$0_0$0     main_menu
     0000328D  Fmain_menu$__xinit_rate$0_0$0      main_menu
     0000328E  Fmain_menu$__xinit_show_text$0_0   main_menu
     0000328F  Fmg_timer$__xinit_mgt_current_fr   mg_timer
     00003291  Fmg_timer$__xinit_mgt_target_fra   mg_timer
ASxxxx Linker V03.00/V05.40 + sdld,  page 128.
Hexadecimal  [32-Bits]

Area                                    Addr        Size        Decimal Bytes (Attributes)
--------------------------------        ----        ----        ------- ----- ------------
_INITIALIZER                        0000306A    0000022F =         559. bytes (REL,CON)

      Value  Global                              Global Defined In Module
      -----  --------------------------------   ------------------------
     00003293  Fmg_timer$__xinit_mgt_running$0_   mg_timer
     00003294  Fmg_timer$__xinit_mgt_alarm$0_0$   mg_timer
     00003295  Fmg_leaves_init$__xinit_SWEEPING   mg_leaves_init
     00003296  Fmg_leaves_init$__xinit_score$0_   mg_leaves_init
     00003297  Fmg_leaves_init$__xinit_score_ca   mg_leaves_init

ASxxxx Linker V03.00/V05.40 + sdld,  page 129.
Hexadecimal  [32-Bits]

Area                                    Addr        Size        Decimal Bytes (Attributes)
--------------------------------        ----        ----        ------- ----- ------------
_GSINIT                             00003299    0000000F =          15. bytes (REL,CON)

      Value  Global                              Global Defined In Module
      -----  --------------------------------   ------------------------
     00003299  gsinit                             Runtime

ASxxxx Linker V03.00/V05.40 + sdld,  page 130.
Hexadecimal  [32-Bits]

Area                                    Addr        Size        Decimal Bytes (Attributes)
--------------------------------        ----        ----        ------- ----- ------------
_GSFINAL                            000032A8    00000001 =           1. bytes (REL,CON)

      Value  Global                              Global Defined In Module
      -----  --------------------------------   ------------------------
ASxxxx Linker V03.00/V05.40 + sdld,  page 131.
Hexadecimal  [32-Bits]

Area                                    Addr        Size        Decimal Bytes (Attributes)
--------------------------------        ----        ----        ------- ----- ------------
_DATA                               0000C0A0    000002CB =         715. bytes (REL,CON)

      Value  Global                              Global Defined In Module
      -----  --------------------------------   ------------------------
     0000C0A0  __cpu                              Runtime
     0000C0A1  __is_GBA                           Runtime
     0000C0A2  .mode                              Runtime
     0000C0A3  .sys_time                          Runtime
     0000C0A3  _sys_time                          Runtime
     0000C0A5  .int_0x40                          Runtime
     0000C0B1  G$animation$0_0$0                  animation
     0000C0B1  _animation                         animation
     0000C208  G$extra_actors$0_0$0               extra_actors
     0000C208  _extra_actors                      extra_actors
     0000C244  G$names$0_0$0                      name
     0000C244  _names                             name
     0000C28A  G$npc_1$0_0$0                      npcs
     0000C28A  _npc_1                             npcs
     0000C28B  G$npc_2$0_0$0                      npcs
     0000C28B  _npc_2                             npcs
     0000C28C  G$option_actor$0_0$0               npcs
     0000C28C  _option_actor                      npcs
     0000C28D  G$humor_stats$0_0$0                npcs
     0000C28D  _humor_stats                       npcs
     0000C29C  G$CurrentNPCDialogues$0_0$0        npc_lines
     0000C29C  _CurrentNPCDialogues               npc_lines
     0000C2A0  G$player$0_0$0                     player
     0000C2A0  _player                            player
     0000C2A1  G$mg_player$0_0$0                  player
     0000C2A1  _mg_player                         player
     0000C2A2  G$player_animations$0_0$0          player
     0000C2A2  _player_animations                 player
     0000C2A6  G$player_y_cache$0_0$0             player
     0000C2A6  _player_y_cache                    player
     0000C2A7  G$position$0_0$0                   position
     0000C2A7  _position                          position
     0000C2D1  G$render$0_0$0                     render
     0000C2D1  _render                            render
     0000C2E6  G$scene_manager$0_0$0              scene_manager
     0000C2E6  _scene_manager                     scene_manager
     0000C2E8  G$speed$0_0$0                      speed
     0000C2E8  _speed                             speed
     0000C2F6  G$GenderSelect$0_0$0               gender_select
     0000C2F6  _GenderSelect                      gender_select
     0000C2FF  G$InventoryScene$0_0$0             inventory_scene
     0000C2FF  _InventoryScene                    inventory_scene
     0000C308  G$MainMenu$0_0$0                   main_menu
     0000C308  _MainMenu                          main_menu
     0000C311  G$CurrentMapData$0_0$0             map_data
     0000C311  _CurrentMapData                    map_data
     0000C323  G$Map_00$0_0$0                     map_00
     0000C323  _Map_00                            map_00
     0000C32C  G$Mg_Leaves$0_0$0                  mg_leaves
     0000C32C  _Mg_Leaves                         mg_leaves
ASxxxx Linker V03.00/V05.40 + sdld,  page 132.
Hexadecimal  [32-Bits]

Area                                    Addr        Size        Decimal Bytes (Attributes)
--------------------------------        ----        ----        ------- ----- ------------
_DATA                               0000C0A0    000002CB =         715. bytes (REL,CON)

      Value  Global                              Global Defined In Module
      -----  --------------------------------   ------------------------
     0000C335  G$actor_ids$0_0$0                  mg_leaves_init
     0000C335  _actor_ids                         mg_leaves_init
     0000C33A  G$actor_x$0_0$0                    mg_leaves_init
     0000C33A  _actor_x                           mg_leaves_init
     0000C33F  G$actor_y$0_0$0                    mg_leaves_init
     0000C33F  _actor_y                           mg_leaves_init
     0000C344  G$actor_active$0_0$0               mg_leaves_init
     0000C344  _actor_active                      mg_leaves_init
     0000C349  G$actor_timer$0_0$0                mg_leaves_init
     0000C349  _actor_timer                       mg_leaves_init
     0000C34E  G$actor_spawner$0_0$0              mg_leaves_init
     0000C34E  _actor_spawner                     mg_leaves_init
     0000C358  G$actor_spawn_x$0_0$0              mg_leaves_init
     0000C358  _actor_spawn_x                     mg_leaves_init
     0000C35D  G$actor_state$0_0$0                mg_leaves_init
     0000C35D  _actor_state                       mg_leaves_init
     0000C362  G$mg_leaves_DATA$0_0$0             mg_leaves_init
     0000C362  _mg_leaves_DATA                    mg_leaves_init
     0000C365  Lmain.main$game$1_1$180            main
     0000C369  ___sdcc_heap_free                  malloc

ASxxxx Linker V03.00/V05.40 + sdld,  page 133.
Hexadecimal  [32-Bits]

Area                                    Addr        Size        Decimal Bytes (Attributes)
--------------------------------        ----        ----        ------- ----- ------------
_INITIALIZED                        0000C36B    0000022F =         559. bytes (REL,CON)

      Value  Global                              Global Defined In Module
      -----  --------------------------------   ------------------------
     0000C36B  G$spr_InventoryArrow_idle$0_0$0    spr_InventoryArrow_idle
     0000C36B  _spr_InventoryArrow_idle           spr_InventoryArrow_idle
     0000C37B  G$spr_broom_00$0_0$0               broom
     0000C37B  _spr_broom_00                      broom
     0000C38B  G$spr_broom_01$0_0$0               broom
     0000C38B  _spr_broom_01                      broom
     0000C39B  G$spr_garbage_00$0_0$0             spr_garbage
     0000C39B  _spr_garbage_00                    spr_garbage
     0000C3AB  G$spr_leaf_00$0_0$0                leaf
     0000C3AB  _spr_leaf_00                       leaf
     0000C3BB  G$spr_example_NPC_00$0_0$0         example_npc
     0000C3BB  _spr_example_NPC_00                example_npc
     0000C3CB  G$spr_example_NPC_01$0_0$0         example_npc
     0000C3CB  _spr_example_NPC_01                example_npc
     0000C3DB  G$spr_example_NPC_10$0_0$0         example_npc
     0000C3DB  _spr_example_NPC_10                example_npc
     0000C3EB  G$spr_example_NPC_11$0_0$0         example_npc
     0000C3EB  _spr_example_NPC_11                example_npc
     0000C3FB  G$spr_Player_down0_00$0_0$0        spr_Player_down0
     0000C3FB  _spr_Player_down0_00               spr_Player_down0
     0000C40B  G$spr_Player_down0_10$0_0$0        spr_Player_down0
     0000C40B  _spr_Player_down0_10               spr_Player_down0
     0000C41B  G$spr_Player_down0_01$0_0$0        spr_Player_down0
     0000C41B  _spr_Player_down0_01               spr_Player_down0
     0000C42B  G$spr_Player_down0_11$0_0$0        spr_Player_down0
     0000C42B  _spr_Player_down0_11               spr_Player_down0
     0000C43B  G$spr_Player_down1_00$0_0$0        spr_Player_down1
     0000C43B  _spr_Player_down1_00               spr_Player_down1
     0000C44B  G$spr_Player_down1_10$0_0$0        spr_Player_down1
     0000C44B  _spr_Player_down1_10               spr_Player_down1
     0000C45B  G$spr_Player_down1_01$0_0$0        spr_Player_down1
     0000C45B  _spr_Player_down1_01               spr_Player_down1
     0000C46B  G$spr_Player_down1_11$0_0$0        spr_Player_down1
     0000C46B  _spr_Player_down1_11               spr_Player_down1
     0000C47B  G$spr_Player_down2_00$0_0$0        spr_Player_down2
     0000C47B  _spr_Player_down2_00               spr_Player_down2
     0000C48B  G$spr_Player_down2_10$0_0$0        spr_Player_down2
     0000C48B  _spr_Player_down2_10               spr_Player_down2
     0000C49B  G$spr_Player_down2_01$0_0$0        spr_Player_down2
     0000C49B  _spr_Player_down2_01               spr_Player_down2
     0000C4AB  G$spr_Player_down2_11$0_0$0        spr_Player_down2
     0000C4AB  _spr_Player_down2_11               spr_Player_down2
     0000C4BB  G$spr_Player_up0_00$0_0$0          spr_Player_up0
     0000C4BB  _spr_Player_up0_00                 spr_Player_up0
     0000C4CB  G$spr_Player_up0_10$0_0$0          spr_Player_up0
     0000C4CB  _spr_Player_up0_10                 spr_Player_up0
     0000C4DB  G$spr_Player_up0_01$0_0$0          spr_Player_up0
     0000C4DB  _spr_Player_up0_01                 spr_Player_up0
     0000C4EB  G$spr_Player_up0_11$0_0$0          spr_Player_up0
     0000C4EB  _spr_Player_up0_11                 spr_Player_up0
ASxxxx Linker V03.00/V05.40 + sdld,  page 134.
Hexadecimal  [32-Bits]

Area                                    Addr        Size        Decimal Bytes (Attributes)
--------------------------------        ----        ----        ------- ----- ------------
_INITIALIZED                        0000C36B    0000022F =         559. bytes (REL,CON)

      Value  Global                              Global Defined In Module
      -----  --------------------------------   ------------------------
     0000C4FB  G$spr_Player_up1_00$0_0$0          spr_Player_up1
     0000C4FB  _spr_Player_up1_00                 spr_Player_up1
     0000C50B  G$spr_Player_up1_10$0_0$0          spr_Player_up1
     0000C50B  _spr_Player_up1_10                 spr_Player_up1
     0000C51B  G$spr_Player_up1_01$0_0$0          spr_Player_up1
     0000C51B  _spr_Player_up1_01                 spr_Player_up1
     0000C52B  G$spr_Player_up1_11$0_0$0          spr_Player_up1
     0000C52B  _spr_Player_up1_11                 spr_Player_up1
     0000C53B  G$spr_Player_up2_00$0_0$0          spr_Player_up2
     0000C53B  _spr_Player_up2_00                 spr_Player_up2
     0000C54B  G$spr_Player_up2_10$0_0$0          spr_Player_up2
     0000C54B  _spr_Player_up2_10                 spr_Player_up2
     0000C55B  G$spr_Player_up2_01$0_0$0          spr_Player_up2
     0000C55B  _spr_Player_up2_01                 spr_Player_up2
     0000C56B  G$spr_Player_up2_11$0_0$0          spr_Player_up2
     0000C56B  _spr_Player_up2_11                 spr_Player_up2
     0000C57B  G$current_direction$0_0$0          action
     0000C57B  _current_direction                 action
     0000C57C  G$can_move$0_0$0                   can_move
     0000C57C  _can_move                          can_move
     0000C580  G$next_entity_id$0_0$0             entity
     0000C580  _next_entity_id                    entity
     0000C581  G$extra_actor_index$0_0$0          extra_actors
     0000C581  _extra_actor_index                 extra_actors
     0000C582  G$GENDER$0_0$0                     gender_selection
     0000C582  _GENDER                            gender_selection
     0000C583  G$keys$0_0$0                       input
     0000C583  _keys                              input
     0000C584  G$prev_keys$0_0$0                  input
     0000C584  _prev_keys                         input
     0000C585  G$inventory_active$0_0$0           inventory
     0000C585  _inventory_active                  inventory
     0000C586  G$vram_next_index$0_0$0            load
     0000C586  _vram_next_index                   load
     0000C587  G$vram_extra_start$0_0$0           load
     0000C587  _vram_extra_start                  load
     0000C588  G$money$0_0$0                      money
     0000C588  _money                             money
     0000C58A  G$seed$0_0$0                       random
     0000C58A  _seed                              random
     0000C58C  G$timer$0_0$0                      main_menu
     0000C58C  _timer                             main_menu
     0000C58E  G$rate$0_0$0                       main_menu
     0000C58E  _rate                              main_menu
     0000C58F  G$show_text$0_0$0                  main_menu
     0000C58F  _show_text                         main_menu
     0000C590  G$mgt_current_frame$0_0$0          mg_timer
     0000C590  _mgt_current_frame                 mg_timer
     0000C592  G$mgt_target_frame$0_0$0           mg_timer
     0000C592  _mgt_target_frame                  mg_timer
     0000C594  G$mgt_running$0_0$0                mg_timer
ASxxxx Linker V03.00/V05.40 + sdld,  page 135.
Hexadecimal  [32-Bits]

Area                                    Addr        Size        Decimal Bytes (Attributes)
--------------------------------        ----        ----        ------- ----- ------------
_INITIALIZED                        0000C36B    0000022F =         559. bytes (REL,CON)

      Value  Global                              Global Defined In Module
      -----  --------------------------------   ------------------------
     0000C594  _mgt_running                       mg_timer
     0000C595  G$mgt_alarm$0_0$0                  mg_timer
     0000C595  _mgt_alarm                         mg_timer
     0000C596  G$SWEEPING_FLAG$0_0$0              mg_leaves_init
     0000C596  _SWEEPING_FLAG                     mg_leaves_init
     0000C597  G$score$0_0$0                      mg_leaves_init
     0000C597  _score                             mg_leaves_init
     0000C598  G$score_cache$0_0$0                mg_leaves_init
     0000C598  _score_cache                       mg_leaves_init
     0000C599  __map_tile_offset                  SetTileMap
ASxxxx Linker V03.00/V05.40 + sdld,  page 136.
Hexadecimal  [32-Bits]

Area                                    Addr        Size        Decimal Bytes (Attributes)
--------------------------------        ----        ----        ------- ----- ------------
_HEAP                               0000C59A    000007FF =        2047. bytes (REL,CON)

      Value  Global                              Global Defined In Module
      -----  --------------------------------   ------------------------
     0000C59A  ___sdcc_heap                       

ASxxxx Linker V03.00/V05.40 + sdld,  page 137.
Hexadecimal  [32-Bits]

Area                                    Addr        Size        Decimal Bytes (Attributes)
--------------------------------        ----        ----        ------- ----- ------------
_HEAP_END                           0000CD99    00000001 =           1. bytes (REL,CON)

      Value  Global                              Global Defined In Module
      -----  --------------------------------   ------------------------
     0000CD99  ___sdcc_heap_end                   

ASxxxx Linker V03.00/V05.40 + sdld,  page 138.
Hexadecimal  [32-Bits]

Area                                    Addr        Size        Decimal Bytes (Attributes)
--------------------------------        ----        ----        ------- ----- ------------
_HRAM                               0000FF80    00000013 =          19. bytes (REL,CON)

      Value  Global                              Global Defined In Module
      -----  --------------------------------   ------------------------
     0000FF80  .refresh_OAM                       Runtime
     0000FF90  __current_bank                     Runtime
     0000FF91  __vbl_done                         Runtime
     0000FF92  __shadow_OAM_base                  Runtime

ASxxxx Linker V03.00/V05.40 + sdld,  page 139.
Hexadecimal  [32-Bits]

Area                                    Addr        Size        Decimal Bytes (Attributes)
--------------------------------        ----        ----        ------- ----- ------------
_CODE_1                             00014000    00001220 =        4640. bytes (REL,CON)

      Value  Global                              Global Defined In Module
      -----  --------------------------------   ------------------------
     00014000  G$inventory_bkg_tileset$0_0$0      inventory_bkg
     00014000  _inventory_bkg_tileset             inventory_bkg
     00014340  G$inventory_bkg_tilemap$0_0$0      inventory_bkg
     00014340  _inventory_bkg_tilemap             inventory_bkg
     000144A8  G$bkg_main_menu_tileset$0_0$0      bkg_MainMenu
     000144A8  _bkg_main_menu_tileset             bkg_MainMenu
     00014768  G$bkg_main_menu_tilemap$0_0$0      bkg_MainMenu
     00014768  _bkg_main_menu_tilemap             bkg_MainMenu
     000148D0  G$example_tileset$0_0$0            map_example
     000148D0  _example_tileset                   map_example
     00014D80  G$example_tilemap$0_0$0            map_example
     00014D80  _example_tilemap                   map_example
     00014EE8  G$template_tileset$0_0$0           template_tileset
     00014EE8  _template_tileset                  template_tileset
     000150B8  G$template_tilemap$0_0$0           template_tileset
     000150B8  _template_tilemap                  template_tileset

ASxxxx Linker V03.00/V05.40 + sdld,  page 140.
Hexadecimal  [32-Bits]

Area                                    Addr        Size        Decimal Bytes (Attributes)
--------------------------------        ----        ----        ------- ----- ------------
_CODE_2                             00024000    00000776 =        1910. bytes (REL,CON)

      Value  Global                              Global Defined In Module
      -----  --------------------------------   ------------------------
     00024000  A$lcc2270472$107                   mg_leaves_init
     00024000  C$mg_leaves_init.c$40$0_0$171      mg_leaves_init
     00024000  G$Mg_Leaves_Init$0$0               mg_leaves_init
     00024000  _Mg_Leaves_Init                    mg_leaves_init
     00024002  A$lcc2270472$111                   mg_leaves_init
     00024002  C$mg_leaves_init.c$41$1_0$171      mg_leaves_init
     00024005  A$lcc2270472$112                   mg_leaves_init
     00024007  A$lcc2270472$113                   mg_leaves_init
     00024008  A$lcc2270472$117                   mg_leaves_init
     00024008  C$mg_leaves_init.c$42$1_0$171      mg_leaves_init
     00024009  A$lcc2270472$118                   mg_leaves_init
     0002400A  A$lcc2270472$119                   mg_leaves_init
     0002400B  A$lcc2270472$120                   mg_leaves_init
     0002400D  A$lcc2270472$124                   mg_leaves_init
     0002400D  C$mg_leaves_init.c$43$1_0$171      mg_leaves_init
     0002400E  A$lcc2270472$125                   mg_leaves_init
     0002400F  A$lcc2270472$126                   mg_leaves_init
     00024010  A$lcc2270472$127                   mg_leaves_init
     00024011  A$lcc2270472$128                   mg_leaves_init
     00024013  A$lcc2270472$132                   mg_leaves_init
     00024013  C$mg_leaves_init.c$45$1_0$171      mg_leaves_init
     00024016  A$lcc2270472$133                   mg_leaves_init
     00024017  A$lcc2270472$134                   mg_leaves_init
     00024018  A$lcc2270472$135                   mg_leaves_init
     00024019  A$lcc2270472$136                   mg_leaves_init
     0002401A  A$lcc2270472$140                   mg_leaves_init
     0002401A  C$mg_leaves_init.c$47$1_0$171      mg_leaves_init
     0002401D  A$lcc2270472$144                   mg_leaves_init
     0002401D  C$mg_leaves_init.c$49$2_0$172      mg_leaves_init
     0002401F  A$lcc2270472$145                   mg_leaves_init
     00024020  A$lcc2270472$146                   mg_leaves_init
     00024021  A$lcc2270472$147                   mg_leaves_init
     00024023  A$lcc2270472$148                   mg_leaves_init
     00024025  A$lcc2270472$149                   mg_leaves_init
     00024027  A$lcc2270472$150                   mg_leaves_init
     00024028  A$lcc2270472$151                   mg_leaves_init
     0002402A  A$lcc2270472$152                   mg_leaves_init
     0002402B  A$lcc2270472$153                   mg_leaves_init
     0002402C  A$lcc2270472$154                   mg_leaves_init
     0002402E  A$lcc2270472$155                   mg_leaves_init
     0002402F  A$lcc2270472$156                   mg_leaves_init
     00024031  A$lcc2270472$157                   mg_leaves_init
     00024032  A$lcc2270472$158                   mg_leaves_init
     00024034  A$lcc2270472$159                   mg_leaves_init
     00024035  A$lcc2270472$160                   mg_leaves_init
     00024037  A$lcc2270472$161                   mg_leaves_init
     00024038  A$lcc2270472$162                   mg_leaves_init
     0002403A  A$lcc2270472$163                   mg_leaves_init
     0002403B  A$lcc2270472$164                   mg_leaves_init
     0002403C  A$lcc2270472$165                   mg_leaves_init
ASxxxx Linker V03.00/V05.40 + sdld,  page 141.
Hexadecimal  [32-Bits]

Area                                    Addr        Size        Decimal Bytes (Attributes)
--------------------------------        ----        ----        ------- ----- ------------
_CODE_2                             00024000    00000776 =        1910. bytes (REL,CON)

      Value  Global                              Global Defined In Module
      -----  --------------------------------   ------------------------
     0002403D  A$lcc2270472$166                   mg_leaves_init
     0002403E  A$lcc2270472$167                   mg_leaves_init
     00024040  A$lcc2270472$171                   mg_leaves_init
     00024040  C$mg_leaves_init.c$50$1_1$172      mg_leaves_init
     00024041  A$lcc2270472$172                   mg_leaves_init
     00024042  A$lcc2270472$173                   mg_leaves_init
     00024045  A$lcc2270472$177                   mg_leaves_init
     00024045  C$mg_leaves_init.c$52$1_1$172      mg_leaves_init
     00024048  A$lcc2270472$181                   mg_leaves_init
     00024048  C$mg_leaves_init.c$57$3_2$175      mg_leaves_init
     0002404A  A$lcc2270472$182                   mg_leaves_init
     0002404C  A$lcc2270472$184                   mg_leaves_init
     0002404E  A$lcc2270472$185                   mg_leaves_init
     0002404F  A$lcc2270472$186                   mg_leaves_init
     00024051  A$lcc2270472$187                   mg_leaves_init
     00024053  A$lcc2270472$191                   mg_leaves_init
     00024053  C$mg_leaves_init.c$58$3_2$175      mg_leaves_init
     00024055  A$lcc2270472$192                   mg_leaves_init
     00024056  A$lcc2270472$193                   mg_leaves_init
     00024057  A$lcc2270472$194                   mg_leaves_init
     0002405A  A$lcc2270472$195                   mg_leaves_init
     0002405B  A$lcc2270472$196                   mg_leaves_init
     0002405E  A$lcc2270472$197                   mg_leaves_init
     0002405F  A$lcc2270472$201                   mg_leaves_init
     0002405F  C$mg_leaves_init.c$59$3_2$175      mg_leaves_init
     00024062  A$lcc2270472$202                   mg_leaves_init
     00024064  A$lcc2270472$203                   mg_leaves_init
     00024065  A$lcc2270472$204                   mg_leaves_init
     00024067  A$lcc2270472$205                   mg_leaves_init
     00024068  A$lcc2270472$206                   mg_leaves_init
     00024069  A$lcc2270472$207                   mg_leaves_init
     0002406A  A$lcc2270472$208                   mg_leaves_init
     0002406B  A$lcc2270472$209                   mg_leaves_init
     0002406C  A$lcc2270472$213                   mg_leaves_init
     0002406C  C$mg_leaves_init.c$60$3_2$175      mg_leaves_init
     0002406F  A$lcc2270472$214                   mg_leaves_init
     00024071  A$lcc2270472$215                   mg_leaves_init
     00024072  A$lcc2270472$216                   mg_leaves_init
     00024074  A$lcc2270472$217                   mg_leaves_init
     00024075  A$lcc2270472$218                   mg_leaves_init
     00024076  A$lcc2270472$219                   mg_leaves_init
     00024077  A$lcc2270472$220                   mg_leaves_init
     00024078  A$lcc2270472$221                   mg_leaves_init
     00024079  A$lcc2270472$225                   mg_leaves_init
     00024079  C$mg_leaves_init.c$62$3_2$175      mg_leaves_init
     0002407C  A$lcc2270472$226                   mg_leaves_init
     0002407E  A$lcc2270472$227                   mg_leaves_init
     0002407F  A$lcc2270472$228                   mg_leaves_init
     00024081  A$lcc2270472$229                   mg_leaves_init
     00024082  A$lcc2270472$230                   mg_leaves_init
     00024083  A$lcc2270472$231                   mg_leaves_init
ASxxxx Linker V03.00/V05.40 + sdld,  page 142.
Hexadecimal  [32-Bits]

Area                                    Addr        Size        Decimal Bytes (Attributes)
--------------------------------        ----        ----        ------- ----- ------------
_CODE_2                             00024000    00000776 =        1910. bytes (REL,CON)

      Value  Global                              Global Defined In Module
      -----  --------------------------------   ------------------------
     00024084  A$lcc2270472$232                   mg_leaves_init
     00024086  A$lcc2270472$233                   mg_leaves_init
     00024087  A$lcc2270472$234                   mg_leaves_init
     00024088  A$lcc2270472$235                   mg_leaves_init
     00024089  A$lcc2270472$236                   mg_leaves_init
     0002408A  A$lcc2270472$237                   mg_leaves_init
     0002408B  A$lcc2270472$238                   mg_leaves_init
     0002408C  A$lcc2270472$239                   mg_leaves_init
     0002408D  A$lcc2270472$240                   mg_leaves_init
     0002408E  A$lcc2270472$241                   mg_leaves_init
     00024090  A$lcc2270472$242                   mg_leaves_init
     00024091  A$lcc2270472$243                   mg_leaves_init
     00024092  A$lcc2270472$247                   mg_leaves_init
     00024092  C$mg_leaves_init.c$63$3_2$175      mg_leaves_init
     00024093  A$lcc2270472$248                   mg_leaves_init
     00024096  A$lcc2270472$249                   mg_leaves_init
     00024097  A$lcc2270472$250                   mg_leaves_init
     00024099  A$lcc2270472$251                   mg_leaves_init
     0002409A  A$lcc2270472$252                   mg_leaves_init
     0002409B  A$lcc2270472$253                   mg_leaves_init
     0002409C  A$lcc2270472$254                   mg_leaves_init
     0002409D  A$lcc2270472$255                   mg_leaves_init
     0002409E  A$lcc2270472$256                   mg_leaves_init
     0002409F  A$lcc2270472$260                   mg_leaves_init
     0002409F  C$mg_leaves_init.c$65$3_2$175      mg_leaves_init
     000240A2  A$lcc2270472$261                   mg_leaves_init
     000240A4  A$lcc2270472$262                   mg_leaves_init
     000240A5  A$lcc2270472$263                   mg_leaves_init
     000240A7  A$lcc2270472$264                   mg_leaves_init
     000240A8  A$lcc2270472$265                   mg_leaves_init
     000240A9  A$lcc2270472$266                   mg_leaves_init
     000240AA  A$lcc2270472$267                   mg_leaves_init
     000240AB  A$lcc2270472$268                   mg_leaves_init
     000240AC  A$lcc2270472$272                   mg_leaves_init
     000240AC  C$mg_leaves_init.c$66$3_2$175      mg_leaves_init
     000240AF  A$lcc2270472$273                   mg_leaves_init
     000240B1  A$lcc2270472$274                   mg_leaves_init
     000240B2  A$lcc2270472$275                   mg_leaves_init
     000240B4  A$lcc2270472$276                   mg_leaves_init
     000240B5  A$lcc2270472$277                   mg_leaves_init
     000240B6  A$lcc2270472$278                   mg_leaves_init
     000240B7  A$lcc2270472$279                   mg_leaves_init
     000240B8  A$lcc2270472$280                   mg_leaves_init
     000240B9  A$lcc2270472$284                   mg_leaves_init
     000240B9  C$mg_leaves_init.c$57$2_2$174      mg_leaves_init
     000240BB  A$lcc2270472$285                   mg_leaves_init
     000240BC  A$lcc2270472$286                   mg_leaves_init
     000240BE  A$lcc2270472$291                   mg_leaves_init
     000240BE  C$mg_leaves_init.c$71$3_3$178      mg_leaves_init
     000240C0  A$lcc2270472$293                   mg_leaves_init
     000240C1  A$lcc2270472$294                   mg_leaves_init
ASxxxx Linker V03.00/V05.40 + sdld,  page 143.
Hexadecimal  [32-Bits]

Area                                    Addr        Size        Decimal Bytes (Attributes)
--------------------------------        ----        ----        ------- ----- ------------
_CODE_2                             00024000    00000776 =        1910. bytes (REL,CON)

      Value  Global                              Global Defined In Module
      -----  --------------------------------   ------------------------
     000240C3  A$lcc2270472$295                   mg_leaves_init
     000240C6  A$lcc2270472$299                   mg_leaves_init
     000240C6  C$mg_leaves_init.c$72$3_3$178      mg_leaves_init
     000240C7  A$lcc2270472$300                   mg_leaves_init
     000240C9  A$lcc2270472$301                   mg_leaves_init
     000240CA  A$lcc2270472$302                   mg_leaves_init
     000240CB  A$lcc2270472$303                   mg_leaves_init
     000240CE  A$lcc2270472$304                   mg_leaves_init
     000240CF  A$lcc2270472$305                   mg_leaves_init
     000240D2  A$lcc2270472$306                   mg_leaves_init
     000240D3  A$lcc2270472$307                   mg_leaves_init
     000240D4  A$lcc2270472$311                   mg_leaves_init
     000240D4  C$mg_leaves_init.c$73$3_3$178      mg_leaves_init
     000240D7  A$lcc2270472$312                   mg_leaves_init
     000240D9  A$lcc2270472$313                   mg_leaves_init
     000240DA  A$lcc2270472$314                   mg_leaves_init
     000240DB  A$lcc2270472$318                   mg_leaves_init
     000240DB  C$mg_leaves_init.c$74$3_3$178      mg_leaves_init
     000240DE  A$lcc2270472$319                   mg_leaves_init
     000240E0  A$lcc2270472$320                   mg_leaves_init
     000240E1  A$lcc2270472$321                   mg_leaves_init
     000240E3  A$lcc2270472$325                   mg_leaves_init
     000240E3  C$mg_leaves_init.c$75$1_5$171      mg_leaves_init
     000240E6  A$lcc2270472$326                   mg_leaves_init
     000240E7  A$lcc2270472$327                   mg_leaves_init
     000240E9  A$lcc2270472$328                   mg_leaves_init
     000240EA  A$lcc2270472$329                   mg_leaves_init
     000240EB  A$lcc2270472$330                   mg_leaves_init
     000240EC  A$lcc2270472$331                   mg_leaves_init
     000240ED  A$lcc2270472$332                   mg_leaves_init
     000240EE  A$lcc2270472$333                   mg_leaves_init
     000240F0  A$lcc2270472$334                   mg_leaves_init
     000240F1  A$lcc2270472$335                   mg_leaves_init
     000240F2  A$lcc2270472$336                   mg_leaves_init
     000240F3  A$lcc2270472$337                   mg_leaves_init
     000240F4  A$lcc2270472$338                   mg_leaves_init
     000240F5  A$lcc2270472$339                   mg_leaves_init
     000240F6  A$lcc2270472$340                   mg_leaves_init
     000240F7  A$lcc2270472$341                   mg_leaves_init
     000240F8  A$lcc2270472$342                   mg_leaves_init
     000240FA  A$lcc2270472$343                   mg_leaves_init
     000240FB  A$lcc2270472$344                   mg_leaves_init
     000240FC  A$lcc2270472$345                   mg_leaves_init
     000240FD  A$lcc2270472$346                   mg_leaves_init
     000240FE  A$lcc2270472$350                   mg_leaves_init
     000240FE  C$mg_leaves_init.c$76$1_5$171      mg_leaves_init
     00024101  A$lcc2270472$351                   mg_leaves_init
     00024102  A$lcc2270472$352                   mg_leaves_init
     00024104  A$lcc2270472$353                   mg_leaves_init
     00024105  A$lcc2270472$354                   mg_leaves_init
     00024106  A$lcc2270472$355                   mg_leaves_init
ASxxxx Linker V03.00/V05.40 + sdld,  page 144.
Hexadecimal  [32-Bits]

Area                                    Addr        Size        Decimal Bytes (Attributes)
--------------------------------        ----        ----        ------- ----- ------------
_CODE_2                             00024000    00000776 =        1910. bytes (REL,CON)

      Value  Global                              Global Defined In Module
      -----  --------------------------------   ------------------------
     00024107  A$lcc2270472$356                   mg_leaves_init
     00024109  A$lcc2270472$357                   mg_leaves_init
     0002410A  A$lcc2270472$358                   mg_leaves_init
     0002410B  A$lcc2270472$359                   mg_leaves_init
     0002410C  A$lcc2270472$360                   mg_leaves_init
     0002410E  A$lcc2270472$361                   mg_leaves_init
     0002410F  A$lcc2270472$362                   mg_leaves_init
     00024110  A$lcc2270472$363                   mg_leaves_init
     00024111  A$lcc2270472$364                   mg_leaves_init
     00024112  A$lcc2270472$365                   mg_leaves_init
     00024113  A$lcc2270472$369                   mg_leaves_init
     00024113  C$mg_leaves_init.c$77$3_3$178      mg_leaves_init
     00024116  A$lcc2270472$370                   mg_leaves_init
     00024118  A$lcc2270472$371                   mg_leaves_init
     00024119  A$lcc2270472$372                   mg_leaves_init
     0002411B  A$lcc2270472$376                   mg_leaves_init
     0002411B  C$mg_leaves_init.c$78$3_3$178      mg_leaves_init
     0002411E  A$lcc2270472$377                   mg_leaves_init
     00024120  A$lcc2270472$378                   mg_leaves_init
     00024121  A$lcc2270472$379                   mg_leaves_init
     00024123  A$lcc2270472$383                   mg_leaves_init
     00024123  C$mg_leaves_init.c$80$1_5$171      mg_leaves_init
     00024125  A$lcc2270472$385                   mg_leaves_init
     00024126  A$lcc2270472$386                   mg_leaves_init
     00024128  A$lcc2270472$387                   mg_leaves_init
     0002412A  A$lcc2270472$391                   mg_leaves_init
     0002412A  C$mg_leaves_init.c$81$6_3$181      mg_leaves_init
     0002412B  A$lcc2270472$392                   mg_leaves_init
     0002412C  A$lcc2270472$393                   mg_leaves_init
     0002412D  A$lcc2270472$394                   mg_leaves_init
     0002412E  A$lcc2270472$395                   mg_leaves_init
     00024130  A$lcc2270472$396                   mg_leaves_init
     00024131  A$lcc2270472$397                   mg_leaves_init
     00024132  A$lcc2270472$398                   mg_leaves_init
     00024134  A$lcc2270472$399                   mg_leaves_init
     00024136  A$lcc2270472$400                   mg_leaves_init
     00024137  A$lcc2270472$401                   mg_leaves_init
     00024138  A$lcc2270472$402                   mg_leaves_init
     00024139  A$lcc2270472$403                   mg_leaves_init
     0002413B  A$lcc2270472$407                   mg_leaves_init
     0002413B  C$mg_leaves_init.c$82$7_3$182      mg_leaves_init
     0002413C  A$lcc2270472$408                   mg_leaves_init
     0002413E  A$lcc2270472$409                   mg_leaves_init
     0002413F  A$lcc2270472$410                   mg_leaves_init
     00024140  A$lcc2270472$411                   mg_leaves_init
     00024141  A$lcc2270472$415                   mg_leaves_init
     00024141  C$mg_leaves_init.c$83$7_3$182      mg_leaves_init
     00024143  A$lcc2270472$416                   mg_leaves_init
     00024144  A$lcc2270472$417                   mg_leaves_init
     00024145  A$lcc2270472$418                   mg_leaves_init
     00024146  A$lcc2270472$419                   mg_leaves_init
ASxxxx Linker V03.00/V05.40 + sdld,  page 145.
Hexadecimal  [32-Bits]

Area                                    Addr        Size        Decimal Bytes (Attributes)
--------------------------------        ----        ----        ------- ----- ------------
_CODE_2                             00024000    00000776 =        1910. bytes (REL,CON)

      Value  Global                              Global Defined In Module
      -----  --------------------------------   ------------------------
     00024147  A$lcc2270472$420                   mg_leaves_init
     00024148  A$lcc2270472$421                   mg_leaves_init
     0002414A  A$lcc2270472$422                   mg_leaves_init
     0002414B  A$lcc2270472$423                   mg_leaves_init
     0002414C  A$lcc2270472$424                   mg_leaves_init
     0002414D  A$lcc2270472$425                   mg_leaves_init
     0002414E  A$lcc2270472$426                   mg_leaves_init
     0002414F  A$lcc2270472$430                   mg_leaves_init
     0002414F  C$mg_leaves_init.c$84$7_3$182      mg_leaves_init
     00024151  A$lcc2270472$435                   mg_leaves_init
     00024151  C$mg_leaves_init.c$80$4_3$179      mg_leaves_init
     00024152  A$lcc2270472$436                   mg_leaves_init
     00024154  A$lcc2270472$441                   mg_leaves_init
     00024154  C$mg_leaves_init.c$71$2_3$177      mg_leaves_init
     00024155  A$lcc2270472$442                   mg_leaves_init
     00024158  A$lcc2270472$447                   mg_leaves_init
     00024158  C$mg_leaves_init.c$89$2_3$183      mg_leaves_init
     0002415A  A$lcc2270472$448                   mg_leaves_init
     0002415C  A$lcc2270472$449                   mg_leaves_init
     0002415D  A$lcc2270472$450                   mg_leaves_init
     0002415F  A$lcc2270472$451                   mg_leaves_init
     00024160  A$lcc2270472$452                   mg_leaves_init
     00024162  A$lcc2270472$453                   mg_leaves_init
     00024163  A$lcc2270472$454                   mg_leaves_init
     00024165  A$lcc2270472$455                   mg_leaves_init
     00024166  A$lcc2270472$456                   mg_leaves_init
     00024168  A$lcc2270472$457                   mg_leaves_init
     00024169  A$lcc2270472$458                   mg_leaves_init
     0002416B  A$lcc2270472$462                   mg_leaves_init
     0002416B  C$mg_leaves_init.c$91$1_5$171      mg_leaves_init
     0002416D  A$lcc2270472$464                   mg_leaves_init
     0002416E  A$lcc2270472$465                   mg_leaves_init
     00024170  A$lcc2270472$466                   mg_leaves_init
     00024172  A$lcc2270472$470                   mg_leaves_init
     00024172  C$mg_leaves_init.c$92$3_4$185      mg_leaves_init
     00024173  A$lcc2270472$471                   mg_leaves_init
     00024175  A$lcc2270472$472                   mg_leaves_init
     00024178  A$lcc2270472$473                   mg_leaves_init
     00024179  A$lcc2270472$474                   mg_leaves_init
     0002417A  A$lcc2270472$475                   mg_leaves_init
     0002417B  A$lcc2270472$476                   mg_leaves_init
     0002417C  A$lcc2270472$477                   mg_leaves_init
     0002417F  A$lcc2270472$478                   mg_leaves_init
     00024180  A$lcc2270472$479                   mg_leaves_init
     00024181  A$lcc2270472$480                   mg_leaves_init
     00024182  A$lcc2270472$481                   mg_leaves_init
     00024184  A$lcc2270472$482                   mg_leaves_init
     00024185  A$lcc2270472$486                   mg_leaves_init
     00024185  C$mg_leaves_init.c$93$3_4$185      mg_leaves_init
     00024186  A$lcc2270472$487                   mg_leaves_init
     00024187  A$lcc2270472$488                   mg_leaves_init
ASxxxx Linker V03.00/V05.40 + sdld,  page 146.
Hexadecimal  [32-Bits]

Area                                    Addr        Size        Decimal Bytes (Attributes)
--------------------------------        ----        ----        ------- ----- ------------
_CODE_2                             00024000    00000776 =        1910. bytes (REL,CON)

      Value  Global                              Global Defined In Module
      -----  --------------------------------   ------------------------
     00024188  A$lcc2270472$489                   mg_leaves_init
     00024189  A$lcc2270472$490                   mg_leaves_init
     0002418A  A$lcc2270472$491                   mg_leaves_init
     0002418C  A$lcc2270472$492                   mg_leaves_init
     0002418F  A$lcc2270472$493                   mg_leaves_init
     00024190  A$lcc2270472$497                   mg_leaves_init
     00024190  C$mg_leaves_init.c$91$2_4$184      mg_leaves_init
     00024191  A$lcc2270472$498                   mg_leaves_init
     00024193  A$lcc2270472$503                   mg_leaves_init
     00024193  C$mg_leaves_init.c$96$1_5$186      mg_leaves_init
     00024196  A$lcc2270472$507                   mg_leaves_init
     00024196  C$mg_leaves_init.c$97$1_5$171      mg_leaves_init
     00024198  A$lcc2270472$508                   mg_leaves_init
     00024199  A$lcc2270472$509                   mg_leaves_init
     0002419B  A$lcc2270472$510                   mg_leaves_init
     0002419E  A$lcc2270472$511                   mg_leaves_init
     0002419F  A$lcc2270472$512                   mg_leaves_init
     000241A1  A$lcc2270472$513                   mg_leaves_init
     000241A4  A$lcc2270472$514                   mg_leaves_init
     000241A5  A$lcc2270472$515                   mg_leaves_init
     000241A7  A$lcc2270472$516                   mg_leaves_init
     000241A9  A$lcc2270472$520                   mg_leaves_init
     000241A9  C$mg_leaves_init.c$98$1_5$171      mg_leaves_init
     000241AA  A$lcc2270472$521                   mg_leaves_init
     000241AB  A$lcc2270472$522                   mg_leaves_init
     000241AD  A$lcc2270472$523                   mg_leaves_init
     000241AE  A$lcc2270472$524                   mg_leaves_init
     000241B1  A$lcc2270472$525                   mg_leaves_init
     000241B2  A$lcc2270472$526                   mg_leaves_init
     000241B4  A$lcc2270472$527                   mg_leaves_init
     000241B7  A$lcc2270472$528                   mg_leaves_init
     000241B8  A$lcc2270472$529                   mg_leaves_init
     000241BA  A$lcc2270472$530                   mg_leaves_init
     000241BC  A$lcc2270472$534                   mg_leaves_init
     000241BC  C$mg_leaves_init.c$99$1_5$171      mg_leaves_init
     000241BD  A$lcc2270472$535                   mg_leaves_init
     000241BF  A$lcc2270472$536                   mg_leaves_init
     000241C0  A$lcc2270472$537                   mg_leaves_init
     000241C3  A$lcc2270472$538                   mg_leaves_init
     000241C4  A$lcc2270472$539                   mg_leaves_init
     000241C6  A$lcc2270472$540                   mg_leaves_init
     000241C8  A$lcc2270472$541                   mg_leaves_init
     000241C9  A$lcc2270472$545                   mg_leaves_init
     000241C9  C$mg_leaves_init.c$101$1_5$186     mg_leaves_init
     000241CB  A$lcc2270472$546                   mg_leaves_init
     000241CC  A$lcc2270472$547                   mg_leaves_init
     000241CD  A$lcc2270472$548                   mg_leaves_init
     000241CF  A$lcc2270472$549                   mg_leaves_init
     000241D1  A$lcc2270472$550                   mg_leaves_init
     000241D4  A$lcc2270472$554                   mg_leaves_init
     000241D4  C$mg_leaves_init.c$102$1_5$186     mg_leaves_init
ASxxxx Linker V03.00/V05.40 + sdld,  page 147.
Hexadecimal  [32-Bits]

Area                                    Addr        Size        Decimal Bytes (Attributes)
--------------------------------        ----        ----        ------- ----- ------------
_CODE_2                             00024000    00000776 =        1910. bytes (REL,CON)

      Value  Global                              Global Defined In Module
      -----  --------------------------------   ------------------------
     000241D6  A$lcc2270472$555                   mg_leaves_init
     000241D7  A$lcc2270472$556                   mg_leaves_init
     000241D8  A$lcc2270472$557                   mg_leaves_init
     000241D9  A$lcc2270472$558                   mg_leaves_init
     000241DB  A$lcc2270472$559                   mg_leaves_init
     000241DD  A$lcc2270472$560                   mg_leaves_init
     000241E0  A$lcc2270472$564                   mg_leaves_init
     000241E0  C$mg_leaves_init.c$103$1_5$186     mg_leaves_init
     000241E2  A$lcc2270472$565                   mg_leaves_init
     000241E3  A$lcc2270472$566                   mg_leaves_init
     000241E4  A$lcc2270472$567                   mg_leaves_init
     000241E5  A$lcc2270472$568                   mg_leaves_init
     000241E7  A$lcc2270472$569                   mg_leaves_init
     000241E9  A$lcc2270472$570                   mg_leaves_init
     000241EC  A$lcc2270472$574                   mg_leaves_init
     000241EC  C$mg_leaves_init.c$104$1_5$186     mg_leaves_init
     000241EE  A$lcc2270472$575                   mg_leaves_init
     000241EF  A$lcc2270472$576                   mg_leaves_init
     000241F0  A$lcc2270472$577                   mg_leaves_init
     000241F1  A$lcc2270472$578                   mg_leaves_init
     000241F3  A$lcc2270472$579                   mg_leaves_init
     000241F5  A$lcc2270472$580                   mg_leaves_init
     000241F8  A$lcc2270472$584                   mg_leaves_init
     000241F8  C$mg_leaves_init.c$106$1_5$186     mg_leaves_init
     000241FB  A$lcc2270472$585                   mg_leaves_init
     000241FE  A$lcc2270472$589                   mg_leaves_init
     00024200  A$lcc2270472$594                   mg_leaves_init
     00024200  C$mg_leaves_init.c$107$1_5$171     mg_leaves_init
     00024200  XG$Mg_Leaves_Init$0$0              mg_leaves_init
     00024201  A$lcc2270474$53                    mg_leaves_player_init
     00024201  C$mg_leaves_player_init.c$11$0_0   mg_leaves_player_init
     00024201  G$Mg_Leaves_Player_Init$0$0        mg_leaves_player_init
     00024201  _Mg_Leaves_Player_Init             mg_leaves_player_init
     00024203  A$lcc2270474$57                    mg_leaves_player_init
     00024203  C$mg_leaves_player_init.c$13$1_0   mg_leaves_player_init
     00024206  A$lcc2270474$58                    mg_leaves_player_init
     00024207  A$lcc2270474$59                    mg_leaves_player_init
     00024209  A$lcc2270474$60                    mg_leaves_player_init
     0002420C  A$lcc2270474$61                    mg_leaves_player_init
     0002420D  A$lcc2270474$62                    mg_leaves_player_init
     0002420F  A$lcc2270474$66                    mg_leaves_player_init
     0002420F  C$mg_leaves_player_init.c$14$1_0   mg_leaves_player_init
     00024212  A$lcc2270474$67                    mg_leaves_player_init
     00024215  A$lcc2270474$68                    mg_leaves_player_init
     00024216  A$lcc2270474$69                    mg_leaves_player_init
     00024218  A$lcc2270474$70                    mg_leaves_player_init
     00024219  A$lcc2270474$71                    mg_leaves_player_init
     0002421B  A$lcc2270474$75                    mg_leaves_player_init
     0002421B  C$mg_leaves_player_init.c$15$1_0   mg_leaves_player_init
     0002421E  A$lcc2270474$76                    mg_leaves_player_init
     00024221  A$lcc2270474$77                    mg_leaves_player_init
ASxxxx Linker V03.00/V05.40 + sdld,  page 148.
Hexadecimal  [32-Bits]

Area                                    Addr        Size        Decimal Bytes (Attributes)
--------------------------------        ----        ----        ------- ----- ------------
_CODE_2                             00024000    00000776 =        1910. bytes (REL,CON)

      Value  Global                              Global Defined In Module
      -----  --------------------------------   ------------------------
     00024222  A$lcc2270474$78                    mg_leaves_player_init
     00024223  A$lcc2270474$79                    mg_leaves_player_init
     00024224  A$lcc2270474$80                    mg_leaves_player_init
     00024225  A$lcc2270474$81                    mg_leaves_player_init
     00024226  A$lcc2270474$82                    mg_leaves_player_init
     00024228  A$lcc2270474$83                    mg_leaves_player_init
     00024229  A$lcc2270474$84                    mg_leaves_player_init
     0002422B  A$lcc2270474$88                    mg_leaves_player_init
     0002422B  C$mg_leaves_player_init.c$17$1_0   mg_leaves_player_init
     0002422E  A$lcc2270474$89                    mg_leaves_player_init
     00024231  A$lcc2270474$90                    mg_leaves_player_init
     00024232  A$lcc2270474$91                    mg_leaves_player_init
     00024233  A$lcc2270474$92                    mg_leaves_player_init
     00024235  A$lcc2270474$93                    mg_leaves_player_init
     00024236  A$lcc2270474$94                    mg_leaves_player_init
     00024239  A$lcc2270474$95                    mg_leaves_player_init
     0002423B  A$lcc2270474$96                    mg_leaves_player_init
     0002423C  A$lcc2270474$97                    mg_leaves_player_init
     0002423E  A$lcc2270474$98                    mg_leaves_player_init
     00024240  A$lcc2270474$99                    mg_leaves_player_init
     00024241  A$lcc2270474$100                   mg_leaves_player_init
     00024242  A$lcc2270474$101                   mg_leaves_player_init
     00024243  A$lcc2270474$102                   mg_leaves_player_init
     00024244  A$lcc2270474$103                   mg_leaves_player_init
     00024245  A$lcc2270474$104                   mg_leaves_player_init
     00024246  A$lcc2270474$108                   mg_leaves_player_init
     00024246  C$mg_leaves_player_init.c$18$1_0   mg_leaves_player_init
     00024249  A$lcc2270474$109                   mg_leaves_player_init
     0002424A  A$lcc2270474$110                   mg_leaves_player_init
     0002424B  A$lcc2270474$111                   mg_leaves_player_init
     0002424D  A$lcc2270474$112                   mg_leaves_player_init
     0002424E  A$lcc2270474$113                   mg_leaves_player_init
     00024250  A$lcc2270474$114                   mg_leaves_player_init
     00024252  A$lcc2270474$115                   mg_leaves_player_init
     00024253  A$lcc2270474$116                   mg_leaves_player_init
     00024254  A$lcc2270474$117                   mg_leaves_player_init
     00024256  A$lcc2270474$118                   mg_leaves_player_init
     00024257  A$lcc2270474$119                   mg_leaves_player_init
     00024258  A$lcc2270474$120                   mg_leaves_player_init
     00024259  A$lcc2270474$121                   mg_leaves_player_init
     0002425A  A$lcc2270474$122                   mg_leaves_player_init
     0002425B  A$lcc2270474$123                   mg_leaves_player_init
     0002425C  A$lcc2270474$124                   mg_leaves_player_init
     0002425D  A$lcc2270474$128                   mg_leaves_player_init
     0002425D  C$mg_leaves_player_init.c$20$1_0   mg_leaves_player_init
     00024260  A$lcc2270474$129                   mg_leaves_player_init
     00024261  A$lcc2270474$130                   mg_leaves_player_init
     00024263  A$lcc2270474$131                   mg_leaves_player_init
     00024266  A$lcc2270474$132                   mg_leaves_player_init
     00024267  A$lcc2270474$133                   mg_leaves_player_init
     00024269  A$lcc2270474$137                   mg_leaves_player_init
ASxxxx Linker V03.00/V05.40 + sdld,  page 149.
Hexadecimal  [32-Bits]

Area                                    Addr        Size        Decimal Bytes (Attributes)
--------------------------------        ----        ----        ------- ----- ------------
_CODE_2                             00024000    00000776 =        1910. bytes (REL,CON)

      Value  Global                              Global Defined In Module
      -----  --------------------------------   ------------------------
     00024269  C$mg_leaves_player_init.c$21$1_0   mg_leaves_player_init
     0002426C  A$lcc2270474$138                   mg_leaves_player_init
     0002426F  A$lcc2270474$139                   mg_leaves_player_init
     00024270  A$lcc2270474$140                   mg_leaves_player_init
     00024272  A$lcc2270474$141                   mg_leaves_player_init
     00024273  A$lcc2270474$142                   mg_leaves_player_init
     00024275  A$lcc2270474$146                   mg_leaves_player_init
     00024275  C$mg_leaves_player_init.c$22$1_0   mg_leaves_player_init
     00024278  A$lcc2270474$147                   mg_leaves_player_init
     0002427B  A$lcc2270474$148                   mg_leaves_player_init
     0002427C  A$lcc2270474$149                   mg_leaves_player_init
     0002427E  A$lcc2270474$150                   mg_leaves_player_init
     0002427F  A$lcc2270474$151                   mg_leaves_player_init
     00024281  A$lcc2270474$155                   mg_leaves_player_init
     00024281  C$mg_leaves_player_init.c$25$2_0   mg_leaves_player_init
     00024283  A$lcc2270474$156                   mg_leaves_player_init
     00024285  A$lcc2270474$157                   mg_leaves_player_init
     00024286  A$lcc2270474$158                   mg_leaves_player_init
     00024288  A$lcc2270474$159                   mg_leaves_player_init
     00024289  A$lcc2270474$160                   mg_leaves_player_init
     0002428B  A$lcc2270474$161                   mg_leaves_player_init
     0002428C  A$lcc2270474$162                   mg_leaves_player_init
     0002428E  A$lcc2270474$166                   mg_leaves_player_init
     0002428E  C$mg_leaves_player_init.c$29$1_1   mg_leaves_player_init
     00024291  A$lcc2270474$167                   mg_leaves_player_init
     00024292  A$lcc2270474$168                   mg_leaves_player_init
     00024294  A$lcc2270474$169                   mg_leaves_player_init
     00024295  A$lcc2270474$170                   mg_leaves_player_init
     00024296  A$lcc2270474$171                   mg_leaves_player_init
     00024297  A$lcc2270474$172                   mg_leaves_player_init
     00024298  A$lcc2270474$173                   mg_leaves_player_init
     00024299  A$lcc2270474$174                   mg_leaves_player_init
     0002429A  A$lcc2270474$175                   mg_leaves_player_init
     0002429B  A$lcc2270474$176                   mg_leaves_player_init
     0002429C  A$lcc2270474$177                   mg_leaves_player_init
     0002429D  A$lcc2270474$178                   mg_leaves_player_init
     000242A0  A$lcc2270474$179                   mg_leaves_player_init
     000242A1  A$lcc2270474$180                   mg_leaves_player_init
     000242A2  A$lcc2270474$181                   mg_leaves_player_init
     000242A3  A$lcc2270474$182                   mg_leaves_player_init
     000242A6  A$lcc2270474$183                   mg_leaves_player_init
     000242A7  A$lcc2270474$184                   mg_leaves_player_init
     000242A9  A$lcc2270474$185                   mg_leaves_player_init
     000242AA  A$lcc2270474$186                   mg_leaves_player_init
     000242AB  A$lcc2270474$187                   mg_leaves_player_init
     000242AE  A$lcc2270474$188                   mg_leaves_player_init
     000242AF  A$lcc2270474$189                   mg_leaves_player_init
     000242B0  A$lcc2270474$190                   mg_leaves_player_init
     000242B1  A$lcc2270474$191                   mg_leaves_player_init
     000242B2  A$lcc2270474$192                   mg_leaves_player_init
     000242B3  A$lcc2270474$193                   mg_leaves_player_init
ASxxxx Linker V03.00/V05.40 + sdld,  page 150.
Hexadecimal  [32-Bits]

Area                                    Addr        Size        Decimal Bytes (Attributes)
--------------------------------        ----        ----        ------- ----- ------------
_CODE_2                             00024000    00000776 =        1910. bytes (REL,CON)

      Value  Global                              Global Defined In Module
      -----  --------------------------------   ------------------------
     000242B4  A$lcc2270474$194                   mg_leaves_player_init
     000242B7  A$lcc2270474$195                   mg_leaves_player_init
     000242BA  A$lcc2270474$199                   mg_leaves_player_init
     000242BC  A$lcc2270474$204                   mg_leaves_player_init
     000242BC  C$mg_leaves_player_init.c$30$1_1   mg_leaves_player_init
     000242BC  XG$Mg_Leaves_Player_Init$0$0       mg_leaves_player_init
     000242BD  A$lcc2270475$61                    mg_leaves_update
     000242BD  C$mg_leaves_update.c$19$0_0$174    mg_leaves_update
     000242BD  G$check_actor_status$0$0           mg_leaves_update
     000242BD  _check_actor_status                mg_leaves_update
     000242BF  A$lcc2270475$65                    mg_leaves_update
     000242BF  C$mg_leaves_update.c$21$4_0$176    mg_leaves_update
     000242C1  A$lcc2270475$66                    mg_leaves_update
     000242C3  A$lcc2270475$68                    mg_leaves_update
     000242C6  A$lcc2270475$69                    mg_leaves_update
     000242C8  A$lcc2270475$70                    mg_leaves_update
     000242C9  A$lcc2270475$71                    mg_leaves_update
     000242CC  A$lcc2270475$75                    mg_leaves_update
     000242CC  C$mg_leaves_update.c$23$2_0$174    mg_leaves_update
     000242CF  A$lcc2270475$76                    mg_leaves_update
     000242D0  A$lcc2270475$77                    mg_leaves_update
     000242D2  A$lcc2270475$78                    mg_leaves_update
     000242D3  A$lcc2270475$79                    mg_leaves_update
     000242D4  A$lcc2270475$80                    mg_leaves_update
     000242D5  A$lcc2270475$81                    mg_leaves_update
     000242D6  A$lcc2270475$82                    mg_leaves_update
     000242D7  A$lcc2270475$83                    mg_leaves_update
     000242D8  A$lcc2270475$84                    mg_leaves_update
     000242D9  A$lcc2270475$85                    mg_leaves_update
     000242DA  A$lcc2270475$86                    mg_leaves_update
     000242DC  A$lcc2270475$87                    mg_leaves_update
     000242DF  A$lcc2270475$88                    mg_leaves_update
     000242E1  A$lcc2270475$89                    mg_leaves_update
     000242E2  A$lcc2270475$90                    mg_leaves_update
     000242E4  A$lcc2270475$91                    mg_leaves_update
     000242E5  A$lcc2270475$92                    mg_leaves_update
     000242E6  A$lcc2270475$93                    mg_leaves_update
     000242E7  A$lcc2270475$94                    mg_leaves_update
     000242E8  A$lcc2270475$95                    mg_leaves_update
     000242E9  A$lcc2270475$96                    mg_leaves_update
     000242EB  A$lcc2270475$100                   mg_leaves_update
     000242EB  C$mg_leaves_update.c$25$6_0$178    mg_leaves_update
     000242EE  A$lcc2270475$101                   mg_leaves_update
     000242EF  A$lcc2270475$102                   mg_leaves_update
     000242F0  A$lcc2270475$103                   mg_leaves_update
     000242F3  A$lcc2270475$104                   mg_leaves_update
     000242F6  A$lcc2270475$105                   mg_leaves_update
     000242F7  A$lcc2270475$106                   mg_leaves_update
     000242F8  A$lcc2270475$107                   mg_leaves_update
     000242FB  A$lcc2270475$111                   mg_leaves_update
     000242FB  C$mg_leaves_update.c$27$7_0$179    mg_leaves_update
ASxxxx Linker V03.00/V05.40 + sdld,  page 151.
Hexadecimal  [32-Bits]

Area                                    Addr        Size        Decimal Bytes (Attributes)
--------------------------------        ----        ----        ------- ----- ------------
_CODE_2                             00024000    00000776 =        1910. bytes (REL,CON)

      Value  Global                              Global Defined In Module
      -----  --------------------------------   ------------------------
     000242FC  A$lcc2270475$112                   mg_leaves_update
     000242FE  A$lcc2270475$113                   mg_leaves_update
     000242FF  A$lcc2270475$117                   mg_leaves_update
     000242FF  C$mg_leaves_update.c$28$7_0$179    mg_leaves_update
     00024302  A$lcc2270475$118                   mg_leaves_update
     00024304  A$lcc2270475$119                   mg_leaves_update
     00024305  A$lcc2270475$120                   mg_leaves_update
     00024307  A$lcc2270475$121                   mg_leaves_update
     00024308  A$lcc2270475$122                   mg_leaves_update
     00024309  A$lcc2270475$123                   mg_leaves_update
     0002430A  A$lcc2270475$124                   mg_leaves_update
     0002430B  A$lcc2270475$125                   mg_leaves_update
     0002430C  A$lcc2270475$129                   mg_leaves_update
     0002430C  C$mg_leaves_update.c$29$7_0$179    mg_leaves_update
     0002430F  A$lcc2270475$130                   mg_leaves_update
     00024311  A$lcc2270475$131                   mg_leaves_update
     00024312  A$lcc2270475$132                   mg_leaves_update
     00024314  A$lcc2270475$133                   mg_leaves_update
     00024315  A$lcc2270475$134                   mg_leaves_update
     00024316  A$lcc2270475$135                   mg_leaves_update
     00024317  A$lcc2270475$136                   mg_leaves_update
     00024319  A$lcc2270475$140                   mg_leaves_update
     00024319  C$mg_leaves_update.c$31$7_0$179    mg_leaves_update
     0002431C  A$lcc2270475$148                   mg_leaves_update
     0002431C  C$mg_leaves_update.c$34$4_0$176    mg_leaves_update
     0002431C  C$mg_leaves_update.c$37$4_0$180    mg_leaves_update
     0002431F  A$lcc2270475$149                   mg_leaves_update
     00024321  A$lcc2270475$150                   mg_leaves_update
     00024322  A$lcc2270475$151                   mg_leaves_update
     00024324  A$lcc2270475$152                   mg_leaves_update
     00024325  A$lcc2270475$153                   mg_leaves_update
     00024326  A$lcc2270475$154                   mg_leaves_update
     00024327  A$lcc2270475$155                   mg_leaves_update
     00024329  A$lcc2270475$156                   mg_leaves_update
     0002432A  A$lcc2270475$157                   mg_leaves_update
     0002432B  A$lcc2270475$158                   mg_leaves_update
     0002432C  A$lcc2270475$159                   mg_leaves_update
     0002432E  A$lcc2270475$160                   mg_leaves_update
     0002432F  A$lcc2270475$161                   mg_leaves_update
     00024330  A$lcc2270475$162                   mg_leaves_update
     00024331  A$lcc2270475$163                   mg_leaves_update
     00024332  A$lcc2270475$164                   mg_leaves_update
     00024333  A$lcc2270475$165                   mg_leaves_update
     00024334  A$lcc2270475$166                   mg_leaves_update
     00024336  A$lcc2270475$170                   mg_leaves_update
     00024336  C$mg_leaves_update.c$38$4_0$180    mg_leaves_update
     00024339  A$lcc2270475$171                   mg_leaves_update
     0002433B  A$lcc2270475$172                   mg_leaves_update
     0002433C  A$lcc2270475$173                   mg_leaves_update
     0002433E  A$lcc2270475$174                   mg_leaves_update
     0002433F  A$lcc2270475$175                   mg_leaves_update
ASxxxx Linker V03.00/V05.40 + sdld,  page 152.
Hexadecimal  [32-Bits]

Area                                    Addr        Size        Decimal Bytes (Attributes)
--------------------------------        ----        ----        ------- ----- ------------
_CODE_2                             00024000    00000776 =        1910. bytes (REL,CON)

      Value  Global                              Global Defined In Module
      -----  --------------------------------   ------------------------
     00024340  A$lcc2270475$176                   mg_leaves_update
     00024341  A$lcc2270475$177                   mg_leaves_update
     00024343  A$lcc2270475$178                   mg_leaves_update
     00024344  A$lcc2270475$179                   mg_leaves_update
     00024345  A$lcc2270475$180                   mg_leaves_update
     00024346  A$lcc2270475$181                   mg_leaves_update
     00024348  A$lcc2270475$182                   mg_leaves_update
     00024349  A$lcc2270475$183                   mg_leaves_update
     0002434A  A$lcc2270475$184                   mg_leaves_update
     0002434B  A$lcc2270475$185                   mg_leaves_update
     0002434C  A$lcc2270475$186                   mg_leaves_update
     0002434D  A$lcc2270475$187                   mg_leaves_update
     0002434E  A$lcc2270475$188                   mg_leaves_update
     0002434F  A$lcc2270475$189                   mg_leaves_update
     00024350  A$lcc2270475$190                   mg_leaves_update
     00024351  A$lcc2270475$191                   mg_leaves_update
     00024352  A$lcc2270475$192                   mg_leaves_update
     00024353  A$lcc2270475$193                   mg_leaves_update
     00024354  A$lcc2270475$198                   mg_leaves_update
     00024354  C$mg_leaves_update.c$40$4_0$181    mg_leaves_update
     00024357  A$lcc2270475$199                   mg_leaves_update
     00024359  A$lcc2270475$200                   mg_leaves_update
     0002435A  A$lcc2270475$201                   mg_leaves_update
     0002435C  A$lcc2270475$202                   mg_leaves_update
     0002435D  A$lcc2270475$203                   mg_leaves_update
     0002435E  A$lcc2270475$204                   mg_leaves_update
     0002435F  A$lcc2270475$205                   mg_leaves_update
     00024361  A$lcc2270475$206                   mg_leaves_update
     00024362  A$lcc2270475$207                   mg_leaves_update
     00024363  A$lcc2270475$208                   mg_leaves_update
     00024364  A$lcc2270475$209                   mg_leaves_update
     00024366  A$lcc2270475$210                   mg_leaves_update
     00024367  A$lcc2270475$211                   mg_leaves_update
     00024368  A$lcc2270475$212                   mg_leaves_update
     00024369  A$lcc2270475$213                   mg_leaves_update
     0002436A  A$lcc2270475$214                   mg_leaves_update
     0002436B  A$lcc2270475$215                   mg_leaves_update
     0002436C  A$lcc2270475$216                   mg_leaves_update
     0002436D  A$lcc2270475$217                   mg_leaves_update
     0002436E  A$lcc2270475$218                   mg_leaves_update
     0002436F  A$lcc2270475$219                   mg_leaves_update
     00024372  A$lcc2270475$220                   mg_leaves_update
     00024373  A$lcc2270475$221                   mg_leaves_update
     00024375  A$lcc2270475$222                   mg_leaves_update
     00024376  A$lcc2270475$223                   mg_leaves_update
     00024377  A$lcc2270475$224                   mg_leaves_update
     00024378  A$lcc2270475$225                   mg_leaves_update
     00024379  A$lcc2270475$226                   mg_leaves_update
     0002437A  A$lcc2270475$227                   mg_leaves_update
     0002437B  A$lcc2270475$228                   mg_leaves_update
     0002437D  A$lcc2270475$229                   mg_leaves_update
ASxxxx Linker V03.00/V05.40 + sdld,  page 153.
Hexadecimal  [32-Bits]

Area                                    Addr        Size        Decimal Bytes (Attributes)
--------------------------------        ----        ----        ------- ----- ------------
_CODE_2                             00024000    00000776 =        1910. bytes (REL,CON)

      Value  Global                              Global Defined In Module
      -----  --------------------------------   ------------------------
     0002437F  A$lcc2270475$230                   mg_leaves_update
     00024381  A$lcc2270475$231                   mg_leaves_update
     00024383  A$lcc2270475$232                   mg_leaves_update
     00024384  A$lcc2270475$233                   mg_leaves_update
     00024386  A$lcc2270475$235                   mg_leaves_update
     00024388  A$lcc2270475$236                   mg_leaves_update
     0002438A  A$lcc2270475$237                   mg_leaves_update
     0002438B  A$lcc2270475$239                   mg_leaves_update
     0002438D  A$lcc2270475$240                   mg_leaves_update
     0002438F  A$lcc2270475$241                   mg_leaves_update
     00024390  A$lcc2270475$242                   mg_leaves_update
     00024391  A$lcc2270475$243                   mg_leaves_update
     00024392  A$lcc2270475$244                   mg_leaves_update
     00024393  A$lcc2270475$245                   mg_leaves_update
     00024394  A$lcc2270475$246                   mg_leaves_update
     00024396  A$lcc2270475$250                   mg_leaves_update
     00024396  C$mg_leaves_update.c$41$4_0$181    mg_leaves_update
     00024397  A$lcc2270475$251                   mg_leaves_update
     00024398  A$lcc2270475$252                   mg_leaves_update
     00024399  A$lcc2270475$253                   mg_leaves_update
     0002439B  A$lcc2270475$258                   mg_leaves_update
     0002439B  C$mg_leaves_update.c$43$4_0$182    mg_leaves_update
     0002439E  A$lcc2270475$259                   mg_leaves_update
     0002439F  A$lcc2270475$260                   mg_leaves_update
     000243A2  A$lcc2270475$264                   mg_leaves_update
     000243A2  C$mg_leaves_update.c$46$6_0$184    mg_leaves_update
     000243A4  A$lcc2270475$265                   mg_leaves_update
     000243A5  A$lcc2270475$266                   mg_leaves_update
     000243A7  A$lcc2270475$267                   mg_leaves_update
     000243A9  A$lcc2270475$271                   mg_leaves_update
     000243A9  C$mg_leaves_update.c$47$6_0$184    mg_leaves_update
     000243AB  A$lcc2270475$272                   mg_leaves_update
     000243AD  A$lcc2270475$273                   mg_leaves_update
     000243AF  A$lcc2270475$278                   mg_leaves_update
     000243AF  C$mg_leaves_update.c$49$6_0$184    mg_leaves_update
     000243B1  A$lcc2270475$279                   mg_leaves_update
     000243B3  A$lcc2270475$284                   mg_leaves_update
     000243B6  A$lcc2270475$285                   mg_leaves_update
     000243B8  A$lcc2270475$286                   mg_leaves_update
     000243B9  A$lcc2270475$287                   mg_leaves_update
     000243BB  A$lcc2270475$288                   mg_leaves_update
     000243BC  A$lcc2270475$289                   mg_leaves_update
     000243BD  A$lcc2270475$290                   mg_leaves_update
     000243BE  A$lcc2270475$291                   mg_leaves_update
     000243C0  A$lcc2270475$292                   mg_leaves_update
     000243C1  A$lcc2270475$293                   mg_leaves_update
     000243C2  A$lcc2270475$294                   mg_leaves_update
     000243C3  A$lcc2270475$295                   mg_leaves_update
     000243C5  A$lcc2270475$296                   mg_leaves_update
     000243C6  A$lcc2270475$297                   mg_leaves_update
     000243C7  A$lcc2270475$298                   mg_leaves_update
ASxxxx Linker V03.00/V05.40 + sdld,  page 154.
Hexadecimal  [32-Bits]

Area                                    Addr        Size        Decimal Bytes (Attributes)
--------------------------------        ----        ----        ------- ----- ------------
_CODE_2                             00024000    00000776 =        1910. bytes (REL,CON)

      Value  Global                              Global Defined In Module
      -----  --------------------------------   ------------------------
     000243C8  A$lcc2270475$299                   mg_leaves_update
     000243C9  A$lcc2270475$300                   mg_leaves_update
     000243CA  A$lcc2270475$301                   mg_leaves_update
     000243CB  A$lcc2270475$302                   mg_leaves_update
     000243CE  A$lcc2270475$303                   mg_leaves_update
     000243CF  A$lcc2270475$307                   mg_leaves_update
     000243CF  C$mg_leaves_update.c$37$2_0$174    mg_leaves_update
     000243D1  A$lcc2270475$308                   mg_leaves_update
     000243D2  A$lcc2270475$309                   mg_leaves_update
     000243D3  A$lcc2270475$310                   mg_leaves_update
     000243D4  A$lcc2270475$311                   mg_leaves_update
     000243D5  A$lcc2270475$315                   mg_leaves_update
     000243D5  C$mg_leaves_update.c$52$2_0$174    mg_leaves_update
     000243D7  A$lcc2270475$316                   mg_leaves_update
     000243D9  A$lcc2270475$317                   mg_leaves_update
     000243DB  A$lcc2270475$318                   mg_leaves_update
     000243DC  A$lcc2270475$320                   mg_leaves_update
     000243DE  A$lcc2270475$321                   mg_leaves_update
     000243DF  A$lcc2270475$325                   mg_leaves_update
     000243DF  C$mg_leaves_update.c$51$6_0$185    mg_leaves_update
     000243E0  A$lcc2270475$326                   mg_leaves_update
     000243E1  A$lcc2270475$327                   mg_leaves_update
     000243E3  A$lcc2270475$331                   mg_leaves_update
     000243E3  C$mg_leaves_update.c$52$6_0$185    mg_leaves_update
     000243E4  A$lcc2270475$332                   mg_leaves_update
     000243E5  A$lcc2270475$333                   mg_leaves_update
     000243E7  A$lcc2270475$337                   mg_leaves_update
     000243E7  C$mg_leaves_update.c$54$7_0$186    mg_leaves_update
     000243E9  A$lcc2270475$338                   mg_leaves_update
     000243EA  A$lcc2270475$339                   mg_leaves_update
     000243EB  A$lcc2270475$340                   mg_leaves_update
     000243EC  A$lcc2270475$341                   mg_leaves_update
     000243EE  A$lcc2270475$345                   mg_leaves_update
     000243EE  C$mg_leaves_update.c$55$7_0$186    mg_leaves_update
     000243EF  A$lcc2270475$346                   mg_leaves_update
     000243F1  A$lcc2270475$347                   mg_leaves_update
     000243F2  A$lcc2270475$351                   mg_leaves_update
     000243F2  C$mg_leaves_update.c$56$7_0$186    mg_leaves_update
     000243F4  A$lcc2270475$352                   mg_leaves_update
     000243F5  A$lcc2270475$353                   mg_leaves_update
     000243F6  A$lcc2270475$354                   mg_leaves_update
     000243F7  A$lcc2270475$355                   mg_leaves_update
     000243F9  A$lcc2270475$359                   mg_leaves_update
     000243F9  C$mg_leaves_update.c$58$7_0$186    mg_leaves_update
     000243FB  A$lcc2270475$360                   mg_leaves_update
     000243FE  A$lcc2270475$361                   mg_leaves_update
     000243FF  A$lcc2270475$362                   mg_leaves_update
     00024401  A$lcc2270475$366                   mg_leaves_update
     00024401  C$mg_leaves_update.c$59$7_0$186    mg_leaves_update
     00024403  A$lcc2270475$367                   mg_leaves_update
     00024404  A$lcc2270475$368                   mg_leaves_update
ASxxxx Linker V03.00/V05.40 + sdld,  page 155.
Hexadecimal  [32-Bits]

Area                                    Addr        Size        Decimal Bytes (Attributes)
--------------------------------        ----        ----        ------- ----- ------------
_CODE_2                             00024000    00000776 =        1910. bytes (REL,CON)

      Value  Global                              Global Defined In Module
      -----  --------------------------------   ------------------------
     00024405  A$lcc2270475$372                   mg_leaves_update
     00024405  C$mg_leaves_update.c$61$7_1$187    mg_leaves_update
     00024408  A$lcc2270475$373                   mg_leaves_update
     00024409  A$lcc2270475$374                   mg_leaves_update
     0002440A  A$lcc2270475$375                   mg_leaves_update
     0002440D  A$lcc2270475$376                   mg_leaves_update
     00024410  A$lcc2270475$380                   mg_leaves_update
     00024410  C$mg_leaves_update.c$63$7_1$187    mg_leaves_update
     00024411  A$lcc2270475$381                   mg_leaves_update
     00024413  A$lcc2270475$382                   mg_leaves_update
     00024416  A$lcc2270475$383                   mg_leaves_update
     00024417  A$lcc2270475$384                   mg_leaves_update
     00024418  A$lcc2270475$385                   mg_leaves_update
     0002441A  A$lcc2270475$386                   mg_leaves_update
     0002441B  A$lcc2270475$387                   mg_leaves_update
     0002441C  A$lcc2270475$388                   mg_leaves_update
     0002441D  A$lcc2270475$389                   mg_leaves_update
     0002441E  A$lcc2270475$390                   mg_leaves_update
     0002441F  A$lcc2270475$394                   mg_leaves_update
     00024422  A$lcc2270475$395                   mg_leaves_update
     00024423  A$lcc2270475$399                   mg_leaves_update
     00024423  C$mg_leaves_update.c$64$8_1$188    mg_leaves_update
     00024425  A$lcc2270475$400                   mg_leaves_update
     00024426  A$lcc2270475$401                   mg_leaves_update
     00024427  A$lcc2270475$402                   mg_leaves_update
     00024429  A$lcc2270475$406                   mg_leaves_update
     00024429  C$mg_leaves_update.c$65$8_1$188    mg_leaves_update
     0002442A  A$lcc2270475$407                   mg_leaves_update
     0002442C  A$lcc2270475$408                   mg_leaves_update
     0002442F  A$lcc2270475$409                   mg_leaves_update
     00024432  A$lcc2270475$414                   mg_leaves_update
     00024432  C$mg_leaves_update.c$67$8_1$188    mg_leaves_update
     00024433  A$lcc2270475$415                   mg_leaves_update
     00024435  A$lcc2270475$416                   mg_leaves_update
     00024438  A$lcc2270475$417                   mg_leaves_update
     0002443B  A$lcc2270475$422                   mg_leaves_update
     0002443B  C$mg_leaves_update.c$69$7_0$189    mg_leaves_update
     0002443E  A$lcc2270475$423                   mg_leaves_update
     0002443F  A$lcc2270475$424                   mg_leaves_update
     00024442  A$lcc2270475$428                   mg_leaves_update
     00024442  C$mg_leaves_update.c$70$7_0$189    mg_leaves_update
     00024444  A$lcc2270475$429                   mg_leaves_update
     00024445  A$lcc2270475$430                   mg_leaves_update
     00024446  A$lcc2270475$431                   mg_leaves_update
     00024448  A$lcc2270475$435                   mg_leaves_update
     00024448  C$mg_leaves_update.c$72$8_0$190    mg_leaves_update
     0002444A  A$lcc2270475$436                   mg_leaves_update
     0002444B  A$lcc2270475$437                   mg_leaves_update
     0002444C  A$lcc2270475$438                   mg_leaves_update
     0002444D  A$lcc2270475$439                   mg_leaves_update
     0002444F  A$lcc2270475$443                   mg_leaves_update
ASxxxx Linker V03.00/V05.40 + sdld,  page 156.
Hexadecimal  [32-Bits]

Area                                    Addr        Size        Decimal Bytes (Attributes)
--------------------------------        ----        ----        ------- ----- ------------
_CODE_2                             00024000    00000776 =        1910. bytes (REL,CON)

      Value  Global                              Global Defined In Module
      -----  --------------------------------   ------------------------
     0002444F  C$mg_leaves_update.c$73$8_0$190    mg_leaves_update
     00024450  A$lcc2270475$444                   mg_leaves_update
     00024452  A$lcc2270475$445                   mg_leaves_update
     00024453  A$lcc2270475$449                   mg_leaves_update
     00024453  C$mg_leaves_update.c$74$8_0$190    mg_leaves_update
     00024455  A$lcc2270475$450                   mg_leaves_update
     00024456  A$lcc2270475$451                   mg_leaves_update
     00024457  A$lcc2270475$452                   mg_leaves_update
     00024458  A$lcc2270475$453                   mg_leaves_update
     0002445A  A$lcc2270475$457                   mg_leaves_update
     0002445A  C$mg_leaves_update.c$76$8_0$190    mg_leaves_update
     0002445C  A$lcc2270475$458                   mg_leaves_update
     0002445F  A$lcc2270475$459                   mg_leaves_update
     00024460  A$lcc2270475$460                   mg_leaves_update
     00024462  A$lcc2270475$464                   mg_leaves_update
     00024462  C$mg_leaves_update.c$77$8_0$190    mg_leaves_update
     00024464  A$lcc2270475$465                   mg_leaves_update
     00024465  A$lcc2270475$466                   mg_leaves_update
     00024466  A$lcc2270475$470                   mg_leaves_update
     00024466  C$mg_leaves_update.c$79$8_1$191    mg_leaves_update
     00024469  A$lcc2270475$471                   mg_leaves_update
     0002446A  A$lcc2270475$472                   mg_leaves_update
     0002446B  A$lcc2270475$473                   mg_leaves_update
     0002446E  A$lcc2270475$474                   mg_leaves_update
     00024471  A$lcc2270475$475                   mg_leaves_update
     00024472  A$lcc2270475$479                   mg_leaves_update
     00024472  C$mg_leaves_update.c$81$8_1$191    mg_leaves_update
     00024474  A$lcc2270475$480                   mg_leaves_update
     00024475  A$lcc2270475$481                   mg_leaves_update
     00024477  A$lcc2270475$482                   mg_leaves_update
     00024479  A$lcc2270475$483                   mg_leaves_update
     0002447A  A$lcc2270475$484                   mg_leaves_update
     0002447B  A$lcc2270475$485                   mg_leaves_update
     0002447D  A$lcc2270475$486                   mg_leaves_update
     0002447E  A$lcc2270475$487                   mg_leaves_update
     0002447F  A$lcc2270475$488                   mg_leaves_update
     00024480  A$lcc2270475$489                   mg_leaves_update
     00024481  A$lcc2270475$490                   mg_leaves_update
     00024482  A$lcc2270475$494                   mg_leaves_update
     00024482  C$mg_leaves_update.c$82$8_1$191    mg_leaves_update
     00024484  A$lcc2270475$495                   mg_leaves_update
     00024485  A$lcc2270475$496                   mg_leaves_update
     00024486  A$lcc2270475$497                   mg_leaves_update
     00024487  A$lcc2270475$498                   mg_leaves_update
     00024489  A$lcc2270475$502                   mg_leaves_update
     00024489  C$mg_leaves_update.c$83$8_1$191    mg_leaves_update
     0002448A  A$lcc2270475$503                   mg_leaves_update
     0002448C  A$lcc2270475$504                   mg_leaves_update
     0002448D  A$lcc2270475$508                   mg_leaves_update
     0002448D  C$mg_leaves_update.c$84$8_1$191    mg_leaves_update
     0002448F  A$lcc2270475$509                   mg_leaves_update
ASxxxx Linker V03.00/V05.40 + sdld,  page 157.
Hexadecimal  [32-Bits]

Area                                    Addr        Size        Decimal Bytes (Attributes)
--------------------------------        ----        ----        ------- ----- ------------
_CODE_2                             00024000    00000776 =        1910. bytes (REL,CON)

      Value  Global                              Global Defined In Module
      -----  --------------------------------   ------------------------
     00024490  A$lcc2270475$510                   mg_leaves_update
     00024491  A$lcc2270475$511                   mg_leaves_update
     00024492  A$lcc2270475$512                   mg_leaves_update
     00024494  A$lcc2270475$516                   mg_leaves_update
     00024494  C$mg_leaves_update.c$86$8_1$191    mg_leaves_update
     00024496  A$lcc2270475$517                   mg_leaves_update
     00024499  A$lcc2270475$518                   mg_leaves_update
     0002449A  A$lcc2270475$519                   mg_leaves_update
     0002449C  A$lcc2270475$523                   mg_leaves_update
     0002449C  C$mg_leaves_update.c$87$8_1$191    mg_leaves_update
     0002449E  A$lcc2270475$524                   mg_leaves_update
     0002449F  A$lcc2270475$525                   mg_leaves_update
     000244A0  A$lcc2270475$529                   mg_leaves_update
     000244A0  C$mg_leaves_update.c$89$8_1$191    mg_leaves_update
     000244A1  A$lcc2270475$530                   mg_leaves_update
     000244A3  A$lcc2270475$531                   mg_leaves_update
     000244A4  A$lcc2270475$532                   mg_leaves_update
     000244A5  A$lcc2270475$533                   mg_leaves_update
     000244A6  A$lcc2270475$534                   mg_leaves_update
     000244A7  A$lcc2270475$535                   mg_leaves_update
     000244A8  A$lcc2270475$539                   mg_leaves_update
     000244A8  C$mg_leaves_update.c$65$2_0$174    mg_leaves_update
     000244AB  A$lcc2270475$540                   mg_leaves_update
     000244AC  A$lcc2270475$544                   mg_leaves_update
     000244AC  C$mg_leaves_update.c$90$9_1$192    mg_leaves_update
     000244AE  A$lcc2270475$545                   mg_leaves_update
     000244AF  A$lcc2270475$546                   mg_leaves_update
     000244B0  A$lcc2270475$547                   mg_leaves_update
     000244B2  A$lcc2270475$551                   mg_leaves_update
     000244B2  C$mg_leaves_update.c$91$9_1$192    mg_leaves_update
     000244B3  A$lcc2270475$552                   mg_leaves_update
     000244B5  A$lcc2270475$553                   mg_leaves_update
     000244B8  A$lcc2270475$554                   mg_leaves_update
     000244BA  A$lcc2270475$559                   mg_leaves_update
     000244BA  C$mg_leaves_update.c$93$9_1$192    mg_leaves_update
     000244BB  A$lcc2270475$560                   mg_leaves_update
     000244BD  A$lcc2270475$561                   mg_leaves_update
     000244C0  A$lcc2270475$566                   mg_leaves_update
     000244C0  C$mg_leaves_update.c$97$4_0$193    mg_leaves_update
     000244C2  A$lcc2270475$567                   mg_leaves_update
     000244C3  A$lcc2270475$568                   mg_leaves_update
     000244C4  A$lcc2270475$569                   mg_leaves_update
     000244C5  A$lcc2270475$570                   mg_leaves_update
     000244C6  A$lcc2270475$571                   mg_leaves_update
     000244C8  A$lcc2270475$572                   mg_leaves_update
     000244CA  A$lcc2270475$573                   mg_leaves_update
     000244CD  A$lcc2270475$574                   mg_leaves_update
     000244CE  A$lcc2270475$575                   mg_leaves_update
     000244D0  A$lcc2270475$579                   mg_leaves_update
     000244D0  C$mg_leaves_update.c$98$4_0$193    mg_leaves_update
     000244D3  A$lcc2270475$580                   mg_leaves_update
ASxxxx Linker V03.00/V05.40 + sdld,  page 158.
Hexadecimal  [32-Bits]

Area                                    Addr        Size        Decimal Bytes (Attributes)
--------------------------------        ----        ----        ------- ----- ------------
_CODE_2                             00024000    00000776 =        1910. bytes (REL,CON)

      Value  Global                              Global Defined In Module
      -----  --------------------------------   ------------------------
     000244D5  A$lcc2270475$581                   mg_leaves_update
     000244D6  A$lcc2270475$582                   mg_leaves_update
     000244D8  A$lcc2270475$583                   mg_leaves_update
     000244D9  A$lcc2270475$584                   mg_leaves_update
     000244DA  A$lcc2270475$585                   mg_leaves_update
     000244DB  A$lcc2270475$586                   mg_leaves_update
     000244DD  A$lcc2270475$587                   mg_leaves_update
     000244DE  A$lcc2270475$588                   mg_leaves_update
     000244DF  A$lcc2270475$589                   mg_leaves_update
     000244E0  A$lcc2270475$590                   mg_leaves_update
     000244E2  A$lcc2270475$591                   mg_leaves_update
     000244E3  A$lcc2270475$592                   mg_leaves_update
     000244E6  A$lcc2270475$593                   mg_leaves_update
     000244E7  A$lcc2270475$594                   mg_leaves_update
     000244E9  A$lcc2270475$595                   mg_leaves_update
     000244EC  A$lcc2270475$596                   mg_leaves_update
     000244ED  A$lcc2270475$597                   mg_leaves_update
     000244EE  A$lcc2270475$598                   mg_leaves_update
     000244F0  A$lcc2270475$599                   mg_leaves_update
     000244F2  A$lcc2270475$600                   mg_leaves_update
     000244F3  A$lcc2270475$601                   mg_leaves_update
     000244F4  A$lcc2270475$602                   mg_leaves_update
     000244F5  A$lcc2270475$603                   mg_leaves_update
     000244F6  A$lcc2270475$604                   mg_leaves_update
     000244F7  A$lcc2270475$609                   mg_leaves_update
     000244F7  C$mg_leaves_update.c$100$4_0$194   mg_leaves_update
     000244F9  A$lcc2270475$610                   mg_leaves_update
     000244FA  A$lcc2270475$611                   mg_leaves_update
     000244FB  A$lcc2270475$612                   mg_leaves_update
     000244FC  A$lcc2270475$613                   mg_leaves_update
     000244FD  A$lcc2270475$614                   mg_leaves_update
     000244FF  A$lcc2270475$615                   mg_leaves_update
     00024501  A$lcc2270475$616                   mg_leaves_update
     00024504  A$lcc2270475$617                   mg_leaves_update
     00024505  A$lcc2270475$618                   mg_leaves_update
     00024507  A$lcc2270475$622                   mg_leaves_update
     00024507  C$mg_leaves_update.c$101$4_0$194   mg_leaves_update
     0002450A  A$lcc2270475$623                   mg_leaves_update
     0002450C  A$lcc2270475$624                   mg_leaves_update
     0002450D  A$lcc2270475$625                   mg_leaves_update
     0002450F  A$lcc2270475$626                   mg_leaves_update
     00024510  A$lcc2270475$627                   mg_leaves_update
     00024511  A$lcc2270475$628                   mg_leaves_update
     00024512  A$lcc2270475$629                   mg_leaves_update
     00024514  A$lcc2270475$630                   mg_leaves_update
     00024515  A$lcc2270475$631                   mg_leaves_update
     00024516  A$lcc2270475$632                   mg_leaves_update
     00024517  A$lcc2270475$633                   mg_leaves_update
     00024519  A$lcc2270475$634                   mg_leaves_update
     0002451A  A$lcc2270475$635                   mg_leaves_update
     0002451D  A$lcc2270475$636                   mg_leaves_update
ASxxxx Linker V03.00/V05.40 + sdld,  page 159.
Hexadecimal  [32-Bits]

Area                                    Addr        Size        Decimal Bytes (Attributes)
--------------------------------        ----        ----        ------- ----- ------------
_CODE_2                             00024000    00000776 =        1910. bytes (REL,CON)

      Value  Global                              Global Defined In Module
      -----  --------------------------------   ------------------------
     0002451F  A$lcc2270475$637                   mg_leaves_update
     00024520  A$lcc2270475$638                   mg_leaves_update
     00024521  A$lcc2270475$639                   mg_leaves_update
     00024523  A$lcc2270475$640                   mg_leaves_update
     00024526  A$lcc2270475$641                   mg_leaves_update
     00024527  A$lcc2270475$642                   mg_leaves_update
     00024528  A$lcc2270475$643                   mg_leaves_update
     00024529  A$lcc2270475$644                   mg_leaves_update
     0002452B  A$lcc2270475$645                   mg_leaves_update
     0002452C  A$lcc2270475$646                   mg_leaves_update
     0002452D  A$lcc2270475$647                   mg_leaves_update
     0002452E  A$lcc2270475$648                   mg_leaves_update
     00024530  A$lcc2270475$649                   mg_leaves_update
     00024531  A$lcc2270475$650                   mg_leaves_update
     00024532  A$lcc2270475$651                   mg_leaves_update
     00024533  A$lcc2270475$652                   mg_leaves_update
     00024534  A$lcc2270475$653                   mg_leaves_update
     00024535  A$lcc2270475$654                   mg_leaves_update
     00024537  A$lcc2270475$655                   mg_leaves_update
     00024538  A$lcc2270475$656                   mg_leaves_update
     00024539  A$lcc2270475$657                   mg_leaves_update
     0002453A  A$lcc2270475$658                   mg_leaves_update
     0002453C  A$lcc2270475$659                   mg_leaves_update
     0002453D  A$lcc2270475$660                   mg_leaves_update
     0002453E  A$lcc2270475$661                   mg_leaves_update
     0002453F  A$lcc2270475$662                   mg_leaves_update
     00024540  A$lcc2270475$663                   mg_leaves_update
     00024541  A$lcc2270475$668                   mg_leaves_update
     00024541  C$mg_leaves_update.c$103$3_0$175   mg_leaves_update
     00024543  A$lcc2270475$669                   mg_leaves_update
     00024544  A$lcc2270475$670                   mg_leaves_update
     00024545  A$lcc2270475$671                   mg_leaves_update
     00024546  A$lcc2270475$672                   mg_leaves_update
     00024547  A$lcc2270475$673                   mg_leaves_update
     00024548  A$lcc2270475$674                   mg_leaves_update
     0002454B  A$lcc2270475$675                   mg_leaves_update
     0002454D  A$lcc2270475$676                   mg_leaves_update
     0002454E  A$lcc2270475$677                   mg_leaves_update
     00024550  A$lcc2270475$678                   mg_leaves_update
     00024551  A$lcc2270475$679                   mg_leaves_update
     00024552  A$lcc2270475$680                   mg_leaves_update
     00024553  A$lcc2270475$681                   mg_leaves_update
     00024554  A$lcc2270475$682                   mg_leaves_update
     00024555  A$lcc2270475$683                   mg_leaves_update
     00024558  A$lcc2270475$684                   mg_leaves_update
     0002455A  A$lcc2270475$685                   mg_leaves_update
     0002455B  A$lcc2270475$686                   mg_leaves_update
     0002455D  A$lcc2270475$687                   mg_leaves_update
     0002455E  A$lcc2270475$688                   mg_leaves_update
     0002455F  A$lcc2270475$689                   mg_leaves_update
     00024560  A$lcc2270475$690                   mg_leaves_update
ASxxxx Linker V03.00/V05.40 + sdld,  page 160.
Hexadecimal  [32-Bits]

Area                                    Addr        Size        Decimal Bytes (Attributes)
--------------------------------        ----        ----        ------- ----- ------------
_CODE_2                             00024000    00000776 =        1910. bytes (REL,CON)

      Value  Global                              Global Defined In Module
      -----  --------------------------------   ------------------------
     00024561  A$lcc2270475$691                   mg_leaves_update
     00024563  A$lcc2270475$692                   mg_leaves_update
     00024564  A$lcc2270475$693                   mg_leaves_update
     00024565  A$lcc2270475$694                   mg_leaves_update
     00024567  A$lcc2270475$695                   mg_leaves_update
     00024568  A$lcc2270475$696                   mg_leaves_update
     00024569  A$lcc2270475$697                   mg_leaves_update
     0002456A  A$lcc2270475$698                   mg_leaves_update
     0002456D  A$lcc2270475$703                   mg_leaves_update
     0002456D  C$mg_leaves_update.c$21$2_0$174    mg_leaves_update
     0002456F  A$lcc2270475$704                   mg_leaves_update
     00024570  A$lcc2270475$705                   mg_leaves_update
     00024573  A$lcc2270475$710                   mg_leaves_update
     00024575  A$lcc2270475$715                   mg_leaves_update
     00024575  C$mg_leaves_update.c$105$2_0$174   mg_leaves_update
     00024575  XG$check_actor_status$0$0          mg_leaves_update
     00024576  A$lcc2270475$725                   mg_leaves_update
     00024576  C$mg_leaves_update.c$107$2_0$196   mg_leaves_update
     00024576  G$check_actor_collision$0$0        mg_leaves_update
     00024576  _check_actor_collision             mg_leaves_update
     00024578  A$lcc2270475$729                   mg_leaves_update
     00024578  C$mg_leaves_update.c$109$1_0$195   mg_leaves_update
     0002457B  A$lcc2270475$730                   mg_leaves_update
     0002457E  A$lcc2270475$731                   mg_leaves_update
     0002457F  A$lcc2270475$732                   mg_leaves_update
     00024581  A$lcc2270475$733                   mg_leaves_update
     00024582  A$lcc2270475$734                   mg_leaves_update
     00024583  A$lcc2270475$735                   mg_leaves_update
     00024585  A$lcc2270475$736                   mg_leaves_update
     00024586  A$lcc2270475$740                   mg_leaves_update
     00024586  C$mg_leaves_update.c$111$3_1$199   mg_leaves_update
     00024588  A$lcc2270475$741                   mg_leaves_update
     0002458A  A$lcc2270475$743                   mg_leaves_update
     0002458C  A$lcc2270475$744                   mg_leaves_update
     0002458D  A$lcc2270475$745                   mg_leaves_update
     0002458F  A$lcc2270475$746                   mg_leaves_update
     00024592  A$lcc2270475$750                   mg_leaves_update
     00024592  C$mg_leaves_update.c$113$2_0$196   mg_leaves_update
     00024595  A$lcc2270475$751                   mg_leaves_update
     00024596  A$lcc2270475$752                   mg_leaves_update
     00024598  A$lcc2270475$753                   mg_leaves_update
     00024599  A$lcc2270475$754                   mg_leaves_update
     0002459A  A$lcc2270475$755                   mg_leaves_update
     0002459B  A$lcc2270475$756                   mg_leaves_update
     0002459D  A$lcc2270475$757                   mg_leaves_update
     0002459E  A$lcc2270475$758                   mg_leaves_update
     0002459F  A$lcc2270475$759                   mg_leaves_update
     000245A0  A$lcc2270475$760                   mg_leaves_update
     000245A2  A$lcc2270475$761                   mg_leaves_update
     000245A3  A$lcc2270475$762                   mg_leaves_update
     000245A4  A$lcc2270475$763                   mg_leaves_update
ASxxxx Linker V03.00/V05.40 + sdld,  page 161.
Hexadecimal  [32-Bits]

Area                                    Addr        Size        Decimal Bytes (Attributes)
--------------------------------        ----        ----        ------- ----- ------------
_CODE_2                             00024000    00000776 =        1910. bytes (REL,CON)

      Value  Global                              Global Defined In Module
      -----  --------------------------------   ------------------------
     000245A5  A$lcc2270475$764                   mg_leaves_update
     000245A6  A$lcc2270475$765                   mg_leaves_update
     000245A7  A$lcc2270475$766                   mg_leaves_update
     000245A9  A$lcc2270475$767                   mg_leaves_update
     000245AA  A$lcc2270475$768                   mg_leaves_update
     000245AB  A$lcc2270475$769                   mg_leaves_update
     000245AD  A$lcc2270475$773                   mg_leaves_update
     000245AD  C$mg_leaves_update.c$116$3_1$199   mg_leaves_update
     000245AE  A$lcc2270475$774                   mg_leaves_update
     000245B1  A$lcc2270475$775                   mg_leaves_update
     000245B2  A$lcc2270475$776                   mg_leaves_update
     000245B4  A$lcc2270475$777                   mg_leaves_update
     000245B5  A$lcc2270475$778                   mg_leaves_update
     000245B6  A$lcc2270475$779                   mg_leaves_update
     000245B7  A$lcc2270475$780                   mg_leaves_update
     000245B8  A$lcc2270475$781                   mg_leaves_update
     000245BA  A$lcc2270475$782                   mg_leaves_update
     000245BB  A$lcc2270475$786                   mg_leaves_update
     000245BB  C$mg_leaves_update.c$118$4_1$200   mg_leaves_update
     000245BC  A$lcc2270475$787                   mg_leaves_update
     000245BD  A$lcc2270475$788                   mg_leaves_update
     000245BE  A$lcc2270475$789                   mg_leaves_update
     000245BF  A$lcc2270475$790                   mg_leaves_update
     000245C0  A$lcc2270475$791                   mg_leaves_update
     000245C1  A$lcc2270475$792                   mg_leaves_update
     000245C2  A$lcc2270475$793                   mg_leaves_update
     000245C5  A$lcc2270475$794                   mg_leaves_update
     000245C6  A$lcc2270475$795                   mg_leaves_update
     000245C7  A$lcc2270475$796                   mg_leaves_update
     000245C8  A$lcc2270475$797                   mg_leaves_update
     000245CA  A$lcc2270475$798                   mg_leaves_update
     000245CB  A$lcc2270475$799                   mg_leaves_update
     000245CC  A$lcc2270475$800                   mg_leaves_update
     000245CD  A$lcc2270475$801                   mg_leaves_update
     000245CF  A$lcc2270475$802                   mg_leaves_update
     000245D0  A$lcc2270475$803                   mg_leaves_update
     000245D2  A$lcc2270475$804                   mg_leaves_update
     000245D3  A$lcc2270475$805                   mg_leaves_update
     000245D5  A$lcc2270475$806                   mg_leaves_update
     000245D7  A$lcc2270475$807                   mg_leaves_update
     000245D8  A$lcc2270475$808                   mg_leaves_update
     000245D9  A$lcc2270475$809                   mg_leaves_update
     000245DA  A$lcc2270475$810                   mg_leaves_update
     000245DB  A$lcc2270475$811                   mg_leaves_update
     000245DC  A$lcc2270475$812                   mg_leaves_update
     000245DE  A$lcc2270475$813                   mg_leaves_update
     000245E1  A$lcc2270475$814                   mg_leaves_update
     000245E2  A$lcc2270475$815                   mg_leaves_update
     000245E3  A$lcc2270475$816                   mg_leaves_update
     000245E4  A$lcc2270475$817                   mg_leaves_update
     000245E6  A$lcc2270475$818                   mg_leaves_update
ASxxxx Linker V03.00/V05.40 + sdld,  page 162.
Hexadecimal  [32-Bits]

Area                                    Addr        Size        Decimal Bytes (Attributes)
--------------------------------        ----        ----        ------- ----- ------------
_CODE_2                             00024000    00000776 =        1910. bytes (REL,CON)

      Value  Global                              Global Defined In Module
      -----  --------------------------------   ------------------------
     000245E7  A$lcc2270475$819                   mg_leaves_update
     000245E8  A$lcc2270475$820                   mg_leaves_update
     000245E9  A$lcc2270475$821                   mg_leaves_update
     000245EB  A$lcc2270475$822                   mg_leaves_update
     000245EC  A$lcc2270475$823                   mg_leaves_update
     000245EE  A$lcc2270475$824                   mg_leaves_update
     000245EF  A$lcc2270475$825                   mg_leaves_update
     000245F0  A$lcc2270475$826                   mg_leaves_update
     000245F2  A$lcc2270475$827                   mg_leaves_update
     000245F3  A$lcc2270475$828                   mg_leaves_update
     000245F4  A$lcc2270475$829                   mg_leaves_update
     000245F5  A$lcc2270475$830                   mg_leaves_update
     000245F6  A$lcc2270475$831                   mg_leaves_update
     000245F7  A$lcc2270475$832                   mg_leaves_update
     000245F8  A$lcc2270475$833                   mg_leaves_update
     000245FA  A$lcc2270475$837                   mg_leaves_update
     000245FA  C$mg_leaves_update.c$120$6_1$202   mg_leaves_update
     000245FC  A$lcc2270475$838                   mg_leaves_update
     000245FD  A$lcc2270475$839                   mg_leaves_update
     000245FF  A$lcc2270475$840                   mg_leaves_update
     00024600  A$lcc2270475$841                   mg_leaves_update
     00024602  A$lcc2270475$845                   mg_leaves_update
     00024602  C$mg_leaves_update.c$121$6_1$202   mg_leaves_update
     00024603  A$lcc2270475$846                   mg_leaves_update
     00024604  A$lcc2270475$847                   mg_leaves_update
     00024605  A$lcc2270475$848                   mg_leaves_update
     00024606  A$lcc2270475$849                   mg_leaves_update
     00024608  A$lcc2270475$854                   mg_leaves_update
     00024608  C$mg_leaves_update.c$123$6_1$203   mg_leaves_update
     0002460A  A$lcc2270475$855                   mg_leaves_update
     0002460B  A$lcc2270475$856                   mg_leaves_update
     0002460D  A$lcc2270475$857                   mg_leaves_update
     0002460E  A$lcc2270475$858                   mg_leaves_update
     00024610  A$lcc2270475$862                   mg_leaves_update
     00024610  C$mg_leaves_update.c$124$6_1$203   mg_leaves_update
     00024611  A$lcc2270475$863                   mg_leaves_update
     00024612  A$lcc2270475$864                   mg_leaves_update
     00024613  A$lcc2270475$865                   mg_leaves_update
     00024614  A$lcc2270475$866                   mg_leaves_update
     00024616  A$lcc2270475$867                   mg_leaves_update
     00024618  A$lcc2270475$872                   mg_leaves_update
     00024618  C$mg_leaves_update.c$128$5_1$204   mg_leaves_update
     0002461A  A$lcc2270475$873                   mg_leaves_update
     0002461B  A$lcc2270475$874                   mg_leaves_update
     0002461C  A$lcc2270475$875                   mg_leaves_update
     0002461D  A$lcc2270475$876                   mg_leaves_update
     0002461F  A$lcc2270475$881                   mg_leaves_update
     0002461F  C$mg_leaves_update.c$111$2_0$196   mg_leaves_update
     00024621  A$lcc2270475$882                   mg_leaves_update
     00024622  A$lcc2270475$883                   mg_leaves_update
     00024625  A$lcc2270475$888                   mg_leaves_update
ASxxxx Linker V03.00/V05.40 + sdld,  page 163.
Hexadecimal  [32-Bits]

Area                                    Addr        Size        Decimal Bytes (Attributes)
--------------------------------        ----        ----        ------- ----- ------------
_CODE_2                             00024000    00000776 =        1910. bytes (REL,CON)

      Value  Global                              Global Defined In Module
      -----  --------------------------------   ------------------------
     00024627  A$lcc2270475$893                   mg_leaves_update
     00024627  C$mg_leaves_update.c$131$2_0$196   mg_leaves_update
     00024627  XG$check_actor_collision$0$0       mg_leaves_update
     00024628  A$lcc2270475$903                   mg_leaves_update
     00024628  C$mg_leaves_update.c$133$2_0$206   mg_leaves_update
     00024628  G$Mg_Leaves_Update$0$0             mg_leaves_update
     00024628  _Mg_Leaves_Update                  mg_leaves_update
     0002462A  A$lcc2270475$907                   mg_leaves_update
     0002462A  C$mg_leaves_update.c$135$1_0$206   mg_leaves_update
     0002462D  A$lcc2270475$911                   mg_leaves_update
     0002462D  C$mg_leaves_update.c$137$2_0$207   mg_leaves_update
     00024630  A$lcc2270475$912                   mg_leaves_update
     00024631  A$lcc2270475$913                   mg_leaves_update
     00024633  A$lcc2270475$917                   mg_leaves_update
     00024633  C$mg_leaves_update.c$139$3_0$208   mg_leaves_update
     00024636  A$lcc2270475$921                   mg_leaves_update
     00024636  C$mg_leaves_update.c$141$1_1$206   mg_leaves_update
     00024638  A$lcc2270475$922                   mg_leaves_update
     0002463A  A$lcc2270475$924                   mg_leaves_update
     0002463C  A$lcc2270475$925                   mg_leaves_update
     0002463D  A$lcc2270475$926                   mg_leaves_update
     0002463E  A$lcc2270475$927                   mg_leaves_update
     0002463F  A$lcc2270475$928                   mg_leaves_update
     00024640  A$lcc2270475$929                   mg_leaves_update
     00024641  A$lcc2270475$930                   mg_leaves_update
     00024644  A$lcc2270475$931                   mg_leaves_update
     00024645  A$lcc2270475$932                   mg_leaves_update
     00024647  A$lcc2270475$933                   mg_leaves_update
     00024648  A$lcc2270475$934                   mg_leaves_update
     00024649  A$lcc2270475$935                   mg_leaves_update
     0002464A  A$lcc2270475$936                   mg_leaves_update
     0002464B  A$lcc2270475$937                   mg_leaves_update
     0002464C  A$lcc2270475$938                   mg_leaves_update
     0002464D  A$lcc2270475$939                   mg_leaves_update
     0002464F  A$lcc2270475$940                   mg_leaves_update
     00024651  A$lcc2270475$941                   mg_leaves_update
     00024653  A$lcc2270475$942                   mg_leaves_update
     00024655  A$lcc2270475$943                   mg_leaves_update
     00024656  A$lcc2270475$944                   mg_leaves_update
     00024658  A$lcc2270475$946                   mg_leaves_update
     0002465A  A$lcc2270475$947                   mg_leaves_update
     0002465C  A$lcc2270475$948                   mg_leaves_update
     0002465D  A$lcc2270475$950                   mg_leaves_update
     0002465F  A$lcc2270475$954                   mg_leaves_update
     0002465F  C$mg_leaves_update.c$143$5_0$210   mg_leaves_update
     00024662  A$lcc2270475$955                   mg_leaves_update
     00024663  A$lcc2270475$956                   mg_leaves_update
     00024665  A$lcc2270475$957                   mg_leaves_update
     00024666  A$lcc2270475$958                   mg_leaves_update
     00024667  A$lcc2270475$959                   mg_leaves_update
     00024669  A$lcc2270475$960                   mg_leaves_update
ASxxxx Linker V03.00/V05.40 + sdld,  page 164.
Hexadecimal  [32-Bits]

Area                                    Addr        Size        Decimal Bytes (Attributes)
--------------------------------        ----        ----        ------- ----- ------------
_CODE_2                             00024000    00000776 =        1910. bytes (REL,CON)

      Value  Global                              Global Defined In Module
      -----  --------------------------------   ------------------------
     0002466B  A$lcc2270475$961                   mg_leaves_update
     0002466C  A$lcc2270475$962                   mg_leaves_update
     0002466F  A$lcc2270475$966                   mg_leaves_update
     0002466F  C$mg_leaves_update.c$141$4_0$209   mg_leaves_update
     00024671  A$lcc2270475$967                   mg_leaves_update
     00024672  A$lcc2270475$968                   mg_leaves_update
     00024674  A$lcc2270475$973                   mg_leaves_update
     00024674  C$mg_leaves_update.c$146$3_0$208   mg_leaves_update
     00024677  A$lcc2270475$974                   mg_leaves_update
     00024678  A$lcc2270475$975                   mg_leaves_update
     0002467A  A$lcc2270475$976                   mg_leaves_update
     0002467D  A$lcc2270475$977                   mg_leaves_update
     0002467E  A$lcc2270475$978                   mg_leaves_update
     00024680  A$lcc2270475$982                   mg_leaves_update
     00024680  C$mg_leaves_update.c$147$3_0$208   mg_leaves_update
     00024683  A$lcc2270475$983                   mg_leaves_update
     00024686  A$lcc2270475$987                   mg_leaves_update
     00024686  C$mg_leaves_update.c$149$3_0$208   mg_leaves_update
     00024689  A$lcc2270475$988                   mg_leaves_update
     0002468C  A$lcc2270475$989                   mg_leaves_update
     0002468D  A$lcc2270475$990                   mg_leaves_update
     0002468E  A$lcc2270475$991                   mg_leaves_update
     0002468F  A$lcc2270475$992                   mg_leaves_update
     00024690  A$lcc2270475$993                   mg_leaves_update
     00024691  A$lcc2270475$994                   mg_leaves_update
     00024692  A$lcc2270475$995                   mg_leaves_update
     00024693  A$lcc2270475$996                   mg_leaves_update
     00024696  A$lcc2270475$997                   mg_leaves_update
     00024698  A$lcc2270475$998                   mg_leaves_update
     00024699  A$lcc2270475$999                   mg_leaves_update
     0002469A  A$lcc2270475$1000                  mg_leaves_update
     0002469D  A$lcc2270475$1004                  mg_leaves_update
     0002469D  C$mg_leaves_update.c$150$3_0$208   mg_leaves_update
     000246A0  A$lcc2270475$1009                  mg_leaves_update
     000246A0  C$mg_leaves_update.c$153$2_0$211   mg_leaves_update
     000246A3  A$lcc2270475$1010                  mg_leaves_update
     000246A5  A$lcc2270475$1011                  mg_leaves_update
     000246A7  A$lcc2270475$1015                  mg_leaves_update
     000246A7  C$mg_leaves_update.c$154$2_0$211   mg_leaves_update
     000246AA  A$lcc2270475$1016                  mg_leaves_update
     000246AC  A$lcc2270475$1017                  mg_leaves_update
     000246AE  A$lcc2270475$1022                  mg_leaves_update
     000246AE  C$mg_leaves_update.c$156$2_0$211   mg_leaves_update
     000246AF  A$lcc2270475$1023                  mg_leaves_update
     000246B2  A$lcc2270475$1028                  mg_leaves_update
     000246B2  C$mg_leaves_update.c$158$1_0$206   mg_leaves_update
     000246B4  A$lcc2270475$1029                  mg_leaves_update
     000246B6  A$lcc2270475$1030                  mg_leaves_update
     000246B9  A$lcc2270475$1034                  mg_leaves_update
     000246B9  C$mg_leaves_update.c$160$1_0$206   mg_leaves_update
     000246BC  A$lcc2270475$1038                  mg_leaves_update
ASxxxx Linker V03.00/V05.40 + sdld,  page 165.
Hexadecimal  [32-Bits]

Area                                    Addr        Size        Decimal Bytes (Attributes)
--------------------------------        ----        ----        ------- ----- ------------
_CODE_2                             00024000    00000776 =        1910. bytes (REL,CON)

      Value  Global                              Global Defined In Module
      -----  --------------------------------   ------------------------
     000246BC  C$mg_leaves_update.c$161$1_0$206   mg_leaves_update
     000246BF  A$lcc2270475$1042                  mg_leaves_update
     000246BF  C$mg_leaves_update.c$163$1_0$206   mg_leaves_update
     000246C2  A$lcc2270475$1043                  mg_leaves_update
     000246C5  A$lcc2270475$1047                  mg_leaves_update
     000246C5  C$mg_leaves_update.c$165$2_0$212   mg_leaves_update
     000246C8  A$lcc2270475$1048                  mg_leaves_update
     000246CB  A$lcc2270475$1049                  mg_leaves_update
     000246CC  A$lcc2270475$1050                  mg_leaves_update
     000246CE  A$lcc2270475$1054                  mg_leaves_update
     000246CE  C$mg_leaves_update.c$167$3_0$213   mg_leaves_update
     000246D1  A$lcc2270475$1055                  mg_leaves_update
     000246D4  A$lcc2270475$1059                  mg_leaves_update
     000246D4  C$mg_leaves_update.c$169$3_1$214   mg_leaves_update
     000246D7  A$lcc2270475$1063                  mg_leaves_update
     000246D7  C$mg_leaves_update.c$170$1_1$206   mg_leaves_update
     000246D9  A$lcc2270475$1064                  mg_leaves_update
     000246DA  A$lcc2270475$1065                  mg_leaves_update
     000246DC  A$lcc2270475$1066                  mg_leaves_update
     000246DF  A$lcc2270475$1067                  mg_leaves_update
     000246E0  A$lcc2270475$1068                  mg_leaves_update
     000246E2  A$lcc2270475$1069                  mg_leaves_update
     000246E5  A$lcc2270475$1070                  mg_leaves_update
     000246E6  A$lcc2270475$1071                  mg_leaves_update
     000246E8  A$lcc2270475$1072                  mg_leaves_update
     000246EA  A$lcc2270475$1076                  mg_leaves_update
     000246EA  C$mg_leaves_update.c$171$1_1$206   mg_leaves_update
     000246EB  A$lcc2270475$1077                  mg_leaves_update
     000246EC  A$lcc2270475$1078                  mg_leaves_update
     000246EE  A$lcc2270475$1079                  mg_leaves_update
     000246EF  A$lcc2270475$1080                  mg_leaves_update
     000246F2  A$lcc2270475$1081                  mg_leaves_update
     000246F3  A$lcc2270475$1082                  mg_leaves_update
     000246F5  A$lcc2270475$1083                  mg_leaves_update
     000246F8  A$lcc2270475$1084                  mg_leaves_update
     000246F9  A$lcc2270475$1085                  mg_leaves_update
     000246FB  A$lcc2270475$1086                  mg_leaves_update
     000246FD  A$lcc2270475$1090                  mg_leaves_update
     000246FD  C$mg_leaves_update.c$172$1_1$206   mg_leaves_update
     000246FE  A$lcc2270475$1091                  mg_leaves_update
     00024700  A$lcc2270475$1092                  mg_leaves_update
     00024701  A$lcc2270475$1093                  mg_leaves_update
     00024704  A$lcc2270475$1094                  mg_leaves_update
     00024705  A$lcc2270475$1095                  mg_leaves_update
     00024707  A$lcc2270475$1096                  mg_leaves_update
     00024709  A$lcc2270475$1097                  mg_leaves_update
     0002470A  A$lcc2270475$1101                  mg_leaves_update
     0002470A  C$mg_leaves_update.c$174$3_1$214   mg_leaves_update
     0002470C  A$lcc2270475$1102                  mg_leaves_update
     0002470D  A$lcc2270475$1103                  mg_leaves_update
     0002470E  A$lcc2270475$1104                  mg_leaves_update
ASxxxx Linker V03.00/V05.40 + sdld,  page 166.
Hexadecimal  [32-Bits]

Area                                    Addr        Size        Decimal Bytes (Attributes)
--------------------------------        ----        ----        ------- ----- ------------
_CODE_2                             00024000    00000776 =        1910. bytes (REL,CON)

      Value  Global                              Global Defined In Module
      -----  --------------------------------   ------------------------
     00024710  A$lcc2270475$1105                  mg_leaves_update
     00024712  A$lcc2270475$1106                  mg_leaves_update
     00024715  A$lcc2270475$1110                  mg_leaves_update
     00024715  C$mg_leaves_update.c$175$3_1$214   mg_leaves_update
     00024717  A$lcc2270475$1111                  mg_leaves_update
     00024718  A$lcc2270475$1112                  mg_leaves_update
     00024719  A$lcc2270475$1113                  mg_leaves_update
     0002471A  A$lcc2270475$1114                  mg_leaves_update
     0002471C  A$lcc2270475$1115                  mg_leaves_update
     0002471E  A$lcc2270475$1116                  mg_leaves_update
     00024721  A$lcc2270475$1120                  mg_leaves_update
     00024721  C$mg_leaves_update.c$176$3_1$214   mg_leaves_update
     00024723  A$lcc2270475$1121                  mg_leaves_update
     00024724  A$lcc2270475$1122                  mg_leaves_update
     00024725  A$lcc2270475$1123                  mg_leaves_update
     00024726  A$lcc2270475$1124                  mg_leaves_update
     00024728  A$lcc2270475$1125                  mg_leaves_update
     0002472A  A$lcc2270475$1126                  mg_leaves_update
     0002472D  A$lcc2270475$1130                  mg_leaves_update
     0002472D  C$mg_leaves_update.c$177$3_1$214   mg_leaves_update
     0002472F  A$lcc2270475$1131                  mg_leaves_update
     00024730  A$lcc2270475$1132                  mg_leaves_update
     00024731  A$lcc2270475$1133                  mg_leaves_update
     00024732  A$lcc2270475$1134                  mg_leaves_update
     00024734  A$lcc2270475$1135                  mg_leaves_update
     00024736  A$lcc2270475$1136                  mg_leaves_update
     00024739  A$lcc2270475$1141                  mg_leaves_update
     00024739  C$mg_leaves_update.c$180$1_1$215   mg_leaves_update
     0002473C  A$lcc2270475$1142                  mg_leaves_update
     0002473F  A$lcc2270475$1143                  mg_leaves_update
     00024740  A$lcc2270475$1144                  mg_leaves_update
     00024743  A$lcc2270475$1145                  mg_leaves_update
     00024744  A$lcc2270475$1149                  mg_leaves_update
     00024744  C$mg_leaves_update.c$182$1_1$206   mg_leaves_update
     00024747  A$lcc2270475$1150                  mg_leaves_update
     00024748  A$lcc2270475$1151                  mg_leaves_update
     00024749  A$lcc2270475$1152                  mg_leaves_update
     0002474A  A$lcc2270475$1153                  mg_leaves_update
     0002474D  A$lcc2270475$1154                  mg_leaves_update
     00024750  A$lcc2270475$1155                  mg_leaves_update
     00024751  A$lcc2270475$1156                  mg_leaves_update
     00024752  A$lcc2270475$1157                  mg_leaves_update
     00024754  A$lcc2270475$1158                  mg_leaves_update
     00024755  A$lcc2270475$1162                  mg_leaves_update
     00024755  C$mg_leaves_update.c$183$1_1$206   mg_leaves_update
     00024756  A$lcc2270475$1163                  mg_leaves_update
     00024759  A$lcc2270475$1164                  mg_leaves_update
     0002475C  A$lcc2270475$1165                  mg_leaves_update
     0002475D  A$lcc2270475$1166                  mg_leaves_update
     0002475E  A$lcc2270475$1167                  mg_leaves_update
     00024760  A$lcc2270475$1168                  mg_leaves_update
ASxxxx Linker V03.00/V05.40 + sdld,  page 167.
Hexadecimal  [32-Bits]

Area                                    Addr        Size        Decimal Bytes (Attributes)
--------------------------------        ----        ----        ------- ----- ------------
_CODE_2                             00024000    00000776 =        1910. bytes (REL,CON)

      Value  Global                              Global Defined In Module
      -----  --------------------------------   ------------------------
     00024761  A$lcc2270475$1172                  mg_leaves_update
     00024761  C$mg_leaves_update.c$185$1_1$215   mg_leaves_update
     00024762  A$lcc2270475$1173                  mg_leaves_update
     00024763  A$lcc2270475$1174                  mg_leaves_update
     00024764  A$lcc2270475$1175                  mg_leaves_update
     00024766  A$lcc2270475$1176                  mg_leaves_update
     00024768  A$lcc2270475$1177                  mg_leaves_update
     0002476B  A$lcc2270475$1181                  mg_leaves_update
     0002476B  C$mg_leaves_update.c$186$1_1$215   mg_leaves_update
     0002476C  A$lcc2270475$1182                  mg_leaves_update
     0002476E  A$lcc2270475$1183                  mg_leaves_update
     00024770  A$lcc2270475$1184                  mg_leaves_update
     00024773  A$lcc2270475$1192                  mg_leaves_update
     00024773  C$mg_leaves_update.c$188$1_1$215   mg_leaves_update
     00024775  A$lcc2270475$1197                  mg_leaves_update
     00024775  C$mg_leaves_update.c$189$1_1$206   mg_leaves_update
     00024775  XG$Mg_Leaves_Update$0$0            mg_leaves_update

ASxxxx Linker V03.00/V05.40 + sdld,  page 168.

Files Linked                              [ module(s) ]

C:\Program Files\GBDK\lib/gb/crt0.o       [ Runtime ]
C:\Users\Bau_M\AppData\Local\Temp/lcc227040.o
                                          [ chars ]
C:\Users\Bau_M\AppData\Local\Temp/lcc227041.o
                                          [ numbers ]
C:\Users\Bau_M\AppData\Local\Temp/lcc227042.o
                                          [ gender_select_tilemap ]
C:\Users\Bau_M\AppData\Local\Temp/lcc227043.o
                                          [ gender_select_tileset ]
C:\Users\Bau_M\AppData\Local\Temp/lcc227044.o
                                          [ inventory_bkg ]
C:\Users\Bau_M\AppData\Local\Temp/lcc227045.o
                                          [ bkg_MainMenu ]
C:\Users\Bau_M\AppData\Local\Temp/lcc227046.o
                                          [ map_example ]
C:\Users\Bau_M\AppData\Local\Temp/lcc227047.o
                                          [ bkg_leaves_example ]
C:\Users\Bau_M\AppData\Local\Temp/lcc227048.o
                                          [ npc_icons ]
C:\Users\Bau_M\AppData\Local\Temp/lcc227049.o
                                          [ template_tileset ]
C:\Users\Bau_M\AppData\Local\Temp/lcc2270410.o
                                          [ spr_InventoryArrow_idle ]
C:\Users\Bau_M\AppData\Local\Temp/lcc2270411.o
                                          [ spr_Branch ]
C:\Users\Bau_M\AppData\Local\Temp/lcc2270412.o
                                          [ broom ]
C:\Users\Bau_M\AppData\Local\Temp/lcc2270413.o
                                          [ spr_garbage ]
C:\Users\Bau_M\AppData\Local\Temp/lcc2270414.o
                                          [ leaf ]
C:\Users\Bau_M\AppData\Local\Temp/lcc2270415.o
                                          [ example_npc ]
C:\Users\Bau_M\AppData\Local\Temp/lcc2270416.o
                                          [ spr_Player_down0 ]
C:\Users\Bau_M\AppData\Local\Temp/lcc2270417.o
                                          [ spr_Player_down1 ]
C:\Users\Bau_M\AppData\Local\Temp/lcc2270418.o
                                          [ spr_Player_down2 ]
C:\Users\Bau_M\AppData\Local\Temp/lcc2270419.o
                                          [ spr_Player_up0 ]
C:\Users\Bau_M\AppData\Local\Temp/lcc2270420.o
                                          [ spr_Player_up1 ]
C:\Users\Bau_M\AppData\Local\Temp/lcc2270421.o
                                          [ spr_Player_up2 ]
C:\Users\Bau_M\AppData\Local\Temp/lcc2270422.o
                                          [ action ]
C:\Users\Bau_M\AppData\Local\Temp/lcc2270423.o
                                          [ animation ]
C:\Users\Bau_M\AppData\Local\Temp/lcc2270424.o
                                          [ can_move ]
C:\Users\Bau_M\AppData\Local\Temp/lcc2270425.o
                                          [ char_to_tile ]
C:\Users\Bau_M\AppData\Local\Temp/lcc2270426.o
                                          [ collision ]
C:\Users\Bau_M\AppData\Local\Temp/lcc2270427.o
                                          [ draw ]
C:\Users\Bau_M\AppData\Local\Temp/lcc2270428.o
                                          [ entity ]
C:\Users\Bau_M\AppData\Local\Temp/lcc2270429.o
                                          [ extra_actors ]
C:\Users\Bau_M\AppData\Local\Temp/lcc2270430.o
                                          [ gender_selection ]
C:\Users\Bau_M\AppData\Local\Temp/lcc2270431.o
                                          [ input ]
C:\Users\Bau_M\AppData\Local\Temp/lcc2270432.o
                                          [ inventory ]
C:\Users\Bau_M\AppData\Local\Temp/lcc2270433.o
                                          [ inventory_input ]
C:\Users\Bau_M\AppData\Local\Temp/lcc2270434.o
                                          [ load ]
C:\Users\Bau_M\AppData\Local\Temp/lcc2270435.o
                                          [ map_scenes ]
C:\Users\Bau_M\AppData\Local\Temp/lcc2270436.o
                                          [ money ]
C:\Users\Bau_M\AppData\Local\Temp/lcc2270437.o
                                          [ name ]
C:\Users\Bau_M\AppData\Local\Temp/lcc2270438.o
                                          [ npcs ]
C:\Users\Bau_M\AppData\Local\Temp/lcc2270439.o
                                          [ npc_lines ]
C:\Users\Bau_M\AppData\Local\Temp/lcc2270440.o
                                          [ player ]
C:\Users\Bau_M\AppData\Local\Temp/lcc2270441.o
                                          [ position ]
C:\Users\Bau_M\AppData\Local\Temp/lcc2270442.o
                                          [ random ]
C:\Users\Bau_M\AppData\Local\Temp/lcc2270443.o
                                          [ render ]
C:\Users\Bau_M\AppData\Local\Temp/lcc2270444.o
                                          [ scene ]
C:\Users\Bau_M\AppData\Local\Temp/lcc2270445.o
                                          [ scene_manager ]
C:\Users\Bau_M\AppData\Local\Temp/lcc2270446.o
                                          [ speed ]
C:\Users\Bau_M\AppData\Local\Temp/lcc2270447.o
                                          [ gender_select ]
C:\Users\Bau_M\AppData\Local\Temp/lcc2270448.o
                                          [ gender_select_init ]
C:\Users\Bau_M\AppData\Local\Temp/lcc2270449.o
                                          [ gender_select_update ]
C:\Users\Bau_M\AppData\Local\Temp/lcc2270450.o
                                          [ inventory_scene ]
C:\Users\Bau_M\AppData\Local\Temp/lcc2270451.o
                                          [ inventory_scene_init ]
C:\Users\Bau_M\AppData\Local\Temp/lcc2270452.o
                                          [ inventory_scene_update ]
C:\Users\Bau_M\AppData\Local\Temp/lcc2270453.o
                                          [ main_menu ]
C:\Users\Bau_M\AppData\Local\Temp/lcc2270454.o
                                          [ main_menu_init ]
C:\Users\Bau_M\AppData\Local\Temp/lcc2270455.o
                                          [ main_menu_init_stats ]
C:\Users\Bau_M\AppData\Local\Temp/lcc2270456.o
                                          [ main_menu_input ]
C:\Users\Bau_M\AppData\Local\Temp/lcc2270457.o
                                          [ main_menu_update ]
C:\Users\Bau_M\AppData\Local\Temp/lcc2270458.o
                                          [ clean_text ]
C:\Users\Bau_M\AppData\Local\Temp/lcc2270459.o
                                          [ map_collision ]
C:\Users\Bau_M\AppData\Local\Temp/lcc2270460.o
                                          [ map_data ]
C:\Users\Bau_M\AppData\Local\Temp/lcc2270461.o
                                          [ map_player_movement ]
C:\Users\Bau_M\AppData\Local\Temp/lcc2270462.o
                                          [ map_00 ]
C:\Users\Bau_M\AppData\Local\Temp/lcc2270463.o
                                          [ map_00_collision ]
C:\Users\Bau_M\AppData\Local\Temp/lcc2270464.o
                                          [ map_00_init ]
C:\Users\Bau_M\AppData\Local\Temp/lcc2270465.o
                                          [ map_00_init_dialogues ]
C:\Users\Bau_M\AppData\Local\Temp/lcc2270466.o
                                          [ map_00_init_npc ]
C:\Users\Bau_M\AppData\Local\Temp/lcc2270467.o
                                          [ map_00_update ]
C:\Users\Bau_M\AppData\Local\Temp/lcc2270468.o
                                          [ mg_player_movement ]
C:\Users\Bau_M\AppData\Local\Temp/lcc2270469.o
                                          [ mg_timer ]
C:\Users\Bau_M\AppData\Local\Temp/lcc2270470.o
                                          [ mini_games ]
C:\Users\Bau_M\AppData\Local\Temp/lcc2270471.o
                                          [ mg_leaves ]
C:\Users\Bau_M\AppData\Local\Temp/lcc2270472.o
                                          [ mg_leaves_init ]
C:\Users\Bau_M\AppData\Local\Temp/lcc2270473.o
                                          [ mg_leaves_load_bkg ]
C:\Users\Bau_M\AppData\Local\Temp/lcc2270474.o
                                          [ mg_leaves_player_init ]
C:\Users\Bau_M\AppData\Local\Temp/lcc2270475.o
                                          [ mg_leaves_update ]
C:\Users\Bau_M\AppData\Local\Temp/lcc2270476.o
                                          [ main ]


Libraries Linked                          [ object file ]

C:\Program Files\GBDK\lib/gb/gb.lib       [ sfr.o ]
C:\Program Files\GBDK\lib/sm83/sm83.lib   [ div.o ]
C:\Program Files\GBDK\lib/sm83/sm83.lib   [ free.o ]
C:\Program Files\GBDK\lib/sm83/sm83.lib   [ malloc.o ]
C:\Program Files\GBDK\lib/gb/gb.lib       [ set_data.o ]
C:\Program Files\GBDK\lib/gb/gb.lib       [ set_tile.o ]
C:\Program Files\GBDK\lib/sm83/sm83.lib   [ mul.o ]
C:\Program Files\GBDK\lib/gb/gb.lib       [ pad.o ]
C:\Program Files\GBDK\lib/sm83/sm83.lib   [ memcpy.o ]
C:\Program Files\GBDK\lib/sm83/sm83.lib   [ __sdcc_call_hl.o ]
C:\Program Files\GBDK\lib/gb/gb.lib       [ heap.o ]
C:\Program Files\GBDK\lib/gb/gb.lib       [ set_bk_t.o ]
C:\Program Files\GBDK\lib/gb/gb.lib       [ set_xy_t.o ]

ASxxxx Linker V03.00/V05.40 + sdld,  page 169.

User Base Address Definitions

_DATA=0xC0A0
_CODE=0x0200
_HRAM=0xFF80
ASxxxx Linker V03.00/V05.40 + sdld,  page 170.

User Global Definitions

_shadow_OAM=0xC000
.STACK=0xE000

