ASxxxx Linker V03.00/V05.40 + sdld,  page 1.
Hexadecimal  [32-Bits]

Area                                    Addr        Size        Decimal Bytes (Attributes)
--------------------------------        ----        ----        ------- ----- ------------
.  .ABS.                            00000000    00000000 =           0. bytes (ABS,CON)

      Value  Global                              Global Defined In Module
      -----  --------------------------------   ------------------------
     00000000  .__.ABS.                           SetTileMap
     00000000  _rMBC7_SRAM_ENABLE_1               
     00000000  _rRAMG                             
     00000000  l__BASE                         
     00000000  l__BSS                          
     00000000  l__CABS                         
     00000000  l__CODE_0                       
     00000000  l__DABS                         
     00000000  l__HEADER                       
     00000000  l__LIT                          
     00000000  s__CABS                         
     00000000  s__DABS                         
     00000000  s__HEADER                       
     00000000  s__HEADER0                      
     00000000  s__HEADER1                      
     00000000  s__HEADER10                     
     00000000  s__HEADER11                     
     00000000  s__HEADER2                      
     00000000  s__HEADER3                      
     00000000  s__HEADER4                      
     00000000  s__HEADER5                      
     00000000  s__HEADER6                      
     00000000  s__HEADER7                      
     00000000  s__HEADER8                      
     00000000  s__HEADER9                      
     00000000  s__HEADERa                      
     00000000  s__HEADERb                      
     00000000  s__HEADERc                      
     00000000  s__HEADERd                      
     00000000  s__HEADERe                      
     00000000  s__HEADERf                      
     00000001  l__GSFINAL                      
     00000001  l__HEADER0                      
     00000001  l__HEADER5                      
     00000001  l__HEADERa                      
     00000001  l__HEADERb                      
     00000001  l__HEADERc                      
     00000001  l__HEADERe                      
     00000001  l__HEADERf                      
     00000001  l__HEAP_END                     
     00000002  l__HEADER10                     
     00000002  l__HEADER6                      
     00000002  l__HEADERd                      
     00000003  l__HEADER9                      
     00000005  l__HEADER1                      
     00000006  l__HEADER8                      
     00000007  l__HEADER2                      
     00000008  l__HEADER3                      
     0000000F  l__GSINIT                       
     00000013  l__HRAM                         
ASxxxx Linker V03.00/V05.40 + sdld,  page 2.
Hexadecimal  [32-Bits]

Area                                    Addr        Size        Decimal Bytes (Attributes)
--------------------------------        ----        ----        ------- ----- ------------
.  .ABS.                            00000000    00000000 =           0. bytes (ABS,CON)

      Value  Global                              Global Defined In Module
      -----  --------------------------------   ------------------------
     00000030  l__HEADER7                      
     00000060  l__HEADER4                      
     000000AB  l__HEADER11                     
     0000012C  l__HOME                         
     00000173  l__DATA                         
     000001DD  l__INITIALIZED                  
     000001DD  l__INITIALIZER                  
     00000200  s__CODE                         
     000007FF  l__HEAP                         
     00002000  _rROMB0                            
     000029E6  l__CODE                         
     00002BE6  s__HOME                         
     00002D12  s__BASE                         
     00002D12  s__CODE_0                       
     00002D12  s__INITIALIZER                  
     00002D12  s__LIT                          
     00002EEF  s__GSINIT                       
     00002EFE  s__GSFINAL                      
     00003000  _rROMB1                            
     00004000  _rMBC7_SRAM_ENABLE_2               
     00004000  _rRAMB                             
     00008000  __VRAM                             
     00008000  __VRAM8000                         
     00008800  __VRAM8800                         
     00009000  __VRAM9000                         
     00009800  __SCRN0                            
     00009C00  __SCRN1                            
     0000A000  __SRAM                             
     0000A000  _rMBC7_LATCH_1                     
     0000A010  _rMBC7_LATCH_2                     
     0000A020  _rMBC7_ACCEL_X_LO                  
     0000A030  _rMBC7_ACCEL_X_HI                  
     0000A040  _rMBC7_ACCEL_Y_LO                  
     0000A050  _rMBC7_ACCEL_Y_HI                  
     0000C000  __RAM                              
     0000C000  _shadow_OAM                     
     0000C0A0  s__DATA                         
     0000C213  s__BSS                          
     0000C213  s__INITIALIZED                  
     0000C3F0  s__HEAP                         
     0000CBEF  s__HEAP_END                     
     0000D000  __RAMBANK                          
     0000E000  .STACK                          
     0000FE00  __OAMRAM                           
     0000FF00  _P1_REG                            
     0000FF00  __IO                               
     0000FF01  _SB_REG                            
     0000FF02  _SC_REG                            
     0000FF04  _DIV_REG                           
     0000FF05  _TIMA_REG                          
     0000FF06  _TMA_REG                           
ASxxxx Linker V03.00/V05.40 + sdld,  page 3.
Hexadecimal  [32-Bits]

Area                                    Addr        Size        Decimal Bytes (Attributes)
--------------------------------        ----        ----        ------- ----- ------------
.  .ABS.                            00000000    00000000 =           0. bytes (ABS,CON)

      Value  Global                              Global Defined In Module
      -----  --------------------------------   ------------------------
     0000FF07  _TAC_REG                           
     0000FF0F  _IF_REG                            
     0000FF10  _NR10_REG                          
     0000FF11  _NR11_REG                          
     0000FF12  _NR12_REG                          
     0000FF13  _NR13_REG                          
     0000FF14  _NR14_REG                          
     0000FF16  _NR21_REG                          
     0000FF17  _NR22_REG                          
     0000FF18  _NR23_REG                          
     0000FF19  _NR24_REG                          
     0000FF1A  _NR30_REG                          
     0000FF1B  _NR31_REG                          
     0000FF1C  _NR32_REG                          
     0000FF1D  _NR33_REG                          
     0000FF1E  _NR34_REG                          
     0000FF20  _NR41_REG                          
     0000FF21  _NR42_REG                          
     0000FF22  _NR43_REG                          
     0000FF23  _NR44_REG                          
     0000FF24  _NR50_REG                          
     0000FF25  _NR51_REG                          
     0000FF26  _NR52_REG                          
     0000FF30  _AUD3WAVE                          
     0000FF30  _PCM_SAMPLE                        
     0000FF30  __AUD3WAVERAM                      
     0000FF40  _LCDC_REG                          
     0000FF41  _STAT_REG                          
     0000FF42  _SCY_REG                           
     0000FF43  _SCX_REG                           
     0000FF44  _LY_REG                            
     0000FF45  _LYC_REG                           
     0000FF46  _DMA_REG                           
     0000FF47  _BGP_REG                           
     0000FF48  _OBP0_REG                          
     0000FF49  _OBP1_REG                          
     0000FF4A  _WY_REG                            
     0000FF4B  _WX_REG                            
     0000FF4D  _KEY1_REG                          
     0000FF4F  _VBK_REG                           
     0000FF51  _HDMA1_REG                         
     0000FF52  _HDMA2_REG                         
     0000FF53  _HDMA3_REG                         
     0000FF54  _HDMA4_REG                         
     0000FF55  _HDMA5_REG                         
     0000FF56  _RP_REG                            
     0000FF68  _BCPS_REG                          
     0000FF69  _BCPD_REG                          
     0000FF6A  _OCPS_REG                          
     0000FF6B  _OCPD_REG                          
     0000FF70  _SVBK_REG                          
ASxxxx Linker V03.00/V05.40 + sdld,  page 4.
Hexadecimal  [32-Bits]

Area                                    Addr        Size        Decimal Bytes (Attributes)
--------------------------------        ----        ----        ------- ----- ------------
.  .ABS.                            00000000    00000000 =           0. bytes (ABS,CON)

      Value  Global                              Global Defined In Module
      -----  --------------------------------   ------------------------
     0000FF76  _PCM12_REG                         
     0000FF77  _PCM34_REG                         
     0000FF80  __HRAM                             
     0000FF80  s__HRAM                         
     0000FFFF  _IE_REG                            

ASxxxx Linker V03.00/V05.40 + sdld,  page 5.
Hexadecimal  [32-Bits]

Area                                    Addr        Size        Decimal Bytes (Attributes)
--------------------------------        ----        ----        ------- ----- ------------
_CODE                               00000200    000029E6 =       10726. bytes (REL,CON)

      Value  Global                              Global Defined In Module
      -----  --------------------------------   ------------------------
     00000200  G$chars_tileset$0_0$0              chars
     00000200  _chars_tileset                     chars
     000003F0  G$chars_tilemap$0_0$0              chars
     000003F0  _chars_tilemap                     chars
     0000040E  G$numbers_tileset$0_0$0            numbers
     0000040E  _numbers_tileset                   numbers
     000004BE  G$numbers_tilemap$0_0$0            numbers
     000004BE  _numbers_tilemap                   numbers
     000004C8  G$gender_select_tilemap$0_0$0      gender_select_tilemap
     000004C8  _gender_select_tilemap             gender_select_tilemap
     00000630  G$gender_select_tileset$0_0$0      gender_select_tileset
     00000630  _gender_select_tileset             gender_select_tileset
     00000920  G$inventory_bkg_tileset$0_0$0      inventory_bkg
     00000920  _inventory_bkg_tileset             inventory_bkg
     00000C40  G$inventory_bkg_tilemap$0_0$0      inventory_bkg
     00000C40  _inventory_bkg_tilemap             inventory_bkg
     00000DA8  G$example_tileset$0_0$0            map_example
     00000DA8  _example_tileset                   map_example
     00001258  G$example_tilemap$0_0$0            map_example
     00001258  _example_tilemap                   map_example
     000013C0  G$template_tilemap$0_0$0           template_tilemap
     000013C0  _template_tilemap                  template_tilemap
     00001528  G$template_tileset$0_0$0           template_tileset
     00001528  _template_tileset                  template_tileset
     000016F8  G$spr_Branch$0_0$0                 spr_Branch
     000016F8  _spr_Branch                        spr_Branch
     00001708  A$lcc2286817$70                    action
     00001708  C$action.c$13$0_0$150              action
     00001708  G$move_up$0$0                      action
     00001708  _move_up                           action
     0000170A  A$lcc2286817$71                    action
     0000170C  A$lcc2286817$72                    action
     0000170D  A$lcc2286817$76                    action
     0000170D  C$action.c$15$2_0$151              action
     00001710  A$lcc2286817$77                    action
     00001712  A$lcc2286817$81                    action
     00001712  C$action.c$16$2_0$151              action
     00001714  A$lcc2286817$85                    action
     00001714  C$action.c$18$1_0$150              action
     00001716  A$lcc2286817$86                    action
     00001717  A$lcc2286817$87                    action
     00001718  A$lcc2286817$88                    action
     0000171A  A$lcc2286817$89                    action
     0000171B  A$lcc2286817$90                    action
     0000171D  A$lcc2286817$91                    action
     0000171F  A$lcc2286817$92                    action
     00001720  A$lcc2286817$93                    action
     00001723  A$lcc2286817$94                    action
     00001725  A$lcc2286817$95                    action
     00001726  A$lcc2286817$96                    action
ASxxxx Linker V03.00/V05.40 + sdld,  page 6.
Hexadecimal  [32-Bits]

Area                                    Addr        Size        Decimal Bytes (Attributes)
--------------------------------        ----        ----        ------- ----- ------------
_CODE                               00000200    000029E6 =       10726. bytes (REL,CON)

      Value  Global                              Global Defined In Module
      -----  --------------------------------   ------------------------
     00001727  A$lcc2286817$97                    action
     00001728  A$lcc2286817$98                    action
     00001729  A$lcc2286817$99                    action
     0000172A  A$lcc2286817$100                   action
     0000172B  A$lcc2286817$101                   action
     0000172C  A$lcc2286817$102                   action
     0000172D  A$lcc2286817$103                   action
     0000172E  A$lcc2286817$104                   action
     0000172F  A$lcc2286817$105                   action
     00001731  A$lcc2286817$106                   action
     00001732  A$lcc2286817$107                   action
     00001734  A$lcc2286817$108                   action
     00001735  A$lcc2286817$109                   action
     00001737  A$lcc2286817$110                   action
     00001738  A$lcc2286817$111                   action
     0000173A  A$lcc2286817$112                   action
     0000173B  A$lcc2286817$113                   action
     0000173D  A$lcc2286817$114                   action
     0000173E  A$lcc2286817$115                   action
     00001740  A$lcc2286817$116                   action
     00001741  A$lcc2286817$117                   action
     00001742  A$lcc2286817$118                   action
     00001743  A$lcc2286817$119                   action
     00001744  A$lcc2286817$120                   action
     00001745  A$lcc2286817$121                   action
     00001746  A$lcc2286817$122                   action
     00001747  A$lcc2286817$123                   action
     00001748  A$lcc2286817$124                   action
     00001749  A$lcc2286817$125                   action
     0000174A  A$lcc2286817$126                   action
     0000174C  A$lcc2286817$127                   action
     0000174D  A$lcc2286817$128                   action
     0000174E  A$lcc2286817$129                   action
     0000174F  A$lcc2286817$130                   action
     00001750  A$lcc2286817$131                   action
     00001751  A$lcc2286817$132                   action
     00001752  A$lcc2286817$133                   action
     00001753  A$lcc2286817$134                   action
     00001754  A$lcc2286817$135                   action
     00001755  A$lcc2286817$136                   action
     00001756  A$lcc2286817$140                   action
     00001756  C$action.c$19$1_0$150              action
     00001759  A$lcc2286817$141                   action
     0000175A  A$lcc2286817$142                   action
     0000175B  A$lcc2286817$143                   action
     0000175D  A$lcc2286817$144                   action
     0000175E  A$lcc2286817$145                   action
     0000175F  A$lcc2286817$146                   action
     00001760  A$lcc2286817$147                   action
     00001761  A$lcc2286817$148                   action
     00001762  A$lcc2286817$153                   action
ASxxxx Linker V03.00/V05.40 + sdld,  page 7.
Hexadecimal  [32-Bits]

Area                                    Addr        Size        Decimal Bytes (Attributes)
--------------------------------        ----        ----        ------- ----- ------------
_CODE                               00000200    000029E6 =       10726. bytes (REL,CON)

      Value  Global                              Global Defined In Module
      -----  --------------------------------   ------------------------
     00001764  A$lcc2286817$158                   action
     00001764  C$action.c$20$1_0$150              action
     00001764  XG$move_up$0$0                     action
     00001765  A$lcc2286817$168                   action
     00001765  C$action.c$22$1_0$153              action
     00001765  G$move_down$0$0                    action
     00001765  _move_down                         action
     00001767  A$lcc2286817$169                   action
     00001769  A$lcc2286817$170                   action
     0000176A  A$lcc2286817$174                   action
     0000176A  C$action.c$24$2_0$154              action
     0000176D  A$lcc2286817$175                   action
     0000176F  A$lcc2286817$179                   action
     0000176F  C$action.c$25$2_0$154              action
     00001771  A$lcc2286817$183                   action
     00001771  C$action.c$27$1_0$153              action
     00001773  A$lcc2286817$184                   action
     00001774  A$lcc2286817$185                   action
     00001775  A$lcc2286817$186                   action
     00001777  A$lcc2286817$187                   action
     00001778  A$lcc2286817$188                   action
     0000177A  A$lcc2286817$189                   action
     0000177C  A$lcc2286817$190                   action
     0000177D  A$lcc2286817$191                   action
     00001780  A$lcc2286817$192                   action
     00001782  A$lcc2286817$193                   action
     00001783  A$lcc2286817$194                   action
     00001784  A$lcc2286817$195                   action
     00001785  A$lcc2286817$196                   action
     00001786  A$lcc2286817$197                   action
     00001787  A$lcc2286817$198                   action
     00001788  A$lcc2286817$199                   action
     00001789  A$lcc2286817$200                   action
     0000178B  A$lcc2286817$201                   action
     0000178C  A$lcc2286817$202                   action
     0000178D  A$lcc2286817$203                   action
     0000178F  A$lcc2286817$204                   action
     00001790  A$lcc2286817$205                   action
     00001791  A$lcc2286817$206                   action
     00001792  A$lcc2286817$207                   action
     00001793  A$lcc2286817$208                   action
     00001794  A$lcc2286817$209                   action
     00001795  A$lcc2286817$210                   action
     00001796  A$lcc2286817$211                   action
     00001797  A$lcc2286817$212                   action
     00001798  A$lcc2286817$213                   action
     00001799  A$lcc2286817$217                   action
     00001799  C$action.c$28$1_0$153              action
     0000179C  A$lcc2286817$218                   action
     0000179E  A$lcc2286817$219                   action
     0000179F  A$lcc2286817$220                   action
ASxxxx Linker V03.00/V05.40 + sdld,  page 8.
Hexadecimal  [32-Bits]

Area                                    Addr        Size        Decimal Bytes (Attributes)
--------------------------------        ----        ----        ------- ----- ------------
_CODE                               00000200    000029E6 =       10726. bytes (REL,CON)

      Value  Global                              Global Defined In Module
      -----  --------------------------------   ------------------------
     000017A1  A$lcc2286817$221                   action
     000017A2  A$lcc2286817$222                   action
     000017A3  A$lcc2286817$223                   action
     000017A4  A$lcc2286817$224                   action
     000017A5  A$lcc2286817$225                   action
     000017A6  A$lcc2286817$230                   action
     000017A8  A$lcc2286817$235                   action
     000017A8  C$action.c$29$1_0$153              action
     000017A8  XG$move_down$0$0                   action
     000017A9  A$lcc2286817$245                   action
     000017A9  C$action.c$31$1_0$156              action
     000017A9  G$move_left$0$0                    action
     000017A9  _move_left                         action
     000017AB  A$lcc2286817$246                   action
     000017AD  A$lcc2286817$247                   action
     000017AE  A$lcc2286817$251                   action
     000017AE  C$action.c$33$2_0$157              action
     000017B1  A$lcc2286817$252                   action
     000017B3  A$lcc2286817$256                   action
     000017B3  C$action.c$34$2_0$157              action
     000017B5  A$lcc2286817$260                   action
     000017B5  C$action.c$36$1_0$156              action
     000017B7  A$lcc2286817$261                   action
     000017B8  A$lcc2286817$262                   action
     000017B9  A$lcc2286817$263                   action
     000017BB  A$lcc2286817$264                   action
     000017BC  A$lcc2286817$265                   action
     000017BE  A$lcc2286817$266                   action
     000017C0  A$lcc2286817$267                   action
     000017C1  A$lcc2286817$268                   action
     000017C4  A$lcc2286817$269                   action
     000017C6  A$lcc2286817$270                   action
     000017C7  A$lcc2286817$271                   action
     000017C8  A$lcc2286817$272                   action
     000017C9  A$lcc2286817$273                   action
     000017CA  A$lcc2286817$274                   action
     000017CB  A$lcc2286817$275                   action
     000017CC  A$lcc2286817$276                   action
     000017CD  A$lcc2286817$277                   action
     000017CE  A$lcc2286817$278                   action
     000017CF  A$lcc2286817$279                   action
     000017D0  A$lcc2286817$280                   action
     000017D2  A$lcc2286817$281                   action
     000017D3  A$lcc2286817$282                   action
     000017D5  A$lcc2286817$283                   action
     000017D6  A$lcc2286817$284                   action
     000017D8  A$lcc2286817$285                   action
     000017D9  A$lcc2286817$286                   action
     000017DB  A$lcc2286817$287                   action
     000017DC  A$lcc2286817$288                   action
     000017DE  A$lcc2286817$289                   action
ASxxxx Linker V03.00/V05.40 + sdld,  page 9.
Hexadecimal  [32-Bits]

Area                                    Addr        Size        Decimal Bytes (Attributes)
--------------------------------        ----        ----        ------- ----- ------------
_CODE                               00000200    000029E6 =       10726. bytes (REL,CON)

      Value  Global                              Global Defined In Module
      -----  --------------------------------   ------------------------
     000017DF  A$lcc2286817$290                   action
     000017E1  A$lcc2286817$291                   action
     000017E2  A$lcc2286817$292                   action
     000017E3  A$lcc2286817$293                   action
     000017E4  A$lcc2286817$294                   action
     000017E5  A$lcc2286817$295                   action
     000017E6  A$lcc2286817$296                   action
     000017E7  A$lcc2286817$297                   action
     000017E8  A$lcc2286817$298                   action
     000017E9  A$lcc2286817$299                   action
     000017EA  A$lcc2286817$300                   action
     000017EB  A$lcc2286817$301                   action
     000017ED  A$lcc2286817$302                   action
     000017EE  A$lcc2286817$303                   action
     000017EF  A$lcc2286817$304                   action
     000017F0  A$lcc2286817$305                   action
     000017F1  A$lcc2286817$309                   action
     000017F1  C$action.c$37$1_0$156              action
     000017F2  A$lcc2286817$310                   action
     000017F3  A$lcc2286817$311                   action
     000017F4  A$lcc2286817$312                   action
     000017F5  A$lcc2286817$313                   action
     000017F6  A$lcc2286817$314                   action
     000017F7  A$lcc2286817$315                   action
     000017F8  A$lcc2286817$316                   action
     000017F9  A$lcc2286817$317                   action
     000017FC  A$lcc2286817$318                   action
     000017FD  A$lcc2286817$319                   action
     000017FF  A$lcc2286817$320                   action
     00001800  A$lcc2286817$321                   action
     00001801  A$lcc2286817$322                   action
     00001802  A$lcc2286817$323                   action
     00001803  A$lcc2286817$324                   action
     00001804  A$lcc2286817$325                   action
     00001805  A$lcc2286817$330                   action
     00001807  A$lcc2286817$335                   action
     00001807  C$action.c$38$1_0$156              action
     00001807  XG$move_left$0$0                   action
     00001808  A$lcc2286817$345                   action
     00001808  C$action.c$40$1_0$159              action
     00001808  G$move_right$0$0                   action
     00001808  _move_right                        action
     0000180A  A$lcc2286817$346                   action
     0000180C  A$lcc2286817$347                   action
     0000180D  A$lcc2286817$351                   action
     0000180D  C$action.c$42$2_0$160              action
     00001810  A$lcc2286817$352                   action
     00001812  A$lcc2286817$356                   action
     00001812  C$action.c$43$2_0$160              action
     00001814  A$lcc2286817$360                   action
     00001814  C$action.c$45$1_0$159              action
ASxxxx Linker V03.00/V05.40 + sdld,  page 10.
Hexadecimal  [32-Bits]

Area                                    Addr        Size        Decimal Bytes (Attributes)
--------------------------------        ----        ----        ------- ----- ------------
_CODE                               00000200    000029E6 =       10726. bytes (REL,CON)

      Value  Global                              Global Defined In Module
      -----  --------------------------------   ------------------------
     00001816  A$lcc2286817$361                   action
     00001817  A$lcc2286817$362                   action
     00001818  A$lcc2286817$363                   action
     0000181A  A$lcc2286817$364                   action
     0000181B  A$lcc2286817$365                   action
     0000181D  A$lcc2286817$366                   action
     0000181F  A$lcc2286817$367                   action
     00001820  A$lcc2286817$368                   action
     00001823  A$lcc2286817$369                   action
     00001825  A$lcc2286817$370                   action
     00001826  A$lcc2286817$371                   action
     00001827  A$lcc2286817$372                   action
     00001828  A$lcc2286817$373                   action
     00001829  A$lcc2286817$374                   action
     0000182A  A$lcc2286817$375                   action
     0000182B  A$lcc2286817$376                   action
     0000182C  A$lcc2286817$377                   action
     0000182E  A$lcc2286817$378                   action
     0000182F  A$lcc2286817$379                   action
     00001830  A$lcc2286817$380                   action
     00001832  A$lcc2286817$381                   action
     00001833  A$lcc2286817$382                   action
     00001834  A$lcc2286817$383                   action
     00001835  A$lcc2286817$384                   action
     00001836  A$lcc2286817$385                   action
     00001837  A$lcc2286817$386                   action
     00001838  A$lcc2286817$387                   action
     00001839  A$lcc2286817$388                   action
     0000183A  A$lcc2286817$389                   action
     0000183B  A$lcc2286817$390                   action
     0000183C  A$lcc2286817$394                   action
     0000183C  C$action.c$46$1_0$159              action
     0000183D  A$lcc2286817$395                   action
     00001840  A$lcc2286817$396                   action
     00001842  A$lcc2286817$397                   action
     00001843  A$lcc2286817$398                   action
     00001845  A$lcc2286817$399                   action
     00001846  A$lcc2286817$400                   action
     00001847  A$lcc2286817$401                   action
     00001848  A$lcc2286817$402                   action
     00001849  A$lcc2286817$403                   action
     0000184A  A$lcc2286817$404                   action
     0000184B  A$lcc2286817$409                   action
     0000184D  A$lcc2286817$414                   action
     0000184D  C$action.c$47$1_0$159              action
     0000184D  XG$move_right$0$0                  action
     0000184E  A$lcc2286817$424                   action
     0000184E  C$action.c$49$1_0$162              action
     0000184E  G$check_input$0$0                  action
     0000184E  _check_input                       action
     00001850  A$lcc2286817$428                   action
ASxxxx Linker V03.00/V05.40 + sdld,  page 11.
Hexadecimal  [32-Bits]

Area                                    Addr        Size        Decimal Bytes (Attributes)
--------------------------------        ----        ----        ------- ----- ------------
_CODE                               00000200    000029E6 =       10726. bytes (REL,CON)

      Value  Global                              Global Defined In Module
      -----  --------------------------------   ------------------------
     00001850  C$action.c$51$1_0$162              action
     00001853  A$lcc2286817$429                   action
     00001855  A$lcc2286817$430                   action
     00001856  A$lcc2286817$434                   action
     00001856  C$action.c$53$2_0$163              action
     00001857  A$lcc2286817$435                   action
     00001859  A$lcc2286817$436                   action
     0000185B  A$lcc2286817$437                   action
     0000185C  A$lcc2286817$438                   action
     0000185E  A$lcc2286817$439                   action
     00001861  A$lcc2286817$440                   action
     00001863  A$lcc2286817$441                   action
     00001865  A$lcc2286817$445                   action
     00001865  C$action.c$55$3_0$164              action
     00001868  A$lcc2286817$446                   action
     00001869  A$lcc2286817$447                   action
     0000186C  A$lcc2286817$448                   action
     0000186D  A$lcc2286817$449                   action
     0000186E  A$lcc2286817$450                   action
     0000186F  A$lcc2286817$451                   action
     00001870  A$lcc2286817$452                   action
     00001871  A$lcc2286817$453                   action
     00001872  A$lcc2286817$454                   action
     00001875  A$lcc2286817$455                   action
     00001877  A$lcc2286817$456                   action
     00001878  A$lcc2286817$457                   action
     0000187A  A$lcc2286817$458                   action
     0000187B  A$lcc2286817$459                   action
     0000187C  A$lcc2286817$460                   action
     0000187F  A$lcc2286817$465                   action
     0000187F  C$action.c$61$1_0$162              action
     00001881  A$lcc2286817$466                   action
     00001882  A$lcc2286817$467                   action
     00001884  A$lcc2286817$468                   action
     00001885  A$lcc2286817$472                   action
     00001885  C$action.c$63$1_0$162              action
     00001886  A$lcc2286817$473                   action
     00001887  A$lcc2286817$474                   action
     00001888  A$lcc2286817$475                   action
     00001889  A$lcc2286817$476                   action
     0000188B  A$lcc2286817$477                   action
     0000188D  A$lcc2286817$478                   action
     0000188E  A$lcc2286817$479                   action
     00001890  A$lcc2286817$483                   action
     00001890  C$action.c$65$1_0$162              action
     00001892  A$lcc2286817$484                   action
     00001893  A$lcc2286817$485                   action
     00001895  A$lcc2286817$486                   action
     00001897  A$lcc2286817$487                   action
     00001898  A$lcc2286817$488                   action
     0000189A  A$lcc2286817$492                   action
ASxxxx Linker V03.00/V05.40 + sdld,  page 12.
Hexadecimal  [32-Bits]

Area                                    Addr        Size        Decimal Bytes (Attributes)
--------------------------------        ----        ----        ------- ----- ------------
_CODE                               00000200    000029E6 =       10726. bytes (REL,CON)

      Value  Global                              Global Defined In Module
      -----  --------------------------------   ------------------------
     0000189A  C$action.c$67$1_0$162              action
     0000189C  A$lcc2286817$493                   action
     0000189D  A$lcc2286817$494                   action
     0000189F  A$lcc2286817$495                   action
     000018A1  A$lcc2286817$496                   action
     000018A2  A$lcc2286817$497                   action
     000018A4  A$lcc2286817$501                   action
     000018A4  C$action.c$59$2_0$165              action
     000018A7  A$lcc2286817$505                   action
     000018A7  C$action.c$61$4_0$167              action
     000018A8  A$lcc2286817$506                   action
     000018AA  A$lcc2286817$507                   action
     000018AC  A$lcc2286817$508                   action
     000018AD  A$lcc2286817$509                   action
     000018AF  A$lcc2286817$513                   action
     000018AF  C$action.c$62$4_0$167              action
     000018B2  A$lcc2286817$514                   action
     000018B4  A$lcc2286817$515                   action
     000018B6  A$lcc2286817$520                   action
     000018B6  C$action.c$63$5_0$168              action
     000018B7  A$lcc2286817$521                   action
     000018B9  A$lcc2286817$522                   action
     000018BA  A$lcc2286817$523                   action
     000018BC  A$lcc2286817$527                   action
     000018BC  C$action.c$64$5_0$168              action
     000018BF  A$lcc2286817$528                   action
     000018C1  A$lcc2286817$529                   action
     000018C3  A$lcc2286817$534                   action
     000018C3  C$action.c$65$6_0$169              action
     000018C4  A$lcc2286817$535                   action
     000018C6  A$lcc2286817$536                   action
     000018C7  A$lcc2286817$537                   action
     000018C9  A$lcc2286817$541                   action
     000018C9  C$action.c$66$6_0$169              action
     000018CC  A$lcc2286817$542                   action
     000018CE  A$lcc2286817$543                   action
     000018D0  A$lcc2286817$548                   action
     000018D0  C$action.c$67$7_0$170              action
     000018D1  A$lcc2286817$549                   action
     000018D3  A$lcc2286817$550                   action
     000018D4  A$lcc2286817$551                   action
     000018D6  A$lcc2286817$555                   action
     000018D6  C$action.c$68$7_0$170              action
     000018D9  A$lcc2286817$556                   action
     000018DB  A$lcc2286817$561                   action
     000018DB  C$action.c$72$2_0$171              action
     000018DE  A$lcc2286817$562                   action
     000018DF  A$lcc2286817$563                   action
     000018E1  A$lcc2286817$564                   action
     000018E4  A$lcc2286817$565                   action
     000018E6  A$lcc2286817$566                   action
ASxxxx Linker V03.00/V05.40 + sdld,  page 13.
Hexadecimal  [32-Bits]

Area                                    Addr        Size        Decimal Bytes (Attributes)
--------------------------------        ----        ----        ------- ----- ------------
_CODE                               00000200    000029E6 =       10726. bytes (REL,CON)

      Value  Global                              Global Defined In Module
      -----  --------------------------------   ------------------------
     000018E8  A$lcc2286817$567                   action
     000018EA  A$lcc2286817$568                   action
     000018EC  A$lcc2286817$569                   action
     000018EE  A$lcc2286817$570                   action
     000018F0  A$lcc2286817$571                   action
     000018F2  A$lcc2286817$579                   action
     000018F2  C$action.c$74$3_0$172              action
     000018F2  C$action.c$75$3_0$172              action
     000018F5  A$lcc2286817$580                   action
     000018F8  A$lcc2286817$584                   action
     000018F8  C$action.c$76$3_0$172              action
     000018FB  A$lcc2286817$585                   action
     000018FD  A$lcc2286817$586                   action
     000018FE  A$lcc2286817$587                   action
     00001901  A$lcc2286817$588                   action
     00001902  A$lcc2286817$589                   action
     00001904  A$lcc2286817$590                   action
     00001905  A$lcc2286817$591                   action
     00001906  A$lcc2286817$592                   action
     00001907  A$lcc2286817$593                   action
     00001908  A$lcc2286817$594                   action
     00001909  A$lcc2286817$595                   action
     0000190A  A$lcc2286817$596                   action
     0000190B  A$lcc2286817$597                   action
     0000190C  A$lcc2286817$598                   action
     0000190D  A$lcc2286817$599                   action
     00001910  A$lcc2286817$600                   action
     00001911  A$lcc2286817$601                   action
     00001912  A$lcc2286817$602                   action
     00001913  A$lcc2286817$603                   action
     00001915  A$lcc2286817$604                   action
     00001916  A$lcc2286817$605                   action
     00001919  A$lcc2286817$609                   action
     00001919  C$action.c$77$3_0$172              action
     0000191B  A$lcc2286817$617                   action
     0000191B  C$action.c$78$3_0$172              action
     0000191B  C$action.c$79$3_0$172              action
     0000191E  A$lcc2286817$618                   action
     00001921  A$lcc2286817$622                   action
     00001921  C$action.c$80$3_0$172              action
     00001924  A$lcc2286817$623                   action
     00001926  A$lcc2286817$624                   action
     00001927  A$lcc2286817$625                   action
     0000192A  A$lcc2286817$626                   action
     0000192B  A$lcc2286817$627                   action
     0000192D  A$lcc2286817$628                   action
     0000192E  A$lcc2286817$629                   action
     0000192F  A$lcc2286817$630                   action
     00001930  A$lcc2286817$631                   action
     00001931  A$lcc2286817$632                   action
     00001932  A$lcc2286817$633                   action
ASxxxx Linker V03.00/V05.40 + sdld,  page 14.
Hexadecimal  [32-Bits]

Area                                    Addr        Size        Decimal Bytes (Attributes)
--------------------------------        ----        ----        ------- ----- ------------
_CODE                               00000200    000029E6 =       10726. bytes (REL,CON)

      Value  Global                              Global Defined In Module
      -----  --------------------------------   ------------------------
     00001933  A$lcc2286817$634                   action
     00001934  A$lcc2286817$635                   action
     00001935  A$lcc2286817$636                   action
     00001936  A$lcc2286817$637                   action
     00001937  A$lcc2286817$638                   action
     00001938  A$lcc2286817$639                   action
     00001939  A$lcc2286817$640                   action
     0000193A  A$lcc2286817$641                   action
     0000193B  A$lcc2286817$642                   action
     0000193E  A$lcc2286817$643                   action
     0000193F  A$lcc2286817$644                   action
     00001940  A$lcc2286817$645                   action
     00001941  A$lcc2286817$646                   action
     00001943  A$lcc2286817$647                   action
     00001944  A$lcc2286817$648                   action
     00001945  A$lcc2286817$649                   action
     00001946  A$lcc2286817$650                   action
     00001948  A$lcc2286817$651                   action
     00001949  A$lcc2286817$652                   action
     0000194A  A$lcc2286817$653                   action
     0000194B  A$lcc2286817$654                   action
     0000194C  A$lcc2286817$655                   action
     0000194D  A$lcc2286817$656                   action
     0000194E  A$lcc2286817$657                   action
     00001951  A$lcc2286817$661                   action
     00001951  C$action.c$81$3_0$172              action
     00001953  A$lcc2286817$669                   action
     00001953  C$action.c$82$3_0$172              action
     00001953  C$action.c$83$3_0$172              action
     00001956  A$lcc2286817$670                   action
     00001959  A$lcc2286817$674                   action
     00001959  C$action.c$84$3_0$172              action
     0000195B  A$lcc2286817$682                   action
     0000195B  C$action.c$85$3_0$172              action
     0000195B  C$action.c$86$3_0$172              action
     0000195E  A$lcc2286817$683                   action
     00001961  A$lcc2286817$691                   action
     00001961  C$action.c$90$2_0$171              action
     00001961  C$action.c$93$2_0$173              action
     00001964  A$lcc2286817$692                   action
     00001965  A$lcc2286817$693                   action
     00001967  A$lcc2286817$694                   action
     00001969  A$lcc2286817$698                   action
     00001969  C$action.c$95$3_0$174              action
     0000196A  A$lcc2286817$699                   action
     0000196C  A$lcc2286817$700                   action
     0000196F  A$lcc2286817$704                   action
     0000196F  C$action.c$96$3_0$174              action
     00001972  A$lcc2286817$705                   action
     00001974  A$lcc2286817$706                   action
     00001975  A$lcc2286817$707                   action
ASxxxx Linker V03.00/V05.40 + sdld,  page 15.
Hexadecimal  [32-Bits]

Area                                    Addr        Size        Decimal Bytes (Attributes)
--------------------------------        ----        ----        ------- ----- ------------
_CODE                               00000200    000029E6 =       10726. bytes (REL,CON)

      Value  Global                              Global Defined In Module
      -----  --------------------------------   ------------------------
     00001978  A$lcc2286817$708                   action
     00001979  A$lcc2286817$709                   action
     0000197B  A$lcc2286817$710                   action
     0000197C  A$lcc2286817$711                   action
     0000197D  A$lcc2286817$712                   action
     0000197E  A$lcc2286817$713                   action
     0000197F  A$lcc2286817$714                   action
     00001980  A$lcc2286817$715                   action
     00001981  A$lcc2286817$716                   action
     00001982  A$lcc2286817$717                   action
     00001983  A$lcc2286817$718                   action
     00001984  A$lcc2286817$719                   action
     00001985  A$lcc2286817$720                   action
     00001986  A$lcc2286817$721                   action
     00001988  A$lcc2286817$722                   action
     00001989  A$lcc2286817$723                   action
     0000198A  A$lcc2286817$724                   action
     0000198B  A$lcc2286817$725                   action
     0000198D  A$lcc2286817$726                   action
     0000198E  A$lcc2286817$727                   action
     00001991  A$lcc2286817$728                   action
     00001992  A$lcc2286817$729                   action
     00001993  A$lcc2286817$730                   action
     00001994  A$lcc2286817$731                   action
     00001995  A$lcc2286817$732                   action
     00001996  A$lcc2286817$733                   action
     00001997  A$lcc2286817$734                   action
     00001999  A$lcc2286817$735                   action
     0000199A  A$lcc2286817$736                   action
     0000199B  A$lcc2286817$737                   action
     0000199C  A$lcc2286817$738                   action
     0000199E  A$lcc2286817$739                   action
     0000199F  A$lcc2286817$740                   action
     000019A0  A$lcc2286817$741                   action
     000019A1  A$lcc2286817$742                   action
     000019A2  A$lcc2286817$743                   action
     000019A3  A$lcc2286817$744                   action
     000019A4  A$lcc2286817$745                   action
     000019A7  A$lcc2286817$750                   action
     000019A7  C$action.c$99$2_0$175              action
     000019AA  A$lcc2286817$751                   action
     000019AC  A$lcc2286817$752                   action
     000019AE  A$lcc2286817$753                   action
     000019AF  A$lcc2286817$754                   action
     000019B1  A$lcc2286817$758                   action
     000019B1  C$action.c$101$3_0$176             action
     000019B2  A$lcc2286817$759                   action
     000019B4  A$lcc2286817$760                   action
     000019B7  A$lcc2286817$764                   action
     000019B7  C$action.c$102$3_0$176             action
     000019BA  A$lcc2286817$765                   action
ASxxxx Linker V03.00/V05.40 + sdld,  page 16.
Hexadecimal  [32-Bits]

Area                                    Addr        Size        Decimal Bytes (Attributes)
--------------------------------        ----        ----        ------- ----- ------------
_CODE                               00000200    000029E6 =       10726. bytes (REL,CON)

      Value  Global                              Global Defined In Module
      -----  --------------------------------   ------------------------
     000019BC  A$lcc2286817$766                   action
     000019BD  A$lcc2286817$767                   action
     000019C0  A$lcc2286817$768                   action
     000019C1  A$lcc2286817$769                   action
     000019C3  A$lcc2286817$770                   action
     000019C4  A$lcc2286817$771                   action
     000019C5  A$lcc2286817$772                   action
     000019C6  A$lcc2286817$773                   action
     000019C7  A$lcc2286817$774                   action
     000019C8  A$lcc2286817$775                   action
     000019C9  A$lcc2286817$776                   action
     000019CA  A$lcc2286817$777                   action
     000019CB  A$lcc2286817$778                   action
     000019CC  A$lcc2286817$779                   action
     000019CD  A$lcc2286817$780                   action
     000019CE  A$lcc2286817$781                   action
     000019D0  A$lcc2286817$782                   action
     000019D1  A$lcc2286817$783                   action
     000019D2  A$lcc2286817$784                   action
     000019D3  A$lcc2286817$785                   action
     000019D5  A$lcc2286817$786                   action
     000019D6  A$lcc2286817$787                   action
     000019D9  A$lcc2286817$788                   action
     000019DA  A$lcc2286817$789                   action
     000019DB  A$lcc2286817$790                   action
     000019DC  A$lcc2286817$791                   action
     000019DD  A$lcc2286817$792                   action
     000019DE  A$lcc2286817$793                   action
     000019DF  A$lcc2286817$794                   action
     000019E1  A$lcc2286817$795                   action
     000019E2  A$lcc2286817$796                   action
     000019E3  A$lcc2286817$797                   action
     000019E4  A$lcc2286817$798                   action
     000019E6  A$lcc2286817$799                   action
     000019E7  A$lcc2286817$800                   action
     000019E8  A$lcc2286817$801                   action
     000019E9  A$lcc2286817$802                   action
     000019EA  A$lcc2286817$803                   action
     000019EB  A$lcc2286817$804                   action
     000019EC  A$lcc2286817$805                   action
     000019EF  A$lcc2286817$810                   action
     000019EF  C$action.c$105$2_0$177             action
     000019F2  A$lcc2286817$811                   action
     000019F4  A$lcc2286817$812                   action
     000019F6  A$lcc2286817$813                   action
     000019F7  A$lcc2286817$814                   action
     000019F9  A$lcc2286817$818                   action
     000019F9  C$action.c$106$2_0$177             action
     000019FA  A$lcc2286817$819                   action
     000019FC  A$lcc2286817$820                   action
     000019FF  A$lcc2286817$825                   action
ASxxxx Linker V03.00/V05.40 + sdld,  page 17.
Hexadecimal  [32-Bits]

Area                                    Addr        Size        Decimal Bytes (Attributes)
--------------------------------        ----        ----        ------- ----- ------------
_CODE                               00000200    000029E6 =       10726. bytes (REL,CON)

      Value  Global                              Global Defined In Module
      -----  --------------------------------   ------------------------
     000019FF  C$action.c$107$2_0$178             action
     00001A02  A$lcc2286817$826                   action
     00001A04  A$lcc2286817$827                   action
     00001A06  A$lcc2286817$828                   action
     00001A07  A$lcc2286817$829                   action
     00001A09  A$lcc2286817$833                   action
     00001A09  C$action.c$108$2_0$178             action
     00001A0A  A$lcc2286817$834                   action
     00001A0C  A$lcc2286817$835                   action
     00001A0F  A$lcc2286817$840                   action
     00001A0F  C$action.c$110$1_0$162             action
     00001A11  A$lcc2286817$841                   action
     00001A12  A$lcc2286817$842                   action
     00001A15  A$lcc2286817$846                   action
     00001A17  A$lcc2286817$851                   action
     00001A17  C$action.c$111$1_0$162             action
     00001A17  XG$check_input$0$0                 action
     00001A18  A$lcc2286819$59                    animation
     00001A18  C$animation.c$7$0_0$135            animation
     00001A18  G$init_animation$0$0               animation
     00001A18  _init_animation                    animation
     00001A1A  A$lcc2286819$60                    animation
     00001A1C  A$lcc2286819$61                    animation
     00001A1D  A$lcc2286819$62                    animation
     00001A1E  A$lcc2286819$63                    animation
     00001A1F  A$lcc2286819$64                    animation
     00001A20  A$lcc2286819$65                    animation
     00001A21  A$lcc2286819$69                    animation
     00001A21  C$animation.c$12$1_0$135           animation
     00001A23  A$lcc2286819$70                    animation
     00001A24  A$lcc2286819$71                    animation
     00001A25  A$lcc2286819$72                    animation
     00001A26  A$lcc2286819$73                    animation
     00001A27  A$lcc2286819$74                    animation
     00001A28  A$lcc2286819$75                    animation
     00001A29  A$lcc2286819$76                    animation
     00001A2B  A$lcc2286819$77                    animation
     00001A2D  A$lcc2286819$78                    animation
     00001A2E  A$lcc2286819$79                    animation
     00001A2F  A$lcc2286819$80                    animation
     00001A30  A$lcc2286819$81                    animation
     00001A31  A$lcc2286819$82                    animation
     00001A32  A$lcc2286819$83                    animation
     00001A33  A$lcc2286819$87                    animation
     00001A33  C$animation.c$14$1_0$135           animation
     00001A34  A$lcc2286819$88                    animation
     00001A35  A$lcc2286819$89                    animation
     00001A36  A$lcc2286819$90                    animation
     00001A38  A$lcc2286819$91                    animation
     00001A39  A$lcc2286819$92                    animation
     00001A3A  A$lcc2286819$96                    animation
ASxxxx Linker V03.00/V05.40 + sdld,  page 18.
Hexadecimal  [32-Bits]

Area                                    Addr        Size        Decimal Bytes (Attributes)
--------------------------------        ----        ----        ------- ----- ------------
_CODE                               00000200    000029E6 =       10726. bytes (REL,CON)

      Value  Global                              Global Defined In Module
      -----  --------------------------------   ------------------------
     00001A3A  C$animation.c$15$1_0$135           animation
     00001A3B  A$lcc2286819$97                    animation
     00001A3C  A$lcc2286819$98                    animation
     00001A3D  A$lcc2286819$99                    animation
     00001A3E  A$lcc2286819$100                   animation
     00001A3F  A$lcc2286819$101                   animation
     00001A40  A$lcc2286819$102                   animation
     00001A42  A$lcc2286819$103                   animation
     00001A43  A$lcc2286819$104                   animation
     00001A44  A$lcc2286819$105                   animation
     00001A45  A$lcc2286819$109                   animation
     00001A45  C$animation.c$16$1_0$135           animation
     00001A48  A$lcc2286819$110                   animation
     00001A49  A$lcc2286819$111                   animation
     00001A4B  A$lcc2286819$115                   animation
     00001A4B  C$animation.c$17$1_0$135           animation
     00001A4C  A$lcc2286819$116                   animation
     00001A4D  A$lcc2286819$117                   animation
     00001A4E  A$lcc2286819$118                   animation
     00001A4F  A$lcc2286819$119                   animation
     00001A51  A$lcc2286819$123                   animation
     00001A51  C$animation.c$18$1_0$135           animation
     00001A54  A$lcc2286819$124                   animation
     00001A55  A$lcc2286819$125                   animation
     00001A56  A$lcc2286819$126                   animation
     00001A58  A$lcc2286819$127                   animation
     00001A59  A$lcc2286819$128                   animation
     00001A5A  A$lcc2286819$129                   animation
     00001A5B  A$lcc2286819$133                   animation
     00001A5B  C$animation.c$21$1_0$135           animation
     00001A5C  A$lcc2286819$134                   animation
     00001A5D  A$lcc2286819$135                   animation
     00001A5E  A$lcc2286819$136                   animation
     00001A5F  A$lcc2286819$137                   animation
     00001A61  A$lcc2286819$138                   animation
     00001A62  A$lcc2286819$139                   animation
     00001A63  A$lcc2286819$140                   animation
     00001A64  A$lcc2286819$141                   animation
     00001A65  A$lcc2286819$142                   animation
     00001A68  A$lcc2286819$143                   animation
     00001A69  A$lcc2286819$144                   animation
     00001A6A  A$lcc2286819$145                   animation
     00001A6B  A$lcc2286819$146                   animation
     00001A6D  A$lcc2286819$147                   animation
     00001A6E  A$lcc2286819$148                   animation
     00001A6F  A$lcc2286819$149                   animation
     00001A70  A$lcc2286819$150                   animation
     00001A72  A$lcc2286819$151                   animation
     00001A73  A$lcc2286819$152                   animation
     00001A76  A$lcc2286819$153                   animation
     00001A77  A$lcc2286819$154                   animation
ASxxxx Linker V03.00/V05.40 + sdld,  page 19.
Hexadecimal  [32-Bits]

Area                                    Addr        Size        Decimal Bytes (Attributes)
--------------------------------        ----        ----        ------- ----- ------------
_CODE                               00000200    000029E6 =       10726. bytes (REL,CON)

      Value  Global                              Global Defined In Module
      -----  --------------------------------   ------------------------
     00001A78  A$lcc2286819$155                   animation
     00001A79  A$lcc2286819$156                   animation
     00001A7A  A$lcc2286819$160                   animation
     00001A7A  C$animation.c$24$2_0$135           animation
     00001A7C  A$lcc2286819$162                   animation
     00001A7D  A$lcc2286819$163                   animation
     00001A7E  A$lcc2286819$164                   animation
     00001A7F  A$lcc2286819$165                   animation
     00001A80  A$lcc2286819$166                   animation
     00001A82  A$lcc2286819$167                   animation
     00001A83  A$lcc2286819$168                   animation
     00001A85  A$lcc2286819$173                   animation
     00001A85  C$animation.c$32$2_0$138           animation
     00001A87  A$lcc2286819$174                   animation
     00001A88  A$lcc2286819$175                   animation
     00001A89  A$lcc2286819$176                   animation
     00001A8A  A$lcc2286819$177                   animation
     00001A8D  A$lcc2286819$178                   animation
     00001A8E  A$lcc2286819$179                   animation
     00001A8F  A$lcc2286819$180                   animation
     00001A90  A$lcc2286819$181                   animation
     00001A91  A$lcc2286819$182                   animation
     00001A92  A$lcc2286819$183                   animation
     00001A94  A$lcc2286819$187                   animation
     00001A94  C$animation.c$33$2_0$138           animation
     00001A96  A$lcc2286819$188                   animation
     00001A97  A$lcc2286819$189                   animation
     00001A98  A$lcc2286819$194                   animation
     00001A98  C$animation.c$34$2_0$135           animation
     00001A9A  A$lcc2286819$195                   animation
     00001A9B  A$lcc2286819$196                   animation
     00001A9D  A$lcc2286819$197                   animation
     00001A9E  A$lcc2286819$207                   animation
     00001A9E  C$animation.c$36$2_0$140           animation
     00001A9E  G$update_animation$0$0             animation
     00001A9E  _update_animation                  animation
     00001A9F  A$lcc2286819$208                   animation
     00001AA0  A$lcc2286819$209                   animation
     00001AA1  A$lcc2286819$210                   animation
     00001AA2  A$lcc2286819$214                   animation
     00001AA2  C$animation.c$38$1_0$140           animation
     00001AA5  A$lcc2286819$215                   animation
     00001AA6  A$lcc2286819$216                   animation
     00001AA7  A$lcc2286819$217                   animation
     00001AA8  A$lcc2286819$218                   animation
     00001AA9  A$lcc2286819$219                   animation
     00001AAA  A$lcc2286819$220                   animation
     00001AAB  A$lcc2286819$221                   animation
     00001AAC  A$lcc2286819$222                   animation
     00001AAD  A$lcc2286819$223                   animation
     00001AAF  A$lcc2286819$224                   animation
ASxxxx Linker V03.00/V05.40 + sdld,  page 20.
Hexadecimal  [32-Bits]

Area                                    Addr        Size        Decimal Bytes (Attributes)
--------------------------------        ----        ----        ------- ----- ------------
_CODE                               00000200    000029E6 =       10726. bytes (REL,CON)

      Value  Global                              Global Defined In Module
      -----  --------------------------------   ------------------------
     00001AB0  A$lcc2286819$225                   animation
     00001AB1  A$lcc2286819$229                   animation
     00001AB1  C$animation.c$40$1_0$140           animation
     00001AB4  A$lcc2286819$230                   animation
     00001AB5  A$lcc2286819$231                   animation
     00001AB6  A$lcc2286819$232                   animation
     00001AB7  A$lcc2286819$233                   animation
     00001AB8  A$lcc2286819$234                   animation
     00001AB9  A$lcc2286819$235                   animation
     00001ABB  A$lcc2286819$236                   animation
     00001ABC  A$lcc2286819$237                   animation
     00001ABD  A$lcc2286819$241                   animation
     00001ABD  C$animation.c$41$2_0$141           animation
     00001ABE  A$lcc2286819$242                   animation
     00001ABF  A$lcc2286819$243                   animation
     00001AC0  A$lcc2286819$244                   animation
     00001AC1  A$lcc2286819$245                   animation
     00001AC2  A$lcc2286819$246                   animation
     00001AC3  A$lcc2286819$247                   animation
     00001AC5  A$lcc2286819$248                   animation
     00001AC6  A$lcc2286819$249                   animation
     00001AC8  A$lcc2286819$250                   animation
     00001AC9  A$lcc2286819$251                   animation
     00001ACA  A$lcc2286819$252                   animation
     00001ACC  A$lcc2286819$256                   animation
     00001ACC  C$animation.c$43$3_0$142           animation
     00001ACD  A$lcc2286819$257                   animation
     00001ACE  A$lcc2286819$261                   animation
     00001ACE  C$animation.c$44$3_0$142           animation
     00001ACF  A$lcc2286819$262                   animation
     00001AD0  A$lcc2286819$263                   animation
     00001AD1  A$lcc2286819$264                   animation
     00001AD2  A$lcc2286819$265                   animation
     00001AD3  A$lcc2286819$266                   animation
     00001AD4  A$lcc2286819$270                   animation
     00001AD4  C$animation.c$45$4_0$143           animation
     00001AD5  A$lcc2286819$271                   animation
     00001AD6  A$lcc2286819$272                   animation
     00001AD7  A$lcc2286819$273                   animation
     00001AD8  A$lcc2286819$274                   animation
     00001AD9  A$lcc2286819$275                   animation
     00001ADB  A$lcc2286819$279                   animation
     00001ADB  C$animation.c$46$4_0$143           animation
     00001ADD  A$lcc2286819$284                   animation
     00001ADE  A$lcc2286819$285                   animation
     00001ADF  A$lcc2286819$290                   animation
     00001ADF  C$animation.c$48$2_0$140           animation
     00001ADF  XG$update_animation$0$0            animation
     00001AE0  A$lcc2286819$300                   animation
     00001AE0  C$animation.c$50$2_0$145           animation
     00001AE0  G$set_animation$0$0                animation
ASxxxx Linker V03.00/V05.40 + sdld,  page 21.
Hexadecimal  [32-Bits]

Area                                    Addr        Size        Decimal Bytes (Attributes)
--------------------------------        ----        ----        ------- ----- ------------
_CODE                               00000200    000029E6 =       10726. bytes (REL,CON)

      Value  Global                              Global Defined In Module
      -----  --------------------------------   ------------------------
     00001AE0  _set_animation                     animation
     00001AE1  A$lcc2286819$301                   animation
     00001AE2  A$lcc2286819$302                   animation
     00001AE3  A$lcc2286819$306                   animation
     00001AE3  C$animation.c$52$2_0$146           animation
     00001AE4  A$lcc2286819$307                   animation
     00001AE6  A$lcc2286819$308                   animation
     00001AE7  A$lcc2286819$309                   animation
     00001AE8  A$lcc2286819$310                   animation
     00001AEA  A$lcc2286819$311                   animation
     00001AEB  A$lcc2286819$312                   animation
     00001AEC  A$lcc2286819$313                   animation
     00001AED  A$lcc2286819$314                   animation
     00001AEE  A$lcc2286819$321                   animation
     00001AEE  C$animation.c$53$2_0$146           animation
     00001AEE  C$animation.c$55$1_0$145           animation
     00001AEF  A$lcc2286819$322                   animation
     00001AF0  A$lcc2286819$326                   animation
     00001AF0  C$animation.c$56$1_1$147           animation
     00001AF1  A$lcc2286819$327                   animation
     00001AF2  A$lcc2286819$328                   animation
     00001AF3  A$lcc2286819$329                   animation
     00001AF4  A$lcc2286819$330                   animation
     00001AF6  A$lcc2286819$331                   animation
     00001AF7  A$lcc2286819$335                   animation
     00001AF7  C$animation.c$57$1_1$147           animation
     00001AF8  A$lcc2286819$336                   animation
     00001AF9  A$lcc2286819$337                   animation
     00001AFA  A$lcc2286819$338                   animation
     00001AFB  A$lcc2286819$339                   animation
     00001AFC  A$lcc2286819$340                   animation
     00001AFD  A$lcc2286819$344                   animation
     00001AFD  C$animation.c$58$1_1$147           animation
     00001B00  A$lcc2286819$345                   animation
     00001B01  A$lcc2286819$346                   animation
     00001B03  A$lcc2286819$354                   animation
     00001B03  C$animation.c$59$1_1$145           animation
     00001B03  XG$set_animation$0$0               animation
     00001B04  A$lcc2286821$52                    char_to_tile
     00001B04  C$char_to_tile.c$3$0_0$3           char_to_tile
     00001B04  G$char_to_tile$0$0                 char_to_tile
     00001B04  _char_to_tile                      char_to_tile
     00001B06  A$lcc2286821$53                    char_to_tile
     00001B08  A$lcc2286821$54                    char_to_tile
     00001B09  A$lcc2286821$58                    char_to_tile
     00001B09  C$char_to_tile.c$4$2_0$3           char_to_tile
     00001B0B  A$lcc2286821$59                    char_to_tile
     00001B0D  A$lcc2286821$60                    char_to_tile
     00001B0E  A$lcc2286821$61                    char_to_tile
     00001B10  A$lcc2286821$62                    char_to_tile
     00001B11  A$lcc2286821$63                    char_to_tile
ASxxxx Linker V03.00/V05.40 + sdld,  page 22.
Hexadecimal  [32-Bits]

Area                                    Addr        Size        Decimal Bytes (Attributes)
--------------------------------        ----        ----        ------- ----- ------------
_CODE                               00000200    000029E6 =       10726. bytes (REL,CON)

      Value  Global                              Global Defined In Module
      -----  --------------------------------   ------------------------
     00001B13  A$lcc2286821$64                    char_to_tile
     00001B14  A$lcc2286821$65                    char_to_tile
     00001B16  A$lcc2286821$66                    char_to_tile
     00001B17  A$lcc2286821$67                    char_to_tile
     00001B19  A$lcc2286821$68                    char_to_tile
     00001B1A  A$lcc2286821$69                    char_to_tile
     00001B1C  A$lcc2286821$70                    char_to_tile
     00001B1D  A$lcc2286821$71                    char_to_tile
     00001B1F  A$lcc2286821$72                    char_to_tile
     00001B20  A$lcc2286821$73                    char_to_tile
     00001B22  A$lcc2286821$74                    char_to_tile
     00001B23  A$lcc2286821$75                    char_to_tile
     00001B25  A$lcc2286821$76                    char_to_tile
     00001B26  A$lcc2286821$77                    char_to_tile
     00001B28  A$lcc2286821$78                    char_to_tile
     00001B29  A$lcc2286821$79                    char_to_tile
     00001B2B  A$lcc2286821$80                    char_to_tile
     00001B2C  A$lcc2286821$81                    char_to_tile
     00001B2E  A$lcc2286821$82                    char_to_tile
     00001B2F  A$lcc2286821$83                    char_to_tile
     00001B31  A$lcc2286821$84                    char_to_tile
     00001B32  A$lcc2286821$85                    char_to_tile
     00001B34  A$lcc2286821$86                    char_to_tile
     00001B35  A$lcc2286821$87                    char_to_tile
     00001B37  A$lcc2286821$88                    char_to_tile
     00001B38  A$lcc2286821$89                    char_to_tile
     00001B3A  A$lcc2286821$90                    char_to_tile
     00001B3B  A$lcc2286821$91                    char_to_tile
     00001B3D  A$lcc2286821$92                    char_to_tile
     00001B3E  A$lcc2286821$93                    char_to_tile
     00001B40  A$lcc2286821$94                    char_to_tile
     00001B41  A$lcc2286821$95                    char_to_tile
     00001B43  A$lcc2286821$96                    char_to_tile
     00001B44  A$lcc2286821$97                    char_to_tile
     00001B46  A$lcc2286821$98                    char_to_tile
     00001B47  A$lcc2286821$99                    char_to_tile
     00001B49  A$lcc2286821$100                   char_to_tile
     00001B4A  A$lcc2286821$101                   char_to_tile
     00001B4C  A$lcc2286821$102                   char_to_tile
     00001B4D  A$lcc2286821$103                   char_to_tile
     00001B4F  A$lcc2286821$104                   char_to_tile
     00001B50  A$lcc2286821$105                   char_to_tile
     00001B52  A$lcc2286821$106                   char_to_tile
     00001B53  A$lcc2286821$107                   char_to_tile
     00001B55  A$lcc2286821$108                   char_to_tile
     00001B56  A$lcc2286821$109                   char_to_tile
     00001B58  A$lcc2286821$110                   char_to_tile
     00001B59  A$lcc2286821$111                   char_to_tile
     00001B5B  A$lcc2286821$112                   char_to_tile
     00001B5C  A$lcc2286821$113                   char_to_tile
     00001B5E  A$lcc2286821$114                   char_to_tile
ASxxxx Linker V03.00/V05.40 + sdld,  page 23.
Hexadecimal  [32-Bits]

Area                                    Addr        Size        Decimal Bytes (Attributes)
--------------------------------        ----        ----        ------- ----- ------------
_CODE                               00000200    000029E6 =       10726. bytes (REL,CON)

      Value  Global                              Global Defined In Module
      -----  --------------------------------   ------------------------
     00001B5F  A$lcc2286821$115                   char_to_tile
     00001B61  A$lcc2286821$116                   char_to_tile
     00001B62  A$lcc2286821$117                   char_to_tile
     00001B64  A$lcc2286821$118                   char_to_tile
     00001B65  A$lcc2286821$122                   char_to_tile
     00001B65  C$char_to_tile.c$5$3_0$4           char_to_tile
     00001B66  A$lcc2286821$123                   char_to_tile
     00001B67  A$lcc2286821$124                   char_to_tile
     00001B68  A$lcc2286821$125                   char_to_tile
     00001B69  A$lcc2286821$126                   char_to_tile
     00001B6C  A$lcc2286821$128                   char_to_tile
     00001B6D  A$lcc2286821$129                   char_to_tile
     00001B6F  A$lcc2286821$130                   char_to_tile
     00001B71  A$lcc2286821$134                   char_to_tile
     00001B71  C$char_to_tile.c$6$4_0$6           char_to_tile
     00001B74  A$lcc2286821$135                   char_to_tile
     00001B75  A$lcc2286821$136                   char_to_tile
     00001B76  A$lcc2286821$137                   char_to_tile
     00001B77  A$lcc2286821$138                   char_to_tile
     00001B79  A$lcc2286821$139                   char_to_tile
     00001B7A  A$lcc2286821$140                   char_to_tile
     00001B7B  A$lcc2286821$141                   char_to_tile
     00001B7D  A$lcc2286821$145                   char_to_tile
     00001B7D  C$char_to_tile.c$7$5_0$7           char_to_tile
     00001B7F  A$lcc2286821$146                   char_to_tile
     00001B80  A$lcc2286821$147                   char_to_tile
     00001B82  A$lcc2286821$148                   char_to_tile
     00001B83  A$lcc2286821$149                   char_to_tile
     00001B85  A$lcc2286821$154                   char_to_tile
     00001B85  C$char_to_tile.c$5$2_0$4           char_to_tile
     00001B86  A$lcc2286821$155                   char_to_tile
     00001B88  A$lcc2286821$156                   char_to_tile
     00001B89  A$lcc2286821$157                   char_to_tile
     00001B8A  A$lcc2286821$158                   char_to_tile
     00001B8B  A$lcc2286821$159                   char_to_tile
     00001B8D  A$lcc2286821$164                   char_to_tile
     00001B8D  C$char_to_tile.c$11$1_0$3          char_to_tile
     00001B90  A$lcc2286821$169                   char_to_tile
     00001B92  A$lcc2286821$174                   char_to_tile
     00001B92  C$char_to_tile.c$12$1_0$3          char_to_tile
     00001B92  XG$char_to_tile$0$0                char_to_tile
     00001B93  A$lcc2286822$52                    draw
     00001B93  C$draw.c$6$0_0$136                 draw
     00001B93  G$draw_actor$0$0                   draw
     00001B93  _draw_actor                        draw
     00001B95  A$lcc2286822$53                    draw
     00001B97  A$lcc2286822$54                    draw
     00001B98  A$lcc2286822$58                    draw
     00001B98  C$draw.c$8$1_0$136                 draw
     00001B9B  A$lcc2286822$59                    draw
     00001B9C  A$lcc2286822$60                    draw
ASxxxx Linker V03.00/V05.40 + sdld,  page 24.
Hexadecimal  [32-Bits]

Area                                    Addr        Size        Decimal Bytes (Attributes)
--------------------------------        ----        ----        ------- ----- ------------
_CODE                               00000200    000029E6 =       10726. bytes (REL,CON)

      Value  Global                              Global Defined In Module
      -----  --------------------------------   ------------------------
     00001B9E  A$lcc2286822$61                    draw
     00001B9F  A$lcc2286822$62                    draw
     00001BA0  A$lcc2286822$63                    draw
     00001BA1  A$lcc2286822$64                    draw
     00001BA2  A$lcc2286822$65                    draw
     00001BA4  A$lcc2286822$66                    draw
     00001BA5  A$lcc2286822$70                    draw
     00001BA5  C$draw.c$9$1_0$136                 draw
     00001BA8  A$lcc2286822$71                    draw
     00001BAA  A$lcc2286822$72                    draw
     00001BAB  A$lcc2286822$73                    draw
     00001BAD  A$lcc2286822$74                    draw
     00001BAE  A$lcc2286822$75                    draw
     00001BAF  A$lcc2286822$76                    draw
     00001BB0  A$lcc2286822$77                    draw
     00001BB1  A$lcc2286822$78                    draw
     00001BB3  A$lcc2286822$79                    draw
     00001BB4  A$lcc2286822$83                    draw
     00001BB4  C$draw.c$11$1_0$136                draw
     00001BB7  A$lcc2286822$84                    draw
     00001BB9  A$lcc2286822$85                    draw
     00001BBA  A$lcc2286822$86                    draw
     00001BBC  A$lcc2286822$87                    draw
     00001BBD  A$lcc2286822$88                    draw
     00001BBE  A$lcc2286822$89                    draw
     00001BBF  A$lcc2286822$90                    draw
     00001BC0  A$lcc2286822$91                    draw
     00001BC1  A$lcc2286822$92                    draw
     00001BC2  A$lcc2286822$93                    draw
     00001BC3  A$lcc2286822$94                    draw
     00001BC4  A$lcc2286822$95                    draw
     00001BC5  A$lcc2286822$96                    draw
     00001BC6  A$lcc2286822$97                    draw
     00001BC7  A$lcc2286822$98                    draw
     00001BC8  A$lcc2286822$102                   draw
     00001BC8  C$draw.c$12$1_0$136                draw
     00001BCB  A$lcc2286822$103                   draw
     00001BCC  A$lcc2286822$104                   draw
     00001BCD  A$lcc2286822$105                   draw
     00001BCE  A$lcc2286822$106                   draw
     00001BCF  A$lcc2286822$107                   draw
     00001BD0  A$lcc2286822$108                   draw
     00001BD1  A$lcc2286822$109                   draw
     00001BD2  A$lcc2286822$110                   draw
     00001BD3  A$lcc2286822$111                   draw
     00001BD5  A$lcc2286822$112                   draw
     00001BD6  A$lcc2286822$113                   draw
     00001BD7  A$lcc2286822$117                   draw
     00001BD7  C$draw.c$14$1_0$136                draw
     00001BDA  A$lcc2286822$118                   draw
     00001BDB  A$lcc2286822$119                   draw
ASxxxx Linker V03.00/V05.40 + sdld,  page 25.
Hexadecimal  [32-Bits]

Area                                    Addr        Size        Decimal Bytes (Attributes)
--------------------------------        ----        ----        ------- ----- ------------
_CODE                               00000200    000029E6 =       10726. bytes (REL,CON)

      Value  Global                              Global Defined In Module
      -----  --------------------------------   ------------------------
     00001BDC  A$lcc2286822$120                   draw
     00001BDE  A$lcc2286822$121                   draw
     00001BDF  A$lcc2286822$125                   draw
     00001BDF  C$draw.c$15$1_0$136                draw
     00001BE0  A$lcc2286822$126                   draw
     00001BE1  A$lcc2286822$127                   draw
     00001BE2  A$lcc2286822$128                   draw
     00001BE3  A$lcc2286822$129                   draw
     00001BE4  A$lcc2286822$130                   draw
     00001BE5  A$lcc2286822$131                   draw
     00001BE8  A$lcc2286822$132                   draw
     00001BE9  A$lcc2286822$133                   draw
     00001BEA  A$lcc2286822$134                   draw
     00001BEB  A$lcc2286822$135                   draw
     00001BED  A$lcc2286822$139                   draw
     00001BED  C$draw.c$17$1_0$136                draw
     00001BEE  A$lcc2286822$140                   draw
     00001BEF  A$lcc2286822$141                   draw
     00001BF0  A$lcc2286822$142                   draw
     00001BF1  A$lcc2286822$143                   draw
     00001BF2  A$lcc2286822$147                   draw
     00001BF2  C$draw.c$18$1_0$136                draw
     00001BF4  A$lcc2286822$148                   draw
     00001BF5  A$lcc2286822$149                   draw
     00001BF6  A$lcc2286822$150                   draw
     00001BF7  A$lcc2286822$151                   draw
     00001BF8  A$lcc2286822$152                   draw
     00001BF9  A$lcc2286822$153                   draw
     00001BFA  A$lcc2286822$154                   draw
     00001BFB  A$lcc2286822$155                   draw
     00001BFC  A$lcc2286822$156                   draw
     00001BFD  A$lcc2286822$157                   draw
     00001BFE  A$lcc2286822$158                   draw
     00001BFF  A$lcc2286822$159                   draw
     00001C00  A$lcc2286822$160                   draw
     00001C01  A$lcc2286822$161                   draw
     00001C02  A$lcc2286822$165                   draw
     00001C02  C$draw.c$20$2_0$137                draw
     00001C04  A$lcc2286822$166                   draw
     00001C05  A$lcc2286822$173                   draw
     00001C05  C$draw.c$21$2_0$137                draw
     00001C05  C$draw.c$24$2_0$136                draw
     00001C08  A$lcc2286822$174                   draw
     00001C0A  A$lcc2286822$176                   draw
     00001C0B  A$lcc2286822$177                   draw
     00001C0D  A$lcc2286822$178                   draw
     00001C0E  A$lcc2286822$179                   draw
     00001C10  A$lcc2286822$181                   draw
     00001C11  A$lcc2286822$182                   draw
     00001C12  A$lcc2286822$183                   draw
     00001C13  A$lcc2286822$184                   draw
ASxxxx Linker V03.00/V05.40 + sdld,  page 26.
Hexadecimal  [32-Bits]

Area                                    Addr        Size        Decimal Bytes (Attributes)
--------------------------------        ----        ----        ------- ----- ------------
_CODE                               00000200    000029E6 =       10726. bytes (REL,CON)

      Value  Global                              Global Defined In Module
      -----  --------------------------------   ------------------------
     00001C14  A$lcc2286822$185                   draw
     00001C15  A$lcc2286822$186                   draw
     00001C17  A$lcc2286822$187                   draw
     00001C1A  A$lcc2286822$188                   draw
     00001C1B  A$lcc2286822$189                   draw
     00001C1C  A$lcc2286822$190                   draw
     00001C1D  A$lcc2286822$191                   draw
     00001C1E  A$lcc2286822$193                   draw
     00001C1F  A$lcc2286822$194                   draw
     00001C20  A$lcc2286822$195                   draw
     00001C21  A$lcc2286822$196                   draw
     00001C22  A$lcc2286822$197                   draw
     00001C23  A$lcc2286822$198                   draw
     00001C24  A$lcc2286822$199                   draw
     00001C27  A$lcc2286822$200                   draw
     00001C28  A$lcc2286822$201                   draw
     00001C29  A$lcc2286822$202                   draw
     00001C2A  A$lcc2286822$203                   draw
     00001C2B  A$lcc2286822$204                   draw
     00001C2C  A$lcc2286822$208                   draw
     00001C2C  C$draw.c$24$2_0$138                draw
     00001C2D  A$lcc2286822$209                   draw
     00001C2F  A$lcc2286822$214                   draw
     00001C2F  C$draw.c$28$2_0$139                draw
     00001C31  A$lcc2286822$215                   draw
     00001C32  A$lcc2286822$216                   draw
     00001C33  A$lcc2286822$217                   draw
     00001C35  A$lcc2286822$219                   draw
     00001C37  A$lcc2286822$220                   draw
     00001C38  A$lcc2286822$222                   draw
     00001C39  A$lcc2286822$223                   draw
     00001C3A  A$lcc2286822$224                   draw
     00001C3B  A$lcc2286822$225                   draw
     00001C3C  A$lcc2286822$226                   draw
     00001C3D  A$lcc2286822$227                   draw
     00001C40  A$lcc2286822$228                   draw
     00001C41  A$lcc2286822$229                   draw
     00001C42  A$lcc2286822$230                   draw
     00001C43  A$lcc2286822$232                   draw
     00001C45  A$lcc2286822$233                   draw
     00001C46  A$lcc2286822$234                   draw
     00001C47  A$lcc2286822$235                   draw
     00001C48  A$lcc2286822$236                   draw
     00001C49  A$lcc2286822$237                   draw
     00001C4A  A$lcc2286822$241                   draw
     00001C4A  C$draw.c$30$2_0$139                draw
     00001C4D  A$lcc2286822$246                   draw
     00001C4D  C$draw.c$32$3_0$141                draw
     00001C4F  A$lcc2286822$247                   draw
     00001C50  A$lcc2286822$248                   draw
     00001C52  A$lcc2286822$249                   draw
ASxxxx Linker V03.00/V05.40 + sdld,  page 27.
Hexadecimal  [32-Bits]

Area                                    Addr        Size        Decimal Bytes (Attributes)
--------------------------------        ----        ----        ------- ----- ------------
_CODE                               00000200    000029E6 =       10726. bytes (REL,CON)

      Value  Global                              Global Defined In Module
      -----  --------------------------------   ------------------------
     00001C54  A$lcc2286822$253                   draw
     00001C57  A$lcc2286822$254                   draw
     00001C59  A$lcc2286822$255                   draw
     00001C5A  A$lcc2286822$256                   draw
     00001C5C  A$lcc2286822$257                   draw
     00001C5D  A$lcc2286822$258                   draw
     00001C5E  A$lcc2286822$259                   draw
     00001C5F  A$lcc2286822$260                   draw
     00001C60  A$lcc2286822$261                   draw
     00001C61  A$lcc2286822$265                   draw
     00001C61  C$draw.c$30$2_0$136                draw
     00001C63  A$lcc2286822$266                   draw
     00001C64  A$lcc2286822$270                   draw
     00001C64  C$draw.c$34$5_0$143                draw
     00001C66  A$lcc2286822$271                   draw
     00001C68  A$lcc2286822$274                   draw
     00001C69  A$lcc2286822$275                   draw
     00001C6A  A$lcc2286822$276                   draw
     00001C6B  A$lcc2286822$277                   draw
     00001C6C  A$lcc2286822$278                   draw
     00001C6D  A$lcc2286822$279                   draw
     00001C70  A$lcc2286822$280                   draw
     00001C71  A$lcc2286822$281                   draw
     00001C72  A$lcc2286822$282                   draw
     00001C73  A$lcc2286822$284                   draw
     00001C75  A$lcc2286822$285                   draw
     00001C76  A$lcc2286822$286                   draw
     00001C77  A$lcc2286822$287                   draw
     00001C78  A$lcc2286822$289                   draw
     00001C79  A$lcc2286822$290                   draw
     00001C7A  A$lcc2286822$291                   draw
     00001C7B  A$lcc2286822$292                   draw
     00001C7D  A$lcc2286822$293                   draw
     00001C7E  A$lcc2286822$294                   draw
     00001C80  A$lcc2286822$296                   draw
     00001C81  A$lcc2286822$297                   draw
     00001C84  A$lcc2286822$298                   draw
     00001C85  A$lcc2286822$299                   draw
     00001C86  A$lcc2286822$300                   draw
     00001C87  A$lcc2286822$301                   draw
     00001C88  A$lcc2286822$302                   draw
     00001C89  A$lcc2286822$303                   draw
     00001C8A  A$lcc2286822$304                   draw
     00001C8B  A$lcc2286822$306                   draw
     00001C8C  A$lcc2286822$307                   draw
     00001C8D  A$lcc2286822$308                   draw
     00001C8E  A$lcc2286822$309                   draw
     00001C90  A$lcc2286822$310                   draw
     00001C91  A$lcc2286822$311                   draw
     00001C92  A$lcc2286822$315                   draw
     00001C92  C$draw.c$37$5_0$143                draw
ASxxxx Linker V03.00/V05.40 + sdld,  page 28.
Hexadecimal  [32-Bits]

Area                                    Addr        Size        Decimal Bytes (Attributes)
--------------------------------        ----        ----        ------- ----- ------------
_CODE                               00000200    000029E6 =       10726. bytes (REL,CON)

      Value  Global                              Global Defined In Module
      -----  --------------------------------   ------------------------
     00001C95  A$lcc2286822$319                   draw
     00001C96  A$lcc2286822$320                   draw
     00001C97  A$lcc2286822$321                   draw
     00001C98  A$lcc2286822$322                   draw
     00001C99  A$lcc2286822$323                   draw
     00001C9A  A$lcc2286822$324                   draw
     00001C9D  A$lcc2286822$325                   draw
     00001C9E  A$lcc2286822$326                   draw
     00001C9F  A$lcc2286822$327                   draw
     00001CA0  A$lcc2286822$329                   draw
     00001CA2  A$lcc2286822$330                   draw
     00001CA3  A$lcc2286822$331                   draw
     00001CA4  A$lcc2286822$332                   draw
     00001CA5  A$lcc2286822$333                   draw
     00001CA6  A$lcc2286822$334                   draw
     00001CA7  A$lcc2286822$336                   draw
     00001CA8  A$lcc2286822$337                   draw
     00001CAA  A$lcc2286822$338                   draw
     00001CAB  A$lcc2286822$339                   draw
     00001CAD  A$lcc2286822$341                   draw
     00001CAE  A$lcc2286822$342                   draw
     00001CAF  A$lcc2286822$343                   draw
     00001CB0  A$lcc2286822$344                   draw
     00001CB1  A$lcc2286822$345                   draw
     00001CB2  A$lcc2286822$346                   draw
     00001CB5  A$lcc2286822$347                   draw
     00001CB6  A$lcc2286822$349                   draw
     00001CB7  A$lcc2286822$350                   draw
     00001CB9  A$lcc2286822$351                   draw
     00001CBA  A$lcc2286822$352                   draw
     00001CBB  A$lcc2286822$353                   draw
     00001CBC  A$lcc2286822$354                   draw
     00001CBD  A$lcc2286822$358                   draw
     00001CBD  C$draw.c$42$3_0$141                draw
     00001CBF  A$lcc2286822$363                   draw
     00001CBF  C$draw.c$45$4_0$146                draw
     00001CC1  A$lcc2286822$364                   draw
     00001CC2  A$lcc2286822$365                   draw
     00001CC4  A$lcc2286822$366                   draw
     00001CC6  A$lcc2286822$368                   draw
     00001CC8  A$lcc2286822$369                   draw
     00001CC9  A$lcc2286822$371                   draw
     00001CCA  A$lcc2286822$372                   draw
     00001CCB  A$lcc2286822$373                   draw
     00001CCC  A$lcc2286822$374                   draw
     00001CCD  A$lcc2286822$375                   draw
     00001CCE  A$lcc2286822$376                   draw
     00001CD1  A$lcc2286822$377                   draw
     00001CD2  A$lcc2286822$378                   draw
     00001CD3  A$lcc2286822$379                   draw
     00001CD4  A$lcc2286822$381                   draw
ASxxxx Linker V03.00/V05.40 + sdld,  page 29.
Hexadecimal  [32-Bits]

Area                                    Addr        Size        Decimal Bytes (Attributes)
--------------------------------        ----        ----        ------- ----- ------------
_CODE                               00000200    000029E6 =       10726. bytes (REL,CON)

      Value  Global                              Global Defined In Module
      -----  --------------------------------   ------------------------
     00001CD6  A$lcc2286822$382                   draw
     00001CD7  A$lcc2286822$383                   draw
     00001CD8  A$lcc2286822$384                   draw
     00001CD9  A$lcc2286822$385                   draw
     00001CDA  A$lcc2286822$386                   draw
     00001CDB  A$lcc2286822$388                   draw
     00001CDC  A$lcc2286822$389                   draw
     00001CDE  A$lcc2286822$390                   draw
     00001CE0  A$lcc2286822$391                   draw
     00001CE1  A$lcc2286822$392                   draw
     00001CE2  A$lcc2286822$393                   draw
     00001CE4  A$lcc2286822$395                   draw
     00001CE5  A$lcc2286822$396                   draw
     00001CE6  A$lcc2286822$397                   draw
     00001CE7  A$lcc2286822$398                   draw
     00001CE8  A$lcc2286822$399                   draw
     00001CE9  A$lcc2286822$400                   draw
     00001CEC  A$lcc2286822$401                   draw
     00001CED  A$lcc2286822$403                   draw
     00001CEE  A$lcc2286822$404                   draw
     00001CF0  A$lcc2286822$405                   draw
     00001CF1  A$lcc2286822$406                   draw
     00001CF2  A$lcc2286822$407                   draw
     00001CF3  A$lcc2286822$408                   draw
     00001CF4  A$lcc2286822$410                   draw
     00001CF6  A$lcc2286822$411                   draw
     00001CF7  A$lcc2286822$412                   draw
     00001CF9  A$lcc2286822$413                   draw
     00001CFA  A$lcc2286822$414                   draw
     00001CFB  A$lcc2286822$415                   draw
     00001CFD  A$lcc2286822$417                   draw
     00001CFE  A$lcc2286822$418                   draw
     00001CFF  A$lcc2286822$419                   draw
     00001D00  A$lcc2286822$420                   draw
     00001D01  A$lcc2286822$421                   draw
     00001D02  A$lcc2286822$422                   draw
     00001D05  A$lcc2286822$423                   draw
     00001D06  A$lcc2286822$424                   draw
     00001D07  A$lcc2286822$425                   draw
     00001D08  A$lcc2286822$427                   draw
     00001D0A  A$lcc2286822$428                   draw
     00001D0B  A$lcc2286822$429                   draw
     00001D0C  A$lcc2286822$430                   draw
     00001D0D  A$lcc2286822$431                   draw
     00001D0E  A$lcc2286822$433                   draw
     00001D0F  A$lcc2286822$434                   draw
     00001D10  A$lcc2286822$436                   draw
     00001D11  A$lcc2286822$437                   draw
     00001D14  A$lcc2286822$438                   draw
     00001D15  A$lcc2286822$439                   draw
     00001D16  A$lcc2286822$440                   draw
ASxxxx Linker V03.00/V05.40 + sdld,  page 30.
Hexadecimal  [32-Bits]

Area                                    Addr        Size        Decimal Bytes (Attributes)
--------------------------------        ----        ----        ------- ----- ------------
_CODE                               00000200    000029E6 =       10726. bytes (REL,CON)

      Value  Global                              Global Defined In Module
      -----  --------------------------------   ------------------------
     00001D17  A$lcc2286822$441                   draw
     00001D18  A$lcc2286822$442                   draw
     00001D19  A$lcc2286822$443                   draw
     00001D1A  A$lcc2286822$444                   draw
     00001D1B  A$lcc2286822$446                   draw
     00001D1C  A$lcc2286822$447                   draw
     00001D1D  A$lcc2286822$448                   draw
     00001D1E  A$lcc2286822$449                   draw
     00001D20  A$lcc2286822$450                   draw
     00001D21  A$lcc2286822$451                   draw
     00001D22  A$lcc2286822$459                   draw
     00001D22  C$draw.c$50$2_0$136                draw
     00001D24  A$lcc2286822$464                   draw
     00001D24  C$draw.c$52$2_0$136                draw
     00001D24  XG$draw_actor$0$0                  draw
     00001D25  A$lcc2286823$60                    entity
     00001D25  C$entity.c$7$0_0$3                 entity
     00001D25  C$entity.c$9$2_0$4                 entity
     00001D25  G$create_entity$0$0                entity
     00001D25  _create_entity                     entity
     00001D28  A$lcc2286823$61                    entity
     00001D2A  A$lcc2286823$62                    entity
     00001D2C  A$lcc2286823$66                    entity
     00001D2C  C$entity.c$10$3_0$5                entity
     00001D2D  A$lcc2286823$67                    entity
     00001D2E  A$lcc2286823$72                    entity
     00001D2E  C$entity.c$13$1_0$3                entity
     00001D31  A$lcc2286823$73                    entity
     00001D32  A$lcc2286823$74                    entity
     00001D35  A$lcc2286823$75                    entity
     00001D36  A$lcc2286823$76                    entity
     00001D37  A$lcc2286823$84                    entity
     00001D37  C$entity.c$14$1_0$3                entity
     00001D37  XG$create_entity$0$0               entity
     00001D38  A$lcc2286823$97                    entity
     00001D38  C$entity.c$16$1_0$6                entity
     00001D38  C$entity.c$18$1_0$6                entity
     00001D38  G$reset_entities$0$0               entity
     00001D38  _reset_entities                    entity
     00001D3B  A$lcc2286823$98                    entity
     00001D3D  A$lcc2286823$106                   entity
     00001D3D  C$entity.c$19$1_0$6                entity
     00001D3D  XG$reset_entities$0$0              entity
     00001D3E  A$lcc2286825$56                    global_action
     00001D3E  C$global_action.c$3$0_0$142        global_action
     00001D3E  C$global_action.c$5$1_0$142        global_action
     00001D3E  G$check_global_input$0$0           global_action
     00001D3E  _check_global_input                global_action
     00001D41  A$lcc2286825$60                    global_action
     00001D41  C$global_action.c$8$1_0$142        global_action
     00001D44  A$lcc2286825$68                    global_action
ASxxxx Linker V03.00/V05.40 + sdld,  page 31.
Hexadecimal  [32-Bits]

Area                                    Addr        Size        Decimal Bytes (Attributes)
--------------------------------        ----        ----        ------- ----- ------------
_CODE                               00000200    000029E6 =       10726. bytes (REL,CON)

      Value  Global                              Global Defined In Module
      -----  --------------------------------   ------------------------
     00001D44  C$global_action.c$9$1_0$142        global_action
     00001D44  XG$check_global_input$0$0          global_action
     00001D45  A$lcc2286826$57                    inventory
     00001D45  C$inventory.c$10$0_0$140           inventory
     00001D45  G$init_arrow$0$0                   inventory
     00001D45  _init_arrow                        inventory
     00001D46  A$lcc2286826$58                    inventory
     00001D47  A$lcc2286826$62                    inventory
     00001D47  C$inventory.c$12$1_0$140           inventory
     00001D4A  A$lcc2286826$63                    inventory
     00001D4B  A$lcc2286826$64                    inventory
     00001D4D  A$lcc2286826$65                    inventory
     00001D50  A$lcc2286826$66                    inventory
     00001D51  A$lcc2286826$67                    inventory
     00001D53  A$lcc2286826$71                    inventory
     00001D53  C$inventory.c$13$1_0$140           inventory
     00001D56  A$lcc2286826$72                    inventory
     00001D59  A$lcc2286826$73                    inventory
     00001D5A  A$lcc2286826$74                    inventory
     00001D5C  A$lcc2286826$75                    inventory
     00001D5D  A$lcc2286826$76                    inventory
     00001D5F  A$lcc2286826$80                    inventory
     00001D5F  C$inventory.c$15$1_0$140           inventory
     00001D62  A$lcc2286826$81                    inventory
     00001D65  A$lcc2286826$82                    inventory
     00001D66  A$lcc2286826$83                    inventory
     00001D67  A$lcc2286826$84                    inventory
     00001D69  A$lcc2286826$85                    inventory
     00001D6A  A$lcc2286826$86                    inventory
     00001D6D  A$lcc2286826$87                    inventory
     00001D6F  A$lcc2286826$88                    inventory
     00001D70  A$lcc2286826$89                    inventory
     00001D72  A$lcc2286826$90                    inventory
     00001D74  A$lcc2286826$91                    inventory
     00001D75  A$lcc2286826$92                    inventory
     00001D76  A$lcc2286826$93                    inventory
     00001D77  A$lcc2286826$94                    inventory
     00001D78  A$lcc2286826$95                    inventory
     00001D79  A$lcc2286826$96                    inventory
     00001D7A  A$lcc2286826$100                   inventory
     00001D7A  C$inventory.c$16$1_0$140           inventory
     00001D7D  A$lcc2286826$101                   inventory
     00001D7E  A$lcc2286826$102                   inventory
     00001D7F  A$lcc2286826$103                   inventory
     00001D81  A$lcc2286826$104                   inventory
     00001D82  A$lcc2286826$105                   inventory
     00001D84  A$lcc2286826$106                   inventory
     00001D86  A$lcc2286826$107                   inventory
     00001D87  A$lcc2286826$108                   inventory
     00001D88  A$lcc2286826$109                   inventory
     00001D8A  A$lcc2286826$110                   inventory
ASxxxx Linker V03.00/V05.40 + sdld,  page 32.
Hexadecimal  [32-Bits]

Area                                    Addr        Size        Decimal Bytes (Attributes)
--------------------------------        ----        ----        ------- ----- ------------
_CODE                               00000200    000029E6 =       10726. bytes (REL,CON)

      Value  Global                              Global Defined In Module
      -----  --------------------------------   ------------------------
     00001D8B  A$lcc2286826$111                   inventory
     00001D8C  A$lcc2286826$112                   inventory
     00001D8D  A$lcc2286826$113                   inventory
     00001D8E  A$lcc2286826$114                   inventory
     00001D8F  A$lcc2286826$115                   inventory
     00001D90  A$lcc2286826$116                   inventory
     00001D91  A$lcc2286826$120                   inventory
     00001D91  C$inventory.c$18$1_0$140           inventory
     00001D94  A$lcc2286826$121                   inventory
     00001D95  A$lcc2286826$122                   inventory
     00001D97  A$lcc2286826$123                   inventory
     00001D9A  A$lcc2286826$124                   inventory
     00001D9B  A$lcc2286826$125                   inventory
     00001D9D  A$lcc2286826$129                   inventory
     00001D9D  C$inventory.c$19$1_0$140           inventory
     00001DA0  A$lcc2286826$130                   inventory
     00001DA3  A$lcc2286826$131                   inventory
     00001DA4  A$lcc2286826$132                   inventory
     00001DA6  A$lcc2286826$133                   inventory
     00001DA7  A$lcc2286826$134                   inventory
     00001DA9  A$lcc2286826$138                   inventory
     00001DA9  C$inventory.c$20$1_0$140           inventory
     00001DAC  A$lcc2286826$139                   inventory
     00001DAF  A$lcc2286826$140                   inventory
     00001DB0  A$lcc2286826$141                   inventory
     00001DB2  A$lcc2286826$142                   inventory
     00001DB3  A$lcc2286826$143                   inventory
     00001DB5  A$lcc2286826$147                   inventory
     00001DB5  C$inventory.c$22$2_0$141           inventory
     00001DB7  A$lcc2286826$148                   inventory
     00001DB9  A$lcc2286826$149                   inventory
     00001DBA  A$lcc2286826$150                   inventory
     00001DBC  A$lcc2286826$154                   inventory
     00001DBC  C$inventory.c$24$1_1$141           inventory
     00001DBF  A$lcc2286826$155                   inventory
     00001DC0  A$lcc2286826$156                   inventory
     00001DC2  A$lcc2286826$157                   inventory
     00001DC3  A$lcc2286826$158                   inventory
     00001DC4  A$lcc2286826$159                   inventory
     00001DC5  A$lcc2286826$160                   inventory
     00001DC6  A$lcc2286826$161                   inventory
     00001DC7  A$lcc2286826$162                   inventory
     00001DC8  A$lcc2286826$163                   inventory
     00001DC9  A$lcc2286826$164                   inventory
     00001DCA  A$lcc2286826$165                   inventory
     00001DCB  A$lcc2286826$166                   inventory
     00001DCE  A$lcc2286826$167                   inventory
     00001DCF  A$lcc2286826$168                   inventory
     00001DD0  A$lcc2286826$169                   inventory
     00001DD1  A$lcc2286826$170                   inventory
     00001DD4  A$lcc2286826$171                   inventory
ASxxxx Linker V03.00/V05.40 + sdld,  page 33.
Hexadecimal  [32-Bits]

Area                                    Addr        Size        Decimal Bytes (Attributes)
--------------------------------        ----        ----        ------- ----- ------------
_CODE                               00000200    000029E6 =       10726. bytes (REL,CON)

      Value  Global                              Global Defined In Module
      -----  --------------------------------   ------------------------
     00001DD5  A$lcc2286826$172                   inventory
     00001DD7  A$lcc2286826$173                   inventory
     00001DD8  A$lcc2286826$174                   inventory
     00001DD9  A$lcc2286826$175                   inventory
     00001DDC  A$lcc2286826$176                   inventory
     00001DDD  A$lcc2286826$177                   inventory
     00001DDE  A$lcc2286826$178                   inventory
     00001DDF  A$lcc2286826$179                   inventory
     00001DE0  A$lcc2286826$180                   inventory
     00001DE1  A$lcc2286826$181                   inventory
     00001DE2  A$lcc2286826$182                   inventory
     00001DE5  A$lcc2286826$186                   inventory
     00001DE8  A$lcc2286826$187                   inventory
     00001DE9  A$lcc2286826$192                   inventory
     00001DE9  C$inventory.c$25$1_1$140           inventory
     00001DE9  XG$init_arrow$0$0                  inventory
     00001DEA  A$lcc2286827$67                    inventory_input
     00001DEA  C$inventory_input.c$19$0_0$145     inventory_input
     00001DEA  C$inventory_input.c$21$1_0$145     inventory_input
     00001DEA  G$inventory_input$0$0              inventory_input
     00001DEA  _inventory_input                   inventory_input
     00001DED  A$lcc2286827$68                    inventory_input
     00001DEE  A$lcc2286827$72                    inventory_input
     00001DEE  C$inventory_input.c$23$2_0$146     inventory_input
     00001DF0  A$lcc2286827$73                    inventory_input
     00001DF2  A$lcc2286827$74                    inventory_input
     00001DF5  A$lcc2286827$75                    inventory_input
     00001DF7  A$lcc2286827$76                    inventory_input
     00001DF9  A$lcc2286827$80                    inventory_input
     00001DF9  C$inventory_input.c$25$3_0$147     inventory_input
     00001DFC  A$lcc2286827$81                    inventory_input
     00001DFF  A$lcc2286827$82                    inventory_input
     00001E00  A$lcc2286827$83                    inventory_input
     00001E01  A$lcc2286827$84                    inventory_input
     00001E02  A$lcc2286827$85                    inventory_input
     00001E03  A$lcc2286827$86                    inventory_input
     00001E04  A$lcc2286827$87                    inventory_input
     00001E05  A$lcc2286827$88                    inventory_input
     00001E06  A$lcc2286827$89                    inventory_input
     00001E09  A$lcc2286827$90                    inventory_input
     00001E0B  A$lcc2286827$91                    inventory_input
     00001E0C  A$lcc2286827$92                    inventory_input
     00001E0D  A$lcc2286827$93                    inventory_input
     00001E0F  A$lcc2286827$94                    inventory_input
     00001E12  A$lcc2286827$95                    inventory_input
     00001E13  A$lcc2286827$96                    inventory_input
     00001E14  A$lcc2286827$97                    inventory_input
     00001E15  A$lcc2286827$99                    inventory_input
     00001E16  A$lcc2286827$103                   inventory_input
     00001E16  C$inventory_input.c$26$3_0$147     inventory_input
     00001E19  A$lcc2286827$104                   inventory_input
ASxxxx Linker V03.00/V05.40 + sdld,  page 34.
Hexadecimal  [32-Bits]

Area                                    Addr        Size        Decimal Bytes (Attributes)
--------------------------------        ----        ----        ------- ----- ------------
_CODE                               00000200    000029E6 =       10726. bytes (REL,CON)

      Value  Global                              Global Defined In Module
      -----  --------------------------------   ------------------------
     00001E1C  A$lcc2286827$105                   inventory_input
     00001E1D  A$lcc2286827$106                   inventory_input
     00001E1F  A$lcc2286827$107                   inventory_input
     00001E20  A$lcc2286827$108                   inventory_input
     00001E22  A$lcc2286827$112                   inventory_input
     00001E22  C$inventory_input.c$27$3_0$147     inventory_input
     00001E23  A$lcc2286827$113                   inventory_input
     00001E26  A$lcc2286827$114                   inventory_input
     00001E29  A$lcc2286827$115                   inventory_input
     00001E2A  A$lcc2286827$123                   inventory_input
     00001E2A  C$inventory_input.c$26$1_1$145     inventory_input
     00001E2D  A$lcc2286827$124                   inventory_input
     00001E2E  A$lcc2286827$128                   inventory_input
     00001E2E  C$inventory_input.c$30$1_1$148     inventory_input
     00001E31  A$lcc2286827$129                   inventory_input
     00001E33  A$lcc2286827$130                   inventory_input
     00001E34  A$lcc2286827$131                   inventory_input
     00001E35  A$lcc2286827$135                   inventory_input
     00001E35  C$inventory_input.c$31$1_1$148     inventory_input
     00001E38  A$lcc2286827$136                   inventory_input
     00001E3A  A$lcc2286827$137                   inventory_input
     00001E3B  A$lcc2286827$138                   inventory_input
     00001E3C  A$lcc2286827$142                   inventory_input
     00001E3C  C$inventory_input.c$23$1_1$145     inventory_input
     00001E3F  A$lcc2286827$146                   inventory_input
     00001E3F  C$inventory_input.c$33$2_1$149     inventory_input
     00001E41  A$lcc2286827$147                   inventory_input
     00001E43  A$lcc2286827$148                   inventory_input
     00001E45  A$lcc2286827$149                   inventory_input
     00001E47  A$lcc2286827$153                   inventory_input
     00001E47  C$inventory_input.c$35$3_1$150     inventory_input
     00001E48  A$lcc2286827$154                   inventory_input
     00001E4A  A$lcc2286827$155                   inventory_input
     00001E4B  A$lcc2286827$156                   inventory_input
     00001E4D  A$lcc2286827$161                   inventory_input
     00001E4D  C$inventory_input.c$37$3_1$151     inventory_input
     00001E4F  A$lcc2286827$162                   inventory_input
     00001E51  A$lcc2286827$163                   inventory_input
     00001E53  A$lcc2286827$164                   inventory_input
     00001E55  A$lcc2286827$168                   inventory_input
     00001E55  C$inventory_input.c$39$4_1$152     inventory_input
     00001E56  A$lcc2286827$169                   inventory_input
     00001E58  A$lcc2286827$170                   inventory_input
     00001E59  A$lcc2286827$171                   inventory_input
     00001E5B  A$lcc2286827$176                   inventory_input
     00001E5B  C$inventory_input.c$41$4_1$153     inventory_input
     00001E5D  A$lcc2286827$177                   inventory_input
     00001E5F  A$lcc2286827$178                   inventory_input
     00001E61  A$lcc2286827$179                   inventory_input
     00001E63  A$lcc2286827$183                   inventory_input
     00001E63  C$inventory_input.c$43$5_1$154     inventory_input
ASxxxx Linker V03.00/V05.40 + sdld,  page 35.
Hexadecimal  [32-Bits]

Area                                    Addr        Size        Decimal Bytes (Attributes)
--------------------------------        ----        ----        ------- ----- ------------
_CODE                               00000200    000029E6 =       10726. bytes (REL,CON)

      Value  Global                              Global Defined In Module
      -----  --------------------------------   ------------------------
     00001E64  A$lcc2286827$184                   inventory_input
     00001E66  A$lcc2286827$185                   inventory_input
     00001E67  A$lcc2286827$186                   inventory_input
     00001E69  A$lcc2286827$191                   inventory_input
     00001E69  C$inventory_input.c$45$5_1$155     inventory_input
     00001E6B  A$lcc2286827$192                   inventory_input
     00001E6D  A$lcc2286827$193                   inventory_input
     00001E6F  A$lcc2286827$194                   inventory_input
     00001E71  A$lcc2286827$198                   inventory_input
     00001E71  C$inventory_input.c$47$6_1$156     inventory_input
     00001E72  A$lcc2286827$199                   inventory_input
     00001E74  A$lcc2286827$200                   inventory_input
     00001E75  A$lcc2286827$205                   inventory_input
     00001E75  C$inventory_input.c$50$2_1$157     inventory_input
     00001E77  A$lcc2286827$206                   inventory_input
     00001E78  A$lcc2286827$207                   inventory_input
     00001E7A  A$lcc2286827$211                   inventory_input
     00001E7A  C$inventory_input.c$51$2_1$157     inventory_input
     00001E7C  A$lcc2286827$216                   inventory_input
     00001E7C  C$inventory_input.c$52$2_1$158     inventory_input
     00001E7D  A$lcc2286827$217                   inventory_input
     00001E7F  A$lcc2286827$218                   inventory_input
     00001E81  A$lcc2286827$222                   inventory_input
     00001E81  C$inventory_input.c$53$2_1$158     inventory_input
     00001E83  A$lcc2286827$227                   inventory_input
     00001E83  C$inventory_input.c$55$2_1$159     inventory_input
     00001E85  A$lcc2286827$228                   inventory_input
     00001E86  A$lcc2286827$229                   inventory_input
     00001E88  A$lcc2286827$233                   inventory_input
     00001E88  C$inventory_input.c$56$2_1$159     inventory_input
     00001E8A  A$lcc2286827$238                   inventory_input
     00001E8A  C$inventory_input.c$57$2_1$160     inventory_input
     00001E8B  A$lcc2286827$239                   inventory_input
     00001E8D  A$lcc2286827$240                   inventory_input
     00001E8F  A$lcc2286827$244                   inventory_input
     00001E8F  C$inventory_input.c$58$2_1$160     inventory_input
     00001E91  A$lcc2286827$249                   inventory_input
     00001E91  C$inventory_input.c$60$1_1$148     inventory_input
     00001E92  A$lcc2286827$253                   inventory_input
     00001E92  C$inventory_input.c$61$1_1$148     inventory_input
     00001E95  A$lcc2286827$254                   inventory_input
     00001E96  A$lcc2286827$255                   inventory_input
     00001E98  A$lcc2286827$256                   inventory_input
     00001E9B  A$lcc2286827$257                   inventory_input
     00001E9C  A$lcc2286827$258                   inventory_input
     00001E9D  A$lcc2286827$262                   inventory_input
     00001E9D  C$inventory_input.c$63$1_1$148     inventory_input
     00001EA0  A$lcc2286827$263                   inventory_input
     00001EA1  A$lcc2286827$271                   inventory_input
     00001EA1  C$inventory_input.c$64$1_1$145     inventory_input
     00001EA1  XG$inventory_input$0$0             inventory_input
ASxxxx Linker V03.00/V05.40 + sdld,  page 36.
Hexadecimal  [32-Bits]

Area                                    Addr        Size        Decimal Bytes (Attributes)
--------------------------------        ----        ----        ------- ----- ------------
_CODE                               00000200    000029E6 =       10726. bytes (REL,CON)

      Value  Global                              Global Defined In Module
      -----  --------------------------------   ------------------------
     00001EA2  G$top_limit$0_0$0                  inventory_input
     00001EA2  _top_limit                         inventory_input
     00001EA3  G$bottom_limit$0_0$0               inventory_input
     00001EA3  _bottom_limit                      inventory_input
     00001EA4  G$left_limit$0_0$0                 inventory_input
     00001EA4  _left_limit                        inventory_input
     00001EA5  G$right_limit$0_0$0                inventory_input
     00001EA5  _right_limit                       inventory_input
     00001EA6  G$VERTICAL_MOVEMENT$0_0$0          inventory_input
     00001EA6  _VERTICAL_MOVEMENT                 inventory_input
     00001EA7  G$HORIZONTAL_MOVEMENT$0_0$0        inventory_input
     00001EA7  _HORIZONTAL_MOVEMENT               inventory_input
     00001EA8  A$lcc2286828$58                    load
     00001EA8  C$load.c$8$0_0$132                 load
     00001EA8  G$load_actor_tiles$0$0             load
     00001EA8  _load_actor_tiles                  load
     00001EAA  A$lcc2286828$59                    load
     00001EAC  A$lcc2286828$60                    load
     00001EAD  A$lcc2286828$61                    load
     00001EAE  A$lcc2286828$62                    load
     00001EAF  A$lcc2286828$63                    load
     00001EB0  A$lcc2286828$64                    load
     00001EB1  A$lcc2286828$68                    load
     00001EB1  C$load.c$9$2_0$132                 load
     00001EB4  A$lcc2286828$69                    load
     00001EB5  A$lcc2286828$73                    load
     00001EB5  C$load.c$12$1_0$132                load
     00001EB7  A$lcc2286828$75                    load
     00001EB8  A$lcc2286828$76                    load
     00001EBA  A$lcc2286828$77                    load
     00001EBB  A$lcc2286828$78                    load
     00001EBD  A$lcc2286828$82                    load
     00001EBD  C$load.c$13$3_0$134                load
     00001EBE  A$lcc2286828$83                    load
     00001EC0  A$lcc2286828$84                    load
     00001EC1  A$lcc2286828$85                    load
     00001EC2  A$lcc2286828$86                    load
     00001EC3  A$lcc2286828$87                    load
     00001EC5  A$lcc2286828$88                    load
     00001EC6  A$lcc2286828$89                    load
     00001EC7  A$lcc2286828$90                    load
     00001EC8  A$lcc2286828$91                    load
     00001EC9  A$lcc2286828$92                    load
     00001ECA  A$lcc2286828$93                    load
     00001ECB  A$lcc2286828$94                    load
     00001ECC  A$lcc2286828$95                    load
     00001ECD  A$lcc2286828$96                    load
     00001ECE  A$lcc2286828$97                    load
     00001ECF  A$lcc2286828$98                    load
     00001ED0  A$lcc2286828$99                    load
     00001ED1  A$lcc2286828$100                   load
ASxxxx Linker V03.00/V05.40 + sdld,  page 37.
Hexadecimal  [32-Bits]

Area                                    Addr        Size        Decimal Bytes (Attributes)
--------------------------------        ----        ----        ------- ----- ------------
_CODE                               00000200    000029E6 =       10726. bytes (REL,CON)

      Value  Global                              Global Defined In Module
      -----  --------------------------------   ------------------------
     00001ED2  A$lcc2286828$101                   load
     00001ED3  A$lcc2286828$102                   load
     00001ED4  A$lcc2286828$103                   load
     00001ED5  A$lcc2286828$104                   load
     00001ED6  A$lcc2286828$105                   load
     00001ED8  A$lcc2286828$106                   load
     00001ED9  A$lcc2286828$107                   load
     00001EDA  A$lcc2286828$108                   load
     00001EDB  A$lcc2286828$109                   load
     00001EDC  A$lcc2286828$110                   load
     00001EDF  A$lcc2286828$111                   load
     00001EE1  A$lcc2286828$115                   load
     00001EE1  C$load.c$12$2_0$133                load
     00001EE2  A$lcc2286828$116                   load
     00001EE4  A$lcc2286828$121                   load
     00001EE4  C$load.c$17$1_0$132                load
     00001EE7  A$lcc2286828$122                   load
     00001EE9  A$lcc2286828$123                   load
     00001EEA  A$lcc2286828$124                   load
     00001EEC  A$lcc2286828$125                   load
     00001EED  A$lcc2286828$126                   load
     00001EEE  A$lcc2286828$127                   load
     00001EEF  A$lcc2286828$128                   load
     00001EF0  A$lcc2286828$129                   load
     00001EF1  A$lcc2286828$133                   load
     00001EF1  C$load.c$18$1_0$132                load
     00001EF4  A$lcc2286828$134                   load
     00001EF6  A$lcc2286828$135                   load
     00001EF7  A$lcc2286828$136                   load
     00001EF9  A$lcc2286828$137                   load
     00001EFA  A$lcc2286828$138                   load
     00001EFB  A$lcc2286828$139                   load
     00001EFC  A$lcc2286828$140                   load
     00001EFE  A$lcc2286828$141                   load
     00001EFF  A$lcc2286828$142                   load
     00001F00  A$lcc2286828$146                   load
     00001F00  C$load.c$21$1_0$132                load
     00001F03  A$lcc2286828$147                   load
     00001F05  A$lcc2286828$148                   load
     00001F06  A$lcc2286828$149                   load
     00001F09  A$lcc2286828$153                   load
     00001F09  C$load.c$23$1_0$132                load
     00001F0A  A$lcc2286828$157                   load
     00001F0A  C$load.c$24$1_0$132                load
     00001F0C  A$lcc2286828$158                   load
     00001F0D  A$lcc2286828$159                   load
     00001F0E  A$lcc2286828$160                   load
     00001F0F  A$lcc2286828$173                   load
     00001F0F  C$load.c$26$1_0$136                load
     00001F0F  C$load.c$27$3_0$138                load
     00001F0F  G$reset_render_component$0$0       load
ASxxxx Linker V03.00/V05.40 + sdld,  page 38.
Hexadecimal  [32-Bits]

Area                                    Addr        Size        Decimal Bytes (Attributes)
--------------------------------        ----        ----        ------- ----- ------------
_CODE                               00000200    000029E6 =       10726. bytes (REL,CON)

      Value  Global                              Global Defined In Module
      -----  --------------------------------   ------------------------
     00001F0F  _reset_render_component            load
     00001F11  A$lcc2286828$175                   load
     00001F12  A$lcc2286828$176                   load
     00001F15  A$lcc2286828$177                   load
     00001F16  A$lcc2286828$178                   load
     00001F18  A$lcc2286828$182                   load
     00001F18  C$load.c$28$3_0$138                load
     00001F1B  A$lcc2286828$183                   load
     00001F1D  A$lcc2286828$184                   load
     00001F1E  A$lcc2286828$185                   load
     00001F20  A$lcc2286828$189                   load
     00001F20  C$load.c$29$3_0$138                load
     00001F23  A$lcc2286828$190                   load
     00001F25  A$lcc2286828$191                   load
     00001F26  A$lcc2286828$192                   load
     00001F28  A$lcc2286828$196                   load
     00001F28  C$load.c$27$2_0$137                load
     00001F29  A$lcc2286828$197                   load
     00001F2B  A$lcc2286828$202                   load
     00001F2B  C$load.c$32$1_0$136                load
     00001F2C  A$lcc2286828$203                   load
     00001F2F  A$lcc2286828$211                   load
     00001F2F  C$load.c$33$1_0$136                load
     00001F2F  XG$reset_render_component$0$0      load
     00001F30  A$lcc2286829$58                    map_scenes
     00001F30  C$map_scenes.c$11$2_0$39           map_scenes
     00001F30  C$map_scenes.c$9$0_0$39            map_scenes
     00001F30  G$scene_manager_MapScene$0$0       map_scenes
     00001F30  _scene_manager_MapScene            map_scenes
     00001F32  A$lcc2286829$59                    map_scenes
     00001F34  A$lcc2286829$60                    map_scenes
     00001F36  A$lcc2286829$61                    map_scenes
     00001F38  A$lcc2286829$62                    map_scenes
     00001F3A  A$lcc2286829$63                    map_scenes
     00001F3C  A$lcc2286829$64                    map_scenes
     00001F3E  A$lcc2286829$72                    map_scenes
     00001F3E  C$map_scenes.c$13$3_0$40           map_scenes
     00001F3E  C$map_scenes.c$14$3_0$40           map_scenes
     00001F41  A$lcc2286829$76                    map_scenes
     00001F41  C$map_scenes.c$15$3_0$40           map_scenes
     00001F44  A$lcc2286829$77                    map_scenes
     00001F45  A$lcc2286829$85                    map_scenes
     00001F45  C$map_scenes.c$16$3_0$40           map_scenes
     00001F45  C$map_scenes.c$17$3_0$40           map_scenes
     00001F48  A$lcc2286829$89                    map_scenes
     00001F48  C$map_scenes.c$18$3_0$40           map_scenes
     00001F4B  A$lcc2286829$90                    map_scenes
     00001F4C  A$lcc2286829$98                    map_scenes
     00001F4C  C$map_scenes.c$19$3_0$40           map_scenes
     00001F4C  C$map_scenes.c$20$3_0$40           map_scenes
     00001F4F  A$lcc2286829$102                   map_scenes
ASxxxx Linker V03.00/V05.40 + sdld,  page 39.
Hexadecimal  [32-Bits]

Area                                    Addr        Size        Decimal Bytes (Attributes)
--------------------------------        ----        ----        ------- ----- ------------
_CODE                               00000200    000029E6 =       10726. bytes (REL,CON)

      Value  Global                              Global Defined In Module
      -----  --------------------------------   ------------------------
     00001F4F  C$map_scenes.c$21$3_0$40           map_scenes
     00001F52  A$lcc2286829$103                   map_scenes
     00001F53  A$lcc2286829$111                   map_scenes
     00001F53  C$map_scenes.c$22$3_0$40           map_scenes
     00001F53  C$map_scenes.c$23$3_0$40           map_scenes
     00001F56  A$lcc2286829$122                   map_scenes
     00001F56  C$map_scenes.c$24$2_0$39           map_scenes
     00001F56  C$map_scenes.c$25$2_0$39           map_scenes
     00001F56  XG$scene_manager_MapScene$0$0      map_scenes
     00001F57  A$lcc2286830$66                    player
     00001F57  C$player.c$7$0_0$136               player
     00001F57  G$init_player$0$0                  player
     00001F57  _init_player                       player
     00001F59  A$lcc2286830$70                    player
     00001F59  C$player.c$9$1_0$136               player
     00001F5C  A$lcc2286830$71                    player
     00001F5F  A$lcc2286830$72                    player
     00001F60  A$lcc2286830$76                    player
     00001F60  C$player.c$11$1_0$136              player
     00001F61  A$lcc2286830$77                    player
     00001F63  A$lcc2286830$78                    player
     00001F66  A$lcc2286830$79                    player
     00001F67  A$lcc2286830$80                    player
     00001F69  A$lcc2286830$84                    player
     00001F69  C$player.c$12$1_0$136              player
     00001F6C  A$lcc2286830$85                    player
     00001F6F  A$lcc2286830$86                    player
     00001F70  A$lcc2286830$87                    player
     00001F72  A$lcc2286830$88                    player
     00001F73  A$lcc2286830$89                    player
     00001F75  A$lcc2286830$93                    player
     00001F75  C$player.c$11$1_1$136              player
     00001F78  A$lcc2286830$94                    player
     00001F79  A$lcc2286830$98                    player
     00001F79  C$player.c$14$1_0$136              player
     00001F7A  A$lcc2286830$99                    player
     00001F7C  A$lcc2286830$100                   player
     00001F7D  A$lcc2286830$101                   player
     00001F7E  A$lcc2286830$102                   player
     00001F81  A$lcc2286830$106                   player
     00001F81  C$player.c$16$1_0$136              player
     00001F84  A$lcc2286830$107                   player
     00001F85  A$lcc2286830$108                   player
     00001F87  A$lcc2286830$109                   player
     00001F88  A$lcc2286830$110                   player
     00001F8A  A$lcc2286830$111                   player
     00001F8C  A$lcc2286830$112                   player
     00001F8D  A$lcc2286830$113                   player
     00001F8F  A$lcc2286830$114                   player
     00001F90  A$lcc2286830$115                   player
     00001F91  A$lcc2286830$116                   player
ASxxxx Linker V03.00/V05.40 + sdld,  page 40.
Hexadecimal  [32-Bits]

Area                                    Addr        Size        Decimal Bytes (Attributes)
--------------------------------        ----        ----        ------- ----- ------------
_CODE                               00000200    000029E6 =       10726. bytes (REL,CON)

      Value  Global                              Global Defined In Module
      -----  --------------------------------   ------------------------
     00001F93  A$lcc2286830$117                   player
     00001F95  A$lcc2286830$118                   player
     00001F96  A$lcc2286830$119                   player
     00001F97  A$lcc2286830$120                   player
     00001F98  A$lcc2286830$121                   player
     00001F99  A$lcc2286830$122                   player
     00001F9A  A$lcc2286830$123                   player
     00001F9B  A$lcc2286830$127                   player
     00001F9B  C$player.c$17$1_0$136              player
     00001F9E  A$lcc2286830$128                   player
     00001F9F  A$lcc2286830$129                   player
     00001FA0  A$lcc2286830$130                   player
     00001FA2  A$lcc2286830$131                   player
     00001FA3  A$lcc2286830$132                   player
     00001FA5  A$lcc2286830$133                   player
     00001FA7  A$lcc2286830$134                   player
     00001FA8  A$lcc2286830$135                   player
     00001FA9  A$lcc2286830$136                   player
     00001FAB  A$lcc2286830$137                   player
     00001FAC  A$lcc2286830$138                   player
     00001FAD  A$lcc2286830$139                   player
     00001FAE  A$lcc2286830$140                   player
     00001FAF  A$lcc2286830$141                   player
     00001FB0  A$lcc2286830$142                   player
     00001FB1  A$lcc2286830$143                   player
     00001FB2  A$lcc2286830$147                   player
     00001FB2  C$player.c$19$1_0$136              player
     00001FB5  A$lcc2286830$148                   player
     00001FB6  A$lcc2286830$149                   player
     00001FB8  A$lcc2286830$150                   player
     00001FBB  A$lcc2286830$151                   player
     00001FBC  A$lcc2286830$152                   player
     00001FBE  A$lcc2286830$156                   player
     00001FBE  C$player.c$20$1_0$136              player
     00001FC1  A$lcc2286830$157                   player
     00001FC4  A$lcc2286830$158                   player
     00001FC5  A$lcc2286830$159                   player
     00001FC7  A$lcc2286830$160                   player
     00001FC8  A$lcc2286830$161                   player
     00001FCA  A$lcc2286830$165                   player
     00001FCA  C$player.c$21$1_0$136              player
     00001FCD  A$lcc2286830$166                   player
     00001FD0  A$lcc2286830$167                   player
     00001FD1  A$lcc2286830$168                   player
     00001FD3  A$lcc2286830$169                   player
     00001FD4  A$lcc2286830$170                   player
     00001FD6  A$lcc2286830$174                   player
     00001FD6  C$player.c$24$2_0$137              player
     00001FD9  A$lcc2286830$175                   player
     00001FDA  A$lcc2286830$176                   player
     00001FDB  A$lcc2286830$177                   player
ASxxxx Linker V03.00/V05.40 + sdld,  page 41.
Hexadecimal  [32-Bits]

Area                                    Addr        Size        Decimal Bytes (Attributes)
--------------------------------        ----        ----        ------- ----- ------------
_CODE                               00000200    000029E6 =       10726. bytes (REL,CON)

      Value  Global                              Global Defined In Module
      -----  --------------------------------   ------------------------
     00001FDC  A$lcc2286830$178                   player
     00001FDE  A$lcc2286830$179                   player
     00001FE0  A$lcc2286830$180                   player
     00001FE1  A$lcc2286830$181                   player
     00001FE3  A$lcc2286830$182                   player
     00001FE4  A$lcc2286830$183                   player
     00001FE6  A$lcc2286830$184                   player
     00001FE7  A$lcc2286830$185                   player
     00001FE9  A$lcc2286830$186                   player
     00001FEA  A$lcc2286830$187                   player
     00001FEC  A$lcc2286830$188                   player
     00001FED  A$lcc2286830$189                   player
     00001FEF  A$lcc2286830$193                   player
     00001FEF  C$player.c$30$2_0$137              player
     00001FF0  A$lcc2286830$194                   player
     00001FF2  A$lcc2286830$195                   player
     00001FF3  A$lcc2286830$196                   player
     00001FF5  A$lcc2286830$197                   player
     00001FF6  A$lcc2286830$198                   player
     00001FF8  A$lcc2286830$199                   player
     00001FF9  A$lcc2286830$200                   player
     00001FFB  A$lcc2286830$201                   player
     00001FFC  A$lcc2286830$202                   player
     00001FFE  A$lcc2286830$203                   player
     00001FFF  A$lcc2286830$204                   player
     00002001  A$lcc2286830$205                   player
     00002002  A$lcc2286830$206                   player
     00002004  A$lcc2286830$207                   player
     00002005  A$lcc2286830$208                   player
     00002007  A$lcc2286830$209                   player
     00002008  A$lcc2286830$210                   player
     00002009  A$lcc2286830$211                   player
     0000200A  A$lcc2286830$212                   player
     0000200B  A$lcc2286830$213                   player
     0000200C  A$lcc2286830$214                   player
     0000200E  A$lcc2286830$215                   player
     0000200F  A$lcc2286830$216                   player
     00002011  A$lcc2286830$217                   player
     00002012  A$lcc2286830$218                   player
     00002014  A$lcc2286830$219                   player
     00002015  A$lcc2286830$220                   player
     00002017  A$lcc2286830$221                   player
     00002018  A$lcc2286830$222                   player
     0000201A  A$lcc2286830$223                   player
     0000201B  A$lcc2286830$224                   player
     0000201D  A$lcc2286830$225                   player
     0000201E  A$lcc2286830$226                   player
     00002020  A$lcc2286830$227                   player
     00002021  A$lcc2286830$228                   player
     00002023  A$lcc2286830$229                   player
     00002024  A$lcc2286830$230                   player
ASxxxx Linker V03.00/V05.40 + sdld,  page 42.
Hexadecimal  [32-Bits]

Area                                    Addr        Size        Decimal Bytes (Attributes)
--------------------------------        ----        ----        ------- ----- ------------
_CODE                               00000200    000029E6 =       10726. bytes (REL,CON)

      Value  Global                              Global Defined In Module
      -----  --------------------------------   ------------------------
     00002026  A$lcc2286830$231                   player
     00002027  A$lcc2286830$232                   player
     00002029  A$lcc2286830$233                   player
     0000202A  A$lcc2286830$234                   player
     0000202C  A$lcc2286830$235                   player
     0000202D  A$lcc2286830$236                   player
     0000202F  A$lcc2286830$237                   player
     00002030  A$lcc2286830$238                   player
     00002032  A$lcc2286830$239                   player
     00002033  A$lcc2286830$240                   player
     00002035  A$lcc2286830$241                   player
     00002036  A$lcc2286830$242                   player
     00002037  A$lcc2286830$243                   player
     00002038  A$lcc2286830$244                   player
     00002039  A$lcc2286830$245                   player
     0000203A  A$lcc2286830$246                   player
     0000203C  A$lcc2286830$247                   player
     0000203D  A$lcc2286830$248                   player
     0000203F  A$lcc2286830$249                   player
     00002040  A$lcc2286830$250                   player
     00002042  A$lcc2286830$251                   player
     00002043  A$lcc2286830$252                   player
     00002045  A$lcc2286830$253                   player
     00002046  A$lcc2286830$254                   player
     00002048  A$lcc2286830$255                   player
     00002049  A$lcc2286830$256                   player
     0000204B  A$lcc2286830$260                   player
     0000204B  C$player.c$53$2_0$137              player
     0000204C  A$lcc2286830$261                   player
     0000204F  A$lcc2286830$262                   player
     00002050  A$lcc2286830$263                   player
     00002051  A$lcc2286830$264                   player
     00002052  A$lcc2286830$265                   player
     00002053  A$lcc2286830$266                   player
     00002055  A$lcc2286830$267                   player
     00002056  A$lcc2286830$268                   player
     00002058  A$lcc2286830$269                   player
     00002059  A$lcc2286830$270                   player
     0000205B  A$lcc2286830$271                   player
     0000205C  A$lcc2286830$272                   player
     0000205E  A$lcc2286830$273                   player
     0000205F  A$lcc2286830$274                   player
     00002061  A$lcc2286830$275                   player
     00002062  A$lcc2286830$276                   player
     00002064  A$lcc2286830$280                   player
     00002064  C$player.c$59$2_0$137              player
     00002065  A$lcc2286830$281                   player
     00002067  A$lcc2286830$282                   player
     00002068  A$lcc2286830$283                   player
     0000206A  A$lcc2286830$284                   player
     0000206B  A$lcc2286830$285                   player
ASxxxx Linker V03.00/V05.40 + sdld,  page 43.
Hexadecimal  [32-Bits]

Area                                    Addr        Size        Decimal Bytes (Attributes)
--------------------------------        ----        ----        ------- ----- ------------
_CODE                               00000200    000029E6 =       10726. bytes (REL,CON)

      Value  Global                              Global Defined In Module
      -----  --------------------------------   ------------------------
     0000206D  A$lcc2286830$286                   player
     0000206E  A$lcc2286830$287                   player
     00002070  A$lcc2286830$288                   player
     00002071  A$lcc2286830$289                   player
     00002073  A$lcc2286830$290                   player
     00002074  A$lcc2286830$291                   player
     00002076  A$lcc2286830$292                   player
     00002077  A$lcc2286830$293                   player
     00002079  A$lcc2286830$294                   player
     0000207A  A$lcc2286830$295                   player
     0000207C  A$lcc2286830$296                   player
     0000207D  A$lcc2286830$297                   player
     0000207E  A$lcc2286830$298                   player
     0000207F  A$lcc2286830$299                   player
     00002080  A$lcc2286830$300                   player
     00002081  A$lcc2286830$301                   player
     00002083  A$lcc2286830$302                   player
     00002084  A$lcc2286830$303                   player
     00002086  A$lcc2286830$304                   player
     00002087  A$lcc2286830$305                   player
     00002089  A$lcc2286830$306                   player
     0000208A  A$lcc2286830$307                   player
     0000208C  A$lcc2286830$308                   player
     0000208D  A$lcc2286830$309                   player
     0000208F  A$lcc2286830$310                   player
     00002090  A$lcc2286830$311                   player
     00002092  A$lcc2286830$312                   player
     00002093  A$lcc2286830$313                   player
     00002095  A$lcc2286830$314                   player
     00002096  A$lcc2286830$315                   player
     00002098  A$lcc2286830$316                   player
     00002099  A$lcc2286830$317                   player
     0000209B  A$lcc2286830$318                   player
     0000209C  A$lcc2286830$319                   player
     0000209E  A$lcc2286830$320                   player
     0000209F  A$lcc2286830$321                   player
     000020A1  A$lcc2286830$322                   player
     000020A2  A$lcc2286830$323                   player
     000020A4  A$lcc2286830$324                   player
     000020A5  A$lcc2286830$325                   player
     000020A7  A$lcc2286830$326                   player
     000020A8  A$lcc2286830$327                   player
     000020AA  A$lcc2286830$328                   player
     000020AB  A$lcc2286830$329                   player
     000020AC  A$lcc2286830$330                   player
     000020AD  A$lcc2286830$331                   player
     000020AE  A$lcc2286830$332                   player
     000020AF  A$lcc2286830$333                   player
     000020B1  A$lcc2286830$334                   player
     000020B2  A$lcc2286830$335                   player
     000020B4  A$lcc2286830$336                   player
ASxxxx Linker V03.00/V05.40 + sdld,  page 44.
Hexadecimal  [32-Bits]

Area                                    Addr        Size        Decimal Bytes (Attributes)
--------------------------------        ----        ----        ------- ----- ------------
_CODE                               00000200    000029E6 =       10726. bytes (REL,CON)

      Value  Global                              Global Defined In Module
      -----  --------------------------------   ------------------------
     000020B5  A$lcc2286830$337                   player
     000020B7  A$lcc2286830$338                   player
     000020B8  A$lcc2286830$339                   player
     000020BA  A$lcc2286830$340                   player
     000020BB  A$lcc2286830$341                   player
     000020BD  A$lcc2286830$342                   player
     000020BE  A$lcc2286830$343                   player
     000020C0  A$lcc2286830$347                   player
     000020C0  C$player.c$81$1_1$137              player
     000020C3  A$lcc2286830$348                   player
     000020C4  A$lcc2286830$349                   player
     000020C6  A$lcc2286830$350                   player
     000020C7  A$lcc2286830$351                   player
     000020C8  A$lcc2286830$352                   player
     000020C9  A$lcc2286830$353                   player
     000020CA  A$lcc2286830$354                   player
     000020CB  A$lcc2286830$355                   player
     000020CC  A$lcc2286830$356                   player
     000020CD  A$lcc2286830$357                   player
     000020CE  A$lcc2286830$358                   player
     000020CF  A$lcc2286830$359                   player
     000020D2  A$lcc2286830$360                   player
     000020D3  A$lcc2286830$361                   player
     000020D4  A$lcc2286830$362                   player
     000020D5  A$lcc2286830$363                   player
     000020D8  A$lcc2286830$364                   player
     000020D9  A$lcc2286830$365                   player
     000020DB  A$lcc2286830$366                   player
     000020DC  A$lcc2286830$367                   player
     000020DD  A$lcc2286830$368                   player
     000020E0  A$lcc2286830$369                   player
     000020E1  A$lcc2286830$370                   player
     000020E2  A$lcc2286830$371                   player
     000020E3  A$lcc2286830$372                   player
     000020E4  A$lcc2286830$373                   player
     000020E5  A$lcc2286830$374                   player
     000020E6  A$lcc2286830$375                   player
     000020E9  A$lcc2286830$376                   player
     000020EC  A$lcc2286830$380                   player
     000020EC  C$player.c$82$1_1$137              player
     000020EF  A$lcc2286830$381                   player
     000020F0  A$lcc2286830$382                   player
     000020F2  A$lcc2286830$383                   player
     000020F3  A$lcc2286830$384                   player
     000020F4  A$lcc2286830$385                   player
     000020F5  A$lcc2286830$386                   player
     000020F6  A$lcc2286830$387                   player
     000020F7  A$lcc2286830$388                   player
     000020F8  A$lcc2286830$389                   player
     000020F9  A$lcc2286830$390                   player
     000020FA  A$lcc2286830$391                   player
ASxxxx Linker V03.00/V05.40 + sdld,  page 45.
Hexadecimal  [32-Bits]

Area                                    Addr        Size        Decimal Bytes (Attributes)
--------------------------------        ----        ----        ------- ----- ------------
_CODE                               00000200    000029E6 =       10726. bytes (REL,CON)

      Value  Global                              Global Defined In Module
      -----  --------------------------------   ------------------------
     000020FB  A$lcc2286830$392                   player
     000020FE  A$lcc2286830$393                   player
     000020FF  A$lcc2286830$394                   player
     00002100  A$lcc2286830$395                   player
     00002101  A$lcc2286830$396                   player
     00002104  A$lcc2286830$397                   player
     00002105  A$lcc2286830$398                   player
     00002107  A$lcc2286830$399                   player
     00002108  A$lcc2286830$400                   player
     00002109  A$lcc2286830$401                   player
     0000210C  A$lcc2286830$402                   player
     0000210D  A$lcc2286830$403                   player
     0000210E  A$lcc2286830$404                   player
     00002110  A$lcc2286830$405                   player
     00002111  A$lcc2286830$406                   player
     00002112  A$lcc2286830$407                   player
     00002113  A$lcc2286830$408                   player
     00002116  A$lcc2286830$409                   player
     00002119  A$lcc2286830$413                   player
     00002119  C$player.c$83$1_1$137              player
     0000211C  A$lcc2286830$414                   player
     0000211D  A$lcc2286830$415                   player
     0000211F  A$lcc2286830$416                   player
     00002120  A$lcc2286830$417                   player
     00002121  A$lcc2286830$418                   player
     00002122  A$lcc2286830$419                   player
     00002123  A$lcc2286830$420                   player
     00002124  A$lcc2286830$421                   player
     00002125  A$lcc2286830$422                   player
     00002126  A$lcc2286830$423                   player
     00002127  A$lcc2286830$424                   player
     00002128  A$lcc2286830$425                   player
     0000212B  A$lcc2286830$426                   player
     0000212C  A$lcc2286830$427                   player
     0000212D  A$lcc2286830$428                   player
     0000212E  A$lcc2286830$429                   player
     00002131  A$lcc2286830$430                   player
     00002132  A$lcc2286830$431                   player
     00002134  A$lcc2286830$432                   player
     00002135  A$lcc2286830$433                   player
     00002136  A$lcc2286830$434                   player
     00002139  A$lcc2286830$435                   player
     0000213A  A$lcc2286830$436                   player
     0000213B  A$lcc2286830$437                   player
     0000213D  A$lcc2286830$438                   player
     0000213E  A$lcc2286830$439                   player
     0000213F  A$lcc2286830$440                   player
     00002140  A$lcc2286830$441                   player
     00002143  A$lcc2286830$442                   player
     00002146  A$lcc2286830$446                   player
     00002146  C$player.c$84$1_1$137              player
ASxxxx Linker V03.00/V05.40 + sdld,  page 46.
Hexadecimal  [32-Bits]

Area                                    Addr        Size        Decimal Bytes (Attributes)
--------------------------------        ----        ----        ------- ----- ------------
_CODE                               00000200    000029E6 =       10726. bytes (REL,CON)

      Value  Global                              Global Defined In Module
      -----  --------------------------------   ------------------------
     00002149  A$lcc2286830$447                   player
     0000214A  A$lcc2286830$448                   player
     0000214C  A$lcc2286830$449                   player
     0000214D  A$lcc2286830$450                   player
     0000214E  A$lcc2286830$451                   player
     0000214F  A$lcc2286830$452                   player
     00002150  A$lcc2286830$453                   player
     00002151  A$lcc2286830$454                   player
     00002152  A$lcc2286830$455                   player
     00002153  A$lcc2286830$456                   player
     00002154  A$lcc2286830$457                   player
     00002155  A$lcc2286830$458                   player
     00002158  A$lcc2286830$459                   player
     00002159  A$lcc2286830$460                   player
     0000215A  A$lcc2286830$461                   player
     0000215B  A$lcc2286830$462                   player
     0000215E  A$lcc2286830$463                   player
     0000215F  A$lcc2286830$464                   player
     00002161  A$lcc2286830$465                   player
     00002162  A$lcc2286830$466                   player
     00002163  A$lcc2286830$467                   player
     00002166  A$lcc2286830$468                   player
     00002167  A$lcc2286830$469                   player
     00002168  A$lcc2286830$470                   player
     0000216A  A$lcc2286830$471                   player
     0000216B  A$lcc2286830$472                   player
     0000216C  A$lcc2286830$473                   player
     0000216D  A$lcc2286830$474                   player
     00002170  A$lcc2286830$475                   player
     00002173  A$lcc2286830$479                   player
     00002173  C$player.c$86$1_1$137              player
     00002176  A$lcc2286830$483                   player
     00002176  C$player.c$87$1_1$137              player
     00002177  A$lcc2286830$484                   player
     00002178  A$lcc2286830$485                   player
     0000217A  A$lcc2286830$489                   player
     0000217A  C$player.c$88$1_1$137              player
     0000217D  A$lcc2286830$490                   player
     0000217F  A$lcc2286830$494                   player
     0000217F  C$player.c$89$1_1$137              player
     00002182  A$lcc2286830$495                   player
     00002184  A$lcc2286830$499                   player
     00002184  C$player.c$91$1_1$137              player
     00002187  A$lcc2286830$503                   player
     00002189  A$lcc2286830$508                   player
     00002189  C$player.c$92$1_1$136              player
     00002189  XG$init_player$0$0                 player
     0000218A  A$lcc2286832$56                    render
     0000218A  C$render.c$5$0_0$130               render
     0000218A  G$render_reset$0$0                 render
     0000218A  _render_reset                      render
ASxxxx Linker V03.00/V05.40 + sdld,  page 47.
Hexadecimal  [32-Bits]

Area                                    Addr        Size        Decimal Bytes (Attributes)
--------------------------------        ----        ----        ------- ----- ------------
_CODE                               00000200    000029E6 =       10726. bytes (REL,CON)

      Value  Global                              Global Defined In Module
      -----  --------------------------------   ------------------------
     0000218B  A$lcc2286832$60                    render
     0000218B  C$render.c$6$1_0$130               render
     0000218E  A$lcc2286832$61                    render
     00002190  A$lcc2286832$62                    render
     00002191  A$lcc2286832$63                    render
     00002193  A$lcc2286832$67                    render
     00002193  C$render.c$7$1_0$130               render
     00002196  A$lcc2286832$68                    render
     00002198  A$lcc2286832$69                    render
     00002199  A$lcc2286832$70                    render
     0000219B  A$lcc2286832$78                    render
     0000219B  C$render.c$8$1_0$130               render
     0000219B  XG$render_reset$0$0                render
     0000219C  A$lcc2286833$70                    scene
     0000219C  C$scene.c$10$0_0$26                scene
     0000219C  C$scene.c$11$1_0$26                scene
     0000219C  G$init_NPCs$0$0                    scene
     0000219C  _init_NPCs                         scene
     0000219F  A$lcc2286833$71                    scene
     000021A2  A$lcc2286833$75                    scene
     000021A2  C$scene.c$12$1_0$26                scene
     000021A5  A$lcc2286833$76                    scene
     000021A8  A$lcc2286833$80                    scene
     000021A8  C$scene.c$13$1_0$26                scene
     000021AB  A$lcc2286833$81                    scene
     000021AE  A$lcc2286833$89                    scene
     000021AE  C$scene.c$14$1_0$26                scene
     000021AE  XG$init_NPCs$0$0                   scene
     000021AF  A$lcc2286833$102                   scene
     000021AF  C$scene.c$16$1_0$28                scene
     000021AF  C$scene.c$18$2_0$29                scene
     000021AF  G$Scene_Destroy$0$0                scene
     000021AF  _Scene_Destroy                     scene
     000021B2  A$lcc2286833$103                   scene
     000021B3  A$lcc2286833$104                   scene
     000021B4  A$lcc2286833$105                   scene
     000021B5  A$lcc2286833$106                   scene
     000021B6  A$lcc2286833$107                   scene
     000021B7  A$lcc2286833$108                   scene
     000021B8  A$lcc2286833$109                   scene
     000021B9  A$lcc2286833$113                   scene
     000021B9  C$scene.c$19$2_0$29                scene
     000021BA  A$lcc2286833$117                   scene
     000021BA  C$scene.c$21$1_0$28                scene
     000021BB  A$lcc2286833$118                   scene
     000021BC  A$lcc2286833$119                   scene
     000021BD  A$lcc2286833$120                   scene
     000021C0  A$lcc2286833$121                   scene
     000021C1  A$lcc2286833$125                   scene
     000021C1  C$scene.c$22$1_0$28                scene
     000021C2  A$lcc2286833$126                   scene
ASxxxx Linker V03.00/V05.40 + sdld,  page 48.
Hexadecimal  [32-Bits]

Area                                    Addr        Size        Decimal Bytes (Attributes)
--------------------------------        ----        ----        ------- ----- ------------
_CODE                               00000200    000029E6 =       10726. bytes (REL,CON)

      Value  Global                              Global Defined In Module
      -----  --------------------------------   ------------------------
     000021C3  A$lcc2286833$127                   scene
     000021C4  A$lcc2286833$128                   scene
     000021C5  A$lcc2286833$136                   scene
     000021C5  C$scene.c$23$1_0$28                scene
     000021C5  XG$Scene_Destroy$0$0               scene
     000021C6  A$lcc2286834$63                    scene_manager
     000021C6  C$scene_manager.c$13$0_0$163       scene_manager
     000021C6  C$scene_manager.c$16$1_0$163       scene_manager
     000021C6  G$SceneManager_CleanScreen$0$0     scene_manager
     000021C6  _SceneManager_CleanScreen          scene_manager
     000021C9  A$lcc2286834$64                    scene_manager
     000021CC  A$lcc2286834$65                    scene_manager
     000021CD  A$lcc2286834$66                    scene_manager
     000021CF  A$lcc2286834$67                    scene_manager
     000021D0  A$lcc2286834$68                    scene_manager
     000021D2  A$lcc2286834$72                    scene_manager
     000021D2  C$scene_manager.c$17$1_0$163       scene_manager
     000021D5  A$lcc2286834$73                    scene_manager
     000021D6  A$lcc2286834$74                    scene_manager
     000021D8  A$lcc2286834$75                    scene_manager
     000021D9  A$lcc2286834$76                    scene_manager
     000021DB  A$lcc2286834$80                    scene_manager
     000021DB  C$scene_manager.c$18$1_0$163       scene_manager
     000021DE  A$lcc2286834$81                    scene_manager
     000021DF  A$lcc2286834$82                    scene_manager
     000021E1  A$lcc2286834$83                    scene_manager
     000021E2  A$lcc2286834$84                    scene_manager
     000021E4  A$lcc2286834$88                    scene_manager
     000021E4  C$scene_manager.c$19$1_0$163       scene_manager
     000021E7  A$lcc2286834$89                    scene_manager
     000021E8  A$lcc2286834$90                    scene_manager
     000021EA  A$lcc2286834$91                    scene_manager
     000021EB  A$lcc2286834$92                    scene_manager
     000021ED  A$lcc2286834$100                   scene_manager
     000021ED  C$scene_manager.c$20$1_0$163       scene_manager
     000021ED  XG$SceneManager_CleanScreen$0$0    scene_manager
     000021EE  A$lcc2286834$113                   scene_manager
     000021EE  C$scene_manager.c$22$1_0$165       scene_manager
     000021EE  C$scene_manager.c$24$1_0$165       scene_manager
     000021EE  G$SceneManager_Create$0$0          scene_manager
     000021EE  _SceneManager_Create               scene_manager
     000021EF  A$lcc2286834$114                   scene_manager
     000021F2  A$lcc2286834$115                   scene_manager
     000021F5  A$lcc2286834$116                   scene_manager
     000021F6  A$lcc2286834$117                   scene_manager
     000021F9  A$lcc2286834$118                   scene_manager
     000021FA  A$lcc2286834$119                   scene_manager
     000021FB  A$lcc2286834$123                   scene_manager
     000021FB  C$scene_manager.c$26$1_0$165       scene_manager
     000021FC  A$lcc2286834$124                   scene_manager
     000021FD  A$lcc2286834$125                   scene_manager
ASxxxx Linker V03.00/V05.40 + sdld,  page 49.
Hexadecimal  [32-Bits]

Area                                    Addr        Size        Decimal Bytes (Attributes)
--------------------------------        ----        ----        ------- ----- ------------
_CODE                               00000200    000029E6 =       10726. bytes (REL,CON)

      Value  Global                              Global Defined In Module
      -----  --------------------------------   ------------------------
     000021FE  A$lcc2286834$126                   scene_manager
     00002201  A$lcc2286834$127                   scene_manager
     00002202  A$lcc2286834$128                   scene_manager
     00002203  A$lcc2286834$129                   scene_manager
     00002204  A$lcc2286834$130                   scene_manager
     00002205  A$lcc2286834$134                   scene_manager
     00002205  C$scene_manager.c$27$1_0$165       scene_manager
     00002208  A$lcc2286834$135                   scene_manager
     0000220B  A$lcc2286834$136                   scene_manager
     0000220C  A$lcc2286834$137                   scene_manager
     0000220D  A$lcc2286834$138                   scene_manager
     0000220E  A$lcc2286834$139                   scene_manager
     0000220F  A$lcc2286834$140                   scene_manager
     00002211  A$lcc2286834$141                   scene_manager
     00002212  A$lcc2286834$142                   scene_manager
     00002214  A$lcc2286834$150                   scene_manager
     00002214  C$scene_manager.c$28$1_0$165       scene_manager
     00002214  XG$SceneManager_Create$0$0         scene_manager
     00002215  A$lcc2286834$160                   scene_manager
     00002215  C$scene_manager.c$30$1_0$167       scene_manager
     00002215  G$SceneManager_ChangeScene$0$0     scene_manager
     00002215  _SceneManager_ChangeScene          scene_manager
     00002217  A$lcc2286834$161                   scene_manager
     00002219  A$lcc2286834$162                   scene_manager
     0000221A  A$lcc2286834$163                   scene_manager
     0000221B  A$lcc2286834$164                   scene_manager
     0000221C  A$lcc2286834$165                   scene_manager
     0000221D  A$lcc2286834$166                   scene_manager
     0000221E  A$lcc2286834$170                   scene_manager
     00002221  A$lcc2286834$171                   scene_manager
     00002222  A$lcc2286834$172                   scene_manager
     00002223  A$lcc2286834$173                   scene_manager
     00002224  A$lcc2286834$174                   scene_manager
     00002225  A$lcc2286834$175                   scene_manager
     00002226  A$lcc2286834$176                   scene_manager
     00002227  A$lcc2286834$177                   scene_manager
     00002228  A$lcc2286834$178                   scene_manager
     00002229  A$lcc2286834$182                   scene_manager
     00002229  C$scene_manager.c$33$2_0$168       scene_manager
     0000222B  A$lcc2286834$186                   scene_manager
     0000222C  A$lcc2286834$187                   scene_manager
     0000222D  A$lcc2286834$188                   scene_manager
     0000222E  A$lcc2286834$189                   scene_manager
     0000222F  A$lcc2286834$190                   scene_manager
     00002230  A$lcc2286834$191                   scene_manager
     00002231  A$lcc2286834$192                   scene_manager
     00002232  A$lcc2286834$193                   scene_manager
     00002234  A$lcc2286834$194                   scene_manager
     00002237  A$lcc2286834$195                   scene_manager
     00002238  A$lcc2286834$196                   scene_manager
     00002239  A$lcc2286834$197                   scene_manager
ASxxxx Linker V03.00/V05.40 + sdld,  page 50.
Hexadecimal  [32-Bits]

Area                                    Addr        Size        Decimal Bytes (Attributes)
--------------------------------        ----        ----        ------- ----- ------------
_CODE                               00000200    000029E6 =       10726. bytes (REL,CON)

      Value  Global                              Global Defined In Module
      -----  --------------------------------   ------------------------
     0000223A  A$lcc2286834$198                   scene_manager
     0000223B  A$lcc2286834$199                   scene_manager
     0000223C  A$lcc2286834$200                   scene_manager
     0000223E  A$lcc2286834$204                   scene_manager
     0000223E  C$scene_manager.c$36$2_0$169       scene_manager
     0000223F  A$lcc2286834$205                   scene_manager
     00002240  A$lcc2286834$206                   scene_manager
     00002243  A$lcc2286834$207                   scene_manager
     00002244  A$lcc2286834$208                   scene_manager
     00002245  A$lcc2286834$209                   scene_manager
     00002246  A$lcc2286834$215                   scene_manager
     00002246  C$scene_manager.c$38$1_0$167       scene_manager
     00002249  A$lcc2286834$216                   scene_manager
     0000224A  A$lcc2286834$217                   scene_manager
     0000224B  A$lcc2286834$218                   scene_manager
     0000224C  A$lcc2286834$219                   scene_manager
     0000224D  A$lcc2286834$220                   scene_manager
     0000224E  A$lcc2286834$221                   scene_manager
     0000224F  A$lcc2286834$222                   scene_manager
     00002250  A$lcc2286834$223                   scene_manager
     00002252  A$lcc2286834$224                   scene_manager
     00002253  A$lcc2286834$225                   scene_manager
     00002256  A$lcc2286834$226                   scene_manager
     00002257  A$lcc2286834$227                   scene_manager
     00002258  A$lcc2286834$228                   scene_manager
     00002259  A$lcc2286834$229                   scene_manager
     0000225A  A$lcc2286834$230                   scene_manager
     0000225B  A$lcc2286834$231                   scene_manager
     0000225C  A$lcc2286834$232                   scene_manager
     0000225D  A$lcc2286834$233                   scene_manager
     0000225E  A$lcc2286834$237                   scene_manager
     0000225E  C$scene_manager.c$40$1_0$167       scene_manager
     00002261  A$lcc2286834$241                   scene_manager
     00002261  C$scene_manager.c$32$1_0$167       scene_manager
     00002264  A$lcc2286834$242                   scene_manager
     00002265  A$lcc2286834$243                   scene_manager
     00002266  A$lcc2286834$244                   scene_manager
     00002267  A$lcc2286834$245                   scene_manager
     00002268  A$lcc2286834$246                   scene_manager
     00002269  A$lcc2286834$247                   scene_manager
     0000226A  A$lcc2286834$251                   scene_manager
     0000226A  C$scene_manager.c$35$1_0$167       scene_manager
     0000226B  A$lcc2286834$252                   scene_manager
     0000226C  A$lcc2286834$253                   scene_manager
     0000226D  A$lcc2286834$254                   scene_manager
     0000226E  A$lcc2286834$255                   scene_manager
     0000226F  A$lcc2286834$259                   scene_manager
     0000226F  C$scene_manager.c$41$1_0$167       scene_manager
     00002270  A$lcc2286834$260                   scene_manager
     00002271  A$lcc2286834$261                   scene_manager
     00002272  A$lcc2286834$262                   scene_manager
ASxxxx Linker V03.00/V05.40 + sdld,  page 51.
Hexadecimal  [32-Bits]

Area                                    Addr        Size        Decimal Bytes (Attributes)
--------------------------------        ----        ----        ------- ----- ------------
_CODE                               00000200    000029E6 =       10726. bytes (REL,CON)

      Value  Global                              Global Defined In Module
      -----  --------------------------------   ------------------------
     00002274  A$lcc2286834$263                   scene_manager
     00002275  A$lcc2286834$264                   scene_manager
     00002276  A$lcc2286834$265                   scene_manager
     00002277  A$lcc2286834$266                   scene_manager
     00002278  A$lcc2286834$267                   scene_manager
     00002279  A$lcc2286834$268                   scene_manager
     0000227A  A$lcc2286834$269                   scene_manager
     0000227B  A$lcc2286834$270                   scene_manager
     0000227C  A$lcc2286834$271                   scene_manager
     0000227D  A$lcc2286834$272                   scene_manager
     00002280  A$lcc2286834$276                   scene_manager
     00002280  C$scene_manager.c$43$1_0$167       scene_manager
     00002282  A$lcc2286834$277                   scene_manager
     00002284  A$lcc2286834$278                   scene_manager
     00002286  A$lcc2286834$283                   scene_manager
     00002288  A$lcc2286834$288                   scene_manager
     00002288  C$scene_manager.c$44$1_0$167       scene_manager
     00002288  XG$SceneManager_ChangeScene$0$0    scene_manager
     00002289  A$lcc2286835$61                    gender_select
     00002289  C$gender_select.c$6$0_0$30         gender_select
     00002289  C$gender_select.c$8$1_0$30         gender_select
     00002289  G$GenderSelect_Create$0$0          gender_select
     00002289  _GenderSelect_Create               gender_select
     0000228C  A$lcc2286835$62                    gender_select
     0000228E  A$lcc2286835$63                    gender_select
     0000228F  A$lcc2286835$64                    gender_select
     00002291  A$lcc2286835$68                    gender_select
     00002291  C$gender_select.c$9$1_0$30         gender_select
     00002292  A$lcc2286835$69                    gender_select
     00002294  A$lcc2286835$70                    gender_select
     00002295  A$lcc2286835$71                    gender_select
     00002297  A$lcc2286835$75                    gender_select
     00002297  C$gender_select.c$11$1_0$30        gender_select
     0000229A  A$lcc2286835$76                    gender_select
     0000229B  A$lcc2286835$77                    gender_select
     0000229C  A$lcc2286835$78                    gender_select
     0000229D  A$lcc2286835$86                    gender_select
     0000229D  C$gender_select.c$12$1_0$30        gender_select
     0000229D  XG$GenderSelect_Create$0$0         gender_select
     0000229E  A$lcc2286836$58                    gender_select_init
     0000229E  C$gender_select_init.c$11$1_0$15   gender_select_init
     0000229E  C$gender_select_init.c$9$0_0$155   gender_select_init
     0000229E  G$GenderSelect_Init$0$0            gender_select_init
     0000229E  _GenderSelect_Init                 gender_select_init
     0000229F  A$lcc2286836$59                    gender_select_init
     000022A2  A$lcc2286836$60                    gender_select_init
     000022A5  A$lcc2286836$61                    gender_select_init
     000022A6  A$lcc2286836$62                    gender_select_init
     000022A7  A$lcc2286836$63                    gender_select_init
     000022A8  A$lcc2286836$67                    gender_select_init
     000022A8  C$gender_select_init.c$12$2_0$15   gender_select_init
ASxxxx Linker V03.00/V05.40 + sdld,  page 52.
Hexadecimal  [32-Bits]

Area                                    Addr        Size        Decimal Bytes (Attributes)
--------------------------------        ----        ----        ------- ----- ------------
_CODE                               00000200    000029E6 =       10726. bytes (REL,CON)

      Value  Global                              Global Defined In Module
      -----  --------------------------------   ------------------------
     000022A9  A$lcc2286836$68                    gender_select_init
     000022AA  A$lcc2286836$72                    gender_select_init
     000022AA  C$gender_select_init.c$13$2_0$15   gender_select_init
     000022AB  A$lcc2286836$76                    gender_select_init
     000022AB  C$gender_select_init.c$15$1_0$15   gender_select_init
     000022AC  A$lcc2286836$77                    gender_select_init
     000022AD  A$lcc2286836$81                    gender_select_init
     000022AD  C$gender_select_init.c$16$1_0$15   gender_select_init
     000022B0  A$lcc2286836$82                    gender_select_init
     000022B1  A$lcc2286836$83                    gender_select_init
     000022B2  A$lcc2286836$84                    gender_select_init
     000022B3  A$lcc2286836$85                    gender_select_init
     000022B4  A$lcc2286836$89                    gender_select_init
     000022B4  C$gender_select_init.c$18$1_0$15   gender_select_init
     000022B7  A$lcc2286836$90                    gender_select_init
     000022B8  A$lcc2286836$91                    gender_select_init
     000022BB  A$lcc2286836$92                    gender_select_init
     000022BC  A$lcc2286836$93                    gender_select_init
     000022BF  A$lcc2286836$94                    gender_select_init
     000022C1  A$lcc2286836$98                    gender_select_init
     000022C1  C$gender_select_init.c$19$1_0$15   gender_select_init
     000022C4  A$lcc2286836$99                    gender_select_init
     000022C5  A$lcc2286836$100                   gender_select_init
     000022C8  A$lcc2286836$101                   gender_select_init
     000022C9  A$lcc2286836$102                   gender_select_init
     000022CA  A$lcc2286836$103                   gender_select_init
     000022CB  A$lcc2286836$104                   gender_select_init
     000022CC  A$lcc2286836$105                   gender_select_init
     000022CF  A$lcc2286836$106                   gender_select_init
     000022D1  A$lcc2286836$114                   gender_select_init
     000022D1  C$gender_select_init.c$20$1_0$15   gender_select_init
     000022D1  XG$GenderSelect_Init$0$0           gender_select_init
     000022D2  A$lcc2286837$62                    gender_select_update
     000022D2  C$gender_select_update.c$6$0_0$1   gender_select_update
     000022D2  C$gender_select_update.c$8$1_0$1   gender_select_update
     000022D2  C$gender_select_update.c$9$1_0$1   gender_select_update
     000022D2  G$GenderSelect_Update$0$0          gender_select_update
     000022D2  XG$GenderSelect_Update$0$0         gender_select_update
     000022D2  _GenderSelect_Update               gender_select_update
     000022D3  A$lcc2286838$61                    inventory_scene
     000022D3  C$inventory_scene.c$6$0_0$30       inventory_scene
     000022D3  C$inventory_scene.c$8$1_0$30       inventory_scene
     000022D3  G$InventoryScene_Create$0$0        inventory_scene
     000022D3  _InventoryScene_Create             inventory_scene
     000022D6  A$lcc2286838$62                    inventory_scene
     000022D8  A$lcc2286838$63                    inventory_scene
     000022D9  A$lcc2286838$64                    inventory_scene
     000022DB  A$lcc2286838$68                    inventory_scene
     000022DB  C$inventory_scene.c$9$1_0$30       inventory_scene
     000022DC  A$lcc2286838$69                    inventory_scene
     000022DE  A$lcc2286838$70                    inventory_scene
ASxxxx Linker V03.00/V05.40 + sdld,  page 53.
Hexadecimal  [32-Bits]

Area                                    Addr        Size        Decimal Bytes (Attributes)
--------------------------------        ----        ----        ------- ----- ------------
_CODE                               00000200    000029E6 =       10726. bytes (REL,CON)

      Value  Global                              Global Defined In Module
      -----  --------------------------------   ------------------------
     000022DF  A$lcc2286838$71                    inventory_scene
     000022E1  A$lcc2286838$75                    inventory_scene
     000022E1  C$inventory_scene.c$11$1_0$30      inventory_scene
     000022E4  A$lcc2286838$76                    inventory_scene
     000022E5  A$lcc2286838$77                    inventory_scene
     000022E6  A$lcc2286838$78                    inventory_scene
     000022E7  A$lcc2286838$86                    inventory_scene
     000022E7  C$inventory_scene.c$12$1_0$30      inventory_scene
     000022E7  XG$InventoryScene_Create$0$0       inventory_scene
     000022E8  A$lcc2286839$55                    inventory_scene_init
     000022E8  C$inventory_scene_init.c$10$0_0$   inventory_scene_init
     000022E8  G$InventoryScene_Init$0$0          inventory_scene_init
     000022E8  _InventoryScene_Init               inventory_scene_init
     000022E9  A$lcc2286839$59                    inventory_scene_init
     000022E9  C$inventory_scene_init.c$12$1_0$   inventory_scene_init
     000022EC  A$lcc2286839$60                    inventory_scene_init
     000022ED  A$lcc2286839$61                    inventory_scene_init
     000022EE  A$lcc2286839$62                    inventory_scene_init
     000022EF  A$lcc2286839$63                    inventory_scene_init
     000022F0  A$lcc2286839$67                    inventory_scene_init
     000022F0  C$inventory_scene_init.c$13$1_0$   inventory_scene_init
     000022F3  A$lcc2286839$71                    inventory_scene_init
     000022F3  C$inventory_scene_init.c$15$2_0$   inventory_scene_init
     000022F5  A$lcc2286839$72                    inventory_scene_init
     000022F7  A$lcc2286839$76                    inventory_scene_init
     000022F7  C$inventory_scene_init.c$17$1_1$   inventory_scene_init
     000022FA  A$lcc2286839$77                    inventory_scene_init
     000022FB  A$lcc2286839$78                    inventory_scene_init
     000022FE  A$lcc2286839$79                    inventory_scene_init
     000022FF  A$lcc2286839$80                    inventory_scene_init
     00002302  A$lcc2286839$81                    inventory_scene_init
     00002304  A$lcc2286839$85                    inventory_scene_init
     00002304  C$inventory_scene_init.c$18$1_1$   inventory_scene_init
     00002307  A$lcc2286839$86                    inventory_scene_init
     00002308  A$lcc2286839$87                    inventory_scene_init
     0000230B  A$lcc2286839$88                    inventory_scene_init
     0000230C  A$lcc2286839$89                    inventory_scene_init
     0000230D  A$lcc2286839$90                    inventory_scene_init
     0000230E  A$lcc2286839$91                    inventory_scene_init
     0000230F  A$lcc2286839$92                    inventory_scene_init
     00002312  A$lcc2286839$93                    inventory_scene_init
     00002314  A$lcc2286839$97                    inventory_scene_init
     00002314  C$inventory_scene_init.c$20$1_1$   inventory_scene_init
     00002317  A$lcc2286839$98                    inventory_scene_init
     00002318  A$lcc2286839$99                    inventory_scene_init
     0000231B  A$lcc2286839$100                   inventory_scene_init
     0000231C  A$lcc2286839$101                   inventory_scene_init
     0000231F  A$lcc2286839$102                   inventory_scene_init
     00002321  A$lcc2286839$106                   inventory_scene_init
     00002321  C$inventory_scene_init.c$21$1_1$   inventory_scene_init
     00002323  A$lcc2286839$107                   inventory_scene_init
ASxxxx Linker V03.00/V05.40 + sdld,  page 54.
Hexadecimal  [32-Bits]

Area                                    Addr        Size        Decimal Bytes (Attributes)
--------------------------------        ----        ----        ------- ----- ------------
_CODE                               00000200    000029E6 =       10726. bytes (REL,CON)

      Value  Global                              Global Defined In Module
      -----  --------------------------------   ------------------------
     00002324  A$lcc2286839$108                   inventory_scene_init
     00002327  A$lcc2286839$109                   inventory_scene_init
     00002328  A$lcc2286839$110                   inventory_scene_init
     0000232B  A$lcc2286839$111                   inventory_scene_init
     0000232C  A$lcc2286839$112                   inventory_scene_init
     0000232F  A$lcc2286839$116                   inventory_scene_init
     00002331  A$lcc2286839$121                   inventory_scene_init
     00002331  C$inventory_scene_init.c$22$1_1$   inventory_scene_init
     00002331  XG$InventoryScene_Init$0$0         inventory_scene_init
     00002332  A$lcc2286840$57                    inventory_scene_update
     00002332  C$inventory_scene_update.c$6$0_0   inventory_scene_update
     00002332  C$inventory_scene_update.c$7$1_0   inventory_scene_update
     00002332  G$InventoryScene_Update$0$0        inventory_scene_update
     00002332  _InventoryScene_Update             inventory_scene_update
     00002335  A$lcc2286840$58                    inventory_scene_update
     00002338  A$lcc2286840$69                    inventory_scene_update
     00002338  C$inventory_scene_update.c$8$1_0   inventory_scene_update
     00002338  C$inventory_scene_update.c$9$1_0   inventory_scene_update
     00002338  XG$InventoryScene_Update$0$0       inventory_scene_update
     0000233B  A$lcc2286841$57                    clean_text
     0000233B  C$clean_text.c$6$0_0$133           clean_text
     0000233B  C$clean_text.c$8$1_0$133           clean_text
     0000233B  G$clean$0$0                        clean_text
     0000233B  _clean                             clean_text
     0000233E  A$lcc2286841$58                    clean_text
     00002340  A$lcc2286841$62                    clean_text
     00002340  C$clean_text.c$9$1_0$133           clean_text
     00002343  A$lcc2286841$63                    clean_text
     00002344  A$lcc2286841$64                    clean_text
     00002347  A$lcc2286841$65                    clean_text
     00002348  A$lcc2286841$66                    clean_text
     0000234B  A$lcc2286841$67                    clean_text
     0000234C  A$lcc2286841$68                    clean_text
     0000234F  A$lcc2286841$69                    clean_text
     00002351  A$lcc2286841$73                    clean_text
     00002351  C$clean_text.c$10$1_0$133          clean_text
     00002352  A$lcc2286841$74                    clean_text
     00002355  A$lcc2286841$75                    clean_text
     00002356  A$lcc2286841$76                    clean_text
     00002359  A$lcc2286841$77                    clean_text
     0000235A  A$lcc2286841$78                    clean_text
     0000235D  A$lcc2286841$79                    clean_text
     0000235F  A$lcc2286841$83                    clean_text
     0000235F  C$clean_text.c$12$2_0$133          clean_text
     00002361  A$lcc2286841$85                    clean_text
     00002363  A$lcc2286841$86                    clean_text
     00002364  A$lcc2286841$87                    clean_text
     00002365  A$lcc2286841$91                    clean_text
     00002365  C$clean_text.c$14$3_0$135          clean_text
     00002366  A$lcc2286841$92                    clean_text
     00002367  A$lcc2286841$93                    clean_text
ASxxxx Linker V03.00/V05.40 + sdld,  page 55.
Hexadecimal  [32-Bits]

Area                                    Addr        Size        Decimal Bytes (Attributes)
--------------------------------        ----        ----        ------- ----- ------------
_CODE                               00000200    000029E6 =       10726. bytes (REL,CON)

      Value  Global                              Global Defined In Module
      -----  --------------------------------   ------------------------
     00002368  A$lcc2286841$94                    clean_text
     0000236B  A$lcc2286841$95                    clean_text
     0000236C  A$lcc2286841$96                    clean_text
     0000236E  A$lcc2286841$97                    clean_text
     0000236F  A$lcc2286841$98                    clean_text
     00002370  A$lcc2286841$99                    clean_text
     00002371  A$lcc2286841$100                   clean_text
     00002372  A$lcc2286841$101                   clean_text
     00002375  A$lcc2286841$102                   clean_text
     00002377  A$lcc2286841$103                   clean_text
     00002378  A$lcc2286841$107                   clean_text
     00002378  C$clean_text.c$15$3_0$135          clean_text
     00002379  A$lcc2286841$108                   clean_text
     0000237A  A$lcc2286841$109                   clean_text
     0000237D  A$lcc2286841$110                   clean_text
     0000237E  A$lcc2286841$111                   clean_text
     00002380  A$lcc2286841$112                   clean_text
     00002381  A$lcc2286841$113                   clean_text
     00002382  A$lcc2286841$114                   clean_text
     00002383  A$lcc2286841$115                   clean_text
     00002384  A$lcc2286841$116                   clean_text
     00002387  A$lcc2286841$117                   clean_text
     00002389  A$lcc2286841$118                   clean_text
     0000238A  A$lcc2286841$122                   clean_text
     0000238A  C$clean_text.c$12$2_0$134          clean_text
     0000238B  A$lcc2286841$130                   clean_text
     0000238B  C$clean_text.c$17$2_0$133          clean_text
     0000238B  XG$clean$0$0                       clean_text
     0000238D  G$empty_tile$0_0$0                 clean_text
     0000238D  _empty_tile                        clean_text
     0000238E  A$lcc2286842$53                    map_collision
     0000238E  C$map_collision.c$12$0_0$135       map_collision
     0000238E  Fmap_collision$get_tile$0$0        map_collision
     00002390  A$lcc2286842$54                    map_collision
     00002392  A$lcc2286842$55                    map_collision
     00002393  A$lcc2286842$56                    map_collision
     00002394  A$lcc2286842$57                    map_collision
     00002395  A$lcc2286842$61                    map_collision
     00002395  C$map_collision.c$14$1_0$135       map_collision
     00002398  A$lcc2286842$62                    map_collision
     00002399  A$lcc2286842$63                    map_collision
     0000239A  A$lcc2286842$64                    map_collision
     0000239B  A$lcc2286842$65                    map_collision
     0000239C  A$lcc2286842$66                    map_collision
     0000239E  A$lcc2286842$67                    map_collision
     0000239F  A$lcc2286842$68                    map_collision
     000023A0  A$lcc2286842$69                    map_collision
     000023A1  A$lcc2286842$70                    map_collision
     000023A2  A$lcc2286842$71                    map_collision
     000023A4  A$lcc2286842$72                    map_collision
     000023A5  A$lcc2286842$73                    map_collision
ASxxxx Linker V03.00/V05.40 + sdld,  page 56.
Hexadecimal  [32-Bits]

Area                                    Addr        Size        Decimal Bytes (Attributes)
--------------------------------        ----        ----        ------- ----- ------------
_CODE                               00000200    000029E6 =       10726. bytes (REL,CON)

      Value  Global                              Global Defined In Module
      -----  --------------------------------   ------------------------
     000023A6  A$lcc2286842$74                    map_collision
     000023A7  A$lcc2286842$75                    map_collision
     000023A8  A$lcc2286842$76                    map_collision
     000023A9  A$lcc2286842$77                    map_collision
     000023AA  A$lcc2286842$78                    map_collision
     000023AB  A$lcc2286842$79                    map_collision
     000023AC  A$lcc2286842$80                    map_collision
     000023AD  A$lcc2286842$81                    map_collision
     000023AE  A$lcc2286842$82                    map_collision
     000023AF  A$lcc2286842$83                    map_collision
     000023B0  A$lcc2286842$84                    map_collision
     000023B2  A$lcc2286842$85                    map_collision
     000023B3  A$lcc2286842$86                    map_collision
     000023B4  A$lcc2286842$87                    map_collision
     000023B5  A$lcc2286842$88                    map_collision
     000023B6  A$lcc2286842$89                    map_collision
     000023B7  A$lcc2286842$90                    map_collision
     000023B8  A$lcc2286842$91                    map_collision
     000023B9  A$lcc2286842$92                    map_collision
     000023BA  A$lcc2286842$93                    map_collision
     000023BB  A$lcc2286842$94                    map_collision
     000023BC  A$lcc2286842$95                    map_collision
     000023BD  A$lcc2286842$96                    map_collision
     000023BE  A$lcc2286842$97                    map_collision
     000023BF  A$lcc2286842$98                    map_collision
     000023C0  A$lcc2286842$99                    map_collision
     000023C1  A$lcc2286842$100                   map_collision
     000023C2  A$lcc2286842$101                   map_collision
     000023C3  A$lcc2286842$105                   map_collision
     000023C3  C$map_collision.c$15$1_0$135       map_collision
     000023C5  A$lcc2286842$106                   map_collision
     000023C6  A$lcc2286842$107                   map_collision
     000023C7  A$lcc2286842$108                   map_collision
     000023C8  A$lcc2286842$118                   map_collision
     000023C8  C$map_collision.c$18$1_0$137       map_collision
     000023C8  G$Map_Collision$0$0                map_collision
     000023C8  _Map_Collision                     map_collision
     000023CA  A$lcc2286842$122                   map_collision
     000023CA  C$map_collision.c$20$1_0$137       map_collision
     000023CD  A$lcc2286842$123                   map_collision
     000023CE  A$lcc2286842$124                   map_collision
     000023CF  A$lcc2286842$125                   map_collision
     000023D0  A$lcc2286842$126                   map_collision
     000023D2  A$lcc2286842$127                   map_collision
     000023D3  A$lcc2286842$128                   map_collision
     000023D4  A$lcc2286842$132                   map_collision
     000023D4  C$map_collision.c$21$1_0$137       map_collision
     000023D5  A$lcc2286842$133                   map_collision
     000023D6  A$lcc2286842$134                   map_collision
     000023D7  A$lcc2286842$135                   map_collision
     000023D8  A$lcc2286842$136                   map_collision
ASxxxx Linker V03.00/V05.40 + sdld,  page 57.
Hexadecimal  [32-Bits]

Area                                    Addr        Size        Decimal Bytes (Attributes)
--------------------------------        ----        ----        ------- ----- ------------
_CODE                               00000200    000029E6 =       10726. bytes (REL,CON)

      Value  Global                              Global Defined In Module
      -----  --------------------------------   ------------------------
     000023D9  A$lcc2286842$137                   map_collision
     000023DA  A$lcc2286842$141                   map_collision
     000023DA  C$map_collision.c$29$1_0$137       map_collision
     000023DD  A$lcc2286842$142                   map_collision
     000023DF  A$lcc2286842$143                   map_collision
     000023E0  A$lcc2286842$144                   map_collision
     000023E1  A$lcc2286842$145                   map_collision
     000023E3  A$lcc2286842$146                   map_collision
     000023E4  A$lcc2286842$147                   map_collision
     000023E6  A$lcc2286842$148                   map_collision
     000023E8  A$lcc2286842$149                   map_collision
     000023E9  A$lcc2286842$153                   map_collision
     000023E9  C$map_collision.c$30$1_0$137       map_collision
     000023EC  A$lcc2286842$154                   map_collision
     000023EE  A$lcc2286842$155                   map_collision
     000023EF  A$lcc2286842$156                   map_collision
     000023F0  A$lcc2286842$157                   map_collision
     000023F2  A$lcc2286842$158                   map_collision
     000023F3  A$lcc2286842$159                   map_collision
     000023F5  A$lcc2286842$160                   map_collision
     000023F6  A$lcc2286842$164                   map_collision
     000023F6  C$map_collision.c$34$1_0$137       map_collision
     000023F8  A$lcc2286842$165                   map_collision
     000023F9  A$lcc2286842$166                   map_collision
     000023FA  A$lcc2286842$167                   map_collision
     000023FC  A$lcc2286842$171                   map_collision
     000023FC  C$map_collision.c$64$1_0$137       map_collision
     000023FD  A$lcc2286842$172                   map_collision
     000023FE  A$lcc2286842$173                   map_collision
     00002401  A$lcc2286842$174                   map_collision
     00002402  A$lcc2286842$175                   map_collision
     00002403  A$lcc2286842$176                   map_collision
     00002404  A$lcc2286842$177                   map_collision
     00002406  A$lcc2286842$178                   map_collision
     00002407  A$lcc2286842$179                   map_collision
     00002408  A$lcc2286842$180                   map_collision
     00002409  A$lcc2286842$181                   map_collision
     0000240B  A$lcc2286842$182                   map_collision
     0000240C  A$lcc2286842$183                   map_collision
     0000240D  A$lcc2286842$184                   map_collision
     0000240E  A$lcc2286842$185                   map_collision
     0000240F  A$lcc2286842$186                   map_collision
     00002410  A$lcc2286842$187                   map_collision
     00002412  A$lcc2286842$188                   map_collision
     00002413  A$lcc2286842$189                   map_collision
     00002414  A$lcc2286842$190                   map_collision
     00002415  A$lcc2286842$191                   map_collision
     00002416  A$lcc2286842$192                   map_collision
     00002418  A$lcc2286842$193                   map_collision
     00002419  A$lcc2286842$194                   map_collision
     0000241A  A$lcc2286842$195                   map_collision
ASxxxx Linker V03.00/V05.40 + sdld,  page 58.
Hexadecimal  [32-Bits]

Area                                    Addr        Size        Decimal Bytes (Attributes)
--------------------------------        ----        ----        ------- ----- ------------
_CODE                               00000200    000029E6 =       10726. bytes (REL,CON)

      Value  Global                              Global Defined In Module
      -----  --------------------------------   ------------------------
     0000241B  A$lcc2286842$196                   map_collision
     0000241C  A$lcc2286842$197                   map_collision
     0000241D  A$lcc2286842$198                   map_collision
     0000241E  A$lcc2286842$199                   map_collision
     0000241F  A$lcc2286842$200                   map_collision
     00002420  A$lcc2286842$201                   map_collision
     00002421  A$lcc2286842$202                   map_collision
     00002423  A$lcc2286842$203                   map_collision
     00002424  A$lcc2286842$204                   map_collision
     00002425  A$lcc2286842$205                   map_collision
     00002426  A$lcc2286842$206                   map_collision
     00002428  A$lcc2286842$207                   map_collision
     00002429  A$lcc2286842$208                   map_collision
     0000242A  A$lcc2286842$209                   map_collision
     0000242B  A$lcc2286842$210                   map_collision
     0000242C  A$lcc2286842$211                   map_collision
     0000242D  A$lcc2286842$212                   map_collision
     0000242E  A$lcc2286842$213                   map_collision
     0000242F  A$lcc2286842$214                   map_collision
     00002430  A$lcc2286842$215                   map_collision
     00002431  A$lcc2286842$216                   map_collision
     00002432  A$lcc2286842$217                   map_collision
     00002433  A$lcc2286842$218                   map_collision
     00002435  A$lcc2286842$219                   map_collision
     00002436  A$lcc2286842$220                   map_collision
     00002438  A$lcc2286842$221                   map_collision
     00002439  A$lcc2286842$222                   map_collision
     0000243A  A$lcc2286842$223                   map_collision
     0000243B  A$lcc2286842$224                   map_collision
     0000243D  A$lcc2286842$225                   map_collision
     0000243E  A$lcc2286842$226                   map_collision
     0000243F  A$lcc2286842$227                   map_collision
     00002440  A$lcc2286842$228                   map_collision
     00002442  A$lcc2286842$229                   map_collision
     00002444  A$lcc2286842$230                   map_collision
     00002445  A$lcc2286842$232                   map_collision
     00002447  A$lcc2286842$233                   map_collision
     0000244A  A$lcc2286842$237                   map_collision
     0000244A  C$map_collision.c$65$1_0$137       map_collision
     0000244C  A$lcc2286842$238                   map_collision
     0000244D  A$lcc2286842$239                   map_collision
     0000244E  A$lcc2286842$240                   map_collision
     0000244F  A$lcc2286842$241                   map_collision
     00002450  A$lcc2286842$242                   map_collision
     00002451  A$lcc2286842$243                   map_collision
     00002452  A$lcc2286842$244                   map_collision
     00002453  A$lcc2286842$245                   map_collision
     00002454  A$lcc2286842$246                   map_collision
     00002455  A$lcc2286842$247                   map_collision
     00002456  A$lcc2286842$248                   map_collision
     00002457  A$lcc2286842$249                   map_collision
ASxxxx Linker V03.00/V05.40 + sdld,  page 59.
Hexadecimal  [32-Bits]

Area                                    Addr        Size        Decimal Bytes (Attributes)
--------------------------------        ----        ----        ------- ----- ------------
_CODE                               00000200    000029E6 =       10726. bytes (REL,CON)

      Value  Global                              Global Defined In Module
      -----  --------------------------------   ------------------------
     00002458  A$lcc2286842$250                   map_collision
     00002459  A$lcc2286842$251                   map_collision
     0000245A  A$lcc2286842$252                   map_collision
     0000245B  A$lcc2286842$253                   map_collision
     0000245D  A$lcc2286842$254                   map_collision
     0000245E  A$lcc2286842$255                   map_collision
     0000245F  A$lcc2286842$256                   map_collision
     00002460  A$lcc2286842$257                   map_collision
     00002462  A$lcc2286842$258                   map_collision
     00002463  A$lcc2286842$259                   map_collision
     00002464  A$lcc2286842$260                   map_collision
     00002465  A$lcc2286842$261                   map_collision
     00002467  A$lcc2286842$262                   map_collision
     00002469  A$lcc2286842$263                   map_collision
     0000246A  A$lcc2286842$265                   map_collision
     0000246C  A$lcc2286842$266                   map_collision
     0000246F  A$lcc2286842$270                   map_collision
     0000246F  C$map_collision.c$66$1_0$137       map_collision
     00002471  A$lcc2286842$271                   map_collision
     00002472  A$lcc2286842$272                   map_collision
     00002473  A$lcc2286842$273                   map_collision
     00002474  A$lcc2286842$274                   map_collision
     00002475  A$lcc2286842$275                   map_collision
     00002477  A$lcc2286842$276                   map_collision
     00002478  A$lcc2286842$277                   map_collision
     00002479  A$lcc2286842$278                   map_collision
     0000247A  A$lcc2286842$279                   map_collision
     0000247B  A$lcc2286842$280                   map_collision
     0000247D  A$lcc2286842$281                   map_collision
     0000247E  A$lcc2286842$282                   map_collision
     0000247F  A$lcc2286842$283                   map_collision
     00002480  A$lcc2286842$284                   map_collision
     00002481  A$lcc2286842$285                   map_collision
     00002482  A$lcc2286842$286                   map_collision
     00002483  A$lcc2286842$287                   map_collision
     00002484  A$lcc2286842$288                   map_collision
     00002485  A$lcc2286842$289                   map_collision
     00002486  A$lcc2286842$290                   map_collision
     00002487  A$lcc2286842$291                   map_collision
     00002488  A$lcc2286842$292                   map_collision
     00002489  A$lcc2286842$293                   map_collision
     0000248A  A$lcc2286842$294                   map_collision
     0000248C  A$lcc2286842$295                   map_collision
     0000248D  A$lcc2286842$296                   map_collision
     0000248E  A$lcc2286842$297                   map_collision
     0000248F  A$lcc2286842$298                   map_collision
     00002490  A$lcc2286842$299                   map_collision
     00002491  A$lcc2286842$300                   map_collision
     00002492  A$lcc2286842$301                   map_collision
     00002494  A$lcc2286842$302                   map_collision
     00002495  A$lcc2286842$303                   map_collision
ASxxxx Linker V03.00/V05.40 + sdld,  page 60.
Hexadecimal  [32-Bits]

Area                                    Addr        Size        Decimal Bytes (Attributes)
--------------------------------        ----        ----        ------- ----- ------------
_CODE                               00000200    000029E6 =       10726. bytes (REL,CON)

      Value  Global                              Global Defined In Module
      -----  --------------------------------   ------------------------
     00002497  A$lcc2286842$304                   map_collision
     00002498  A$lcc2286842$305                   map_collision
     00002499  A$lcc2286842$306                   map_collision
     0000249A  A$lcc2286842$307                   map_collision
     0000249B  A$lcc2286842$308                   map_collision
     0000249C  A$lcc2286842$309                   map_collision
     0000249E  A$lcc2286842$310                   map_collision
     000024A0  A$lcc2286842$311                   map_collision
     000024A1  A$lcc2286842$313                   map_collision
     000024A3  A$lcc2286842$314                   map_collision
     000024A6  A$lcc2286842$318                   map_collision
     000024A6  C$map_collision.c$67$1_0$137       map_collision
     000024A8  A$lcc2286842$319                   map_collision
     000024A9  A$lcc2286842$320                   map_collision
     000024AA  A$lcc2286842$321                   map_collision
     000024AB  A$lcc2286842$322                   map_collision
     000024AC  A$lcc2286842$323                   map_collision
     000024AD  A$lcc2286842$324                   map_collision
     000024AE  A$lcc2286842$325                   map_collision
     000024AF  A$lcc2286842$326                   map_collision
     000024B0  A$lcc2286842$327                   map_collision
     000024B2  A$lcc2286842$328                   map_collision
     000024B3  A$lcc2286842$329                   map_collision
     000024B5  A$lcc2286842$330                   map_collision
     000024B6  A$lcc2286842$331                   map_collision
     000024B7  A$lcc2286842$332                   map_collision
     000024B8  A$lcc2286842$333                   map_collision
     000024B9  A$lcc2286842$334                   map_collision
     000024BA  A$lcc2286842$335                   map_collision
     000024BB  A$lcc2286842$336                   map_collision
     000024BC  A$lcc2286842$337                   map_collision
     000024BD  A$lcc2286842$338                   map_collision
     000024BE  A$lcc2286842$339                   map_collision
     000024BF  A$lcc2286842$340                   map_collision
     000024C0  A$lcc2286842$341                   map_collision
     000024C1  A$lcc2286842$342                   map_collision
     000024C3  A$lcc2286842$343                   map_collision
     000024C4  A$lcc2286842$344                   map_collision
     000024C6  A$lcc2286842$345                   map_collision
     000024C7  A$lcc2286842$346                   map_collision
     000024C8  A$lcc2286842$347                   map_collision
     000024C9  A$lcc2286842$348                   map_collision
     000024CA  A$lcc2286842$349                   map_collision
     000024CB  A$lcc2286842$350                   map_collision
     000024CD  A$lcc2286842$351                   map_collision
     000024CF  A$lcc2286842$352                   map_collision
     000024D0  A$lcc2286842$354                   map_collision
     000024D2  A$lcc2286842$355                   map_collision
     000024D5  A$lcc2286842$359                   map_collision
     000024D5  C$map_collision.c$86$2_0$142       map_collision
     000024D7  A$lcc2286842$360                   map_collision
ASxxxx Linker V03.00/V05.40 + sdld,  page 61.
Hexadecimal  [32-Bits]

Area                                    Addr        Size        Decimal Bytes (Attributes)
--------------------------------        ----        ----        ------- ----- ------------
_CODE                               00000200    000029E6 =       10726. bytes (REL,CON)

      Value  Global                              Global Defined In Module
      -----  --------------------------------   ------------------------
     000024D8  A$lcc2286842$361                   map_collision
     000024D9  A$lcc2286842$362                   map_collision
     000024DA  A$lcc2286842$363                   map_collision
     000024DB  A$lcc2286842$364                   map_collision
     000024DC  A$lcc2286842$365                   map_collision
     000024DD  A$lcc2286842$366                   map_collision
     000024DE  A$lcc2286842$367                   map_collision
     000024DF  A$lcc2286842$368                   map_collision
     000024E0  A$lcc2286842$369                   map_collision
     000024E1  A$lcc2286842$370                   map_collision
     000024E2  A$lcc2286842$371                   map_collision
     000024E3  A$lcc2286842$372                   map_collision
     000024E4  A$lcc2286842$373                   map_collision
     000024E5  A$lcc2286842$374                   map_collision
     000024E6  A$lcc2286842$375                   map_collision
     000024E8  A$lcc2286842$376                   map_collision
     000024E9  A$lcc2286842$377                   map_collision
     000024EB  A$lcc2286842$378                   map_collision
     000024EC  A$lcc2286842$379                   map_collision
     000024ED  A$lcc2286842$380                   map_collision
     000024EE  A$lcc2286842$381                   map_collision
     000024EF  A$lcc2286842$382                   map_collision
     000024F0  A$lcc2286842$383                   map_collision
     000024F2  A$lcc2286842$384                   map_collision
     000024F4  A$lcc2286842$385                   map_collision
     000024F5  A$lcc2286842$387                   map_collision
     000024F6  A$lcc2286842$388                   map_collision
     000024F9  A$lcc2286842$389                   map_collision
     000024FA  A$lcc2286842$390                   map_collision
     000024FC  A$lcc2286842$391                   map_collision
     000024FE  A$lcc2286842$392                   map_collision
     000024FF  A$lcc2286842$394                   map_collision
     00002500  A$lcc2286842$395                   map_collision
     00002502  A$lcc2286842$399                   map_collision
     00002502  C$map_collision.c$87$3_0$143       map_collision
     00002505  A$lcc2286842$404                   map_collision
     00002505  C$map_collision.c$90$2_0$144       map_collision
     00002507  A$lcc2286842$405                   map_collision
     00002508  A$lcc2286842$406                   map_collision
     00002509  A$lcc2286842$407                   map_collision
     0000250A  A$lcc2286842$408                   map_collision
     0000250B  A$lcc2286842$409                   map_collision
     0000250C  A$lcc2286842$410                   map_collision
     0000250D  A$lcc2286842$411                   map_collision
     0000250E  A$lcc2286842$412                   map_collision
     0000250F  A$lcc2286842$413                   map_collision
     00002510  A$lcc2286842$414                   map_collision
     00002511  A$lcc2286842$415                   map_collision
     00002512  A$lcc2286842$416                   map_collision
     00002513  A$lcc2286842$417                   map_collision
     00002514  A$lcc2286842$418                   map_collision
ASxxxx Linker V03.00/V05.40 + sdld,  page 62.
Hexadecimal  [32-Bits]

Area                                    Addr        Size        Decimal Bytes (Attributes)
--------------------------------        ----        ----        ------- ----- ------------
_CODE                               00000200    000029E6 =       10726. bytes (REL,CON)

      Value  Global                              Global Defined In Module
      -----  --------------------------------   ------------------------
     00002515  A$lcc2286842$419                   map_collision
     00002516  A$lcc2286842$420                   map_collision
     00002518  A$lcc2286842$421                   map_collision
     00002519  A$lcc2286842$422                   map_collision
     0000251B  A$lcc2286842$423                   map_collision
     0000251C  A$lcc2286842$424                   map_collision
     0000251D  A$lcc2286842$425                   map_collision
     0000251E  A$lcc2286842$426                   map_collision
     0000251F  A$lcc2286842$427                   map_collision
     00002520  A$lcc2286842$428                   map_collision
     00002522  A$lcc2286842$435                   map_collision
     00002522  C$map_collision.c$92$3_0$145       map_collision
     00002522  C$map_collision.c$93$3_0$145       map_collision
     00002523  A$lcc2286842$436                   map_collision
     00002524  A$lcc2286842$437                   map_collision
     00002525  A$lcc2286842$441                   map_collision
     00002525  C$map_collision.c$95$4_0$146       map_collision
     00002526  A$lcc2286842$442                   map_collision
     00002527  A$lcc2286842$443                   map_collision
     0000252A  A$lcc2286842$444                   map_collision
     0000252B  A$lcc2286842$445                   map_collision
     0000252C  A$lcc2286842$446                   map_collision
     0000252D  A$lcc2286842$447                   map_collision
     0000252E  A$lcc2286842$448                   map_collision
     0000252F  A$lcc2286842$449                   map_collision
     00002530  A$lcc2286842$450                   map_collision
     00002531  A$lcc2286842$451                   map_collision
     00002533  A$lcc2286842$452                   map_collision
     00002535  A$lcc2286842$456                   map_collision
     00002535  C$map_collision.c$96$4_0$146       map_collision
     00002537  A$lcc2286842$460                   map_collision
     00002537  C$map_collision.c$98$4_0$147       map_collision
     00002538  A$lcc2286842$461                   map_collision
     00002539  A$lcc2286842$462                   map_collision
     0000253C  A$lcc2286842$463                   map_collision
     0000253D  A$lcc2286842$464                   map_collision
     0000253E  A$lcc2286842$465                   map_collision
     0000253F  A$lcc2286842$466                   map_collision
     00002540  A$lcc2286842$467                   map_collision
     00002541  A$lcc2286842$468                   map_collision
     00002542  A$lcc2286842$469                   map_collision
     00002544  A$lcc2286842$470                   map_collision
     00002545  A$lcc2286842$471                   map_collision
     00002546  A$lcc2286842$472                   map_collision
     00002547  A$lcc2286842$473                   map_collision
     00002548  A$lcc2286842$474                   map_collision
     00002549  A$lcc2286842$475                   map_collision
     0000254A  A$lcc2286842$479                   map_collision
     0000254A  C$map_collision.c$99$4_0$147       map_collision
     0000254C  A$lcc2286842$483                   map_collision
     0000254C  C$map_collision.c$101$3_0$145      map_collision
ASxxxx Linker V03.00/V05.40 + sdld,  page 63.
Hexadecimal  [32-Bits]

Area                                    Addr        Size        Decimal Bytes (Attributes)
--------------------------------        ----        ----        ------- ----- ------------
_CODE                               00000200    000029E6 =       10726. bytes (REL,CON)

      Value  Global                              Global Defined In Module
      -----  --------------------------------   ------------------------
     0000254D  A$lcc2286842$484                   map_collision
     0000254E  A$lcc2286842$485                   map_collision
     00002551  A$lcc2286842$490                   map_collision
     00002553  A$lcc2286842$495                   map_collision
     00002553  C$map_collision.c$103$2_0$137      map_collision
     00002553  XG$Map_Collision$0$0               map_collision
     00002554  A$lcc2286844$61                    map_00
     00002554  C$map_00.c$6$0_0$32                map_00
     00002554  C$map_00.c$7$1_0$32                map_00
     00002554  G$Map_00_Create$0$0                map_00
     00002554  _Map_00_Create                     map_00
     00002557  A$lcc2286844$62                    map_00
     00002559  A$lcc2286844$63                    map_00
     0000255A  A$lcc2286844$64                    map_00
     0000255C  A$lcc2286844$68                    map_00
     0000255C  C$map_00.c$8$1_0$32                map_00
     0000255D  A$lcc2286844$69                    map_00
     0000255F  A$lcc2286844$70                    map_00
     00002560  A$lcc2286844$71                    map_00
     00002562  A$lcc2286844$75                    map_00
     00002562  C$map_00.c$10$1_0$32               map_00
     00002565  A$lcc2286844$76                    map_00
     00002566  A$lcc2286844$77                    map_00
     00002567  A$lcc2286844$78                    map_00
     00002568  A$lcc2286844$86                    map_00
     00002568  C$map_00.c$11$1_0$32               map_00
     00002568  XG$Map_00_Create$0$0               map_00
     00002569  G$map_00_example_collision$0_0$0   map_00_collision
     00002569  _map_00_example_collision          map_00_collision
     000026D1  A$lcc2286846$57                    map_00_init
     000026D1  C$map_00_init.c$14$0_0$164         map_00_init
     000026D1  G$hello_event$0$0                  map_00_init
     000026D1  _hello_event                       map_00_init
     000026D3  A$lcc2286846$61                    map_00_init
     000026D3  C$map_00_init.c$16$2_0$165         map_00_init
     000026D6  A$lcc2286846$62                    map_00_init
     000026D7  A$lcc2286846$63                    map_00_init
     000026D8  A$lcc2286846$64                    map_00_init
     000026DA  A$lcc2286846$71                    map_00_init
     000026DA  C$map_00_init.c$17$2_0$165         map_00_init
     000026DA  C$map_00_init.c$19$1_0$164         map_00_init
     000026DC  A$lcc2286846$72                    map_00_init
     000026DD  A$lcc2286846$76                    map_00_init
     000026DD  C$map_00_init.c$20$2_0$167         map_00_init
     000026DF  A$lcc2286846$77                    map_00_init
     000026E1  A$lcc2286846$78                    map_00_init
     000026E2  A$lcc2286846$79                    map_00_init
     000026E4  A$lcc2286846$80                    map_00_init
     000026E5  A$lcc2286846$81                    map_00_init
     000026E7  A$lcc2286846$82                    map_00_init
     000026E8  A$lcc2286846$83                    map_00_init
ASxxxx Linker V03.00/V05.40 + sdld,  page 64.
Hexadecimal  [32-Bits]

Area                                    Addr        Size        Decimal Bytes (Attributes)
--------------------------------        ----        ----        ------- ----- ------------
_CODE                               00000200    000029E6 =       10726. bytes (REL,CON)

      Value  Global                              Global Defined In Module
      -----  --------------------------------   ------------------------
     000026E9  A$lcc2286846$84                    map_00_init
     000026EB  A$lcc2286846$85                    map_00_init
     000026EC  A$lcc2286846$86                    map_00_init
     000026EE  A$lcc2286846$87                    map_00_init
     000026EF  A$lcc2286846$88                    map_00_init
     000026F1  A$lcc2286846$89                    map_00_init
     000026F2  A$lcc2286846$90                    map_00_init
     000026F4  A$lcc2286846$91                    map_00_init
     000026F5  A$lcc2286846$92                    map_00_init
     000026F7  A$lcc2286846$93                    map_00_init
     000026F8  A$lcc2286846$94                    map_00_init
     000026FA  A$lcc2286846$95                    map_00_init
     000026FB  A$lcc2286846$96                    map_00_init
     000026FD  A$lcc2286846$97                    map_00_init
     000026FE  A$lcc2286846$98                    map_00_init
     00002700  A$lcc2286846$99                    map_00_init
     00002701  A$lcc2286846$100                   map_00_init
     00002703  A$lcc2286846$101                   map_00_init
     00002704  A$lcc2286846$105                   map_00_init
     00002704  C$map_00_init.c$21$2_1$164         map_00_init
     00002707  A$lcc2286846$106                   map_00_init
     00002708  A$lcc2286846$108                   map_00_init
     0000270B  A$lcc2286846$109                   map_00_init
     0000270C  A$lcc2286846$110                   map_00_init
     0000270D  A$lcc2286846$111                   map_00_init
     0000270E  A$lcc2286846$112                   map_00_init
     0000270F  A$lcc2286846$113                   map_00_init
     00002711  A$lcc2286846$117                   map_00_init
     00002711  C$map_00_init.c$23$3_1$168         map_00_init
     00002712  A$lcc2286846$118                   map_00_init
     00002715  A$lcc2286846$119                   map_00_init
     00002716  A$lcc2286846$120                   map_00_init
     00002717  A$lcc2286846$121                   map_00_init
     00002718  A$lcc2286846$122                   map_00_init
     0000271A  A$lcc2286846$126                   map_00_init
     0000271A  C$map_00_init.c$24$3_1$168         map_00_init
     0000271C  A$lcc2286846$127                   map_00_init
     0000271D  A$lcc2286846$128                   map_00_init
     0000271E  A$lcc2286846$129                   map_00_init
     0000271F  A$lcc2286846$130                   map_00_init
     00002720  A$lcc2286846$131                   map_00_init
     00002721  A$lcc2286846$132                   map_00_init
     00002722  A$lcc2286846$133                   map_00_init
     00002724  A$lcc2286846$134                   map_00_init
     00002725  A$lcc2286846$135                   map_00_init
     00002726  A$lcc2286846$136                   map_00_init
     00002728  A$lcc2286846$137                   map_00_init
     00002729  A$lcc2286846$138                   map_00_init
     0000272A  A$lcc2286846$139                   map_00_init
     0000272C  A$lcc2286846$140                   map_00_init
     0000272D  A$lcc2286846$141                   map_00_init
ASxxxx Linker V03.00/V05.40 + sdld,  page 65.
Hexadecimal  [32-Bits]

Area                                    Addr        Size        Decimal Bytes (Attributes)
--------------------------------        ----        ----        ------- ----- ------------
_CODE                               00000200    000029E6 =       10726. bytes (REL,CON)

      Value  Global                              Global Defined In Module
      -----  --------------------------------   ------------------------
     0000272E  A$lcc2286846$142                   map_00_init
     0000272F  A$lcc2286846$143                   map_00_init
     00002730  A$lcc2286846$144                   map_00_init
     00002733  A$lcc2286846$145                   map_00_init
     00002735  A$lcc2286846$149                   map_00_init
     00002735  C$map_00_init.c$21$2_1$167         map_00_init
     00002736  A$lcc2286846$150                   map_00_init
     00002738  A$lcc2286846$155                   map_00_init
     0000273A  A$lcc2286846$160                   map_00_init
     0000273A  C$map_00_init.c$26$2_1$164         map_00_init
     0000273A  XG$hello_event$0$0                 map_00_init
     0000273B  A$lcc2286846$170                   map_00_init
     0000273B  C$map_00_init.c$28$2_1$170         map_00_init
     0000273B  G$Map_00_Init$0$0                  map_00_init
     0000273B  _Map_00_Init                       map_00_init
     0000273C  A$lcc2286846$171                   map_00_init
     0000273D  A$lcc2286846$172                   map_00_init
     0000273E  A$lcc2286846$176                   map_00_init
     0000273E  C$map_00_init.c$30$1_0$170         map_00_init
     00002741  A$lcc2286846$177                   map_00_init
     00002743  A$lcc2286846$178                   map_00_init
     00002744  A$lcc2286846$179                   map_00_init
     00002746  A$lcc2286846$180                   map_00_init
     00002748  A$lcc2286846$181                   map_00_init
     00002749  A$lcc2286846$182                   map_00_init
     0000274C  A$lcc2286846$183                   map_00_init
     0000274D  A$lcc2286846$187                   map_00_init
     0000274D  C$map_00_init.c$31$1_0$170         map_00_init
     00002750  A$lcc2286846$188                   map_00_init
     00002751  A$lcc2286846$192                   map_00_init
     00002751  C$map_00_init.c$32$1_0$170         map_00_init
     00002754  A$lcc2286846$193                   map_00_init
     00002756  A$lcc2286846$194                   map_00_init
     00002757  A$lcc2286846$195                   map_00_init
     00002759  A$lcc2286846$199                   map_00_init
     00002759  C$map_00_init.c$33$1_0$170         map_00_init
     0000275C  A$lcc2286846$200                   map_00_init
     0000275E  A$lcc2286846$204                   map_00_init
     0000275E  C$map_00_init.c$34$1_0$170         map_00_init
     0000275F  A$lcc2286846$205                   map_00_init
     00002760  A$lcc2286846$206                   map_00_init
     00002762  A$lcc2286846$210                   map_00_init
     00002762  C$map_00_init.c$36$1_0$170         map_00_init
     00002765  A$lcc2286846$211                   map_00_init
     00002767  A$lcc2286846$215                   map_00_init
     00002767  C$map_00_init.c$37$1_0$170         map_00_init
     0000276A  A$lcc2286846$216                   map_00_init
     0000276C  A$lcc2286846$217                   map_00_init
     0000276D  A$lcc2286846$218                   map_00_init
     0000276F  A$lcc2286846$222                   map_00_init
     0000276F  C$map_00_init.c$38$1_0$170         map_00_init
ASxxxx Linker V03.00/V05.40 + sdld,  page 66.
Hexadecimal  [32-Bits]

Area                                    Addr        Size        Decimal Bytes (Attributes)
--------------------------------        ----        ----        ------- ----- ------------
_CODE                               00000200    000029E6 =       10726. bytes (REL,CON)

      Value  Global                              Global Defined In Module
      -----  --------------------------------   ------------------------
     00002772  A$lcc2286846$223                   map_00_init
     00002774  A$lcc2286846$227                   map_00_init
     00002774  C$map_00_init.c$40$1_0$170         map_00_init
     00002777  A$lcc2286846$228                   map_00_init
     00002778  A$lcc2286846$229                   map_00_init
     0000277A  A$lcc2286846$230                   map_00_init
     0000277B  A$lcc2286846$231                   map_00_init
     0000277D  A$lcc2286846$235                   map_00_init
     0000277D  C$map_00_init.c$41$1_0$170         map_00_init
     0000277E  A$lcc2286846$236                   map_00_init
     0000277F  A$lcc2286846$237                   map_00_init
     00002782  A$lcc2286846$241                   map_00_init
     00002782  C$map_00_init.c$43$1_0$170         map_00_init
     00002785  A$lcc2286846$242                   map_00_init
     00002786  A$lcc2286846$243                   map_00_init
     00002789  A$lcc2286846$244                   map_00_init
     0000278A  A$lcc2286846$245                   map_00_init
     0000278D  A$lcc2286846$246                   map_00_init
     0000278F  A$lcc2286846$250                   map_00_init
     0000278F  C$map_00_init.c$44$1_0$170         map_00_init
     00002792  A$lcc2286846$251                   map_00_init
     00002793  A$lcc2286846$252                   map_00_init
     00002796  A$lcc2286846$253                   map_00_init
     00002797  A$lcc2286846$254                   map_00_init
     00002798  A$lcc2286846$255                   map_00_init
     00002799  A$lcc2286846$256                   map_00_init
     0000279A  A$lcc2286846$257                   map_00_init
     0000279D  A$lcc2286846$258                   map_00_init
     0000279F  A$lcc2286846$266                   map_00_init
     0000279F  C$map_00_init.c$45$1_0$170         map_00_init
     0000279F  XG$Map_00_Init$0$0                 map_00_init
     000027A0  A$lcc2286847$53                    map_00_init_npc
     000027A0  C$map_00_init_npc.c$10$0_0$163     map_00_init_npc
     000027A0  G$Map_00_NPC_Init$0$0              map_00_init_npc
     000027A0  _Map_00_NPC_Init                   map_00_init_npc
     000027A2  A$lcc2286847$57                    map_00_init_npc
     000027A2  C$map_00_init_npc.c$11$1_0$163     map_00_init_npc
     000027A5  A$lcc2286847$58                    map_00_init_npc
     000027A6  A$lcc2286847$59                    map_00_init_npc
     000027A8  A$lcc2286847$60                    map_00_init_npc
     000027AB  A$lcc2286847$61                    map_00_init_npc
     000027AC  A$lcc2286847$62                    map_00_init_npc
     000027AE  A$lcc2286847$66                    map_00_init_npc
     000027AE  C$map_00_init_npc.c$12$1_0$163     map_00_init_npc
     000027B1  A$lcc2286847$67                    map_00_init_npc
     000027B4  A$lcc2286847$68                    map_00_init_npc
     000027B5  A$lcc2286847$69                    map_00_init_npc
     000027B7  A$lcc2286847$70                    map_00_init_npc
     000027B8  A$lcc2286847$71                    map_00_init_npc
     000027BA  A$lcc2286847$75                    map_00_init_npc
     000027BA  C$map_00_init_npc.c$14$1_0$163     map_00_init_npc
ASxxxx Linker V03.00/V05.40 + sdld,  page 67.
Hexadecimal  [32-Bits]

Area                                    Addr        Size        Decimal Bytes (Attributes)
--------------------------------        ----        ----        ------- ----- ------------
_CODE                               00000200    000029E6 =       10726. bytes (REL,CON)

      Value  Global                              Global Defined In Module
      -----  --------------------------------   ------------------------
     000027BD  A$lcc2286847$76                    map_00_init_npc
     000027C0  A$lcc2286847$77                    map_00_init_npc
     000027C1  A$lcc2286847$78                    map_00_init_npc
     000027C2  A$lcc2286847$79                    map_00_init_npc
     000027C4  A$lcc2286847$80                    map_00_init_npc
     000027C5  A$lcc2286847$81                    map_00_init_npc
     000027C8  A$lcc2286847$82                    map_00_init_npc
     000027CA  A$lcc2286847$83                    map_00_init_npc
     000027CB  A$lcc2286847$84                    map_00_init_npc
     000027CD  A$lcc2286847$85                    map_00_init_npc
     000027CF  A$lcc2286847$86                    map_00_init_npc
     000027D0  A$lcc2286847$87                    map_00_init_npc
     000027D1  A$lcc2286847$88                    map_00_init_npc
     000027D2  A$lcc2286847$89                    map_00_init_npc
     000027D3  A$lcc2286847$90                    map_00_init_npc
     000027D4  A$lcc2286847$91                    map_00_init_npc
     000027D5  A$lcc2286847$95                    map_00_init_npc
     000027D5  C$map_00_init_npc.c$15$1_0$163     map_00_init_npc
     000027D8  A$lcc2286847$96                    map_00_init_npc
     000027D9  A$lcc2286847$97                    map_00_init_npc
     000027DA  A$lcc2286847$98                    map_00_init_npc
     000027DC  A$lcc2286847$99                    map_00_init_npc
     000027DD  A$lcc2286847$100                   map_00_init_npc
     000027DF  A$lcc2286847$101                   map_00_init_npc
     000027E1  A$lcc2286847$102                   map_00_init_npc
     000027E2  A$lcc2286847$103                   map_00_init_npc
     000027E3  A$lcc2286847$104                   map_00_init_npc
     000027E5  A$lcc2286847$105                   map_00_init_npc
     000027E6  A$lcc2286847$106                   map_00_init_npc
     000027E7  A$lcc2286847$107                   map_00_init_npc
     000027E8  A$lcc2286847$108                   map_00_init_npc
     000027E9  A$lcc2286847$109                   map_00_init_npc
     000027EA  A$lcc2286847$110                   map_00_init_npc
     000027EB  A$lcc2286847$111                   map_00_init_npc
     000027EC  A$lcc2286847$115                   map_00_init_npc
     000027EC  C$map_00_init_npc.c$17$1_0$163     map_00_init_npc
     000027EF  A$lcc2286847$116                   map_00_init_npc
     000027F0  A$lcc2286847$117                   map_00_init_npc
     000027F2  A$lcc2286847$118                   map_00_init_npc
     000027F5  A$lcc2286847$119                   map_00_init_npc
     000027F6  A$lcc2286847$120                   map_00_init_npc
     000027F8  A$lcc2286847$124                   map_00_init_npc
     000027F8  C$map_00_init_npc.c$18$1_0$163     map_00_init_npc
     000027FB  A$lcc2286847$125                   map_00_init_npc
     000027FE  A$lcc2286847$126                   map_00_init_npc
     000027FF  A$lcc2286847$127                   map_00_init_npc
     00002801  A$lcc2286847$128                   map_00_init_npc
     00002802  A$lcc2286847$129                   map_00_init_npc
     00002804  A$lcc2286847$133                   map_00_init_npc
     00002804  C$map_00_init_npc.c$19$1_0$163     map_00_init_npc
     00002807  A$lcc2286847$134                   map_00_init_npc
ASxxxx Linker V03.00/V05.40 + sdld,  page 68.
Hexadecimal  [32-Bits]

Area                                    Addr        Size        Decimal Bytes (Attributes)
--------------------------------        ----        ----        ------- ----- ------------
_CODE                               00000200    000029E6 =       10726. bytes (REL,CON)

      Value  Global                              Global Defined In Module
      -----  --------------------------------   ------------------------
     0000280A  A$lcc2286847$135                   map_00_init_npc
     0000280B  A$lcc2286847$136                   map_00_init_npc
     0000280D  A$lcc2286847$137                   map_00_init_npc
     0000280E  A$lcc2286847$138                   map_00_init_npc
     00002810  A$lcc2286847$142                   map_00_init_npc
     00002810  C$map_00_init_npc.c$22$2_0$164     map_00_init_npc
     00002812  A$lcc2286847$143                   map_00_init_npc
     00002814  A$lcc2286847$144                   map_00_init_npc
     00002815  A$lcc2286847$145                   map_00_init_npc
     00002817  A$lcc2286847$146                   map_00_init_npc
     00002818  A$lcc2286847$147                   map_00_init_npc
     0000281A  A$lcc2286847$148                   map_00_init_npc
     0000281B  A$lcc2286847$149                   map_00_init_npc
     0000281D  A$lcc2286847$150                   map_00_init_npc
     0000281E  A$lcc2286847$151                   map_00_init_npc
     00002820  A$lcc2286847$152                   map_00_init_npc
     00002821  A$lcc2286847$153                   map_00_init_npc
     00002823  A$lcc2286847$154                   map_00_init_npc
     00002824  A$lcc2286847$155                   map_00_init_npc
     00002826  A$lcc2286847$156                   map_00_init_npc
     00002827  A$lcc2286847$157                   map_00_init_npc
     00002829  A$lcc2286847$161                   map_00_init_npc
     00002829  C$map_00_init_npc.c$29$1_1$164     map_00_init_npc
     0000282C  A$lcc2286847$162                   map_00_init_npc
     0000282D  A$lcc2286847$163                   map_00_init_npc
     0000282F  A$lcc2286847$164                   map_00_init_npc
     00002830  A$lcc2286847$165                   map_00_init_npc
     00002831  A$lcc2286847$166                   map_00_init_npc
     00002832  A$lcc2286847$167                   map_00_init_npc
     00002833  A$lcc2286847$168                   map_00_init_npc
     00002834  A$lcc2286847$169                   map_00_init_npc
     00002835  A$lcc2286847$170                   map_00_init_npc
     00002836  A$lcc2286847$171                   map_00_init_npc
     00002837  A$lcc2286847$172                   map_00_init_npc
     00002838  A$lcc2286847$173                   map_00_init_npc
     0000283B  A$lcc2286847$174                   map_00_init_npc
     0000283C  A$lcc2286847$175                   map_00_init_npc
     0000283D  A$lcc2286847$176                   map_00_init_npc
     0000283E  A$lcc2286847$177                   map_00_init_npc
     00002841  A$lcc2286847$178                   map_00_init_npc
     00002842  A$lcc2286847$179                   map_00_init_npc
     00002844  A$lcc2286847$180                   map_00_init_npc
     00002845  A$lcc2286847$181                   map_00_init_npc
     00002846  A$lcc2286847$182                   map_00_init_npc
     00002849  A$lcc2286847$183                   map_00_init_npc
     0000284A  A$lcc2286847$184                   map_00_init_npc
     0000284B  A$lcc2286847$185                   map_00_init_npc
     0000284C  A$lcc2286847$186                   map_00_init_npc
     0000284D  A$lcc2286847$187                   map_00_init_npc
     0000284E  A$lcc2286847$188                   map_00_init_npc
     0000284F  A$lcc2286847$189                   map_00_init_npc
ASxxxx Linker V03.00/V05.40 + sdld,  page 69.
Hexadecimal  [32-Bits]

Area                                    Addr        Size        Decimal Bytes (Attributes)
--------------------------------        ----        ----        ------- ----- ------------
_CODE                               00000200    000029E6 =       10726. bytes (REL,CON)

      Value  Global                              Global Defined In Module
      -----  --------------------------------   ------------------------
     00002852  A$lcc2286847$190                   map_00_init_npc
     00002855  A$lcc2286847$194                   map_00_init_npc
     00002857  A$lcc2286847$199                   map_00_init_npc
     00002857  C$map_00_init_npc.c$30$1_1$163     map_00_init_npc
     00002857  XG$Map_00_NPC_Init$0$0             map_00_init_npc
     00002858  A$lcc2286848$56                    map_00_update
     00002858  C$map_00_update.c$11$0_0$171       map_00_update
     00002858  G$Map_00_Update$0$0                map_00_update
     00002858  _Map_00_Update                     map_00_update
     0000285A  A$lcc2286848$57                    map_00_update
     0000285C  A$lcc2286848$58                    map_00_update
     0000285D  A$lcc2286848$59                    map_00_update
     0000285E  A$lcc2286848$60                    map_00_update
     0000285F  A$lcc2286848$64                    map_00_update
     0000285F  C$map_00_update.c$13$1_0$171       map_00_update
     00002862  A$lcc2286848$68                    map_00_update
     00002862  C$map_00_update.c$15$1_1$172       map_00_update
     00002864  A$lcc2286848$69                    map_00_update
     00002865  A$lcc2286848$70                    map_00_update
     00002866  A$lcc2286848$71                    map_00_update
     00002867  A$lcc2286848$72                    map_00_update
     0000286A  A$lcc2286848$73                    map_00_update
     0000286B  A$lcc2286848$74                    map_00_update
     0000286C  A$lcc2286848$75                    map_00_update
     0000286D  A$lcc2286848$76                    map_00_update
     0000286E  A$lcc2286848$77                    map_00_update
     00002870  A$lcc2286848$78                    map_00_update
     00002871  A$lcc2286848$79                    map_00_update
     00002872  A$lcc2286848$80                    map_00_update
     00002873  A$lcc2286848$84                    map_00_update
     00002874  A$lcc2286848$85                    map_00_update
     00002875  A$lcc2286848$86                    map_00_update
     00002878  A$lcc2286848$87                    map_00_update
     00002879  A$lcc2286848$88                    map_00_update
     0000287A  A$lcc2286848$89                    map_00_update
     0000287B  A$lcc2286848$90                    map_00_update
     0000287D  A$lcc2286848$91                    map_00_update
     0000287E  A$lcc2286848$92                    map_00_update
     0000287F  A$lcc2286848$93                    map_00_update
     00002880  A$lcc2286848$94                    map_00_update
     00002882  A$lcc2286848$95                    map_00_update
     00002883  A$lcc2286848$96                    map_00_update
     00002886  A$lcc2286848$98                    map_00_update
     00002888  A$lcc2286848$99                    map_00_update
     00002889  A$lcc2286848$100                   map_00_update
     0000288A  A$lcc2286848$101                   map_00_update
     0000288B  A$lcc2286848$102                   map_00_update
     0000288C  A$lcc2286848$103                   map_00_update
     0000288D  A$lcc2286848$104                   map_00_update
     0000288F  A$lcc2286848$105                   map_00_update
     00002890  A$lcc2286848$106                   map_00_update
ASxxxx Linker V03.00/V05.40 + sdld,  page 70.
Hexadecimal  [32-Bits]

Area                                    Addr        Size        Decimal Bytes (Attributes)
--------------------------------        ----        ----        ------- ----- ------------
_CODE                               00000200    000029E6 =       10726. bytes (REL,CON)

      Value  Global                              Global Defined In Module
      -----  --------------------------------   ------------------------
     00002891  A$lcc2286848$107                   map_00_update
     00002892  A$lcc2286848$108                   map_00_update
     00002893  A$lcc2286848$109                   map_00_update
     00002895  A$lcc2286848$113                   map_00_update
     00002895  C$map_00_update.c$18$3_1$174       map_00_update
     00002896  A$lcc2286848$114                   map_00_update
     00002897  A$lcc2286848$115                   map_00_update
     00002898  A$lcc2286848$116                   map_00_update
     00002899  A$lcc2286848$117                   map_00_update
     0000289A  A$lcc2286848$118                   map_00_update
     0000289B  A$lcc2286848$119                   map_00_update
     0000289C  A$lcc2286848$120                   map_00_update
     0000289F  A$lcc2286848$121                   map_00_update
     000028A0  A$lcc2286848$125                   map_00_update
     000028A0  C$map_00_update.c$17$2_1$173       map_00_update
     000028A1  A$lcc2286848$126                   map_00_update
     000028A3  A$lcc2286848$131                   map_00_update
     000028A3  C$map_00_update.c$21$1_1$172       map_00_update
     000028A6  A$lcc2286848$132                   map_00_update
     000028A9  A$lcc2286848$136                   map_00_update
     000028A9  C$map_00_update.c$22$1_1$172       map_00_update
     000028AA  A$lcc2286848$137                   map_00_update
     000028AB  A$lcc2286848$138                   map_00_update
     000028AC  A$lcc2286848$139                   map_00_update
     000028AD  A$lcc2286848$140                   map_00_update
     000028AE  A$lcc2286848$141                   map_00_update
     000028AF  A$lcc2286848$142                   map_00_update
     000028B2  A$lcc2286848$146                   map_00_update
     000028B2  C$map_00_update.c$24$1_1$172       map_00_update
     000028B4  A$lcc2286848$147                   map_00_update
     000028B5  A$lcc2286848$148                   map_00_update
     000028B6  A$lcc2286848$149                   map_00_update
     000028B7  A$lcc2286848$150                   map_00_update
     000028BA  A$lcc2286848$157                   map_00_update
     000028BA  C$map_00_update.c$26$1_1$172       map_00_update
     000028BC  A$lcc2286848$162                   map_00_update
     000028BC  C$map_00_update.c$27$1_1$171       map_00_update
     000028BC  XG$Map_00_Update$0$0               map_00_update
     000028BD  A$lcc2286849$65                    main
     000028BD  C$main.c$23$0_0$179                main
     000028BD  C$main.c$25$1_0$179                main
     000028BD  G$load_number_tiles$0$0            main
     000028BD  _load_number_tiles                 main
     000028C0  A$lcc2286849$66                    main
     000028C1  A$lcc2286849$67                    main
     000028C4  A$lcc2286849$68                    main
     000028C5  A$lcc2286849$69                    main
     000028C8  A$lcc2286849$70                    main
     000028CA  A$lcc2286849$74                    main
     000028CA  C$main.c$26$1_0$179                main
     000028CD  A$lcc2286849$75                    main
ASxxxx Linker V03.00/V05.40 + sdld,  page 71.
Hexadecimal  [32-Bits]

Area                                    Addr        Size        Decimal Bytes (Attributes)
--------------------------------        ----        ----        ------- ----- ------------
_CODE                               00000200    000029E6 =       10726. bytes (REL,CON)

      Value  Global                              Global Defined In Module
      -----  --------------------------------   ------------------------
     000028CE  A$lcc2286849$76                    main
     000028D1  A$lcc2286849$77                    main
     000028D2  A$lcc2286849$78                    main
     000028D5  A$lcc2286849$79                    main
     000028D7  A$lcc2286849$87                    main
     000028D7  C$main.c$27$1_0$179                main
     000028D7  XG$load_number_tiles$0$0           main
     000028D8  A$lcc2286849$97                    main
     000028D8  C$main.c$29$1_0$181                main
     000028D8  G$main$0$0                         main
     000028D8  _main                              main
     000028D9  A$lcc2286849$98                    main
     000028DA  A$lcc2286849$102                   main
     000028DA  C$main.c$31$1_0$181                main
     000028DC  A$lcc2286849$103                   main
     000028DE  A$lcc2286849$104                   main
     000028E0  A$lcc2286849$108                   main
     000028E0  C$main.c$32$1_0$181                main
     000028E2  A$lcc2286849$109                   main
     000028E4  A$lcc2286849$110                   main
     000028E6  A$lcc2286849$114                   main
     000028E6  C$main.c$41$1_1$182                main
     000028E9  A$lcc2286849$115                   main
     000028EB  A$lcc2286849$116                   main
     000028EC  A$lcc2286849$117                   main
     000028EE  A$lcc2286849$121                   main
     000028EE  C$main.c$43$1_1$182                main
     000028F1  A$lcc2286849$125                   main
     000028F1  C$main.c$44$1_1$182                main
     000028F4  A$lcc2286849$129                   main
     000028F4  C$main.c$47$1_2$183                main
     000028F7  A$lcc2286849$130                   main
     000028FA  A$lcc2286849$134                   main
     000028FA  C$main.c$49$1_2$183                main
     000028FD  A$lcc2286849$135                   main
     00002900  A$lcc2286849$136                   main
     00002901  A$lcc2286849$137                   main
     00002902  A$lcc2286849$138                   main
     00002903  A$lcc2286849$139                   main
     00002904  A$lcc2286849$140                   main
     00002905  A$lcc2286849$141                   main
     00002906  A$lcc2286849$142                   main
     00002907  A$lcc2286849$143                   main
     0000290A  A$lcc2286849$144                   main
     0000290C  A$lcc2286849$145                   main
     0000290D  A$lcc2286849$146                   main
     0000290F  A$lcc2286849$147                   main
     00002910  A$lcc2286849$148                   main
     00002911  A$lcc2286849$149                   main
     00002914  A$lcc2286849$153                   main
     00002914  C$main.c$51$1_2$183                main
ASxxxx Linker V03.00/V05.40 + sdld,  page 72.
Hexadecimal  [32-Bits]

Area                                    Addr        Size        Decimal Bytes (Attributes)
--------------------------------        ----        ----        ------- ----- ------------
_CODE                               00000200    000029E6 =       10726. bytes (REL,CON)

      Value  Global                              Global Defined In Module
      -----  --------------------------------   ------------------------
     00002917  A$lcc2286849$157                   main
     00002917  C$main.c$52$1_3$184                main
     0000291A  A$lcc2286849$158                   main
     0000291C  A$lcc2286849$159                   main
     0000291E  A$lcc2286849$163                   main
     0000291E  C$main.c$53$1_3$184                main
     0000291F  A$lcc2286849$164                   main
     00002922  A$lcc2286849$165                   main
     00002924  A$lcc2286849$166                   main
     00002925  A$lcc2286849$170                   main
     00002925  C$main.c$54$1_3$184                main
     00002927  A$lcc2286849$171                   main
     00002928  A$lcc2286849$172                   main
     0000292B  A$lcc2286849$173                   main
     0000292C  A$lcc2286849$174                   main
     0000292F  A$lcc2286849$175                   main
     00002930  A$lcc2286849$176                   main
     00002933  A$lcc2286849$177                   main
     00002935  A$lcc2286849$181                   main
     00002935  C$main.c$55$1_3$184                main
     00002937  A$lcc2286849$182                   main
     00002938  A$lcc2286849$183                   main
     0000293B  A$lcc2286849$184                   main
     0000293C  A$lcc2286849$185                   main
     0000293F  A$lcc2286849$186                   main
     00002940  A$lcc2286849$187                   main
     00002943  A$lcc2286849$188                   main
     00002945  A$lcc2286849$193                   main
     00002945  C$main.c$57$1_3$184                main
     00002948  A$lcc2286849$194                   main
     00002949  A$lcc2286849$195                   main
     0000294A  A$lcc2286849$196                   main
     0000294C  A$lcc2286849$200                   main
     0000294C  C$main.c$59$2_3$185                main
     0000294F  A$lcc2286849$201                   main
     00002950  A$lcc2286849$202                   main
     00002951  A$lcc2286849$203                   main
     00002952  A$lcc2286849$204                   main
     00002953  A$lcc2286849$205                   main
     00002954  A$lcc2286849$206                   main
     00002955  A$lcc2286849$207                   main
     00002956  A$lcc2286849$208                   main
     00002957  A$lcc2286849$209                   main
     00002958  A$lcc2286849$210                   main
     00002959  A$lcc2286849$211                   main
     0000295A  A$lcc2286849$212                   main
     0000295B  A$lcc2286849$213                   main
     0000295E  A$lcc2286849$214                   main
     0000295F  A$lcc2286849$215                   main
     00002960  A$lcc2286849$216                   main
     00002961  A$lcc2286849$221                   main
ASxxxx Linker V03.00/V05.40 + sdld,  page 73.
Hexadecimal  [32-Bits]

Area                                    Addr        Size        Decimal Bytes (Attributes)
--------------------------------        ----        ----        ------- ----- ------------
_CODE                               00000200    000029E6 =       10726. bytes (REL,CON)

      Value  Global                              Global Defined In Module
      -----  --------------------------------   ------------------------
     00002961  C$main.c$61$2_3$185                main
     00002964  A$lcc2286849$222                   main
     00002966  A$lcc2286849$227                   main
     00002967  A$lcc2286849$228                   main
     00002968  A$lcc2286849$233                   main
     00002968  C$main.c$63$1_3$181                main
     00002968  XG$main$0$0                        main
     00002969  _free                              free
     00002A79  ___sdcc_heap_init                  malloc
     00002A9B  _malloc                            malloc
     00002BA1  __mulsuchar                        mul
     00002BA4  __muluschar                        mul
     00002BAD  __mulschar                         mul
     00002BB5  __mulint                           mul
     00002BD4  __muluchar                         mul

ASxxxx Linker V03.00/V05.40 + sdld,  page 74.
Hexadecimal  [32-Bits]

Area                                    Addr        Size        Decimal Bytes (Attributes)
--------------------------------        ----        ----        ------- ----- ------------
_HEADER0                            00000000    00000001 =           1. bytes (ABS,CON)

      Value  Global                              Global Defined In Module
      -----  --------------------------------   ------------------------
     00000020  .call_hl                           Runtime

ASxxxx Linker V03.00/V05.40 + sdld,  page 75.
Hexadecimal  [32-Bits]

Area                                    Addr        Size        Decimal Bytes (Attributes)
--------------------------------        ----        ----        ------- ----- ------------
_HEADER1                            00000000    00000005 =           5. bytes (ABS,CON)

      Value  Global                              Global Defined In Module
      -----  --------------------------------   ------------------------
     00000028  .MemsetSmall                       Runtime

ASxxxx Linker V03.00/V05.40 + sdld,  page 76.
Hexadecimal  [32-Bits]

Area                                    Addr        Size        Decimal Bytes (Attributes)
--------------------------------        ----        ----        ------- ----- ------------
_HEADER2                            00000000    00000007 =           7. bytes (ABS,CON)

      Value  Global                              Global Defined In Module
      -----  --------------------------------   ------------------------
     00000030  .MemcpySmall                       Runtime

ASxxxx Linker V03.00/V05.40 + sdld,  page 77.
Hexadecimal  [32-Bits]

Area                                    Addr        Size        Decimal Bytes (Attributes)
--------------------------------        ----        ----        ------- ----- ------------
_HEADER3                            00000000    00000008 =           8. bytes (ABS,CON)

      Value  Global                              Global Defined In Module
      -----  --------------------------------   ------------------------
ASxxxx Linker V03.00/V05.40 + sdld,  page 78.
Hexadecimal  [32-Bits]

Area                                    Addr        Size        Decimal Bytes (Attributes)
--------------------------------        ----        ----        ------- ----- ------------
_HEADER4                            00000000    00000060 =          96. bytes (ABS,CON)

      Value  Global                              Global Defined In Module
      -----  --------------------------------   ------------------------
     00000080  .int                               Runtime
     0000008F  _wait_int_handler                  Runtime
     0000009C  __standard_VBL_handler             Runtime
     000000AB  _refresh_OAM                       Runtime
     000000CC  _set_interrupts                    Runtime

ASxxxx Linker V03.00/V05.40 + sdld,  page 79.
Hexadecimal  [32-Bits]

Area                                    Addr        Size        Decimal Bytes (Attributes)
--------------------------------        ----        ----        ------- ----- ------------
_HEADER5                            00000000    00000001 =           1. bytes (ABS,CON)

      Value  Global                              Global Defined In Module
      -----  --------------------------------   ------------------------
ASxxxx Linker V03.00/V05.40 + sdld,  page 80.
Hexadecimal  [32-Bits]

Area                                    Addr        Size        Decimal Bytes (Attributes)
--------------------------------        ----        ----        ------- ----- ------------
_HEADER6                            00000000    00000002 =           2. bytes (ABS,CON)

      Value  Global                              Global Defined In Module
      -----  --------------------------------   ------------------------
ASxxxx Linker V03.00/V05.40 + sdld,  page 81.
Hexadecimal  [32-Bits]

Area                                    Addr        Size        Decimal Bytes (Attributes)
--------------------------------        ----        ----        ------- ----- ------------
_HEADER7                            00000000    00000030 =          48. bytes (ABS,CON)

      Value  Global                              Global Defined In Module
      -----  --------------------------------   ------------------------
ASxxxx Linker V03.00/V05.40 + sdld,  page 82.
Hexadecimal  [32-Bits]

Area                                    Addr        Size        Decimal Bytes (Attributes)
--------------------------------        ----        ----        ------- ----- ------------
_HEADER8                            00000000    00000006 =           6. bytes (ABS,CON)

      Value  Global                              Global Defined In Module
      -----  --------------------------------   ------------------------
ASxxxx Linker V03.00/V05.40 + sdld,  page 83.
Hexadecimal  [32-Bits]

Area                                    Addr        Size        Decimal Bytes (Attributes)
--------------------------------        ----        ----        ------- ----- ------------
_HEADER9                            00000000    00000003 =           3. bytes (ABS,CON)

      Value  Global                              Global Defined In Module
      -----  --------------------------------   ------------------------
ASxxxx Linker V03.00/V05.40 + sdld,  page 84.
Hexadecimal  [32-Bits]

Area                                    Addr        Size        Decimal Bytes (Attributes)
--------------------------------        ----        ----        ------- ----- ------------
_HEADERa                            00000000    00000001 =           1. bytes (ABS,CON)

      Value  Global                              Global Defined In Module
      -----  --------------------------------   ------------------------
ASxxxx Linker V03.00/V05.40 + sdld,  page 85.
Hexadecimal  [32-Bits]

Area                                    Addr        Size        Decimal Bytes (Attributes)
--------------------------------        ----        ----        ------- ----- ------------
_HEADERb                            00000000    00000001 =           1. bytes (ABS,CON)

      Value  Global                              Global Defined In Module
      -----  --------------------------------   ------------------------
ASxxxx Linker V03.00/V05.40 + sdld,  page 86.
Hexadecimal  [32-Bits]

Area                                    Addr        Size        Decimal Bytes (Attributes)
--------------------------------        ----        ----        ------- ----- ------------
_HEADERc                            00000000    00000001 =           1. bytes (ABS,CON)

      Value  Global                              Global Defined In Module
      -----  --------------------------------   ------------------------
ASxxxx Linker V03.00/V05.40 + sdld,  page 87.
Hexadecimal  [32-Bits]

Area                                    Addr        Size        Decimal Bytes (Attributes)
--------------------------------        ----        ----        ------- ----- ------------
_HEADERd                            00000000    00000002 =           2. bytes (ABS,CON)

      Value  Global                              Global Defined In Module
      -----  --------------------------------   ------------------------
ASxxxx Linker V03.00/V05.40 + sdld,  page 88.
Hexadecimal  [32-Bits]

Area                                    Addr        Size        Decimal Bytes (Attributes)
--------------------------------        ----        ----        ------- ----- ------------
_HEADERe                            00000000    00000001 =           1. bytes (ABS,CON)

      Value  Global                              Global Defined In Module
      -----  --------------------------------   ------------------------
ASxxxx Linker V03.00/V05.40 + sdld,  page 89.
Hexadecimal  [32-Bits]

Area                                    Addr        Size        Decimal Bytes (Attributes)
--------------------------------        ----        ----        ------- ----- ------------
_HEADERf                            00000000    00000001 =           1. bytes (ABS,CON)

      Value  Global                              Global Defined In Module
      -----  --------------------------------   ------------------------
ASxxxx Linker V03.00/V05.40 + sdld,  page 90.
Hexadecimal  [32-Bits]

Area                                    Addr        Size        Decimal Bytes (Attributes)
--------------------------------        ----        ----        ------- ----- ------------
_HEADER10                           00000000    00000002 =           2. bytes (ABS,CON)

      Value  Global                              Global Defined In Module
      -----  --------------------------------   ------------------------
ASxxxx Linker V03.00/V05.40 + sdld,  page 91.
Hexadecimal  [32-Bits]

Area                                    Addr        Size        Decimal Bytes (Attributes)
--------------------------------        ----        ----        ------- ----- ------------
_HEADER11                           00000000    000000AB =         171. bytes (ABS,CON)

      Value  Global                              Global Defined In Module
      -----  --------------------------------   ------------------------
     00000150  .reset                             Runtime
     00000150  _reset                             Runtime
     00000157  .code_start                        Runtime
     000001B9  _exit                              Runtime
     000001BD  .wait_vbl_done                     Runtime
     000001BD  _vsync                             Runtime
     000001BD  _wait_vbl_done                     Runtime
     000001CD  .remove_VBL                        Runtime
     000001CD  _remove_VBL                        Runtime
     000001D0  .remove_int                        Runtime
     000001ED  .add_VBL                           Runtime
     000001ED  _add_VBL                           Runtime
     000001F0  .add_int                           Runtime

ASxxxx Linker V03.00/V05.40 + sdld,  page 92.
Hexadecimal  [32-Bits]

Area                                    Addr        Size        Decimal Bytes (Attributes)
--------------------------------        ----        ----        ------- ----- ------------
_HOME                               00002BE6    0000012C =         300. bytes (REL,CON)

      Value  Global                              Global Defined In Module
      -----  --------------------------------   ------------------------
     00002BE6  .memset_simple                     Runtime
     00002BEF  .memcpy_simple                     Runtime
     00002C0C  .display_off                       Runtime
     00002C0C  _display_off                       Runtime
     00002C24  _set_tile_data                     
     00002C29  _set_bkg_data                      
     00002C29  _set_win_data                      
     00002C31  _set_sprite_data                   
     00002C61  .padup                             
     00002C61  _waitpadup                         
     00002C71  .jpad                              
     00002C71  _joypad                            
     00002C99  _waitpad                           
     00002C9A  .wait_pad                          
     00002CA1  ___sdcc_call_hl                    call_hl
     00002CA2  _set_bkg_tiles                     
     00002CB6  .set_xy_wtt                        SetTileMap
     00002CBF  .set_xy_btt                        SetTileMap
     00002CCE  .set_xy_tt                         SetTileMap

ASxxxx Linker V03.00/V05.40 + sdld,  page 93.
Hexadecimal  [32-Bits]

Area                                    Addr        Size        Decimal Bytes (Attributes)
--------------------------------        ----        ----        ------- ----- ------------
_INITIALIZER                        00002D12    000001DD =         477. bytes (REL,CON)

      Value  Global                              Global Defined In Module
      -----  --------------------------------   ------------------------
     00002D12  Fspr_InventoryArrow_idle$__xinit   spr_InventoryArrow_idle
     00002D22  Fexample_npc$__xinit_spr_example   example_npc
     00002D32  Fexample_npc$__xinit_spr_example   example_npc
     00002D42  Fexample_npc$__xinit_spr_example   example_npc
     00002D52  Fexample_npc$__xinit_spr_example   example_npc
     00002D62  Fspr_Player_down0$__xinit_spr_Pl   spr_Player_down0
     00002D72  Fspr_Player_down0$__xinit_spr_Pl   spr_Player_down0
     00002D82  Fspr_Player_down0$__xinit_spr_Pl   spr_Player_down0
     00002D92  Fspr_Player_down0$__xinit_spr_Pl   spr_Player_down0
     00002DA2  Fspr_Player_down1$__xinit_spr_Pl   spr_Player_down1
     00002DB2  Fspr_Player_down1$__xinit_spr_Pl   spr_Player_down1
     00002DC2  Fspr_Player_down1$__xinit_spr_Pl   spr_Player_down1
     00002DD2  Fspr_Player_down1$__xinit_spr_Pl   spr_Player_down1
     00002DE2  Fspr_Player_down2$__xinit_spr_Pl   spr_Player_down2
     00002DF2  Fspr_Player_down2$__xinit_spr_Pl   spr_Player_down2
     00002E02  Fspr_Player_down2$__xinit_spr_Pl   spr_Player_down2
     00002E12  Fspr_Player_down2$__xinit_spr_Pl   spr_Player_down2
     00002E22  Fspr_Player_up0$__xinit_spr_Play   spr_Player_up0
     00002E32  Fspr_Player_up0$__xinit_spr_Play   spr_Player_up0
     00002E42  Fspr_Player_up0$__xinit_spr_Play   spr_Player_up0
     00002E52  Fspr_Player_up0$__xinit_spr_Play   spr_Player_up0
     00002E62  Fspr_Player_up1$__xinit_spr_Play   spr_Player_up1
     00002E72  Fspr_Player_up1$__xinit_spr_Play   spr_Player_up1
     00002E82  Fspr_Player_up1$__xinit_spr_Play   spr_Player_up1
     00002E92  Fspr_Player_up1$__xinit_spr_Play   spr_Player_up1
     00002EA2  Fspr_Player_up2$__xinit_spr_Play   spr_Player_up2
     00002EB2  Fspr_Player_up2$__xinit_spr_Play   spr_Player_up2
     00002EC2  Fspr_Player_up2$__xinit_spr_Play   spr_Player_up2
     00002ED2  Fspr_Player_up2$__xinit_spr_Play   spr_Player_up2
     00002EE2  Faction$__xinit_MOVE_SPEED$0_0$0   action
     00002EE3  Faction$__xinit_current_directio   action
     00002EE4  Faction$__xinit_last_keys$0_0$0    action
     00002EE5  Fcan_move$__xinit_can_move$0_0$0   can_move
     00002EE9  Fentity$__xinit_next_entity_id$0   entity
     00002EEA  Fgender_selection$__xinit_GENDER   gender_selection
     00002EEB  Finventory$__xinit_inventory_act   inventory
     00002EEC  Finventory_input$__xinit_prev_ke   inventory_input
     00002EED  Fload$__xinit_vram_next_index$0_   load

ASxxxx Linker V03.00/V05.40 + sdld,  page 94.
Hexadecimal  [32-Bits]

Area                                    Addr        Size        Decimal Bytes (Attributes)
--------------------------------        ----        ----        ------- ----- ------------
_GSINIT                             00002EEF    0000000F =          15. bytes (REL,CON)

      Value  Global                              Global Defined In Module
      -----  --------------------------------   ------------------------
     00002EEF  gsinit                             Runtime

ASxxxx Linker V03.00/V05.40 + sdld,  page 95.
Hexadecimal  [32-Bits]

Area                                    Addr        Size        Decimal Bytes (Attributes)
--------------------------------        ----        ----        ------- ----- ------------
_GSFINAL                            00002EFE    00000001 =           1. bytes (REL,CON)

      Value  Global                              Global Defined In Module
      -----  --------------------------------   ------------------------
ASxxxx Linker V03.00/V05.40 + sdld,  page 96.
Hexadecimal  [32-Bits]

Area                                    Addr        Size        Decimal Bytes (Attributes)
--------------------------------        ----        ----        ------- ----- ------------
_DATA                               0000C0A0    00000173 =         371. bytes (REL,CON)

      Value  Global                              Global Defined In Module
      -----  --------------------------------   ------------------------
     0000C0A0  __cpu                              Runtime
     0000C0A1  __is_GBA                           Runtime
     0000C0A2  .mode                              Runtime
     0000C0A3  .sys_time                          Runtime
     0000C0A3  _sys_time                          Runtime
     0000C0A5  .int_0x40                          Runtime
     0000C0B1  G$active$0_0$0                     active
     0000C0B1  _active                            active
     0000C0B6  G$animation$0_0$0                  animation
     0000C0B6  _animation                         animation
     0000C1AB  G$player$0_0$0                     player
     0000C1AB  _player                            player
     0000C1AC  G$player_animations$0_0$0          player
     0000C1AC  _player_animations                 player
     0000C1B0  G$player_y_cache$0_0$0             player
     0000C1B0  _player_y_cache                    player
     0000C1B1  G$position$0_0$0                   position
     0000C1B1  _position                          position
     0000C1CF  G$render$0_0$0                     render
     0000C1CF  _render                            render
     0000C1DE  G$npc_1$0_0$0                      scene
     0000C1DE  _npc_1                             scene
     0000C1DF  G$npc_2$0_0$0                      scene
     0000C1DF  _npc_2                             scene
     0000C1E0  G$option_actor$0_0$0               scene
     0000C1E0  _option_actor                      scene
     0000C1E1  G$scene_manager$0_0$0              scene_manager
     0000C1E1  _scene_manager                     scene_manager
     0000C1E3  G$GenderSelect$0_0$0               gender_select
     0000C1E3  _GenderSelect                      gender_select
     0000C1EB  G$InventoryScene$0_0$0             inventory_scene
     0000C1EB  _InventoryScene                    inventory_scene
     0000C1F3  G$CurrentMapData$0_0$0             map_data
     0000C1F3  _CurrentMapData                    map_data
     0000C205  G$Map_00$0_0$0                     map_00
     0000C205  _Map_00                            map_00
     0000C20D  Lmain.main$game$1_1$182            main
     0000C211  ___sdcc_heap_free                  malloc

ASxxxx Linker V03.00/V05.40 + sdld,  page 97.
Hexadecimal  [32-Bits]

Area                                    Addr        Size        Decimal Bytes (Attributes)
--------------------------------        ----        ----        ------- ----- ------------
_INITIALIZED                        0000C213    000001DD =         477. bytes (REL,CON)

      Value  Global                              Global Defined In Module
      -----  --------------------------------   ------------------------
     0000C213  G$spr_InventoryArrow_idle$0_0$0    spr_InventoryArrow_idle
     0000C213  _spr_InventoryArrow_idle           spr_InventoryArrow_idle
     0000C223  G$spr_example_NPC_00$0_0$0         example_npc
     0000C223  _spr_example_NPC_00                example_npc
     0000C233  G$spr_example_NPC_01$0_0$0         example_npc
     0000C233  _spr_example_NPC_01                example_npc
     0000C243  G$spr_example_NPC_10$0_0$0         example_npc
     0000C243  _spr_example_NPC_10                example_npc
     0000C253  G$spr_example_NPC_11$0_0$0         example_npc
     0000C253  _spr_example_NPC_11                example_npc
     0000C263  G$spr_Player_down0_00$0_0$0        spr_Player_down0
     0000C263  _spr_Player_down0_00               spr_Player_down0
     0000C273  G$spr_Player_down0_10$0_0$0        spr_Player_down0
     0000C273  _spr_Player_down0_10               spr_Player_down0
     0000C283  G$spr_Player_down0_01$0_0$0        spr_Player_down0
     0000C283  _spr_Player_down0_01               spr_Player_down0
     0000C293  G$spr_Player_down0_11$0_0$0        spr_Player_down0
     0000C293  _spr_Player_down0_11               spr_Player_down0
     0000C2A3  G$spr_Player_down1_00$0_0$0        spr_Player_down1
     0000C2A3  _spr_Player_down1_00               spr_Player_down1
     0000C2B3  G$spr_Player_down1_10$0_0$0        spr_Player_down1
     0000C2B3  _spr_Player_down1_10               spr_Player_down1
     0000C2C3  G$spr_Player_down1_01$0_0$0        spr_Player_down1
     0000C2C3  _spr_Player_down1_01               spr_Player_down1
     0000C2D3  G$spr_Player_down1_11$0_0$0        spr_Player_down1
     0000C2D3  _spr_Player_down1_11               spr_Player_down1
     0000C2E3  G$spr_Player_down2_00$0_0$0        spr_Player_down2
     0000C2E3  _spr_Player_down2_00               spr_Player_down2
     0000C2F3  G$spr_Player_down2_10$0_0$0        spr_Player_down2
     0000C2F3  _spr_Player_down2_10               spr_Player_down2
     0000C303  G$spr_Player_down2_01$0_0$0        spr_Player_down2
     0000C303  _spr_Player_down2_01               spr_Player_down2
     0000C313  G$spr_Player_down2_11$0_0$0        spr_Player_down2
     0000C313  _spr_Player_down2_11               spr_Player_down2
     0000C323  G$spr_Player_up0_00$0_0$0          spr_Player_up0
     0000C323  _spr_Player_up0_00                 spr_Player_up0
     0000C333  G$spr_Player_up0_10$0_0$0          spr_Player_up0
     0000C333  _spr_Player_up0_10                 spr_Player_up0
     0000C343  G$spr_Player_up0_01$0_0$0          spr_Player_up0
     0000C343  _spr_Player_up0_01                 spr_Player_up0
     0000C353  G$spr_Player_up0_11$0_0$0          spr_Player_up0
     0000C353  _spr_Player_up0_11                 spr_Player_up0
     0000C363  G$spr_Player_up1_00$0_0$0          spr_Player_up1
     0000C363  _spr_Player_up1_00                 spr_Player_up1
     0000C373  G$spr_Player_up1_10$0_0$0          spr_Player_up1
     0000C373  _spr_Player_up1_10                 spr_Player_up1
     0000C383  G$spr_Player_up1_01$0_0$0          spr_Player_up1
     0000C383  _spr_Player_up1_01                 spr_Player_up1
     0000C393  G$spr_Player_up1_11$0_0$0          spr_Player_up1
     0000C393  _spr_Player_up1_11                 spr_Player_up1
ASxxxx Linker V03.00/V05.40 + sdld,  page 98.
Hexadecimal  [32-Bits]

Area                                    Addr        Size        Decimal Bytes (Attributes)
--------------------------------        ----        ----        ------- ----- ------------
_INITIALIZED                        0000C213    000001DD =         477. bytes (REL,CON)

      Value  Global                              Global Defined In Module
      -----  --------------------------------   ------------------------
     0000C3A3  G$spr_Player_up2_00$0_0$0          spr_Player_up2
     0000C3A3  _spr_Player_up2_00                 spr_Player_up2
     0000C3B3  G$spr_Player_up2_10$0_0$0          spr_Player_up2
     0000C3B3  _spr_Player_up2_10                 spr_Player_up2
     0000C3C3  G$spr_Player_up2_01$0_0$0          spr_Player_up2
     0000C3C3  _spr_Player_up2_01                 spr_Player_up2
     0000C3D3  G$spr_Player_up2_11$0_0$0          spr_Player_up2
     0000C3D3  _spr_Player_up2_11                 spr_Player_up2
     0000C3E3  G$MOVE_SPEED$0_0$0                 action
     0000C3E3  _MOVE_SPEED                        action
     0000C3E4  G$current_direction$0_0$0          action
     0000C3E4  _current_direction                 action
     0000C3E5  G$last_keys$0_0$0                  action
     0000C3E5  _last_keys                         action
     0000C3E6  G$can_move$0_0$0                   can_move
     0000C3E6  _can_move                          can_move
     0000C3EA  G$next_entity_id$0_0$0             entity
     0000C3EA  _next_entity_id                    entity
     0000C3EB  G$GENDER$0_0$0                     gender_selection
     0000C3EB  _GENDER                            gender_selection
     0000C3EC  G$inventory_active$0_0$0           inventory
     0000C3EC  _inventory_active                  inventory
     0000C3ED  G$prev_keys$0_0$0                  inventory_input
     0000C3ED  _prev_keys                         inventory_input
     0000C3EE  G$vram_next_index$0_0$0            load
     0000C3EE  _vram_next_index                   load
     0000C3EF  __map_tile_offset                  SetTileMap

ASxxxx Linker V03.00/V05.40 + sdld,  page 99.
Hexadecimal  [32-Bits]

Area                                    Addr        Size        Decimal Bytes (Attributes)
--------------------------------        ----        ----        ------- ----- ------------
_HEAP                               0000C3F0    000007FF =        2047. bytes (REL,CON)

      Value  Global                              Global Defined In Module
      -----  --------------------------------   ------------------------
     0000C3F0  ___sdcc_heap                       

ASxxxx Linker V03.00/V05.40 + sdld,  page 100.
Hexadecimal  [32-Bits]

Area                                    Addr        Size        Decimal Bytes (Attributes)
--------------------------------        ----        ----        ------- ----- ------------
_HEAP_END                           0000CBEF    00000001 =           1. bytes (REL,CON)

      Value  Global                              Global Defined In Module
      -----  --------------------------------   ------------------------
     0000CBEF  ___sdcc_heap_end                   

ASxxxx Linker V03.00/V05.40 + sdld,  page 101.
Hexadecimal  [32-Bits]

Area                                    Addr        Size        Decimal Bytes (Attributes)
--------------------------------        ----        ----        ------- ----- ------------
_HRAM                               0000FF80    00000013 =          19. bytes (REL,CON)

      Value  Global                              Global Defined In Module
      -----  --------------------------------   ------------------------
     0000FF80  .refresh_OAM                       Runtime
     0000FF90  __current_bank                     Runtime
     0000FF91  __vbl_done                         Runtime
     0000FF92  __shadow_OAM_base                  Runtime

ASxxxx Linker V03.00/V05.40 + sdld,  page 102.

Files Linked                              [ module(s) ]

C:\Program Files\GBDK\lib/gb/crt0.o       [ Runtime ]
C:\Users\Bau_M\AppData\Local\Temp/lcc228680.o
                                          [ chars ]
C:\Users\Bau_M\AppData\Local\Temp/lcc228681.o
                                          [ numbers ]
C:\Users\Bau_M\AppData\Local\Temp/lcc228682.o
                                          [ gender_select_tilemap ]
C:\Users\Bau_M\AppData\Local\Temp/lcc228683.o
                                          [ gender_select_tileset ]
C:\Users\Bau_M\AppData\Local\Temp/lcc228684.o
                                          [ inventory_bkg ]
C:\Users\Bau_M\AppData\Local\Temp/lcc228685.o
                                          [ map_example ]
C:\Users\Bau_M\AppData\Local\Temp/lcc228686.o
                                          [ template_tilemap ]
C:\Users\Bau_M\AppData\Local\Temp/lcc228687.o
                                          [ template_tileset ]
C:\Users\Bau_M\AppData\Local\Temp/lcc228688.o
                                          [ spr_InventoryArrow_idle ]
C:\Users\Bau_M\AppData\Local\Temp/lcc228689.o
                                          [ spr_Branch ]
C:\Users\Bau_M\AppData\Local\Temp/lcc2286810.o
                                          [ example_npc ]
C:\Users\Bau_M\AppData\Local\Temp/lcc2286811.o
                                          [ spr_Player_down0 ]
C:\Users\Bau_M\AppData\Local\Temp/lcc2286812.o
                                          [ spr_Player_down1 ]
C:\Users\Bau_M\AppData\Local\Temp/lcc2286813.o
                                          [ spr_Player_down2 ]
C:\Users\Bau_M\AppData\Local\Temp/lcc2286814.o
                                          [ spr_Player_up0 ]
C:\Users\Bau_M\AppData\Local\Temp/lcc2286815.o
                                          [ spr_Player_up1 ]
C:\Users\Bau_M\AppData\Local\Temp/lcc2286816.o
                                          [ spr_Player_up2 ]
C:\Users\Bau_M\AppData\Local\Temp/lcc2286817.o
                                          [ action ]
C:\Users\Bau_M\AppData\Local\Temp/lcc2286818.o
                                          [ active ]
C:\Users\Bau_M\AppData\Local\Temp/lcc2286819.o
                                          [ animation ]
C:\Users\Bau_M\AppData\Local\Temp/lcc2286820.o
                                          [ can_move ]
C:\Users\Bau_M\AppData\Local\Temp/lcc2286821.o
                                          [ char_to_tile ]
C:\Users\Bau_M\AppData\Local\Temp/lcc2286822.o
                                          [ draw ]
C:\Users\Bau_M\AppData\Local\Temp/lcc2286823.o
                                          [ entity ]
C:\Users\Bau_M\AppData\Local\Temp/lcc2286824.o
                                          [ gender_selection ]
C:\Users\Bau_M\AppData\Local\Temp/lcc2286825.o
                                          [ global_action ]
C:\Users\Bau_M\AppData\Local\Temp/lcc2286826.o
                                          [ inventory ]
C:\Users\Bau_M\AppData\Local\Temp/lcc2286827.o
                                          [ inventory_input ]
C:\Users\Bau_M\AppData\Local\Temp/lcc2286828.o
                                          [ load ]
C:\Users\Bau_M\AppData\Local\Temp/lcc2286829.o
                                          [ map_scenes ]
C:\Users\Bau_M\AppData\Local\Temp/lcc2286830.o
                                          [ player ]
C:\Users\Bau_M\AppData\Local\Temp/lcc2286831.o
                                          [ position ]
C:\Users\Bau_M\AppData\Local\Temp/lcc2286832.o
                                          [ render ]
C:\Users\Bau_M\AppData\Local\Temp/lcc2286833.o
                                          [ scene ]
C:\Users\Bau_M\AppData\Local\Temp/lcc2286834.o
                                          [ scene_manager ]
C:\Users\Bau_M\AppData\Local\Temp/lcc2286835.o
                                          [ gender_select ]
C:\Users\Bau_M\AppData\Local\Temp/lcc2286836.o
                                          [ gender_select_init ]
C:\Users\Bau_M\AppData\Local\Temp/lcc2286837.o
                                          [ gender_select_update ]
C:\Users\Bau_M\AppData\Local\Temp/lcc2286838.o
                                          [ inventory_scene ]
C:\Users\Bau_M\AppData\Local\Temp/lcc2286839.o
                                          [ inventory_scene_init ]
C:\Users\Bau_M\AppData\Local\Temp/lcc2286840.o
                                          [ inventory_scene_update ]
C:\Users\Bau_M\AppData\Local\Temp/lcc2286841.o
                                          [ clean_text ]
C:\Users\Bau_M\AppData\Local\Temp/lcc2286842.o
                                          [ map_collision ]
C:\Users\Bau_M\AppData\Local\Temp/lcc2286843.o
                                          [ map_data ]
C:\Users\Bau_M\AppData\Local\Temp/lcc2286844.o
                                          [ map_00 ]
C:\Users\Bau_M\AppData\Local\Temp/lcc2286845.o
                                          [ map_00_collision ]
C:\Users\Bau_M\AppData\Local\Temp/lcc2286846.o
                                          [ map_00_init ]
C:\Users\Bau_M\AppData\Local\Temp/lcc2286847.o
                                          [ map_00_init_npc ]
C:\Users\Bau_M\AppData\Local\Temp/lcc2286848.o
                                          [ map_00_update ]
C:\Users\Bau_M\AppData\Local\Temp/lcc2286849.o
                                          [ main ]


Libraries Linked                          [ object file ]

C:\Program Files\GBDK\lib/sm83/sm83.lib   [ free.o ]
C:\Program Files\GBDK\lib/sm83/sm83.lib   [ malloc.o ]
C:\Program Files\GBDK\lib/gb/gb.lib       [ set_data.o ]
C:\Program Files\GBDK\lib/sm83/sm83.lib   [ mul.o ]
C:\Program Files\GBDK\lib/gb/gb.lib       [ pad.o ]
C:\Program Files\GBDK\lib/sm83/sm83.lib   [ __sdcc_call_hl.o ]
C:\Program Files\GBDK\lib/gb/gb.lib       [ sfr.o ]
C:\Program Files\GBDK\lib/gb/gb.lib       [ heap.o ]
C:\Program Files\GBDK\lib/gb/gb.lib       [ set_bk_t.o ]
C:\Program Files\GBDK\lib/gb/gb.lib       [ set_xy_t.o ]

ASxxxx Linker V03.00/V05.40 + sdld,  page 103.

User Base Address Definitions

_DATA=0xC0A0
_CODE=0x0200
_HRAM=0xFF80
ASxxxx Linker V03.00/V05.40 + sdld,  page 104.

User Global Definitions

_shadow_OAM=0xC000
.STACK=0xE000

