ASxxxx Linker V03.00/V05.40 + sdld,  page 1.
Hexadecimal  [32-Bits]

Area                                    Addr        Size        Decimal Bytes (Attributes)
--------------------------------        ----        ----        ------- ----- ------------
.  .ABS.                            00000000    00000000 =           0. bytes (ABS,CON)

      Value  Global                              Global Defined In Module
      -----  --------------------------------   ------------------------
     00000000  .__.ABS.                           SetTileMap
     00000000  _rMBC7_SRAM_ENABLE_1               
     00000000  _rRAMG                             
     00000000  l__BASE                         
     00000000  l__BSS                          
     00000000  l__CABS                         
     00000000  l__CODE_0                       
     00000000  l__DABS                         
     00000000  l__HEADER                       
     00000000  l__LIT                          
     00000000  s__CABS                         
     00000000  s__DABS                         
     00000000  s__HEADER                       
     00000000  s__HEADER0                      
     00000000  s__HEADER1                      
     00000000  s__HEADER10                     
     00000000  s__HEADER11                     
     00000000  s__HEADER2                      
     00000000  s__HEADER3                      
     00000000  s__HEADER4                      
     00000000  s__HEADER5                      
     00000000  s__HEADER6                      
     00000000  s__HEADER7                      
     00000000  s__HEADER8                      
     00000000  s__HEADER9                      
     00000000  s__HEADERa                      
     00000000  s__HEADERb                      
     00000000  s__HEADERc                      
     00000000  s__HEADERd                      
     00000000  s__HEADERe                      
     00000000  s__HEADERf                      
     00000001  l__GSFINAL                      
     00000001  l__HEADER0                      
     00000001  l__HEADER5                      
     00000001  l__HEADERa                      
     00000001  l__HEADERb                      
     00000001  l__HEADERc                      
     00000001  l__HEADERe                      
     00000001  l__HEADERf                      
     00000001  l__HEAP_END                     
     00000002  l__HEADER10                     
     00000002  l__HEADER6                      
     00000002  l__HEADERd                      
     00000003  l__HEADER9                      
     00000005  l__HEADER1                      
     00000006  l__HEADER8                      
     00000007  l__HEADER2                      
     00000008  l__HEADER3                      
     0000000F  l__GSINIT                       
     00000013  l__HRAM                         
ASxxxx Linker V03.00/V05.40 + sdld,  page 2.
Hexadecimal  [32-Bits]

Area                                    Addr        Size        Decimal Bytes (Attributes)
--------------------------------        ----        ----        ------- ----- ------------
.  .ABS.                            00000000    00000000 =           0. bytes (ABS,CON)

      Value  Global                              Global Defined In Module
      -----  --------------------------------   ------------------------
     00000030  l__HEADER7                      
     00000060  l__HEADER4                      
     000000AB  l__HEADER11                     
     0000012C  l__HOME                         
     00000200  s__CODE                         
     00000239  l__INITIALIZED                  
     00000239  l__INITIALIZER                  
     00000319  l__DATA                         
     000007FF  l__HEAP                         
     00000E0F  l__CODE_2                       
     00001220  l__CODE_1                       
     00002000  _rROMB0                            
     00002F3E  l__CODE                         
     00003000  _rROMB1                            
     0000313E  s__HOME                         
     0000326A  s__BASE                         
     0000326A  s__CODE_0                       
     0000326A  s__INITIALIZER                  
     0000326A  s__LIT                          
     000034A3  s__GSINIT                       
     000034B2  s__GSFINAL                      
     00004000  _rMBC7_SRAM_ENABLE_2               
     00004000  _rRAMB                             
     00008000  __VRAM                             
     00008000  __VRAM8000                         
     00008800  __VRAM8800                         
     00009000  __VRAM9000                         
     00009800  __SCRN0                            
     00009C00  __SCRN1                            
     0000A000  __SRAM                             
     0000A000  _rMBC7_LATCH_1                     
     0000A010  _rMBC7_LATCH_2                     
     0000A020  _rMBC7_ACCEL_X_LO                  
     0000A030  _rMBC7_ACCEL_X_HI                  
     0000A040  _rMBC7_ACCEL_Y_LO                  
     0000A050  _rMBC7_ACCEL_Y_HI                  
     0000C000  __RAM                              
     0000C000  _shadow_OAM                     
     0000C0A0  s__DATA                         
     0000C3B9  s__BSS                          
     0000C3B9  s__INITIALIZED                  
     0000C5F2  s__HEAP                         
     0000CDF1  s__HEAP_END                     
     0000D000  __RAMBANK                          
     0000E000  .STACK                          
     0000FE00  __OAMRAM                           
     0000FF00  _P1_REG                            
     0000FF00  __IO                               
     0000FF01  _SB_REG                            
     0000FF02  _SC_REG                            
     0000FF04  _DIV_REG                           
ASxxxx Linker V03.00/V05.40 + sdld,  page 3.
Hexadecimal  [32-Bits]

Area                                    Addr        Size        Decimal Bytes (Attributes)
--------------------------------        ----        ----        ------- ----- ------------
.  .ABS.                            00000000    00000000 =           0. bytes (ABS,CON)

      Value  Global                              Global Defined In Module
      -----  --------------------------------   ------------------------
     0000FF05  _TIMA_REG                          
     0000FF06  _TMA_REG                           
     0000FF07  _TAC_REG                           
     0000FF0F  _IF_REG                            
     0000FF10  _NR10_REG                          
     0000FF11  _NR11_REG                          
     0000FF12  _NR12_REG                          
     0000FF13  _NR13_REG                          
     0000FF14  _NR14_REG                          
     0000FF16  _NR21_REG                          
     0000FF17  _NR22_REG                          
     0000FF18  _NR23_REG                          
     0000FF19  _NR24_REG                          
     0000FF1A  _NR30_REG                          
     0000FF1B  _NR31_REG                          
     0000FF1C  _NR32_REG                          
     0000FF1D  _NR33_REG                          
     0000FF1E  _NR34_REG                          
     0000FF20  _NR41_REG                          
     0000FF21  _NR42_REG                          
     0000FF22  _NR43_REG                          
     0000FF23  _NR44_REG                          
     0000FF24  _NR50_REG                          
     0000FF25  _NR51_REG                          
     0000FF26  _NR52_REG                          
     0000FF30  _AUD3WAVE                          
     0000FF30  _PCM_SAMPLE                        
     0000FF30  __AUD3WAVERAM                      
     0000FF40  _LCDC_REG                          
     0000FF41  _STAT_REG                          
     0000FF42  _SCY_REG                           
     0000FF43  _SCX_REG                           
     0000FF44  _LY_REG                            
     0000FF45  _LYC_REG                           
     0000FF46  _DMA_REG                           
     0000FF47  _BGP_REG                           
     0000FF48  _OBP0_REG                          
     0000FF49  _OBP1_REG                          
     0000FF4A  _WY_REG                            
     0000FF4B  _WX_REG                            
     0000FF4D  _KEY1_REG                          
     0000FF4F  _VBK_REG                           
     0000FF51  _HDMA1_REG                         
     0000FF52  _HDMA2_REG                         
     0000FF53  _HDMA3_REG                         
     0000FF54  _HDMA4_REG                         
     0000FF55  _HDMA5_REG                         
     0000FF56  _RP_REG                            
     0000FF68  _BCPS_REG                          
     0000FF69  _BCPD_REG                          
     0000FF6A  _OCPS_REG                          
ASxxxx Linker V03.00/V05.40 + sdld,  page 4.
Hexadecimal  [32-Bits]

Area                                    Addr        Size        Decimal Bytes (Attributes)
--------------------------------        ----        ----        ------- ----- ------------
.  .ABS.                            00000000    00000000 =           0. bytes (ABS,CON)

      Value  Global                              Global Defined In Module
      -----  --------------------------------   ------------------------
     0000FF6B  _OCPD_REG                          
     0000FF70  _SVBK_REG                          
     0000FF76  _PCM12_REG                         
     0000FF77  _PCM34_REG                         
     0000FF80  __HRAM                             
     0000FF80  s__HRAM                         
     0000FFFF  _IE_REG                            
     00014000  s__CODE_1                       
     00024000  s__CODE_2                       

ASxxxx Linker V03.00/V05.40 + sdld,  page 5.
Hexadecimal  [32-Bits]

Area                                    Addr        Size        Decimal Bytes (Attributes)
--------------------------------        ----        ----        ------- ----- ------------
_CODE                               00000200    00002F3E =       12094. bytes (REL,CON)

      Value  Global                              Global Defined In Module
      -----  --------------------------------   ------------------------
     00000200  A$lcc187720$58                     buttons
     00000200  C$buttons.c$21$0_0$126             buttons
     00000200  C$buttons.c$22$1_0$126             buttons
     00000200  G$init_buttons_tileset$0$0         buttons
     00000200  _init_buttons_tileset              buttons
     00000203  A$lcc187720$59                     buttons
     00000204  A$lcc187720$60                     buttons
     00000207  A$lcc187720$61                     buttons
     00000208  A$lcc187720$62                     buttons
     0000020B  A$lcc187720$63                     buttons
     0000020D  A$lcc187720$71                     buttons
     0000020D  C$buttons.c$23$1_0$126             buttons
     0000020D  XG$init_buttons_tileset$0$0        buttons
     0000020E  G$buttons_tileset$0_0$0            buttons
     0000020E  _buttons_tileset                   buttons
     0000023E  G$buttons_tilemap$0_0$0            buttons
     0000023E  _buttons_tilemap                   buttons
     00000241  G$chars_tileset$0_0$0              chars
     00000241  _chars_tileset                     chars
     00000441  G$chars_tilemap$0_0$0              chars
     00000441  _chars_tilemap                     chars
     00000460  G$numbers_tileset$0_0$0            numbers
     00000460  _numbers_tileset                   numbers
     00000500  G$numbers_tilemap$0_0$0            numbers
     00000500  _numbers_tilemap                   numbers
     0000050A  G$gender_select_tilemap$0_0$0      gender_select_tilemap
     0000050A  _gender_select_tilemap             gender_select_tilemap
     00000672  G$gender_select_tileset$0_0$0      gender_select_tileset
     00000672  _gender_select_tileset             gender_select_tileset
     00000962  A$lcc187729$58                     npc_icons
     00000962  C$npc_icons.c$27$0_0$127           npc_icons
     00000962  C$npc_icons.c$28$1_0$127           npc_icons
     00000962  G$InitNPCIcons$0$0                 npc_icons
     00000962  _InitNPCIcons                      npc_icons
     00000965  A$lcc187729$59                     npc_icons
     00000966  A$lcc187729$60                     npc_icons
     00000969  A$lcc187729$61                     npc_icons
     0000096A  A$lcc187729$62                     npc_icons
     0000096D  A$lcc187729$63                     npc_icons
     0000096F  A$lcc187729$71                     npc_icons
     0000096F  C$npc_icons.c$29$1_0$127           npc_icons
     0000096F  XG$InitNPCIcons$0$0                npc_icons
     00000970  G$npc_icons_tileset$0_0$0          npc_icons
     00000970  _npc_icons_tileset                 npc_icons
     000009D0  G$npc_icons_tilemap$0_0$0          npc_icons
     000009D0  _npc_icons_tilemap                 npc_icons
     000009D6  G$text_frame_tileset$0_0$0         text_frame
     000009D6  _text_frame_tileset                text_frame
     00000B36  G$text_frame_tilemap$0_0$0         text_frame
     00000B36  _text_frame_tilemap                text_frame
ASxxxx Linker V03.00/V05.40 + sdld,  page 6.
Hexadecimal  [32-Bits]

Area                                    Addr        Size        Decimal Bytes (Attributes)
--------------------------------        ----        ----        ------- ----- ------------
_CODE                               00000200    00002F3E =       12094. bytes (REL,CON)

      Value  Global                              Global Defined In Module
      -----  --------------------------------   ------------------------
     00000B4F  A$lcc1877212$54                    text_frame_init
     00000B4F  C$text_frame_init.c$5$0_0$128      text_frame_init
     00000B4F  G$TextFrame_Init$0$0               text_frame_init
     00000B4F  _TextFrame_Init                    text_frame_init
     00000B51  A$lcc1877212$55                    text_frame_init
     00000B53  A$lcc1877212$56                    text_frame_init
     00000B54  A$lcc1877212$57                    text_frame_init
     00000B55  A$lcc1877212$61                    text_frame_init
     00000B55  C$text_frame_init.c$7$1_0$128      text_frame_init
     00000B58  A$lcc1877212$62                    text_frame_init
     00000B59  A$lcc1877212$63                    text_frame_init
     00000B5C  A$lcc1877212$64                    text_frame_init
     00000B5D  A$lcc1877212$65                    text_frame_init
     00000B60  A$lcc1877212$66                    text_frame_init
     00000B62  A$lcc1877212$70                    text_frame_init
     00000B62  C$text_frame_init.c$14$3_1$131     text_frame_init
     00000B64  A$lcc1877212$71                    text_frame_init
     00000B65  A$lcc1877212$72                    text_frame_init
     00000B66  A$lcc1877212$73                    text_frame_init
     00000B67  A$lcc1877212$78                    text_frame_init
     00000B67  C$text_frame_init.c$16$3_1$131     text_frame_init
     00000B69  A$lcc1877212$79                    text_frame_init
     00000B6A  A$lcc1877212$80                    text_frame_init
     00000B6B  A$lcc1877212$81                    text_frame_init
     00000B6C  A$lcc1877212$82                    text_frame_init
     00000B6D  A$lcc1877212$83                    text_frame_init
     00000B6E  A$lcc1877212$87                    text_frame_init
     00000B6E  C$text_frame_init.c$19$3_1$131     text_frame_init
     00000B6F  A$lcc1877212$88                    text_frame_init
     00000B70  A$lcc1877212$89                    text_frame_init
     00000B71  A$lcc1877212$90                    text_frame_init
     00000B73  A$lcc1877212$91                    text_frame_init
     00000B76  A$lcc1877212$92                    text_frame_init
     00000B77  A$lcc1877212$93                    text_frame_init
     00000B78  A$lcc1877212$94                    text_frame_init
     00000B7A  A$lcc1877212$95                    text_frame_init
     00000B7B  A$lcc1877212$96                    text_frame_init
     00000B7D  A$lcc1877212$97                    text_frame_init
     00000B7E  A$lcc1877212$98                    text_frame_init
     00000B80  A$lcc1877212$99                    text_frame_init
     00000B81  A$lcc1877212$100                   text_frame_init
     00000B82  A$lcc1877212$101                   text_frame_init
     00000B83  A$lcc1877212$102                   text_frame_init
     00000B84  A$lcc1877212$103                   text_frame_init
     00000B85  A$lcc1877212$104                   text_frame_init
     00000B87  A$lcc1877212$105                   text_frame_init
     00000B8A  A$lcc1877212$106                   text_frame_init
     00000B8B  A$lcc1877212$110                   text_frame_init
     00000B8B  C$text_frame_init.c$20$3_1$131     text_frame_init
     00000B8C  A$lcc1877212$111                   text_frame_init
     00000B8D  A$lcc1877212$112                   text_frame_init
ASxxxx Linker V03.00/V05.40 + sdld,  page 7.
Hexadecimal  [32-Bits]

Area                                    Addr        Size        Decimal Bytes (Attributes)
--------------------------------        ----        ----        ------- ----- ------------
_CODE                               00000200    00002F3E =       12094. bytes (REL,CON)

      Value  Global                              Global Defined In Module
      -----  --------------------------------   ------------------------
     00000B8F  A$lcc1877212$113                   text_frame_init
     00000B92  A$lcc1877212$114                   text_frame_init
     00000B93  A$lcc1877212$115                   text_frame_init
     00000B94  A$lcc1877212$116                   text_frame_init
     00000B96  A$lcc1877212$117                   text_frame_init
     00000B97  A$lcc1877212$118                   text_frame_init
     00000B98  A$lcc1877212$119                   text_frame_init
     00000B99  A$lcc1877212$120                   text_frame_init
     00000B9B  A$lcc1877212$121                   text_frame_init
     00000B9C  A$lcc1877212$122                   text_frame_init
     00000B9E  A$lcc1877212$123                   text_frame_init
     00000BA1  A$lcc1877212$124                   text_frame_init
     00000BA2  A$lcc1877212$128                   text_frame_init
     00000BA2  C$text_frame_init.c$23$3_2$132     text_frame_init
     00000BA3  A$lcc1877212$129                   text_frame_init
     00000BA4  A$lcc1877212$130                   text_frame_init
     00000BA5  A$lcc1877212$131                   text_frame_init
     00000BA7  A$lcc1877212$132                   text_frame_init
     00000BA8  A$lcc1877212$133                   text_frame_init
     00000BA9  A$lcc1877212$134                   text_frame_init
     00000BAB  A$lcc1877212$135                   text_frame_init
     00000BAE  A$lcc1877212$136                   text_frame_init
     00000BAF  A$lcc1877212$137                   text_frame_init
     00000BB0  A$lcc1877212$138                   text_frame_init
     00000BB2  A$lcc1877212$139                   text_frame_init
     00000BB4  A$lcc1877212$143                   text_frame_init
     00000BB4  C$text_frame_init.c$24$2_1$128     text_frame_init
     00000BB5  A$lcc1877212$144                   text_frame_init
     00000BB6  A$lcc1877212$145                   text_frame_init
     00000BB8  A$lcc1877212$147                   text_frame_init
     00000BBA  A$lcc1877212$148                   text_frame_init
     00000BBB  A$lcc1877212$149                   text_frame_init
     00000BBC  A$lcc1877212$150                   text_frame_init
     00000BBD  A$lcc1877212$151                   text_frame_init
     00000BBF  A$lcc1877212$155                   text_frame_init
     00000BBF  C$text_frame_init.c$26$5_2$134     text_frame_init
     00000BC0  A$lcc1877212$156                   text_frame_init
     00000BC1  A$lcc1877212$157                   text_frame_init
     00000BC2  A$lcc1877212$158                   text_frame_init
     00000BC3  A$lcc1877212$159                   text_frame_init
     00000BC4  A$lcc1877212$160                   text_frame_init
     00000BC5  A$lcc1877212$161                   text_frame_init
     00000BC6  A$lcc1877212$162                   text_frame_init
     00000BC7  A$lcc1877212$163                   text_frame_init
     00000BC8  A$lcc1877212$164                   text_frame_init
     00000BC9  A$lcc1877212$165                   text_frame_init
     00000BCA  A$lcc1877212$166                   text_frame_init
     00000BCC  A$lcc1877212$167                   text_frame_init
     00000BCD  A$lcc1877212$168                   text_frame_init
     00000BD0  A$lcc1877212$172                   text_frame_init
     00000BD0  C$text_frame_init.c$24$4_2$133     text_frame_init
ASxxxx Linker V03.00/V05.40 + sdld,  page 8.
Hexadecimal  [32-Bits]

Area                                    Addr        Size        Decimal Bytes (Attributes)
--------------------------------        ----        ----        ------- ----- ------------
_CODE                               00000200    00002F3E =       12094. bytes (REL,CON)

      Value  Global                              Global Defined In Module
      -----  --------------------------------   ------------------------
     00000BD2  A$lcc1877212$173                   text_frame_init
     00000BD3  A$lcc1877212$174                   text_frame_init
     00000BD5  A$lcc1877212$179                   text_frame_init
     00000BD5  C$text_frame_init.c$30$3_2$132     text_frame_init
     00000BD7  A$lcc1877212$180                   text_frame_init
     00000BD8  A$lcc1877212$181                   text_frame_init
     00000BD9  A$lcc1877212$182                   text_frame_init
     00000BDA  A$lcc1877212$183                   text_frame_init
     00000BDB  A$lcc1877212$184                   text_frame_init
     00000BDD  A$lcc1877212$185                   text_frame_init
     00000BE0  A$lcc1877212$186                   text_frame_init
     00000BE1  A$lcc1877212$187                   text_frame_init
     00000BE2  A$lcc1877212$188                   text_frame_init
     00000BE4  A$lcc1877212$189                   text_frame_init
     00000BE5  A$lcc1877212$190                   text_frame_init
     00000BE7  A$lcc1877212$191                   text_frame_init
     00000BE8  A$lcc1877212$192                   text_frame_init
     00000BE9  A$lcc1877212$193                   text_frame_init
     00000BEB  A$lcc1877212$194                   text_frame_init
     00000BED  A$lcc1877212$195                   text_frame_init
     00000BEE  A$lcc1877212$196                   text_frame_init
     00000BEF  A$lcc1877212$197                   text_frame_init
     00000BF0  A$lcc1877212$198                   text_frame_init
     00000BF1  A$lcc1877212$199                   text_frame_init
     00000BF3  A$lcc1877212$200                   text_frame_init
     00000BF4  A$lcc1877212$201                   text_frame_init
     00000BF6  A$lcc1877212$202                   text_frame_init
     00000BF7  A$lcc1877212$203                   text_frame_init
     00000BFA  A$lcc1877212$204                   text_frame_init
     00000BFB  A$lcc1877212$208                   text_frame_init
     00000BFB  C$text_frame_init.c$31$3_2$132     text_frame_init
     00000BFD  A$lcc1877212$209                   text_frame_init
     00000BFE  A$lcc1877212$210                   text_frame_init
     00000BFF  A$lcc1877212$211                   text_frame_init
     00000C01  A$lcc1877212$212                   text_frame_init
     00000C03  A$lcc1877212$213                   text_frame_init
     00000C04  A$lcc1877212$214                   text_frame_init
     00000C05  A$lcc1877212$215                   text_frame_init
     00000C07  A$lcc1877212$216                   text_frame_init
     00000C08  A$lcc1877212$217                   text_frame_init
     00000C09  A$lcc1877212$218                   text_frame_init
     00000C0B  A$lcc1877212$219                   text_frame_init
     00000C0D  A$lcc1877212$220                   text_frame_init
     00000C0E  A$lcc1877212$221                   text_frame_init
     00000C0F  A$lcc1877212$222                   text_frame_init
     00000C10  A$lcc1877212$223                   text_frame_init
     00000C12  A$lcc1877212$224                   text_frame_init
     00000C13  A$lcc1877212$225                   text_frame_init
     00000C15  A$lcc1877212$226                   text_frame_init
     00000C16  A$lcc1877212$227                   text_frame_init
     00000C19  A$lcc1877212$231                   text_frame_init
ASxxxx Linker V03.00/V05.40 + sdld,  page 9.
Hexadecimal  [32-Bits]

Area                                    Addr        Size        Decimal Bytes (Attributes)
--------------------------------        ----        ----        ------- ----- ------------
_CODE                               00000200    00002F3E =       12094. bytes (REL,CON)

      Value  Global                              Global Defined In Module
      -----  --------------------------------   ------------------------
     00000C19  C$text_frame_init.c$33$3_2$132     text_frame_init
     00000C1B  A$lcc1877212$232                   text_frame_init
     00000C1C  A$lcc1877212$236                   text_frame_init
     00000C1C  C$text_frame_init.c$14$2_1$130     text_frame_init
     00000C1D  A$lcc1877212$237                   text_frame_init
     00000C1E  A$lcc1877212$238                   text_frame_init
     00000C1F  A$lcc1877212$239                   text_frame_init
     00000C21  A$lcc1877212$240                   text_frame_init
     00000C24  A$lcc1877212$244                   text_frame_init
     00000C24  C$text_frame_init.c$37$3_1$136     text_frame_init
     00000C25  A$lcc1877212$245                   text_frame_init
     00000C26  A$lcc1877212$246                   text_frame_init
     00000C28  A$lcc1877212$248                   text_frame_init
     00000C29  A$lcc1877212$249                   text_frame_init
     00000C2B  A$lcc1877212$250                   text_frame_init
     00000C2C  A$lcc1877212$251                   text_frame_init
     00000C2E  A$lcc1877212$255                   text_frame_init
     00000C2E  C$text_frame_init.c$41$3_1$136     text_frame_init
     00000C31  A$lcc1877212$256                   text_frame_init
     00000C33  A$lcc1877212$257                   text_frame_init
     00000C34  A$lcc1877212$258                   text_frame_init
     00000C35  A$lcc1877212$259                   text_frame_init
     00000C37  A$lcc1877212$260                   text_frame_init
     00000C39  A$lcc1877212$261                   text_frame_init
     00000C3A  A$lcc1877212$262                   text_frame_init
     00000C3B  A$lcc1877212$263                   text_frame_init
     00000C3C  A$lcc1877212$264                   text_frame_init
     00000C3D  A$lcc1877212$265                   text_frame_init
     00000C3E  A$lcc1877212$266                   text_frame_init
     00000C40  A$lcc1877212$267                   text_frame_init
     00000C43  A$lcc1877212$268                   text_frame_init
     00000C44  A$lcc1877212$272                   text_frame_init
     00000C44  C$text_frame_init.c$42$3_1$136     text_frame_init
     00000C47  A$lcc1877212$273                   text_frame_init
     00000C49  A$lcc1877212$274                   text_frame_init
     00000C4A  A$lcc1877212$275                   text_frame_init
     00000C4B  A$lcc1877212$276                   text_frame_init
     00000C4C  A$lcc1877212$277                   text_frame_init
     00000C4E  A$lcc1877212$278                   text_frame_init
     00000C4F  A$lcc1877212$279                   text_frame_init
     00000C51  A$lcc1877212$280                   text_frame_init
     00000C54  A$lcc1877212$281                   text_frame_init
     00000C55  A$lcc1877212$285                   text_frame_init
     00000C55  C$text_frame_init.c$44$3_2$137     text_frame_init
     00000C58  A$lcc1877212$286                   text_frame_init
     00000C5A  A$lcc1877212$287                   text_frame_init
     00000C5C  A$lcc1877212$288                   text_frame_init
     00000C5D  A$lcc1877212$292                   text_frame_init
     00000C5D  C$text_frame_init.c$45$2_1$128     text_frame_init
     00000C5F  A$lcc1877212$294                   text_frame_init
     00000C60  A$lcc1877212$295                   text_frame_init
ASxxxx Linker V03.00/V05.40 + sdld,  page 10.
Hexadecimal  [32-Bits]

Area                                    Addr        Size        Decimal Bytes (Attributes)
--------------------------------        ----        ----        ------- ----- ------------
_CODE                               00000200    00002F3E =       12094. bytes (REL,CON)

      Value  Global                              Global Defined In Module
      -----  --------------------------------   ------------------------
     00000C62  A$lcc1877212$296                   text_frame_init
     00000C63  A$lcc1877212$297                   text_frame_init
     00000C65  A$lcc1877212$301                   text_frame_init
     00000C65  C$text_frame_init.c$47$5_2$139     text_frame_init
     00000C66  A$lcc1877212$302                   text_frame_init
     00000C68  A$lcc1877212$303                   text_frame_init
     00000C69  A$lcc1877212$304                   text_frame_init
     00000C6A  A$lcc1877212$305                   text_frame_init
     00000C6C  A$lcc1877212$306                   text_frame_init
     00000C6D  A$lcc1877212$307                   text_frame_init
     00000C6E  A$lcc1877212$308                   text_frame_init
     00000C6F  A$lcc1877212$309                   text_frame_init
     00000C71  A$lcc1877212$310                   text_frame_init
     00000C72  A$lcc1877212$311                   text_frame_init
     00000C75  A$lcc1877212$312                   text_frame_init
     00000C76  A$lcc1877212$313                   text_frame_init
     00000C77  A$lcc1877212$317                   text_frame_init
     00000C77  C$text_frame_init.c$45$4_2$138     text_frame_init
     00000C78  A$lcc1877212$318                   text_frame_init
     00000C7A  A$lcc1877212$323                   text_frame_init
     00000C7A  C$text_frame_init.c$50$3_2$137     text_frame_init
     00000C7D  A$lcc1877212$324                   text_frame_init
     00000C7F  A$lcc1877212$325                   text_frame_init
     00000C80  A$lcc1877212$326                   text_frame_init
     00000C81  A$lcc1877212$327                   text_frame_init
     00000C82  A$lcc1877212$328                   text_frame_init
     00000C84  A$lcc1877212$329                   text_frame_init
     00000C85  A$lcc1877212$330                   text_frame_init
     00000C87  A$lcc1877212$331                   text_frame_init
     00000C88  A$lcc1877212$332                   text_frame_init
     00000C8B  A$lcc1877212$333                   text_frame_init
     00000C8C  A$lcc1877212$337                   text_frame_init
     00000C8C  C$text_frame_init.c$51$3_2$137     text_frame_init
     00000C8F  A$lcc1877212$338                   text_frame_init
     00000C91  A$lcc1877212$339                   text_frame_init
     00000C92  A$lcc1877212$340                   text_frame_init
     00000C93  A$lcc1877212$341                   text_frame_init
     00000C94  A$lcc1877212$342                   text_frame_init
     00000C96  A$lcc1877212$343                   text_frame_init
     00000C97  A$lcc1877212$344                   text_frame_init
     00000C99  A$lcc1877212$345                   text_frame_init
     00000C9A  A$lcc1877212$346                   text_frame_init
     00000C9D  A$lcc1877212$347                   text_frame_init
     00000C9E  A$lcc1877212$351                   text_frame_init
     00000C9E  C$text_frame_init.c$53$3_2$137     text_frame_init
     00000C9F  A$lcc1877212$355                   text_frame_init
     00000C9F  C$text_frame_init.c$37$2_1$135     text_frame_init
     00000CA0  A$lcc1877212$356                   text_frame_init
     00000CA2  A$lcc1877212$361                   text_frame_init
     00000CA2  C$text_frame_init.c$57$2_1$128     text_frame_init
     00000CA4  A$lcc1877212$362                   text_frame_init
ASxxxx Linker V03.00/V05.40 + sdld,  page 11.
Hexadecimal  [32-Bits]

Area                                    Addr        Size        Decimal Bytes (Attributes)
--------------------------------        ----        ----        ------- ----- ------------
_CODE                               00000200    00002F3E =       12094. bytes (REL,CON)

      Value  Global                              Global Defined In Module
      -----  --------------------------------   ------------------------
     00000CA5  A$lcc1877212$363                   text_frame_init
     00000CA6  A$lcc1877212$364                   text_frame_init
     00000CA8  A$lcc1877212$369                   text_frame_init
     00000CA8  C$text_frame_init.c$59$3_1$141     text_frame_init
     00000CAA  A$lcc1877212$370                   text_frame_init
     00000CAB  A$lcc1877212$371                   text_frame_init
     00000CAD  A$lcc1877212$372                   text_frame_init
     00000CAE  A$lcc1877212$373                   text_frame_init
     00000CAF  A$lcc1877212$374                   text_frame_init
     00000CB0  A$lcc1877212$375                   text_frame_init
     00000CB1  A$lcc1877212$376                   text_frame_init
     00000CB2  A$lcc1877212$380                   text_frame_init
     00000CB2  C$text_frame_init.c$61$3_1$141     text_frame_init
     00000CB3  A$lcc1877212$381                   text_frame_init
     00000CB4  A$lcc1877212$382                   text_frame_init
     00000CB6  A$lcc1877212$383                   text_frame_init
     00000CB9  A$lcc1877212$384                   text_frame_init
     00000CBA  A$lcc1877212$385                   text_frame_init
     00000CBB  A$lcc1877212$386                   text_frame_init
     00000CBD  A$lcc1877212$387                   text_frame_init
     00000CBE  A$lcc1877212$388                   text_frame_init
     00000CC0  A$lcc1877212$389                   text_frame_init
     00000CC1  A$lcc1877212$390                   text_frame_init
     00000CC3  A$lcc1877212$391                   text_frame_init
     00000CC5  A$lcc1877212$392                   text_frame_init
     00000CC6  A$lcc1877212$393                   text_frame_init
     00000CC7  A$lcc1877212$394                   text_frame_init
     00000CC8  A$lcc1877212$395                   text_frame_init
     00000CC9  A$lcc1877212$396                   text_frame_init
     00000CCA  A$lcc1877212$397                   text_frame_init
     00000CCC  A$lcc1877212$398                   text_frame_init
     00000CCF  A$lcc1877212$399                   text_frame_init
     00000CD0  A$lcc1877212$403                   text_frame_init
     00000CD0  C$text_frame_init.c$62$3_1$141     text_frame_init
     00000CD1  A$lcc1877212$404                   text_frame_init
     00000CD2  A$lcc1877212$405                   text_frame_init
     00000CD4  A$lcc1877212$406                   text_frame_init
     00000CD7  A$lcc1877212$407                   text_frame_init
     00000CD8  A$lcc1877212$408                   text_frame_init
     00000CD9  A$lcc1877212$409                   text_frame_init
     00000CDB  A$lcc1877212$410                   text_frame_init
     00000CDC  A$lcc1877212$411                   text_frame_init
     00000CDD  A$lcc1877212$412                   text_frame_init
     00000CDE  A$lcc1877212$413                   text_frame_init
     00000CE0  A$lcc1877212$414                   text_frame_init
     00000CE1  A$lcc1877212$415                   text_frame_init
     00000CE3  A$lcc1877212$416                   text_frame_init
     00000CE6  A$lcc1877212$417                   text_frame_init
     00000CE7  A$lcc1877212$421                   text_frame_init
     00000CE7  C$text_frame_init.c$64$3_2$142     text_frame_init
     00000CE8  A$lcc1877212$422                   text_frame_init
ASxxxx Linker V03.00/V05.40 + sdld,  page 12.
Hexadecimal  [32-Bits]

Area                                    Addr        Size        Decimal Bytes (Attributes)
--------------------------------        ----        ----        ------- ----- ------------
_CODE                               00000200    00002F3E =       12094. bytes (REL,CON)

      Value  Global                              Global Defined In Module
      -----  --------------------------------   ------------------------
     00000CE9  A$lcc1877212$423                   text_frame_init
     00000CEA  A$lcc1877212$424                   text_frame_init
     00000CEC  A$lcc1877212$425                   text_frame_init
     00000CED  A$lcc1877212$426                   text_frame_init
     00000CEE  A$lcc1877212$427                   text_frame_init
     00000CF0  A$lcc1877212$428                   text_frame_init
     00000CF3  A$lcc1877212$429                   text_frame_init
     00000CF4  A$lcc1877212$430                   text_frame_init
     00000CF5  A$lcc1877212$431                   text_frame_init
     00000CF7  A$lcc1877212$432                   text_frame_init
     00000CF9  A$lcc1877212$433                   text_frame_init
     00000CFA  A$lcc1877212$437                   text_frame_init
     00000CFA  C$text_frame_init.c$65$2_1$128     text_frame_init
     00000CFC  A$lcc1877212$438                   text_frame_init
     00000CFE  A$lcc1877212$440                   text_frame_init
     00000D00  A$lcc1877212$441                   text_frame_init
     00000D01  A$lcc1877212$442                   text_frame_init
     00000D03  A$lcc1877212$443                   text_frame_init
     00000D04  A$lcc1877212$444                   text_frame_init
     00000D06  A$lcc1877212$448                   text_frame_init
     00000D06  C$text_frame_init.c$67$5_2$144     text_frame_init
     00000D08  A$lcc1877212$449                   text_frame_init
     00000D09  A$lcc1877212$450                   text_frame_init
     00000D0B  A$lcc1877212$451                   text_frame_init
     00000D0C  A$lcc1877212$452                   text_frame_init
     00000D0D  A$lcc1877212$453                   text_frame_init
     00000D0E  A$lcc1877212$454                   text_frame_init
     00000D0F  A$lcc1877212$455                   text_frame_init
     00000D10  A$lcc1877212$456                   text_frame_init
     00000D11  A$lcc1877212$457                   text_frame_init
     00000D12  A$lcc1877212$458                   text_frame_init
     00000D13  A$lcc1877212$459                   text_frame_init
     00000D15  A$lcc1877212$460                   text_frame_init
     00000D16  A$lcc1877212$461                   text_frame_init
     00000D19  A$lcc1877212$465                   text_frame_init
     00000D19  C$text_frame_init.c$65$4_2$143     text_frame_init
     00000D1B  A$lcc1877212$466                   text_frame_init
     00000D1C  A$lcc1877212$467                   text_frame_init
     00000D1E  A$lcc1877212$472                   text_frame_init
     00000D1E  C$text_frame_init.c$70$3_2$142     text_frame_init
     00000D20  A$lcc1877212$473                   text_frame_init
     00000D21  A$lcc1877212$474                   text_frame_init
     00000D22  A$lcc1877212$475                   text_frame_init
     00000D23  A$lcc1877212$476                   text_frame_init
     00000D24  A$lcc1877212$477                   text_frame_init
     00000D26  A$lcc1877212$478                   text_frame_init
     00000D29  A$lcc1877212$479                   text_frame_init
     00000D2A  A$lcc1877212$480                   text_frame_init
     00000D2B  A$lcc1877212$481                   text_frame_init
     00000D2D  A$lcc1877212$482                   text_frame_init
     00000D2E  A$lcc1877212$483                   text_frame_init
ASxxxx Linker V03.00/V05.40 + sdld,  page 13.
Hexadecimal  [32-Bits]

Area                                    Addr        Size        Decimal Bytes (Attributes)
--------------------------------        ----        ----        ------- ----- ------------
_CODE                               00000200    00002F3E =       12094. bytes (REL,CON)

      Value  Global                              Global Defined In Module
      -----  --------------------------------   ------------------------
     00000D2F  A$lcc1877212$484                   text_frame_init
     00000D30  A$lcc1877212$485                   text_frame_init
     00000D32  A$lcc1877212$486                   text_frame_init
     00000D33  A$lcc1877212$487                   text_frame_init
     00000D34  A$lcc1877212$488                   text_frame_init
     00000D35  A$lcc1877212$489                   text_frame_init
     00000D36  A$lcc1877212$490                   text_frame_init
     00000D39  A$lcc1877212$491                   text_frame_init
     00000D3A  A$lcc1877212$495                   text_frame_init
     00000D3A  C$text_frame_init.c$71$3_2$142     text_frame_init
     00000D3B  A$lcc1877212$496                   text_frame_init
     00000D3D  A$lcc1877212$497                   text_frame_init
     00000D40  A$lcc1877212$498                   text_frame_init
     00000D41  A$lcc1877212$499                   text_frame_init
     00000D42  A$lcc1877212$500                   text_frame_init
     00000D44  A$lcc1877212$501                   text_frame_init
     00000D45  A$lcc1877212$502                   text_frame_init
     00000D46  A$lcc1877212$503                   text_frame_init
     00000D48  A$lcc1877212$504                   text_frame_init
     00000D49  A$lcc1877212$505                   text_frame_init
     00000D4A  A$lcc1877212$506                   text_frame_init
     00000D4B  A$lcc1877212$507                   text_frame_init
     00000D4E  A$lcc1877212$511                   text_frame_init
     00000D4E  C$text_frame_init.c$73$3_2$142     text_frame_init
     00000D50  A$lcc1877212$512                   text_frame_init
     00000D51  A$lcc1877212$516                   text_frame_init
     00000D51  C$text_frame_init.c$57$2_1$140     text_frame_init
     00000D52  A$lcc1877212$517                   text_frame_init
     00000D53  A$lcc1877212$518                   text_frame_init
     00000D54  A$lcc1877212$519                   text_frame_init
     00000D56  A$lcc1877212$520                   text_frame_init
     00000D59  A$lcc1877212$524                   text_frame_init
     00000D5B  A$lcc1877212$529                   text_frame_init
     00000D5B  C$text_frame_init.c$75$2_1$128     text_frame_init
     00000D5B  XG$TextFrame_Init$0$0              text_frame_init
     00000D5C  G$spr_Branch$0_0$0                 spr_Branch
     00000D5C  _spr_Branch                        spr_Branch
     00000D6C  A$lcc1877225$59                    action
     00000D6C  C$action.c$11$0_0$171              action
     00000D6C  G$move_up$0$0                      action
     00000D6C  _move_up                           action
     00000D6E  A$lcc1877225$60                    action
     00000D70  A$lcc1877225$61                    action
     00000D71  A$lcc1877225$65                    action
     00000D71  C$action.c$13$2_0$172              action
     00000D74  A$lcc1877225$66                    action
     00000D76  A$lcc1877225$70                    action
     00000D76  C$action.c$14$2_0$172              action
     00000D78  A$lcc1877225$74                    action
     00000D78  C$action.c$16$1_0$171              action
     00000D7A  A$lcc1877225$75                    action
ASxxxx Linker V03.00/V05.40 + sdld,  page 14.
Hexadecimal  [32-Bits]

Area                                    Addr        Size        Decimal Bytes (Attributes)
--------------------------------        ----        ----        ------- ----- ------------
_CODE                               00000200    00002F3E =       12094. bytes (REL,CON)

      Value  Global                              Global Defined In Module
      -----  --------------------------------   ------------------------
     00000D7B  A$lcc1877225$76                    action
     00000D7C  A$lcc1877225$77                    action
     00000D7E  A$lcc1877225$78                    action
     00000D7F  A$lcc1877225$79                    action
     00000D81  A$lcc1877225$80                    action
     00000D83  A$lcc1877225$81                    action
     00000D84  A$lcc1877225$82                    action
     00000D85  A$lcc1877225$83                    action
     00000D86  A$lcc1877225$84                    action
     00000D87  A$lcc1877225$85                    action
     00000D88  A$lcc1877225$86                    action
     00000D89  A$lcc1877225$87                    action
     00000D8C  A$lcc1877225$88                    action
     00000D8D  A$lcc1877225$89                    action
     00000D8E  A$lcc1877225$90                    action
     00000D8F  A$lcc1877225$91                    action
     00000D90  A$lcc1877225$92                    action
     00000D92  A$lcc1877225$93                    action
     00000D93  A$lcc1877225$94                    action
     00000D94  A$lcc1877225$95                    action
     00000D95  A$lcc1877225$96                    action
     00000D96  A$lcc1877225$97                    action
     00000D97  A$lcc1877225$98                    action
     00000D98  A$lcc1877225$99                    action
     00000D99  A$lcc1877225$100                   action
     00000D9B  A$lcc1877225$101                   action
     00000D9C  A$lcc1877225$102                   action
     00000D9D  A$lcc1877225$103                   action
     00000D9E  A$lcc1877225$104                   action
     00000D9F  A$lcc1877225$105                   action
     00000DA0  A$lcc1877225$106                   action
     00000DA1  A$lcc1877225$107                   action
     00000DA2  A$lcc1877225$108                   action
     00000DA3  A$lcc1877225$109                   action
     00000DA4  A$lcc1877225$110                   action
     00000DA5  A$lcc1877225$111                   action
     00000DA6  A$lcc1877225$112                   action
     00000DA7  A$lcc1877225$113                   action
     00000DA8  A$lcc1877225$114                   action
     00000DA9  A$lcc1877225$115                   action
     00000DAB  A$lcc1877225$116                   action
     00000DAC  A$lcc1877225$117                   action
     00000DAD  A$lcc1877225$118                   action
     00000DAE  A$lcc1877225$119                   action
     00000DAF  A$lcc1877225$120                   action
     00000DB0  A$lcc1877225$124                   action
     00000DB0  C$action.c$17$1_0$171              action
     00000DB1  A$lcc1877225$125                   action
     00000DB2  A$lcc1877225$126                   action
     00000DB5  A$lcc1877225$127                   action
     00000DB6  A$lcc1877225$128                   action
ASxxxx Linker V03.00/V05.40 + sdld,  page 15.
Hexadecimal  [32-Bits]

Area                                    Addr        Size        Decimal Bytes (Attributes)
--------------------------------        ----        ----        ------- ----- ------------
_CODE                               00000200    00002F3E =       12094. bytes (REL,CON)

      Value  Global                              Global Defined In Module
      -----  --------------------------------   ------------------------
     00000DB8  A$lcc1877225$129                   action
     00000DB9  A$lcc1877225$130                   action
     00000DBA  A$lcc1877225$131                   action
     00000DBB  A$lcc1877225$132                   action
     00000DBD  A$lcc1877225$133                   action
     00000DBE  A$lcc1877225$134                   action
     00000DBF  A$lcc1877225$139                   action
     00000DC1  A$lcc1877225$144                   action
     00000DC1  C$action.c$18$1_0$171              action
     00000DC1  XG$move_up$0$0                     action
     00000DC2  A$lcc1877225$154                   action
     00000DC2  C$action.c$20$1_0$174              action
     00000DC2  G$move_down$0$0                    action
     00000DC2  _move_down                         action
     00000DC4  A$lcc1877225$155                   action
     00000DC6  A$lcc1877225$156                   action
     00000DC7  A$lcc1877225$160                   action
     00000DC7  C$action.c$22$2_0$175              action
     00000DCA  A$lcc1877225$161                   action
     00000DCC  A$lcc1877225$165                   action
     00000DCC  C$action.c$23$2_0$175              action
     00000DCE  A$lcc1877225$169                   action
     00000DCE  C$action.c$25$1_0$174              action
     00000DD0  A$lcc1877225$170                   action
     00000DD1  A$lcc1877225$171                   action
     00000DD2  A$lcc1877225$172                   action
     00000DD4  A$lcc1877225$173                   action
     00000DD5  A$lcc1877225$174                   action
     00000DD7  A$lcc1877225$175                   action
     00000DD9  A$lcc1877225$176                   action
     00000DDA  A$lcc1877225$177                   action
     00000DDB  A$lcc1877225$178                   action
     00000DDC  A$lcc1877225$179                   action
     00000DDD  A$lcc1877225$180                   action
     00000DDE  A$lcc1877225$181                   action
     00000DDF  A$lcc1877225$182                   action
     00000DE2  A$lcc1877225$183                   action
     00000DE3  A$lcc1877225$184                   action
     00000DE4  A$lcc1877225$185                   action
     00000DE5  A$lcc1877225$186                   action
     00000DE6  A$lcc1877225$187                   action
     00000DE8  A$lcc1877225$188                   action
     00000DE9  A$lcc1877225$189                   action
     00000DEA  A$lcc1877225$190                   action
     00000DEB  A$lcc1877225$191                   action
     00000DEC  A$lcc1877225$192                   action
     00000DED  A$lcc1877225$193                   action
     00000DEE  A$lcc1877225$194                   action
     00000DEF  A$lcc1877225$195                   action
     00000DF1  A$lcc1877225$196                   action
     00000DF2  A$lcc1877225$197                   action
ASxxxx Linker V03.00/V05.40 + sdld,  page 16.
Hexadecimal  [32-Bits]

Area                                    Addr        Size        Decimal Bytes (Attributes)
--------------------------------        ----        ----        ------- ----- ------------
_CODE                               00000200    00002F3E =       12094. bytes (REL,CON)

      Value  Global                              Global Defined In Module
      -----  --------------------------------   ------------------------
     00000DF3  A$lcc1877225$198                   action
     00000DF4  A$lcc1877225$199                   action
     00000DF5  A$lcc1877225$200                   action
     00000DF6  A$lcc1877225$201                   action
     00000DF7  A$lcc1877225$202                   action
     00000DF8  A$lcc1877225$203                   action
     00000DF9  A$lcc1877225$204                   action
     00000DFA  A$lcc1877225$205                   action
     00000DFB  A$lcc1877225$206                   action
     00000DFC  A$lcc1877225$207                   action
     00000DFD  A$lcc1877225$208                   action
     00000DFE  A$lcc1877225$209                   action
     00000DFF  A$lcc1877225$210                   action
     00000E00  A$lcc1877225$211                   action
     00000E01  A$lcc1877225$212                   action
     00000E02  A$lcc1877225$216                   action
     00000E02  C$action.c$26$1_0$174              action
     00000E05  A$lcc1877225$217                   action
     00000E07  A$lcc1877225$218                   action
     00000E08  A$lcc1877225$219                   action
     00000E0A  A$lcc1877225$220                   action
     00000E0B  A$lcc1877225$221                   action
     00000E0C  A$lcc1877225$222                   action
     00000E0D  A$lcc1877225$223                   action
     00000E0E  A$lcc1877225$224                   action
     00000E0F  A$lcc1877225$229                   action
     00000E11  A$lcc1877225$234                   action
     00000E11  C$action.c$27$1_0$174              action
     00000E11  XG$move_down$0$0                   action
     00000E12  A$lcc1877225$244                   action
     00000E12  C$action.c$29$1_0$177              action
     00000E12  G$move_left$0$0                    action
     00000E12  _move_left                         action
     00000E14  A$lcc1877225$245                   action
     00000E16  A$lcc1877225$246                   action
     00000E17  A$lcc1877225$250                   action
     00000E17  C$action.c$31$2_0$178              action
     00000E1A  A$lcc1877225$251                   action
     00000E1C  A$lcc1877225$255                   action
     00000E1C  C$action.c$32$2_0$178              action
     00000E1E  A$lcc1877225$259                   action
     00000E1E  C$action.c$34$1_0$177              action
     00000E20  A$lcc1877225$260                   action
     00000E21  A$lcc1877225$261                   action
     00000E22  A$lcc1877225$262                   action
     00000E24  A$lcc1877225$263                   action
     00000E25  A$lcc1877225$264                   action
     00000E27  A$lcc1877225$265                   action
     00000E29  A$lcc1877225$266                   action
     00000E2A  A$lcc1877225$267                   action
     00000E2B  A$lcc1877225$268                   action
ASxxxx Linker V03.00/V05.40 + sdld,  page 17.
Hexadecimal  [32-Bits]

Area                                    Addr        Size        Decimal Bytes (Attributes)
--------------------------------        ----        ----        ------- ----- ------------
_CODE                               00000200    00002F3E =       12094. bytes (REL,CON)

      Value  Global                              Global Defined In Module
      -----  --------------------------------   ------------------------
     00000E2C  A$lcc1877225$269                   action
     00000E2D  A$lcc1877225$270                   action
     00000E2E  A$lcc1877225$271                   action
     00000E2F  A$lcc1877225$272                   action
     00000E32  A$lcc1877225$273                   action
     00000E33  A$lcc1877225$274                   action
     00000E34  A$lcc1877225$275                   action
     00000E35  A$lcc1877225$276                   action
     00000E36  A$lcc1877225$277                   action
     00000E38  A$lcc1877225$278                   action
     00000E39  A$lcc1877225$279                   action
     00000E3A  A$lcc1877225$280                   action
     00000E3B  A$lcc1877225$281                   action
     00000E3C  A$lcc1877225$282                   action
     00000E3D  A$lcc1877225$283                   action
     00000E3E  A$lcc1877225$284                   action
     00000E3F  A$lcc1877225$285                   action
     00000E41  A$lcc1877225$286                   action
     00000E42  A$lcc1877225$287                   action
     00000E43  A$lcc1877225$288                   action
     00000E44  A$lcc1877225$289                   action
     00000E45  A$lcc1877225$290                   action
     00000E46  A$lcc1877225$291                   action
     00000E47  A$lcc1877225$292                   action
     00000E48  A$lcc1877225$293                   action
     00000E49  A$lcc1877225$294                   action
     00000E4A  A$lcc1877225$295                   action
     00000E4B  A$lcc1877225$296                   action
     00000E4C  A$lcc1877225$297                   action
     00000E4D  A$lcc1877225$298                   action
     00000E4E  A$lcc1877225$299                   action
     00000E4F  A$lcc1877225$300                   action
     00000E51  A$lcc1877225$301                   action
     00000E52  A$lcc1877225$302                   action
     00000E53  A$lcc1877225$303                   action
     00000E54  A$lcc1877225$304                   action
     00000E55  A$lcc1877225$305                   action
     00000E56  A$lcc1877225$309                   action
     00000E56  C$action.c$35$1_0$177              action
     00000E57  A$lcc1877225$310                   action
     00000E58  A$lcc1877225$311                   action
     00000E5B  A$lcc1877225$312                   action
     00000E5C  A$lcc1877225$313                   action
     00000E5E  A$lcc1877225$314                   action
     00000E5F  A$lcc1877225$315                   action
     00000E60  A$lcc1877225$316                   action
     00000E61  A$lcc1877225$317                   action
     00000E63  A$lcc1877225$318                   action
     00000E64  A$lcc1877225$319                   action
     00000E65  A$lcc1877225$324                   action
     00000E67  A$lcc1877225$329                   action
ASxxxx Linker V03.00/V05.40 + sdld,  page 18.
Hexadecimal  [32-Bits]

Area                                    Addr        Size        Decimal Bytes (Attributes)
--------------------------------        ----        ----        ------- ----- ------------
_CODE                               00000200    00002F3E =       12094. bytes (REL,CON)

      Value  Global                              Global Defined In Module
      -----  --------------------------------   ------------------------
     00000E67  C$action.c$36$1_0$177              action
     00000E67  XG$move_left$0$0                   action
     00000E68  A$lcc1877225$339                   action
     00000E68  C$action.c$38$1_0$180              action
     00000E68  G$move_right$0$0                   action
     00000E68  _move_right                        action
     00000E6A  A$lcc1877225$340                   action
     00000E6C  A$lcc1877225$341                   action
     00000E6D  A$lcc1877225$345                   action
     00000E6D  C$action.c$40$2_0$181              action
     00000E70  A$lcc1877225$346                   action
     00000E72  A$lcc1877225$350                   action
     00000E72  C$action.c$41$2_0$181              action
     00000E74  A$lcc1877225$354                   action
     00000E74  C$action.c$43$1_0$180              action
     00000E76  A$lcc1877225$355                   action
     00000E77  A$lcc1877225$356                   action
     00000E78  A$lcc1877225$357                   action
     00000E7A  A$lcc1877225$358                   action
     00000E7B  A$lcc1877225$359                   action
     00000E7D  A$lcc1877225$360                   action
     00000E7F  A$lcc1877225$361                   action
     00000E80  A$lcc1877225$362                   action
     00000E81  A$lcc1877225$363                   action
     00000E82  A$lcc1877225$364                   action
     00000E83  A$lcc1877225$365                   action
     00000E84  A$lcc1877225$366                   action
     00000E85  A$lcc1877225$367                   action
     00000E88  A$lcc1877225$368                   action
     00000E89  A$lcc1877225$369                   action
     00000E8A  A$lcc1877225$370                   action
     00000E8B  A$lcc1877225$371                   action
     00000E8C  A$lcc1877225$372                   action
     00000E8E  A$lcc1877225$373                   action
     00000E8F  A$lcc1877225$374                   action
     00000E90  A$lcc1877225$375                   action
     00000E91  A$lcc1877225$376                   action
     00000E92  A$lcc1877225$377                   action
     00000E93  A$lcc1877225$378                   action
     00000E94  A$lcc1877225$379                   action
     00000E95  A$lcc1877225$380                   action
     00000E97  A$lcc1877225$381                   action
     00000E98  A$lcc1877225$382                   action
     00000E99  A$lcc1877225$383                   action
     00000E9A  A$lcc1877225$384                   action
     00000E9B  A$lcc1877225$385                   action
     00000E9C  A$lcc1877225$386                   action
     00000E9D  A$lcc1877225$387                   action
     00000E9E  A$lcc1877225$388                   action
     00000E9F  A$lcc1877225$389                   action
     00000EA0  A$lcc1877225$390                   action
ASxxxx Linker V03.00/V05.40 + sdld,  page 19.
Hexadecimal  [32-Bits]

Area                                    Addr        Size        Decimal Bytes (Attributes)
--------------------------------        ----        ----        ------- ----- ------------
_CODE                               00000200    00002F3E =       12094. bytes (REL,CON)

      Value  Global                              Global Defined In Module
      -----  --------------------------------   ------------------------
     00000EA1  A$lcc1877225$391                   action
     00000EA2  A$lcc1877225$392                   action
     00000EA3  A$lcc1877225$393                   action
     00000EA4  A$lcc1877225$394                   action
     00000EA5  A$lcc1877225$395                   action
     00000EA6  A$lcc1877225$396                   action
     00000EA7  A$lcc1877225$397                   action
     00000EA8  A$lcc1877225$401                   action
     00000EA8  C$action.c$44$1_0$180              action
     00000EA9  A$lcc1877225$402                   action
     00000EAC  A$lcc1877225$403                   action
     00000EAE  A$lcc1877225$404                   action
     00000EAF  A$lcc1877225$405                   action
     00000EB1  A$lcc1877225$406                   action
     00000EB2  A$lcc1877225$407                   action
     00000EB3  A$lcc1877225$408                   action
     00000EB4  A$lcc1877225$409                   action
     00000EB5  A$lcc1877225$410                   action
     00000EB6  A$lcc1877225$411                   action
     00000EB7  A$lcc1877225$416                   action
     00000EB9  A$lcc1877225$421                   action
     00000EB9  C$action.c$45$1_0$180              action
     00000EB9  XG$move_right$0$0                  action
     00000EBA  A$lcc1877226$59                    animation
     00000EBA  C$animation.c$7$0_0$137            animation
     00000EBA  G$init_animation$0$0               animation
     00000EBA  _init_animation                    animation
     00000EBC  A$lcc1877226$60                    animation
     00000EBE  A$lcc1877226$61                    animation
     00000EBF  A$lcc1877226$62                    animation
     00000EC0  A$lcc1877226$63                    animation
     00000EC1  A$lcc1877226$64                    animation
     00000EC2  A$lcc1877226$65                    animation
     00000EC3  A$lcc1877226$69                    animation
     00000EC3  C$animation.c$12$1_0$137           animation
     00000EC5  A$lcc1877226$70                    animation
     00000EC6  A$lcc1877226$71                    animation
     00000EC7  A$lcc1877226$72                    animation
     00000EC8  A$lcc1877226$73                    animation
     00000EC9  A$lcc1877226$74                    animation
     00000ECA  A$lcc1877226$75                    animation
     00000ECB  A$lcc1877226$76                    animation
     00000ECD  A$lcc1877226$77                    animation
     00000ECF  A$lcc1877226$78                    animation
     00000ED0  A$lcc1877226$79                    animation
     00000ED1  A$lcc1877226$80                    animation
     00000ED2  A$lcc1877226$81                    animation
     00000ED3  A$lcc1877226$82                    animation
     00000ED4  A$lcc1877226$83                    animation
     00000ED5  A$lcc1877226$87                    animation
     00000ED5  C$animation.c$14$1_0$137           animation
ASxxxx Linker V03.00/V05.40 + sdld,  page 20.
Hexadecimal  [32-Bits]

Area                                    Addr        Size        Decimal Bytes (Attributes)
--------------------------------        ----        ----        ------- ----- ------------
_CODE                               00000200    00002F3E =       12094. bytes (REL,CON)

      Value  Global                              Global Defined In Module
      -----  --------------------------------   ------------------------
     00000ED6  A$lcc1877226$88                    animation
     00000ED7  A$lcc1877226$89                    animation
     00000ED8  A$lcc1877226$90                    animation
     00000EDA  A$lcc1877226$91                    animation
     00000EDB  A$lcc1877226$92                    animation
     00000EDC  A$lcc1877226$96                    animation
     00000EDC  C$animation.c$15$1_0$137           animation
     00000EDD  A$lcc1877226$97                    animation
     00000EDE  A$lcc1877226$98                    animation
     00000EDF  A$lcc1877226$99                    animation
     00000EE0  A$lcc1877226$100                   animation
     00000EE1  A$lcc1877226$101                   animation
     00000EE2  A$lcc1877226$102                   animation
     00000EE4  A$lcc1877226$103                   animation
     00000EE5  A$lcc1877226$104                   animation
     00000EE6  A$lcc1877226$105                   animation
     00000EE7  A$lcc1877226$109                   animation
     00000EE7  C$animation.c$16$1_0$137           animation
     00000EEA  A$lcc1877226$110                   animation
     00000EEB  A$lcc1877226$111                   animation
     00000EED  A$lcc1877226$115                   animation
     00000EED  C$animation.c$17$1_0$137           animation
     00000EEE  A$lcc1877226$116                   animation
     00000EEF  A$lcc1877226$117                   animation
     00000EF0  A$lcc1877226$118                   animation
     00000EF1  A$lcc1877226$119                   animation
     00000EF3  A$lcc1877226$123                   animation
     00000EF3  C$animation.c$18$1_0$137           animation
     00000EF6  A$lcc1877226$124                   animation
     00000EF7  A$lcc1877226$125                   animation
     00000EF8  A$lcc1877226$126                   animation
     00000EFA  A$lcc1877226$127                   animation
     00000EFB  A$lcc1877226$128                   animation
     00000EFC  A$lcc1877226$129                   animation
     00000EFD  A$lcc1877226$133                   animation
     00000EFD  C$animation.c$21$1_0$137           animation
     00000EFE  A$lcc1877226$134                   animation
     00000EFF  A$lcc1877226$135                   animation
     00000F00  A$lcc1877226$136                   animation
     00000F01  A$lcc1877226$137                   animation
     00000F03  A$lcc1877226$138                   animation
     00000F04  A$lcc1877226$139                   animation
     00000F05  A$lcc1877226$140                   animation
     00000F06  A$lcc1877226$141                   animation
     00000F07  A$lcc1877226$142                   animation
     00000F0A  A$lcc1877226$143                   animation
     00000F0B  A$lcc1877226$144                   animation
     00000F0C  A$lcc1877226$145                   animation
     00000F0D  A$lcc1877226$146                   animation
     00000F0F  A$lcc1877226$147                   animation
     00000F10  A$lcc1877226$148                   animation
ASxxxx Linker V03.00/V05.40 + sdld,  page 21.
Hexadecimal  [32-Bits]

Area                                    Addr        Size        Decimal Bytes (Attributes)
--------------------------------        ----        ----        ------- ----- ------------
_CODE                               00000200    00002F3E =       12094. bytes (REL,CON)

      Value  Global                              Global Defined In Module
      -----  --------------------------------   ------------------------
     00000F11  A$lcc1877226$149                   animation
     00000F12  A$lcc1877226$150                   animation
     00000F14  A$lcc1877226$151                   animation
     00000F15  A$lcc1877226$152                   animation
     00000F18  A$lcc1877226$153                   animation
     00000F19  A$lcc1877226$154                   animation
     00000F1A  A$lcc1877226$155                   animation
     00000F1B  A$lcc1877226$156                   animation
     00000F1C  A$lcc1877226$160                   animation
     00000F1C  C$animation.c$24$2_0$137           animation
     00000F1E  A$lcc1877226$162                   animation
     00000F1F  A$lcc1877226$163                   animation
     00000F20  A$lcc1877226$164                   animation
     00000F21  A$lcc1877226$165                   animation
     00000F22  A$lcc1877226$166                   animation
     00000F24  A$lcc1877226$167                   animation
     00000F25  A$lcc1877226$168                   animation
     00000F27  A$lcc1877226$173                   animation
     00000F27  C$animation.c$32$2_0$140           animation
     00000F29  A$lcc1877226$174                   animation
     00000F2A  A$lcc1877226$175                   animation
     00000F2B  A$lcc1877226$176                   animation
     00000F2C  A$lcc1877226$177                   animation
     00000F2F  A$lcc1877226$178                   animation
     00000F30  A$lcc1877226$179                   animation
     00000F31  A$lcc1877226$180                   animation
     00000F32  A$lcc1877226$181                   animation
     00000F33  A$lcc1877226$182                   animation
     00000F34  A$lcc1877226$183                   animation
     00000F36  A$lcc1877226$187                   animation
     00000F36  C$animation.c$33$2_0$140           animation
     00000F38  A$lcc1877226$188                   animation
     00000F39  A$lcc1877226$189                   animation
     00000F3A  A$lcc1877226$194                   animation
     00000F3A  C$animation.c$34$2_0$137           animation
     00000F3C  A$lcc1877226$195                   animation
     00000F3D  A$lcc1877226$196                   animation
     00000F3F  A$lcc1877226$197                   animation
     00000F40  A$lcc1877226$207                   animation
     00000F40  C$animation.c$36$2_0$142           animation
     00000F40  G$update_animation$0$0             animation
     00000F40  _update_animation                  animation
     00000F41  A$lcc1877226$208                   animation
     00000F42  A$lcc1877226$209                   animation
     00000F43  A$lcc1877226$210                   animation
     00000F44  A$lcc1877226$214                   animation
     00000F44  C$animation.c$38$1_0$142           animation
     00000F47  A$lcc1877226$215                   animation
     00000F48  A$lcc1877226$216                   animation
     00000F49  A$lcc1877226$217                   animation
     00000F4A  A$lcc1877226$218                   animation
ASxxxx Linker V03.00/V05.40 + sdld,  page 22.
Hexadecimal  [32-Bits]

Area                                    Addr        Size        Decimal Bytes (Attributes)
--------------------------------        ----        ----        ------- ----- ------------
_CODE                               00000200    00002F3E =       12094. bytes (REL,CON)

      Value  Global                              Global Defined In Module
      -----  --------------------------------   ------------------------
     00000F4B  A$lcc1877226$219                   animation
     00000F4C  A$lcc1877226$220                   animation
     00000F4D  A$lcc1877226$221                   animation
     00000F4E  A$lcc1877226$222                   animation
     00000F4F  A$lcc1877226$223                   animation
     00000F51  A$lcc1877226$224                   animation
     00000F52  A$lcc1877226$225                   animation
     00000F53  A$lcc1877226$229                   animation
     00000F53  C$animation.c$40$1_0$142           animation
     00000F56  A$lcc1877226$230                   animation
     00000F57  A$lcc1877226$231                   animation
     00000F58  A$lcc1877226$232                   animation
     00000F59  A$lcc1877226$233                   animation
     00000F5A  A$lcc1877226$234                   animation
     00000F5B  A$lcc1877226$235                   animation
     00000F5D  A$lcc1877226$236                   animation
     00000F5E  A$lcc1877226$237                   animation
     00000F5F  A$lcc1877226$241                   animation
     00000F5F  C$animation.c$41$2_0$143           animation
     00000F60  A$lcc1877226$242                   animation
     00000F61  A$lcc1877226$243                   animation
     00000F62  A$lcc1877226$244                   animation
     00000F63  A$lcc1877226$245                   animation
     00000F64  A$lcc1877226$246                   animation
     00000F65  A$lcc1877226$247                   animation
     00000F67  A$lcc1877226$248                   animation
     00000F68  A$lcc1877226$249                   animation
     00000F6A  A$lcc1877226$250                   animation
     00000F6B  A$lcc1877226$251                   animation
     00000F6C  A$lcc1877226$252                   animation
     00000F6E  A$lcc1877226$256                   animation
     00000F6E  C$animation.c$43$3_0$144           animation
     00000F6F  A$lcc1877226$257                   animation
     00000F70  A$lcc1877226$261                   animation
     00000F70  C$animation.c$44$3_0$144           animation
     00000F71  A$lcc1877226$262                   animation
     00000F72  A$lcc1877226$263                   animation
     00000F73  A$lcc1877226$264                   animation
     00000F74  A$lcc1877226$265                   animation
     00000F75  A$lcc1877226$266                   animation
     00000F76  A$lcc1877226$270                   animation
     00000F76  C$animation.c$45$4_0$145           animation
     00000F77  A$lcc1877226$271                   animation
     00000F78  A$lcc1877226$272                   animation
     00000F79  A$lcc1877226$273                   animation
     00000F7A  A$lcc1877226$274                   animation
     00000F7B  A$lcc1877226$275                   animation
     00000F7D  A$lcc1877226$279                   animation
     00000F7D  C$animation.c$46$4_0$145           animation
     00000F7F  A$lcc1877226$284                   animation
     00000F80  A$lcc1877226$285                   animation
ASxxxx Linker V03.00/V05.40 + sdld,  page 23.
Hexadecimal  [32-Bits]

Area                                    Addr        Size        Decimal Bytes (Attributes)
--------------------------------        ----        ----        ------- ----- ------------
_CODE                               00000200    00002F3E =       12094. bytes (REL,CON)

      Value  Global                              Global Defined In Module
      -----  --------------------------------   ------------------------
     00000F81  A$lcc1877226$290                   animation
     00000F81  C$animation.c$48$2_0$142           animation
     00000F81  XG$update_animation$0$0            animation
     00000F82  A$lcc1877226$300                   animation
     00000F82  C$animation.c$50$2_0$147           animation
     00000F82  G$set_animation$0$0                animation
     00000F82  _set_animation                     animation
     00000F83  A$lcc1877226$301                   animation
     00000F84  A$lcc1877226$302                   animation
     00000F85  A$lcc1877226$306                   animation
     00000F85  C$animation.c$52$2_0$148           animation
     00000F86  A$lcc1877226$307                   animation
     00000F88  A$lcc1877226$308                   animation
     00000F89  A$lcc1877226$309                   animation
     00000F8A  A$lcc1877226$310                   animation
     00000F8C  A$lcc1877226$311                   animation
     00000F8D  A$lcc1877226$312                   animation
     00000F8E  A$lcc1877226$313                   animation
     00000F8F  A$lcc1877226$314                   animation
     00000F90  A$lcc1877226$321                   animation
     00000F90  C$animation.c$53$2_0$148           animation
     00000F90  C$animation.c$55$1_0$147           animation
     00000F91  A$lcc1877226$322                   animation
     00000F92  A$lcc1877226$326                   animation
     00000F92  C$animation.c$56$1_1$149           animation
     00000F93  A$lcc1877226$327                   animation
     00000F94  A$lcc1877226$328                   animation
     00000F95  A$lcc1877226$329                   animation
     00000F96  A$lcc1877226$330                   animation
     00000F98  A$lcc1877226$331                   animation
     00000F99  A$lcc1877226$335                   animation
     00000F99  C$animation.c$57$1_1$149           animation
     00000F9A  A$lcc1877226$336                   animation
     00000F9B  A$lcc1877226$337                   animation
     00000F9C  A$lcc1877226$338                   animation
     00000F9D  A$lcc1877226$339                   animation
     00000F9E  A$lcc1877226$340                   animation
     00000F9F  A$lcc1877226$344                   animation
     00000F9F  C$animation.c$58$1_1$149           animation
     00000FA2  A$lcc1877226$345                   animation
     00000FA3  A$lcc1877226$346                   animation
     00000FA5  A$lcc1877226$354                   animation
     00000FA5  C$animation.c$59$1_1$147           animation
     00000FA5  XG$set_animation$0$0               animation
     00000FA6  A$lcc1877228$52                    char_to_tile
     00000FA6  C$char_to_tile.c$3$0_0$3           char_to_tile
     00000FA6  G$char_to_tile$0$0                 char_to_tile
     00000FA6  _char_to_tile                      char_to_tile
     00000FA8  A$lcc1877228$53                    char_to_tile
     00000FAA  A$lcc1877228$54                    char_to_tile
     00000FAB  A$lcc1877228$58                    char_to_tile
ASxxxx Linker V03.00/V05.40 + sdld,  page 24.
Hexadecimal  [32-Bits]

Area                                    Addr        Size        Decimal Bytes (Attributes)
--------------------------------        ----        ----        ------- ----- ------------
_CODE                               00000200    00002F3E =       12094. bytes (REL,CON)

      Value  Global                              Global Defined In Module
      -----  --------------------------------   ------------------------
     00000FAB  C$char_to_tile.c$4$2_0$3           char_to_tile
     00000FAD  A$lcc1877228$59                    char_to_tile
     00000FAF  A$lcc1877228$60                    char_to_tile
     00000FB0  A$lcc1877228$61                    char_to_tile
     00000FB2  A$lcc1877228$62                    char_to_tile
     00000FB3  A$lcc1877228$63                    char_to_tile
     00000FB5  A$lcc1877228$64                    char_to_tile
     00000FB6  A$lcc1877228$65                    char_to_tile
     00000FB8  A$lcc1877228$66                    char_to_tile
     00000FB9  A$lcc1877228$67                    char_to_tile
     00000FBB  A$lcc1877228$68                    char_to_tile
     00000FBC  A$lcc1877228$69                    char_to_tile
     00000FBE  A$lcc1877228$70                    char_to_tile
     00000FBF  A$lcc1877228$71                    char_to_tile
     00000FC1  A$lcc1877228$72                    char_to_tile
     00000FC2  A$lcc1877228$73                    char_to_tile
     00000FC4  A$lcc1877228$74                    char_to_tile
     00000FC5  A$lcc1877228$75                    char_to_tile
     00000FC7  A$lcc1877228$76                    char_to_tile
     00000FC8  A$lcc1877228$77                    char_to_tile
     00000FCA  A$lcc1877228$78                    char_to_tile
     00000FCB  A$lcc1877228$79                    char_to_tile
     00000FCD  A$lcc1877228$80                    char_to_tile
     00000FCE  A$lcc1877228$81                    char_to_tile
     00000FD0  A$lcc1877228$82                    char_to_tile
     00000FD1  A$lcc1877228$83                    char_to_tile
     00000FD3  A$lcc1877228$84                    char_to_tile
     00000FD4  A$lcc1877228$85                    char_to_tile
     00000FD6  A$lcc1877228$86                    char_to_tile
     00000FD7  A$lcc1877228$87                    char_to_tile
     00000FD9  A$lcc1877228$88                    char_to_tile
     00000FDA  A$lcc1877228$89                    char_to_tile
     00000FDC  A$lcc1877228$90                    char_to_tile
     00000FDD  A$lcc1877228$91                    char_to_tile
     00000FDF  A$lcc1877228$92                    char_to_tile
     00000FE0  A$lcc1877228$93                    char_to_tile
     00000FE2  A$lcc1877228$94                    char_to_tile
     00000FE3  A$lcc1877228$95                    char_to_tile
     00000FE5  A$lcc1877228$96                    char_to_tile
     00000FE6  A$lcc1877228$97                    char_to_tile
     00000FE8  A$lcc1877228$98                    char_to_tile
     00000FE9  A$lcc1877228$99                    char_to_tile
     00000FEB  A$lcc1877228$100                   char_to_tile
     00000FEC  A$lcc1877228$101                   char_to_tile
     00000FEE  A$lcc1877228$102                   char_to_tile
     00000FEF  A$lcc1877228$103                   char_to_tile
     00000FF1  A$lcc1877228$104                   char_to_tile
     00000FF2  A$lcc1877228$105                   char_to_tile
     00000FF4  A$lcc1877228$106                   char_to_tile
     00000FF5  A$lcc1877228$107                   char_to_tile
     00000FF7  A$lcc1877228$108                   char_to_tile
ASxxxx Linker V03.00/V05.40 + sdld,  page 25.
Hexadecimal  [32-Bits]

Area                                    Addr        Size        Decimal Bytes (Attributes)
--------------------------------        ----        ----        ------- ----- ------------
_CODE                               00000200    00002F3E =       12094. bytes (REL,CON)

      Value  Global                              Global Defined In Module
      -----  --------------------------------   ------------------------
     00000FF8  A$lcc1877228$109                   char_to_tile
     00000FFA  A$lcc1877228$110                   char_to_tile
     00000FFB  A$lcc1877228$111                   char_to_tile
     00000FFD  A$lcc1877228$112                   char_to_tile
     00000FFE  A$lcc1877228$113                   char_to_tile
     00001000  A$lcc1877228$114                   char_to_tile
     00001001  A$lcc1877228$115                   char_to_tile
     00001003  A$lcc1877228$116                   char_to_tile
     00001004  A$lcc1877228$117                   char_to_tile
     00001006  A$lcc1877228$118                   char_to_tile
     00001007  A$lcc1877228$119                   char_to_tile
     00001009  A$lcc1877228$120                   char_to_tile
     0000100A  A$lcc1877228$124                   char_to_tile
     0000100A  C$char_to_tile.c$5$3_0$4           char_to_tile
     0000100B  A$lcc1877228$125                   char_to_tile
     0000100C  A$lcc1877228$126                   char_to_tile
     0000100D  A$lcc1877228$127                   char_to_tile
     0000100E  A$lcc1877228$128                   char_to_tile
     00001011  A$lcc1877228$130                   char_to_tile
     00001012  A$lcc1877228$131                   char_to_tile
     00001014  A$lcc1877228$132                   char_to_tile
     00001016  A$lcc1877228$136                   char_to_tile
     00001016  C$char_to_tile.c$6$4_0$6           char_to_tile
     00001019  A$lcc1877228$137                   char_to_tile
     0000101A  A$lcc1877228$138                   char_to_tile
     0000101B  A$lcc1877228$139                   char_to_tile
     0000101C  A$lcc1877228$140                   char_to_tile
     0000101E  A$lcc1877228$141                   char_to_tile
     0000101F  A$lcc1877228$142                   char_to_tile
     00001020  A$lcc1877228$143                   char_to_tile
     00001022  A$lcc1877228$147                   char_to_tile
     00001022  C$char_to_tile.c$7$5_0$7           char_to_tile
     00001024  A$lcc1877228$148                   char_to_tile
     00001025  A$lcc1877228$149                   char_to_tile
     00001027  A$lcc1877228$150                   char_to_tile
     00001028  A$lcc1877228$151                   char_to_tile
     0000102A  A$lcc1877228$156                   char_to_tile
     0000102A  C$char_to_tile.c$5$2_0$4           char_to_tile
     0000102B  A$lcc1877228$157                   char_to_tile
     0000102D  A$lcc1877228$158                   char_to_tile
     0000102E  A$lcc1877228$159                   char_to_tile
     0000102F  A$lcc1877228$160                   char_to_tile
     00001030  A$lcc1877228$161                   char_to_tile
     00001032  A$lcc1877228$166                   char_to_tile
     00001032  C$char_to_tile.c$11$1_0$3          char_to_tile
     00001035  A$lcc1877228$171                   char_to_tile
     00001037  A$lcc1877228$176                   char_to_tile
     00001037  C$char_to_tile.c$12$1_0$3          char_to_tile
     00001037  XG$char_to_tile$0$0                char_to_tile
     00001038  A$lcc1877229$52                    collision
     00001038  C$collision.c$3$0_0$3              collision
ASxxxx Linker V03.00/V05.40 + sdld,  page 26.
Hexadecimal  [32-Bits]

Area                                    Addr        Size        Decimal Bytes (Attributes)
--------------------------------        ----        ----        ------- ----- ------------
_CODE                               00000200    00002F3E =       12094. bytes (REL,CON)

      Value  Global                              Global Defined In Module
      -----  --------------------------------   ------------------------
     00001038  G$check_collision$0$0              collision
     00001038  _check_collision                   collision
     0000103A  A$lcc1877229$53                    collision
     0000103B  A$lcc1877229$54                    collision
     0000103D  A$lcc1877229$55                    collision
     0000103E  A$lcc1877229$59                    collision
     0000103E  C$collision.c$8$1_0$3              collision
     00001040  A$lcc1877229$60                    collision
     00001041  A$lcc1877229$61                    collision
     00001043  A$lcc1877229$62                    collision
     00001044  A$lcc1877229$63                    collision
     00001046  A$lcc1877229$64                    collision
     00001048  A$lcc1877229$65                    collision
     00001049  A$lcc1877229$66                    collision
     0000104B  A$lcc1877229$67                    collision
     0000104C  A$lcc1877229$68                    collision
     0000104D  A$lcc1877229$69                    collision
     0000104E  A$lcc1877229$70                    collision
     0000104F  A$lcc1877229$71                    collision
     00001050  A$lcc1877229$72                    collision
     00001051  A$lcc1877229$73                    collision
     00001052  A$lcc1877229$74                    collision
     00001053  A$lcc1877229$75                    collision
     00001054  A$lcc1877229$76                    collision
     00001055  A$lcc1877229$77                    collision
     00001056  A$lcc1877229$78                    collision
     00001058  A$lcc1877229$79                    collision
     00001059  A$lcc1877229$80                    collision
     0000105A  A$lcc1877229$81                    collision
     0000105B  A$lcc1877229$82                    collision
     0000105D  A$lcc1877229$83                    collision
     0000105E  A$lcc1877229$84                    collision
     00001060  A$lcc1877229$85                    collision
     00001061  A$lcc1877229$86                    collision
     00001062  A$lcc1877229$87                    collision
     00001063  A$lcc1877229$88                    collision
     00001064  A$lcc1877229$89                    collision
     00001065  A$lcc1877229$90                    collision
     00001067  A$lcc1877229$94                    collision
     00001067  C$collision.c$9$1_0$3              collision
     00001068  A$lcc1877229$95                    collision
     00001069  A$lcc1877229$96                    collision
     0000106A  A$lcc1877229$97                    collision
     0000106B  A$lcc1877229$98                    collision
     0000106C  A$lcc1877229$99                    collision
     0000106E  A$lcc1877229$100                   collision
     0000106F  A$lcc1877229$101                   collision
     00001070  A$lcc1877229$102                   collision
     00001071  A$lcc1877229$103                   collision
     00001072  A$lcc1877229$104                   collision
     00001074  A$lcc1877229$108                   collision
ASxxxx Linker V03.00/V05.40 + sdld,  page 27.
Hexadecimal  [32-Bits]

Area                                    Addr        Size        Decimal Bytes (Attributes)
--------------------------------        ----        ----        ------- ----- ------------
_CODE                               00000200    00002F3E =       12094. bytes (REL,CON)

      Value  Global                              Global Defined In Module
      -----  --------------------------------   ------------------------
     00001074  C$collision.c$10$1_0$3             collision
     00001076  A$lcc1877229$109                   collision
     00001077  A$lcc1877229$110                   collision
     00001079  A$lcc1877229$111                   collision
     0000107A  A$lcc1877229$112                   collision
     0000107B  A$lcc1877229$113                   collision
     0000107C  A$lcc1877229$114                   collision
     0000107D  A$lcc1877229$115                   collision
     0000107E  A$lcc1877229$116                   collision
     0000107F  A$lcc1877229$117                   collision
     00001080  A$lcc1877229$118                   collision
     00001081  A$lcc1877229$119                   collision
     00001082  A$lcc1877229$120                   collision
     00001083  A$lcc1877229$121                   collision
     00001084  A$lcc1877229$122                   collision
     00001086  A$lcc1877229$123                   collision
     00001087  A$lcc1877229$124                   collision
     00001088  A$lcc1877229$125                   collision
     00001089  A$lcc1877229$126                   collision
     0000108B  A$lcc1877229$127                   collision
     0000108C  A$lcc1877229$128                   collision
     0000108D  A$lcc1877229$129                   collision
     0000108E  A$lcc1877229$130                   collision
     0000108F  A$lcc1877229$131                   collision
     00001091  A$lcc1877229$132                   collision
     00001092  A$lcc1877229$133                   collision
     00001093  A$lcc1877229$134                   collision
     00001094  A$lcc1877229$135                   collision
     00001095  A$lcc1877229$136                   collision
     00001096  A$lcc1877229$137                   collision
     00001098  A$lcc1877229$141                   collision
     00001098  C$collision.c$11$1_0$3             collision
     00001099  A$lcc1877229$142                   collision
     0000109A  A$lcc1877229$143                   collision
     0000109B  A$lcc1877229$144                   collision
     0000109C  A$lcc1877229$145                   collision
     0000109D  A$lcc1877229$146                   collision
     0000109F  A$lcc1877229$147                   collision
     000010A0  A$lcc1877229$148                   collision
     000010A1  A$lcc1877229$149                   collision
     000010A2  A$lcc1877229$150                   collision
     000010A3  A$lcc1877229$151                   collision
     000010A5  A$lcc1877229$153                   collision
     000010A6  A$lcc1877229$154                   collision
     000010A8  A$lcc1877229$156                   collision
     000010AA  A$lcc1877229$161                   collision
     000010AA  C$collision.c$12$1_0$3             collision
     000010AC  A$lcc1877229$162                   collision
     000010AD  A$lcc1877229$163                   collision
     000010AF  A$lcc1877229$164                   collision
     000010B0  A$lcc1877230$53                    draw
ASxxxx Linker V03.00/V05.40 + sdld,  page 28.
Hexadecimal  [32-Bits]

Area                                    Addr        Size        Decimal Bytes (Attributes)
--------------------------------        ----        ----        ------- ----- ------------
_CODE                               00000200    00002F3E =       12094. bytes (REL,CON)

      Value  Global                              Global Defined In Module
      -----  --------------------------------   ------------------------
     000010B0  C$draw.c$7$0_0$139                 draw
     000010B0  G$draw_actor$0$0                   draw
     000010B0  _draw_actor                        draw
     000010B2  A$lcc1877230$54                    draw
     000010B4  A$lcc1877230$55                    draw
     000010B5  A$lcc1877230$59                    draw
     000010B5  C$draw.c$9$1_0$139                 draw
     000010B8  A$lcc1877230$60                    draw
     000010B9  A$lcc1877230$61                    draw
     000010BB  A$lcc1877230$62                    draw
     000010BC  A$lcc1877230$63                    draw
     000010BD  A$lcc1877230$64                    draw
     000010BE  A$lcc1877230$65                    draw
     000010BF  A$lcc1877230$66                    draw
     000010C1  A$lcc1877230$67                    draw
     000010C2  A$lcc1877230$71                    draw
     000010C2  C$draw.c$10$1_0$139                draw
     000010C5  A$lcc1877230$72                    draw
     000010C7  A$lcc1877230$73                    draw
     000010C8  A$lcc1877230$74                    draw
     000010CA  A$lcc1877230$75                    draw
     000010CB  A$lcc1877230$76                    draw
     000010CC  A$lcc1877230$77                    draw
     000010CD  A$lcc1877230$78                    draw
     000010CE  A$lcc1877230$79                    draw
     000010D0  A$lcc1877230$80                    draw
     000010D1  A$lcc1877230$84                    draw
     000010D1  C$draw.c$12$1_0$139                draw
     000010D4  A$lcc1877230$85                    draw
     000010D6  A$lcc1877230$86                    draw
     000010D7  A$lcc1877230$87                    draw
     000010D9  A$lcc1877230$88                    draw
     000010DA  A$lcc1877230$89                    draw
     000010DB  A$lcc1877230$90                    draw
     000010DC  A$lcc1877230$91                    draw
     000010DD  A$lcc1877230$92                    draw
     000010DE  A$lcc1877230$93                    draw
     000010DF  A$lcc1877230$94                    draw
     000010E0  A$lcc1877230$95                    draw
     000010E1  A$lcc1877230$96                    draw
     000010E2  A$lcc1877230$97                    draw
     000010E3  A$lcc1877230$98                    draw
     000010E4  A$lcc1877230$99                    draw
     000010E5  A$lcc1877230$103                   draw
     000010E5  C$draw.c$13$1_0$139                draw
     000010E8  A$lcc1877230$104                   draw
     000010E9  A$lcc1877230$105                   draw
     000010EA  A$lcc1877230$106                   draw
     000010EB  A$lcc1877230$107                   draw
     000010EC  A$lcc1877230$108                   draw
     000010ED  A$lcc1877230$109                   draw
ASxxxx Linker V03.00/V05.40 + sdld,  page 29.
Hexadecimal  [32-Bits]

Area                                    Addr        Size        Decimal Bytes (Attributes)
--------------------------------        ----        ----        ------- ----- ------------
_CODE                               00000200    00002F3E =       12094. bytes (REL,CON)

      Value  Global                              Global Defined In Module
      -----  --------------------------------   ------------------------
     000010EE  A$lcc1877230$110                   draw
     000010EF  A$lcc1877230$111                   draw
     000010F0  A$lcc1877230$112                   draw
     000010F2  A$lcc1877230$113                   draw
     000010F3  A$lcc1877230$114                   draw
     000010F4  A$lcc1877230$118                   draw
     000010F4  C$draw.c$15$1_0$139                draw
     000010F7  A$lcc1877230$119                   draw
     000010F8  A$lcc1877230$120                   draw
     000010F9  A$lcc1877230$121                   draw
     000010FB  A$lcc1877230$122                   draw
     000010FC  A$lcc1877230$126                   draw
     000010FC  C$draw.c$16$1_0$139                draw
     000010FD  A$lcc1877230$127                   draw
     000010FE  A$lcc1877230$128                   draw
     000010FF  A$lcc1877230$129                   draw
     00001100  A$lcc1877230$130                   draw
     00001101  A$lcc1877230$131                   draw
     00001102  A$lcc1877230$132                   draw
     00001105  A$lcc1877230$133                   draw
     00001106  A$lcc1877230$134                   draw
     00001107  A$lcc1877230$135                   draw
     00001108  A$lcc1877230$136                   draw
     0000110A  A$lcc1877230$140                   draw
     0000110A  C$draw.c$18$1_0$139                draw
     0000110B  A$lcc1877230$141                   draw
     0000110C  A$lcc1877230$142                   draw
     0000110D  A$lcc1877230$143                   draw
     0000110E  A$lcc1877230$144                   draw
     0000110F  A$lcc1877230$148                   draw
     0000110F  C$draw.c$19$1_0$139                draw
     00001111  A$lcc1877230$149                   draw
     00001112  A$lcc1877230$150                   draw
     00001113  A$lcc1877230$151                   draw
     00001114  A$lcc1877230$152                   draw
     00001115  A$lcc1877230$153                   draw
     00001116  A$lcc1877230$154                   draw
     00001117  A$lcc1877230$155                   draw
     00001118  A$lcc1877230$156                   draw
     00001119  A$lcc1877230$157                   draw
     0000111A  A$lcc1877230$158                   draw
     0000111B  A$lcc1877230$159                   draw
     0000111C  A$lcc1877230$160                   draw
     0000111D  A$lcc1877230$161                   draw
     0000111E  A$lcc1877230$162                   draw
     0000111F  A$lcc1877230$166                   draw
     0000111F  C$draw.c$21$2_0$140                draw
     00001121  A$lcc1877230$167                   draw
     00001122  A$lcc1877230$174                   draw
     00001122  C$draw.c$22$2_0$140                draw
     00001122  C$draw.c$25$2_0$139                draw
ASxxxx Linker V03.00/V05.40 + sdld,  page 30.
Hexadecimal  [32-Bits]

Area                                    Addr        Size        Decimal Bytes (Attributes)
--------------------------------        ----        ----        ------- ----- ------------
_CODE                               00000200    00002F3E =       12094. bytes (REL,CON)

      Value  Global                              Global Defined In Module
      -----  --------------------------------   ------------------------
     00001125  A$lcc1877230$175                   draw
     00001127  A$lcc1877230$177                   draw
     00001128  A$lcc1877230$178                   draw
     0000112A  A$lcc1877230$179                   draw
     0000112B  A$lcc1877230$180                   draw
     0000112D  A$lcc1877230$182                   draw
     0000112E  A$lcc1877230$183                   draw
     0000112F  A$lcc1877230$184                   draw
     00001130  A$lcc1877230$185                   draw
     00001131  A$lcc1877230$186                   draw
     00001132  A$lcc1877230$187                   draw
     00001134  A$lcc1877230$188                   draw
     00001137  A$lcc1877230$189                   draw
     00001138  A$lcc1877230$190                   draw
     00001139  A$lcc1877230$191                   draw
     0000113A  A$lcc1877230$192                   draw
     0000113B  A$lcc1877230$194                   draw
     0000113C  A$lcc1877230$195                   draw
     0000113D  A$lcc1877230$196                   draw
     0000113E  A$lcc1877230$197                   draw
     0000113F  A$lcc1877230$198                   draw
     00001140  A$lcc1877230$199                   draw
     00001141  A$lcc1877230$200                   draw
     00001144  A$lcc1877230$201                   draw
     00001145  A$lcc1877230$202                   draw
     00001146  A$lcc1877230$203                   draw
     00001147  A$lcc1877230$204                   draw
     00001148  A$lcc1877230$205                   draw
     00001149  A$lcc1877230$209                   draw
     00001149  C$draw.c$25$2_0$141                draw
     0000114A  A$lcc1877230$210                   draw
     0000114C  A$lcc1877230$215                   draw
     0000114C  C$draw.c$29$2_0$142                draw
     0000114E  A$lcc1877230$216                   draw
     0000114F  A$lcc1877230$217                   draw
     00001150  A$lcc1877230$218                   draw
     00001152  A$lcc1877230$220                   draw
     00001154  A$lcc1877230$221                   draw
     00001155  A$lcc1877230$223                   draw
     00001156  A$lcc1877230$224                   draw
     00001157  A$lcc1877230$225                   draw
     00001158  A$lcc1877230$226                   draw
     00001159  A$lcc1877230$227                   draw
     0000115A  A$lcc1877230$228                   draw
     0000115D  A$lcc1877230$229                   draw
     0000115E  A$lcc1877230$230                   draw
     0000115F  A$lcc1877230$231                   draw
     00001160  A$lcc1877230$233                   draw
     00001162  A$lcc1877230$234                   draw
     00001163  A$lcc1877230$235                   draw
     00001164  A$lcc1877230$236                   draw
ASxxxx Linker V03.00/V05.40 + sdld,  page 31.
Hexadecimal  [32-Bits]

Area                                    Addr        Size        Decimal Bytes (Attributes)
--------------------------------        ----        ----        ------- ----- ------------
_CODE                               00000200    00002F3E =       12094. bytes (REL,CON)

      Value  Global                              Global Defined In Module
      -----  --------------------------------   ------------------------
     00001165  A$lcc1877230$237                   draw
     00001166  A$lcc1877230$238                   draw
     00001167  A$lcc1877230$242                   draw
     00001167  C$draw.c$31$2_0$142                draw
     0000116A  A$lcc1877230$247                   draw
     0000116A  C$draw.c$33$3_0$144                draw
     0000116C  A$lcc1877230$248                   draw
     0000116D  A$lcc1877230$249                   draw
     0000116F  A$lcc1877230$250                   draw
     00001171  A$lcc1877230$254                   draw
     00001174  A$lcc1877230$255                   draw
     00001176  A$lcc1877230$256                   draw
     00001177  A$lcc1877230$257                   draw
     00001179  A$lcc1877230$258                   draw
     0000117A  A$lcc1877230$259                   draw
     0000117B  A$lcc1877230$260                   draw
     0000117C  A$lcc1877230$261                   draw
     0000117D  A$lcc1877230$262                   draw
     0000117E  A$lcc1877230$266                   draw
     0000117E  C$draw.c$31$2_0$139                draw
     00001180  A$lcc1877230$267                   draw
     00001181  A$lcc1877230$271                   draw
     00001181  C$draw.c$35$5_0$146                draw
     00001183  A$lcc1877230$272                   draw
     00001185  A$lcc1877230$275                   draw
     00001186  A$lcc1877230$276                   draw
     00001187  A$lcc1877230$277                   draw
     00001188  A$lcc1877230$278                   draw
     00001189  A$lcc1877230$279                   draw
     0000118A  A$lcc1877230$280                   draw
     0000118D  A$lcc1877230$281                   draw
     0000118E  A$lcc1877230$282                   draw
     0000118F  A$lcc1877230$283                   draw
     00001190  A$lcc1877230$285                   draw
     00001192  A$lcc1877230$286                   draw
     00001193  A$lcc1877230$287                   draw
     00001194  A$lcc1877230$288                   draw
     00001195  A$lcc1877230$290                   draw
     00001196  A$lcc1877230$291                   draw
     00001197  A$lcc1877230$292                   draw
     00001198  A$lcc1877230$293                   draw
     0000119A  A$lcc1877230$294                   draw
     0000119B  A$lcc1877230$295                   draw
     0000119D  A$lcc1877230$297                   draw
     0000119E  A$lcc1877230$298                   draw
     000011A1  A$lcc1877230$299                   draw
     000011A2  A$lcc1877230$300                   draw
     000011A3  A$lcc1877230$301                   draw
     000011A4  A$lcc1877230$302                   draw
     000011A5  A$lcc1877230$303                   draw
     000011A6  A$lcc1877230$304                   draw
ASxxxx Linker V03.00/V05.40 + sdld,  page 32.
Hexadecimal  [32-Bits]

Area                                    Addr        Size        Decimal Bytes (Attributes)
--------------------------------        ----        ----        ------- ----- ------------
_CODE                               00000200    00002F3E =       12094. bytes (REL,CON)

      Value  Global                              Global Defined In Module
      -----  --------------------------------   ------------------------
     000011A7  A$lcc1877230$305                   draw
     000011A8  A$lcc1877230$307                   draw
     000011A9  A$lcc1877230$308                   draw
     000011AA  A$lcc1877230$309                   draw
     000011AB  A$lcc1877230$310                   draw
     000011AD  A$lcc1877230$311                   draw
     000011AE  A$lcc1877230$312                   draw
     000011AF  A$lcc1877230$316                   draw
     000011AF  C$draw.c$38$5_0$146                draw
     000011B2  A$lcc1877230$320                   draw
     000011B3  A$lcc1877230$321                   draw
     000011B4  A$lcc1877230$322                   draw
     000011B5  A$lcc1877230$323                   draw
     000011B6  A$lcc1877230$324                   draw
     000011B7  A$lcc1877230$325                   draw
     000011BA  A$lcc1877230$326                   draw
     000011BB  A$lcc1877230$327                   draw
     000011BC  A$lcc1877230$328                   draw
     000011BD  A$lcc1877230$330                   draw
     000011BF  A$lcc1877230$331                   draw
     000011C0  A$lcc1877230$332                   draw
     000011C1  A$lcc1877230$333                   draw
     000011C2  A$lcc1877230$334                   draw
     000011C3  A$lcc1877230$335                   draw
     000011C4  A$lcc1877230$337                   draw
     000011C5  A$lcc1877230$338                   draw
     000011C7  A$lcc1877230$339                   draw
     000011C8  A$lcc1877230$340                   draw
     000011CA  A$lcc1877230$342                   draw
     000011CB  A$lcc1877230$343                   draw
     000011CC  A$lcc1877230$344                   draw
     000011CD  A$lcc1877230$345                   draw
     000011CE  A$lcc1877230$346                   draw
     000011CF  A$lcc1877230$347                   draw
     000011D2  A$lcc1877230$348                   draw
     000011D3  A$lcc1877230$350                   draw
     000011D4  A$lcc1877230$351                   draw
     000011D6  A$lcc1877230$352                   draw
     000011D7  A$lcc1877230$353                   draw
     000011D8  A$lcc1877230$354                   draw
     000011D9  A$lcc1877230$355                   draw
     000011DA  A$lcc1877230$359                   draw
     000011DA  C$draw.c$43$3_0$144                draw
     000011DC  A$lcc1877230$364                   draw
     000011DC  C$draw.c$46$4_0$149                draw
     000011DE  A$lcc1877230$365                   draw
     000011DF  A$lcc1877230$366                   draw
     000011E1  A$lcc1877230$367                   draw
     000011E3  A$lcc1877230$369                   draw
     000011E5  A$lcc1877230$370                   draw
     000011E6  A$lcc1877230$372                   draw
ASxxxx Linker V03.00/V05.40 + sdld,  page 33.
Hexadecimal  [32-Bits]

Area                                    Addr        Size        Decimal Bytes (Attributes)
--------------------------------        ----        ----        ------- ----- ------------
_CODE                               00000200    00002F3E =       12094. bytes (REL,CON)

      Value  Global                              Global Defined In Module
      -----  --------------------------------   ------------------------
     000011E7  A$lcc1877230$373                   draw
     000011E8  A$lcc1877230$374                   draw
     000011E9  A$lcc1877230$375                   draw
     000011EA  A$lcc1877230$376                   draw
     000011EB  A$lcc1877230$377                   draw
     000011EE  A$lcc1877230$378                   draw
     000011EF  A$lcc1877230$379                   draw
     000011F0  A$lcc1877230$380                   draw
     000011F1  A$lcc1877230$382                   draw
     000011F3  A$lcc1877230$383                   draw
     000011F4  A$lcc1877230$384                   draw
     000011F5  A$lcc1877230$385                   draw
     000011F6  A$lcc1877230$386                   draw
     000011F7  A$lcc1877230$387                   draw
     000011F8  A$lcc1877230$389                   draw
     000011F9  A$lcc1877230$390                   draw
     000011FB  A$lcc1877230$391                   draw
     000011FD  A$lcc1877230$392                   draw
     000011FE  A$lcc1877230$393                   draw
     000011FF  A$lcc1877230$394                   draw
     00001201  A$lcc1877230$396                   draw
     00001202  A$lcc1877230$397                   draw
     00001203  A$lcc1877230$398                   draw
     00001204  A$lcc1877230$399                   draw
     00001205  A$lcc1877230$400                   draw
     00001206  A$lcc1877230$401                   draw
     00001209  A$lcc1877230$402                   draw
     0000120A  A$lcc1877230$404                   draw
     0000120B  A$lcc1877230$405                   draw
     0000120D  A$lcc1877230$406                   draw
     0000120E  A$lcc1877230$407                   draw
     0000120F  A$lcc1877230$408                   draw
     00001210  A$lcc1877230$409                   draw
     00001211  A$lcc1877230$411                   draw
     00001213  A$lcc1877230$412                   draw
     00001214  A$lcc1877230$413                   draw
     00001216  A$lcc1877230$414                   draw
     00001217  A$lcc1877230$415                   draw
     00001218  A$lcc1877230$416                   draw
     0000121A  A$lcc1877230$418                   draw
     0000121B  A$lcc1877230$419                   draw
     0000121C  A$lcc1877230$420                   draw
     0000121D  A$lcc1877230$421                   draw
     0000121E  A$lcc1877230$422                   draw
     0000121F  A$lcc1877230$423                   draw
     00001222  A$lcc1877230$424                   draw
     00001223  A$lcc1877230$425                   draw
     00001224  A$lcc1877230$426                   draw
     00001225  A$lcc1877230$428                   draw
     00001227  A$lcc1877230$429                   draw
     00001228  A$lcc1877230$430                   draw
ASxxxx Linker V03.00/V05.40 + sdld,  page 34.
Hexadecimal  [32-Bits]

Area                                    Addr        Size        Decimal Bytes (Attributes)
--------------------------------        ----        ----        ------- ----- ------------
_CODE                               00000200    00002F3E =       12094. bytes (REL,CON)

      Value  Global                              Global Defined In Module
      -----  --------------------------------   ------------------------
     00001229  A$lcc1877230$431                   draw
     0000122A  A$lcc1877230$432                   draw
     0000122B  A$lcc1877230$434                   draw
     0000122C  A$lcc1877230$435                   draw
     0000122D  A$lcc1877230$437                   draw
     0000122E  A$lcc1877230$438                   draw
     00001231  A$lcc1877230$439                   draw
     00001232  A$lcc1877230$440                   draw
     00001233  A$lcc1877230$441                   draw
     00001234  A$lcc1877230$442                   draw
     00001235  A$lcc1877230$443                   draw
     00001236  A$lcc1877230$444                   draw
     00001237  A$lcc1877230$445                   draw
     00001238  A$lcc1877230$447                   draw
     00001239  A$lcc1877230$448                   draw
     0000123A  A$lcc1877230$449                   draw
     0000123B  A$lcc1877230$450                   draw
     0000123D  A$lcc1877230$451                   draw
     0000123E  A$lcc1877230$452                   draw
     0000123F  A$lcc1877230$460                   draw
     0000123F  C$draw.c$51$2_0$139                draw
     00001241  A$lcc1877230$465                   draw
     00001241  C$draw.c$53$2_0$139                draw
     00001241  XG$draw_actor$0$0                  draw
     00001242  A$lcc1877230$475                   draw
     00001242  C$draw.c$55$2_0$182                draw
     00001242  G$draw_extra$0$0                   draw
     00001242  _draw_extra                        draw
     00001244  A$lcc1877230$476                   draw
     00001245  A$lcc1877230$477                   draw
     00001247  A$lcc1877230$478                   draw
     00001248  A$lcc1877230$482                   draw
     00001248  C$draw.c$58$1_0$182                draw
     0000124A  A$lcc1877230$483                   draw
     0000124B  A$lcc1877230$484                   draw
     0000124C  A$lcc1877230$485                   draw
     0000124D  A$lcc1877230$486                   draw
     0000124E  A$lcc1877230$487                   draw
     00001251  A$lcc1877230$488                   draw
     00001252  A$lcc1877230$489                   draw
     00001253  A$lcc1877230$490                   draw
     00001254  A$lcc1877230$491                   draw
     00001256  A$lcc1877230$492                   draw
     00001257  A$lcc1877230$496                   draw
     00001257  C$draw.c$61$2_0$182                draw
     00001259  A$lcc1877230$497                   draw
     0000125A  A$lcc1877230$498                   draw
     0000125B  A$lcc1877230$499                   draw
     0000125E  A$lcc1877230$500                   draw
     0000125F  A$lcc1877230$501                   draw
     00001261  A$lcc1877230$502                   draw
ASxxxx Linker V03.00/V05.40 + sdld,  page 35.
Hexadecimal  [32-Bits]

Area                                    Addr        Size        Decimal Bytes (Attributes)
--------------------------------        ----        ----        ------- ----- ------------
_CODE                               00000200    00002F3E =       12094. bytes (REL,CON)

      Value  Global                              Global Defined In Module
      -----  --------------------------------   ------------------------
     00001263  A$lcc1877230$503                   draw
     00001264  A$lcc1877230$507                   draw
     00001264  C$draw.c$64$2_0$183                draw
     00001265  A$lcc1877230$508                   draw
     00001267  A$lcc1877230$509                   draw
     00001269  A$lcc1877230$510                   draw
     0000126A  A$lcc1877230$511                   draw
     0000126C  A$lcc1877230$512                   draw
     0000126D  A$lcc1877230$513                   draw
     0000126E  A$lcc1877230$514                   draw
     00001270  A$lcc1877230$515                   draw
     00001271  A$lcc1877230$516                   draw
     00001273  A$lcc1877230$517                   draw
     00001274  A$lcc1877230$524                   draw
     00001274  C$draw.c$65$2_0$183                draw
     00001274  C$draw.c$68$2_0$182                draw
     00001277  A$lcc1877230$525                   draw
     00001279  A$lcc1877230$527                   draw
     0000127A  A$lcc1877230$528                   draw
     0000127C  A$lcc1877230$529                   draw
     0000127D  A$lcc1877230$530                   draw
     0000127F  A$lcc1877230$532                   draw
     00001281  A$lcc1877230$533                   draw
     00001282  A$lcc1877230$534                   draw
     00001283  A$lcc1877230$535                   draw
     00001284  A$lcc1877230$536                   draw
     00001285  A$lcc1877230$537                   draw
     00001286  A$lcc1877230$538                   draw
     00001287  A$lcc1877230$540                   draw
     00001288  A$lcc1877230$541                   draw
     00001289  A$lcc1877230$542                   draw
     0000128A  A$lcc1877230$543                   draw
     0000128B  A$lcc1877230$544                   draw
     0000128C  A$lcc1877230$545                   draw
     0000128D  A$lcc1877230$546                   draw
     00001290  A$lcc1877230$547                   draw
     00001291  A$lcc1877230$548                   draw
     00001292  A$lcc1877230$549                   draw
     00001293  A$lcc1877230$550                   draw
     00001294  A$lcc1877230$551                   draw
     00001295  A$lcc1877230$552                   draw
     00001297  A$lcc1877230$553                   draw
     00001298  A$lcc1877230$554                   draw
     00001299  A$lcc1877230$555                   draw
     0000129A  A$lcc1877230$559                   draw
     0000129A  C$draw.c$68$2_0$184                draw
     0000129B  A$lcc1877230$560                   draw
     0000129D  A$lcc1877230$565                   draw
     0000129D  C$draw.c$74$2_0$182                draw
     0000129F  A$lcc1877230$566                   draw
     000012A0  A$lcc1877230$567                   draw
ASxxxx Linker V03.00/V05.40 + sdld,  page 36.
Hexadecimal  [32-Bits]

Area                                    Addr        Size        Decimal Bytes (Attributes)
--------------------------------        ----        ----        ------- ----- ------------
_CODE                               00000200    00002F3E =       12094. bytes (REL,CON)

      Value  Global                              Global Defined In Module
      -----  --------------------------------   ------------------------
     000012A2  A$lcc1877230$568                   draw
     000012A3  A$lcc1877230$572                   draw
     000012A3  C$draw.c$72$2_0$185                draw
     000012A5  A$lcc1877230$573                   draw
     000012A6  A$lcc1877230$574                   draw
     000012A7  A$lcc1877230$575                   draw
     000012A9  A$lcc1877230$577                   draw
     000012AA  A$lcc1877230$578                   draw
     000012AB  A$lcc1877230$579                   draw
     000012AC  A$lcc1877230$580                   draw
     000012AD  A$lcc1877230$581                   draw
     000012B0  A$lcc1877230$582                   draw
     000012B1  A$lcc1877230$583                   draw
     000012B2  A$lcc1877230$584                   draw
     000012B3  A$lcc1877230$586                   draw
     000012B5  A$lcc1877230$587                   draw
     000012B6  A$lcc1877230$588                   draw
     000012B7  A$lcc1877230$589                   draw
     000012B8  A$lcc1877230$590                   draw
     000012BA  A$lcc1877230$591                   draw
     000012BB  A$lcc1877230$592                   draw
     000012BC  A$lcc1877230$596                   draw
     000012BC  C$draw.c$74$2_0$185                draw
     000012BF  A$lcc1877230$601                   draw
     000012BF  C$draw.c$76$3_0$187                draw
     000012C1  A$lcc1877230$602                   draw
     000012C2  A$lcc1877230$603                   draw
     000012C4  A$lcc1877230$604                   draw
     000012C6  A$lcc1877230$608                   draw
     000012C6  C$draw.c$78$5_0$189                draw
     000012C8  A$lcc1877230$609                   draw
     000012C9  A$lcc1877230$610                   draw
     000012CA  A$lcc1877230$611                   draw
     000012CC  A$lcc1877230$613                   draw
     000012CD  A$lcc1877230$614                   draw
     000012CE  A$lcc1877230$615                   draw
     000012CF  A$lcc1877230$616                   draw
     000012D0  A$lcc1877230$617                   draw
     000012D3  A$lcc1877230$618                   draw
     000012D4  A$lcc1877230$619                   draw
     000012D5  A$lcc1877230$620                   draw
     000012D6  A$lcc1877230$622                   draw
     000012D8  A$lcc1877230$623                   draw
     000012D9  A$lcc1877230$624                   draw
     000012DA  A$lcc1877230$625                   draw
     000012DB  A$lcc1877230$626                   draw
     000012DD  A$lcc1877230$627                   draw
     000012DE  A$lcc1877230$628                   draw
     000012DF  A$lcc1877230$630                   draw
     000012E1  A$lcc1877230$631                   draw
     000012E2  A$lcc1877230$632                   draw
ASxxxx Linker V03.00/V05.40 + sdld,  page 37.
Hexadecimal  [32-Bits]

Area                                    Addr        Size        Decimal Bytes (Attributes)
--------------------------------        ----        ----        ------- ----- ------------
_CODE                               00000200    00002F3E =       12094. bytes (REL,CON)

      Value  Global                              Global Defined In Module
      -----  --------------------------------   ------------------------
     000012E3  A$lcc1877230$633                   draw
     000012E5  A$lcc1877230$634                   draw
     000012E6  A$lcc1877230$635                   draw
     000012E7  A$lcc1877230$636                   draw
     000012E8  A$lcc1877230$638                   draw
     000012E9  A$lcc1877230$639                   draw
     000012EA  A$lcc1877230$640                   draw
     000012EB  A$lcc1877230$641                   draw
     000012EC  A$lcc1877230$642                   draw
     000012ED  A$lcc1877230$643                   draw
     000012F0  A$lcc1877230$644                   draw
     000012F1  A$lcc1877230$646                   draw
     000012F2  A$lcc1877230$647                   draw
     000012F3  A$lcc1877230$648                   draw
     000012F4  A$lcc1877230$649                   draw
     000012F5  A$lcc1877230$650                   draw
     000012F7  A$lcc1877230$651                   draw
     000012F8  A$lcc1877230$652                   draw
     000012F9  A$lcc1877230$656                   draw
     000012F9  C$draw.c$81$5_0$189                draw
     000012FC  A$lcc1877230$659                   draw
     000012FD  A$lcc1877230$660                   draw
     000012FE  A$lcc1877230$661                   draw
     000012FF  A$lcc1877230$662                   draw
     00001300  A$lcc1877230$663                   draw
     00001303  A$lcc1877230$664                   draw
     00001304  A$lcc1877230$665                   draw
     00001305  A$lcc1877230$666                   draw
     00001306  A$lcc1877230$668                   draw
     00001308  A$lcc1877230$669                   draw
     00001309  A$lcc1877230$670                   draw
     0000130A  A$lcc1877230$671                   draw
     0000130B  A$lcc1877230$672                   draw
     0000130D  A$lcc1877230$673                   draw
     0000130E  A$lcc1877230$674                   draw
     0000130F  A$lcc1877230$676                   draw
     00001310  A$lcc1877230$677                   draw
     00001312  A$lcc1877230$678                   draw
     00001313  A$lcc1877230$679                   draw
     00001314  A$lcc1877230$680                   draw
     00001315  A$lcc1877230$682                   draw
     00001316  A$lcc1877230$683                   draw
     00001317  A$lcc1877230$684                   draw
     00001318  A$lcc1877230$685                   draw
     00001319  A$lcc1877230$686                   draw
     0000131A  A$lcc1877230$687                   draw
     0000131D  A$lcc1877230$688                   draw
     0000131E  A$lcc1877230$690                   draw
     0000131F  A$lcc1877230$691                   draw
     00001321  A$lcc1877230$692                   draw
     00001322  A$lcc1877230$693                   draw
ASxxxx Linker V03.00/V05.40 + sdld,  page 38.
Hexadecimal  [32-Bits]

Area                                    Addr        Size        Decimal Bytes (Attributes)
--------------------------------        ----        ----        ------- ----- ------------
_CODE                               00000200    00002F3E =       12094. bytes (REL,CON)

      Value  Global                              Global Defined In Module
      -----  --------------------------------   ------------------------
     00001323  A$lcc1877230$694                   draw
     00001324  A$lcc1877230$695                   draw
     00001325  A$lcc1877230$699                   draw
     00001325  C$draw.c$86$3_0$187                draw
     00001327  A$lcc1877230$704                   draw
     00001327  C$draw.c$89$4_0$192                draw
     00001329  A$lcc1877230$705                   draw
     0000132A  A$lcc1877230$706                   draw
     0000132C  A$lcc1877230$707                   draw
     0000132E  A$lcc1877230$709                   draw
     0000132F  A$lcc1877230$710                   draw
     00001330  A$lcc1877230$711                   draw
     00001331  A$lcc1877230$712                   draw
     00001332  A$lcc1877230$713                   draw
     00001335  A$lcc1877230$714                   draw
     00001336  A$lcc1877230$715                   draw
     00001337  A$lcc1877230$716                   draw
     00001338  A$lcc1877230$718                   draw
     0000133A  A$lcc1877230$719                   draw
     0000133B  A$lcc1877230$720                   draw
     0000133C  A$lcc1877230$721                   draw
     0000133D  A$lcc1877230$722                   draw
     0000133F  A$lcc1877230$723                   draw
     00001340  A$lcc1877230$724                   draw
     00001341  A$lcc1877230$726                   draw
     00001342  A$lcc1877230$727                   draw
     00001343  A$lcc1877230$728                   draw
     00001345  A$lcc1877230$729                   draw
     00001346  A$lcc1877230$730                   draw
     00001347  A$lcc1877230$731                   draw
     00001348  A$lcc1877230$732                   draw
     00001349  A$lcc1877230$733                   draw
     0000134A  A$lcc1877230$735                   draw
     0000134B  A$lcc1877230$736                   draw
     0000134C  A$lcc1877230$737                   draw
     0000134D  A$lcc1877230$738                   draw
     0000134E  A$lcc1877230$739                   draw
     0000134F  A$lcc1877230$740                   draw
     00001352  A$lcc1877230$741                   draw
     00001353  A$lcc1877230$743                   draw
     00001354  A$lcc1877230$744                   draw
     00001356  A$lcc1877230$745                   draw
     00001357  A$lcc1877230$746                   draw
     00001358  A$lcc1877230$747                   draw
     00001359  A$lcc1877230$748                   draw
     0000135A  A$lcc1877230$750                   draw
     0000135C  A$lcc1877230$751                   draw
     0000135D  A$lcc1877230$752                   draw
     0000135F  A$lcc1877230$753                   draw
     00001360  A$lcc1877230$754                   draw
     00001361  A$lcc1877230$755                   draw
ASxxxx Linker V03.00/V05.40 + sdld,  page 39.
Hexadecimal  [32-Bits]

Area                                    Addr        Size        Decimal Bytes (Attributes)
--------------------------------        ----        ----        ------- ----- ------------
_CODE                               00000200    00002F3E =       12094. bytes (REL,CON)

      Value  Global                              Global Defined In Module
      -----  --------------------------------   ------------------------
     00001362  A$lcc1877230$756                   draw
     00001363  A$lcc1877230$757                   draw
     00001364  A$lcc1877230$758                   draw
     00001365  A$lcc1877230$760                   draw
     00001368  A$lcc1877230$761                   draw
     00001369  A$lcc1877230$762                   draw
     0000136A  A$lcc1877230$763                   draw
     0000136B  A$lcc1877230$764                   draw
     0000136C  A$lcc1877230$765                   draw
     0000136D  A$lcc1877230$766                   draw
     0000136E  A$lcc1877230$767                   draw
     0000136F  A$lcc1877230$768                   draw
     00001370  A$lcc1877230$770                   draw
     00001372  A$lcc1877230$771                   draw
     00001373  A$lcc1877230$772                   draw
     00001374  A$lcc1877230$773                   draw
     00001375  A$lcc1877230$774                   draw
     00001377  A$lcc1877230$776                   draw
     00001378  A$lcc1877230$777                   draw
     00001379  A$lcc1877230$778                   draw
     0000137A  A$lcc1877230$779                   draw
     0000137B  A$lcc1877230$780                   draw
     0000137C  A$lcc1877230$781                   draw
     0000137D  A$lcc1877230$783                   draw
     00001380  A$lcc1877230$784                   draw
     00001381  A$lcc1877230$785                   draw
     00001382  A$lcc1877230$786                   draw
     00001383  A$lcc1877230$787                   draw
     00001384  A$lcc1877230$788                   draw
     00001385  A$lcc1877230$789                   draw
     00001386  A$lcc1877230$790                   draw
     00001387  A$lcc1877230$791                   draw
     00001388  A$lcc1877230$793                   draw
     00001389  A$lcc1877230$794                   draw
     0000138A  A$lcc1877230$795                   draw
     0000138B  A$lcc1877230$796                   draw
     0000138D  A$lcc1877230$797                   draw
     0000138E  A$lcc1877230$798                   draw
     0000138F  A$lcc1877230$806                   draw
     0000138F  C$draw.c$94$2_0$182                draw
     0000138F  C$draw.c$96$2_0$182                draw
     00001391  A$lcc1877230$807                   draw
     00001392  A$lcc1877230$808                   draw
     00001394  A$lcc1877230$809                   draw
     00001395  A$lcc1877231$60                    entity
     00001395  C$entity.c$7$0_0$3                 entity
     00001395  C$entity.c$9$2_0$4                 entity
     00001395  G$create_entity$0$0                entity
     00001395  _create_entity                     entity
     00001398  A$lcc1877231$61                    entity
     0000139A  A$lcc1877231$62                    entity
ASxxxx Linker V03.00/V05.40 + sdld,  page 40.
Hexadecimal  [32-Bits]

Area                                    Addr        Size        Decimal Bytes (Attributes)
--------------------------------        ----        ----        ------- ----- ------------
_CODE                               00000200    00002F3E =       12094. bytes (REL,CON)

      Value  Global                              Global Defined In Module
      -----  --------------------------------   ------------------------
     0000139C  A$lcc1877231$66                    entity
     0000139C  C$entity.c$10$3_0$5                entity
     0000139D  A$lcc1877231$67                    entity
     0000139E  A$lcc1877231$72                    entity
     0000139E  C$entity.c$13$1_0$3                entity
     000013A1  A$lcc1877231$73                    entity
     000013A2  A$lcc1877231$74                    entity
     000013A5  A$lcc1877231$75                    entity
     000013A6  A$lcc1877231$76                    entity
     000013A7  A$lcc1877231$84                    entity
     000013A7  C$entity.c$14$1_0$3                entity
     000013A7  XG$create_entity$0$0               entity
     000013A8  A$lcc1877231$97                    entity
     000013A8  C$entity.c$16$1_0$6                entity
     000013A8  C$entity.c$18$1_0$6                entity
     000013A8  G$reset_entities$0$0               entity
     000013A8  _reset_entities                    entity
     000013AB  A$lcc1877231$98                    entity
     000013AD  A$lcc1877231$106                   entity
     000013AD  C$entity.c$19$1_0$6                entity
     000013AD  XG$reset_entities$0$0              entity
     000013AE  A$lcc1877235$74                    inventory
     000013AE  C$inventory.c$15$0_0$144           inventory
     000013AE  G$init_arrow$0$0                   inventory
     000013AE  _init_arrow                        inventory
     000013AF  A$lcc1877235$75                    inventory
     000013B0  A$lcc1877235$79                    inventory
     000013B0  C$inventory.c$16$1_0$144           inventory
     000013B3  A$lcc1877235$80                    inventory
     000013B4  A$lcc1877235$81                    inventory
     000013B6  A$lcc1877235$82                    inventory
     000013B9  A$lcc1877235$83                    inventory
     000013BA  A$lcc1877235$84                    inventory
     000013BC  A$lcc1877235$88                    inventory
     000013BC  C$inventory.c$17$1_0$144           inventory
     000013BF  A$lcc1877235$89                    inventory
     000013C2  A$lcc1877235$90                    inventory
     000013C3  A$lcc1877235$91                    inventory
     000013C5  A$lcc1877235$92                    inventory
     000013C6  A$lcc1877235$93                    inventory
     000013C8  A$lcc1877235$97                    inventory
     000013C8  C$inventory.c$19$1_0$144           inventory
     000013CB  A$lcc1877235$98                    inventory
     000013CE  A$lcc1877235$99                    inventory
     000013CF  A$lcc1877235$100                   inventory
     000013D0  A$lcc1877235$101                   inventory
     000013D2  A$lcc1877235$102                   inventory
     000013D3  A$lcc1877235$103                   inventory
     000013D6  A$lcc1877235$104                   inventory
     000013D8  A$lcc1877235$105                   inventory
     000013D9  A$lcc1877235$106                   inventory
ASxxxx Linker V03.00/V05.40 + sdld,  page 41.
Hexadecimal  [32-Bits]

Area                                    Addr        Size        Decimal Bytes (Attributes)
--------------------------------        ----        ----        ------- ----- ------------
_CODE                               00000200    00002F3E =       12094. bytes (REL,CON)

      Value  Global                              Global Defined In Module
      -----  --------------------------------   ------------------------
     000013DB  A$lcc1877235$107                   inventory
     000013DD  A$lcc1877235$108                   inventory
     000013DE  A$lcc1877235$109                   inventory
     000013DF  A$lcc1877235$110                   inventory
     000013E0  A$lcc1877235$111                   inventory
     000013E1  A$lcc1877235$112                   inventory
     000013E2  A$lcc1877235$113                   inventory
     000013E3  A$lcc1877235$117                   inventory
     000013E3  C$inventory.c$20$1_0$144           inventory
     000013E6  A$lcc1877235$118                   inventory
     000013E7  A$lcc1877235$119                   inventory
     000013E8  A$lcc1877235$120                   inventory
     000013EA  A$lcc1877235$121                   inventory
     000013EB  A$lcc1877235$122                   inventory
     000013ED  A$lcc1877235$123                   inventory
     000013EF  A$lcc1877235$124                   inventory
     000013F0  A$lcc1877235$125                   inventory
     000013F1  A$lcc1877235$126                   inventory
     000013F3  A$lcc1877235$127                   inventory
     000013F4  A$lcc1877235$128                   inventory
     000013F5  A$lcc1877235$129                   inventory
     000013F6  A$lcc1877235$130                   inventory
     000013F7  A$lcc1877235$131                   inventory
     000013F8  A$lcc1877235$132                   inventory
     000013F9  A$lcc1877235$133                   inventory
     000013FA  A$lcc1877235$137                   inventory
     000013FA  C$inventory.c$22$1_0$144           inventory
     000013FD  A$lcc1877235$138                   inventory
     000013FE  A$lcc1877235$139                   inventory
     00001400  A$lcc1877235$140                   inventory
     00001403  A$lcc1877235$141                   inventory
     00001404  A$lcc1877235$142                   inventory
     00001406  A$lcc1877235$146                   inventory
     00001406  C$inventory.c$23$1_0$144           inventory
     00001409  A$lcc1877235$147                   inventory
     0000140C  A$lcc1877235$148                   inventory
     0000140D  A$lcc1877235$149                   inventory
     0000140F  A$lcc1877235$150                   inventory
     00001410  A$lcc1877235$151                   inventory
     00001412  A$lcc1877235$155                   inventory
     00001412  C$inventory.c$24$1_0$144           inventory
     00001415  A$lcc1877235$156                   inventory
     00001418  A$lcc1877235$157                   inventory
     00001419  A$lcc1877235$158                   inventory
     0000141B  A$lcc1877235$159                   inventory
     0000141C  A$lcc1877235$160                   inventory
     0000141E  A$lcc1877235$164                   inventory
     0000141E  C$inventory.c$26$2_0$145           inventory
     00001420  A$lcc1877235$165                   inventory
     00001422  A$lcc1877235$166                   inventory
     00001423  A$lcc1877235$167                   inventory
ASxxxx Linker V03.00/V05.40 + sdld,  page 42.
Hexadecimal  [32-Bits]

Area                                    Addr        Size        Decimal Bytes (Attributes)
--------------------------------        ----        ----        ------- ----- ------------
_CODE                               00000200    00002F3E =       12094. bytes (REL,CON)

      Value  Global                              Global Defined In Module
      -----  --------------------------------   ------------------------
     00001425  A$lcc1877235$171                   inventory
     00001425  C$inventory.c$28$1_1$145           inventory
     00001428  A$lcc1877235$172                   inventory
     00001429  A$lcc1877235$173                   inventory
     0000142B  A$lcc1877235$174                   inventory
     0000142C  A$lcc1877235$175                   inventory
     0000142D  A$lcc1877235$176                   inventory
     0000142E  A$lcc1877235$177                   inventory
     0000142F  A$lcc1877235$178                   inventory
     00001430  A$lcc1877235$179                   inventory
     00001431  A$lcc1877235$180                   inventory
     00001432  A$lcc1877235$181                   inventory
     00001433  A$lcc1877235$182                   inventory
     00001434  A$lcc1877235$183                   inventory
     00001437  A$lcc1877235$184                   inventory
     00001438  A$lcc1877235$185                   inventory
     00001439  A$lcc1877235$186                   inventory
     0000143A  A$lcc1877235$187                   inventory
     0000143D  A$lcc1877235$188                   inventory
     0000143E  A$lcc1877235$189                   inventory
     00001440  A$lcc1877235$190                   inventory
     00001441  A$lcc1877235$191                   inventory
     00001442  A$lcc1877235$192                   inventory
     00001445  A$lcc1877235$193                   inventory
     00001446  A$lcc1877235$194                   inventory
     00001447  A$lcc1877235$195                   inventory
     00001448  A$lcc1877235$196                   inventory
     00001449  A$lcc1877235$197                   inventory
     0000144A  A$lcc1877235$198                   inventory
     0000144B  A$lcc1877235$199                   inventory
     0000144E  A$lcc1877235$203                   inventory
     00001451  A$lcc1877235$204                   inventory
     00001452  A$lcc1877235$209                   inventory
     00001452  C$inventory.c$30$1_1$144           inventory
     00001452  XG$init_arrow$0$0                  inventory
     00001453  A$lcc1877235$219                   inventory
     00001453  C$inventory.c$32$1_1$147           inventory
     00001453  G$initialize_inventory$0$0         inventory
     00001453  _initialize_inventory              inventory
     00001455  A$lcc1877235$223                   inventory
     00001455  C$inventory.c$33$3_0$148           inventory
     00001457  A$lcc1877235$224                   inventory
     00001459  A$lcc1877235$226                   inventory
     0000145B  A$lcc1877235$227                   inventory
     0000145C  A$lcc1877235$228                   inventory
     0000145E  A$lcc1877235$229                   inventory
     00001460  A$lcc1877235$233                   inventory
     00001460  C$inventory.c$35$3_0$148           inventory
     00001461  A$lcc1877235$237                   inventory
     00001461  C$inventory.c$36$3_0$148           inventory
     00001462  A$lcc1877235$238                   inventory
ASxxxx Linker V03.00/V05.40 + sdld,  page 43.
Hexadecimal  [32-Bits]

Area                                    Addr        Size        Decimal Bytes (Attributes)
--------------------------------        ----        ----        ------- ----- ------------
_CODE                               00000200    00002F3E =       12094. bytes (REL,CON)

      Value  Global                              Global Defined In Module
      -----  --------------------------------   ------------------------
     00001463  A$lcc1877235$239                   inventory
     00001464  A$lcc1877235$240                   inventory
     00001465  A$lcc1877235$244                   inventory
     00001465  C$inventory.c$39$4_0$149           inventory
     00001466  A$lcc1877235$245                   inventory
     00001467  A$lcc1877235$246                   inventory
     00001468  A$lcc1877235$247                   inventory
     00001469  A$lcc1877235$248                   inventory
     0000146B  A$lcc1877235$252                   inventory
     0000146B  C$inventory.c$40$4_0$149           inventory
     0000146C  A$lcc1877235$253                   inventory
     0000146E  A$lcc1877235$258                   inventory
     0000146E  C$inventory.c$42$3_0$148           inventory
     00001471  A$lcc1877235$259                   inventory
     00001472  A$lcc1877235$260                   inventory
     00001473  A$lcc1877235$261                   inventory
     00001474  A$lcc1877235$262                   inventory
     00001476  A$lcc1877235$263                   inventory
     00001477  A$lcc1877235$264                   inventory
     00001478  A$lcc1877235$265                   inventory
     00001479  A$lcc1877235$266                   inventory
     0000147A  A$lcc1877235$267                   inventory
     0000147B  A$lcc1877235$268                   inventory
     0000147E  A$lcc1877235$269                   inventory
     0000147F  A$lcc1877235$270                   inventory
     00001480  A$lcc1877235$271                   inventory
     00001481  A$lcc1877235$272                   inventory
     00001484  A$lcc1877235$273                   inventory
     00001485  A$lcc1877235$274                   inventory
     00001488  A$lcc1877235$278                   inventory
     00001488  C$inventory.c$33$2_0$147           inventory
     0000148A  A$lcc1877235$279                   inventory
     0000148B  A$lcc1877235$280                   inventory
     0000148D  A$lcc1877235$285                   inventory
     0000148F  A$lcc1877235$290                   inventory
     0000148F  C$inventory.c$44$2_0$147           inventory
     0000148F  XG$initialize_inventory$0$0        inventory
     00001490  A$lcc1877236$59                    inventory_input
     00001490  C$inventory_input.c$19$0_0$152     inventory_input
     00001490  G$inventory_input$0$0              inventory_input
     00001490  _inventory_input                   inventory_input
     00001492  A$lcc1877236$63                    inventory_input
     00001492  C$inventory_input.c$20$2_0$153     inventory_input
     00001495  A$lcc1877236$64                    inventory_input
     00001497  A$lcc1877236$65                    inventory_input
     00001499  A$lcc1877236$66                    inventory_input
     0000149C  A$lcc1877236$67                    inventory_input
     0000149E  A$lcc1877236$68                    inventory_input
     000014A0  A$lcc1877236$72                    inventory_input
     000014A0  C$inventory_input.c$21$4_0$155     inventory_input
     000014A3  A$lcc1877236$73                    inventory_input
ASxxxx Linker V03.00/V05.40 + sdld,  page 44.
Hexadecimal  [32-Bits]

Area                                    Addr        Size        Decimal Bytes (Attributes)
--------------------------------        ----        ----        ------- ----- ------------
_CODE                               00000200    00002F3E =       12094. bytes (REL,CON)

      Value  Global                              Global Defined In Module
      -----  --------------------------------   ------------------------
     000014A4  A$lcc1877236$74                    inventory_input
     000014A7  A$lcc1877236$81                    inventory_input
     000014A7  C$inventory_input.c$22$4_0$155     inventory_input
     000014A7  C$inventory_input.c$23$3_0$154     inventory_input
     000014AA  A$lcc1877236$82                    inventory_input
     000014AC  A$lcc1877236$86                    inventory_input
     000014AC  C$inventory_input.c$24$3_0$154     inventory_input
     000014AF  A$lcc1877236$87                    inventory_input
     000014B2  A$lcc1877236$88                    inventory_input
     000014B3  A$lcc1877236$89                    inventory_input
     000014B5  A$lcc1877236$90                    inventory_input
     000014B6  A$lcc1877236$91                    inventory_input
     000014B8  A$lcc1877236$95                    inventory_input
     000014B8  C$inventory_input.c$25$3_0$154     inventory_input
     000014BB  A$lcc1877236$96                    inventory_input
     000014BE  A$lcc1877236$100                   inventory_input
     000014BE  C$inventory_input.c$27$3_0$154     inventory_input
     000014C1  A$lcc1877236$101                   inventory_input
     000014C3  A$lcc1877236$105                   inventory_input
     000014C3  C$inventory_input.c$29$3_0$154     inventory_input
     000014C6  A$lcc1877236$106                   inventory_input
     000014C7  A$lcc1877236$107                   inventory_input
     000014C8  A$lcc1877236$108                   inventory_input
     000014C9  A$lcc1877236$109                   inventory_input
     000014CC  A$lcc1877236$110                   inventory_input
     000014CE  A$lcc1877236$111                   inventory_input
     000014CF  A$lcc1877236$112                   inventory_input
     000014D1  A$lcc1877236$113                   inventory_input
     000014D2  A$lcc1877236$114                   inventory_input
     000014D3  A$lcc1877236$115                   inventory_input
     000014D6  A$lcc1877236$119                   inventory_input
     000014D6  C$inventory_input.c$30$3_0$154     inventory_input
     000014D7  A$lcc1877236$120                   inventory_input
     000014DA  A$lcc1877236$125                   inventory_input
     000014DA  C$inventory_input.c$33$2_0$156     inventory_input
     000014DD  A$lcc1877236$126                   inventory_input
     000014DF  A$lcc1877236$127                   inventory_input
     000014E1  A$lcc1877236$128                   inventory_input
     000014E4  A$lcc1877236$129                   inventory_input
     000014E6  A$lcc1877236$130                   inventory_input
     000014E8  A$lcc1877236$134                   inventory_input
     000014E8  C$inventory_input.c$34$4_0$158     inventory_input
     000014EB  A$lcc1877236$135                   inventory_input
     000014EC  A$lcc1877236$136                   inventory_input
     000014EF  A$lcc1877236$143                   inventory_input
     000014EF  C$inventory_input.c$35$4_0$158     inventory_input
     000014EF  C$inventory_input.c$36$3_0$157     inventory_input
     000014F2  A$lcc1877236$144                   inventory_input
     000014F4  A$lcc1877236$148                   inventory_input
     000014F4  C$inventory_input.c$37$3_0$157     inventory_input
     000014F7  A$lcc1877236$149                   inventory_input
ASxxxx Linker V03.00/V05.40 + sdld,  page 45.
Hexadecimal  [32-Bits]

Area                                    Addr        Size        Decimal Bytes (Attributes)
--------------------------------        ----        ----        ------- ----- ------------
_CODE                               00000200    00002F3E =       12094. bytes (REL,CON)

      Value  Global                              Global Defined In Module
      -----  --------------------------------   ------------------------
     000014FA  A$lcc1877236$150                   inventory_input
     000014FB  A$lcc1877236$151                   inventory_input
     000014FD  A$lcc1877236$152                   inventory_input
     000014FE  A$lcc1877236$153                   inventory_input
     00001500  A$lcc1877236$157                   inventory_input
     00001500  C$inventory_input.c$38$3_0$157     inventory_input
     00001503  A$lcc1877236$158                   inventory_input
     00001506  A$lcc1877236$162                   inventory_input
     00001506  C$inventory_input.c$40$3_0$157     inventory_input
     00001509  A$lcc1877236$163                   inventory_input
     0000150C  A$lcc1877236$167                   inventory_input
     0000150C  C$inventory_input.c$41$3_0$157     inventory_input
     0000150F  A$lcc1877236$168                   inventory_input
     00001511  A$lcc1877236$172                   inventory_input
     00001511  C$inventory_input.c$43$3_0$157     inventory_input
     00001514  A$lcc1877236$173                   inventory_input
     00001515  A$lcc1877236$174                   inventory_input
     00001516  A$lcc1877236$175                   inventory_input
     00001517  A$lcc1877236$176                   inventory_input
     0000151A  A$lcc1877236$177                   inventory_input
     0000151C  A$lcc1877236$178                   inventory_input
     0000151D  A$lcc1877236$179                   inventory_input
     0000151F  A$lcc1877236$180                   inventory_input
     00001520  A$lcc1877236$181                   inventory_input
     00001521  A$lcc1877236$182                   inventory_input
     00001524  A$lcc1877236$186                   inventory_input
     00001524  C$inventory_input.c$44$3_0$157     inventory_input
     00001525  A$lcc1877236$187                   inventory_input
     00001528  A$lcc1877236$192                   inventory_input
     0000152B  A$lcc1877236$196                   inventory_input
     0000152B  C$inventory_input.c$24$1_1$152     inventory_input
     0000152E  A$lcc1877236$197                   inventory_input
     0000152F  A$lcc1877236$201                   inventory_input
     0000152F  C$inventory_input.c$47$1_1$159     inventory_input
     00001530  A$lcc1877236$202                   inventory_input
     00001532  A$lcc1877236$203                   inventory_input
     00001533  A$lcc1877236$204                   inventory_input
     00001534  A$lcc1877236$205                   inventory_input
     00001536  A$lcc1877236$206                   inventory_input
     00001537  A$lcc1877236$210                   inventory_input
     00001537  C$inventory_input.c$48$1_1$159     inventory_input
     00001539  A$lcc1877236$211                   inventory_input
     0000153C  A$lcc1877236$212                   inventory_input
     0000153D  A$lcc1877236$213                   inventory_input
     0000153E  A$lcc1877236$214                   inventory_input
     0000153F  A$lcc1877236$215                   inventory_input
     00001540  A$lcc1877236$216                   inventory_input
     00001541  A$lcc1877236$217                   inventory_input
     00001542  A$lcc1877236$218                   inventory_input
     00001543  A$lcc1877236$219                   inventory_input
     00001545  A$lcc1877236$220                   inventory_input
ASxxxx Linker V03.00/V05.40 + sdld,  page 46.
Hexadecimal  [32-Bits]

Area                                    Addr        Size        Decimal Bytes (Attributes)
--------------------------------        ----        ----        ------- ----- ------------
_CODE                               00000200    00002F3E =       12094. bytes (REL,CON)

      Value  Global                              Global Defined In Module
      -----  --------------------------------   ------------------------
     00001546  A$lcc1877236$224                   inventory_input
     00001546  C$inventory_input.c$20$1_1$152     inventory_input
     00001549  A$lcc1877236$225                   inventory_input
     0000154C  A$lcc1877236$226                   inventory_input
     0000154D  A$lcc1877236$230                   inventory_input
     0000154D  C$inventory_input.c$52$1_1$152     inventory_input
     00001550  A$lcc1877236$231                   inventory_input
     00001551  A$lcc1877236$232                   inventory_input
     00001552  A$lcc1877236$233                   inventory_input
     00001553  A$lcc1877236$237                   inventory_input
     00001553  C$inventory_input.c$50$2_1$160     inventory_input
     00001555  A$lcc1877236$238                   inventory_input
     00001557  A$lcc1877236$239                   inventory_input
     00001559  A$lcc1877236$240                   inventory_input
     0000155B  A$lcc1877236$244                   inventory_input
     0000155B  C$inventory_input.c$51$3_1$161     inventory_input
     0000155D  A$lcc1877236$245                   inventory_input
     0000155E  A$lcc1877236$246                   inventory_input
     00001560  A$lcc1877236$247                   inventory_input
     00001561  A$lcc1877236$251                   inventory_input
     00001561  C$inventory_input.c$52$3_1$161     inventory_input
     00001564  A$lcc1877236$252                   inventory_input
     00001565  A$lcc1877236$253                   inventory_input
     00001567  A$lcc1877236$258                   inventory_input
     00001567  C$inventory_input.c$53$3_1$162     inventory_input
     00001569  A$lcc1877236$259                   inventory_input
     0000156B  A$lcc1877236$260                   inventory_input
     0000156D  A$lcc1877236$261                   inventory_input
     0000156F  A$lcc1877236$265                   inventory_input
     0000156F  C$inventory_input.c$54$4_1$163     inventory_input
     00001571  A$lcc1877236$266                   inventory_input
     00001572  A$lcc1877236$267                   inventory_input
     00001574  A$lcc1877236$268                   inventory_input
     00001575  A$lcc1877236$272                   inventory_input
     00001575  C$inventory_input.c$55$4_1$163     inventory_input
     00001578  A$lcc1877236$273                   inventory_input
     00001579  A$lcc1877236$274                   inventory_input
     0000157B  A$lcc1877236$279                   inventory_input
     0000157B  C$inventory_input.c$56$4_1$164     inventory_input
     0000157D  A$lcc1877236$280                   inventory_input
     0000157F  A$lcc1877236$281                   inventory_input
     00001581  A$lcc1877236$282                   inventory_input
     00001583  A$lcc1877236$286                   inventory_input
     00001583  C$inventory_input.c$57$5_1$165     inventory_input
     00001585  A$lcc1877236$287                   inventory_input
     00001586  A$lcc1877236$288                   inventory_input
     00001588  A$lcc1877236$289                   inventory_input
     00001589  A$lcc1877236$293                   inventory_input
     00001589  C$inventory_input.c$58$5_1$165     inventory_input
     0000158C  A$lcc1877236$294                   inventory_input
     0000158D  A$lcc1877236$295                   inventory_input
ASxxxx Linker V03.00/V05.40 + sdld,  page 47.
Hexadecimal  [32-Bits]

Area                                    Addr        Size        Decimal Bytes (Attributes)
--------------------------------        ----        ----        ------- ----- ------------
_CODE                               00000200    00002F3E =       12094. bytes (REL,CON)

      Value  Global                              Global Defined In Module
      -----  --------------------------------   ------------------------
     0000158F  A$lcc1877236$300                   inventory_input
     0000158F  C$inventory_input.c$59$5_1$166     inventory_input
     00001591  A$lcc1877236$301                   inventory_input
     00001593  A$lcc1877236$302                   inventory_input
     00001595  A$lcc1877236$303                   inventory_input
     00001597  A$lcc1877236$307                   inventory_input
     00001597  C$inventory_input.c$60$6_1$167     inventory_input
     00001599  A$lcc1877236$308                   inventory_input
     0000159A  A$lcc1877236$309                   inventory_input
     0000159C  A$lcc1877236$310                   inventory_input
     0000159D  A$lcc1877236$314                   inventory_input
     0000159D  C$inventory_input.c$61$6_1$167     inventory_input
     000015A0  A$lcc1877236$315                   inventory_input
     000015A1  A$lcc1877236$320                   inventory_input
     000015A1  C$inventory_input.c$64$2_1$168     inventory_input
     000015A3  A$lcc1877236$321                   inventory_input
     000015A5  A$lcc1877236$322                   inventory_input
     000015A6  A$lcc1877236$323                   inventory_input
     000015A8  A$lcc1877236$327                   inventory_input
     000015A8  C$inventory_input.c$65$3_1$169     inventory_input
     000015AA  A$lcc1877236$331                   inventory_input
     000015AA  C$inventory_input.c$66$3_1$169     inventory_input
     000015AD  A$lcc1877236$332                   inventory_input
     000015AE  A$lcc1877236$333                   inventory_input
     000015AF  A$lcc1877236$338                   inventory_input
     000015AF  C$inventory_input.c$68$2_1$170     inventory_input
     000015B1  A$lcc1877236$339                   inventory_input
     000015B2  A$lcc1877236$340                   inventory_input
     000015B4  A$lcc1877236$341                   inventory_input
     000015B6  A$lcc1877236$345                   inventory_input
     000015B6  C$inventory_input.c$69$3_1$171     inventory_input
     000015B8  A$lcc1877236$349                   inventory_input
     000015B8  C$inventory_input.c$70$3_1$171     inventory_input
     000015BB  A$lcc1877236$350                   inventory_input
     000015BC  A$lcc1877236$351                   inventory_input
     000015BD  A$lcc1877236$356                   inventory_input
     000015BD  C$inventory_input.c$73$2_1$172     inventory_input
     000015BF  A$lcc1877236$357                   inventory_input
     000015C1  A$lcc1877236$358                   inventory_input
     000015C2  A$lcc1877236$359                   inventory_input
     000015C4  A$lcc1877236$363                   inventory_input
     000015C4  C$inventory_input.c$74$3_1$173     inventory_input
     000015C6  A$lcc1877236$367                   inventory_input
     000015C6  C$inventory_input.c$75$3_1$173     inventory_input
     000015C9  A$lcc1877236$368                   inventory_input
     000015CA  A$lcc1877236$373                   inventory_input
     000015CA  C$inventory_input.c$77$2_1$174     inventory_input
     000015CC  A$lcc1877236$374                   inventory_input
     000015CD  A$lcc1877236$375                   inventory_input
     000015CF  A$lcc1877236$376                   inventory_input
     000015D1  A$lcc1877236$380                   inventory_input
ASxxxx Linker V03.00/V05.40 + sdld,  page 48.
Hexadecimal  [32-Bits]

Area                                    Addr        Size        Decimal Bytes (Attributes)
--------------------------------        ----        ----        ------- ----- ------------
_CODE                               00000200    00002F3E =       12094. bytes (REL,CON)

      Value  Global                              Global Defined In Module
      -----  --------------------------------   ------------------------
     000015D1  C$inventory_input.c$78$3_1$175     inventory_input
     000015D3  A$lcc1877236$384                   inventory_input
     000015D3  C$inventory_input.c$79$3_1$175     inventory_input
     000015D6  A$lcc1877236$385                   inventory_input
     000015D7  A$lcc1877236$390                   inventory_input
     000015D7  C$inventory_input.c$82$1_1$159     inventory_input
     000015D8  A$lcc1877236$391                   inventory_input
     000015D9  A$lcc1877236$392                   inventory_input
     000015DB  A$lcc1877236$396                   inventory_input
     000015DB  C$inventory_input.c$83$1_1$159     inventory_input
     000015DC  A$lcc1877236$397                   inventory_input
     000015DD  A$lcc1877236$398                   inventory_input
     000015E0  A$lcc1877236$399                   inventory_input
     000015E1  A$lcc1877236$400                   inventory_input
     000015E2  A$lcc1877236$401                   inventory_input
     000015E4  A$lcc1877236$402                   inventory_input
     000015E5  A$lcc1877236$403                   inventory_input
     000015E6  A$lcc1877236$404                   inventory_input
     000015E7  A$lcc1877236$405                   inventory_input
     000015E8  A$lcc1877236$410                   inventory_input
     000015EA  A$lcc1877236$415                   inventory_input
     000015EA  C$inventory_input.c$84$1_1$152     inventory_input
     000015EA  XG$inventory_input$0$0             inventory_input
     000015EB  G$top_limit$0_0$0                  inventory_input
     000015EB  _top_limit                         inventory_input
     000015EC  G$bottom_limit$0_0$0               inventory_input
     000015EC  _bottom_limit                      inventory_input
     000015ED  G$left_limit$0_0$0                 inventory_input
     000015ED  _left_limit                        inventory_input
     000015EE  G$right_limit$0_0$0                inventory_input
     000015EE  _right_limit                       inventory_input
     000015EF  G$VERTICAL_MOVEMENT$0_0$0          inventory_input
     000015EF  _VERTICAL_MOVEMENT                 inventory_input
     000015F0  G$HORIZONTAL_MOVEMENT$0_0$0        inventory_input
     000015F0  _HORIZONTAL_MOVEMENT               inventory_input
     000015F1  A$lcc1877237$64                    load
     000015F1  C$load.c$10$0_0$134                load
     000015F1  G$load_actor_tiles$0$0             load
     000015F1  _load_actor_tiles                  load
     000015F3  A$lcc1877237$65                    load
     000015F5  A$lcc1877237$66                    load
     000015F6  A$lcc1877237$67                    load
     000015F7  A$lcc1877237$68                    load
     000015F8  A$lcc1877237$69                    load
     000015F9  A$lcc1877237$70                    load
     000015FA  A$lcc1877237$74                    load
     000015FA  C$load.c$12$2_0$134                load
     000015FD  A$lcc1877237$75                    load
     000015FE  A$lcc1877237$79                    load
     000015FE  C$load.c$15$1_0$134                load
     00001600  A$lcc1877237$81                    load
ASxxxx Linker V03.00/V05.40 + sdld,  page 49.
Hexadecimal  [32-Bits]

Area                                    Addr        Size        Decimal Bytes (Attributes)
--------------------------------        ----        ----        ------- ----- ------------
_CODE                               00000200    00002F3E =       12094. bytes (REL,CON)

      Value  Global                              Global Defined In Module
      -----  --------------------------------   ------------------------
     00001601  A$lcc1877237$82                    load
     00001603  A$lcc1877237$83                    load
     00001604  A$lcc1877237$84                    load
     00001606  A$lcc1877237$88                    load
     00001606  C$load.c$17$3_0$136                load
     00001607  A$lcc1877237$89                    load
     00001609  A$lcc1877237$90                    load
     0000160A  A$lcc1877237$91                    load
     0000160B  A$lcc1877237$92                    load
     0000160C  A$lcc1877237$93                    load
     0000160E  A$lcc1877237$94                    load
     0000160F  A$lcc1877237$95                    load
     00001610  A$lcc1877237$96                    load
     00001611  A$lcc1877237$97                    load
     00001612  A$lcc1877237$98                    load
     00001613  A$lcc1877237$99                    load
     00001614  A$lcc1877237$100                   load
     00001615  A$lcc1877237$101                   load
     00001616  A$lcc1877237$102                   load
     00001617  A$lcc1877237$103                   load
     00001618  A$lcc1877237$104                   load
     00001619  A$lcc1877237$105                   load
     0000161A  A$lcc1877237$106                   load
     0000161B  A$lcc1877237$107                   load
     0000161C  A$lcc1877237$108                   load
     0000161D  A$lcc1877237$109                   load
     0000161E  A$lcc1877237$110                   load
     0000161F  A$lcc1877237$111                   load
     00001621  A$lcc1877237$112                   load
     00001622  A$lcc1877237$113                   load
     00001623  A$lcc1877237$114                   load
     00001624  A$lcc1877237$115                   load
     00001625  A$lcc1877237$116                   load
     00001628  A$lcc1877237$117                   load
     0000162A  A$lcc1877237$121                   load
     0000162A  C$load.c$15$2_0$135                load
     0000162B  A$lcc1877237$122                   load
     0000162D  A$lcc1877237$127                   load
     0000162D  C$load.c$21$1_0$134                load
     00001630  A$lcc1877237$128                   load
     00001632  A$lcc1877237$129                   load
     00001633  A$lcc1877237$130                   load
     00001635  A$lcc1877237$131                   load
     00001636  A$lcc1877237$132                   load
     00001637  A$lcc1877237$133                   load
     00001638  A$lcc1877237$134                   load
     00001639  A$lcc1877237$135                   load
     0000163A  A$lcc1877237$139                   load
     0000163A  C$load.c$22$1_0$134                load
     0000163D  A$lcc1877237$140                   load
     0000163F  A$lcc1877237$141                   load
ASxxxx Linker V03.00/V05.40 + sdld,  page 50.
Hexadecimal  [32-Bits]

Area                                    Addr        Size        Decimal Bytes (Attributes)
--------------------------------        ----        ----        ------- ----- ------------
_CODE                               00000200    00002F3E =       12094. bytes (REL,CON)

      Value  Global                              Global Defined In Module
      -----  --------------------------------   ------------------------
     00001640  A$lcc1877237$142                   load
     00001642  A$lcc1877237$143                   load
     00001643  A$lcc1877237$144                   load
     00001644  A$lcc1877237$145                   load
     00001645  A$lcc1877237$146                   load
     00001647  A$lcc1877237$147                   load
     00001648  A$lcc1877237$148                   load
     00001649  A$lcc1877237$152                   load
     00001649  C$load.c$25$1_0$134                load
     0000164C  A$lcc1877237$153                   load
     0000164E  A$lcc1877237$154                   load
     0000164F  A$lcc1877237$155                   load
     00001652  A$lcc1877237$159                   load
     00001652  C$load.c$27$1_0$134                load
     00001653  A$lcc1877237$163                   load
     00001653  C$load.c$28$1_0$134                load
     00001655  A$lcc1877237$164                   load
     00001656  A$lcc1877237$165                   load
     00001657  A$lcc1877237$166                   load
     00001658  A$lcc1877237$176                   load
     00001658  C$load.c$30$1_0$138                load
     00001658  G$load_extra_tiles$0$0             load
     00001658  _load_extra_tiles                  load
     0000165A  A$lcc1877237$177                   load
     0000165B  A$lcc1877237$181                   load
     0000165B  C$load.c$32$2_0$139                load
     0000165E  A$lcc1877237$182                   load
     0000165F  A$lcc1877237$183                   load
     00001661  A$lcc1877237$184                   load
     00001663  A$lcc1877237$188                   load
     00001663  C$load.c$33$2_0$139                load
     00001665  A$lcc1877237$193                   load
     00001665  C$load.c$35$2_0$140                load
     00001668  A$lcc1877237$194                   load
     00001669  A$lcc1877237$198                   load
     00001669  C$load.c$37$1_1$140                load
     0000166A  A$lcc1877237$199                   load
     0000166C  A$lcc1877237$200                   load
     0000166D  A$lcc1877237$201                   load
     0000166E  A$lcc1877237$202                   load
     0000166F  A$lcc1877237$203                   load
     00001670  A$lcc1877237$204                   load
     00001671  A$lcc1877237$205                   load
     00001674  A$lcc1877237$206                   load
     00001676  A$lcc1877237$210                   load
     00001676  C$load.c$39$1_1$140                load
     00001679  A$lcc1877237$211                   load
     0000167B  A$lcc1877237$212                   load
     0000167C  A$lcc1877237$213                   load
     0000167F  A$lcc1877237$217                   load
     0000167F  C$load.c$42$1_2$141                load
ASxxxx Linker V03.00/V05.40 + sdld,  page 51.
Hexadecimal  [32-Bits]

Area                                    Addr        Size        Decimal Bytes (Attributes)
--------------------------------        ----        ----        ------- ----- ------------
_CODE                               00000200    00002F3E =       12094. bytes (REL,CON)

      Value  Global                              Global Defined In Module
      -----  --------------------------------   ------------------------
     00001681  A$lcc1877237$218                   load
     00001682  A$lcc1877237$222                   load
     00001682  C$load.c$43$1_2$141                load
     00001684  A$lcc1877237$223                   load
     00001685  A$lcc1877237$224                   load
     00001687  A$lcc1877237$228                   load
     00001687  C$load.c$44$1_2$141                load
     00001688  A$lcc1877237$229                   load
     00001689  A$lcc1877237$233                   load
     00001689  C$load.c$46$1_2$141                load
     0000168C  A$lcc1877237$234                   load
     0000168D  A$lcc1877237$235                   load
     0000168F  A$lcc1877237$236                   load
     00001690  A$lcc1877237$237                   load
     00001691  A$lcc1877237$238                   load
     00001692  A$lcc1877237$239                   load
     00001693  A$lcc1877237$240                   load
     00001696  A$lcc1877237$241                   load
     00001697  A$lcc1877237$242                   load
     00001698  A$lcc1877237$243                   load
     00001699  A$lcc1877237$244                   load
     0000169C  A$lcc1877237$245                   load
     0000169D  A$lcc1877237$246                   load
     000016A0  A$lcc1877237$247                   load
     000016A1  A$lcc1877237$248                   load
     000016A2  A$lcc1877237$249                   load
     000016A3  A$lcc1877237$250                   load
     000016A6  A$lcc1877237$254                   load
     000016A6  C$load.c$48$1_2$141                load
     000016A9  A$lcc1877237$255                   load
     000016AA  A$lcc1877237$256                   load
     000016AD  A$lcc1877237$257                   load
     000016AE  A$lcc1877237$258                   load
     000016AF  A$lcc1877237$262                   load
     000016AF  C$load.c$49$1_2$138                load
     000016B1  A$lcc1877237$263                   load
     000016B2  A$lcc1877237$264                   load
     000016B3  A$lcc1877237$265                   load
     000016B4  A$lcc1877237$278                   load
     000016B4  C$load.c$51$1_2$142                load
     000016B4  C$load.c$53$1_0$142                load
     000016B4  G$reset_extra_tiles$0$0            load
     000016B4  _reset_extra_tiles                 load
     000016B7  A$lcc1877237$279                   load
     000016B9  A$lcc1877237$287                   load
     000016B9  C$load.c$54$1_0$142                load
     000016B9  XG$reset_extra_tiles$0$0           load
     000016BA  A$lcc1877237$300                   load
     000016BA  C$load.c$56$1_0$144                load
     000016BA  C$load.c$58$3_0$146                load
     000016BA  G$reset_render_component$0$0       load
ASxxxx Linker V03.00/V05.40 + sdld,  page 52.
Hexadecimal  [32-Bits]

Area                                    Addr        Size        Decimal Bytes (Attributes)
--------------------------------        ----        ----        ------- ----- ------------
_CODE                               00000200    00002F3E =       12094. bytes (REL,CON)

      Value  Global                              Global Defined In Module
      -----  --------------------------------   ------------------------
     000016BA  _reset_render_component            load
     000016BC  A$lcc1877237$302                   load
     000016BD  A$lcc1877237$303                   load
     000016C0  A$lcc1877237$304                   load
     000016C1  A$lcc1877237$305                   load
     000016C3  A$lcc1877237$309                   load
     000016C3  C$load.c$60$3_0$146                load
     000016C6  A$lcc1877237$310                   load
     000016C8  A$lcc1877237$311                   load
     000016C9  A$lcc1877237$312                   load
     000016CB  A$lcc1877237$316                   load
     000016CB  C$load.c$61$3_0$146                load
     000016CE  A$lcc1877237$317                   load
     000016D0  A$lcc1877237$318                   load
     000016D1  A$lcc1877237$319                   load
     000016D3  A$lcc1877237$323                   load
     000016D3  C$load.c$58$2_0$145                load
     000016D4  A$lcc1877237$324                   load
     000016D6  A$lcc1877237$329                   load
     000016D6  C$load.c$64$1_0$144                load
     000016D7  A$lcc1877237$330                   load
     000016DA  A$lcc1877237$338                   load
     000016DA  C$load.c$65$1_0$144                load
     000016DA  XG$reset_render_component$0$0      load
     000016DB  A$lcc1877238$57                    map_scenes
     000016DB  C$map_scenes.c$17$0_0$174          map_scenes
     000016DB  G$scene_manager_MapScene$0$0       map_scenes
     000016DB  _scene_manager_MapScene            map_scenes
     000016DC  A$lcc1877238$61                    map_scenes
     000016DC  C$map_scenes.c$19$2_0$174          map_scenes
     000016DE  A$lcc1877238$62                    map_scenes
     000016DF  A$lcc1877238$63                    map_scenes
     000016E1  A$lcc1877238$64                    map_scenes
     000016E3  A$lcc1877238$65                    map_scenes
     000016E6  A$lcc1877238$66                    map_scenes
     000016E7  A$lcc1877238$67                    map_scenes
     000016E8  A$lcc1877238$68                    map_scenes
     000016E9  A$lcc1877238$69                    map_scenes
     000016EA  A$lcc1877238$70                    map_scenes
     000016EB  A$lcc1877238$71                    map_scenes
     000016EC  A$lcc1877238$72                    map_scenes
     000016F7  A$lcc1877238$86                    map_scenes
     000016F7  C$map_scenes.c$21$3_0$175          map_scenes
     000016F7  C$map_scenes.c$22$3_0$175          map_scenes
     000016FA  A$lcc1877238$90                    map_scenes
     000016FA  C$map_scenes.c$23$3_0$175          map_scenes
     000016FD  A$lcc1877238$91                    map_scenes
     000016FE  A$lcc1877238$99                    map_scenes
     000016FE  C$map_scenes.c$24$3_0$175          map_scenes
     000016FE  C$map_scenes.c$25$3_0$175          map_scenes
     00001701  A$lcc1877238$103                   map_scenes
ASxxxx Linker V03.00/V05.40 + sdld,  page 53.
Hexadecimal  [32-Bits]

Area                                    Addr        Size        Decimal Bytes (Attributes)
--------------------------------        ----        ----        ------- ----- ------------
_CODE                               00000200    00002F3E =       12094. bytes (REL,CON)

      Value  Global                              Global Defined In Module
      -----  --------------------------------   ------------------------
     00001701  C$map_scenes.c$26$3_0$175          map_scenes
     00001704  A$lcc1877238$104                   map_scenes
     00001705  A$lcc1877238$112                   map_scenes
     00001705  C$map_scenes.c$27$3_0$175          map_scenes
     00001705  C$map_scenes.c$28$3_0$175          map_scenes
     00001708  A$lcc1877238$116                   map_scenes
     00001708  C$map_scenes.c$29$3_0$175          map_scenes
     0000170B  A$lcc1877238$117                   map_scenes
     0000170C  A$lcc1877238$125                   map_scenes
     0000170C  C$map_scenes.c$32$3_0$175          map_scenes
     0000170C  C$map_scenes.c$33$3_0$175          map_scenes
     0000170F  A$lcc1877238$129                   map_scenes
     0000170F  C$map_scenes.c$34$3_0$175          map_scenes
     00001712  A$lcc1877238$130                   map_scenes
     00001713  A$lcc1877238$138                   map_scenes
     00001713  C$map_scenes.c$36$3_0$175          map_scenes
     00001713  C$map_scenes.c$37$3_0$175          map_scenes
     00001716  A$lcc1877238$142                   map_scenes
     00001716  C$map_scenes.c$38$3_0$175          map_scenes
     00001719  A$lcc1877238$143                   map_scenes
     0000171A  A$lcc1877238$151                   map_scenes
     0000171A  C$map_scenes.c$39$3_0$175          map_scenes
     0000171A  C$map_scenes.c$40$3_0$175          map_scenes
     0000171D  A$lcc1877238$162                   map_scenes
     0000171D  C$map_scenes.c$41$2_0$174          map_scenes
     0000171D  C$map_scenes.c$42$2_0$174          map_scenes
     0000171D  XG$scene_manager_MapScene$0$0      map_scenes
     0000171E  A$lcc1877240$56                    money
     0000171E  C$money.c$5$0_0$3                  money
     0000171E  G$add_money$0$0                    money
     0000171E  _add_money                         money
     0000171F  A$lcc1877240$60                    money
     0000171F  C$money.c$6$1_0$3                  money
     00001720  A$lcc1877240$61                    money
     00001722  A$lcc1877240$62                    money
     00001723  A$lcc1877240$63                    money
     00001724  A$lcc1877240$64                    money
     00001725  A$lcc1877240$65                    money
     00001726  A$lcc1877240$66                    money
     00001727  A$lcc1877240$67                    money
     00001728  A$lcc1877240$68                    money
     00001729  A$lcc1877240$69                    money
     0000172A  A$lcc1877240$70                    money
     0000172B  A$lcc1877240$71                    money
     0000172E  A$lcc1877240$72                    money
     0000172F  A$lcc1877240$73                    money
     00001732  A$lcc1877240$74                    money
     00001733  A$lcc1877240$75                    money
     00001734  A$lcc1877240$76                    money
     00001735  A$lcc1877240$77                    money
     00001736  A$lcc1877240$78                    money
ASxxxx Linker V03.00/V05.40 + sdld,  page 54.
Hexadecimal  [32-Bits]

Area                                    Addr        Size        Decimal Bytes (Attributes)
--------------------------------        ----        ----        ------- ----- ------------
_CODE                               00000200    00002F3E =       12094. bytes (REL,CON)

      Value  Global                              Global Defined In Module
      -----  --------------------------------   ------------------------
     00001737  A$lcc1877240$79                    money
     00001738  A$lcc1877240$80                    money
     0000173B  A$lcc1877240$81                    money
     0000173C  A$lcc1877240$82                    money
     0000173D  A$lcc1877240$83                    money
     0000173E  A$lcc1877240$87                    money
     0000173E  C$money.c$7$1_0$3                  money
     00001740  A$lcc1877240$88                    money
     00001741  A$lcc1877240$89                    money
     00001742  A$lcc1877240$90                    money
     00001743  A$lcc1877240$91                    money
     00001744  A$lcc1877240$92                    money
     00001745  A$lcc1877240$93                    money
     00001746  A$lcc1877240$94                    money
     00001747  A$lcc1877240$95                    money
     00001748  A$lcc1877240$96                    money
     00001749  A$lcc1877240$97                    money
     0000174A  A$lcc1877240$98                    money
     0000174B  A$lcc1877240$99                    money
     0000174C  A$lcc1877240$100                   money
     0000174F  A$lcc1877240$101                   money
     00001752  A$lcc1877240$102                   money
     00001753  A$lcc1877240$103                   money
     00001754  A$lcc1877240$104                   money
     00001755  A$lcc1877240$105                   money
     00001756  A$lcc1877240$106                   money
     00001757  A$lcc1877240$107                   money
     00001758  A$lcc1877240$108                   money
     00001759  A$lcc1877240$109                   money
     0000175A  A$lcc1877240$110                   money
     0000175B  A$lcc1877240$118                   money
     0000175B  C$money.c$8$1_0$3                  money
     0000175B  XG$add_money$0$0                   money
     0000175C  A$lcc1877242$75                    npcs
     0000175C  C$npcs.c$21$0_0$135                npcs
     0000175C  C$npcs.c$23$1_0$135                npcs
     0000175C  G$init_NPCs$0$0                    npcs
     0000175C  _init_NPCs                         npcs
     0000175F  A$lcc1877242$76                    npcs
     00001762  A$lcc1877242$80                    npcs
     00001762  C$npcs.c$24$1_0$135                npcs
     00001765  A$lcc1877242$81                    npcs
     00001768  A$lcc1877242$85                    npcs
     00001768  C$npcs.c$25$1_0$135                npcs
     0000176B  A$lcc1877242$86                    npcs
     0000176E  A$lcc1877242$94                    npcs
     0000176E  C$npcs.c$26$1_0$135                npcs
     0000176E  XG$init_NPCs$0$0                   npcs
     0000176F  A$lcc1877242$104                   npcs
     0000176F  C$npcs.c$28$1_0$137                npcs
     0000176F  G$Scene_DrawNPCLine$0$0            npcs
ASxxxx Linker V03.00/V05.40 + sdld,  page 55.
Hexadecimal  [32-Bits]

Area                                    Addr        Size        Decimal Bytes (Attributes)
--------------------------------        ----        ----        ------- ----- ------------
_CODE                               00000200    00002F3E =       12094. bytes (REL,CON)

      Value  Global                              Global Defined In Module
      -----  --------------------------------   ------------------------
     0000176F  _Scene_DrawNPCLine                 npcs
     00001771  A$lcc1877242$105                   npcs
     00001773  A$lcc1877242$106                   npcs
     00001774  A$lcc1877242$110                   npcs
     00001774  C$npcs.c$36$1_0$137                npcs
     00001776  A$lcc1877242$111                   npcs
     00001779  A$lcc1877242$112                   npcs
     0000177A  A$lcc1877242$113                   npcs
     0000177B  A$lcc1877242$114                   npcs
     0000177C  A$lcc1877242$115                   npcs
     0000177E  A$lcc1877242$116                   npcs
     0000177F  A$lcc1877242$117                   npcs
     00001780  A$lcc1877242$118                   npcs
     00001781  A$lcc1877242$119                   npcs
     00001783  A$lcc1877242$120                   npcs
     00001784  A$lcc1877242$121                   npcs
     00001785  A$lcc1877242$122                   npcs
     00001786  A$lcc1877242$123                   npcs
     00001787  A$lcc1877242$124                   npcs
     00001788  A$lcc1877242$125                   npcs
     0000178A  A$lcc1877242$126                   npcs
     0000178B  A$lcc1877242$130                   npcs
     0000178B  C$npcs.c$38$1_0$137                npcs
     0000178E  A$lcc1877242$131                   npcs
     00001790  A$lcc1877242$132                   npcs
     00001791  A$lcc1877242$133                   npcs
     00001792  A$lcc1877242$134                   npcs
     00001793  A$lcc1877242$135                   npcs
     00001794  A$lcc1877242$136                   npcs
     00001795  A$lcc1877242$137                   npcs
     00001796  A$lcc1877242$138                   npcs
     00001797  A$lcc1877242$139                   npcs
     00001798  A$lcc1877242$140                   npcs
     00001799  A$lcc1877242$144                   npcs
     00001799  C$npcs.c$40$1_0$137                npcs
     0000179C  A$lcc1877242$145                   npcs
     0000179D  A$lcc1877242$146                   npcs
     0000179E  A$lcc1877242$147                   npcs
     0000179F  A$lcc1877242$148                   npcs
     000017A1  A$lcc1877242$149                   npcs
     000017A2  A$lcc1877242$150                   npcs
     000017A3  A$lcc1877242$151                   npcs
     000017A4  A$lcc1877242$152                   npcs
     000017A5  A$lcc1877242$153                   npcs
     000017A6  A$lcc1877242$154                   npcs
     000017A7  A$lcc1877242$155                   npcs
     000017A8  A$lcc1877242$156                   npcs
     000017A9  A$lcc1877242$157                   npcs
     000017AA  A$lcc1877242$158                   npcs
     000017AB  A$lcc1877242$159                   npcs
     000017AD  A$lcc1877242$160                   npcs
ASxxxx Linker V03.00/V05.40 + sdld,  page 56.
Hexadecimal  [32-Bits]

Area                                    Addr        Size        Decimal Bytes (Attributes)
--------------------------------        ----        ----        ------- ----- ------------
_CODE                               00000200    00002F3E =       12094. bytes (REL,CON)

      Value  Global                              Global Defined In Module
      -----  --------------------------------   ------------------------
     000017AE  A$lcc1877242$161                   npcs
     000017AF  A$lcc1877242$162                   npcs
     000017B0  A$lcc1877242$163                   npcs
     000017B1  A$lcc1877242$164                   npcs
     000017B2  A$lcc1877242$168                   npcs
     000017B2  C$npcs.c$41$1_0$137                npcs
     000017B5  A$lcc1877242$169                   npcs
     000017B6  A$lcc1877242$170                   npcs
     000017B7  A$lcc1877242$171                   npcs
     000017B8  A$lcc1877242$175                   npcs
     000017B8  C$npcs.c$44$1_2$137                npcs
     000017B9  A$lcc1877242$176                   npcs
     000017BB  A$lcc1877242$177                   npcs
     000017BC  A$lcc1877242$178                   npcs
     000017BD  A$lcc1877242$180                   npcs
     000017BE  A$lcc1877242$181                   npcs
     000017C0  A$lcc1877242$182                   npcs
     000017C1  A$lcc1877242$183                   npcs
     000017C2  A$lcc1877242$184                   npcs
     000017C3  A$lcc1877242$185                   npcs
     000017C5  A$lcc1877242$186                   npcs
     000017C6  A$lcc1877242$187                   npcs
     000017C7  A$lcc1877242$188                   npcs
     000017C8  A$lcc1877242$189                   npcs
     000017C9  A$lcc1877242$190                   npcs
     000017CA  A$lcc1877242$191                   npcs
     000017CB  A$lcc1877242$192                   npcs
     000017CC  A$lcc1877242$193                   npcs
     000017CD  A$lcc1877242$194                   npcs
     000017CE  A$lcc1877242$195                   npcs
     000017D0  A$lcc1877242$199                   npcs
     000017D0  C$npcs.c$46$3_0$139                npcs
     000017D1  A$lcc1877242$200                   npcs
     000017D4  A$lcc1877242$201                   npcs
     000017D5  A$lcc1877242$202                   npcs
     000017D6  A$lcc1877242$203                   npcs
     000017D8  A$lcc1877242$204                   npcs
     000017DA  A$lcc1877242$205                   npcs
     000017DB  A$lcc1877242$209                   npcs
     000017DB  C$npcs.c$47$3_0$139                npcs
     000017DD  A$lcc1877242$210                   npcs
     000017DE  A$lcc1877242$211                   npcs
     000017DF  A$lcc1877242$212                   npcs
     000017E0  A$lcc1877242$213                   npcs
     000017E3  A$lcc1877242$214                   npcs
     000017E4  A$lcc1877242$215                   npcs
     000017E5  A$lcc1877242$216                   npcs
     000017E8  A$lcc1877242$217                   npcs
     000017E9  A$lcc1877242$218                   npcs
     000017EB  A$lcc1877242$219                   npcs
     000017EC  A$lcc1877242$220                   npcs
ASxxxx Linker V03.00/V05.40 + sdld,  page 57.
Hexadecimal  [32-Bits]

Area                                    Addr        Size        Decimal Bytes (Attributes)
--------------------------------        ----        ----        ------- ----- ------------
_CODE                               00000200    00002F3E =       12094. bytes (REL,CON)

      Value  Global                              Global Defined In Module
      -----  --------------------------------   ------------------------
     000017ED  A$lcc1877242$221                   npcs
     000017EE  A$lcc1877242$222                   npcs
     000017EF  A$lcc1877242$223                   npcs
     000017F2  A$lcc1877242$224                   npcs
     000017F4  A$lcc1877242$225                   npcs
     000017F5  A$lcc1877242$229                   npcs
     000017F5  C$npcs.c$44$2_0$138                npcs
     000017F7  A$lcc1877242$230                   npcs
     000017F8  A$lcc1877242$231                   npcs
     000017FA  A$lcc1877242$232                   npcs
     000017FB  A$lcc1877242$233                   npcs
     000017FC  A$lcc1877242$234                   npcs
     000017FE  A$lcc1877242$239                   npcs
     000017FE  C$npcs.c$51$1_2$137                npcs
     000017FF  A$lcc1877242$240                   npcs
     00001801  A$lcc1877242$241                   npcs
     00001802  A$lcc1877242$242                   npcs
     00001803  A$lcc1877242$244                   npcs
     00001804  A$lcc1877242$245                   npcs
     00001806  A$lcc1877242$246                   npcs
     00001807  A$lcc1877242$247                   npcs
     00001808  A$lcc1877242$248                   npcs
     00001809  A$lcc1877242$249                   npcs
     0000180A  A$lcc1877242$250                   npcs
     0000180B  A$lcc1877242$251                   npcs
     0000180C  A$lcc1877242$252                   npcs
     0000180D  A$lcc1877242$253                   npcs
     0000180E  A$lcc1877242$254                   npcs
     0000180F  A$lcc1877242$255                   npcs
     00001811  A$lcc1877242$259                   npcs
     00001811  C$npcs.c$53$3_0$141                npcs
     00001812  A$lcc1877242$260                   npcs
     00001815  A$lcc1877242$261                   npcs
     00001816  A$lcc1877242$262                   npcs
     00001817  A$lcc1877242$263                   npcs
     00001819  A$lcc1877242$267                   npcs
     00001819  C$npcs.c$54$3_0$141                npcs
     0000181B  A$lcc1877242$268                   npcs
     0000181C  A$lcc1877242$269                   npcs
     0000181D  A$lcc1877242$270                   npcs
     0000181E  A$lcc1877242$271                   npcs
     00001820  A$lcc1877242$272                   npcs
     00001821  A$lcc1877242$273                   npcs
     00001822  A$lcc1877242$274                   npcs
     00001823  A$lcc1877242$275                   npcs
     00001824  A$lcc1877242$276                   npcs
     00001826  A$lcc1877242$277                   npcs
     00001827  A$lcc1877242$278                   npcs
     00001828  A$lcc1877242$279                   npcs
     0000182A  A$lcc1877242$280                   npcs
     0000182B  A$lcc1877242$281                   npcs
ASxxxx Linker V03.00/V05.40 + sdld,  page 58.
Hexadecimal  [32-Bits]

Area                                    Addr        Size        Decimal Bytes (Attributes)
--------------------------------        ----        ----        ------- ----- ------------
_CODE                               00000200    00002F3E =       12094. bytes (REL,CON)

      Value  Global                              Global Defined In Module
      -----  --------------------------------   ------------------------
     0000182C  A$lcc1877242$282                   npcs
     0000182E  A$lcc1877242$283                   npcs
     0000182F  A$lcc1877242$284                   npcs
     00001830  A$lcc1877242$285                   npcs
     00001831  A$lcc1877242$286                   npcs
     00001832  A$lcc1877242$287                   npcs
     00001835  A$lcc1877242$288                   npcs
     00001837  A$lcc1877242$289                   npcs
     00001838  A$lcc1877242$293                   npcs
     00001838  C$npcs.c$51$2_0$140                npcs
     0000183A  A$lcc1877242$294                   npcs
     0000183B  A$lcc1877242$295                   npcs
     0000183D  A$lcc1877242$296                   npcs
     0000183E  A$lcc1877242$297                   npcs
     0000183F  A$lcc1877242$298                   npcs
     00001841  A$lcc1877242$303                   npcs
     00001843  A$lcc1877242$304                   npcs
     00001844  A$lcc1877242$305                   npcs
     00001846  A$lcc1877242$306                   npcs
     00001847  A$lcc1877242$307                   npcs
     00001848  A$lcc1877242$308                   npcs
     00001849  A$lcc1877242$309                   npcs
     0000184A  A$lcc1877242$310                   npcs
     0000184B  A$lcc1877242$311                   npcs
     0000184C  A$lcc1877242$312                   npcs
     0000184F  A$lcc1877242$313                   npcs
     00001850  A$lcc1877242$314                   npcs
     00001851  A$lcc1877242$315                   npcs
     00001852  A$lcc1877242$316                   npcs
     00001854  A$lcc1877242$317                   npcs
     00001855  A$lcc1877242$318                   npcs
     00001856  A$lcc1877242$319                   npcs
     00001857  A$lcc1877242$320                   npcs
     00001859  A$lcc1877242$321                   npcs
     0000185A  A$lcc1877242$322                   npcs
     0000185D  A$lcc1877242$324                   npcs
     0000185F  A$lcc1877242$325                   npcs
     00001860  A$lcc1877242$326                   npcs
     00001861  A$lcc1877242$327                   npcs
     00001862  A$lcc1877242$328                   npcs
     00001863  A$lcc1877242$329                   npcs
     00001864  A$lcc1877242$330                   npcs
     00001865  A$lcc1877242$331                   npcs
     00001866  A$lcc1877242$332                   npcs
     00001867  A$lcc1877242$333                   npcs
     00001869  A$lcc1877242$337                   npcs
     00001869  C$npcs.c$60$3_0$143                npcs
     0000186A  A$lcc1877242$338                   npcs
     0000186D  A$lcc1877242$339                   npcs
     0000186E  A$lcc1877242$340                   npcs
     0000186F  A$lcc1877242$341                   npcs
ASxxxx Linker V03.00/V05.40 + sdld,  page 59.
Hexadecimal  [32-Bits]

Area                                    Addr        Size        Decimal Bytes (Attributes)
--------------------------------        ----        ----        ------- ----- ------------
_CODE                               00000200    00002F3E =       12094. bytes (REL,CON)

      Value  Global                              Global Defined In Module
      -----  --------------------------------   ------------------------
     00001870  A$lcc1877242$342                   npcs
     00001872  A$lcc1877242$343                   npcs
     00001874  A$lcc1877242$344                   npcs
     00001875  A$lcc1877242$348                   npcs
     00001875  C$npcs.c$61$3_0$143                npcs
     00001876  A$lcc1877242$349                   npcs
     00001877  A$lcc1877242$350                   npcs
     0000187A  A$lcc1877242$351                   npcs
     0000187B  A$lcc1877242$352                   npcs
     0000187C  A$lcc1877242$353                   npcs
     0000187F  A$lcc1877242$354                   npcs
     00001880  A$lcc1877242$355                   npcs
     00001882  A$lcc1877242$356                   npcs
     00001883  A$lcc1877242$357                   npcs
     00001886  A$lcc1877242$358                   npcs
     00001888  A$lcc1877242$362                   npcs
     00001888  C$npcs.c$58$2_0$142                npcs
     00001889  A$lcc1877242$363                   npcs
     0000188B  A$lcc1877242$368                   npcs
     0000188B  C$npcs.c$65$1_1$144                npcs
     0000188D  A$lcc1877242$369                   npcs
     0000188E  A$lcc1877242$370                   npcs
     0000188F  A$lcc1877242$371                   npcs
     00001890  A$lcc1877242$372                   npcs
     00001891  A$lcc1877242$373                   npcs
     00001893  A$lcc1877242$374                   npcs
     00001895  A$lcc1877242$375                   npcs
     00001896  A$lcc1877242$379                   npcs
     00001896  C$npcs.c$66$1_1$144                npcs
     00001899  A$lcc1877242$380                   npcs
     0000189A  A$lcc1877242$381                   npcs
     0000189B  A$lcc1877242$382                   npcs
     0000189E  A$lcc1877242$383                   npcs
     0000189F  A$lcc1877242$384                   npcs
     000018A2  A$lcc1877242$385                   npcs
     000018A3  A$lcc1877242$386                   npcs
     000018A6  A$lcc1877242$387                   npcs
     000018A8  A$lcc1877242$391                   npcs
     000018A8  C$npcs.c$69$2_1$145                npcs
     000018AA  A$lcc1877242$392                   npcs
     000018AC  A$lcc1877242$396                   npcs
     000018AC  C$npcs.c$70$1_2$145                npcs
     000018AF  A$lcc1877242$397                   npcs
     000018B0  A$lcc1877242$398                   npcs
     000018B1  A$lcc1877242$399                   npcs
     000018B4  A$lcc1877242$400                   npcs
     000018B5  A$lcc1877242$401                   npcs
     000018B8  A$lcc1877242$402                   npcs
     000018B9  A$lcc1877242$403                   npcs
     000018BC  A$lcc1877242$407                   npcs
     000018BC  C$npcs.c$71$1_2$137                npcs
ASxxxx Linker V03.00/V05.40 + sdld,  page 60.
Hexadecimal  [32-Bits]

Area                                    Addr        Size        Decimal Bytes (Attributes)
--------------------------------        ----        ----        ------- ----- ------------
_CODE                               00000200    00002F3E =       12094. bytes (REL,CON)

      Value  Global                              Global Defined In Module
      -----  --------------------------------   ------------------------
     000018BE  A$lcc1877242$408                   npcs
     000018BF  A$lcc1877242$409                   npcs
     000018C1  A$lcc1877242$410                   npcs
     000018C2  A$lcc1877244$75                    player
     000018C2  C$player.c$11$0_0$158              player
     000018C2  C$player.c$12$1_0$158              player
     000018C2  G$create_player$0$0                player
     000018C2  _create_player                     player
     000018C5  A$lcc1877244$76                    player
     000018C8  A$lcc1877244$80                    player
     000018C8  C$player.c$13$1_0$158              player
     000018CB  A$lcc1877244$81                    player
     000018CE  A$lcc1877244$85                    player
     000018CE  C$player.c$15$1_0$158              player
     000018D1  A$lcc1877244$86                    player
     000018D4  A$lcc1877244$87                    player
     000018D5  A$lcc1877244$88                    player
     000018D7  A$lcc1877244$89                    player
     000018D8  A$lcc1877244$90                    player
     000018DA  A$lcc1877244$98                    player
     000018DA  C$player.c$16$1_0$158              player
     000018DA  XG$create_player$0$0               player
     000018DB  A$lcc1877244$108                   player
     000018DB  C$player.c$18$1_0$160              player
     000018DB  G$init_player$0$0                  player
     000018DB  _init_player                       player
     000018DD  A$lcc1877244$112                   player
     000018DD  C$player.c$19$1_0$160              player
     000018E0  A$lcc1877244$113                   player
     000018E1  A$lcc1877244$114                   player
     000018E3  A$lcc1877244$115                   player
     000018E6  A$lcc1877244$116                   player
     000018E7  A$lcc1877244$117                   player
     000018E9  A$lcc1877244$121                   player
     000018E9  C$player.c$20$1_0$160              player
     000018EC  A$lcc1877244$122                   player
     000018ED  A$lcc1877244$123                   player
     000018EF  A$lcc1877244$124                   player
     000018F2  A$lcc1877244$125                   player
     000018F3  A$lcc1877244$126                   player
     000018F5  A$lcc1877244$133                   player
     000018F8  A$lcc1877244$134                   player
     000018F9  A$lcc1877244$138                   player
     000018FC  A$lcc1877244$139                   player
     000018FE  A$lcc1877244$140                   player
     000018FF  A$lcc1877244$141                   player
     00001900  A$lcc1877244$151                   player
     00001900  C$player.c$22$2_0$161              player
     00001900  C$player.c$25$1_1$160              player
     00001900  C$player.c$26$1_1$160              player
     00001901  A$lcc1877244$152                   player
ASxxxx Linker V03.00/V05.40 + sdld,  page 61.
Hexadecimal  [32-Bits]

Area                                    Addr        Size        Decimal Bytes (Attributes)
--------------------------------        ----        ----        ------- ----- ------------
_CODE                               00000200    00002F3E =       12094. bytes (REL,CON)

      Value  Global                              Global Defined In Module
      -----  --------------------------------   ------------------------
     00001903  A$lcc1877244$156                   player
     00001903  C$player.c$23$3_0$162              player
     00001905  A$lcc1877244$157                   player
     00001906  A$lcc1877244$158                   player
     00001907  A$lcc1877244$159                   player
     00001909  A$lcc1877244$160                   player
     0000190B  A$lcc1877244$161                   player
     0000190C  A$lcc1877244$162                   player
     0000190F  A$lcc1877244$163                   player
     00001911  A$lcc1877244$164                   player
     00001912  A$lcc1877244$165                   player
     00001913  A$lcc1877244$166                   player
     00001914  A$lcc1877244$170                   player
     00001917  A$lcc1877244$174                   player
     00001917  C$player.c$24$3_0$162              player
     00001918  A$lcc1877244$175                   player
     0000191A  A$lcc1877244$176                   player
     0000191B  A$lcc1877244$177                   player
     0000191D  A$lcc1877244$178                   player
     0000191F  A$lcc1877244$179                   player
     00001920  A$lcc1877244$180                   player
     00001923  A$lcc1877244$181                   player
     00001925  A$lcc1877244$182                   player
     00001926  A$lcc1877244$183                   player
     00001927  A$lcc1877244$184                   player
     00001928  A$lcc1877244$188                   player
     00001928  C$player.c$25$3_0$162              player
     0000192B  A$lcc1877244$189                   player
     0000192C  A$lcc1877244$190                   player
     0000192D  A$lcc1877244$191                   player
     0000192F  A$lcc1877244$192                   player
     00001930  A$lcc1877244$193                   player
     00001932  A$lcc1877244$194                   player
     00001934  A$lcc1877244$195                   player
     00001935  A$lcc1877244$196                   player
     00001938  A$lcc1877244$197                   player
     0000193A  A$lcc1877244$198                   player
     0000193B  A$lcc1877244$199                   player
     0000193C  A$lcc1877244$200                   player
     0000193D  A$lcc1877244$201                   player
     0000193E  A$lcc1877244$202                   player
     0000193F  A$lcc1877244$203                   player
     00001940  A$lcc1877244$204                   player
     00001941  A$lcc1877244$208                   player
     00001941  C$player.c$26$3_0$162              player
     00001944  A$lcc1877244$209                   player
     00001945  A$lcc1877244$210                   player
     00001946  A$lcc1877244$211                   player
     00001948  A$lcc1877244$212                   player
     00001949  A$lcc1877244$213                   player
     0000194B  A$lcc1877244$214                   player
ASxxxx Linker V03.00/V05.40 + sdld,  page 62.
Hexadecimal  [32-Bits]

Area                                    Addr        Size        Decimal Bytes (Attributes)
--------------------------------        ----        ----        ------- ----- ------------
_CODE                               00000200    00002F3E =       12094. bytes (REL,CON)

      Value  Global                              Global Defined In Module
      -----  --------------------------------   ------------------------
     0000194D  A$lcc1877244$215                   player
     0000194E  A$lcc1877244$216                   player
     00001951  A$lcc1877244$217                   player
     00001953  A$lcc1877244$218                   player
     00001954  A$lcc1877244$219                   player
     00001955  A$lcc1877244$220                   player
     00001956  A$lcc1877244$221                   player
     00001957  A$lcc1877244$222                   player
     00001958  A$lcc1877244$223                   player
     00001959  A$lcc1877244$224                   player
     0000195A  A$lcc1877244$228                   player
     0000195A  C$player.c$28$3_0$162              player
     0000195D  A$lcc1877244$229                   player
     0000195E  A$lcc1877244$230                   player
     00001960  A$lcc1877244$231                   player
     00001963  A$lcc1877244$232                   player
     00001964  A$lcc1877244$233                   player
     00001966  A$lcc1877244$238                   player
     00001966  C$player.c$31$1_0$160              player
     00001969  A$lcc1877244$239                   player
     0000196C  A$lcc1877244$240                   player
     0000196E  A$lcc1877244$241                   player
     0000196F  A$lcc1877244$242                   player
     00001970  A$lcc1877244$243                   player
     00001971  A$lcc1877244$244                   player
     00001973  A$lcc1877244$245                   player
     00001974  A$lcc1877244$246                   player
     00001976  A$lcc1877244$250                   player
     00001976  C$player.c$19$1_1$160              player
     00001979  A$lcc1877244$251                   player
     0000197A  A$lcc1877244$255                   player
     0000197A  C$player.c$33$1_0$160              player
     0000197D  A$lcc1877244$256                   player
     0000197F  A$lcc1877244$257                   player
     00001980  A$lcc1877244$258                   player
     00001981  A$lcc1877244$259                   player
     00001984  A$lcc1877244$263                   player
     00001984  C$player.c$35$1_0$160              player
     00001987  A$lcc1877244$264                   player
     00001988  A$lcc1877244$265                   player
     0000198A  A$lcc1877244$266                   player
     0000198B  A$lcc1877244$267                   player
     0000198D  A$lcc1877244$268                   player
     0000198F  A$lcc1877244$269                   player
     00001990  A$lcc1877244$270                   player
     00001993  A$lcc1877244$271                   player
     00001995  A$lcc1877244$272                   player
     00001996  A$lcc1877244$273                   player
     00001997  A$lcc1877244$274                   player
     00001998  A$lcc1877244$275                   player
     00001999  A$lcc1877244$276                   player
ASxxxx Linker V03.00/V05.40 + sdld,  page 63.
Hexadecimal  [32-Bits]

Area                                    Addr        Size        Decimal Bytes (Attributes)
--------------------------------        ----        ----        ------- ----- ------------
_CODE                               00000200    00002F3E =       12094. bytes (REL,CON)

      Value  Global                              Global Defined In Module
      -----  --------------------------------   ------------------------
     0000199A  A$lcc1877244$277                   player
     0000199B  A$lcc1877244$278                   player
     0000199C  A$lcc1877244$282                   player
     0000199C  C$player.c$36$1_0$160              player
     0000199F  A$lcc1877244$283                   player
     000019A0  A$lcc1877244$284                   player
     000019A1  A$lcc1877244$285                   player
     000019A3  A$lcc1877244$286                   player
     000019A6  A$lcc1877244$287                   player
     000019A7  A$lcc1877244$288                   player
     000019AA  A$lcc1877244$289                   player
     000019AC  A$lcc1877244$290                   player
     000019AD  A$lcc1877244$291                   player
     000019AF  A$lcc1877244$292                   player
     000019B1  A$lcc1877244$293                   player
     000019B2  A$lcc1877244$294                   player
     000019B3  A$lcc1877244$295                   player
     000019B4  A$lcc1877244$296                   player
     000019B5  A$lcc1877244$297                   player
     000019B6  A$lcc1877244$298                   player
     000019B7  A$lcc1877244$302                   player
     000019B7  C$player.c$38$1_0$160              player
     000019BA  A$lcc1877244$303                   player
     000019BB  A$lcc1877244$304                   player
     000019BD  A$lcc1877244$305                   player
     000019C0  A$lcc1877244$306                   player
     000019C1  A$lcc1877244$307                   player
     000019C3  A$lcc1877244$311                   player
     000019C3  C$player.c$39$1_0$160              player
     000019C6  A$lcc1877244$312                   player
     000019C9  A$lcc1877244$313                   player
     000019CA  A$lcc1877244$314                   player
     000019CC  A$lcc1877244$315                   player
     000019CD  A$lcc1877244$316                   player
     000019CF  A$lcc1877244$320                   player
     000019CF  C$player.c$40$1_0$160              player
     000019D2  A$lcc1877244$321                   player
     000019D5  A$lcc1877244$322                   player
     000019D6  A$lcc1877244$323                   player
     000019D8  A$lcc1877244$324                   player
     000019D9  A$lcc1877244$325                   player
     000019DB  A$lcc1877244$329                   player
     000019DB  C$player.c$43$2_0$163              player
     000019DE  A$lcc1877244$330                   player
     000019DF  A$lcc1877244$331                   player
     000019E0  A$lcc1877244$332                   player
     000019E1  A$lcc1877244$333                   player
     000019E3  A$lcc1877244$334                   player
     000019E5  A$lcc1877244$335                   player
     000019E6  A$lcc1877244$336                   player
     000019E8  A$lcc1877244$337                   player
ASxxxx Linker V03.00/V05.40 + sdld,  page 64.
Hexadecimal  [32-Bits]

Area                                    Addr        Size        Decimal Bytes (Attributes)
--------------------------------        ----        ----        ------- ----- ------------
_CODE                               00000200    00002F3E =       12094. bytes (REL,CON)

      Value  Global                              Global Defined In Module
      -----  --------------------------------   ------------------------
     000019E9  A$lcc1877244$338                   player
     000019EB  A$lcc1877244$339                   player
     000019EC  A$lcc1877244$340                   player
     000019EE  A$lcc1877244$341                   player
     000019EF  A$lcc1877244$342                   player
     000019F1  A$lcc1877244$343                   player
     000019F2  A$lcc1877244$344                   player
     000019F4  A$lcc1877244$348                   player
     000019F4  C$player.c$47$2_0$163              player
     000019F5  A$lcc1877244$349                   player
     000019F7  A$lcc1877244$350                   player
     000019F8  A$lcc1877244$351                   player
     000019FA  A$lcc1877244$352                   player
     000019FB  A$lcc1877244$353                   player
     000019FD  A$lcc1877244$354                   player
     000019FE  A$lcc1877244$355                   player
     00001A00  A$lcc1877244$356                   player
     00001A01  A$lcc1877244$357                   player
     00001A03  A$lcc1877244$358                   player
     00001A04  A$lcc1877244$359                   player
     00001A06  A$lcc1877244$360                   player
     00001A07  A$lcc1877244$361                   player
     00001A09  A$lcc1877244$362                   player
     00001A0A  A$lcc1877244$363                   player
     00001A0C  A$lcc1877244$364                   player
     00001A0D  A$lcc1877244$365                   player
     00001A0E  A$lcc1877244$366                   player
     00001A0F  A$lcc1877244$367                   player
     00001A10  A$lcc1877244$368                   player
     00001A11  A$lcc1877244$369                   player
     00001A13  A$lcc1877244$370                   player
     00001A14  A$lcc1877244$371                   player
     00001A16  A$lcc1877244$372                   player
     00001A17  A$lcc1877244$373                   player
     00001A19  A$lcc1877244$374                   player
     00001A1A  A$lcc1877244$375                   player
     00001A1C  A$lcc1877244$376                   player
     00001A1D  A$lcc1877244$377                   player
     00001A1F  A$lcc1877244$378                   player
     00001A20  A$lcc1877244$379                   player
     00001A22  A$lcc1877244$380                   player
     00001A23  A$lcc1877244$381                   player
     00001A25  A$lcc1877244$382                   player
     00001A26  A$lcc1877244$383                   player
     00001A28  A$lcc1877244$384                   player
     00001A29  A$lcc1877244$385                   player
     00001A2B  A$lcc1877244$386                   player
     00001A2C  A$lcc1877244$387                   player
     00001A2E  A$lcc1877244$388                   player
     00001A2F  A$lcc1877244$389                   player
     00001A31  A$lcc1877244$390                   player
ASxxxx Linker V03.00/V05.40 + sdld,  page 65.
Hexadecimal  [32-Bits]

Area                                    Addr        Size        Decimal Bytes (Attributes)
--------------------------------        ----        ----        ------- ----- ------------
_CODE                               00000200    00002F3E =       12094. bytes (REL,CON)

      Value  Global                              Global Defined In Module
      -----  --------------------------------   ------------------------
     00001A32  A$lcc1877244$391                   player
     00001A34  A$lcc1877244$392                   player
     00001A35  A$lcc1877244$393                   player
     00001A37  A$lcc1877244$394                   player
     00001A38  A$lcc1877244$395                   player
     00001A3A  A$lcc1877244$396                   player
     00001A3B  A$lcc1877244$397                   player
     00001A3C  A$lcc1877244$398                   player
     00001A3D  A$lcc1877244$399                   player
     00001A3E  A$lcc1877244$400                   player
     00001A3F  A$lcc1877244$401                   player
     00001A41  A$lcc1877244$402                   player
     00001A42  A$lcc1877244$403                   player
     00001A44  A$lcc1877244$404                   player
     00001A45  A$lcc1877244$405                   player
     00001A47  A$lcc1877244$406                   player
     00001A48  A$lcc1877244$407                   player
     00001A4A  A$lcc1877244$408                   player
     00001A4B  A$lcc1877244$409                   player
     00001A4D  A$lcc1877244$410                   player
     00001A4E  A$lcc1877244$411                   player
     00001A50  A$lcc1877244$415                   player
     00001A50  C$player.c$62$2_0$163              player
     00001A51  A$lcc1877244$416                   player
     00001A54  A$lcc1877244$417                   player
     00001A55  A$lcc1877244$418                   player
     00001A56  A$lcc1877244$419                   player
     00001A57  A$lcc1877244$420                   player
     00001A58  A$lcc1877244$421                   player
     00001A5A  A$lcc1877244$422                   player
     00001A5B  A$lcc1877244$423                   player
     00001A5D  A$lcc1877244$424                   player
     00001A5E  A$lcc1877244$425                   player
     00001A60  A$lcc1877244$426                   player
     00001A61  A$lcc1877244$427                   player
     00001A63  A$lcc1877244$428                   player
     00001A64  A$lcc1877244$429                   player
     00001A66  A$lcc1877244$430                   player
     00001A67  A$lcc1877244$431                   player
     00001A69  A$lcc1877244$435                   player
     00001A69  C$player.c$66$2_0$163              player
     00001A6A  A$lcc1877244$436                   player
     00001A6C  A$lcc1877244$437                   player
     00001A6D  A$lcc1877244$438                   player
     00001A6F  A$lcc1877244$439                   player
     00001A70  A$lcc1877244$440                   player
     00001A72  A$lcc1877244$441                   player
     00001A73  A$lcc1877244$442                   player
     00001A75  A$lcc1877244$443                   player
     00001A76  A$lcc1877244$444                   player
     00001A78  A$lcc1877244$445                   player
ASxxxx Linker V03.00/V05.40 + sdld,  page 66.
Hexadecimal  [32-Bits]

Area                                    Addr        Size        Decimal Bytes (Attributes)
--------------------------------        ----        ----        ------- ----- ------------
_CODE                               00000200    00002F3E =       12094. bytes (REL,CON)

      Value  Global                              Global Defined In Module
      -----  --------------------------------   ------------------------
     00001A79  A$lcc1877244$446                   player
     00001A7B  A$lcc1877244$447                   player
     00001A7C  A$lcc1877244$448                   player
     00001A7E  A$lcc1877244$449                   player
     00001A7F  A$lcc1877244$450                   player
     00001A81  A$lcc1877244$451                   player
     00001A82  A$lcc1877244$452                   player
     00001A83  A$lcc1877244$453                   player
     00001A84  A$lcc1877244$454                   player
     00001A85  A$lcc1877244$455                   player
     00001A86  A$lcc1877244$456                   player
     00001A88  A$lcc1877244$457                   player
     00001A89  A$lcc1877244$458                   player
     00001A8B  A$lcc1877244$459                   player
     00001A8C  A$lcc1877244$460                   player
     00001A8E  A$lcc1877244$461                   player
     00001A8F  A$lcc1877244$462                   player
     00001A91  A$lcc1877244$463                   player
     00001A92  A$lcc1877244$464                   player
     00001A94  A$lcc1877244$465                   player
     00001A95  A$lcc1877244$466                   player
     00001A97  A$lcc1877244$467                   player
     00001A98  A$lcc1877244$468                   player
     00001A9A  A$lcc1877244$469                   player
     00001A9B  A$lcc1877244$470                   player
     00001A9D  A$lcc1877244$471                   player
     00001A9E  A$lcc1877244$472                   player
     00001AA0  A$lcc1877244$473                   player
     00001AA1  A$lcc1877244$474                   player
     00001AA3  A$lcc1877244$475                   player
     00001AA4  A$lcc1877244$476                   player
     00001AA6  A$lcc1877244$477                   player
     00001AA7  A$lcc1877244$478                   player
     00001AA9  A$lcc1877244$479                   player
     00001AAA  A$lcc1877244$480                   player
     00001AAC  A$lcc1877244$481                   player
     00001AAD  A$lcc1877244$482                   player
     00001AAF  A$lcc1877244$483                   player
     00001AB0  A$lcc1877244$484                   player
     00001AB1  A$lcc1877244$485                   player
     00001AB2  A$lcc1877244$486                   player
     00001AB3  A$lcc1877244$487                   player
     00001AB4  A$lcc1877244$488                   player
     00001AB6  A$lcc1877244$489                   player
     00001AB7  A$lcc1877244$490                   player
     00001AB9  A$lcc1877244$491                   player
     00001ABA  A$lcc1877244$492                   player
     00001ABC  A$lcc1877244$493                   player
     00001ABD  A$lcc1877244$494                   player
     00001ABF  A$lcc1877244$495                   player
     00001AC0  A$lcc1877244$496                   player
ASxxxx Linker V03.00/V05.40 + sdld,  page 67.
Hexadecimal  [32-Bits]

Area                                    Addr        Size        Decimal Bytes (Attributes)
--------------------------------        ----        ----        ------- ----- ------------
_CODE                               00000200    00002F3E =       12094. bytes (REL,CON)

      Value  Global                              Global Defined In Module
      -----  --------------------------------   ------------------------
     00001AC2  A$lcc1877244$497                   player
     00001AC3  A$lcc1877244$498                   player
     00001AC5  A$lcc1877244$502                   player
     00001AC5  C$player.c$80$1_1$163              player
     00001AC8  A$lcc1877244$503                   player
     00001AC9  A$lcc1877244$504                   player
     00001ACB  A$lcc1877244$505                   player
     00001ACC  A$lcc1877244$506                   player
     00001ACD  A$lcc1877244$507                   player
     00001ACE  A$lcc1877244$508                   player
     00001ACF  A$lcc1877244$509                   player
     00001AD0  A$lcc1877244$510                   player
     00001AD1  A$lcc1877244$511                   player
     00001AD2  A$lcc1877244$512                   player
     00001AD3  A$lcc1877244$513                   player
     00001AD4  A$lcc1877244$514                   player
     00001AD7  A$lcc1877244$515                   player
     00001AD8  A$lcc1877244$516                   player
     00001AD9  A$lcc1877244$517                   player
     00001ADA  A$lcc1877244$518                   player
     00001ADD  A$lcc1877244$519                   player
     00001ADE  A$lcc1877244$520                   player
     00001AE0  A$lcc1877244$521                   player
     00001AE1  A$lcc1877244$522                   player
     00001AE2  A$lcc1877244$523                   player
     00001AE5  A$lcc1877244$524                   player
     00001AE6  A$lcc1877244$525                   player
     00001AE7  A$lcc1877244$526                   player
     00001AE8  A$lcc1877244$527                   player
     00001AE9  A$lcc1877244$528                   player
     00001AEA  A$lcc1877244$529                   player
     00001AEB  A$lcc1877244$530                   player
     00001AEE  A$lcc1877244$531                   player
     00001AF1  A$lcc1877244$535                   player
     00001AF1  C$player.c$82$1_1$163              player
     00001AF4  A$lcc1877244$536                   player
     00001AF5  A$lcc1877244$537                   player
     00001AF7  A$lcc1877244$538                   player
     00001AF8  A$lcc1877244$539                   player
     00001AF9  A$lcc1877244$540                   player
     00001AFA  A$lcc1877244$541                   player
     00001AFB  A$lcc1877244$542                   player
     00001AFC  A$lcc1877244$543                   player
     00001AFD  A$lcc1877244$544                   player
     00001AFE  A$lcc1877244$545                   player
     00001AFF  A$lcc1877244$546                   player
     00001B00  A$lcc1877244$547                   player
     00001B03  A$lcc1877244$548                   player
     00001B04  A$lcc1877244$549                   player
     00001B05  A$lcc1877244$550                   player
     00001B06  A$lcc1877244$551                   player
ASxxxx Linker V03.00/V05.40 + sdld,  page 68.
Hexadecimal  [32-Bits]

Area                                    Addr        Size        Decimal Bytes (Attributes)
--------------------------------        ----        ----        ------- ----- ------------
_CODE                               00000200    00002F3E =       12094. bytes (REL,CON)

      Value  Global                              Global Defined In Module
      -----  --------------------------------   ------------------------
     00001B09  A$lcc1877244$552                   player
     00001B0A  A$lcc1877244$553                   player
     00001B0C  A$lcc1877244$554                   player
     00001B0D  A$lcc1877244$555                   player
     00001B0E  A$lcc1877244$556                   player
     00001B11  A$lcc1877244$557                   player
     00001B12  A$lcc1877244$558                   player
     00001B13  A$lcc1877244$559                   player
     00001B15  A$lcc1877244$560                   player
     00001B16  A$lcc1877244$561                   player
     00001B17  A$lcc1877244$562                   player
     00001B18  A$lcc1877244$563                   player
     00001B1B  A$lcc1877244$564                   player
     00001B1E  A$lcc1877244$568                   player
     00001B1E  C$player.c$84$1_1$163              player
     00001B21  A$lcc1877244$569                   player
     00001B22  A$lcc1877244$570                   player
     00001B24  A$lcc1877244$571                   player
     00001B25  A$lcc1877244$572                   player
     00001B26  A$lcc1877244$573                   player
     00001B27  A$lcc1877244$574                   player
     00001B28  A$lcc1877244$575                   player
     00001B29  A$lcc1877244$576                   player
     00001B2A  A$lcc1877244$577                   player
     00001B2B  A$lcc1877244$578                   player
     00001B2C  A$lcc1877244$579                   player
     00001B2D  A$lcc1877244$580                   player
     00001B30  A$lcc1877244$581                   player
     00001B31  A$lcc1877244$582                   player
     00001B32  A$lcc1877244$583                   player
     00001B33  A$lcc1877244$584                   player
     00001B36  A$lcc1877244$585                   player
     00001B37  A$lcc1877244$586                   player
     00001B39  A$lcc1877244$587                   player
     00001B3A  A$lcc1877244$588                   player
     00001B3B  A$lcc1877244$589                   player
     00001B3E  A$lcc1877244$590                   player
     00001B3F  A$lcc1877244$591                   player
     00001B40  A$lcc1877244$592                   player
     00001B42  A$lcc1877244$593                   player
     00001B43  A$lcc1877244$594                   player
     00001B44  A$lcc1877244$595                   player
     00001B45  A$lcc1877244$596                   player
     00001B48  A$lcc1877244$597                   player
     00001B4B  A$lcc1877244$601                   player
     00001B4B  C$player.c$86$1_1$163              player
     00001B4E  A$lcc1877244$602                   player
     00001B4F  A$lcc1877244$603                   player
     00001B51  A$lcc1877244$604                   player
     00001B52  A$lcc1877244$605                   player
     00001B53  A$lcc1877244$606                   player
ASxxxx Linker V03.00/V05.40 + sdld,  page 69.
Hexadecimal  [32-Bits]

Area                                    Addr        Size        Decimal Bytes (Attributes)
--------------------------------        ----        ----        ------- ----- ------------
_CODE                               00000200    00002F3E =       12094. bytes (REL,CON)

      Value  Global                              Global Defined In Module
      -----  --------------------------------   ------------------------
     00001B54  A$lcc1877244$607                   player
     00001B55  A$lcc1877244$608                   player
     00001B56  A$lcc1877244$609                   player
     00001B57  A$lcc1877244$610                   player
     00001B58  A$lcc1877244$611                   player
     00001B59  A$lcc1877244$612                   player
     00001B5A  A$lcc1877244$613                   player
     00001B5D  A$lcc1877244$614                   player
     00001B5E  A$lcc1877244$615                   player
     00001B5F  A$lcc1877244$616                   player
     00001B60  A$lcc1877244$617                   player
     00001B63  A$lcc1877244$618                   player
     00001B64  A$lcc1877244$619                   player
     00001B66  A$lcc1877244$620                   player
     00001B67  A$lcc1877244$621                   player
     00001B68  A$lcc1877244$622                   player
     00001B6B  A$lcc1877244$623                   player
     00001B6C  A$lcc1877244$624                   player
     00001B6D  A$lcc1877244$625                   player
     00001B6F  A$lcc1877244$626                   player
     00001B70  A$lcc1877244$627                   player
     00001B71  A$lcc1877244$628                   player
     00001B72  A$lcc1877244$629                   player
     00001B75  A$lcc1877244$630                   player
     00001B78  A$lcc1877244$634                   player
     00001B78  C$player.c$89$1_1$163              player
     00001B7B  A$lcc1877244$638                   player
     00001B7B  C$player.c$90$1_1$163              player
     00001B7C  A$lcc1877244$639                   player
     00001B7D  A$lcc1877244$640                   player
     00001B7F  A$lcc1877244$644                   player
     00001B7F  C$player.c$91$1_1$163              player
     00001B82  A$lcc1877244$645                   player
     00001B84  A$lcc1877244$649                   player
     00001B84  C$player.c$92$1_1$163              player
     00001B87  A$lcc1877244$650                   player
     00001B89  A$lcc1877244$654                   player
     00001B89  C$player.c$94$1_1$163              player
     00001B8C  A$lcc1877244$658                   player
     00001B8E  A$lcc1877244$663                   player
     00001B8E  C$player.c$95$1_1$160              player
     00001B8E  XG$init_player$0$0                 player
     00001B8F  A$lcc1877244$676                   player
     00001B8F  C$player.c$97$1_1$164              player
     00001B8F  G$cache_player_position$0$0        player
     00001B8F  _cache_player_position             player
     00001B92  A$lcc1877244$677                   player
     00001B93  A$lcc1877244$678                   player
     00001B95  A$lcc1877244$679                   player
     00001B96  A$lcc1877244$680                   player
     00001B98  A$lcc1877244$681                   player
ASxxxx Linker V03.00/V05.40 + sdld,  page 70.
Hexadecimal  [32-Bits]

Area                                    Addr        Size        Decimal Bytes (Attributes)
--------------------------------        ----        ----        ------- ----- ------------
_CODE                               00000200    00002F3E =       12094. bytes (REL,CON)

      Value  Global                              Global Defined In Module
      -----  --------------------------------   ------------------------
     00001B9A  A$lcc1877244$682                   player
     00001B9B  A$lcc1877244$683                   player
     00001B9E  A$lcc1877244$684                   player
     00001BA0  A$lcc1877244$685                   player
     00001BA1  A$lcc1877244$686                   player
     00001BA2  A$lcc1877244$687                   player
     00001BA3  A$lcc1877244$694                   player
     00001BA3  C$player.c$98$1_0$164              player
     00001BA6  A$lcc1877244$698                   player
     00001BA6  C$player.c$99$1_0$164              player
     00001BA7  A$lcc1877244$699                   player
     00001BA9  A$lcc1877244$700                   player
     00001BAA  A$lcc1877244$701                   player
     00001BAC  A$lcc1877244$702                   player
     00001BAE  A$lcc1877244$703                   player
     00001BAF  A$lcc1877244$704                   player
     00001BB2  A$lcc1877244$705                   player
     00001BB4  A$lcc1877244$706                   player
     00001BB5  A$lcc1877244$707                   player
     00001BB6  A$lcc1877244$708                   player
     00001BB7  A$lcc1877244$712                   player
     00001BB7  C$player.c$100$1_0$164             player
     00001BBA  A$lcc1877244$713                   player
     00001BBB  A$lcc1877244$714                   player
     00001BBC  A$lcc1877244$715                   player
     00001BBE  A$lcc1877244$716                   player
     00001BBF  A$lcc1877244$717                   player
     00001BC1  A$lcc1877244$718                   player
     00001BC3  A$lcc1877244$719                   player
     00001BC4  A$lcc1877244$720                   player
     00001BC7  A$lcc1877244$721                   player
     00001BC9  A$lcc1877244$722                   player
     00001BCA  A$lcc1877244$723                   player
     00001BCB  A$lcc1877244$724                   player
     00001BCC  A$lcc1877244$725                   player
     00001BCD  A$lcc1877244$726                   player
     00001BCE  A$lcc1877244$727                   player
     00001BCF  A$lcc1877244$728                   player
     00001BD0  A$lcc1877244$732                   player
     00001BD0  C$player.c$101$1_0$164             player
     00001BD3  A$lcc1877244$733                   player
     00001BD4  A$lcc1877244$734                   player
     00001BD5  A$lcc1877244$735                   player
     00001BD7  A$lcc1877244$736                   player
     00001BD8  A$lcc1877244$737                   player
     00001BDA  A$lcc1877244$738                   player
     00001BDC  A$lcc1877244$739                   player
     00001BDD  A$lcc1877244$740                   player
     00001BE0  A$lcc1877244$741                   player
     00001BE2  A$lcc1877244$742                   player
     00001BE3  A$lcc1877244$743                   player
ASxxxx Linker V03.00/V05.40 + sdld,  page 71.
Hexadecimal  [32-Bits]

Area                                    Addr        Size        Decimal Bytes (Attributes)
--------------------------------        ----        ----        ------- ----- ------------
_CODE                               00000200    00002F3E =       12094. bytes (REL,CON)

      Value  Global                              Global Defined In Module
      -----  --------------------------------   ------------------------
     00001BE4  A$lcc1877244$744                   player
     00001BE5  A$lcc1877244$745                   player
     00001BE6  A$lcc1877244$746                   player
     00001BE7  A$lcc1877244$747                   player
     00001BE8  A$lcc1877244$748                   player
     00001BE9  A$lcc1877244$752                   player
     00001BE9  C$player.c$103$1_0$164             player
     00001BEC  A$lcc1877244$753                   player
     00001BEF  A$lcc1877244$754                   player
     00001BF0  A$lcc1877244$755                   player
     00001BF2  A$lcc1877244$756                   player
     00001BF3  A$lcc1877244$757                   player
     00001BF5  A$lcc1877244$765                   player
     00001BF5  C$player.c$104$1_0$164             player
     00001BF5  XG$cache_player_position$0$0       player
     00001BF6  A$lcc1877246$59                    random
     00001BF6  C$random.c$5$0_0$1                 random
     00001BF6  C$random.c$7$1_0$1                 random
     00001BF6  G$my_rand$0$0                      random
     00001BF6  _my_rand                           random
     00001BF9  A$lcc1877246$60                    random
     00001BFA  A$lcc1877246$61                    random
     00001BFB  A$lcc1877246$62                    random
     00001BFC  A$lcc1877246$63                    random
     00001BFD  A$lcc1877246$64                    random
     00001BFE  A$lcc1877246$65                    random
     00001BFF  A$lcc1877246$66                    random
     00001C00  A$lcc1877246$67                    random
     00001C01  A$lcc1877246$68                    random
     00001C02  A$lcc1877246$69                    random
     00001C03  A$lcc1877246$70                    random
     00001C04  A$lcc1877246$71                    random
     00001C05  A$lcc1877246$72                    random
     00001C06  A$lcc1877246$73                    random
     00001C07  A$lcc1877246$74                    random
     00001C08  A$lcc1877246$75                    random
     00001C09  A$lcc1877246$76                    random
     00001C0A  A$lcc1877246$77                    random
     00001C0B  A$lcc1877246$78                    random
     00001C0C  A$lcc1877246$79                    random
     00001C0D  A$lcc1877246$80                    random
     00001C0E  A$lcc1877246$81                    random
     00001C0F  A$lcc1877246$82                    random
     00001C10  A$lcc1877246$83                    random
     00001C11  A$lcc1877246$84                    random
     00001C12  A$lcc1877246$85                    random
     00001C13  A$lcc1877246$86                    random
     00001C14  A$lcc1877246$87                    random
     00001C15  A$lcc1877246$88                    random
     00001C17  A$lcc1877246$89                    random
     00001C1A  A$lcc1877246$90                    random
ASxxxx Linker V03.00/V05.40 + sdld,  page 72.
Hexadecimal  [32-Bits]

Area                                    Addr        Size        Decimal Bytes (Attributes)
--------------------------------        ----        ----        ------- ----- ------------
_CODE                               00000200    00002F3E =       12094. bytes (REL,CON)

      Value  Global                              Global Defined In Module
      -----  --------------------------------   ------------------------
     00001C1B  A$lcc1877246$91                    random
     00001C1C  A$lcc1877246$92                    random
     00001C1E  A$lcc1877246$96                    random
     00001C1E  C$random.c$8$1_0$1                 random
     00001C1F  A$lcc1877246$97                    random
     00001C20  A$lcc1877246$98                    random
     00001C21  A$lcc1877246$99                    random
     00001C22  A$lcc1877246$107                   random
     00001C22  C$random.c$9$1_0$1                 random
     00001C22  XG$my_rand$0$0                     random
     00001C23  A$lcc1877247$56                    render
     00001C23  C$render.c$5$0_0$130               render
     00001C23  G$render_reset$0$0                 render
     00001C23  _render_reset                      render
     00001C24  A$lcc1877247$60                    render
     00001C24  C$render.c$6$1_0$130               render
     00001C27  A$lcc1877247$61                    render
     00001C29  A$lcc1877247$62                    render
     00001C2A  A$lcc1877247$63                    render
     00001C2C  A$lcc1877247$67                    render
     00001C2C  C$render.c$7$1_0$130               render
     00001C2F  A$lcc1877247$68                    render
     00001C31  A$lcc1877247$69                    render
     00001C32  A$lcc1877247$70                    render
     00001C34  A$lcc1877247$78                    render
     00001C34  C$render.c$8$1_0$130               render
     00001C34  XG$render_reset$0$0                render
     00001C35  A$lcc1877248$56                    scene
     00001C35  C$scene.c$6$0_0$27                 scene
     00001C35  C$scene.c$8$2_0$28                 scene
     00001C35  G$Scene_Destroy$0$0                scene
     00001C35  _Scene_Destroy                     scene
     00001C38  A$lcc1877248$57                    scene
     00001C39  A$lcc1877248$58                    scene
     00001C3A  A$lcc1877248$59                    scene
     00001C3B  A$lcc1877248$60                    scene
     00001C3C  A$lcc1877248$61                    scene
     00001C3D  A$lcc1877248$62                    scene
     00001C3E  A$lcc1877248$63                    scene
     00001C3F  A$lcc1877248$67                    scene
     00001C3F  C$scene.c$9$2_0$28                 scene
     00001C40  A$lcc1877248$71                    scene
     00001C40  C$scene.c$11$1_0$27                scene
     00001C41  A$lcc1877248$72                    scene
     00001C42  A$lcc1877248$73                    scene
     00001C43  A$lcc1877248$74                    scene
     00001C46  A$lcc1877248$75                    scene
     00001C47  A$lcc1877248$79                    scene
     00001C47  C$scene.c$12$1_0$27                scene
     00001C48  A$lcc1877248$80                    scene
     00001C49  A$lcc1877248$81                    scene
ASxxxx Linker V03.00/V05.40 + sdld,  page 73.
Hexadecimal  [32-Bits]

Area                                    Addr        Size        Decimal Bytes (Attributes)
--------------------------------        ----        ----        ------- ----- ------------
_CODE                               00000200    00002F3E =       12094. bytes (REL,CON)

      Value  Global                              Global Defined In Module
      -----  --------------------------------   ------------------------
     00001C4A  A$lcc1877248$82                    scene
     00001C4B  A$lcc1877248$90                    scene
     00001C4B  C$scene.c$13$1_0$27                scene
     00001C4B  XG$Scene_Destroy$0$0               scene
     00001C4C  A$lcc1877249$69                    scene_manager
     00001C4C  C$scene_manager.c$14$0_0$149       scene_manager
     00001C4C  C$scene_manager.c$15$1_0$149       scene_manager
     00001C4C  G$SceneManager_CleanScreen$0$0     scene_manager
     00001C4C  _SceneManager_CleanScreen          scene_manager
     00001C4F  A$lcc1877249$73                    scene_manager
     00001C4F  C$scene_manager.c$16$1_0$149       scene_manager
     00001C51  A$lcc1877249$74                    scene_manager
     00001C53  A$lcc1877249$75                    scene_manager
     00001C55  A$lcc1877249$79                    scene_manager
     00001C55  C$scene_manager.c$17$1_0$149       scene_manager
     00001C57  A$lcc1877249$80                    scene_manager
     00001C59  A$lcc1877249$81                    scene_manager
     00001C5B  A$lcc1877249$85                    scene_manager
     00001C5B  C$scene_manager.c$19$1_0$149       scene_manager
     00001C5E  A$lcc1877249$89                    scene_manager
     00001C5E  C$scene_manager.c$21$1_0$149       scene_manager
     00001C61  A$lcc1877249$90                    scene_manager
     00001C64  A$lcc1877249$91                    scene_manager
     00001C65  A$lcc1877249$92                    scene_manager
     00001C67  A$lcc1877249$93                    scene_manager
     00001C68  A$lcc1877249$94                    scene_manager
     00001C6A  A$lcc1877249$98                    scene_manager
     00001C6A  C$scene_manager.c$22$1_0$149       scene_manager
     00001C6D  A$lcc1877249$99                    scene_manager
     00001C70  A$lcc1877249$103                   scene_manager
     00001C70  C$scene_manager.c$24$1_0$149       scene_manager
     00001C72  A$lcc1877249$105                   scene_manager
     00001C73  A$lcc1877249$106                   scene_manager
     00001C75  A$lcc1877249$107                   scene_manager
     00001C77  A$lcc1877249$109                   scene_manager
     00001C7A  A$lcc1877249$110                   scene_manager
     00001C7B  A$lcc1877249$111                   scene_manager
     00001C7C  A$lcc1877249$112                   scene_manager
     00001C7D  A$lcc1877249$113                   scene_manager
     00001C7E  A$lcc1877249$114                   scene_manager
     00001C7F  A$lcc1877249$115                   scene_manager
     00001C80  A$lcc1877249$117                   scene_manager
     00001C81  A$lcc1877249$118                   scene_manager
     00001C82  A$lcc1877249$119                   scene_manager
     00001C83  A$lcc1877249$123                   scene_manager
     00001C83  C$scene_manager.c$24$2_0$150       scene_manager
     00001C84  A$lcc1877249$124                   scene_manager
     00001C86  A$lcc1877249$129                   scene_manager
     00001C86  C$scene_manager.c$27$1_0$149       scene_manager
     00001C87  A$lcc1877249$130                   scene_manager
     00001C8A  A$lcc1877249$134                   scene_manager
ASxxxx Linker V03.00/V05.40 + sdld,  page 74.
Hexadecimal  [32-Bits]

Area                                    Addr        Size        Decimal Bytes (Attributes)
--------------------------------        ----        ----        ------- ----- ------------
_CODE                               00000200    00002F3E =       12094. bytes (REL,CON)

      Value  Global                              Global Defined In Module
      -----  --------------------------------   ------------------------
     00001C8A  C$scene_manager.c$28$1_0$149       scene_manager
     00001C8D  A$lcc1877249$135                   scene_manager
     00001C8F  A$lcc1877249$143                   scene_manager
     00001C8F  C$scene_manager.c$29$1_0$149       scene_manager
     00001C8F  XG$SceneManager_CleanScreen$0$0    scene_manager
     00001C90  A$lcc1877249$153                   scene_manager
     00001C90  C$scene_manager.c$31$1_0$155       scene_manager
     00001C90  G$SceneManager_Create$0$0          scene_manager
     00001C90  _SceneManager_Create               scene_manager
     00001C91  A$lcc1877249$154                   scene_manager
     00001C92  A$lcc1877249$158                   scene_manager
     00001C92  C$scene_manager.c$32$1_0$155       scene_manager
     00001C95  A$lcc1877249$159                   scene_manager
     00001C96  A$lcc1877249$160                   scene_manager
     00001C97  A$lcc1877249$161                   scene_manager
     00001C98  A$lcc1877249$165                   scene_manager
     00001C98  C$scene_manager.c$33$1_0$155       scene_manager
     00001C99  A$lcc1877249$166                   scene_manager
     00001C9B  A$lcc1877249$167                   scene_manager
     00001C9C  A$lcc1877249$168                   scene_manager
     00001C9E  A$lcc1877249$176                   scene_manager
     00001C9E  C$scene_manager.c$34$1_0$155       scene_manager
     00001C9E  XG$SceneManager_Create$0$0         scene_manager
     00001C9F  A$lcc1877249$186                   scene_manager
     00001C9F  C$scene_manager.c$36$1_0$157       scene_manager
     00001C9F  G$SceneManager_ChangeScene$0$0     scene_manager
     00001C9F  _SceneManager_ChangeScene          scene_manager
     00001CA1  A$lcc1877249$187                   scene_manager
     00001CA2  A$lcc1877249$188                   scene_manager
     00001CA4  A$lcc1877249$189                   scene_manager
     00001CA5  A$lcc1877249$190                   scene_manager
     00001CA6  A$lcc1877249$191                   scene_manager
     00001CA7  A$lcc1877249$195                   scene_manager
     00001CA7  C$scene_manager.c$37$2_0$158       scene_manager
     00001CAA  A$lcc1877249$196                   scene_manager
     00001CAB  A$lcc1877249$197                   scene_manager
     00001CAE  A$lcc1877249$204                   scene_manager
     00001CAE  C$scene_manager.c$38$2_0$158       scene_manager
     00001CAE  C$scene_manager.c$40$2_0$159       scene_manager
     00001CB1  A$lcc1877249$205                   scene_manager
     00001CB2  A$lcc1877249$206                   scene_manager
     00001CB3  A$lcc1877249$207                   scene_manager
     00001CB4  A$lcc1877249$211                   scene_manager
     00001CB4  C$scene_manager.c$41$2_0$159       scene_manager
     00001CB7  A$lcc1877249$215                   scene_manager
     00001CB7  C$scene_manager.c$43$1_0$157       scene_manager
     00001CBA  A$lcc1877249$216                   scene_manager
     00001CBC  A$lcc1877249$220                   scene_manager
     00001CBC  C$scene_manager.c$45$1_0$157       scene_manager
     00001CBD  A$lcc1877249$221                   scene_manager
     00001CC0  A$lcc1877249$222                   scene_manager
ASxxxx Linker V03.00/V05.40 + sdld,  page 75.
Hexadecimal  [32-Bits]

Area                                    Addr        Size        Decimal Bytes (Attributes)
--------------------------------        ----        ----        ------- ----- ------------
_CODE                               00000200    00002F3E =       12094. bytes (REL,CON)

      Value  Global                              Global Defined In Module
      -----  --------------------------------   ------------------------
     00001CC1  A$lcc1877249$226                   scene_manager
     00001CC1  C$scene_manager.c$47$1_0$157       scene_manager
     00001CC3  A$lcc1877249$227                   scene_manager
     00001CC5  A$lcc1877249$228                   scene_manager
     00001CC7  A$lcc1877249$232                   scene_manager
     00001CC7  C$scene_manager.c$48$1_0$157       scene_manager
     00001CC9  A$lcc1877249$233                   scene_manager
     00001CCB  A$lcc1877249$234                   scene_manager
     00001CCD  A$lcc1877249$238                   scene_manager
     00001CCD  C$scene_manager.c$49$1_0$157       scene_manager
     00001CCF  A$lcc1877249$239                   scene_manager
     00001CD1  A$lcc1877249$240                   scene_manager
     00001CD3  A$lcc1877249$244                   scene_manager
     00001CD3  C$scene_manager.c$51$1_1$160       scene_manager
     00001CD4  A$lcc1877249$245                   scene_manager
     00001CD7  A$lcc1877249$246                   scene_manager
     00001CD8  A$lcc1877249$247                   scene_manager
     00001CD9  A$lcc1877249$251                   scene_manager
     00001CD9  C$scene_manager.c$52$1_1$160       scene_manager
     00001CDB  A$lcc1877249$252                   scene_manager
     00001CDC  A$lcc1877249$256                   scene_manager
     00001CDC  C$scene_manager.c$53$1_1$160       scene_manager
     00001CDD  A$lcc1877249$257                   scene_manager
     00001CDE  A$lcc1877249$258                   scene_manager
     00001CE1  A$lcc1877249$259                   scene_manager
     00001CE2  A$lcc1877249$260                   scene_manager
     00001CE3  A$lcc1877249$261                   scene_manager
     00001CE4  A$lcc1877249$262                   scene_manager
     00001CE5  A$lcc1877249$263                   scene_manager
     00001CE7  A$lcc1877249$264                   scene_manager
     00001CE8  A$lcc1877249$265                   scene_manager
     00001CEB  A$lcc1877249$269                   scene_manager
     00001CEB  C$scene_manager.c$54$1_1$160       scene_manager
     00001CEC  A$lcc1877249$270                   scene_manager
     00001CED  A$lcc1877249$271                   scene_manager
     00001CEE  A$lcc1877249$272                   scene_manager
     00001CF0  A$lcc1877249$273                   scene_manager
     00001CF1  A$lcc1877249$274                   scene_manager
     00001CF2  A$lcc1877249$275                   scene_manager
     00001CF3  A$lcc1877249$276                   scene_manager
     00001CF4  A$lcc1877249$277                   scene_manager
     00001CF5  A$lcc1877249$278                   scene_manager
     00001CF6  A$lcc1877249$279                   scene_manager
     00001CF7  A$lcc1877249$280                   scene_manager
     00001CF8  A$lcc1877249$281                   scene_manager
     00001CF9  A$lcc1877249$282                   scene_manager
     00001CFB  A$lcc1877249$283                   scene_manager
     00001CFC  A$lcc1877249$284                   scene_manager
     00001CFD  A$lcc1877249$285                   scene_manager
     00001CFE  A$lcc1877249$286                   scene_manager
     00001CFF  A$lcc1877249$287                   scene_manager
ASxxxx Linker V03.00/V05.40 + sdld,  page 76.
Hexadecimal  [32-Bits]

Area                                    Addr        Size        Decimal Bytes (Attributes)
--------------------------------        ----        ----        ------- ----- ------------
_CODE                               00000200    00002F3E =       12094. bytes (REL,CON)

      Value  Global                              Global Defined In Module
      -----  --------------------------------   ------------------------
     00001D01  A$lcc1877249$288                   scene_manager
     00001D02  A$lcc1877249$289                   scene_manager
     00001D03  A$lcc1877249$290                   scene_manager
     00001D04  A$lcc1877249$291                   scene_manager
     00001D05  A$lcc1877249$292                   scene_manager
     00001D08  A$lcc1877249$293                   scene_manager
     00001D09  A$lcc1877249$297                   scene_manager
     00001D09  C$scene_manager.c$56$1_1$160       scene_manager
     00001D0C  A$lcc1877249$298                   scene_manager
     00001D0D  A$lcc1877249$299                   scene_manager
     00001D0E  A$lcc1877249$300                   scene_manager
     00001D0F  A$lcc1877249$301                   scene_manager
     00001D10  A$lcc1877249$302                   scene_manager
     00001D12  A$lcc1877249$303                   scene_manager
     00001D13  A$lcc1877249$304                   scene_manager
     00001D14  A$lcc1877249$305                   scene_manager
     00001D15  A$lcc1877249$306                   scene_manager
     00001D16  A$lcc1877249$307                   scene_manager
     00001D18  A$lcc1877249$308                   scene_manager
     00001D19  A$lcc1877249$309                   scene_manager
     00001D1A  A$lcc1877249$310                   scene_manager
     00001D1B  A$lcc1877249$314                   scene_manager
     00001D1B  C$scene_manager.c$58$1_1$160       scene_manager
     00001D1E  A$lcc1877249$318                   scene_manager
     00001D1E  C$scene_manager.c$60$2_1$161       scene_manager
     00001D20  A$lcc1877249$319                   scene_manager
     00001D21  A$lcc1877249$320                   scene_manager
     00001D23  A$lcc1877249$324                   scene_manager
     00001D23  C$scene_manager.c$61$2_1$161       scene_manager
     00001D24  A$lcc1877249$325                   scene_manager
     00001D26  A$lcc1877249$326                   scene_manager
     00001D29  A$lcc1877249$327                   scene_manager
     00001D2A  A$lcc1877249$335                   scene_manager
     00001D2A  C$scene_manager.c$63$1_1$160       scene_manager
     00001D2A  C$scene_manager.c$64$1_1$160       scene_manager
     00001D2B  A$lcc1877249$336                   scene_manager
     00001D2E  A$lcc1877249$337                   scene_manager
     00001D31  A$lcc1877249$341                   scene_manager
     00001D31  C$scene_manager.c$66$1_1$160       scene_manager
     00001D32  A$lcc1877249$342                   scene_manager
     00001D35  A$lcc1877249$347                   scene_manager
     00001D37  A$lcc1877249$352                   scene_manager
     00001D37  C$scene_manager.c$67$1_1$157       scene_manager
     00001D37  XG$SceneManager_ChangeScene$0$0    scene_manager
     00001D38  A$lcc1877251$61                    gender_select
     00001D38  C$gender_select.c$6$0_0$30         gender_select
     00001D38  C$gender_select.c$8$1_0$30         gender_select
     00001D38  G$GenderSelect_Create$0$0          gender_select
     00001D38  _GenderSelect_Create               gender_select
     00001D3B  A$lcc1877251$62                    gender_select
     00001D3D  A$lcc1877251$63                    gender_select
ASxxxx Linker V03.00/V05.40 + sdld,  page 77.
Hexadecimal  [32-Bits]

Area                                    Addr        Size        Decimal Bytes (Attributes)
--------------------------------        ----        ----        ------- ----- ------------
_CODE                               00000200    00002F3E =       12094. bytes (REL,CON)

      Value  Global                              Global Defined In Module
      -----  --------------------------------   ------------------------
     00001D3E  A$lcc1877251$64                    gender_select
     00001D40  A$lcc1877251$68                    gender_select
     00001D40  C$gender_select.c$9$1_0$30         gender_select
     00001D41  A$lcc1877251$69                    gender_select
     00001D43  A$lcc1877251$70                    gender_select
     00001D44  A$lcc1877251$71                    gender_select
     00001D46  A$lcc1877251$75                    gender_select
     00001D46  C$gender_select.c$11$1_0$30        gender_select
     00001D49  A$lcc1877251$76                    gender_select
     00001D4A  A$lcc1877251$77                    gender_select
     00001D4B  A$lcc1877251$78                    gender_select
     00001D4C  A$lcc1877251$86                    gender_select
     00001D4C  C$gender_select.c$12$1_0$30        gender_select
     00001D4C  XG$GenderSelect_Create$0$0         gender_select
     00001D4D  A$lcc1877252$58                    gender_select_init
     00001D4D  C$gender_select_init.c$11$1_0$15   gender_select_init
     00001D4D  C$gender_select_init.c$9$0_0$155   gender_select_init
     00001D4D  G$GenderSelect_Init$0$0            gender_select_init
     00001D4D  _GenderSelect_Init                 gender_select_init
     00001D4E  A$lcc1877252$59                    gender_select_init
     00001D51  A$lcc1877252$60                    gender_select_init
     00001D54  A$lcc1877252$61                    gender_select_init
     00001D55  A$lcc1877252$62                    gender_select_init
     00001D56  A$lcc1877252$63                    gender_select_init
     00001D57  A$lcc1877252$67                    gender_select_init
     00001D57  C$gender_select_init.c$12$2_0$15   gender_select_init
     00001D58  A$lcc1877252$68                    gender_select_init
     00001D59  A$lcc1877252$72                    gender_select_init
     00001D59  C$gender_select_init.c$13$2_0$15   gender_select_init
     00001D5A  A$lcc1877252$76                    gender_select_init
     00001D5A  C$gender_select_init.c$15$1_0$15   gender_select_init
     00001D5B  A$lcc1877252$77                    gender_select_init
     00001D5C  A$lcc1877252$81                    gender_select_init
     00001D5C  C$gender_select_init.c$16$1_0$15   gender_select_init
     00001D5F  A$lcc1877252$82                    gender_select_init
     00001D60  A$lcc1877252$83                    gender_select_init
     00001D61  A$lcc1877252$84                    gender_select_init
     00001D62  A$lcc1877252$85                    gender_select_init
     00001D63  A$lcc1877252$89                    gender_select_init
     00001D63  C$gender_select_init.c$18$1_0$15   gender_select_init
     00001D66  A$lcc1877252$90                    gender_select_init
     00001D67  A$lcc1877252$91                    gender_select_init
     00001D6A  A$lcc1877252$92                    gender_select_init
     00001D6B  A$lcc1877252$93                    gender_select_init
     00001D6E  A$lcc1877252$94                    gender_select_init
     00001D70  A$lcc1877252$98                    gender_select_init
     00001D70  C$gender_select_init.c$19$1_0$15   gender_select_init
     00001D73  A$lcc1877252$99                    gender_select_init
     00001D74  A$lcc1877252$100                   gender_select_init
     00001D77  A$lcc1877252$101                   gender_select_init
     00001D78  A$lcc1877252$102                   gender_select_init
ASxxxx Linker V03.00/V05.40 + sdld,  page 78.
Hexadecimal  [32-Bits]

Area                                    Addr        Size        Decimal Bytes (Attributes)
--------------------------------        ----        ----        ------- ----- ------------
_CODE                               00000200    00002F3E =       12094. bytes (REL,CON)

      Value  Global                              Global Defined In Module
      -----  --------------------------------   ------------------------
     00001D79  A$lcc1877252$103                   gender_select_init
     00001D7A  A$lcc1877252$104                   gender_select_init
     00001D7B  A$lcc1877252$105                   gender_select_init
     00001D7E  A$lcc1877252$106                   gender_select_init
     00001D80  A$lcc1877252$114                   gender_select_init
     00001D80  C$gender_select_init.c$20$1_0$15   gender_select_init
     00001D80  XG$GenderSelect_Init$0$0           gender_select_init
     00001D81  A$lcc1877253$62                    gender_select_update
     00001D81  C$gender_select_update.c$6$0_0$1   gender_select_update
     00001D81  C$gender_select_update.c$8$1_0$1   gender_select_update
     00001D81  C$gender_select_update.c$9$1_0$1   gender_select_update
     00001D81  G$GenderSelect_Update$0$0          gender_select_update
     00001D81  XG$GenderSelect_Update$0$0         gender_select_update
     00001D81  _GenderSelect_Update               gender_select_update
     00001D82  A$lcc1877254$61                    inventory_scene
     00001D82  C$inventory_scene.c$6$0_0$11       inventory_scene
     00001D82  C$inventory_scene.c$7$1_0$11       inventory_scene
     00001D82  G$InventoryScene_Create$0$0        inventory_scene
     00001D82  _InventoryScene_Create             inventory_scene
     00001D85  A$lcc1877254$62                    inventory_scene
     00001D87  A$lcc1877254$63                    inventory_scene
     00001D88  A$lcc1877254$64                    inventory_scene
     00001D8A  A$lcc1877254$68                    inventory_scene
     00001D8A  C$inventory_scene.c$8$1_0$11       inventory_scene
     00001D8B  A$lcc1877254$69                    inventory_scene
     00001D8D  A$lcc1877254$70                    inventory_scene
     00001D8E  A$lcc1877254$71                    inventory_scene
     00001D90  A$lcc1877254$75                    inventory_scene
     00001D90  C$inventory_scene.c$9$1_0$11       inventory_scene
     00001D93  A$lcc1877254$76                    inventory_scene
     00001D95  A$lcc1877254$84                    inventory_scene
     00001D95  C$inventory_scene.c$10$1_0$11      inventory_scene
     00001D95  XG$InventoryScene_Create$0$0       inventory_scene
     00001D96  A$lcc1877255$56                    inventory_scene_init
     00001D96  C$inventory_scene_init.c$12$0_0$   inventory_scene_init
     00001D96  G$InventoryScene_DrawCoins$0$0     inventory_scene_init
     00001D96  _InventoryScene_DrawCoins          inventory_scene_init
     00001D98  A$lcc1877255$60                    inventory_scene_init
     00001D98  C$inventory_scene_init.c$13$1_0$   inventory_scene_init
     00001D9B  A$lcc1877255$61                    inventory_scene_init
     00001D9D  A$lcc1877255$62                    inventory_scene_init
     00001D9E  A$lcc1877255$63                    inventory_scene_init
     00001DA1  A$lcc1877255$64                    inventory_scene_init
     00001DA3  A$lcc1877255$65                    inventory_scene_init
     00001DA4  A$lcc1877255$66                    inventory_scene_init
     00001DA7  A$lcc1877255$67                    inventory_scene_init
     00001DA8  A$lcc1877255$68                    inventory_scene_init
     00001DA9  A$lcc1877255$69                    inventory_scene_init
     00001DAA  A$lcc1877255$70                    inventory_scene_init
     00001DAD  A$lcc1877255$71                    inventory_scene_init
     00001DAE  A$lcc1877255$72                    inventory_scene_init
ASxxxx Linker V03.00/V05.40 + sdld,  page 79.
Hexadecimal  [32-Bits]

Area                                    Addr        Size        Decimal Bytes (Attributes)
--------------------------------        ----        ----        ------- ----- ------------
_CODE                               00000200    00002F3E =       12094. bytes (REL,CON)

      Value  Global                              Global Defined In Module
      -----  --------------------------------   ------------------------
     00001DB0  A$lcc1877255$73                    inventory_scene_init
     00001DB3  A$lcc1877255$74                    inventory_scene_init
     00001DB4  A$lcc1877255$75                    inventory_scene_init
     00001DB6  A$lcc1877255$76                    inventory_scene_init
     00001DB8  A$lcc1877255$77                    inventory_scene_init
     00001DB9  A$lcc1877255$81                    inventory_scene_init
     00001DB9  C$inventory_scene_init.c$14$1_0$   inventory_scene_init
     00001DBC  A$lcc1877255$82                    inventory_scene_init
     00001DBE  A$lcc1877255$83                    inventory_scene_init
     00001DBF  A$lcc1877255$84                    inventory_scene_init
     00001DC0  A$lcc1877255$85                    inventory_scene_init
     00001DC1  A$lcc1877255$86                    inventory_scene_init
     00001DC4  A$lcc1877255$87                    inventory_scene_init
     00001DC5  A$lcc1877255$88                    inventory_scene_init
     00001DC6  A$lcc1877255$89                    inventory_scene_init
     00001DC9  A$lcc1877255$90                    inventory_scene_init
     00001DCC  A$lcc1877255$91                    inventory_scene_init
     00001DCD  A$lcc1877255$92                    inventory_scene_init
     00001DCF  A$lcc1877255$93                    inventory_scene_init
     00001DD1  A$lcc1877255$94                    inventory_scene_init
     00001DD2  A$lcc1877255$98                    inventory_scene_init
     00001DD2  C$inventory_scene_init.c$15$1_0$   inventory_scene_init
     00001DD5  A$lcc1877255$99                    inventory_scene_init
     00001DD7  A$lcc1877255$100                   inventory_scene_init
     00001DD8  A$lcc1877255$101                   inventory_scene_init
     00001DD9  A$lcc1877255$102                   inventory_scene_init
     00001DDA  A$lcc1877255$103                   inventory_scene_init
     00001DDD  A$lcc1877255$104                   inventory_scene_init
     00001DDE  A$lcc1877255$105                   inventory_scene_init
     00001DDF  A$lcc1877255$106                   inventory_scene_init
     00001DE2  A$lcc1877255$107                   inventory_scene_init
     00001DE5  A$lcc1877255$108                   inventory_scene_init
     00001DE6  A$lcc1877255$109                   inventory_scene_init
     00001DE8  A$lcc1877255$110                   inventory_scene_init
     00001DEA  A$lcc1877255$114                   inventory_scene_init
     00001DEA  C$inventory_scene_init.c$16$1_0$   inventory_scene_init
     00001DEB  A$lcc1877255$115                   inventory_scene_init
     00001DEC  A$lcc1877255$116                   inventory_scene_init
     00001DEF  A$lcc1877255$117                   inventory_scene_init
     00001DF0  A$lcc1877255$118                   inventory_scene_init
     00001DF1  A$lcc1877255$119                   inventory_scene_init
     00001DF2  A$lcc1877255$120                   inventory_scene_init
     00001DF5  A$lcc1877255$121                   inventory_scene_init
     00001DF6  A$lcc1877255$122                   inventory_scene_init
     00001DF8  A$lcc1877255$123                   inventory_scene_init
     00001DFA  A$lcc1877255$124                   inventory_scene_init
     00001DFB  A$lcc1877255$128                   inventory_scene_init
     00001DFB  C$inventory_scene_init.c$19$1_0$   inventory_scene_init
     00001DFD  A$lcc1877255$132                   inventory_scene_init
     00001DFD  C$inventory_scene_init.c$18$1_0$   inventory_scene_init
     00001DFE  A$lcc1877255$133                   inventory_scene_init
ASxxxx Linker V03.00/V05.40 + sdld,  page 80.
Hexadecimal  [32-Bits]

Area                                    Addr        Size        Decimal Bytes (Attributes)
--------------------------------        ----        ----        ------- ----- ------------
_CODE                               00000200    00002F3E =       12094. bytes (REL,CON)

      Value  Global                              Global Defined In Module
      -----  --------------------------------   ------------------------
     00001E01  A$lcc1877255$134                   inventory_scene_init
     00001E02  A$lcc1877255$135                   inventory_scene_init
     00001E05  A$lcc1877255$136                   inventory_scene_init
     00001E06  A$lcc1877255$137                   inventory_scene_init
     00001E09  A$lcc1877255$138                   inventory_scene_init
     00001E0B  A$lcc1877255$142                   inventory_scene_init
     00001E0B  C$inventory_scene_init.c$21$1_0$   inventory_scene_init
     00001E0D  A$lcc1877255$146                   inventory_scene_init
     00001E0D  C$inventory_scene_init.c$20$1_0$   inventory_scene_init
     00001E0E  A$lcc1877255$147                   inventory_scene_init
     00001E11  A$lcc1877255$148                   inventory_scene_init
     00001E12  A$lcc1877255$149                   inventory_scene_init
     00001E15  A$lcc1877255$150                   inventory_scene_init
     00001E16  A$lcc1877255$151                   inventory_scene_init
     00001E19  A$lcc1877255$152                   inventory_scene_init
     00001E1B  A$lcc1877255$156                   inventory_scene_init
     00001E1B  C$inventory_scene_init.c$23$1_0$   inventory_scene_init
     00001E1D  A$lcc1877255$160                   inventory_scene_init
     00001E1D  C$inventory_scene_init.c$22$1_0$   inventory_scene_init
     00001E1E  A$lcc1877255$161                   inventory_scene_init
     00001E21  A$lcc1877255$162                   inventory_scene_init
     00001E22  A$lcc1877255$163                   inventory_scene_init
     00001E25  A$lcc1877255$164                   inventory_scene_init
     00001E26  A$lcc1877255$165                   inventory_scene_init
     00001E29  A$lcc1877255$166                   inventory_scene_init
     00001E2B  A$lcc1877255$170                   inventory_scene_init
     00001E2B  C$inventory_scene_init.c$25$1_0$   inventory_scene_init
     00001E2D  A$lcc1877255$171                   inventory_scene_init
     00001E2E  A$lcc1877255$172                   inventory_scene_init
     00001E2F  A$lcc1877255$176                   inventory_scene_init
     00001E2F  C$inventory_scene_init.c$24$1_0$   inventory_scene_init
     00001E30  A$lcc1877255$177                   inventory_scene_init
     00001E33  A$lcc1877255$178                   inventory_scene_init
     00001E34  A$lcc1877255$179                   inventory_scene_init
     00001E37  A$lcc1877255$180                   inventory_scene_init
     00001E38  A$lcc1877255$181                   inventory_scene_init
     00001E3B  A$lcc1877255$185                   inventory_scene_init
     00001E3D  A$lcc1877255$190                   inventory_scene_init
     00001E3D  C$inventory_scene_init.c$26$1_0$   inventory_scene_init
     00001E3D  XG$InventoryScene_DrawCoins$0$0    inventory_scene_init
     00001E3E  A$lcc1877255$200                   inventory_scene_init
     00001E3E  C$inventory_scene_init.c$28$1_0$   inventory_scene_init
     00001E3E  G$InventoryScene_Init$0$0          inventory_scene_init
     00001E3E  _InventoryScene_Init               inventory_scene_init
     00001E3F  A$lcc1877255$204                   inventory_scene_init
     00001E3F  C$inventory_scene_init.c$29$1_0$   inventory_scene_init
     00001E42  A$lcc1877255$205                   inventory_scene_init
     00001E43  A$lcc1877255$206                   inventory_scene_init
     00001E44  A$lcc1877255$207                   inventory_scene_init
     00001E45  A$lcc1877255$208                   inventory_scene_init
     00001E46  A$lcc1877255$212                   inventory_scene_init
ASxxxx Linker V03.00/V05.40 + sdld,  page 81.
Hexadecimal  [32-Bits]

Area                                    Addr        Size        Decimal Bytes (Attributes)
--------------------------------        ----        ----        ------- ----- ------------
_CODE                               00000200    00002F3E =       12094. bytes (REL,CON)

      Value  Global                              Global Defined In Module
      -----  --------------------------------   ------------------------
     00001E46  C$inventory_scene_init.c$30$1_0$   inventory_scene_init
     00001E49  A$lcc1877255$216                   inventory_scene_init
     00001E49  C$inventory_scene_init.c$32$2_0$   inventory_scene_init
     00001E4B  A$lcc1877255$217                   inventory_scene_init
     00001E4D  A$lcc1877255$221                   inventory_scene_init
     00001E4D  C$inventory_scene_init.c$34$1_1$   inventory_scene_init
     00001E50  A$lcc1877255$222                   inventory_scene_init
     00001E51  A$lcc1877255$223                   inventory_scene_init
     00001E54  A$lcc1877255$224                   inventory_scene_init
     00001E55  A$lcc1877255$225                   inventory_scene_init
     00001E58  A$lcc1877255$226                   inventory_scene_init
     00001E5A  A$lcc1877255$230                   inventory_scene_init
     00001E5A  C$inventory_scene_init.c$35$1_1$   inventory_scene_init
     00001E5D  A$lcc1877255$231                   inventory_scene_init
     00001E5E  A$lcc1877255$232                   inventory_scene_init
     00001E61  A$lcc1877255$233                   inventory_scene_init
     00001E62  A$lcc1877255$234                   inventory_scene_init
     00001E63  A$lcc1877255$235                   inventory_scene_init
     00001E64  A$lcc1877255$236                   inventory_scene_init
     00001E65  A$lcc1877255$237                   inventory_scene_init
     00001E68  A$lcc1877255$238                   inventory_scene_init
     00001E6A  A$lcc1877255$242                   inventory_scene_init
     00001E6A  C$inventory_scene_init.c$37$3_1$   inventory_scene_init
     00001E6C  A$lcc1877255$244                   inventory_scene_init
     00001E6D  A$lcc1877255$245                   inventory_scene_init
     00001E6F  A$lcc1877255$246                   inventory_scene_init
     00001E71  A$lcc1877255$250                   inventory_scene_init
     00001E71  C$inventory_scene_init.c$38$4_1$   inventory_scene_init
     00001E72  A$lcc1877255$251                   inventory_scene_init
     00001E73  A$lcc1877255$252                   inventory_scene_init
     00001E74  A$lcc1877255$253                   inventory_scene_init
     00001E75  A$lcc1877255$254                   inventory_scene_init
     00001E78  A$lcc1877255$255                   inventory_scene_init
     00001E79  A$lcc1877255$256                   inventory_scene_init
     00001E7A  A$lcc1877255$257                   inventory_scene_init
     00001E7B  A$lcc1877255$258                   inventory_scene_init
     00001E7C  A$lcc1877255$259                   inventory_scene_init
     00001E7E  A$lcc1877255$263                   inventory_scene_init
     00001E7E  C$inventory_scene_init.c$41$3_1$   inventory_scene_init
     00001E81  A$lcc1877255$264                   inventory_scene_init
     00001E82  A$lcc1877255$265                   inventory_scene_init
     00001E85  A$lcc1877255$266                   inventory_scene_init
     00001E86  A$lcc1877255$267                   inventory_scene_init
     00001E89  A$lcc1877255$268                   inventory_scene_init
     00001E8B  A$lcc1877255$272                   inventory_scene_init
     00001E8B  C$inventory_scene_init.c$42$3_1$   inventory_scene_init
     00001E8D  A$lcc1877255$273                   inventory_scene_init
     00001E8E  A$lcc1877255$274                   inventory_scene_init
     00001E91  A$lcc1877255$275                   inventory_scene_init
     00001E92  A$lcc1877255$276                   inventory_scene_init
     00001E95  A$lcc1877255$277                   inventory_scene_init
ASxxxx Linker V03.00/V05.40 + sdld,  page 82.
Hexadecimal  [32-Bits]

Area                                    Addr        Size        Decimal Bytes (Attributes)
--------------------------------        ----        ----        ------- ----- ------------
_CODE                               00000200    00002F3E =       12094. bytes (REL,CON)

      Value  Global                              Global Defined In Module
      -----  --------------------------------   ------------------------
     00001E96  A$lcc1877255$278                   inventory_scene_init
     00001E99  A$lcc1877255$279                   inventory_scene_init
     00001E9B  A$lcc1877255$284                   inventory_scene_init
     00001E9B  C$inventory_scene_init.c$37$2_1$   inventory_scene_init
     00001E9C  A$lcc1877255$285                   inventory_scene_init
     00001E9E  A$lcc1877255$290                   inventory_scene_init
     00001E9E  C$inventory_scene_init.c$45$1_1$   inventory_scene_init
     00001EA1  A$lcc1877255$294                   inventory_scene_init
     00001EA2  A$lcc1877255$299                   inventory_scene_init
     00001EA2  C$inventory_scene_init.c$46$1_1$   inventory_scene_init
     00001EA2  XG$InventoryScene_Init$0$0         inventory_scene_init
     00001EA3  A$lcc1877256$57                    inventory_scene_update
     00001EA3  C$inventory_scene_update.c$8$0_0   inventory_scene_update
     00001EA3  C$inventory_scene_update.c$9$1_0   inventory_scene_update
     00001EA3  G$InventoryScene_Update$0$0        inventory_scene_update
     00001EA3  _InventoryScene_Update             inventory_scene_update
     00001EA6  A$lcc1877256$58                    inventory_scene_update
     00001EA9  A$lcc1877256$69                    inventory_scene_update
     00001EA9  C$inventory_scene_update.c$10$1_   inventory_scene_update
     00001EA9  C$inventory_scene_update.c$11$1_   inventory_scene_update
     00001EA9  XG$InventoryScene_Update$0$0       inventory_scene_update
     00001EAC  A$lcc1877257$73                    main_menu
     00001EAC  C$main_menu.c$11$1_0$31            main_menu
     00001EAC  C$main_menu.c$9$0_0$31             main_menu
     00001EAC  G$MainMenu_Create$0$0              main_menu
     00001EAC  _MainMenu_Create                   main_menu
     00001EAF  A$lcc1877257$74                    main_menu
     00001EB1  A$lcc1877257$75                    main_menu
     00001EB2  A$lcc1877257$76                    main_menu
     00001EB4  A$lcc1877257$80                    main_menu
     00001EB4  C$main_menu.c$12$1_0$31            main_menu
     00001EB5  A$lcc1877257$81                    main_menu
     00001EB7  A$lcc1877257$82                    main_menu
     00001EB8  A$lcc1877257$83                    main_menu
     00001EBA  A$lcc1877257$87                    main_menu
     00001EBA  C$main_menu.c$13$1_0$31            main_menu
     00001EBD  A$lcc1877257$88                    main_menu
     00001EBF  A$lcc1877257$92                    main_menu
     00001EBF  C$main_menu.c$15$1_0$31            main_menu
     00001EC2  A$lcc1877257$93                    main_menu
     00001EC3  A$lcc1877257$94                    main_menu
     00001EC4  A$lcc1877257$95                    main_menu
     00001EC5  A$lcc1877257$103                   main_menu
     00001EC5  C$main_menu.c$16$1_0$31            main_menu
     00001EC5  XG$MainMenu_Create$0$0             main_menu
     00001EC6  A$lcc1877258$57                    main_menu_init
     00001EC6  C$main_menu_init.c$10$1_0$167      main_menu_init
     00001EC6  C$main_menu_init.c$8$0_0$167       main_menu_init
     00001EC6  G$MainMenu_Init$0$0                main_menu_init
     00001EC6  _MainMenu_Init                     main_menu_init
     00001EC9  A$lcc1877258$58                    main_menu_init
ASxxxx Linker V03.00/V05.40 + sdld,  page 83.
Hexadecimal  [32-Bits]

Area                                    Addr        Size        Decimal Bytes (Attributes)
--------------------------------        ----        ----        ------- ----- ------------
_CODE                               00000200    00002F3E =       12094. bytes (REL,CON)

      Value  Global                              Global Defined In Module
      -----  --------------------------------   ------------------------
     00001ECA  A$lcc1877258$59                    main_menu_init
     00001ECB  A$lcc1877258$60                    main_menu_init
     00001ECC  A$lcc1877258$61                    main_menu_init
     00001ECD  A$lcc1877258$65                    main_menu_init
     00001ECD  C$main_menu_init.c$12$2_0$168      main_menu_init
     00001ECF  A$lcc1877258$66                    main_menu_init
     00001ED0  A$lcc1877258$70                    main_menu_init
     00001ED0  C$main_menu_init.c$13$1_1$168      main_menu_init
     00001ED2  A$lcc1877258$71                    main_menu_init
     00001ED4  A$lcc1877258$72                    main_menu_init
     00001ED7  A$lcc1877258$73                    main_menu_init
     00001ED9  A$lcc1877258$77                    main_menu_init
     00001ED9  C$main_menu_init.c$15$1_1$168      main_menu_init
     00001EDC  A$lcc1877258$78                    main_menu_init
     00001EDD  A$lcc1877258$79                    main_menu_init
     00001EE0  A$lcc1877258$80                    main_menu_init
     00001EE1  A$lcc1877258$81                    main_menu_init
     00001EE4  A$lcc1877258$82                    main_menu_init
     00001EE6  A$lcc1877258$86                    main_menu_init
     00001EE6  C$main_menu_init.c$16$1_1$168      main_menu_init
     00001EE9  A$lcc1877258$87                    main_menu_init
     00001EEA  A$lcc1877258$88                    main_menu_init
     00001EED  A$lcc1877258$89                    main_menu_init
     00001EEE  A$lcc1877258$90                    main_menu_init
     00001EEF  A$lcc1877258$91                    main_menu_init
     00001EF0  A$lcc1877258$92                    main_menu_init
     00001EF1  A$lcc1877258$93                    main_menu_init
     00001EF4  A$lcc1877258$94                    main_menu_init
     00001EF6  A$lcc1877258$98                    main_menu_init
     00001EF6  C$main_menu_init.c$18$1_1$168      main_menu_init
     00001EF7  A$lcc1877258$99                    main_menu_init
     00001EF9  A$lcc1877258$100                   main_menu_init
     00001EFC  A$lcc1877258$101                   main_menu_init
     00001EFD  A$lcc1877258$109                   main_menu_init
     00001EFD  C$main_menu_init.c$19$1_1$167      main_menu_init
     00001EFD  XG$MainMenu_Init$0$0               main_menu_init
     00001EFE  A$lcc1877259$59                    main_menu_init_stats
     00001EFE  C$main_menu_init_stats.c$3$0_0$3   main_menu_init_stats
     00001EFE  C$main_menu_init_stats.c$5$0_0$3   main_menu_init_stats
     00001EFE  G$MainMenu_InitRandomStats$0$0     main_menu_init_stats
     00001EFE  XG$MainMenu_InitRandomStats$0$0    main_menu_init_stats
     00001EFE  _MainMenu_InitRandomStats          main_menu_init_stats
     00001EFF  A$lcc1877260$53                    main_menu_input
     00001EFF  C$main_menu_input.c$12$0_0$173     main_menu_input
     00001EFF  G$MainMenu_CheckInput$0$0          main_menu_input
     00001EFF  _MainMenu_CheckInput               main_menu_input
     00001F00  A$lcc1877260$57                    main_menu_input
     00001F00  C$main_menu_input.c$13$2_0$173     main_menu_input
     00001F03  A$lcc1877260$58                    main_menu_input
     00001F04  A$lcc1877260$59                    main_menu_input
     00001F06  A$lcc1877260$60                    main_menu_input
ASxxxx Linker V03.00/V05.40 + sdld,  page 84.
Hexadecimal  [32-Bits]

Area                                    Addr        Size        Decimal Bytes (Attributes)
--------------------------------        ----        ----        ------- ----- ------------
_CODE                               00000200    00002F3E =       12094. bytes (REL,CON)

      Value  Global                              Global Defined In Module
      -----  --------------------------------   ------------------------
     00001F09  A$lcc1877260$61                    main_menu_input
     00001F0A  A$lcc1877260$62                    main_menu_input
     00001F0C  A$lcc1877260$66                    main_menu_input
     00001F0C  C$main_menu_input.c$14$3_0$174     main_menu_input
     00001F0E  A$lcc1877260$67                    main_menu_input
     00001F11  A$lcc1877260$68                    main_menu_input
     00001F12  A$lcc1877260$69                    main_menu_input
     00001F14  A$lcc1877260$73                    main_menu_input
     00001F14  C$main_menu_input.c$15$3_0$174     main_menu_input
     00001F16  A$lcc1877260$74                    main_menu_input
     00001F17  A$lcc1877260$75                    main_menu_input
     00001F18  A$lcc1877260$79                    main_menu_input
     00001F18  C$main_menu_input.c$17$5_0$176     main_menu_input
     00001F1A  A$lcc1877260$80                    main_menu_input
     00001F1C  A$lcc1877260$82                    main_menu_input
     00001F1E  A$lcc1877260$83                    main_menu_input
     00001F1F  A$lcc1877260$84                    main_menu_input
     00001F21  A$lcc1877260$85                    main_menu_input
     00001F23  A$lcc1877260$89                    main_menu_input
     00001F23  C$main_menu_input.c$18$5_0$176     main_menu_input
     00001F26  A$lcc1877260$90                    main_menu_input
     00001F27  A$lcc1877260$91                    main_menu_input
     00001F29  A$lcc1877260$92                    main_menu_input
     00001F2A  A$lcc1877260$93                    main_menu_input
     00001F2B  A$lcc1877260$94                    main_menu_input
     00001F2E  A$lcc1877260$95                    main_menu_input
     00001F2F  A$lcc1877260$96                    main_menu_input
     00001F30  A$lcc1877260$97                    main_menu_input
     00001F33  A$lcc1877260$98                    main_menu_input
     00001F34  A$lcc1877260$99                    main_menu_input
     00001F35  A$lcc1877260$100                   main_menu_input
     00001F38  A$lcc1877260$101                   main_menu_input
     00001F39  A$lcc1877260$102                   main_menu_input
     00001F3A  A$lcc1877260$103                   main_menu_input
     00001F3B  A$lcc1877260$107                   main_menu_input
     00001F3B  C$main_menu_input.c$17$4_0$175     main_menu_input
     00001F3D  A$lcc1877260$108                   main_menu_input
     00001F3E  A$lcc1877260$109                   main_menu_input
     00001F40  A$lcc1877260$114                   main_menu_input
     00001F40  C$main_menu_input.c$21$3_0$174     main_menu_input
     00001F43  A$lcc1877260$115                   main_menu_input
     00001F44  A$lcc1877260$116                   main_menu_input
     00001F45  A$lcc1877260$117                   main_menu_input
     00001F46  A$lcc1877260$118                   main_menu_input
     00001F49  A$lcc1877260$119                   main_menu_input
     00001F4B  A$lcc1877260$120                   main_menu_input
     00001F4C  A$lcc1877260$121                   main_menu_input
     00001F4E  A$lcc1877260$122                   main_menu_input
     00001F4F  A$lcc1877260$123                   main_menu_input
     00001F50  A$lcc1877260$124                   main_menu_input
     00001F51  A$lcc1877260$125                   main_menu_input
ASxxxx Linker V03.00/V05.40 + sdld,  page 85.
Hexadecimal  [32-Bits]

Area                                    Addr        Size        Decimal Bytes (Attributes)
--------------------------------        ----        ----        ------- ----- ------------
_CODE                               00000200    00002F3E =       12094. bytes (REL,CON)

      Value  Global                              Global Defined In Module
      -----  --------------------------------   ------------------------
     00001F52  A$lcc1877260$130                   main_menu_input
     00001F53  A$lcc1877260$135                   main_menu_input
     00001F53  C$main_menu_input.c$23$2_0$173     main_menu_input
     00001F53  XG$MainMenu_CheckInput$0$0         main_menu_input
     00001F54  A$lcc1877261$55                    main_menu_update
     00001F54  C$main_menu_update.c$7$0_0$157     main_menu_update
     00001F54  G$MainMenu_Update$0$0              main_menu_update
     00001F54  _MainMenu_Update                   main_menu_update
     00001F56  A$lcc1877261$59                    main_menu_update
     00001F56  C$main_menu_update.c$9$1_0$157     main_menu_update
     00001F59  A$lcc1877261$60                    main_menu_update
     00001F5A  A$lcc1877261$61                    main_menu_update
     00001F5C  A$lcc1877261$62                    main_menu_update
     00001F5D  A$lcc1877261$63                    main_menu_update
     00001F5E  A$lcc1877261$68                    main_menu_update
     00001F5E  C$main_menu_update.c$10$1_0$157    main_menu_update
     00001F61  A$lcc1877261$72                    main_menu_update
     00001F61  C$main_menu_update.c$12$2_0$158    main_menu_update
     00001F64  A$lcc1877261$73                    main_menu_update
     00001F65  A$lcc1877261$74                    main_menu_update
     00001F67  A$lcc1877261$75                    main_menu_update
     00001F6A  A$lcc1877261$76                    main_menu_update
     00001F6B  A$lcc1877261$77                    main_menu_update
     00001F6C  A$lcc1877261$78                    main_menu_update
     00001F6D  A$lcc1877261$79                    main_menu_update
     00001F6E  A$lcc1877261$80                    main_menu_update
     00001F71  A$lcc1877261$84                    main_menu_update
     00001F71  C$main_menu_update.c$14$3_0$159    main_menu_update
     00001F72  A$lcc1877261$85                    main_menu_update
     00001F73  A$lcc1877261$86                    main_menu_update
     00001F74  A$lcc1877261$87                    main_menu_update
     00001F75  A$lcc1877261$91                    main_menu_update
     00001F75  C$main_menu_update.c$16$4_0$160    main_menu_update
     00001F78  A$lcc1877261$95                    main_menu_update
     00001F78  C$main_menu_update.c$18$5_0$161    main_menu_update
     00001F79  A$lcc1877261$96                    main_menu_update
     00001F7B  A$lcc1877261$97                    main_menu_update
     00001F7E  A$lcc1877261$101                   main_menu_update
     00001F7E  C$main_menu_update.c$20$6_0$163    main_menu_update
     00001F80  A$lcc1877261$102                   main_menu_update
     00001F82  A$lcc1877261$106                   main_menu_update
     00001F82  C$main_menu_update.c$21$2_0$157    main_menu_update
     00001F84  A$lcc1877261$108                   main_menu_update
     00001F85  A$lcc1877261$109                   main_menu_update
     00001F87  A$lcc1877261$110                   main_menu_update
     00001F89  A$lcc1877261$114                   main_menu_update
     00001F89  C$main_menu_update.c$23$7_1$164    main_menu_update
     00001F8A  A$lcc1877261$115                   main_menu_update
     00001F8D  A$lcc1877261$116                   main_menu_update
     00001F8E  A$lcc1877261$117                   main_menu_update
     00001F8F  A$lcc1877261$118                   main_menu_update
ASxxxx Linker V03.00/V05.40 + sdld,  page 86.
Hexadecimal  [32-Bits]

Area                                    Addr        Size        Decimal Bytes (Attributes)
--------------------------------        ----        ----        ------- ----- ------------
_CODE                               00000200    00002F3E =       12094. bytes (REL,CON)

      Value  Global                              Global Defined In Module
      -----  --------------------------------   ------------------------
     00001F92  A$lcc1877261$119                   main_menu_update
     00001F93  A$lcc1877261$120                   main_menu_update
     00001F95  A$lcc1877261$121                   main_menu_update
     00001F96  A$lcc1877261$122                   main_menu_update
     00001F97  A$lcc1877261$123                   main_menu_update
     00001F98  A$lcc1877261$124                   main_menu_update
     00001F99  A$lcc1877261$125                   main_menu_update
     00001F9C  A$lcc1877261$126                   main_menu_update
     00001F9E  A$lcc1877261$130                   main_menu_update
     00001F9E  C$main_menu_update.c$21$6_1$163    main_menu_update
     00001F9F  A$lcc1877261$131                   main_menu_update
     00001FA1  A$lcc1877261$136                   main_menu_update
     00001FA1  C$main_menu_update.c$28$5_0$165    main_menu_update
     00001FA4  A$lcc1877261$137                   main_menu_update
     00001FA6  A$lcc1877261$141                   main_menu_update
     00001FA6  C$main_menu_update.c$30$6_0$167    main_menu_update
     00001FA8  A$lcc1877261$142                   main_menu_update
     00001FAA  A$lcc1877261$143                   main_menu_update
     00001FAB  A$lcc1877261$144                   main_menu_update
     00001FAD  A$lcc1877261$145                   main_menu_update
     00001FAE  A$lcc1877261$146                   main_menu_update
     00001FB0  A$lcc1877261$147                   main_menu_update
     00001FB1  A$lcc1877261$148                   main_menu_update
     00001FB3  A$lcc1877261$149                   main_menu_update
     00001FB4  A$lcc1877261$150                   main_menu_update
     00001FB5  A$lcc1877261$151                   main_menu_update
     00001FB7  A$lcc1877261$152                   main_menu_update
     00001FB8  A$lcc1877261$153                   main_menu_update
     00001FB9  A$lcc1877261$154                   main_menu_update
     00001FBB  A$lcc1877261$155                   main_menu_update
     00001FBC  A$lcc1877261$156                   main_menu_update
     00001FBE  A$lcc1877261$157                   main_menu_update
     00001FBF  A$lcc1877261$158                   main_menu_update
     00001FC1  A$lcc1877261$159                   main_menu_update
     00001FC2  A$lcc1877261$160                   main_menu_update
     00001FC4  A$lcc1877261$161                   main_menu_update
     00001FC5  A$lcc1877261$162                   main_menu_update
     00001FC7  A$lcc1877261$163                   main_menu_update
     00001FC8  A$lcc1877261$167                   main_menu_update
     00001FC8  C$main_menu_update.c$33$2_0$157    main_menu_update
     00001FCB  A$lcc1877261$168                   main_menu_update
     00001FCC  A$lcc1877261$170                   main_menu_update
     00001FCD  A$lcc1877261$171                   main_menu_update
     00001FCF  A$lcc1877261$172                   main_menu_update
     00001FD1  A$lcc1877261$176                   main_menu_update
     00001FD1  C$main_menu_update.c$35$7_1$168    main_menu_update
     00001FD2  A$lcc1877261$177                   main_menu_update
     00001FD4  A$lcc1877261$178                   main_menu_update
     00001FD7  A$lcc1877261$179                   main_menu_update
     00001FD8  A$lcc1877261$180                   main_menu_update
     00001FD9  A$lcc1877261$181                   main_menu_update
ASxxxx Linker V03.00/V05.40 + sdld,  page 87.
Hexadecimal  [32-Bits]

Area                                    Addr        Size        Decimal Bytes (Attributes)
--------------------------------        ----        ----        ------- ----- ------------
_CODE                               00000200    00002F3E =       12094. bytes (REL,CON)

      Value  Global                              Global Defined In Module
      -----  --------------------------------   ------------------------
     00001FDA  A$lcc1877261$182                   main_menu_update
     00001FDB  A$lcc1877261$183                   main_menu_update
     00001FDE  A$lcc1877261$184                   main_menu_update
     00001FDF  A$lcc1877261$185                   main_menu_update
     00001FE0  A$lcc1877261$186                   main_menu_update
     00001FE1  A$lcc1877261$187                   main_menu_update
     00001FE3  A$lcc1877261$191                   main_menu_update
     00001FE3  C$main_menu_update.c$36$7_1$168    main_menu_update
     00001FE5  A$lcc1877261$192                   main_menu_update
     00001FE6  A$lcc1877261$193                   main_menu_update
     00001FE7  A$lcc1877261$194                   main_menu_update
     00001FEA  A$lcc1877261$195                   main_menu_update
     00001FEB  A$lcc1877261$196                   main_menu_update
     00001FED  A$lcc1877261$197                   main_menu_update
     00001FEE  A$lcc1877261$198                   main_menu_update
     00001FEF  A$lcc1877261$199                   main_menu_update
     00001FF0  A$lcc1877261$200                   main_menu_update
     00001FF1  A$lcc1877261$201                   main_menu_update
     00001FF4  A$lcc1877261$202                   main_menu_update
     00001FF6  A$lcc1877261$206                   main_menu_update
     00001FF6  C$main_menu_update.c$37$7_1$168    main_menu_update
     00001FF7  A$lcc1877261$210                   main_menu_update
     00001FF7  C$main_menu_update.c$33$6_1$167    main_menu_update
     00001FF8  A$lcc1877261$211                   main_menu_update
     00001FFA  A$lcc1877261$216                   main_menu_update
     00001FFC  A$lcc1877261$221                   main_menu_update
     00001FFC  C$main_menu_update.c$41$2_0$157    main_menu_update
     00001FFC  XG$MainMenu_Update$0$0             main_menu_update
     00001FFD  A$lcc1877262$58                    clean_text
     00001FFD  C$clean_text.c$7$0_0$133           clean_text
     00001FFD  C$clean_text.c$8$1_0$133           clean_text
     00001FFD  G$clean$0$0                        clean_text
     00001FFD  _clean                             clean_text
     00002000  A$lcc1877262$59                    clean_text
     00002002  A$lcc1877262$63                    clean_text
     00002002  C$clean_text.c$10$1_0$133          clean_text
     00002004  A$lcc1877262$65                    clean_text
     00002006  A$lcc1877262$66                    clean_text
     00002007  A$lcc1877262$67                    clean_text
     00002009  A$lcc1877262$71                    clean_text
     00002009  C$clean_text.c$11$3_0$135          clean_text
     0000200A  A$lcc1877262$72                    clean_text
     0000200B  A$lcc1877262$73                    clean_text
     0000200C  A$lcc1877262$74                    clean_text
     0000200D  A$lcc1877262$75                    clean_text
     0000200E  A$lcc1877262$76                    clean_text
     00002010  A$lcc1877262$77                    clean_text
     00002011  A$lcc1877262$78                    clean_text
     00002014  A$lcc1877262$79                    clean_text
     00002015  A$lcc1877262$83                    clean_text
     00002015  C$clean_text.c$12$3_0$135          clean_text
ASxxxx Linker V03.00/V05.40 + sdld,  page 88.
Hexadecimal  [32-Bits]

Area                                    Addr        Size        Decimal Bytes (Attributes)
--------------------------------        ----        ----        ------- ----- ------------
_CODE                               00000200    00002F3E =       12094. bytes (REL,CON)

      Value  Global                              Global Defined In Module
      -----  --------------------------------   ------------------------
     00002016  A$lcc1877262$84                    clean_text
     00002017  A$lcc1877262$85                    clean_text
     00002018  A$lcc1877262$86                    clean_text
     00002019  A$lcc1877262$87                    clean_text
     0000201B  A$lcc1877262$88                    clean_text
     0000201C  A$lcc1877262$89                    clean_text
     0000201F  A$lcc1877262$90                    clean_text
     00002020  A$lcc1877262$94                    clean_text
     00002020  C$clean_text.c$10$2_0$134          clean_text
     00002021  A$lcc1877262$95                    clean_text
     00002023  A$lcc1877262$100                   clean_text
     00002023  C$clean_text.c$15$1_0$133          clean_text
     00002025  A$lcc1877262$105                   clean_text
     00002025  C$clean_text.c$16$3_0$137          clean_text
     00002026  A$lcc1877262$106                   clean_text
     00002028  A$lcc1877262$107                   clean_text
     0000202A  A$lcc1877262$108                   clean_text
     0000202D  A$lcc1877262$109                   clean_text
     0000202E  A$lcc1877262$110                   clean_text
     00002030  A$lcc1877262$111                   clean_text
     00002031  A$lcc1877262$112                   clean_text
     00002032  A$lcc1877262$113                   clean_text
     00002034  A$lcc1877262$114                   clean_text
     00002035  A$lcc1877262$115                   clean_text
     00002036  A$lcc1877262$116                   clean_text
     00002038  A$lcc1877262$117                   clean_text
     00002039  A$lcc1877262$118                   clean_text
     0000203A  A$lcc1877262$119                   clean_text
     0000203B  A$lcc1877262$120                   clean_text
     0000203C  A$lcc1877262$121                   clean_text
     0000203F  A$lcc1877262$122                   clean_text
     00002041  A$lcc1877262$126                   clean_text
     00002041  C$clean_text.c$15$2_0$136          clean_text
     00002042  A$lcc1877262$127                   clean_text
     00002044  A$lcc1877262$132                   clean_text
     00002044  C$clean_text.c$19$1_0$133          clean_text
     00002047  A$lcc1877262$133                   clean_text
     00002048  A$lcc1877262$134                   clean_text
     0000204B  A$lcc1877262$135                   clean_text
     0000204C  A$lcc1877262$136                   clean_text
     0000204F  A$lcc1877262$137                   clean_text
     00002050  A$lcc1877262$138                   clean_text
     00002053  A$lcc1877262$139                   clean_text
     00002055  A$lcc1877262$143                   clean_text
     00002055  C$clean_text.c$20$1_0$133          clean_text
     00002056  A$lcc1877262$144                   clean_text
     00002059  A$lcc1877262$145                   clean_text
     0000205A  A$lcc1877262$146                   clean_text
     0000205D  A$lcc1877262$147                   clean_text
     0000205E  A$lcc1877262$148                   clean_text
     00002061  A$lcc1877262$149                   clean_text
ASxxxx Linker V03.00/V05.40 + sdld,  page 89.
Hexadecimal  [32-Bits]

Area                                    Addr        Size        Decimal Bytes (Attributes)
--------------------------------        ----        ----        ------- ----- ------------
_CODE                               00000200    00002F3E =       12094. bytes (REL,CON)

      Value  Global                              Global Defined In Module
      -----  --------------------------------   ------------------------
     00002063  A$lcc1877262$157                   clean_text
     00002063  C$clean_text.c$21$1_0$133          clean_text
     00002063  XG$clean$0$0                       clean_text
     00002064  G$empty_tile$0_0$0                 clean_text
     00002064  _empty_tile                        clean_text
     00002065  A$lcc1877263$53                    map_collision
     00002065  C$map_collision.c$9$0_0$134        map_collision
     00002065  Fmap_collision$get_tile$0$0        map_collision
     00002067  A$lcc1877263$54                    map_collision
     00002069  A$lcc1877263$55                    map_collision
     0000206A  A$lcc1877263$56                    map_collision
     0000206B  A$lcc1877263$57                    map_collision
     0000206C  A$lcc1877263$61                    map_collision
     0000206C  C$map_collision.c$10$1_0$134       map_collision
     0000206F  A$lcc1877263$62                    map_collision
     00002070  A$lcc1877263$63                    map_collision
     00002071  A$lcc1877263$64                    map_collision
     00002072  A$lcc1877263$65                    map_collision
     00002073  A$lcc1877263$66                    map_collision
     00002075  A$lcc1877263$67                    map_collision
     00002076  A$lcc1877263$68                    map_collision
     00002077  A$lcc1877263$69                    map_collision
     00002078  A$lcc1877263$70                    map_collision
     00002079  A$lcc1877263$71                    map_collision
     0000207B  A$lcc1877263$72                    map_collision
     0000207C  A$lcc1877263$73                    map_collision
     0000207D  A$lcc1877263$74                    map_collision
     0000207E  A$lcc1877263$75                    map_collision
     0000207F  A$lcc1877263$76                    map_collision
     00002080  A$lcc1877263$77                    map_collision
     00002081  A$lcc1877263$78                    map_collision
     00002082  A$lcc1877263$79                    map_collision
     00002083  A$lcc1877263$80                    map_collision
     00002084  A$lcc1877263$81                    map_collision
     00002085  A$lcc1877263$82                    map_collision
     00002086  A$lcc1877263$83                    map_collision
     00002087  A$lcc1877263$84                    map_collision
     00002089  A$lcc1877263$85                    map_collision
     0000208A  A$lcc1877263$86                    map_collision
     0000208B  A$lcc1877263$87                    map_collision
     0000208C  A$lcc1877263$88                    map_collision
     0000208D  A$lcc1877263$89                    map_collision
     0000208E  A$lcc1877263$90                    map_collision
     0000208F  A$lcc1877263$91                    map_collision
     00002090  A$lcc1877263$92                    map_collision
     00002091  A$lcc1877263$93                    map_collision
     00002092  A$lcc1877263$94                    map_collision
     00002093  A$lcc1877263$95                    map_collision
     00002094  A$lcc1877263$96                    map_collision
     00002095  A$lcc1877263$97                    map_collision
     00002096  A$lcc1877263$98                    map_collision
ASxxxx Linker V03.00/V05.40 + sdld,  page 90.
Hexadecimal  [32-Bits]

Area                                    Addr        Size        Decimal Bytes (Attributes)
--------------------------------        ----        ----        ------- ----- ------------
_CODE                               00000200    00002F3E =       12094. bytes (REL,CON)

      Value  Global                              Global Defined In Module
      -----  --------------------------------   ------------------------
     00002097  A$lcc1877263$99                    map_collision
     00002098  A$lcc1877263$100                   map_collision
     00002099  A$lcc1877263$101                   map_collision
     0000209A  A$lcc1877263$105                   map_collision
     0000209A  C$map_collision.c$11$1_0$134       map_collision
     0000209C  A$lcc1877263$106                   map_collision
     0000209D  A$lcc1877263$107                   map_collision
     0000209E  A$lcc1877263$108                   map_collision
     0000209F  A$lcc1877263$118                   map_collision
     0000209F  C$map_collision.c$14$1_0$136       map_collision
     0000209F  G$Map_Collision$0$0                map_collision
     0000209F  _Map_Collision                     map_collision
     000020A1  A$lcc1877263$122                   map_collision
     000020A1  C$map_collision.c$15$1_0$136       map_collision
     000020A4  A$lcc1877263$123                   map_collision
     000020A5  A$lcc1877263$124                   map_collision
     000020A6  A$lcc1877263$125                   map_collision
     000020A7  A$lcc1877263$126                   map_collision
     000020A9  A$lcc1877263$127                   map_collision
     000020AA  A$lcc1877263$128                   map_collision
     000020AB  A$lcc1877263$132                   map_collision
     000020AB  C$map_collision.c$16$1_0$136       map_collision
     000020AC  A$lcc1877263$133                   map_collision
     000020AD  A$lcc1877263$134                   map_collision
     000020AE  A$lcc1877263$135                   map_collision
     000020AF  A$lcc1877263$136                   map_collision
     000020B0  A$lcc1877263$137                   map_collision
     000020B1  A$lcc1877263$141                   map_collision
     000020B1  C$map_collision.c$18$1_0$136       map_collision
     000020B4  A$lcc1877263$142                   map_collision
     000020B6  A$lcc1877263$143                   map_collision
     000020B7  A$lcc1877263$144                   map_collision
     000020B8  A$lcc1877263$145                   map_collision
     000020BA  A$lcc1877263$146                   map_collision
     000020BB  A$lcc1877263$147                   map_collision
     000020BD  A$lcc1877263$148                   map_collision
     000020BF  A$lcc1877263$149                   map_collision
     000020C0  A$lcc1877263$153                   map_collision
     000020C0  C$map_collision.c$19$1_0$136       map_collision
     000020C3  A$lcc1877263$154                   map_collision
     000020C5  A$lcc1877263$155                   map_collision
     000020C6  A$lcc1877263$156                   map_collision
     000020C7  A$lcc1877263$157                   map_collision
     000020C9  A$lcc1877263$158                   map_collision
     000020CA  A$lcc1877263$159                   map_collision
     000020CC  A$lcc1877263$160                   map_collision
     000020CD  A$lcc1877263$161                   map_collision
     000020CF  A$lcc1877263$162                   map_collision
     000020D0  A$lcc1877263$166                   map_collision
     000020D0  C$map_collision.c$21$1_0$136       map_collision
     000020D3  A$lcc1877263$167                   map_collision
ASxxxx Linker V03.00/V05.40 + sdld,  page 91.
Hexadecimal  [32-Bits]

Area                                    Addr        Size        Decimal Bytes (Attributes)
--------------------------------        ----        ----        ------- ----- ------------
_CODE                               00000200    00002F3E =       12094. bytes (REL,CON)

      Value  Global                              Global Defined In Module
      -----  --------------------------------   ------------------------
     000020D6  A$lcc1877263$171                   map_collision
     000020D6  C$map_collision.c$22$1_0$136       map_collision
     000020D9  A$lcc1877263$172                   map_collision
     000020DB  A$lcc1877263$173                   map_collision
     000020DC  A$lcc1877263$174                   map_collision
     000020DD  A$lcc1877263$178                   map_collision
     000020DD  C$map_collision.c$23$1_0$136       map_collision
     000020E0  A$lcc1877263$179                   map_collision
     000020E2  A$lcc1877263$180                   map_collision
     000020E3  A$lcc1877263$181                   map_collision
     000020E4  A$lcc1877263$185                   map_collision
     000020E4  C$map_collision.c$24$1_0$136       map_collision
     000020E5  A$lcc1877263$186                   map_collision
     000020E6  A$lcc1877263$187                   map_collision
     000020E9  A$lcc1877263$188                   map_collision
     000020EA  A$lcc1877263$189                   map_collision
     000020EB  A$lcc1877263$190                   map_collision
     000020EC  A$lcc1877263$191                   map_collision
     000020EE  A$lcc1877263$192                   map_collision
     000020EF  A$lcc1877263$193                   map_collision
     000020F0  A$lcc1877263$194                   map_collision
     000020F1  A$lcc1877263$195                   map_collision
     000020F3  A$lcc1877263$196                   map_collision
     000020F4  A$lcc1877263$197                   map_collision
     000020F5  A$lcc1877263$198                   map_collision
     000020F6  A$lcc1877263$199                   map_collision
     000020F7  A$lcc1877263$200                   map_collision
     000020F8  A$lcc1877263$201                   map_collision
     000020F9  A$lcc1877263$202                   map_collision
     000020FA  A$lcc1877263$203                   map_collision
     000020FB  A$lcc1877263$204                   map_collision
     000020FC  A$lcc1877263$205                   map_collision
     000020FE  A$lcc1877263$206                   map_collision
     000020FF  A$lcc1877263$207                   map_collision
     00002101  A$lcc1877263$208                   map_collision
     00002102  A$lcc1877263$209                   map_collision
     00002103  A$lcc1877263$210                   map_collision
     00002104  A$lcc1877263$211                   map_collision
     00002105  A$lcc1877263$212                   map_collision
     00002106  A$lcc1877263$213                   map_collision
     00002107  A$lcc1877263$214                   map_collision
     00002108  A$lcc1877263$215                   map_collision
     00002109  A$lcc1877263$216                   map_collision
     0000210A  A$lcc1877263$217                   map_collision
     0000210C  A$lcc1877263$218                   map_collision
     0000210D  A$lcc1877263$219                   map_collision
     0000210E  A$lcc1877263$220                   map_collision
     0000210F  A$lcc1877263$221                   map_collision
     00002111  A$lcc1877263$222                   map_collision
     00002112  A$lcc1877263$223                   map_collision
     00002113  A$lcc1877263$224                   map_collision
ASxxxx Linker V03.00/V05.40 + sdld,  page 92.
Hexadecimal  [32-Bits]

Area                                    Addr        Size        Decimal Bytes (Attributes)
--------------------------------        ----        ----        ------- ----- ------------
_CODE                               00000200    00002F3E =       12094. bytes (REL,CON)

      Value  Global                              Global Defined In Module
      -----  --------------------------------   ------------------------
     00002114  A$lcc1877263$225                   map_collision
     00002115  A$lcc1877263$226                   map_collision
     00002116  A$lcc1877263$227                   map_collision
     00002117  A$lcc1877263$228                   map_collision
     00002118  A$lcc1877263$229                   map_collision
     0000211A  A$lcc1877263$230                   map_collision
     0000211B  A$lcc1877263$231                   map_collision
     0000211D  A$lcc1877263$232                   map_collision
     0000211E  A$lcc1877263$233                   map_collision
     0000211F  A$lcc1877263$234                   map_collision
     00002120  A$lcc1877263$235                   map_collision
     00002121  A$lcc1877263$236                   map_collision
     00002124  A$lcc1877263$240                   map_collision
     00002124  C$map_collision.c$26$1_0$136       map_collision
     00002126  A$lcc1877263$241                   map_collision
     00002127  A$lcc1877263$242                   map_collision
     00002128  A$lcc1877263$243                   map_collision
     00002129  A$lcc1877263$244                   map_collision
     0000212A  A$lcc1877263$245                   map_collision
     0000212B  A$lcc1877263$246                   map_collision
     0000212C  A$lcc1877263$247                   map_collision
     0000212D  A$lcc1877263$248                   map_collision
     0000212E  A$lcc1877263$249                   map_collision
     0000212F  A$lcc1877263$250                   map_collision
     00002130  A$lcc1877263$251                   map_collision
     00002131  A$lcc1877263$252                   map_collision
     00002132  A$lcc1877263$253                   map_collision
     00002133  A$lcc1877263$254                   map_collision
     00002134  A$lcc1877263$255                   map_collision
     00002135  A$lcc1877263$256                   map_collision
     00002137  A$lcc1877263$257                   map_collision
     00002138  A$lcc1877263$258                   map_collision
     0000213A  A$lcc1877263$259                   map_collision
     0000213B  A$lcc1877263$260                   map_collision
     0000213C  A$lcc1877263$261                   map_collision
     0000213D  A$lcc1877263$262                   map_collision
     0000213F  A$lcc1877263$263                   map_collision
     00002140  A$lcc1877263$264                   map_collision
     00002141  A$lcc1877263$265                   map_collision
     00002142  A$lcc1877263$266                   map_collision
     00002144  A$lcc1877263$267                   map_collision
     00002146  A$lcc1877263$268                   map_collision
     00002147  A$lcc1877263$270                   map_collision
     00002149  A$lcc1877263$271                   map_collision
     0000214C  A$lcc1877263$275                   map_collision
     0000214C  C$map_collision.c$27$1_0$136       map_collision
     0000214E  A$lcc1877263$276                   map_collision
     0000214F  A$lcc1877263$277                   map_collision
     00002150  A$lcc1877263$278                   map_collision
     00002151  A$lcc1877263$279                   map_collision
     00002152  A$lcc1877263$280                   map_collision
ASxxxx Linker V03.00/V05.40 + sdld,  page 93.
Hexadecimal  [32-Bits]

Area                                    Addr        Size        Decimal Bytes (Attributes)
--------------------------------        ----        ----        ------- ----- ------------
_CODE                               00000200    00002F3E =       12094. bytes (REL,CON)

      Value  Global                              Global Defined In Module
      -----  --------------------------------   ------------------------
     00002153  A$lcc1877263$281                   map_collision
     00002154  A$lcc1877263$282                   map_collision
     00002155  A$lcc1877263$283                   map_collision
     00002156  A$lcc1877263$284                   map_collision
     00002157  A$lcc1877263$285                   map_collision
     00002158  A$lcc1877263$286                   map_collision
     00002159  A$lcc1877263$287                   map_collision
     0000215A  A$lcc1877263$288                   map_collision
     0000215B  A$lcc1877263$289                   map_collision
     0000215C  A$lcc1877263$290                   map_collision
     0000215D  A$lcc1877263$291                   map_collision
     0000215F  A$lcc1877263$292                   map_collision
     00002160  A$lcc1877263$293                   map_collision
     00002161  A$lcc1877263$294                   map_collision
     00002162  A$lcc1877263$295                   map_collision
     00002164  A$lcc1877263$296                   map_collision
     00002165  A$lcc1877263$297                   map_collision
     00002166  A$lcc1877263$298                   map_collision
     00002167  A$lcc1877263$299                   map_collision
     00002169  A$lcc1877263$300                   map_collision
     0000216B  A$lcc1877263$301                   map_collision
     0000216C  A$lcc1877263$303                   map_collision
     0000216E  A$lcc1877263$304                   map_collision
     00002171  A$lcc1877263$308                   map_collision
     00002171  C$map_collision.c$28$1_0$136       map_collision
     00002173  A$lcc1877263$309                   map_collision
     00002174  A$lcc1877263$310                   map_collision
     00002175  A$lcc1877263$311                   map_collision
     00002176  A$lcc1877263$312                   map_collision
     00002177  A$lcc1877263$313                   map_collision
     00002179  A$lcc1877263$314                   map_collision
     0000217A  A$lcc1877263$315                   map_collision
     0000217B  A$lcc1877263$316                   map_collision
     0000217C  A$lcc1877263$317                   map_collision
     0000217D  A$lcc1877263$318                   map_collision
     0000217E  A$lcc1877263$319                   map_collision
     0000217F  A$lcc1877263$320                   map_collision
     00002180  A$lcc1877263$321                   map_collision
     00002181  A$lcc1877263$322                   map_collision
     00002182  A$lcc1877263$323                   map_collision
     00002183  A$lcc1877263$324                   map_collision
     00002184  A$lcc1877263$325                   map_collision
     00002185  A$lcc1877263$326                   map_collision
     00002186  A$lcc1877263$327                   map_collision
     00002187  A$lcc1877263$328                   map_collision
     00002188  A$lcc1877263$329                   map_collision
     00002189  A$lcc1877263$330                   map_collision
     0000218A  A$lcc1877263$331                   map_collision
     0000218B  A$lcc1877263$332                   map_collision
     0000218C  A$lcc1877263$333                   map_collision
     0000218D  A$lcc1877263$334                   map_collision
ASxxxx Linker V03.00/V05.40 + sdld,  page 94.
Hexadecimal  [32-Bits]

Area                                    Addr        Size        Decimal Bytes (Attributes)
--------------------------------        ----        ----        ------- ----- ------------
_CODE                               00000200    00002F3E =       12094. bytes (REL,CON)

      Value  Global                              Global Defined In Module
      -----  --------------------------------   ------------------------
     0000218E  A$lcc1877263$335                   map_collision
     0000218F  A$lcc1877263$336                   map_collision
     00002191  A$lcc1877263$337                   map_collision
     00002192  A$lcc1877263$338                   map_collision
     00002193  A$lcc1877263$339                   map_collision
     00002194  A$lcc1877263$340                   map_collision
     00002195  A$lcc1877263$341                   map_collision
     00002196  A$lcc1877263$342                   map_collision
     00002197  A$lcc1877263$343                   map_collision
     00002199  A$lcc1877263$344                   map_collision
     0000219A  A$lcc1877263$345                   map_collision
     0000219C  A$lcc1877263$346                   map_collision
     0000219D  A$lcc1877263$347                   map_collision
     0000219E  A$lcc1877263$348                   map_collision
     0000219F  A$lcc1877263$349                   map_collision
     000021A0  A$lcc1877263$350                   map_collision
     000021A1  A$lcc1877263$351                   map_collision
     000021A3  A$lcc1877263$352                   map_collision
     000021A5  A$lcc1877263$353                   map_collision
     000021A6  A$lcc1877263$355                   map_collision
     000021A8  A$lcc1877263$356                   map_collision
     000021AB  A$lcc1877263$360                   map_collision
     000021AB  C$map_collision.c$29$1_0$136       map_collision
     000021AD  A$lcc1877263$361                   map_collision
     000021AE  A$lcc1877263$362                   map_collision
     000021AF  A$lcc1877263$363                   map_collision
     000021B0  A$lcc1877263$364                   map_collision
     000021B1  A$lcc1877263$365                   map_collision
     000021B2  A$lcc1877263$366                   map_collision
     000021B3  A$lcc1877263$367                   map_collision
     000021B4  A$lcc1877263$368                   map_collision
     000021B5  A$lcc1877263$369                   map_collision
     000021B7  A$lcc1877263$370                   map_collision
     000021B8  A$lcc1877263$371                   map_collision
     000021BA  A$lcc1877263$372                   map_collision
     000021BB  A$lcc1877263$373                   map_collision
     000021BC  A$lcc1877263$374                   map_collision
     000021BD  A$lcc1877263$375                   map_collision
     000021BE  A$lcc1877263$376                   map_collision
     000021BF  A$lcc1877263$377                   map_collision
     000021C0  A$lcc1877263$378                   map_collision
     000021C1  A$lcc1877263$379                   map_collision
     000021C2  A$lcc1877263$380                   map_collision
     000021C3  A$lcc1877263$381                   map_collision
     000021C4  A$lcc1877263$382                   map_collision
     000021C5  A$lcc1877263$383                   map_collision
     000021C6  A$lcc1877263$384                   map_collision
     000021C8  A$lcc1877263$385                   map_collision
     000021C9  A$lcc1877263$386                   map_collision
     000021CB  A$lcc1877263$387                   map_collision
     000021CC  A$lcc1877263$388                   map_collision
ASxxxx Linker V03.00/V05.40 + sdld,  page 95.
Hexadecimal  [32-Bits]

Area                                    Addr        Size        Decimal Bytes (Attributes)
--------------------------------        ----        ----        ------- ----- ------------
_CODE                               00000200    00002F3E =       12094. bytes (REL,CON)

      Value  Global                              Global Defined In Module
      -----  --------------------------------   ------------------------
     000021CD  A$lcc1877263$389                   map_collision
     000021CE  A$lcc1877263$390                   map_collision
     000021CF  A$lcc1877263$391                   map_collision
     000021D0  A$lcc1877263$392                   map_collision
     000021D2  A$lcc1877263$393                   map_collision
     000021D4  A$lcc1877263$394                   map_collision
     000021D5  A$lcc1877263$396                   map_collision
     000021D7  A$lcc1877263$397                   map_collision
     000021DA  A$lcc1877263$401                   map_collision
     000021DA  C$map_collision.c$35$2_0$137       map_collision
     000021DD  A$lcc1877263$402                   map_collision
     000021E0  A$lcc1877263$403                   map_collision
     000021E1  A$lcc1877263$404                   map_collision
     000021E2  A$lcc1877263$405                   map_collision
     000021E4  A$lcc1877263$409                   map_collision
     000021E4  C$map_collision.c$36$3_0$138       map_collision
     000021E7  A$lcc1877263$414                   map_collision
     000021E7  C$map_collision.c$39$2_0$139       map_collision
     000021E9  A$lcc1877263$415                   map_collision
     000021EA  A$lcc1877263$416                   map_collision
     000021EB  A$lcc1877263$417                   map_collision
     000021EC  A$lcc1877263$418                   map_collision
     000021ED  A$lcc1877263$419                   map_collision
     000021EE  A$lcc1877263$420                   map_collision
     000021EF  A$lcc1877263$421                   map_collision
     000021F0  A$lcc1877263$422                   map_collision
     000021F1  A$lcc1877263$423                   map_collision
     000021F2  A$lcc1877263$424                   map_collision
     000021F3  A$lcc1877263$425                   map_collision
     000021F4  A$lcc1877263$426                   map_collision
     000021F5  A$lcc1877263$427                   map_collision
     000021F6  A$lcc1877263$428                   map_collision
     000021F7  A$lcc1877263$429                   map_collision
     000021F8  A$lcc1877263$430                   map_collision
     000021FA  A$lcc1877263$431                   map_collision
     000021FB  A$lcc1877263$432                   map_collision
     000021FD  A$lcc1877263$433                   map_collision
     000021FE  A$lcc1877263$434                   map_collision
     000021FF  A$lcc1877263$435                   map_collision
     00002200  A$lcc1877263$436                   map_collision
     00002201  A$lcc1877263$437                   map_collision
     00002202  A$lcc1877263$438                   map_collision
     00002204  A$lcc1877263$445                   map_collision
     00002204  C$map_collision.c$40$3_0$140       map_collision
     00002204  C$map_collision.c$41$3_0$140       map_collision
     00002205  A$lcc1877263$446                   map_collision
     00002206  A$lcc1877263$447                   map_collision
     00002207  A$lcc1877263$451                   map_collision
     00002207  C$map_collision.c$43$4_0$141       map_collision
     00002208  A$lcc1877263$452                   map_collision
     00002209  A$lcc1877263$453                   map_collision
ASxxxx Linker V03.00/V05.40 + sdld,  page 96.
Hexadecimal  [32-Bits]

Area                                    Addr        Size        Decimal Bytes (Attributes)
--------------------------------        ----        ----        ------- ----- ------------
_CODE                               00000200    00002F3E =       12094. bytes (REL,CON)

      Value  Global                              Global Defined In Module
      -----  --------------------------------   ------------------------
     0000220C  A$lcc1877263$454                   map_collision
     0000220D  A$lcc1877263$455                   map_collision
     0000220E  A$lcc1877263$456                   map_collision
     0000220F  A$lcc1877263$457                   map_collision
     00002210  A$lcc1877263$458                   map_collision
     00002211  A$lcc1877263$459                   map_collision
     00002212  A$lcc1877263$460                   map_collision
     00002213  A$lcc1877263$461                   map_collision
     00002215  A$lcc1877263$462                   map_collision
     00002217  A$lcc1877263$466                   map_collision
     00002217  C$map_collision.c$44$4_0$141       map_collision
     00002219  A$lcc1877263$470                   map_collision
     00002219  C$map_collision.c$46$4_0$142       map_collision
     0000221A  A$lcc1877263$471                   map_collision
     0000221B  A$lcc1877263$472                   map_collision
     0000221E  A$lcc1877263$473                   map_collision
     0000221F  A$lcc1877263$474                   map_collision
     00002220  A$lcc1877263$475                   map_collision
     00002221  A$lcc1877263$476                   map_collision
     00002222  A$lcc1877263$477                   map_collision
     00002223  A$lcc1877263$478                   map_collision
     00002224  A$lcc1877263$479                   map_collision
     00002226  A$lcc1877263$480                   map_collision
     00002227  A$lcc1877263$481                   map_collision
     00002228  A$lcc1877263$482                   map_collision
     00002229  A$lcc1877263$483                   map_collision
     0000222A  A$lcc1877263$484                   map_collision
     0000222B  A$lcc1877263$485                   map_collision
     0000222C  A$lcc1877263$489                   map_collision
     0000222C  C$map_collision.c$47$4_0$142       map_collision
     0000222E  A$lcc1877263$493                   map_collision
     0000222E  C$map_collision.c$49$3_0$140       map_collision
     0000222F  A$lcc1877263$494                   map_collision
     00002230  A$lcc1877263$495                   map_collision
     00002233  A$lcc1877263$500                   map_collision
     00002235  A$lcc1877263$505                   map_collision
     00002235  C$map_collision.c$51$2_0$136       map_collision
     00002235  XG$Map_Collision$0$0               map_collision
     00002236  A$lcc1877265$58                    map_player_movement
     00002236  C$map_player_movement.c$10$0_0$1   map_player_movement
     00002236  G$Map_PlayerMovement$0$0           map_player_movement
     00002236  _Map_PlayerMovement                map_player_movement
     00002237  A$lcc1877265$62                    map_player_movement
     00002237  C$map_player_movement.c$11$2_0$1   map_player_movement
     0000223A  A$lcc1877265$63                    map_player_movement
     0000223C  A$lcc1877265$64                    map_player_movement
     0000223E  A$lcc1877265$65                    map_player_movement
     00002241  A$lcc1877265$66                    map_player_movement
     00002243  A$lcc1877265$67                    map_player_movement
     00002245  A$lcc1877265$71                    map_player_movement
     00002245  C$map_player_movement.c$12$3_0$1   map_player_movement
ASxxxx Linker V03.00/V05.40 + sdld,  page 97.
Hexadecimal  [32-Bits]

Area                                    Addr        Size        Decimal Bytes (Attributes)
--------------------------------        ----        ----        ------- ----- ------------
_CODE                               00000200    00002F3E =       12094. bytes (REL,CON)

      Value  Global                              Global Defined In Module
      -----  --------------------------------   ------------------------
     00002248  A$lcc1877265$75                    map_player_movement
     00002248  C$map_player_movement.c$14$3_0$1   map_player_movement
     0000224B  A$lcc1877265$76                    map_player_movement
     0000224C  A$lcc1877265$77                    map_player_movement
     0000224D  A$lcc1877265$78                    map_player_movement
     0000224E  A$lcc1877265$79                    map_player_movement
     00002251  A$lcc1877265$80                    map_player_movement
     00002253  A$lcc1877265$81                    map_player_movement
     00002254  A$lcc1877265$82                    map_player_movement
     00002255  A$lcc1877265$83                    map_player_movement
     00002258  A$lcc1877265$88                    map_player_movement
     00002258  C$map_player_movement.c$18$2_0$1   map_player_movement
     0000225B  A$lcc1877265$89                    map_player_movement
     0000225C  A$lcc1877265$90                    map_player_movement
     0000225E  A$lcc1877265$94                    map_player_movement
     00002261  A$lcc1877265$98                    map_player_movement
     00002261  C$map_player_movement.c$19$4_0$1   map_player_movement
     00002263  A$lcc1877265$99                    map_player_movement
     00002265  A$lcc1877265$103                   map_player_movement
     00002265  C$map_player_movement.c$20$4_0$1   map_player_movement
     00002268  A$lcc1877265$104                   map_player_movement
     0000226A  A$lcc1877265$105                   map_player_movement
     0000226C  A$lcc1877265$110                   map_player_movement
     0000226C  C$map_player_movement.c$21$5_0$1   map_player_movement
     0000226E  A$lcc1877265$111                   map_player_movement
     00002270  A$lcc1877265$115                   map_player_movement
     00002270  C$map_player_movement.c$22$5_0$1   map_player_movement
     00002273  A$lcc1877265$116                   map_player_movement
     00002275  A$lcc1877265$117                   map_player_movement
     00002277  A$lcc1877265$122                   map_player_movement
     00002277  C$map_player_movement.c$23$6_0$1   map_player_movement
     00002279  A$lcc1877265$123                   map_player_movement
     0000227B  A$lcc1877265$127                   map_player_movement
     0000227B  C$map_player_movement.c$24$6_0$1   map_player_movement
     0000227E  A$lcc1877265$128                   map_player_movement
     00002280  A$lcc1877265$129                   map_player_movement
     00002282  A$lcc1877265$134                   map_player_movement
     00002282  C$map_player_movement.c$25$7_0$1   map_player_movement
     00002283  A$lcc1877265$135                   map_player_movement
     00002285  A$lcc1877265$139                   map_player_movement
     00002285  C$map_player_movement.c$26$7_0$1   map_player_movement
     00002288  A$lcc1877265$140                   map_player_movement
     0000228A  A$lcc1877265$145                   map_player_movement
     0000228A  C$map_player_movement.c$30$2_0$1   map_player_movement
     0000228D  A$lcc1877265$146                   map_player_movement
     0000228E  A$lcc1877265$147                   map_player_movement
     00002290  A$lcc1877265$148                   map_player_movement
     00002293  A$lcc1877265$149                   map_player_movement
     00002295  A$lcc1877265$150                   map_player_movement
     00002297  A$lcc1877265$151                   map_player_movement
     00002299  A$lcc1877265$152                   map_player_movement
ASxxxx Linker V03.00/V05.40 + sdld,  page 98.
Hexadecimal  [32-Bits]

Area                                    Addr        Size        Decimal Bytes (Attributes)
--------------------------------        ----        ----        ------- ----- ------------
_CODE                               00000200    00002F3E =       12094. bytes (REL,CON)

      Value  Global                              Global Defined In Module
      -----  --------------------------------   ------------------------
     0000229B  A$lcc1877265$153                   map_player_movement
     0000229D  A$lcc1877265$154                   map_player_movement
     0000229F  A$lcc1877265$155                   map_player_movement
     000022A1  A$lcc1877265$163                   map_player_movement
     000022A1  C$map_player_movement.c$31$3_0$1   map_player_movement
     000022A1  C$map_player_movement.c$32$3_0$1   map_player_movement
     000022A4  A$lcc1877265$164                   map_player_movement
     000022A7  A$lcc1877265$168                   map_player_movement
     000022A7  C$map_player_movement.c$33$3_0$1   map_player_movement
     000022AA  A$lcc1877265$169                   map_player_movement
     000022AC  A$lcc1877265$170                   map_player_movement
     000022AD  A$lcc1877265$171                   map_player_movement
     000022B0  A$lcc1877265$172                   map_player_movement
     000022B1  A$lcc1877265$173                   map_player_movement
     000022B3  A$lcc1877265$174                   map_player_movement
     000022B4  A$lcc1877265$175                   map_player_movement
     000022B5  A$lcc1877265$176                   map_player_movement
     000022B6  A$lcc1877265$177                   map_player_movement
     000022B7  A$lcc1877265$178                   map_player_movement
     000022B8  A$lcc1877265$179                   map_player_movement
     000022B9  A$lcc1877265$180                   map_player_movement
     000022BA  A$lcc1877265$181                   map_player_movement
     000022BB  A$lcc1877265$182                   map_player_movement
     000022BC  A$lcc1877265$183                   map_player_movement
     000022BF  A$lcc1877265$184                   map_player_movement
     000022C0  A$lcc1877265$185                   map_player_movement
     000022C1  A$lcc1877265$186                   map_player_movement
     000022C2  A$lcc1877265$187                   map_player_movement
     000022C4  A$lcc1877265$188                   map_player_movement
     000022C5  A$lcc1877265$189                   map_player_movement
     000022C8  A$lcc1877265$193                   map_player_movement
     000022C8  C$map_player_movement.c$34$3_0$1   map_player_movement
     000022CA  A$lcc1877265$201                   map_player_movement
     000022CA  C$map_player_movement.c$35$3_0$1   map_player_movement
     000022CA  C$map_player_movement.c$36$3_0$1   map_player_movement
     000022CD  A$lcc1877265$202                   map_player_movement
     000022D0  A$lcc1877265$206                   map_player_movement
     000022D0  C$map_player_movement.c$37$3_0$1   map_player_movement
     000022D3  A$lcc1877265$207                   map_player_movement
     000022D5  A$lcc1877265$208                   map_player_movement
     000022D6  A$lcc1877265$209                   map_player_movement
     000022D9  A$lcc1877265$210                   map_player_movement
     000022DA  A$lcc1877265$211                   map_player_movement
     000022DC  A$lcc1877265$212                   map_player_movement
     000022DD  A$lcc1877265$213                   map_player_movement
     000022DE  A$lcc1877265$214                   map_player_movement
     000022DF  A$lcc1877265$215                   map_player_movement
     000022E0  A$lcc1877265$216                   map_player_movement
     000022E1  A$lcc1877265$217                   map_player_movement
     000022E2  A$lcc1877265$218                   map_player_movement
     000022E3  A$lcc1877265$219                   map_player_movement
ASxxxx Linker V03.00/V05.40 + sdld,  page 99.
Hexadecimal  [32-Bits]

Area                                    Addr        Size        Decimal Bytes (Attributes)
--------------------------------        ----        ----        ------- ----- ------------
_CODE                               00000200    00002F3E =       12094. bytes (REL,CON)

      Value  Global                              Global Defined In Module
      -----  --------------------------------   ------------------------
     000022E4  A$lcc1877265$220                   map_player_movement
     000022E5  A$lcc1877265$221                   map_player_movement
     000022E8  A$lcc1877265$222                   map_player_movement
     000022E9  A$lcc1877265$223                   map_player_movement
     000022EA  A$lcc1877265$224                   map_player_movement
     000022EB  A$lcc1877265$225                   map_player_movement
     000022ED  A$lcc1877265$226                   map_player_movement
     000022EE  A$lcc1877265$227                   map_player_movement
     000022F1  A$lcc1877265$231                   map_player_movement
     000022F1  C$map_player_movement.c$38$3_0$1   map_player_movement
     000022F3  A$lcc1877265$239                   map_player_movement
     000022F3  C$map_player_movement.c$39$3_0$1   map_player_movement
     000022F3  C$map_player_movement.c$40$3_0$1   map_player_movement
     000022F6  A$lcc1877265$240                   map_player_movement
     000022F9  A$lcc1877265$244                   map_player_movement
     000022F9  C$map_player_movement.c$41$3_0$1   map_player_movement
     000022FB  A$lcc1877265$252                   map_player_movement
     000022FB  C$map_player_movement.c$42$3_0$1   map_player_movement
     000022FB  C$map_player_movement.c$43$3_0$1   map_player_movement
     000022FE  A$lcc1877265$253                   map_player_movement
     00002301  A$lcc1877265$261                   map_player_movement
     00002301  C$map_player_movement.c$47$2_0$1   map_player_movement
     00002301  C$map_player_movement.c$50$2_0$1   map_player_movement
     00002304  A$lcc1877265$262                   map_player_movement
     00002305  A$lcc1877265$263                   map_player_movement
     00002307  A$lcc1877265$264                   map_player_movement
     0000230A  A$lcc1877265$265                   map_player_movement
     0000230C  A$lcc1877265$266                   map_player_movement
     0000230E  A$lcc1877265$270                   map_player_movement
     0000230E  C$map_player_movement.c$51$3_0$1   map_player_movement
     0000230F  A$lcc1877265$271                   map_player_movement
     00002312  A$lcc1877265$275                   map_player_movement
     00002312  C$map_player_movement.c$52$3_0$1   map_player_movement
     00002315  A$lcc1877265$276                   map_player_movement
     00002317  A$lcc1877265$277                   map_player_movement
     00002318  A$lcc1877265$278                   map_player_movement
     0000231B  A$lcc1877265$279                   map_player_movement
     0000231C  A$lcc1877265$280                   map_player_movement
     0000231E  A$lcc1877265$281                   map_player_movement
     0000231F  A$lcc1877265$282                   map_player_movement
     00002320  A$lcc1877265$283                   map_player_movement
     00002321  A$lcc1877265$284                   map_player_movement
     00002322  A$lcc1877265$285                   map_player_movement
     00002323  A$lcc1877265$286                   map_player_movement
     00002324  A$lcc1877265$287                   map_player_movement
     00002325  A$lcc1877265$288                   map_player_movement
     00002326  A$lcc1877265$289                   map_player_movement
     00002327  A$lcc1877265$290                   map_player_movement
     0000232A  A$lcc1877265$291                   map_player_movement
     0000232B  A$lcc1877265$292                   map_player_movement
     0000232C  A$lcc1877265$293                   map_player_movement
ASxxxx Linker V03.00/V05.40 + sdld,  page 100.
Hexadecimal  [32-Bits]

Area                                    Addr        Size        Decimal Bytes (Attributes)
--------------------------------        ----        ----        ------- ----- ------------
_CODE                               00000200    00002F3E =       12094. bytes (REL,CON)

      Value  Global                              Global Defined In Module
      -----  --------------------------------   ------------------------
     0000232D  A$lcc1877265$294                   map_player_movement
     0000232F  A$lcc1877265$295                   map_player_movement
     00002330  A$lcc1877265$296                   map_player_movement
     00002333  A$lcc1877265$301                   map_player_movement
     00002333  C$map_player_movement.c$55$2_0$1   map_player_movement
     00002336  A$lcc1877265$302                   map_player_movement
     00002338  A$lcc1877265$303                   map_player_movement
     0000233A  A$lcc1877265$304                   map_player_movement
     0000233D  A$lcc1877265$305                   map_player_movement
     0000233F  A$lcc1877265$306                   map_player_movement
     00002341  A$lcc1877265$310                   map_player_movement
     00002341  C$map_player_movement.c$56$3_0$1   map_player_movement
     00002342  A$lcc1877265$311                   map_player_movement
     00002345  A$lcc1877265$315                   map_player_movement
     00002345  C$map_player_movement.c$57$3_0$1   map_player_movement
     00002348  A$lcc1877265$316                   map_player_movement
     0000234A  A$lcc1877265$317                   map_player_movement
     0000234B  A$lcc1877265$318                   map_player_movement
     0000234E  A$lcc1877265$319                   map_player_movement
     0000234F  A$lcc1877265$320                   map_player_movement
     00002351  A$lcc1877265$321                   map_player_movement
     00002352  A$lcc1877265$322                   map_player_movement
     00002353  A$lcc1877265$323                   map_player_movement
     00002354  A$lcc1877265$324                   map_player_movement
     00002355  A$lcc1877265$325                   map_player_movement
     00002356  A$lcc1877265$326                   map_player_movement
     00002357  A$lcc1877265$327                   map_player_movement
     00002358  A$lcc1877265$328                   map_player_movement
     00002359  A$lcc1877265$329                   map_player_movement
     0000235A  A$lcc1877265$330                   map_player_movement
     0000235D  A$lcc1877265$331                   map_player_movement
     0000235E  A$lcc1877265$332                   map_player_movement
     0000235F  A$lcc1877265$333                   map_player_movement
     00002360  A$lcc1877265$334                   map_player_movement
     00002362  A$lcc1877265$335                   map_player_movement
     00002363  A$lcc1877265$336                   map_player_movement
     00002366  A$lcc1877265$341                   map_player_movement
     00002366  C$map_player_movement.c$11$2_0$1   map_player_movement
     00002369  A$lcc1877265$342                   map_player_movement
     0000236A  A$lcc1877265$346                   map_player_movement
     0000236A  C$map_player_movement.c$60$2_0$1   map_player_movement
     0000236D  A$lcc1877265$347                   map_player_movement
     0000236F  A$lcc1877265$348                   map_player_movement
     00002371  A$lcc1877265$349                   map_player_movement
     00002373  A$lcc1877265$350                   map_player_movement
     00002375  A$lcc1877265$354                   map_player_movement
     00002375  C$map_player_movement.c$61$2_0$1   map_player_movement
     00002376  A$lcc1877265$355                   map_player_movement
     00002379  A$lcc1877265$360                   map_player_movement
     00002379  C$map_player_movement.c$62$2_0$1   map_player_movement
     0000237C  A$lcc1877265$361                   map_player_movement
ASxxxx Linker V03.00/V05.40 + sdld,  page 101.
Hexadecimal  [32-Bits]

Area                                    Addr        Size        Decimal Bytes (Attributes)
--------------------------------        ----        ----        ------- ----- ------------
_CODE                               00000200    00002F3E =       12094. bytes (REL,CON)

      Value  Global                              Global Defined In Module
      -----  --------------------------------   ------------------------
     0000237E  A$lcc1877265$362                   map_player_movement
     00002380  A$lcc1877265$363                   map_player_movement
     00002382  A$lcc1877265$364                   map_player_movement
     00002384  A$lcc1877265$368                   map_player_movement
     00002384  C$map_player_movement.c$63$2_0$1   map_player_movement
     00002385  A$lcc1877265$369                   map_player_movement
     00002388  A$lcc1877265$374                   map_player_movement
     00002389  A$lcc1877265$379                   map_player_movement
     00002389  C$map_player_movement.c$64$2_0$1   map_player_movement
     00002389  XG$Map_PlayerMovement$0$0          map_player_movement
     0000238A  A$lcc1877266$61                    map_00
     0000238A  C$map_00.c$6$0_0$35                map_00
     0000238A  C$map_00.c$8$1_0$35                map_00
     0000238A  G$Map_00_Create$0$0                map_00
     0000238A  _Map_00_Create                     map_00
     0000238D  A$lcc1877266$62                    map_00
     0000238F  A$lcc1877266$63                    map_00
     00002390  A$lcc1877266$64                    map_00
     00002392  A$lcc1877266$68                    map_00
     00002392  C$map_00.c$9$1_0$35                map_00
     00002393  A$lcc1877266$69                    map_00
     00002395  A$lcc1877266$70                    map_00
     00002396  A$lcc1877266$71                    map_00
     00002398  A$lcc1877266$75                    map_00
     00002398  C$map_00.c$10$1_0$35               map_00
     0000239B  A$lcc1877266$76                    map_00
     0000239D  A$lcc1877266$80                    map_00
     0000239D  C$map_00.c$11$1_0$35               map_00
     000023A0  A$lcc1877266$81                    map_00
     000023A1  A$lcc1877266$82                    map_00
     000023A2  A$lcc1877266$83                    map_00
     000023A3  A$lcc1877266$91                    map_00
     000023A3  C$map_00.c$12$1_0$35               map_00
     000023A3  XG$Map_00_Create$0$0               map_00
     000023A4  A$lcc1877267$61                    map_00_check_items
     000023A4  C$map_00_check_items.c$10$1_0$17   map_00_check_items
     000023A4  C$map_00_check_items.c$26$2_0$17   map_00_check_items
     000023A4  C$map_00_check_items.c$9$0_0$170   map_00_check_items
     000023A4  G$Map_00_CheckItems$0$0            map_00_check_items
     000023A4  _Map_00_CheckItems                 map_00_check_items
     000023A6  A$lcc1877267$66                    map_00_check_items
     000023A6  C$map_00_check_items.c$31$2_0$17   map_00_check_items
     000023A6  XG$Map_00_CheckItems$0$0           map_00_check_items
     000023A7  G$map_00_example_collision$0_0$0   map_00_collision
     000023A7  _map_00_example_collision          map_00_collision
     0000250F  A$lcc1877269$63                    map_00_init
     0000250F  C$map_00_init.c$21$0_0$173         map_00_init
     0000250F  C$map_00_init.c$22$2_0$174         map_00_init
     0000250F  G$hello_event$0$0                  map_00_init
     0000250F  _hello_event                       map_00_init
     00002512  A$lcc1877269$64                    map_00_init
ASxxxx Linker V03.00/V05.40 + sdld,  page 102.
Hexadecimal  [32-Bits]

Area                                    Addr        Size        Decimal Bytes (Attributes)
--------------------------------        ----        ----        ------- ----- ------------
_CODE                               00000200    00002F3E =       12094. bytes (REL,CON)

      Value  Global                              Global Defined In Module
      -----  --------------------------------   ------------------------
     00002513  A$lcc1877269$65                    map_00_init
     00002514  A$lcc1877269$66                    map_00_init
     00002515  A$lcc1877269$73                    map_00_init
     00002515  C$map_00_init.c$23$2_0$174         map_00_init
     00002515  C$map_00_init.c$25$1_0$173         map_00_init
     00002517  A$lcc1877269$74                    map_00_init
     00002518  A$lcc1877269$78                    map_00_init
     00002518  C$map_00_init.c$27$1_0$173         map_00_init
     0000251A  A$lcc1877269$79                    map_00_init
     0000251B  A$lcc1877269$80                    map_00_init
     0000251C  A$lcc1877269$81                    map_00_init
     0000251D  A$lcc1877269$82                    map_00_init
     0000251E  A$lcc1877269$83                    map_00_init
     0000251F  A$lcc1877269$84                    map_00_init
     00002521  A$lcc1877269$85                    map_00_init
     00002524  A$lcc1877269$86                    map_00_init
     00002527  A$lcc1877269$94                    map_00_init
     00002527  C$map_00_init.c$28$1_0$173         map_00_init
     00002527  XG$hello_event$0$0                 map_00_init
     00002528  A$lcc1877269$107                   map_00_init
     00002528  C$map_00_init.c$30$1_0$176         map_00_init
     00002528  C$map_00_init.c$31$1_0$176         map_00_init
     00002528  G$Map_00_Init$0$0                  map_00_init
     00002528  _Map_00_Init                       map_00_init
     00002529  A$lcc1877269$108                   map_00_init
     0000252C  A$lcc1877269$109                   map_00_init
     0000252D  A$lcc1877269$113                   map_00_init
     0000252D  C$map_00_init.c$33$1_0$176         map_00_init
     00002530  A$lcc1877269$114                   map_00_init
     00002533  A$lcc1877269$115                   map_00_init
     00002534  A$lcc1877269$119                   map_00_init
     00002534  C$map_00_init.c$34$1_0$176         map_00_init
     00002537  A$lcc1877269$120                   map_00_init
     00002539  A$lcc1877269$121                   map_00_init
     0000253A  A$lcc1877269$122                   map_00_init
     0000253C  A$lcc1877269$126                   map_00_init
     0000253C  C$map_00_init.c$35$1_0$176         map_00_init
     0000253F  A$lcc1877269$127                   map_00_init
     00002541  A$lcc1877269$131                   map_00_init
     00002541  C$map_00_init.c$36$1_0$176         map_00_init
     00002542  A$lcc1877269$132                   map_00_init
     00002543  A$lcc1877269$133                   map_00_init
     00002545  A$lcc1877269$137                   map_00_init
     00002545  C$map_00_init.c$38$1_0$176         map_00_init
     00002548  A$lcc1877269$138                   map_00_init
     0000254A  A$lcc1877269$142                   map_00_init
     0000254A  C$map_00_init.c$39$1_0$176         map_00_init
     0000254D  A$lcc1877269$143                   map_00_init
     0000254F  A$lcc1877269$144                   map_00_init
     00002550  A$lcc1877269$145                   map_00_init
     00002552  A$lcc1877269$149                   map_00_init
ASxxxx Linker V03.00/V05.40 + sdld,  page 103.
Hexadecimal  [32-Bits]

Area                                    Addr        Size        Decimal Bytes (Attributes)
--------------------------------        ----        ----        ------- ----- ------------
_CODE                               00000200    00002F3E =       12094. bytes (REL,CON)

      Value  Global                              Global Defined In Module
      -----  --------------------------------   ------------------------
     00002552  C$map_00_init.c$40$1_0$176         map_00_init
     00002555  A$lcc1877269$150                   map_00_init
     00002557  A$lcc1877269$154                   map_00_init
     00002557  C$map_00_init.c$42$1_0$176         map_00_init
     0000255A  A$lcc1877269$155                   map_00_init
     0000255B  A$lcc1877269$156                   map_00_init
     0000255D  A$lcc1877269$157                   map_00_init
     0000255E  A$lcc1877269$158                   map_00_init
     00002560  A$lcc1877269$162                   map_00_init
     00002560  C$map_00_init.c$44$1_0$176         map_00_init
     00002561  A$lcc1877269$163                   map_00_init
     00002562  A$lcc1877269$164                   map_00_init
     00002565  A$lcc1877269$168                   map_00_init
     00002565  C$map_00_init.c$45$1_0$176         map_00_init
     00002568  A$lcc1877269$172                   map_00_init
     00002568  C$map_00_init.c$47$1_0$176         map_00_init
     0000256B  A$lcc1877269$173                   map_00_init
     0000256C  A$lcc1877269$174                   map_00_init
     0000256F  A$lcc1877269$175                   map_00_init
     00002570  A$lcc1877269$176                   map_00_init
     00002573  A$lcc1877269$177                   map_00_init
     00002575  A$lcc1877269$181                   map_00_init
     00002575  C$map_00_init.c$48$1_0$176         map_00_init
     00002578  A$lcc1877269$182                   map_00_init
     00002579  A$lcc1877269$183                   map_00_init
     0000257C  A$lcc1877269$184                   map_00_init
     0000257D  A$lcc1877269$185                   map_00_init
     0000257E  A$lcc1877269$186                   map_00_init
     0000257F  A$lcc1877269$187                   map_00_init
     00002580  A$lcc1877269$188                   map_00_init
     00002583  A$lcc1877269$189                   map_00_init
     00002585  A$lcc1877269$193                   map_00_init
     00002585  C$map_00_init.c$50$1_0$176         map_00_init
     00002588  A$lcc1877269$194                   map_00_init
     0000258B  A$lcc1877269$198                   map_00_init
     0000258B  C$map_00_init.c$51$1_0$176         map_00_init
     0000258E  A$lcc1877269$206                   map_00_init
     0000258E  C$map_00_init.c$52$1_0$176         map_00_init
     0000258E  XG$Map_00_Init$0$0                 map_00_init
     00002591  A$lcc1877270$56                    map_00_init_dialogues
     00002591  C$map_00_init_dialogues.c$11$1_0   map_00_init_dialogues
     00002591  C$map_00_init_dialogues.c$9$0_0$   map_00_init_dialogues
     00002591  G$Map_00_InitDialogues$0$0         map_00_init_dialogues
     00002591  _Map_00_InitDialogues              map_00_init_dialogues
     00002594  A$lcc1877270$57                    map_00_init_dialogues
     00002596  A$lcc1877270$58                    map_00_init_dialogues
     00002597  A$lcc1877270$59                    map_00_init_dialogues
     00002599  A$lcc1877270$67                    map_00_init_dialogues
     00002599  C$map_00_init_dialogues.c$12$1_0   map_00_init_dialogues
     00002599  XG$Map_00_InitDialogues$0$0        map_00_init_dialogues
     0000259A  G$dialogue_00$0_0$0                map_00_init_dialogues
ASxxxx Linker V03.00/V05.40 + sdld,  page 104.
Hexadecimal  [32-Bits]

Area                                    Addr        Size        Decimal Bytes (Attributes)
--------------------------------        ----        ----        ------- ----- ------------
_CODE                               00000200    00002F3E =       12094. bytes (REL,CON)

      Value  Global                              Global Defined In Module
      -----  --------------------------------   ------------------------
     0000259A  _dialogue_00                       map_00_init_dialogues
     000026DE  A$lcc1877271$53                    map_00_init_npc
     000026DE  C$map_00_init_npc.c$12$0_0$168     map_00_init_npc
     000026DE  G$Map_00_NPC_Init$0$0              map_00_init_npc
     000026DE  _Map_00_NPC_Init                   map_00_init_npc
     000026E0  A$lcc1877271$57                    map_00_init_npc
     000026E0  C$map_00_init_npc.c$14$1_0$168     map_00_init_npc
     000026E3  A$lcc1877271$58                    map_00_init_npc
     000026E4  A$lcc1877271$59                    map_00_init_npc
     000026E6  A$lcc1877271$60                    map_00_init_npc
     000026E9  A$lcc1877271$61                    map_00_init_npc
     000026EA  A$lcc1877271$62                    map_00_init_npc
     000026EC  A$lcc1877271$66                    map_00_init_npc
     000026EC  C$map_00_init_npc.c$15$1_0$168     map_00_init_npc
     000026EF  A$lcc1877271$67                    map_00_init_npc
     000026F0  A$lcc1877271$68                    map_00_init_npc
     000026F2  A$lcc1877271$69                    map_00_init_npc
     000026F5  A$lcc1877271$70                    map_00_init_npc
     000026F6  A$lcc1877271$71                    map_00_init_npc
     000026F8  A$lcc1877271$75                    map_00_init_npc
     000026F8  C$map_00_init_npc.c$17$2_0$169     map_00_init_npc
     000026FA  A$lcc1877271$76                    map_00_init_npc
     000026FC  A$lcc1877271$77                    map_00_init_npc
     000026FD  A$lcc1877271$78                    map_00_init_npc
     000026FF  A$lcc1877271$79                    map_00_init_npc
     00002700  A$lcc1877271$80                    map_00_init_npc
     00002702  A$lcc1877271$81                    map_00_init_npc
     00002703  A$lcc1877271$82                    map_00_init_npc
     00002705  A$lcc1877271$83                    map_00_init_npc
     00002706  A$lcc1877271$84                    map_00_init_npc
     00002708  A$lcc1877271$85                    map_00_init_npc
     00002709  A$lcc1877271$86                    map_00_init_npc
     0000270A  A$lcc1877271$87                    map_00_init_npc
     0000270B  A$lcc1877271$88                    map_00_init_npc
     0000270C  A$lcc1877271$89                    map_00_init_npc
     0000270D  A$lcc1877271$90                    map_00_init_npc
     0000270E  A$lcc1877271$91                    map_00_init_npc
     0000270F  A$lcc1877271$95                    map_00_init_npc
     00002712  A$lcc1877271$96                    map_00_init_npc
     00002713  A$lcc1877271$98                    map_00_init_npc
     00002716  A$lcc1877271$99                    map_00_init_npc
     00002717  A$lcc1877271$100                   map_00_init_npc
     00002718  A$lcc1877271$101                   map_00_init_npc
     00002719  A$lcc1877271$102                   map_00_init_npc
     0000271B  A$lcc1877271$103                   map_00_init_npc
     0000271C  A$lcc1877271$104                   map_00_init_npc
     0000271D  A$lcc1877271$105                   map_00_init_npc
     0000271F  A$lcc1877271$109                   map_00_init_npc
     0000271F  C$map_00_init_npc.c$19$2_1$170     map_00_init_npc
     00002722  A$lcc1877271$110                   map_00_init_npc
     00002723  A$lcc1877271$111                   map_00_init_npc
ASxxxx Linker V03.00/V05.40 + sdld,  page 105.
Hexadecimal  [32-Bits]

Area                                    Addr        Size        Decimal Bytes (Attributes)
--------------------------------        ----        ----        ------- ----- ------------
_CODE                               00000200    00002F3E =       12094. bytes (REL,CON)

      Value  Global                              Global Defined In Module
      -----  --------------------------------   ------------------------
     00002725  A$lcc1877271$112                   map_00_init_npc
     00002726  A$lcc1877271$113                   map_00_init_npc
     00002727  A$lcc1877271$114                   map_00_init_npc
     00002728  A$lcc1877271$115                   map_00_init_npc
     00002729  A$lcc1877271$116                   map_00_init_npc
     0000272A  A$lcc1877271$117                   map_00_init_npc
     0000272B  A$lcc1877271$118                   map_00_init_npc
     0000272C  A$lcc1877271$119                   map_00_init_npc
     0000272D  A$lcc1877271$120                   map_00_init_npc
     0000272F  A$lcc1877271$121                   map_00_init_npc
     00002730  A$lcc1877271$122                   map_00_init_npc
     00002731  A$lcc1877271$123                   map_00_init_npc
     00002732  A$lcc1877271$124                   map_00_init_npc
     00002734  A$lcc1877271$125                   map_00_init_npc
     00002735  A$lcc1877271$126                   map_00_init_npc
     00002736  A$lcc1877271$127                   map_00_init_npc
     00002737  A$lcc1877271$128                   map_00_init_npc
     00002738  A$lcc1877271$129                   map_00_init_npc
     0000273B  A$lcc1877271$130                   map_00_init_npc
     0000273C  A$lcc1877271$131                   map_00_init_npc
     0000273D  A$lcc1877271$132                   map_00_init_npc
     0000273E  A$lcc1877271$133                   map_00_init_npc
     00002740  A$lcc1877271$134                   map_00_init_npc
     00002741  A$lcc1877271$135                   map_00_init_npc
     00002742  A$lcc1877271$136                   map_00_init_npc
     00002743  A$lcc1877271$140                   map_00_init_npc
     00002743  C$map_00_init_npc.c$18$2_1$170     map_00_init_npc
     00002744  A$lcc1877271$141                   map_00_init_npc
     00002746  A$lcc1877271$146                   map_00_init_npc
     00002746  C$map_00_init_npc.c$21$1_1$169     map_00_init_npc
     00002749  A$lcc1877271$147                   map_00_init_npc
     0000274A  A$lcc1877271$148                   map_00_init_npc
     0000274B  A$lcc1877271$149                   map_00_init_npc
     0000274D  A$lcc1877271$150                   map_00_init_npc
     00002750  A$lcc1877271$151                   map_00_init_npc
     00002751  A$lcc1877271$152                   map_00_init_npc
     00002754  A$lcc1877271$153                   map_00_init_npc
     00002756  A$lcc1877271$154                   map_00_init_npc
     00002757  A$lcc1877271$155                   map_00_init_npc
     00002759  A$lcc1877271$156                   map_00_init_npc
     0000275B  A$lcc1877271$157                   map_00_init_npc
     0000275C  A$lcc1877271$158                   map_00_init_npc
     0000275D  A$lcc1877271$159                   map_00_init_npc
     0000275E  A$lcc1877271$160                   map_00_init_npc
     0000275F  A$lcc1877271$161                   map_00_init_npc
     00002760  A$lcc1877271$162                   map_00_init_npc
     00002761  A$lcc1877271$166                   map_00_init_npc
     00002761  C$map_00_init_npc.c$22$1_1$169     map_00_init_npc
     00002764  A$lcc1877271$167                   map_00_init_npc
     00002765  A$lcc1877271$168                   map_00_init_npc
     00002766  A$lcc1877271$169                   map_00_init_npc
ASxxxx Linker V03.00/V05.40 + sdld,  page 106.
Hexadecimal  [32-Bits]

Area                                    Addr        Size        Decimal Bytes (Attributes)
--------------------------------        ----        ----        ------- ----- ------------
_CODE                               00000200    00002F3E =       12094. bytes (REL,CON)

      Value  Global                              Global Defined In Module
      -----  --------------------------------   ------------------------
     00002768  A$lcc1877271$170                   map_00_init_npc
     0000276B  A$lcc1877271$171                   map_00_init_npc
     0000276C  A$lcc1877271$172                   map_00_init_npc
     0000276F  A$lcc1877271$173                   map_00_init_npc
     00002771  A$lcc1877271$174                   map_00_init_npc
     00002772  A$lcc1877271$175                   map_00_init_npc
     00002774  A$lcc1877271$176                   map_00_init_npc
     00002776  A$lcc1877271$177                   map_00_init_npc
     00002777  A$lcc1877271$178                   map_00_init_npc
     00002778  A$lcc1877271$179                   map_00_init_npc
     00002779  A$lcc1877271$180                   map_00_init_npc
     0000277A  A$lcc1877271$181                   map_00_init_npc
     0000277B  A$lcc1877271$182                   map_00_init_npc
     0000277C  A$lcc1877271$186                   map_00_init_npc
     0000277C  C$map_00_init_npc.c$24$1_1$169     map_00_init_npc
     0000277F  A$lcc1877271$187                   map_00_init_npc
     00002780  A$lcc1877271$188                   map_00_init_npc
     00002782  A$lcc1877271$189                   map_00_init_npc
     00002785  A$lcc1877271$190                   map_00_init_npc
     00002786  A$lcc1877271$191                   map_00_init_npc
     00002788  A$lcc1877271$195                   map_00_init_npc
     00002788  C$map_00_init_npc.c$25$1_1$169     map_00_init_npc
     0000278B  A$lcc1877271$196                   map_00_init_npc
     0000278C  A$lcc1877271$197                   map_00_init_npc
     0000278E  A$lcc1877271$198                   map_00_init_npc
     00002791  A$lcc1877271$199                   map_00_init_npc
     00002792  A$lcc1877271$200                   map_00_init_npc
     00002794  A$lcc1877271$204                   map_00_init_npc
     00002794  C$map_00_init_npc.c$26$1_1$169     map_00_init_npc
     00002797  A$lcc1877271$205                   map_00_init_npc
     00002798  A$lcc1877271$206                   map_00_init_npc
     0000279A  A$lcc1877271$207                   map_00_init_npc
     0000279D  A$lcc1877271$208                   map_00_init_npc
     0000279E  A$lcc1877271$209                   map_00_init_npc
     000027A0  A$lcc1877271$213                   map_00_init_npc
     000027A0  C$map_00_init_npc.c$29$2_1$171     map_00_init_npc
     000027A2  A$lcc1877271$214                   map_00_init_npc
     000027A4  A$lcc1877271$215                   map_00_init_npc
     000027A5  A$lcc1877271$216                   map_00_init_npc
     000027A7  A$lcc1877271$217                   map_00_init_npc
     000027A8  A$lcc1877271$218                   map_00_init_npc
     000027AA  A$lcc1877271$219                   map_00_init_npc
     000027AB  A$lcc1877271$220                   map_00_init_npc
     000027AD  A$lcc1877271$221                   map_00_init_npc
     000027AE  A$lcc1877271$222                   map_00_init_npc
     000027B0  A$lcc1877271$223                   map_00_init_npc
     000027B1  A$lcc1877271$224                   map_00_init_npc
     000027B3  A$lcc1877271$225                   map_00_init_npc
     000027B4  A$lcc1877271$226                   map_00_init_npc
     000027B6  A$lcc1877271$227                   map_00_init_npc
     000027B7  A$lcc1877271$228                   map_00_init_npc
ASxxxx Linker V03.00/V05.40 + sdld,  page 107.
Hexadecimal  [32-Bits]

Area                                    Addr        Size        Decimal Bytes (Attributes)
--------------------------------        ----        ----        ------- ----- ------------
_CODE                               00000200    00002F3E =       12094. bytes (REL,CON)

      Value  Global                              Global Defined In Module
      -----  --------------------------------   ------------------------
     000027B9  A$lcc1877271$232                   map_00_init_npc
     000027B9  C$map_00_init_npc.c$35$1_2$171     map_00_init_npc
     000027BC  A$lcc1877271$233                   map_00_init_npc
     000027BD  A$lcc1877271$234                   map_00_init_npc
     000027BF  A$lcc1877271$235                   map_00_init_npc
     000027C0  A$lcc1877271$236                   map_00_init_npc
     000027C1  A$lcc1877271$237                   map_00_init_npc
     000027C2  A$lcc1877271$238                   map_00_init_npc
     000027C3  A$lcc1877271$239                   map_00_init_npc
     000027C4  A$lcc1877271$240                   map_00_init_npc
     000027C5  A$lcc1877271$241                   map_00_init_npc
     000027C6  A$lcc1877271$242                   map_00_init_npc
     000027C7  A$lcc1877271$243                   map_00_init_npc
     000027C8  A$lcc1877271$244                   map_00_init_npc
     000027CB  A$lcc1877271$245                   map_00_init_npc
     000027CC  A$lcc1877271$246                   map_00_init_npc
     000027CD  A$lcc1877271$247                   map_00_init_npc
     000027CE  A$lcc1877271$248                   map_00_init_npc
     000027D1  A$lcc1877271$249                   map_00_init_npc
     000027D2  A$lcc1877271$250                   map_00_init_npc
     000027D4  A$lcc1877271$251                   map_00_init_npc
     000027D5  A$lcc1877271$252                   map_00_init_npc
     000027D6  A$lcc1877271$253                   map_00_init_npc
     000027D9  A$lcc1877271$254                   map_00_init_npc
     000027DA  A$lcc1877271$255                   map_00_init_npc
     000027DB  A$lcc1877271$256                   map_00_init_npc
     000027DC  A$lcc1877271$257                   map_00_init_npc
     000027DD  A$lcc1877271$258                   map_00_init_npc
     000027DE  A$lcc1877271$259                   map_00_init_npc
     000027E1  A$lcc1877271$260                   map_00_init_npc
     000027E4  A$lcc1877271$264                   map_00_init_npc
     000027E6  A$lcc1877271$269                   map_00_init_npc
     000027E6  C$map_00_init_npc.c$36$1_2$168     map_00_init_npc
     000027E6  XG$Map_00_NPC_Init$0$0             map_00_init_npc
     000027E7  A$lcc1877272$59                    map_00_update
     000027E7  C$map_00_update.c$18$0_0$185       map_00_update
     000027E7  G$Map_00_Update$0$0                map_00_update
     000027E7  _Map_00_Update                     map_00_update
     000027E9  A$lcc1877272$60                    map_00_update
     000027EB  A$lcc1877272$61                    map_00_update
     000027EC  A$lcc1877272$62                    map_00_update
     000027ED  A$lcc1877272$63                    map_00_update
     000027EE  A$lcc1877272$67                    map_00_update
     000027EE  C$map_00_update.c$19$1_0$185       map_00_update
     000027F1  A$lcc1877272$71                    map_00_update
     000027F1  C$map_00_update.c$20$1_0$185       map_00_update
     000027F4  A$lcc1877272$75                    map_00_update
     000027F4  C$map_00_update.c$22$1_1$186       map_00_update
     000027F6  A$lcc1877272$76                    map_00_update
     000027F7  A$lcc1877272$77                    map_00_update
     000027F8  A$lcc1877272$78                    map_00_update
ASxxxx Linker V03.00/V05.40 + sdld,  page 108.
Hexadecimal  [32-Bits]

Area                                    Addr        Size        Decimal Bytes (Attributes)
--------------------------------        ----        ----        ------- ----- ------------
_CODE                               00000200    00002F3E =       12094. bytes (REL,CON)

      Value  Global                              Global Defined In Module
      -----  --------------------------------   ------------------------
     000027F9  A$lcc1877272$79                    map_00_update
     000027FC  A$lcc1877272$80                    map_00_update
     000027FD  A$lcc1877272$81                    map_00_update
     000027FE  A$lcc1877272$82                    map_00_update
     000027FF  A$lcc1877272$83                    map_00_update
     00002801  A$lcc1877272$84                    map_00_update
     00002802  A$lcc1877272$85                    map_00_update
     00002803  A$lcc1877272$86                    map_00_update
     00002804  A$lcc1877272$87                    map_00_update
     00002806  A$lcc1877272$88                    map_00_update
     00002807  A$lcc1877272$89                    map_00_update
     00002808  A$lcc1877272$90                    map_00_update
     00002809  A$lcc1877272$91                    map_00_update
     0000280A  A$lcc1877272$92                    map_00_update
     0000280B  A$lcc1877272$93                    map_00_update
     0000280C  A$lcc1877272$94                    map_00_update
     0000280D  A$lcc1877272$95                    map_00_update
     0000280E  A$lcc1877272$96                    map_00_update
     0000280F  A$lcc1877272$97                    map_00_update
     00002810  A$lcc1877272$98                    map_00_update
     00002811  A$lcc1877272$99                    map_00_update
     00002812  A$lcc1877272$100                   map_00_update
     00002813  A$lcc1877272$104                   map_00_update
     00002816  A$lcc1877272$105                   map_00_update
     00002817  A$lcc1877272$106                   map_00_update
     00002818  A$lcc1877272$107                   map_00_update
     00002819  A$lcc1877272$108                   map_00_update
     0000281A  A$lcc1877272$109                   map_00_update
     0000281B  A$lcc1877272$110                   map_00_update
     0000281D  A$lcc1877272$111                   map_00_update
     0000281E  A$lcc1877272$112                   map_00_update
     0000281F  A$lcc1877272$114                   map_00_update
     00002820  A$lcc1877272$115                   map_00_update
     00002821  A$lcc1877272$116                   map_00_update
     00002822  A$lcc1877272$117                   map_00_update
     00002823  A$lcc1877272$118                   map_00_update
     00002825  A$lcc1877272$119                   map_00_update
     00002827  A$lcc1877272$120                   map_00_update
     00002828  A$lcc1877272$121                   map_00_update
     00002829  A$lcc1877272$122                   map_00_update
     0000282A  A$lcc1877272$123                   map_00_update
     0000282B  A$lcc1877272$124                   map_00_update
     0000282D  A$lcc1877272$128                   map_00_update
     0000282D  C$map_00_update.c$25$3_1$188       map_00_update
     0000282E  A$lcc1877272$129                   map_00_update
     0000282F  A$lcc1877272$130                   map_00_update
     00002830  A$lcc1877272$131                   map_00_update
     00002831  A$lcc1877272$132                   map_00_update
     00002832  A$lcc1877272$133                   map_00_update
     00002833  A$lcc1877272$134                   map_00_update
     00002834  A$lcc1877272$135                   map_00_update
ASxxxx Linker V03.00/V05.40 + sdld,  page 109.
Hexadecimal  [32-Bits]

Area                                    Addr        Size        Decimal Bytes (Attributes)
--------------------------------        ----        ----        ------- ----- ------------
_CODE                               00000200    00002F3E =       12094. bytes (REL,CON)

      Value  Global                              Global Defined In Module
      -----  --------------------------------   ------------------------
     00002835  A$lcc1877272$136                   map_00_update
     00002838  A$lcc1877272$137                   map_00_update
     00002839  A$lcc1877272$141                   map_00_update
     00002839  C$map_00_update.c$24$2_1$187       map_00_update
     0000283B  A$lcc1877272$142                   map_00_update
     0000283C  A$lcc1877272$143                   map_00_update
     0000283E  A$lcc1877272$144                   map_00_update
     0000283F  A$lcc1877272$145                   map_00_update
     00002840  A$lcc1877272$146                   map_00_update
     00002842  A$lcc1877272$151                   map_00_update
     00002842  C$map_00_update.c$28$1_1$186       map_00_update
     00002843  A$lcc1877272$152                   map_00_update
     00002846  A$lcc1877272$153                   map_00_update
     00002849  A$lcc1877272$154                   map_00_update
     0000284A  A$lcc1877272$158                   map_00_update
     0000284A  C$map_00_update.c$29$1_1$186       map_00_update
     0000284B  A$lcc1877272$159                   map_00_update
     0000284C  A$lcc1877272$160                   map_00_update
     0000284D  A$lcc1877272$161                   map_00_update
     0000284E  A$lcc1877272$162                   map_00_update
     0000284F  A$lcc1877272$163                   map_00_update
     00002850  A$lcc1877272$164                   map_00_update
     00002851  A$lcc1877272$165                   map_00_update
     00002854  A$lcc1877272$169                   map_00_update
     00002854  C$map_00_update.c$31$1_1$186       map_00_update
     00002856  A$lcc1877272$170                   map_00_update
     00002857  A$lcc1877272$171                   map_00_update
     00002858  A$lcc1877272$172                   map_00_update
     00002859  A$lcc1877272$173                   map_00_update
     0000285C  A$lcc1877272$174                   map_00_update
     0000285D  A$lcc1877272$178                   map_00_update
     0000285D  C$map_00_update.c$33$2_1$189       map_00_update
     00002860  A$lcc1877272$179                   map_00_update
     00002861  A$lcc1877272$180                   map_00_update
     00002862  A$lcc1877272$181                   map_00_update
     00002863  A$lcc1877272$182                   map_00_update
     00002865  A$lcc1877272$183                   map_00_update
     00002868  A$lcc1877272$184                   map_00_update
     00002869  A$lcc1877272$188                   map_00_update
     00002869  C$map_00_update.c$34$2_1$189       map_00_update
     0000286B  A$lcc1877272$192                   map_00_update
     0000286B  C$map_00_update.c$36$2_1$190       map_00_update
     0000286E  A$lcc1877272$193                   map_00_update
     00002870  A$lcc1877272$194                   map_00_update
     00002872  A$lcc1877272$195                   map_00_update
     00002875  A$lcc1877272$196                   map_00_update
     00002877  A$lcc1877272$197                   map_00_update
     00002879  A$lcc1877272$201                   map_00_update
     00002879  C$map_00_update.c$37$3_1$191       map_00_update
     0000287B  A$lcc1877272$202                   map_00_update
     0000287E  A$lcc1877272$203                   map_00_update
ASxxxx Linker V03.00/V05.40 + sdld,  page 110.
Hexadecimal  [32-Bits]

Area                                    Addr        Size        Decimal Bytes (Attributes)
--------------------------------        ----        ----        ------- ----- ------------
_CODE                               00000200    00002F3E =       12094. bytes (REL,CON)

      Value  Global                              Global Defined In Module
      -----  --------------------------------   ------------------------
     0000287F  A$lcc1877272$204                   map_00_update
     00002881  A$lcc1877272$208                   map_00_update
     00002881  C$map_00_update.c$38$3_1$191       map_00_update
     00002883  A$lcc1877272$209                   map_00_update
     00002884  A$lcc1877272$210                   map_00_update
     00002885  A$lcc1877272$214                   map_00_update
     00002885  C$map_00_update.c$40$5_1$193       map_00_update
     00002888  A$lcc1877272$216                   map_00_update
     00002889  A$lcc1877272$217                   map_00_update
     0000288B  A$lcc1877272$218                   map_00_update
     0000288D  A$lcc1877272$222                   map_00_update
     0000288D  C$map_00_update.c$41$5_1$193       map_00_update
     0000288E  A$lcc1877272$223                   map_00_update
     00002891  A$lcc1877272$224                   map_00_update
     00002892  A$lcc1877272$225                   map_00_update
     00002893  A$lcc1877272$226                   map_00_update
     00002896  A$lcc1877272$227                   map_00_update
     00002897  A$lcc1877272$228                   map_00_update
     00002898  A$lcc1877272$229                   map_00_update
     0000289B  A$lcc1877272$230                   map_00_update
     0000289C  A$lcc1877272$234                   map_00_update
     0000289C  C$map_00_update.c$42$5_1$193       map_00_update
     0000289D  A$lcc1877272$235                   map_00_update
     0000289E  A$lcc1877272$236                   map_00_update
     0000289F  A$lcc1877272$237                   map_00_update
     000028A0  A$lcc1877272$238                   map_00_update
     000028A3  A$lcc1877272$239                   map_00_update
     000028A4  A$lcc1877272$240                   map_00_update
     000028A5  A$lcc1877272$241                   map_00_update
     000028A6  A$lcc1877272$242                   map_00_update
     000028A8  A$lcc1877272$243                   map_00_update
     000028A9  A$lcc1877272$244                   map_00_update
     000028AA  A$lcc1877272$245                   map_00_update
     000028AC  A$lcc1877272$246                   map_00_update
     000028AD  A$lcc1877272$247                   map_00_update
     000028AE  A$lcc1877272$248                   map_00_update
     000028AF  A$lcc1877272$252                   map_00_update
     000028AF  C$map_00_update.c$40$4_1$192       map_00_update
     000028B0  A$lcc1877272$253                   map_00_update
     000028B2  A$lcc1877272$258                   map_00_update
     000028B2  C$map_00_update.c$45$3_1$191       map_00_update
     000028B5  A$lcc1877272$262                   map_00_update
     000028B5  C$map_00_update.c$47$3_1$191       map_00_update
     000028B8  A$lcc1877272$263                   map_00_update
     000028B9  A$lcc1877272$264                   map_00_update
     000028BA  A$lcc1877272$265                   map_00_update
     000028BB  A$lcc1877272$266                   map_00_update
     000028BE  A$lcc1877272$267                   map_00_update
     000028C0  A$lcc1877272$268                   map_00_update
     000028C1  A$lcc1877272$269                   map_00_update
     000028C2  A$lcc1877272$270                   map_00_update
ASxxxx Linker V03.00/V05.40 + sdld,  page 111.
Hexadecimal  [32-Bits]

Area                                    Addr        Size        Decimal Bytes (Attributes)
--------------------------------        ----        ----        ------- ----- ------------
_CODE                               00000200    00002F3E =       12094. bytes (REL,CON)

      Value  Global                              Global Defined In Module
      -----  --------------------------------   ------------------------
     000028C5  A$lcc1877272$279                   map_00_update
     000028C5  C$map_00_update.c$50$1_1$186       map_00_update
     000028C7  A$lcc1877272$284                   map_00_update
     000028C7  C$map_00_update.c$51$1_1$185       map_00_update
     000028C7  XG$Map_00_Update$0$0               map_00_update
     000028C8  A$lcc1877273$58                    mg_instruction_set
     000028C8  C$mg_instruction_set.c$11$0_0$12   mg_instruction_set
     000028C8  G$Mg_InstructionSet$0$0            mg_instruction_set
     000028C8  _Mg_InstructionSet                 mg_instruction_set
     000028CA  A$lcc1877273$59                    mg_instruction_set
     000028CC  A$lcc1877273$60                    mg_instruction_set
     000028CD  A$lcc1877273$61                    mg_instruction_set
     000028CE  A$lcc1877273$62                    mg_instruction_set
     000028CF  A$lcc1877273$63                    mg_instruction_set
     000028D0  A$lcc1877273$64                    mg_instruction_set
     000028D1  A$lcc1877273$65                    mg_instruction_set
     000028D2  A$lcc1877273$69                    mg_instruction_set
     000028D2  C$mg_instruction_set.c$13$2_0$12   mg_instruction_set
     000028D4  A$lcc1877273$70                    mg_instruction_set
     000028D5  A$lcc1877273$74                    mg_instruction_set
     000028D5  C$mg_instruction_set.c$14$1_0$12   mg_instruction_set
     000028D7  A$lcc1877273$75                    mg_instruction_set
     000028D9  A$lcc1877273$76                    mg_instruction_set
     000028DC  A$lcc1877273$77                    mg_instruction_set
     000028DE  A$lcc1877273$81                    mg_instruction_set
     000028DE  C$mg_instruction_set.c$16$1_0$12   mg_instruction_set
     000028E1  A$lcc1877273$82                    mg_instruction_set
     000028E2  A$lcc1877273$83                    mg_instruction_set
     000028E5  A$lcc1877273$84                    mg_instruction_set
     000028E6  A$lcc1877273$85                    mg_instruction_set
     000028E9  A$lcc1877273$86                    mg_instruction_set
     000028EB  A$lcc1877273$90                    mg_instruction_set
     000028EB  C$mg_instruction_set.c$17$1_0$12   mg_instruction_set
     000028EE  A$lcc1877273$91                    mg_instruction_set
     000028EF  A$lcc1877273$92                    mg_instruction_set
     000028F2  A$lcc1877273$93                    mg_instruction_set
     000028F3  A$lcc1877273$94                    mg_instruction_set
     000028F4  A$lcc1877273$95                    mg_instruction_set
     000028F5  A$lcc1877273$96                    mg_instruction_set
     000028F6  A$lcc1877273$97                    mg_instruction_set
     000028F9  A$lcc1877273$98                    mg_instruction_set
     000028FB  A$lcc1877273$102                   mg_instruction_set
     000028FB  C$mg_instruction_set.c$19$1_0$12   mg_instruction_set
     000028FC  A$lcc1877273$103                   mg_instruction_set
     000028FE  A$lcc1877273$104                   mg_instruction_set
     00002901  A$lcc1877273$105                   mg_instruction_set
     00002902  A$lcc1877273$109                   mg_instruction_set
     00002902  C$mg_instruction_set.c$21$1_2$12   mg_instruction_set
     00002904  A$lcc1877273$110                   mg_instruction_set
     00002906  A$lcc1877273$112                   mg_instruction_set
     00002908  A$lcc1877273$113                   mg_instruction_set
ASxxxx Linker V03.00/V05.40 + sdld,  page 112.
Hexadecimal  [32-Bits]

Area                                    Addr        Size        Decimal Bytes (Attributes)
--------------------------------        ----        ----        ------- ----- ------------
_CODE                               00000200    00002F3E =       12094. bytes (REL,CON)

      Value  Global                              Global Defined In Module
      -----  --------------------------------   ------------------------
     00002909  A$lcc1877273$114                   mg_instruction_set
     0000290B  A$lcc1877273$115                   mg_instruction_set
     0000290C  A$lcc1877273$116                   mg_instruction_set
     0000290F  A$lcc1877273$120                   mg_instruction_set
     0000290F  C$mg_instruction_set.c$23$4_0$13   mg_instruction_set
     00002911  A$lcc1877273$121                   mg_instruction_set
     00002913  A$lcc1877273$125                   mg_instruction_set
     00002913  C$mg_instruction_set.c$24$1_2$12   mg_instruction_set
     00002915  A$lcc1877273$126                   mg_instruction_set
     00002916  A$lcc1877273$127                   mg_instruction_set
     00002918  A$lcc1877273$128                   mg_instruction_set
     00002919  A$lcc1877273$129                   mg_instruction_set
     0000291A  A$lcc1877273$130                   mg_instruction_set
     0000291B  A$lcc1877273$131                   mg_instruction_set
     0000291C  A$lcc1877273$132                   mg_instruction_set
     0000291D  A$lcc1877273$133                   mg_instruction_set
     0000291E  A$lcc1877273$134                   mg_instruction_set
     00002920  A$lcc1877273$135                   mg_instruction_set
     00002921  A$lcc1877273$136                   mg_instruction_set
     00002922  A$lcc1877273$137                   mg_instruction_set
     00002923  A$lcc1877273$138                   mg_instruction_set
     00002925  A$lcc1877273$139                   mg_instruction_set
     00002926  A$lcc1877273$140                   mg_instruction_set
     00002927  A$lcc1877273$141                   mg_instruction_set
     00002928  A$lcc1877273$142                   mg_instruction_set
     00002929  A$lcc1877273$143                   mg_instruction_set
     0000292B  A$lcc1877273$144                   mg_instruction_set
     0000292C  A$lcc1877273$145                   mg_instruction_set
     0000292D  A$lcc1877273$146                   mg_instruction_set
     0000292E  A$lcc1877273$147                   mg_instruction_set
     0000292F  A$lcc1877273$148                   mg_instruction_set
     00002930  A$lcc1877273$149                   mg_instruction_set
     00002931  A$lcc1877273$150                   mg_instruction_set
     00002932  A$lcc1877273$151                   mg_instruction_set
     00002933  A$lcc1877273$152                   mg_instruction_set
     00002934  A$lcc1877273$153                   mg_instruction_set
     00002936  A$lcc1877273$154                   mg_instruction_set
     00002937  A$lcc1877273$155                   mg_instruction_set
     00002938  A$lcc1877273$156                   mg_instruction_set
     00002939  A$lcc1877273$157                   mg_instruction_set
     0000293A  A$lcc1877273$161                   mg_instruction_set
     0000293A  C$mg_instruction_set.c$25$1_2$12   mg_instruction_set
     0000293C  A$lcc1877273$162                   mg_instruction_set
     0000293E  A$lcc1877273$167                   mg_instruction_set
     0000293E  C$mg_instruction_set.c$28$1_2$12   mg_instruction_set
     00002940  A$lcc1877273$168                   mg_instruction_set
     00002941  A$lcc1877273$169                   mg_instruction_set
     00002943  A$lcc1877273$170                   mg_instruction_set
     00002944  A$lcc1877273$171                   mg_instruction_set
     00002945  A$lcc1877273$172                   mg_instruction_set
     00002946  A$lcc1877273$173                   mg_instruction_set
ASxxxx Linker V03.00/V05.40 + sdld,  page 113.
Hexadecimal  [32-Bits]

Area                                    Addr        Size        Decimal Bytes (Attributes)
--------------------------------        ----        ----        ------- ----- ------------
_CODE                               00000200    00002F3E =       12094. bytes (REL,CON)

      Value  Global                              Global Defined In Module
      -----  --------------------------------   ------------------------
     00002947  A$lcc1877273$174                   mg_instruction_set
     00002948  A$lcc1877273$178                   mg_instruction_set
     0000294A  A$lcc1877273$179                   mg_instruction_set
     0000294B  A$lcc1877273$180                   mg_instruction_set
     0000294D  A$lcc1877273$181                   mg_instruction_set
     0000294F  A$lcc1877273$182                   mg_instruction_set
     00002950  A$lcc1877273$183                   mg_instruction_set
     00002952  A$lcc1877273$184                   mg_instruction_set
     00002953  A$lcc1877273$185                   mg_instruction_set
     00002954  A$lcc1877273$186                   mg_instruction_set
     00002955  A$lcc1877273$187                   mg_instruction_set
     00002957  A$lcc1877273$188                   mg_instruction_set
     00002958  A$lcc1877273$189                   mg_instruction_set
     0000295A  A$lcc1877273$190                   mg_instruction_set
     0000295B  A$lcc1877273$191                   mg_instruction_set
     0000295C  A$lcc1877273$192                   mg_instruction_set
     0000295D  A$lcc1877273$193                   mg_instruction_set
     0000295E  A$lcc1877273$194                   mg_instruction_set
     0000295F  A$lcc1877273$195                   mg_instruction_set
     00002960  A$lcc1877273$196                   mg_instruction_set
     00002962  A$lcc1877273$200                   mg_instruction_set
     00002962  C$mg_instruction_set.c$27$5_0$13   mg_instruction_set
     00002963  A$lcc1877273$201                   mg_instruction_set
     00002966  A$lcc1877273$202                   mg_instruction_set
     00002967  A$lcc1877273$203                   mg_instruction_set
     00002968  A$lcc1877273$204                   mg_instruction_set
     0000296A  A$lcc1877273$205                   mg_instruction_set
     0000296B  A$lcc1877273$209                   mg_instruction_set
     0000296B  C$mg_instruction_set.c$28$5_0$13   mg_instruction_set
     0000296D  A$lcc1877273$210                   mg_instruction_set
     0000296E  A$lcc1877273$211                   mg_instruction_set
     0000296F  A$lcc1877273$212                   mg_instruction_set
     00002970  A$lcc1877273$213                   mg_instruction_set
     00002971  A$lcc1877273$214                   mg_instruction_set
     00002972  A$lcc1877273$215                   mg_instruction_set
     00002973  A$lcc1877273$216                   mg_instruction_set
     00002976  A$lcc1877273$217                   mg_instruction_set
     00002977  A$lcc1877273$221                   mg_instruction_set
     00002977  C$mg_instruction_set.c$29$5_0$13   mg_instruction_set
     00002978  A$lcc1877273$222                   mg_instruction_set
     0000297A  A$lcc1877273$223                   mg_instruction_set
     0000297C  A$lcc1877273$224                   mg_instruction_set
     0000297D  A$lcc1877273$228                   mg_instruction_set
     0000297D  C$mg_instruction_set.c$25$4_0$13   mg_instruction_set
     0000297F  A$lcc1877273$229                   mg_instruction_set
     00002980  A$lcc1877273$230                   mg_instruction_set
     00002982  A$lcc1877273$235                   mg_instruction_set
     00002982  C$mg_instruction_set.c$32$3_1$13   mg_instruction_set
     00002983  A$lcc1877273$236                   mg_instruction_set
     00002985  A$lcc1877273$237                   mg_instruction_set
     00002986  A$lcc1877273$238                   mg_instruction_set
ASxxxx Linker V03.00/V05.40 + sdld,  page 114.
Hexadecimal  [32-Bits]

Area                                    Addr        Size        Decimal Bytes (Attributes)
--------------------------------        ----        ----        ------- ----- ------------
_CODE                               00000200    00002F3E =       12094. bytes (REL,CON)

      Value  Global                              Global Defined In Module
      -----  --------------------------------   ------------------------
     00002987  A$lcc1877273$239                   mg_instruction_set
     00002988  A$lcc1877273$240                   mg_instruction_set
     0000298A  A$lcc1877273$241                   mg_instruction_set
     0000298B  A$lcc1877273$242                   mg_instruction_set
     0000298C  A$lcc1877273$243                   mg_instruction_set
     0000298D  A$lcc1877273$244                   mg_instruction_set
     0000298E  A$lcc1877273$245                   mg_instruction_set
     0000298F  A$lcc1877273$246                   mg_instruction_set
     00002990  A$lcc1877273$247                   mg_instruction_set
     00002991  A$lcc1877273$248                   mg_instruction_set
     00002992  A$lcc1877273$249                   mg_instruction_set
     00002993  A$lcc1877273$250                   mg_instruction_set
     00002994  A$lcc1877273$251                   mg_instruction_set
     00002996  A$lcc1877273$255                   mg_instruction_set
     00002996  C$mg_instruction_set.c$33$3_1$13   mg_instruction_set
     00002997  A$lcc1877273$256                   mg_instruction_set
     00002998  A$lcc1877273$257                   mg_instruction_set
     0000299A  A$lcc1877273$258                   mg_instruction_set
     0000299B  A$lcc1877273$259                   mg_instruction_set
     0000299E  A$lcc1877273$263                   mg_instruction_set
     0000299E  C$mg_instruction_set.c$21$2_0$13   mg_instruction_set
     000029A0  A$lcc1877273$264                   mg_instruction_set
     000029A1  A$lcc1877273$265                   mg_instruction_set
     000029A4  A$lcc1877273$270                   mg_instruction_set
     000029A4  C$mg_instruction_set.c$39$1_1$13   mg_instruction_set
     000029A6  A$lcc1877273$271                   mg_instruction_set
     000029A7  A$lcc1877273$272                   mg_instruction_set
     000029A8  A$lcc1877273$273                   mg_instruction_set
     000029AA  A$lcc1877273$274                   mg_instruction_set
     000029AC  A$lcc1877273$275                   mg_instruction_set
     000029AF  A$lcc1877273$279                   mg_instruction_set
     000029AF  C$mg_instruction_set.c$41$1_1$13   mg_instruction_set
     000029B0  A$lcc1877273$280                   mg_instruction_set
     000029B3  A$lcc1877273$284                   mg_instruction_set
     000029B3  C$mg_instruction_set.c$42$2_1$13   mg_instruction_set
     000029B5  A$lcc1877273$288                   mg_instruction_set
     000029B5  C$mg_instruction_set.c$43$2_1$13   mg_instruction_set
     000029B7  A$lcc1877273$296                   mg_instruction_set
     000029B7  C$mg_instruction_set.c$45$1_2$13   mg_instruction_set
     000029B7  C$mg_instruction_set.c$47$2_2$13   mg_instruction_set
     000029B8  A$lcc1877273$300                   mg_instruction_set
     000029B8  C$mg_instruction_set.c$49$3_2$13   mg_instruction_set
     000029B9  A$lcc1877273$301                   mg_instruction_set
     000029BB  A$lcc1877273$302                   mg_instruction_set
     000029BD  A$lcc1877273$306                   mg_instruction_set
     000029BD  C$mg_instruction_set.c$51$4_2$13   mg_instruction_set
     000029BF  A$lcc1877273$310                   mg_instruction_set
     000029BF  C$mg_instruction_set.c$53$5_2$14   mg_instruction_set
     000029C0  A$lcc1877273$311                   mg_instruction_set
     000029C2  A$lcc1877273$315                   mg_instruction_set
     000029C2  C$mg_instruction_set.c$55$6_2$14   mg_instruction_set
ASxxxx Linker V03.00/V05.40 + sdld,  page 115.
Hexadecimal  [32-Bits]

Area                                    Addr        Size        Decimal Bytes (Attributes)
--------------------------------        ----        ----        ------- ----- ------------
_CODE                               00000200    00002F3E =       12094. bytes (REL,CON)

      Value  Global                              Global Defined In Module
      -----  --------------------------------   ------------------------
     000029C3  A$lcc1877273$316                   mg_instruction_set
     000029C5  A$lcc1877273$317                   mg_instruction_set
     000029C6  A$lcc1877273$318                   mg_instruction_set
     000029C7  A$lcc1877273$319                   mg_instruction_set
     000029C9  A$lcc1877273$320                   mg_instruction_set
     000029CB  A$lcc1877273$321                   mg_instruction_set
     000029CE  A$lcc1877273$322                   mg_instruction_set
     000029CF  A$lcc1877273$326                   mg_instruction_set
     000029CF  C$mg_instruction_set.c$56$6_2$14   mg_instruction_set
     000029D1  A$lcc1877273$327                   mg_instruction_set
     000029D3  A$lcc1877273$332                   mg_instruction_set
     000029D3  C$mg_instruction_set.c$60$6_2$14   mg_instruction_set
     000029D4  A$lcc1877273$333                   mg_instruction_set
     000029D6  A$lcc1877273$334                   mg_instruction_set
     000029D7  A$lcc1877273$335                   mg_instruction_set
     000029D8  A$lcc1877273$336                   mg_instruction_set
     000029DA  A$lcc1877273$337                   mg_instruction_set
     000029DC  A$lcc1877273$338                   mg_instruction_set
     000029DF  A$lcc1877273$339                   mg_instruction_set
     000029E0  A$lcc1877273$343                   mg_instruction_set
     000029E0  C$mg_instruction_set.c$61$6_2$14   mg_instruction_set
     000029E2  A$lcc1877273$348                   mg_instruction_set
     000029E2  C$mg_instruction_set.c$65$2_2$13   mg_instruction_set
     000029E5  A$lcc1877273$352                   mg_instruction_set
     000029E5  C$mg_instruction_set.c$67$2_2$13   mg_instruction_set
     000029E8  A$lcc1877273$353                   mg_instruction_set
     000029EB  A$lcc1877273$357                   mg_instruction_set
     000029EB  C$mg_instruction_set.c$69$3_2$14   mg_instruction_set
     000029EE  A$lcc1877273$358                   mg_instruction_set
     000029F0  A$lcc1877273$359                   mg_instruction_set
     000029F2  A$lcc1877273$366                   mg_instruction_set
     000029F2  C$mg_instruction_set.c$70$1_2$12   mg_instruction_set
     000029F4  A$lcc1877273$371                   mg_instruction_set
     000029F4  C$mg_instruction_set.c$72$1_2$12   mg_instruction_set
     000029F4  XG$Mg_InstructionSet$0$0           mg_instruction_set
     000029F5  A$lcc1877274$76                    mg_load_screen
     000029F5  C$mg_load_screen.c$13$0_0$128      mg_load_screen
     000029F5  C$mg_load_screen.c$14$1_0$128      mg_load_screen
     000029F5  G$Mg_LoadScreenInit$0$0            mg_load_screen
     000029F5  _Mg_LoadScreenInit                 mg_load_screen
     000029F6  A$lcc1877274$77                    mg_load_screen
     000029F9  A$lcc1877274$81                    mg_load_screen
     000029F9  C$mg_load_screen.c$15$1_0$128      mg_load_screen
     000029FC  A$lcc1877274$82                    mg_load_screen
     000029FE  A$lcc1877274$86                    mg_load_screen
     000029FE  C$mg_load_screen.c$16$1_0$128      mg_load_screen
     00002A01  A$lcc1877274$87                    mg_load_screen
     00002A03  A$lcc1877274$91                    mg_load_screen
     00002A03  C$mg_load_screen.c$17$1_0$128      mg_load_screen
     00002A06  A$lcc1877274$92                    mg_load_screen
     00002A08  A$lcc1877274$96                    mg_load_screen
ASxxxx Linker V03.00/V05.40 + sdld,  page 116.
Hexadecimal  [32-Bits]

Area                                    Addr        Size        Decimal Bytes (Attributes)
--------------------------------        ----        ----        ------- ----- ------------
_CODE                               00000200    00002F3E =       12094. bytes (REL,CON)

      Value  Global                              Global Defined In Module
      -----  --------------------------------   ------------------------
     00002A08  C$mg_load_screen.c$19$2_0$129      mg_load_screen
     00002A0A  A$lcc1877274$97                    mg_load_screen
     00002A0B  A$lcc1877274$101                   mg_load_screen
     00002A0B  C$mg_load_screen.c$20$1_1$129      mg_load_screen
     00002A0D  A$lcc1877274$102                   mg_load_screen
     00002A0F  A$lcc1877274$103                   mg_load_screen
     00002A12  A$lcc1877274$104                   mg_load_screen
     00002A14  A$lcc1877274$108                   mg_load_screen
     00002A14  C$mg_load_screen.c$22$1_1$129      mg_load_screen
     00002A17  A$lcc1877274$109                   mg_load_screen
     00002A18  A$lcc1877274$110                   mg_load_screen
     00002A1B  A$lcc1877274$111                   mg_load_screen
     00002A1C  A$lcc1877274$112                   mg_load_screen
     00002A1F  A$lcc1877274$113                   mg_load_screen
     00002A21  A$lcc1877274$117                   mg_load_screen
     00002A21  C$mg_load_screen.c$23$1_1$129      mg_load_screen
     00002A24  A$lcc1877274$118                   mg_load_screen
     00002A25  A$lcc1877274$119                   mg_load_screen
     00002A28  A$lcc1877274$120                   mg_load_screen
     00002A29  A$lcc1877274$121                   mg_load_screen
     00002A2A  A$lcc1877274$122                   mg_load_screen
     00002A2B  A$lcc1877274$123                   mg_load_screen
     00002A2C  A$lcc1877274$124                   mg_load_screen
     00002A2F  A$lcc1877274$125                   mg_load_screen
     00002A31  A$lcc1877274$129                   mg_load_screen
     00002A31  C$mg_load_screen.c$25$1_1$129      mg_load_screen
     00002A32  A$lcc1877274$130                   mg_load_screen
     00002A34  A$lcc1877274$131                   mg_load_screen
     00002A37  A$lcc1877274$132                   mg_load_screen
     00002A38  A$lcc1877274$140                   mg_load_screen
     00002A38  C$mg_load_screen.c$26$1_1$128      mg_load_screen
     00002A38  XG$Mg_LoadScreenInit$0$0           mg_load_screen
     00002A39  A$lcc1877274$153                   mg_load_screen
     00002A39  C$mg_load_screen.c$28$1_1$130      mg_load_screen
     00002A39  C$mg_load_screen.c$29$2_0$130      mg_load_screen
     00002A39  G$Mg_LoadScreenUpdate$0$0          mg_load_screen
     00002A39  _Mg_LoadScreenUpdate               mg_load_screen
     00002A3B  A$lcc1877274$158                   mg_load_screen
     00002A3B  C$mg_load_screen.c$32$1_0$130      mg_load_screen
     00002A3E  A$lcc1877274$159                   mg_load_screen
     00002A3F  A$lcc1877274$160                   mg_load_screen
     00002A40  A$lcc1877274$164                   mg_load_screen
     00002A40  C$mg_load_screen.c$33$2_0$131      mg_load_screen
     00002A43  A$lcc1877274$168                   mg_load_screen
     00002A43  C$mg_load_screen.c$35$2_0$131      mg_load_screen
     00002A46  A$lcc1877274$169                   mg_load_screen
     00002A47  A$lcc1877274$173                   mg_load_screen
     00002A47  C$mg_load_screen.c$36$3_0$132      mg_load_screen
     00002A48  A$lcc1877274$174                   mg_load_screen
     00002A4B  A$lcc1877274$175                   mg_load_screen
     00002A4C  A$lcc1877274$176                   mg_load_screen
ASxxxx Linker V03.00/V05.40 + sdld,  page 117.
Hexadecimal  [32-Bits]

Area                                    Addr        Size        Decimal Bytes (Attributes)
--------------------------------        ----        ----        ------- ----- ------------
_CODE                               00000200    00002F3E =       12094. bytes (REL,CON)

      Value  Global                              Global Defined In Module
      -----  --------------------------------   ------------------------
     00002A4E  A$lcc1877274$183                   mg_load_screen
     00002A4E  C$mg_load_screen.c$37$4_0$133      mg_load_screen
     00002A4E  C$mg_load_screen.c$38$4_0$133      mg_load_screen
     00002A4F  A$lcc1877274$184                   mg_load_screen
     00002A52  A$lcc1877274$185                   mg_load_screen
     00002A55  A$lcc1877274$190                   mg_load_screen
     00002A55  C$mg_load_screen.c$42$3_1$135      mg_load_screen
     00002A57  A$lcc1877274$191                   mg_load_screen
     00002A5A  A$lcc1877274$192                   mg_load_screen
     00002A5B  A$lcc1877274$193                   mg_load_screen
     00002A5D  A$lcc1877274$197                   mg_load_screen
     00002A5D  C$mg_load_screen.c$43$3_1$135      mg_load_screen
     00002A5F  A$lcc1877274$198                   mg_load_screen
     00002A61  A$lcc1877274$203                   mg_load_screen
     00002A61  C$mg_load_screen.c$44$4_1$136      mg_load_screen
     00002A63  A$lcc1877274$204                   mg_load_screen
     00002A66  A$lcc1877274$205                   mg_load_screen
     00002A67  A$lcc1877274$206                   mg_load_screen
     00002A69  A$lcc1877274$210                   mg_load_screen
     00002A69  C$mg_load_screen.c$45$4_1$136      mg_load_screen
     00002A6B  A$lcc1877274$211                   mg_load_screen
     00002A6D  A$lcc1877274$216                   mg_load_screen
     00002A6D  C$mg_load_screen.c$46$5_1$137      mg_load_screen
     00002A6F  A$lcc1877274$217                   mg_load_screen
     00002A72  A$lcc1877274$218                   mg_load_screen
     00002A73  A$lcc1877274$219                   mg_load_screen
     00002A75  A$lcc1877274$223                   mg_load_screen
     00002A75  C$mg_load_screen.c$47$5_1$137      mg_load_screen
     00002A77  A$lcc1877274$224                   mg_load_screen
     00002A79  A$lcc1877274$229                   mg_load_screen
     00002A79  C$mg_load_screen.c$49$5_1$137      mg_load_screen
     00002A7A  A$lcc1877274$234                   mg_load_screen
     00002A7A  C$mg_load_screen.c$51$2_1$134      mg_load_screen
     00002A7C  A$lcc1877274$238                   mg_load_screen
     00002A7C  C$mg_load_screen.c$52$3_1$138      mg_load_screen
     00002A7D  A$lcc1877274$239                   mg_load_screen
     00002A7F  A$lcc1877274$243                   mg_load_screen
     00002A7F  C$mg_load_screen.c$55$2_1$134      mg_load_screen
     00002A80  A$lcc1877274$247                   mg_load_screen
     00002A80  C$mg_load_screen.c$57$2_1$134      mg_load_screen
     00002A81  A$lcc1877274$248                   mg_load_screen
     00002A82  A$lcc1877274$249                   mg_load_screen
     00002A83  A$lcc1877274$250                   mg_load_screen
     00002A85  A$lcc1877274$251                   mg_load_screen
     00002A87  A$lcc1877274$252                   mg_load_screen
     00002A8A  A$lcc1877274$253                   mg_load_screen
     00002A8B  A$lcc1877274$261                   mg_load_screen
     00002A8B  C$mg_load_screen.c$59$1_0$130      mg_load_screen
     00002A8B  XG$Mg_LoadScreenUpdate$0$0         mg_load_screen
     00002A8D  A$lcc1877275$59                    mg_mission_complete
     00002A8D  C$mg_mission_complete.c$11$0_0$1   mg_mission_complete
ASxxxx Linker V03.00/V05.40 + sdld,  page 118.
Hexadecimal  [32-Bits]

Area                                    Addr        Size        Decimal Bytes (Attributes)
--------------------------------        ----        ----        ------- ----- ------------
_CODE                               00000200    00002F3E =       12094. bytes (REL,CON)

      Value  Global                              Global Defined In Module
      -----  --------------------------------   ------------------------
     00002A8D  G$Mg_SplashCompleteScreen$0$0      mg_mission_complete
     00002A8D  _Mg_SplashCompleteScreen           mg_mission_complete
     00002A8F  A$lcc1877275$63                    mg_mission_complete
     00002A8F  C$mg_mission_complete.c$13$2_0$1   mg_mission_complete
     00002A91  A$lcc1877275$64                    mg_mission_complete
     00002A92  A$lcc1877275$68                    mg_mission_complete
     00002A92  C$mg_mission_complete.c$14$1_0$1   mg_mission_complete
     00002A94  A$lcc1877275$69                    mg_mission_complete
     00002A96  A$lcc1877275$70                    mg_mission_complete
     00002A99  A$lcc1877275$71                    mg_mission_complete
     00002A9B  A$lcc1877275$75                    mg_mission_complete
     00002A9B  C$mg_mission_complete.c$16$1_0$1   mg_mission_complete
     00002A9E  A$lcc1877275$76                    mg_mission_complete
     00002A9F  A$lcc1877275$77                    mg_mission_complete
     00002AA2  A$lcc1877275$78                    mg_mission_complete
     00002AA3  A$lcc1877275$79                    mg_mission_complete
     00002AA6  A$lcc1877275$80                    mg_mission_complete
     00002AA8  A$lcc1877275$84                    mg_mission_complete
     00002AA8  C$mg_mission_complete.c$17$1_0$1   mg_mission_complete
     00002AAB  A$lcc1877275$85                    mg_mission_complete
     00002AAC  A$lcc1877275$86                    mg_mission_complete
     00002AAF  A$lcc1877275$87                    mg_mission_complete
     00002AB0  A$lcc1877275$88                    mg_mission_complete
     00002AB1  A$lcc1877275$89                    mg_mission_complete
     00002AB2  A$lcc1877275$90                    mg_mission_complete
     00002AB3  A$lcc1877275$91                    mg_mission_complete
     00002AB6  A$lcc1877275$92                    mg_mission_complete
     00002AB8  A$lcc1877275$96                    mg_mission_complete
     00002AB8  C$mg_mission_complete.c$19$1_0$1   mg_mission_complete
     00002AB9  A$lcc1877275$97                    mg_mission_complete
     00002ABB  A$lcc1877275$98                    mg_mission_complete
     00002ABE  A$lcc1877275$99                    mg_mission_complete
     00002ABF  A$lcc1877275$103                   mg_mission_complete
     00002ABF  C$mg_mission_complete.c$21$2_0$1   mg_mission_complete
     00002AC1  A$lcc1877275$104                   mg_mission_complete
     00002AC3  A$lcc1877275$105                   mg_mission_complete
     00002AC4  A$lcc1877275$106                   mg_mission_complete
     00002AC6  A$lcc1877275$107                   mg_mission_complete
     00002AC7  A$lcc1877275$108                   mg_mission_complete
     00002AC9  A$lcc1877275$109                   mg_mission_complete
     00002ACA  A$lcc1877275$110                   mg_mission_complete
     00002ACB  A$lcc1877275$111                   mg_mission_complete
     00002ACD  A$lcc1877275$112                   mg_mission_complete
     00002ACE  A$lcc1877275$113                   mg_mission_complete
     00002AD0  A$lcc1877275$114                   mg_mission_complete
     00002AD1  A$lcc1877275$115                   mg_mission_complete
     00002AD3  A$lcc1877275$116                   mg_mission_complete
     00002AD4  A$lcc1877275$117                   mg_mission_complete
     00002AD6  A$lcc1877275$118                   mg_mission_complete
     00002AD7  A$lcc1877275$119                   mg_mission_complete
     00002AD9  A$lcc1877275$120                   mg_mission_complete
ASxxxx Linker V03.00/V05.40 + sdld,  page 119.
Hexadecimal  [32-Bits]

Area                                    Addr        Size        Decimal Bytes (Attributes)
--------------------------------        ----        ----        ------- ----- ------------
_CODE                               00000200    00002F3E =       12094. bytes (REL,CON)

      Value  Global                              Global Defined In Module
      -----  --------------------------------   ------------------------
     00002ADA  A$lcc1877275$121                   mg_mission_complete
     00002ADC  A$lcc1877275$122                   mg_mission_complete
     00002ADD  A$lcc1877275$123                   mg_mission_complete
     00002ADF  A$lcc1877275$124                   mg_mission_complete
     00002AE0  A$lcc1877275$125                   mg_mission_complete
     00002AE2  A$lcc1877275$126                   mg_mission_complete
     00002AE3  A$lcc1877275$127                   mg_mission_complete
     00002AE5  A$lcc1877275$128                   mg_mission_complete
     00002AE6  A$lcc1877275$129                   mg_mission_complete
     00002AE8  A$lcc1877275$130                   mg_mission_complete
     00002AE9  A$lcc1877275$131                   mg_mission_complete
     00002AEB  A$lcc1877275$132                   mg_mission_complete
     00002AEC  A$lcc1877275$133                   mg_mission_complete
     00002AEE  A$lcc1877275$137                   mg_mission_complete
     00002AEE  C$mg_mission_complete.c$22$1_1$1   mg_mission_complete
     00002AF0  A$lcc1877275$139                   mg_mission_complete
     00002AF1  A$lcc1877275$140                   mg_mission_complete
     00002AF3  A$lcc1877275$141                   mg_mission_complete
     00002AF5  A$lcc1877275$145                   mg_mission_complete
     00002AF5  C$mg_mission_complete.c$24$3_1$1   mg_mission_complete
     00002AF6  A$lcc1877275$146                   mg_mission_complete
     00002AF8  A$lcc1877275$147                   mg_mission_complete
     00002AFB  A$lcc1877275$148                   mg_mission_complete
     00002AFC  A$lcc1877275$149                   mg_mission_complete
     00002AFD  A$lcc1877275$150                   mg_mission_complete
     00002AFE  A$lcc1877275$151                   mg_mission_complete
     00002AFF  A$lcc1877275$152                   mg_mission_complete
     00002B02  A$lcc1877275$153                   mg_mission_complete
     00002B03  A$lcc1877275$154                   mg_mission_complete
     00002B04  A$lcc1877275$155                   mg_mission_complete
     00002B05  A$lcc1877275$156                   mg_mission_complete
     00002B07  A$lcc1877275$160                   mg_mission_complete
     00002B07  C$mg_mission_complete.c$25$3_1$1   mg_mission_complete
     00002B08  A$lcc1877275$161                   mg_mission_complete
     00002B09  A$lcc1877275$162                   mg_mission_complete
     00002B0A  A$lcc1877275$163                   mg_mission_complete
     00002B0B  A$lcc1877275$164                   mg_mission_complete
     00002B0C  A$lcc1877275$165                   mg_mission_complete
     00002B0D  A$lcc1877275$166                   mg_mission_complete
     00002B0F  A$lcc1877275$167                   mg_mission_complete
     00002B10  A$lcc1877275$168                   mg_mission_complete
     00002B13  A$lcc1877275$169                   mg_mission_complete
     00002B14  A$lcc1877275$173                   mg_mission_complete
     00002B14  C$mg_mission_complete.c$22$2_1$1   mg_mission_complete
     00002B15  A$lcc1877275$174                   mg_mission_complete
     00002B17  A$lcc1877275$182                   mg_mission_complete
     00002B17  C$mg_mission_complete.c$31$1_1$1   mg_mission_complete
     00002B19  A$lcc1877275$187                   mg_mission_complete
     00002B19  C$mg_mission_complete.c$32$1_1$1   mg_mission_complete
     00002B19  XG$Mg_SplashCompleteScreen$0$0     mg_mission_complete
     00002B1A  A$lcc1877275$200                   mg_mission_complete
ASxxxx Linker V03.00/V05.40 + sdld,  page 120.
Hexadecimal  [32-Bits]

Area                                    Addr        Size        Decimal Bytes (Attributes)
--------------------------------        ----        ----        ------- ----- ------------
_CODE                               00000200    00002F3E =       12094. bytes (REL,CON)

      Value  Global                              Global Defined In Module
      -----  --------------------------------   ------------------------
     00002B1A  C$mg_mission_complete.c$34$1_1$1   mg_mission_complete
     00002B1A  C$mg_mission_complete.c$36$1_0$1   mg_mission_complete
     00002B1A  G$Mg_CompleteScreenSleep$0$0       mg_mission_complete
     00002B1A  _Mg_CompleteScreenSleep            mg_mission_complete
     00002B1B  A$lcc1877275$201                   mg_mission_complete
     00002B1E  A$lcc1877275$206                   mg_mission_complete
     00002B1E  C$mg_mission_complete.c$38$1_0$1   mg_mission_complete
     00002B21  A$lcc1877275$207                   mg_mission_complete
     00002B22  A$lcc1877275$208                   mg_mission_complete
     00002B24  A$lcc1877275$212                   mg_mission_complete
     00002B24  C$mg_mission_complete.c$39$1_0$1   mg_mission_complete
     00002B27  A$lcc1877275$213                   mg_mission_complete
     00002B29  A$lcc1877275$221                   mg_mission_complete
     00002B29  C$mg_mission_complete.c$41$1_0$1   mg_mission_complete
     00002B29  C$mg_mission_complete.c$43$2_0$1   mg_mission_complete
     00002B2C  A$lcc1877275$222                   mg_mission_complete
     00002B2F  A$lcc1877275$223                   mg_mission_complete
     00002B30  A$lcc1877275$227                   mg_mission_complete
     00002B30  C$mg_mission_complete.c$44$3_0$1   mg_mission_complete
     00002B32  A$lcc1877275$228                   mg_mission_complete
     00002B34  A$lcc1877275$232                   mg_mission_complete
     00002B34  C$mg_mission_complete.c$46$4_0$1   mg_mission_complete
     00002B35  A$lcc1877275$233                   mg_mission_complete
     00002B38  A$lcc1877275$244                   mg_mission_complete
     00002B38  C$mg_mission_complete.c$51$1_0$1   mg_mission_complete
     00002B38  C$mg_mission_complete.c$52$1_0$1   mg_mission_complete
     00002B38  XG$Mg_CompleteScreenSleep$0$0      mg_mission_complete
     00002B39  A$lcc1877276$56                    mg_player_movement
     00002B39  C$mg_player_movement.c$9$0_0$153   mg_player_movement
     00002B39  G$Mg_PlayerMovement$0$0            mg_player_movement
     00002B39  _Mg_PlayerMovement                 mg_player_movement
     00002B3A  A$lcc1877276$60                    mg_player_movement
     00002B3A  C$mg_player_movement.c$10$2_0$15   mg_player_movement
     00002B3D  A$lcc1877276$61                    mg_player_movement
     00002B3E  A$lcc1877276$62                    mg_player_movement
     00002B40  A$lcc1877276$66                    mg_player_movement
     00002B43  A$lcc1877276$67                    mg_player_movement
     00002B45  A$lcc1877276$68                    mg_player_movement
     00002B47  A$lcc1877276$69                    mg_player_movement
     00002B48  A$lcc1877276$70                    mg_player_movement
     00002B49  A$lcc1877276$71                    mg_player_movement
     00002B4B  A$lcc1877276$75                    mg_player_movement
     00002B4B  C$mg_player_movement.c$12$4_0$15   mg_player_movement
     00002B4E  A$lcc1877276$76                    mg_player_movement
     00002B50  A$lcc1877276$77                    mg_player_movement
     00002B52  A$lcc1877276$82                    mg_player_movement
     00002B52  C$mg_player_movement.c$13$5_0$15   mg_player_movement
     00002B54  A$lcc1877276$83                    mg_player_movement
     00002B56  A$lcc1877276$84                    mg_player_movement
     00002B57  A$lcc1877276$85                    mg_player_movement
     00002B58  A$lcc1877276$86                    mg_player_movement
ASxxxx Linker V03.00/V05.40 + sdld,  page 121.
Hexadecimal  [32-Bits]

Area                                    Addr        Size        Decimal Bytes (Attributes)
--------------------------------        ----        ----        ------- ----- ------------
_CODE                               00000200    00002F3E =       12094. bytes (REL,CON)

      Value  Global                              Global Defined In Module
      -----  --------------------------------   ------------------------
     00002B5A  A$lcc1877276$90                    mg_player_movement
     00002B5A  C$mg_player_movement.c$14$5_0$15   mg_player_movement
     00002B5D  A$lcc1877276$91                    mg_player_movement
     00002B5F  A$lcc1877276$92                    mg_player_movement
     00002B61  A$lcc1877276$97                    mg_player_movement
     00002B61  C$mg_player_movement.c$15$6_0$15   mg_player_movement
     00002B63  A$lcc1877276$98                    mg_player_movement
     00002B65  A$lcc1877276$99                    mg_player_movement
     00002B66  A$lcc1877276$100                   mg_player_movement
     00002B67  A$lcc1877276$101                   mg_player_movement
     00002B69  A$lcc1877276$105                   mg_player_movement
     00002B69  C$mg_player_movement.c$16$6_0$15   mg_player_movement
     00002B6C  A$lcc1877276$106                   mg_player_movement
     00002B6E  A$lcc1877276$107                   mg_player_movement
     00002B70  A$lcc1877276$112                   mg_player_movement
     00002B70  C$mg_player_movement.c$17$7_0$15   mg_player_movement
     00002B71  A$lcc1877276$113                   mg_player_movement
     00002B73  A$lcc1877276$114                   mg_player_movement
     00002B74  A$lcc1877276$115                   mg_player_movement
     00002B75  A$lcc1877276$116                   mg_player_movement
     00002B77  A$lcc1877276$120                   mg_player_movement
     00002B77  C$mg_player_movement.c$18$7_0$15   mg_player_movement
     00002B7A  A$lcc1877276$121                   mg_player_movement
     00002B7C  A$lcc1877276$126                   mg_player_movement
     00002B7C  C$mg_player_movement.c$22$2_0$16   mg_player_movement
     00002B7F  A$lcc1877276$127                   mg_player_movement
     00002B80  A$lcc1877276$128                   mg_player_movement
     00002B82  A$lcc1877276$129                   mg_player_movement
     00002B85  A$lcc1877276$130                   mg_player_movement
     00002B87  A$lcc1877276$131                   mg_player_movement
     00002B89  A$lcc1877276$132                   mg_player_movement
     00002B8B  A$lcc1877276$133                   mg_player_movement
     00002B8D  A$lcc1877276$134                   mg_player_movement
     00002B8F  A$lcc1877276$135                   mg_player_movement
     00002B91  A$lcc1877276$136                   mg_player_movement
     00002B93  A$lcc1877276$144                   mg_player_movement
     00002B93  C$mg_player_movement.c$23$3_0$16   mg_player_movement
     00002B93  C$mg_player_movement.c$24$3_0$16   mg_player_movement
     00002B96  A$lcc1877276$145                   mg_player_movement
     00002B99  A$lcc1877276$149                   mg_player_movement
     00002B99  C$mg_player_movement.c$25$3_0$16   mg_player_movement
     00002B9B  A$lcc1877276$157                   mg_player_movement
     00002B9B  C$mg_player_movement.c$26$3_0$16   mg_player_movement
     00002B9B  C$mg_player_movement.c$27$3_0$16   mg_player_movement
     00002B9E  A$lcc1877276$158                   mg_player_movement
     00002BA1  A$lcc1877276$162                   mg_player_movement
     00002BA1  C$mg_player_movement.c$28$3_0$16   mg_player_movement
     00002BA3  A$lcc1877276$170                   mg_player_movement
     00002BA3  C$mg_player_movement.c$29$3_0$16   mg_player_movement
     00002BA3  C$mg_player_movement.c$30$3_0$16   mg_player_movement
     00002BA6  A$lcc1877276$171                   mg_player_movement
ASxxxx Linker V03.00/V05.40 + sdld,  page 122.
Hexadecimal  [32-Bits]

Area                                    Addr        Size        Decimal Bytes (Attributes)
--------------------------------        ----        ----        ------- ----- ------------
_CODE                               00000200    00002F3E =       12094. bytes (REL,CON)

      Value  Global                              Global Defined In Module
      -----  --------------------------------   ------------------------
     00002BA9  A$lcc1877276$175                   mg_player_movement
     00002BA9  C$mg_player_movement.c$31$3_0$16   mg_player_movement
     00002BAB  A$lcc1877276$183                   mg_player_movement
     00002BAB  C$mg_player_movement.c$32$3_0$16   mg_player_movement
     00002BAB  C$mg_player_movement.c$33$3_0$16   mg_player_movement
     00002BAE  A$lcc1877276$184                   mg_player_movement
     00002BB1  A$lcc1877276$192                   mg_player_movement
     00002BB1  C$mg_player_movement.c$11$2_0$15   mg_player_movement
     00002BB1  C$mg_player_movement.c$37$2_0$16   mg_player_movement
     00002BB4  A$lcc1877276$193                   mg_player_movement
     00002BB5  A$lcc1877276$197                   mg_player_movement
     00002BB5  C$mg_player_movement.c$40$2_0$16   mg_player_movement
     00002BB8  A$lcc1877276$198                   mg_player_movement
     00002BB9  A$lcc1877276$199                   mg_player_movement
     00002BBB  A$lcc1877276$200                   mg_player_movement
     00002BBD  A$lcc1877276$201                   mg_player_movement
     00002BBF  A$lcc1877276$205                   mg_player_movement
     00002BBF  C$mg_player_movement.c$41$2_0$16   mg_player_movement
     00002BC0  A$lcc1877276$206                   mg_player_movement
     00002BC3  A$lcc1877276$211                   mg_player_movement
     00002BC3  C$mg_player_movement.c$43$2_0$16   mg_player_movement
     00002BC6  A$lcc1877276$212                   mg_player_movement
     00002BC8  A$lcc1877276$213                   mg_player_movement
     00002BCA  A$lcc1877276$214                   mg_player_movement
     00002BCC  A$lcc1877276$215                   mg_player_movement
     00002BCE  A$lcc1877276$219                   mg_player_movement
     00002BCE  C$mg_player_movement.c$44$2_0$16   mg_player_movement
     00002BCF  A$lcc1877276$220                   mg_player_movement
     00002BD2  A$lcc1877276$225                   mg_player_movement
     00002BD2  C$mg_player_movement.c$46$2_0$16   mg_player_movement
     00002BD5  A$lcc1877276$226                   mg_player_movement
     00002BD7  A$lcc1877276$227                   mg_player_movement
     00002BD9  A$lcc1877276$228                   mg_player_movement
     00002BDB  A$lcc1877276$229                   mg_player_movement
     00002BDD  A$lcc1877276$233                   mg_player_movement
     00002BDD  C$mg_player_movement.c$47$2_0$16   mg_player_movement
     00002BDE  A$lcc1877276$234                   mg_player_movement
     00002BE1  A$lcc1877276$239                   mg_player_movement
     00002BE1  C$mg_player_movement.c$49$2_0$16   mg_player_movement
     00002BE4  A$lcc1877276$240                   mg_player_movement
     00002BE6  A$lcc1877276$241                   mg_player_movement
     00002BE7  A$lcc1877276$242                   mg_player_movement
     00002BE9  A$lcc1877276$243                   mg_player_movement
     00002BEA  A$lcc1877276$247                   mg_player_movement
     00002BEA  C$mg_player_movement.c$50$2_0$16   mg_player_movement
     00002BEB  A$lcc1877276$248                   mg_player_movement
     00002BEE  A$lcc1877276$256                   mg_player_movement
     00002BEE  C$mg_player_movement.c$51$2_0$15   mg_player_movement
     00002BEE  XG$Mg_PlayerMovement$0$0           mg_player_movement
     00002BEF  A$lcc1877277$70                    mg_timer
     00002BEF  C$mg_timer.c$8$0_0$3               mg_timer
ASxxxx Linker V03.00/V05.40 + sdld,  page 123.
Hexadecimal  [32-Bits]

Area                                    Addr        Size        Decimal Bytes (Attributes)
--------------------------------        ----        ----        ------- ----- ------------
_CODE                               00000200    00002F3E =       12094. bytes (REL,CON)

      Value  Global                              Global Defined In Module
      -----  --------------------------------   ------------------------
     00002BEF  G$Mg_TimerStart$0$0                mg_timer
     00002BEF  _Mg_TimerStart                     mg_timer
     00002BF0  A$lcc1877277$71                    mg_timer
     00002BF1  A$lcc1877277$75                    mg_timer
     00002BF1  C$mg_timer.c$9$1_0$3               mg_timer
     00002BF2  A$lcc1877277$76                    mg_timer
     00002BF3  A$lcc1877277$77                    mg_timer
     00002BF4  A$lcc1877277$78                    mg_timer
     00002BF5  A$lcc1877277$79                    mg_timer
     00002BF6  A$lcc1877277$80                    mg_timer
     00002BF7  A$lcc1877277$81                    mg_timer
     00002BF8  A$lcc1877277$82                    mg_timer
     00002BF9  A$lcc1877277$83                    mg_timer
     00002BFA  A$lcc1877277$84                    mg_timer
     00002BFB  A$lcc1877277$85                    mg_timer
     00002BFC  A$lcc1877277$86                    mg_timer
     00002BFD  A$lcc1877277$87                    mg_timer
     00002C00  A$lcc1877277$88                    mg_timer
     00002C01  A$lcc1877277$89                    mg_timer
     00002C02  A$lcc1877277$90                    mg_timer
     00002C03  A$lcc1877277$94                    mg_timer
     00002C03  C$mg_timer.c$10$1_0$3              mg_timer
     00002C06  A$lcc1877277$95                    mg_timer
     00002C08  A$lcc1877277$99                    mg_timer
     00002C08  C$mg_timer.c$11$1_0$3              mg_timer
     00002C09  A$lcc1877277$100                   mg_timer
     00002C0C  A$lcc1877277$101                   mg_timer
     00002C0D  A$lcc1877277$102                   mg_timer
     00002C0E  A$lcc1877277$106                   mg_timer
     00002C0E  C$mg_timer.c$12$1_0$3              mg_timer
     00002C0F  A$lcc1877277$107                   mg_timer
     00002C12  A$lcc1877277$115                   mg_timer
     00002C12  C$mg_timer.c$13$1_0$3              mg_timer
     00002C12  XG$Mg_TimerStart$0$0               mg_timer
     00002C13  A$lcc1877277$128                   mg_timer
     00002C13  C$mg_timer.c$15$1_0$4              mg_timer
     00002C13  C$mg_timer.c$16$2_0$5              mg_timer
     00002C13  G$Mg_TimerUpdate$0$0               mg_timer
     00002C13  _Mg_TimerUpdate                    mg_timer
     00002C16  A$lcc1877277$129                   mg_timer
     00002C17  A$lcc1877277$133                   mg_timer
     00002C17  C$mg_timer.c$17$2_0$5              mg_timer
     00002C18  A$lcc1877277$137                   mg_timer
     00002C18  C$mg_timer.c$19$1_0$4              mg_timer
     00002C1B  A$lcc1877277$138                   mg_timer
     00002C1C  A$lcc1877277$139                   mg_timer
     00002C1E  A$lcc1877277$140                   mg_timer
     00002C1F  A$lcc1877277$141                   mg_timer
     00002C20  A$lcc1877277$146                   mg_timer
     00002C20  C$mg_timer.c$21$2_0$6              mg_timer
     00002C23  A$lcc1877277$147                   mg_timer
ASxxxx Linker V03.00/V05.40 + sdld,  page 124.
Hexadecimal  [32-Bits]

Area                                    Addr        Size        Decimal Bytes (Attributes)
--------------------------------        ----        ----        ------- ----- ------------
_CODE                               00000200    00002F3E =       12094. bytes (REL,CON)

      Value  Global                              Global Defined In Module
      -----  --------------------------------   ------------------------
     00002C26  A$lcc1877277$148                   mg_timer
     00002C27  A$lcc1877277$149                   mg_timer
     00002C28  A$lcc1877277$150                   mg_timer
     00002C29  A$lcc1877277$151                   mg_timer
     00002C2A  A$lcc1877277$152                   mg_timer
     00002C2B  A$lcc1877277$153                   mg_timer
     00002C2C  A$lcc1877277$154                   mg_timer
     00002C2D  A$lcc1877277$158                   mg_timer
     00002C2D  C$mg_timer.c$22$3_0$7              mg_timer
     00002C2E  A$lcc1877277$159                   mg_timer
     00002C31  A$lcc1877277$163                   mg_timer
     00002C31  C$mg_timer.c$23$3_0$7              mg_timer
     00002C34  A$lcc1877277$164                   mg_timer
     00002C36  A$lcc1877277$172                   mg_timer
     00002C36  C$mg_timer.c$25$2_0$4              mg_timer
     00002C36  XG$Mg_TimerUpdate$0$0              mg_timer
     00002C37  A$lcc1877277$182                   mg_timer
     00002C37  C$mg_timer.c$27$2_0$8              mg_timer
     00002C37  G$Mg_TimerStopAlarm$0$0            mg_timer
     00002C37  _Mg_TimerStopAlarm                 mg_timer
     00002C38  A$lcc1877277$183                   mg_timer
     00002C3B  A$lcc1877277$188                   mg_timer
     00002C3B  C$mg_timer.c$27$1_0$8              mg_timer
     00002C3B  XG$Mg_TimerStopAlarm$0$0           mg_timer
     00002C3C  A$lcc1877278$54                    mini_games
     00002C3C  C$mini_games.c$9$0_0$149           mini_games
     00002C3C  G$Mg_SetTitle$0$0                  mini_games
     00002C3C  _Mg_SetTitle                       mini_games
     00002C3D  A$lcc1877278$58                    mini_games
     00002C3F  A$lcc1877278$60                    mini_games
     00002C40  A$lcc1877278$61                    mini_games
     00002C42  A$lcc1877278$62                    mini_games
     00002C43  A$lcc1877278$63                    mini_games
     00002C44  A$lcc1877278$64                    mini_games
     00002C45  A$lcc1877278$65                    mini_games
     00002C47  A$lcc1877278$69                    mini_games
     00002C47  C$mini_games.c$13$3_0$150          mini_games
     00002C48  A$lcc1877278$70                    mini_games
     00002C49  A$lcc1877278$71                    mini_games
     00002C4C  A$lcc1877278$72                    mini_games
     00002C4D  A$lcc1877278$73                    mini_games
     00002C4E  A$lcc1877278$74                    mini_games
     00002C4F  A$lcc1877278$75                    mini_games
     00002C50  A$lcc1877278$76                    mini_games
     00002C52  A$lcc1877278$77                    mini_games
     00002C54  A$lcc1877278$78                    mini_games
     00002C55  A$lcc1877278$82                    mini_games
     00002C55  C$mini_games.c$14$3_0$150          mini_games
     00002C56  A$lcc1877278$83                    mini_games
     00002C57  A$lcc1877278$84                    mini_games
     00002C58  A$lcc1877278$85                    mini_games
ASxxxx Linker V03.00/V05.40 + sdld,  page 125.
Hexadecimal  [32-Bits]

Area                                    Addr        Size        Decimal Bytes (Attributes)
--------------------------------        ----        ----        ------- ----- ------------
_CODE                               00000200    00002F3E =       12094. bytes (REL,CON)

      Value  Global                              Global Defined In Module
      -----  --------------------------------   ------------------------
     00002C5B  A$lcc1877278$86                    mini_games
     00002C5C  A$lcc1877278$87                    mini_games
     00002C5D  A$lcc1877278$88                    mini_games
     00002C5F  A$lcc1877278$89                    mini_games
     00002C60  A$lcc1877278$90                    mini_games
     00002C61  A$lcc1877278$91                    mini_games
     00002C63  A$lcc1877278$92                    mini_games
     00002C64  A$lcc1877278$93                    mini_games
     00002C65  A$lcc1877278$94                    mini_games
     00002C67  A$lcc1877278$95                    mini_games
     00002C68  A$lcc1877278$96                    mini_games
     00002C69  A$lcc1877278$97                    mini_games
     00002C6A  A$lcc1877278$98                    mini_games
     00002C6B  A$lcc1877278$99                    mini_games
     00002C6E  A$lcc1877278$100                   mini_games
     00002C70  A$lcc1877278$101                   mini_games
     00002C71  A$lcc1877278$105                   mini_games
     00002C71  C$mini_games.c$11$2_0$149          mini_games
     00002C72  A$lcc1877278$106                   mini_games
     00002C74  A$lcc1877278$111                   mini_games
     00002C75  A$lcc1877278$116                   mini_games
     00002C75  C$mini_games.c$16$2_0$149          mini_games
     00002C75  XG$Mg_SetTitle$0$0                 mini_games
     00002C76  A$lcc1877279$61                    mg_leaves
     00002C76  C$mg_leaves.c$7$0_0$156            mg_leaves
     00002C76  C$mg_leaves.c$9$1_0$156            mg_leaves
     00002C76  G$Mg_Leaves_Create$0$0             mg_leaves
     00002C76  _Mg_Leaves_Create                  mg_leaves
     00002C79  A$lcc1877279$62                    mg_leaves
     00002C7B  A$lcc1877279$63                    mg_leaves
     00002C7C  A$lcc1877279$64                    mg_leaves
     00002C7E  A$lcc1877279$68                    mg_leaves
     00002C7E  C$mg_leaves.c$10$1_0$156           mg_leaves
     00002C7F  A$lcc1877279$69                    mg_leaves
     00002C81  A$lcc1877279$70                    mg_leaves
     00002C82  A$lcc1877279$71                    mg_leaves
     00002C84  A$lcc1877279$75                    mg_leaves
     00002C84  C$mg_leaves.c$11$1_0$156           mg_leaves
     00002C87  A$lcc1877279$76                    mg_leaves
     00002C89  A$lcc1877279$80                    mg_leaves
     00002C89  C$mg_leaves.c$12$1_0$156           mg_leaves
     00002C8C  A$lcc1877279$81                    mg_leaves
     00002C8D  A$lcc1877279$82                    mg_leaves
     00002C8E  A$lcc1877279$83                    mg_leaves
     00002C8F  A$lcc1877279$87                    mg_leaves
     00002C8F  C$mg_leaves.c$14$1_0$156           mg_leaves
     00002C92  A$lcc1877279$88                    mg_leaves
     00002C94  A$lcc1877279$96                    mg_leaves
     00002C94  C$mg_leaves.c$15$1_0$156           mg_leaves
     00002C94  XG$Mg_Leaves_Create$0$0            mg_leaves
     00002C95  A$lcc1877281$57                    mg_leaves_load_bkg
ASxxxx Linker V03.00/V05.40 + sdld,  page 126.
Hexadecimal  [32-Bits]

Area                                    Addr        Size        Decimal Bytes (Attributes)
--------------------------------        ----        ----        ------- ----- ------------
_CODE                               00000200    00002F3E =       12094. bytes (REL,CON)

      Value  Global                              Global Defined In Module
      -----  --------------------------------   ------------------------
     00002C95  C$mg_leaves_load_bkg.c$5$0_0$155   mg_leaves_load_bkg
     00002C95  C$mg_leaves_load_bkg.c$7$1_0$155   mg_leaves_load_bkg
     00002C95  G$Mg_Leaves_LoadBKG$0$0            mg_leaves_load_bkg
     00002C95  _Mg_Leaves_LoadBKG                 mg_leaves_load_bkg
     00002C98  A$lcc1877281$58                    mg_leaves_load_bkg
     00002C99  A$lcc1877281$59                    mg_leaves_load_bkg
     00002C9C  A$lcc1877281$60                    mg_leaves_load_bkg
     00002C9D  A$lcc1877281$61                    mg_leaves_load_bkg
     00002CA0  A$lcc1877281$62                    mg_leaves_load_bkg
     00002CA2  A$lcc1877281$66                    mg_leaves_load_bkg
     00002CA2  C$mg_leaves_load_bkg.c$8$1_0$155   mg_leaves_load_bkg
     00002CA5  A$lcc1877281$67                    mg_leaves_load_bkg
     00002CA6  A$lcc1877281$68                    mg_leaves_load_bkg
     00002CA9  A$lcc1877281$69                    mg_leaves_load_bkg
     00002CAA  A$lcc1877281$70                    mg_leaves_load_bkg
     00002CAB  A$lcc1877281$71                    mg_leaves_load_bkg
     00002CAC  A$lcc1877281$72                    mg_leaves_load_bkg
     00002CAD  A$lcc1877281$73                    mg_leaves_load_bkg
     00002CB0  A$lcc1877281$74                    mg_leaves_load_bkg
     00002CB2  A$lcc1877281$82                    mg_leaves_load_bkg
     00002CB2  C$mg_leaves_load_bkg.c$9$1_0$155   mg_leaves_load_bkg
     00002CB2  XG$Mg_Leaves_LoadBKG$0$0           mg_leaves_load_bkg
     00002CB3  A$lcc1877284$72                    main
     00002CB3  C$main.c$27$0_0$179                main
     00002CB3  C$main.c$29$1_0$179                main
     00002CB3  C$main.c$30$1_0$179                main
     00002CB3  G$load_number_tiles$0$0            main
     00002CB3  _load_number_tiles                 main
     00002CB6  A$lcc1877284$73                    main
     00002CB7  A$lcc1877284$74                    main
     00002CBA  A$lcc1877284$75                    main
     00002CBB  A$lcc1877284$76                    main
     00002CBE  A$lcc1877284$77                    main
     00002CC0  A$lcc1877284$84                    main
     00002CC0  C$main.c$31$1_0$179                main
     00002CC0  C$main.c$32$1_0$179                main
     00002CC3  A$lcc1877284$85                    main
     00002CC4  A$lcc1877284$86                    main
     00002CC7  A$lcc1877284$87                    main
     00002CC8  A$lcc1877284$88                    main
     00002CCB  A$lcc1877284$89                    main
     00002CCD  A$lcc1877284$100                   main
     00002CCD  C$main.c$34$1_0$179                main
     00002CCD  C$main.c$35$1_0$179                main
     00002CCD  XG$load_number_tiles$0$0           main
     00002CD0  A$lcc1877284$113                   main
     00002CD0  C$main.c$37$1_0$181                main
     00002CD0  C$main.c$39$1_0$181                main
     00002CD0  G$main$0$0                         main
     00002CD0  _main                              main
     00002CD2  A$lcc1877284$114                   main
ASxxxx Linker V03.00/V05.40 + sdld,  page 127.
Hexadecimal  [32-Bits]

Area                                    Addr        Size        Decimal Bytes (Attributes)
--------------------------------        ----        ----        ------- ----- ------------
_CODE                               00000200    00002F3E =       12094. bytes (REL,CON)

      Value  Global                              Global Defined In Module
      -----  --------------------------------   ------------------------
     00002CD4  A$lcc1877284$115                   main
     00002CD6  A$lcc1877284$119                   main
     00002CD6  C$main.c$40$1_0$181                main
     00002CD8  A$lcc1877284$120                   main
     00002CDA  A$lcc1877284$121                   main
     00002CDC  A$lcc1877284$125                   main
     00002CDC  C$main.c$49$1_1$182                main
     00002CDF  A$lcc1877284$126                   main
     00002CE1  A$lcc1877284$127                   main
     00002CE2  A$lcc1877284$128                   main
     00002CE4  A$lcc1877284$132                   main
     00002CE4  C$main.c$51$1_1$182                main
     00002CE7  A$lcc1877284$136                   main
     00002CE7  C$main.c$53$1_1$182                main
     00002CEA  A$lcc1877284$140                   main
     00002CEA  C$main.c$54$1_1$182                main
     00002CED  A$lcc1877284$144                   main
     00002CED  C$main.c$56$1_1$182                main
     00002CF0  A$lcc1877284$148                   main
     00002CF0  C$main.c$59$1_2$183                main
     00002CF3  A$lcc1877284$149                   main
     00002CF6  A$lcc1877284$153                   main
     00002CF6  C$main.c$61$1_2$183                main
     00002CF9  A$lcc1877284$154                   main
     00002CFA  A$lcc1877284$155                   main
     00002CFB  A$lcc1877284$156                   main
     00002CFC  A$lcc1877284$157                   main
     00002CFF  A$lcc1877284$158                   main
     00002D01  A$lcc1877284$159                   main
     00002D02  A$lcc1877284$160                   main
     00002D03  A$lcc1877284$161                   main
     00002D04  A$lcc1877284$162                   main
     00002D05  A$lcc1877284$163                   main
     00002D08  A$lcc1877284$167                   main
     00002D08  C$main.c$63$1_2$183                main
     00002D0B  A$lcc1877284$172                   main
     00002D0B  C$main.c$65$1_2$183                main
     00002D0E  A$lcc1877284$173                   main
     00002D0F  A$lcc1877284$174                   main
     00002D10  A$lcc1877284$175                   main
     00002D11  A$lcc1877284$176                   main
     00002D12  A$lcc1877284$177                   main
     00002D13  A$lcc1877284$178                   main
     00002D14  A$lcc1877284$182                   main
     00002D14  C$main.c$67$2_2$184                main
     00002D17  A$lcc1877284$183                   main
     00002D1A  A$lcc1877284$187                   main
     00002D1A  C$main.c$68$2_2$184                main
     00002D1D  A$lcc1877284$188                   main
     00002D20  A$lcc1877284$192                   main
     00002D20  C$main.c$70$3_2$185                main
ASxxxx Linker V03.00/V05.40 + sdld,  page 128.
Hexadecimal  [32-Bits]

Area                                    Addr        Size        Decimal Bytes (Attributes)
--------------------------------        ----        ----        ------- ----- ------------
_CODE                               00000200    00002F3E =       12094. bytes (REL,CON)

      Value  Global                              Global Defined In Module
      -----  --------------------------------   ------------------------
     00002D22  A$lcc1877284$193                   main
     00002D23  A$lcc1877284$197                   main
     00002D23  C$main.c$71$3_3$186                main
     00002D26  A$lcc1877284$198                   main
     00002D27  A$lcc1877284$199                   main
     00002D28  A$lcc1877284$200                   main
     00002D29  A$lcc1877284$201                   main
     00002D2C  A$lcc1877284$202                   main
     00002D2D  A$lcc1877284$203                   main
     00002D2E  A$lcc1877284$204                   main
     00002D30  A$lcc1877284$205                   main
     00002D31  A$lcc1877284$206                   main
     00002D33  A$lcc1877284$210                   main
     00002D33  C$main.c$72$3_3$186                main
     00002D34  A$lcc1877284$211                   main
     00002D36  A$lcc1877284$212                   main
     00002D37  A$lcc1877284$213                   main
     00002D3A  A$lcc1877284$218                   main
     00002D3A  C$main.c$74$2_3$185                main
     00002D3D  A$lcc1877284$219                   main
     00002D3E  A$lcc1877284$220                   main
     00002D3F  A$lcc1877284$221                   main
     00002D40  A$lcc1877284$222                   main
     00002D41  A$lcc1877284$223                   main
     00002D42  A$lcc1877284$224                   main
     00002D43  A$lcc1877284$225                   main
     00002D44  A$lcc1877284$226                   main
     00002D45  A$lcc1877284$227                   main
     00002D46  A$lcc1877284$228                   main
     00002D47  A$lcc1877284$229                   main
     00002D48  A$lcc1877284$230                   main
     00002D49  A$lcc1877284$231                   main
     00002D4A  A$lcc1877284$232                   main
     00002D4B  A$lcc1877284$233                   main
     00002D4C  A$lcc1877284$234                   main
     00002D4F  A$lcc1877284$235                   main
     00002D50  A$lcc1877284$236                   main
     00002D51  A$lcc1877284$237                   main
     00002D52  A$lcc1877284$239                   main
     00002D53  A$lcc1877284$243                   main
     00002D53  C$main.c$76$3_3$187                main
     00002D55  A$lcc1877284$244                   main
     00002D56  A$lcc1877284$245                   main
     00002D58  A$lcc1877284$249                   main
     00002D58  C$main.c$77$3_3$187                main
     00002D59  A$lcc1877284$250                   main
     00002D5B  A$lcc1877284$251                   main
     00002D5E  A$lcc1877284$252                   main
     00002D5F  A$lcc1877284$257                   main
     00002D5F  C$main.c$79$2_3$185                main
     00002D62  A$lcc1877284$261                   main
ASxxxx Linker V03.00/V05.40 + sdld,  page 129.
Hexadecimal  [32-Bits]

Area                                    Addr        Size        Decimal Bytes (Attributes)
--------------------------------        ----        ----        ------- ----- ------------
_CODE                               00000200    00002F3E =       12094. bytes (REL,CON)

      Value  Global                              Global Defined In Module
      -----  --------------------------------   ------------------------
     00002D62  C$main.c$80$2_3$185                main
     00002D65  A$lcc1877284$269                   main
     00002D65  C$main.c$82$1_2$181                main
     00002D65  XG$main$0$0                        main
     00002D67  __divsuchar                        divmod
     00002D6D  __modsuchar                        divmod
     00002D76  __divuschar                        divmod
     00002D7F  __moduschar                        divmod
     00002D8B  __divschar                         divmod
     00002D90  __modschar                         divmod
     00002D97  __divsint                          divmod
     00002DA0  __modsint                          divmod
     00002DAC  __divuchar                         divmod
     00002DB1  __moduchar                         divmod
     00002DB8  __divuint                          divmod
     00002DC1  __moduint                          divmod
     00002DCD  .div8                              divmod
     00002DCD  .mod8                              divmod
     00002DD5  .div16                             divmod
     00002DD5  .mod16                             divmod
     00002E0B  .divu8                             divmod
     00002E0B  .modu8                             divmod
     00002E0E  .divu16                            divmod
     00002E0E  .modu16                            divmod
     00002E4E  _free                              free
     00002F5E  ___sdcc_heap_init                  malloc
     00002F80  _malloc                            malloc
     00003086  _set_vram_byte                     
     0000308F  _set_win_tile_xy                   
     00003098  _set_bkg_tile_xy                   
     000030C7  __mulsuchar                        mul
     000030CA  __muluschar                        mul
     000030D3  __mulschar                         mul
     000030DB  __mulint                           mul
     000030FA  __muluchar                         mul
     0000310C  ___memcpy                          
     0000310C  _memcpy                            
ASxxxx Linker V03.00/V05.40 + sdld,  page 130.
Hexadecimal  [32-Bits]

Area                                    Addr        Size        Decimal Bytes (Attributes)
--------------------------------        ----        ----        ------- ----- ------------
_HEADER0                            00000000    00000001 =           1. bytes (ABS,CON)

      Value  Global                              Global Defined In Module
      -----  --------------------------------   ------------------------
     00000020  .call_hl                           Runtime

ASxxxx Linker V03.00/V05.40 + sdld,  page 131.
Hexadecimal  [32-Bits]

Area                                    Addr        Size        Decimal Bytes (Attributes)
--------------------------------        ----        ----        ------- ----- ------------
_HEADER1                            00000000    00000005 =           5. bytes (ABS,CON)

      Value  Global                              Global Defined In Module
      -----  --------------------------------   ------------------------
     00000028  .MemsetSmall                       Runtime

ASxxxx Linker V03.00/V05.40 + sdld,  page 132.
Hexadecimal  [32-Bits]

Area                                    Addr        Size        Decimal Bytes (Attributes)
--------------------------------        ----        ----        ------- ----- ------------
_HEADER2                            00000000    00000007 =           7. bytes (ABS,CON)

      Value  Global                              Global Defined In Module
      -----  --------------------------------   ------------------------
     00000030  .MemcpySmall                       Runtime

ASxxxx Linker V03.00/V05.40 + sdld,  page 133.
Hexadecimal  [32-Bits]

Area                                    Addr        Size        Decimal Bytes (Attributes)
--------------------------------        ----        ----        ------- ----- ------------
_HEADER3                            00000000    00000008 =           8. bytes (ABS,CON)

      Value  Global                              Global Defined In Module
      -----  --------------------------------   ------------------------
ASxxxx Linker V03.00/V05.40 + sdld,  page 134.
Hexadecimal  [32-Bits]

Area                                    Addr        Size        Decimal Bytes (Attributes)
--------------------------------        ----        ----        ------- ----- ------------
_HEADER4                            00000000    00000060 =          96. bytes (ABS,CON)

      Value  Global                              Global Defined In Module
      -----  --------------------------------   ------------------------
     00000080  .int                               Runtime
     0000008F  _wait_int_handler                  Runtime
     0000009C  __standard_VBL_handler             Runtime
     000000AB  _refresh_OAM                       Runtime
     000000CC  _set_interrupts                    Runtime

ASxxxx Linker V03.00/V05.40 + sdld,  page 135.
Hexadecimal  [32-Bits]

Area                                    Addr        Size        Decimal Bytes (Attributes)
--------------------------------        ----        ----        ------- ----- ------------
_HEADER5                            00000000    00000001 =           1. bytes (ABS,CON)

      Value  Global                              Global Defined In Module
      -----  --------------------------------   ------------------------
ASxxxx Linker V03.00/V05.40 + sdld,  page 136.
Hexadecimal  [32-Bits]

Area                                    Addr        Size        Decimal Bytes (Attributes)
--------------------------------        ----        ----        ------- ----- ------------
_HEADER6                            00000000    00000002 =           2. bytes (ABS,CON)

      Value  Global                              Global Defined In Module
      -----  --------------------------------   ------------------------
ASxxxx Linker V03.00/V05.40 + sdld,  page 137.
Hexadecimal  [32-Bits]

Area                                    Addr        Size        Decimal Bytes (Attributes)
--------------------------------        ----        ----        ------- ----- ------------
_HEADER7                            00000000    00000030 =          48. bytes (ABS,CON)

      Value  Global                              Global Defined In Module
      -----  --------------------------------   ------------------------
ASxxxx Linker V03.00/V05.40 + sdld,  page 138.
Hexadecimal  [32-Bits]

Area                                    Addr        Size        Decimal Bytes (Attributes)
--------------------------------        ----        ----        ------- ----- ------------
_HEADER8                            00000000    00000006 =           6. bytes (ABS,CON)

      Value  Global                              Global Defined In Module
      -----  --------------------------------   ------------------------
ASxxxx Linker V03.00/V05.40 + sdld,  page 139.
Hexadecimal  [32-Bits]

Area                                    Addr        Size        Decimal Bytes (Attributes)
--------------------------------        ----        ----        ------- ----- ------------
_HEADER9                            00000000    00000003 =           3. bytes (ABS,CON)

      Value  Global                              Global Defined In Module
      -----  --------------------------------   ------------------------
ASxxxx Linker V03.00/V05.40 + sdld,  page 140.
Hexadecimal  [32-Bits]

Area                                    Addr        Size        Decimal Bytes (Attributes)
--------------------------------        ----        ----        ------- ----- ------------
_HEADERa                            00000000    00000001 =           1. bytes (ABS,CON)

      Value  Global                              Global Defined In Module
      -----  --------------------------------   ------------------------
ASxxxx Linker V03.00/V05.40 + sdld,  page 141.
Hexadecimal  [32-Bits]

Area                                    Addr        Size        Decimal Bytes (Attributes)
--------------------------------        ----        ----        ------- ----- ------------
_HEADERb                            00000000    00000001 =           1. bytes (ABS,CON)

      Value  Global                              Global Defined In Module
      -----  --------------------------------   ------------------------
ASxxxx Linker V03.00/V05.40 + sdld,  page 142.
Hexadecimal  [32-Bits]

Area                                    Addr        Size        Decimal Bytes (Attributes)
--------------------------------        ----        ----        ------- ----- ------------
_HEADERc                            00000000    00000001 =           1. bytes (ABS,CON)

      Value  Global                              Global Defined In Module
      -----  --------------------------------   ------------------------
ASxxxx Linker V03.00/V05.40 + sdld,  page 143.
Hexadecimal  [32-Bits]

Area                                    Addr        Size        Decimal Bytes (Attributes)
--------------------------------        ----        ----        ------- ----- ------------
_HEADERd                            00000000    00000002 =           2. bytes (ABS,CON)

      Value  Global                              Global Defined In Module
      -----  --------------------------------   ------------------------
ASxxxx Linker V03.00/V05.40 + sdld,  page 144.
Hexadecimal  [32-Bits]

Area                                    Addr        Size        Decimal Bytes (Attributes)
--------------------------------        ----        ----        ------- ----- ------------
_HEADERe                            00000000    00000001 =           1. bytes (ABS,CON)

      Value  Global                              Global Defined In Module
      -----  --------------------------------   ------------------------
ASxxxx Linker V03.00/V05.40 + sdld,  page 145.
Hexadecimal  [32-Bits]

Area                                    Addr        Size        Decimal Bytes (Attributes)
--------------------------------        ----        ----        ------- ----- ------------
_HEADERf                            00000000    00000001 =           1. bytes (ABS,CON)

      Value  Global                              Global Defined In Module
      -----  --------------------------------   ------------------------
ASxxxx Linker V03.00/V05.40 + sdld,  page 146.
Hexadecimal  [32-Bits]

Area                                    Addr        Size        Decimal Bytes (Attributes)
--------------------------------        ----        ----        ------- ----- ------------
_HEADER10                           00000000    00000002 =           2. bytes (ABS,CON)

      Value  Global                              Global Defined In Module
      -----  --------------------------------   ------------------------
ASxxxx Linker V03.00/V05.40 + sdld,  page 147.
Hexadecimal  [32-Bits]

Area                                    Addr        Size        Decimal Bytes (Attributes)
--------------------------------        ----        ----        ------- ----- ------------
_HEADER11                           00000000    000000AB =         171. bytes (ABS,CON)

      Value  Global                              Global Defined In Module
      -----  --------------------------------   ------------------------
     00000150  .reset                             Runtime
     00000150  _reset                             Runtime
     00000157  .code_start                        Runtime
     000001B9  _exit                              Runtime
     000001BD  .wait_vbl_done                     Runtime
     000001BD  _vsync                             Runtime
     000001BD  _wait_vbl_done                     Runtime
     000001CD  .remove_VBL                        Runtime
     000001CD  _remove_VBL                        Runtime
     000001D0  .remove_int                        Runtime
     000001ED  .add_VBL                           Runtime
     000001ED  _add_VBL                           Runtime
     000001F0  .add_int                           Runtime

ASxxxx Linker V03.00/V05.40 + sdld,  page 148.
Hexadecimal  [32-Bits]

Area                                    Addr        Size        Decimal Bytes (Attributes)
--------------------------------        ----        ----        ------- ----- ------------
_HOME                               0000313E    0000012C =         300. bytes (REL,CON)

      Value  Global                              Global Defined In Module
      -----  --------------------------------   ------------------------
     0000313E  .memset_simple                     Runtime
     00003147  .memcpy_simple                     Runtime
     00003164  .display_off                       Runtime
     00003164  _display_off                       Runtime
     0000317C  _set_tile_data                     
     00003181  _set_bkg_data                      
     00003181  _set_win_data                      
     00003189  _set_sprite_data                   
     000031B9  .padup                             
     000031B9  _waitpadup                         
     000031C9  .jpad                              
     000031C9  _joypad                            
     000031F1  _waitpad                           
     000031F2  .wait_pad                          
     000031F9  ___sdcc_call_hl                    call_hl
     000031FA  _set_bkg_tiles                     
     0000320E  .set_xy_wtt                        SetTileMap
     00003217  .set_xy_btt                        SetTileMap
     00003226  .set_xy_tt                         SetTileMap

ASxxxx Linker V03.00/V05.40 + sdld,  page 149.
Hexadecimal  [32-Bits]

Area                                    Addr        Size        Decimal Bytes (Attributes)
--------------------------------        ----        ----        ------- ----- ------------
_INITIALIZER                        0000326A    00000239 =         569. bytes (REL,CON)

      Value  Global                              Global Defined In Module
      -----  --------------------------------   ------------------------
     0000326A  Fspr_InventoryArrow_idle$__xinit   spr_InventoryArrow_idle
     0000327A  Fbroom$__xinit_spr_broom_00$0_0$   broom
     0000328A  Fbroom$__xinit_spr_broom_01$0_0$   broom
     0000329A  Fspr_garbage$__xinit_spr_garbage   spr_garbage
     000032AA  Fleaf$__xinit_spr_leaf_00$0_0$0    leaf
     000032BA  Fexample_npc$__xinit_spr_example   example_npc
     000032CA  Fexample_npc$__xinit_spr_example   example_npc
     000032DA  Fexample_npc$__xinit_spr_example   example_npc
     000032EA  Fexample_npc$__xinit_spr_example   example_npc
     000032FA  Fspr_Player_down0$__xinit_spr_Pl   spr_Player_down0
     0000330A  Fspr_Player_down0$__xinit_spr_Pl   spr_Player_down0
     0000331A  Fspr_Player_down0$__xinit_spr_Pl   spr_Player_down0
     0000332A  Fspr_Player_down0$__xinit_spr_Pl   spr_Player_down0
     0000333A  Fspr_Player_down1$__xinit_spr_Pl   spr_Player_down1
     0000334A  Fspr_Player_down1$__xinit_spr_Pl   spr_Player_down1
     0000335A  Fspr_Player_down1$__xinit_spr_Pl   spr_Player_down1
     0000336A  Fspr_Player_down1$__xinit_spr_Pl   spr_Player_down1
     0000337A  Fspr_Player_down2$__xinit_spr_Pl   spr_Player_down2
     0000338A  Fspr_Player_down2$__xinit_spr_Pl   spr_Player_down2
     0000339A  Fspr_Player_down2$__xinit_spr_Pl   spr_Player_down2
     000033AA  Fspr_Player_down2$__xinit_spr_Pl   spr_Player_down2
     000033BA  Fspr_Player_up0$__xinit_spr_Play   spr_Player_up0
     000033CA  Fspr_Player_up0$__xinit_spr_Play   spr_Player_up0
     000033DA  Fspr_Player_up0$__xinit_spr_Play   spr_Player_up0
     000033EA  Fspr_Player_up0$__xinit_spr_Play   spr_Player_up0
     000033FA  Fspr_Player_up1$__xinit_spr_Play   spr_Player_up1
     0000340A  Fspr_Player_up1$__xinit_spr_Play   spr_Player_up1
     0000341A  Fspr_Player_up1$__xinit_spr_Play   spr_Player_up1
     0000342A  Fspr_Player_up1$__xinit_spr_Play   spr_Player_up1
     0000343A  Fspr_Player_up2$__xinit_spr_Play   spr_Player_up2
     0000344A  Fspr_Player_up2$__xinit_spr_Play   spr_Player_up2
     0000345A  Fspr_Player_up2$__xinit_spr_Play   spr_Player_up2
     0000346A  Fspr_Player_up2$__xinit_spr_Play   spr_Player_up2
     0000347A  Faction$__xinit_current_directio   action
     0000347B  Fcan_move$__xinit_can_move$0_0$0   can_move
     0000347F  Fentity$__xinit_next_entity_id$0   entity
     00003480  Fextra_actors$__xinit_extra_acto   extra_actors
     00003481  Fgender_selection$__xinit_GENDER   gender_selection
     00003482  Finput$__xinit_keys$0_0$0          input
     00003483  Finput$__xinit_prev_keys$0_0$0     input
     00003484  Finventory$__xinit_inventory_act   inventory
     00003485  Finventory$__xinit_active_item$0   inventory
     00003486  Finventory$__xinit_selected_item   inventory
     00003487  Finventory$__xinit_closing$0_0$0   inventory
     00003488  Fload$__xinit_vram_next_index$0_   load
     00003489  Fload$__xinit_vram_extra_start$0   load
     0000348A  Fminigames$__xinit_minigame_list   minigames
     0000348B  Fmoney$__xinit_money$0_0$0         money
     0000348D  Frandom$__xinit_seed$0_0$0         random
     0000348F  Fscene_manager$__xinit_is_transi   scene_manager
ASxxxx Linker V03.00/V05.40 + sdld,  page 150.
Hexadecimal  [32-Bits]

Area                                    Addr        Size        Decimal Bytes (Attributes)
--------------------------------        ----        ----        ------- ----- ------------
_INITIALIZER                        0000326A    00000239 =         569. bytes (REL,CON)

      Value  Global                              Global Defined In Module
      -----  --------------------------------   ------------------------
     00003490  Fmain_menu$__xinit_timer$0_0$0     main_menu
     00003492  Fmain_menu$__xinit_rate$0_0$0      main_menu
     00003493  Fmain_menu$__xinit_show_text$0_0   main_menu
     00003494  Fmg_load_screen$__xinit_mgl_curr   mg_load_screen
     00003495  Fmg_load_screen$__xinit_mgl_targ   mg_load_screen
     00003496  Fmg_load_screen$__xinit_mgl_acti   mg_load_screen
     00003497  Fmg_load_screen$__xinit_mgl_init   mg_load_screen
     00003498  Fmg_timer$__xinit_mgt_current_fr   mg_timer
     0000349A  Fmg_timer$__xinit_mgt_target_fra   mg_timer
     0000349C  Fmg_timer$__xinit_mgt_running$0_   mg_timer
     0000349D  Fmg_timer$__xinit_mgt_alarm$0_0$   mg_timer
     0000349E  Fmg_leaves_init$__xinit_SWEEPING   mg_leaves_init
     0000349F  Fmg_leaves_init$__xinit_score$0_   mg_leaves_init
     000034A0  Fmg_leaves_init$__xinit_score_ca   mg_leaves_init
     000034A1  Fmg_leaves_init$__xinit_next_spa   mg_leaves_init

ASxxxx Linker V03.00/V05.40 + sdld,  page 151.
Hexadecimal  [32-Bits]

Area                                    Addr        Size        Decimal Bytes (Attributes)
--------------------------------        ----        ----        ------- ----- ------------
_GSINIT                             000034A3    0000000F =          15. bytes (REL,CON)

      Value  Global                              Global Defined In Module
      -----  --------------------------------   ------------------------
     000034A3  gsinit                             Runtime

ASxxxx Linker V03.00/V05.40 + sdld,  page 152.
Hexadecimal  [32-Bits]

Area                                    Addr        Size        Decimal Bytes (Attributes)
--------------------------------        ----        ----        ------- ----- ------------
_GSFINAL                            000034B2    00000001 =           1. bytes (REL,CON)

      Value  Global                              Global Defined In Module
      -----  --------------------------------   ------------------------
ASxxxx Linker V03.00/V05.40 + sdld,  page 153.
Hexadecimal  [32-Bits]

Area                                    Addr        Size        Decimal Bytes (Attributes)
--------------------------------        ----        ----        ------- ----- ------------
_DATA                               0000C0A0    00000319 =         793. bytes (REL,CON)

      Value  Global                              Global Defined In Module
      -----  --------------------------------   ------------------------
     0000C0A0  __cpu                              Runtime
     0000C0A1  __is_GBA                           Runtime
     0000C0A2  .mode                              Runtime
     0000C0A3  .sys_time                          Runtime
     0000C0A3  _sys_time                          Runtime
     0000C0A5  .int_0x40                          Runtime
     0000C0B1  G$animation$0_0$0                  animation
     0000C0B1  _animation                         animation
     0000C208  G$extra_actors$0_0$0               extra_actors
     0000C208  _extra_actors                      extra_actors
     0000C244  G$inventory$0_0$0                  inventory
     0000C244  _inventory                         inventory
     0000C24C  G$names$0_0$0                      name
     0000C24C  _names                             name
     0000C292  G$npc_1$0_0$0                      npcs
     0000C292  _npc_1                             npcs
     0000C293  G$npc_2$0_0$0                      npcs
     0000C293  _npc_2                             npcs
     0000C294  G$option_actor$0_0$0               npcs
     0000C294  _option_actor                      npcs
     0000C295  G$humor_stats$0_0$0                npcs
     0000C295  _humor_stats                       npcs
     0000C2A4  G$CurrentNPCDialogues$0_0$0        npc_lines
     0000C2A4  _CurrentNPCDialogues               npc_lines
     0000C2A8  G$player$0_0$0                     player
     0000C2A8  _player                            player
     0000C2A9  G$mg_player$0_0$0                  player
     0000C2A9  _mg_player                         player
     0000C2AA  G$player_animations$0_0$0          player
     0000C2AA  _player_animations                 player
     0000C2AE  G$player_y_cache$0_0$0             player
     0000C2AE  _player_y_cache                    player
     0000C2AF  G$position$0_0$0                   position
     0000C2AF  _position                          position
     0000C2D9  G$cache$0_0$0                      position
     0000C2D9  _cache                             position
     0000C30A  G$actual_tile$0_0$0                position
     0000C30A  _actual_tile                       position
     0000C30E  G$render$0_0$0                     render
     0000C30E  _render                            render
     0000C323  G$scene_manager$0_0$0              scene_manager
     0000C323  _scene_manager                     scene_manager
     0000C327  G$speed$0_0$0                      speed
     0000C327  _speed                             speed
     0000C335  G$GenderSelect$0_0$0               gender_select
     0000C335  _GenderSelect                      gender_select
     0000C33E  G$InventoryScene$0_0$0             inventory_scene
     0000C33E  _InventoryScene                    inventory_scene
     0000C347  G$MainMenu$0_0$0                   main_menu
     0000C347  _MainMenu                          main_menu
ASxxxx Linker V03.00/V05.40 + sdld,  page 154.
Hexadecimal  [32-Bits]

Area                                    Addr        Size        Decimal Bytes (Attributes)
--------------------------------        ----        ----        ------- ----- ------------
_DATA                               0000C0A0    00000319 =         793. bytes (REL,CON)

      Value  Global                              Global Defined In Module
      -----  --------------------------------   ------------------------
     0000C350  G$CurrentMapData$0_0$0             map_data
     0000C350  _CurrentMapData                    map_data
     0000C362  G$Map_00$0_0$0                     map_00
     0000C362  _Map_00                            map_00
     0000C36B  G$Mg_Leaves$0_0$0                  mg_leaves
     0000C36B  _Mg_Leaves                         mg_leaves
     0000C374  G$actor_ids$0_0$0                  mg_leaves_init
     0000C374  _actor_ids                         mg_leaves_init
     0000C379  G$actor_x$0_0$0                    mg_leaves_init
     0000C379  _actor_x                           mg_leaves_init
     0000C37E  G$actor_y$0_0$0                    mg_leaves_init
     0000C37E  _actor_y                           mg_leaves_init
     0000C383  G$fixed_y$0_0$0                    mg_leaves_init
     0000C383  _fixed_y                           mg_leaves_init
     0000C38D  G$actor_active$0_0$0               mg_leaves_init
     0000C38D  _actor_active                      mg_leaves_init
     0000C392  G$actor_timer$0_0$0                mg_leaves_init
     0000C392  _actor_timer                       mg_leaves_init
     0000C397  G$actor_spawner$0_0$0              mg_leaves_init
     0000C397  _actor_spawner                     mg_leaves_init
     0000C3A1  G$actor_spawn_x$0_0$0              mg_leaves_init
     0000C3A1  _actor_spawn_x                     mg_leaves_init
     0000C3A6  G$actor_state$0_0$0                mg_leaves_init
     0000C3A6  _actor_state                       mg_leaves_init
     0000C3AB  G$mg_leaves_DATA$0_0$0             mg_leaves_init
     0000C3AB  _mg_leaves_DATA                    mg_leaves_init
     0000C3AE  G$available_x$0_0$0                mg_leaves_init
     0000C3AE  _available_x                       mg_leaves_init
     0000C3B3  Lmain.main$game$1_1$182            main
     0000C3B7  ___sdcc_heap_free                  malloc

ASxxxx Linker V03.00/V05.40 + sdld,  page 155.
Hexadecimal  [32-Bits]

Area                                    Addr        Size        Decimal Bytes (Attributes)
--------------------------------        ----        ----        ------- ----- ------------
_INITIALIZED                        0000C3B9    00000239 =         569. bytes (REL,CON)

      Value  Global                              Global Defined In Module
      -----  --------------------------------   ------------------------
     0000C3B9  G$spr_InventoryArrow_idle$0_0$0    spr_InventoryArrow_idle
     0000C3B9  _spr_InventoryArrow_idle           spr_InventoryArrow_idle
     0000C3C9  G$spr_broom_00$0_0$0               broom
     0000C3C9  _spr_broom_00                      broom
     0000C3D9  G$spr_broom_01$0_0$0               broom
     0000C3D9  _spr_broom_01                      broom
     0000C3E9  G$spr_garbage_00$0_0$0             spr_garbage
     0000C3E9  _spr_garbage_00                    spr_garbage
     0000C3F9  G$spr_leaf_00$0_0$0                leaf
     0000C3F9  _spr_leaf_00                       leaf
     0000C409  G$spr_example_NPC_00$0_0$0         example_npc
     0000C409  _spr_example_NPC_00                example_npc
     0000C419  G$spr_example_NPC_01$0_0$0         example_npc
     0000C419  _spr_example_NPC_01                example_npc
     0000C429  G$spr_example_NPC_10$0_0$0         example_npc
     0000C429  _spr_example_NPC_10                example_npc
     0000C439  G$spr_example_NPC_11$0_0$0         example_npc
     0000C439  _spr_example_NPC_11                example_npc
     0000C449  G$spr_Player_down0_00$0_0$0        spr_Player_down0
     0000C449  _spr_Player_down0_00               spr_Player_down0
     0000C459  G$spr_Player_down0_10$0_0$0        spr_Player_down0
     0000C459  _spr_Player_down0_10               spr_Player_down0
     0000C469  G$spr_Player_down0_01$0_0$0        spr_Player_down0
     0000C469  _spr_Player_down0_01               spr_Player_down0
     0000C479  G$spr_Player_down0_11$0_0$0        spr_Player_down0
     0000C479  _spr_Player_down0_11               spr_Player_down0
     0000C489  G$spr_Player_down1_00$0_0$0        spr_Player_down1
     0000C489  _spr_Player_down1_00               spr_Player_down1
     0000C499  G$spr_Player_down1_10$0_0$0        spr_Player_down1
     0000C499  _spr_Player_down1_10               spr_Player_down1
     0000C4A9  G$spr_Player_down1_01$0_0$0        spr_Player_down1
     0000C4A9  _spr_Player_down1_01               spr_Player_down1
     0000C4B9  G$spr_Player_down1_11$0_0$0        spr_Player_down1
     0000C4B9  _spr_Player_down1_11               spr_Player_down1
     0000C4C9  G$spr_Player_down2_00$0_0$0        spr_Player_down2
     0000C4C9  _spr_Player_down2_00               spr_Player_down2
     0000C4D9  G$spr_Player_down2_10$0_0$0        spr_Player_down2
     0000C4D9  _spr_Player_down2_10               spr_Player_down2
     0000C4E9  G$spr_Player_down2_01$0_0$0        spr_Player_down2
     0000C4E9  _spr_Player_down2_01               spr_Player_down2
     0000C4F9  G$spr_Player_down2_11$0_0$0        spr_Player_down2
     0000C4F9  _spr_Player_down2_11               spr_Player_down2
     0000C509  G$spr_Player_up0_00$0_0$0          spr_Player_up0
     0000C509  _spr_Player_up0_00                 spr_Player_up0
     0000C519  G$spr_Player_up0_10$0_0$0          spr_Player_up0
     0000C519  _spr_Player_up0_10                 spr_Player_up0
     0000C529  G$spr_Player_up0_01$0_0$0          spr_Player_up0
     0000C529  _spr_Player_up0_01                 spr_Player_up0
     0000C539  G$spr_Player_up0_11$0_0$0          spr_Player_up0
     0000C539  _spr_Player_up0_11                 spr_Player_up0
ASxxxx Linker V03.00/V05.40 + sdld,  page 156.
Hexadecimal  [32-Bits]

Area                                    Addr        Size        Decimal Bytes (Attributes)
--------------------------------        ----        ----        ------- ----- ------------
_INITIALIZED                        0000C3B9    00000239 =         569. bytes (REL,CON)

      Value  Global                              Global Defined In Module
      -----  --------------------------------   ------------------------
     0000C549  G$spr_Player_up1_00$0_0$0          spr_Player_up1
     0000C549  _spr_Player_up1_00                 spr_Player_up1
     0000C559  G$spr_Player_up1_10$0_0$0          spr_Player_up1
     0000C559  _spr_Player_up1_10                 spr_Player_up1
     0000C569  G$spr_Player_up1_01$0_0$0          spr_Player_up1
     0000C569  _spr_Player_up1_01                 spr_Player_up1
     0000C579  G$spr_Player_up1_11$0_0$0          spr_Player_up1
     0000C579  _spr_Player_up1_11                 spr_Player_up1
     0000C589  G$spr_Player_up2_00$0_0$0          spr_Player_up2
     0000C589  _spr_Player_up2_00                 spr_Player_up2
     0000C599  G$spr_Player_up2_10$0_0$0          spr_Player_up2
     0000C599  _spr_Player_up2_10                 spr_Player_up2
     0000C5A9  G$spr_Player_up2_01$0_0$0          spr_Player_up2
     0000C5A9  _spr_Player_up2_01                 spr_Player_up2
     0000C5B9  G$spr_Player_up2_11$0_0$0          spr_Player_up2
     0000C5B9  _spr_Player_up2_11                 spr_Player_up2
     0000C5C9  G$current_direction$0_0$0          action
     0000C5C9  _current_direction                 action
     0000C5CA  G$can_move$0_0$0                   can_move
     0000C5CA  _can_move                          can_move
     0000C5CE  G$next_entity_id$0_0$0             entity
     0000C5CE  _next_entity_id                    entity
     0000C5CF  G$extra_actor_index$0_0$0          extra_actors
     0000C5CF  _extra_actor_index                 extra_actors
     0000C5D0  G$GENDER$0_0$0                     gender_selection
     0000C5D0  _GENDER                            gender_selection
     0000C5D1  G$keys$0_0$0                       input
     0000C5D1  _keys                              input
     0000C5D2  G$prev_keys$0_0$0                  input
     0000C5D2  _prev_keys                         input
     0000C5D3  G$inventory_active$0_0$0           inventory
     0000C5D3  _inventory_active                  inventory
     0000C5D4  G$active_item$0_0$0                inventory
     0000C5D4  _active_item                       inventory
     0000C5D5  G$selected_item$0_0$0              inventory
     0000C5D5  _selected_item                     inventory
     0000C5D6  G$closing$0_0$0                    inventory
     0000C5D6  _closing                           inventory
     0000C5D7  G$vram_next_index$0_0$0            load
     0000C5D7  _vram_next_index                   load
     0000C5D8  G$vram_extra_start$0_0$0           load
     0000C5D8  _vram_extra_start                  load
     0000C5D9  G$minigame_list$0_0$0              minigames
     0000C5D9  _minigame_list                     minigames
     0000C5DA  G$money$0_0$0                      money
     0000C5DA  _money                             money
     0000C5DC  G$seed$0_0$0                       random
     0000C5DC  _seed                              random
     0000C5DE  G$is_transitioning$0_0$0           scene_manager
     0000C5DE  _is_transitioning                  scene_manager
     0000C5DF  G$timer$0_0$0                      main_menu
ASxxxx Linker V03.00/V05.40 + sdld,  page 157.
Hexadecimal  [32-Bits]

Area                                    Addr        Size        Decimal Bytes (Attributes)
--------------------------------        ----        ----        ------- ----- ------------
_INITIALIZED                        0000C3B9    00000239 =         569. bytes (REL,CON)

      Value  Global                              Global Defined In Module
      -----  --------------------------------   ------------------------
     0000C5DF  _timer                             main_menu
     0000C5E1  G$rate$0_0$0                       main_menu
     0000C5E1  _rate                              main_menu
     0000C5E2  G$show_text$0_0$0                  main_menu
     0000C5E2  _show_text                         main_menu
     0000C5E3  G$mgl_current_frame$0_0$0          mg_load_screen
     0000C5E3  _mgl_current_frame                 mg_load_screen
     0000C5E4  G$mgl_target_frame$0_0$0           mg_load_screen
     0000C5E4  _mgl_target_frame                  mg_load_screen
     0000C5E5  G$mgl_active$0_0$0                 mg_load_screen
     0000C5E5  _mgl_active                        mg_load_screen
     0000C5E6  G$mgl_initialized$0_0$0            mg_load_screen
     0000C5E6  _mgl_initialized                   mg_load_screen
     0000C5E7  G$mgt_current_frame$0_0$0          mg_timer
     0000C5E7  _mgt_current_frame                 mg_timer
     0000C5E9  G$mgt_target_frame$0_0$0           mg_timer
     0000C5E9  _mgt_target_frame                  mg_timer
     0000C5EB  G$mgt_running$0_0$0                mg_timer
     0000C5EB  _mgt_running                       mg_timer
     0000C5EC  G$mgt_alarm$0_0$0                  mg_timer
     0000C5EC  _mgt_alarm                         mg_timer
     0000C5ED  G$SWEEPING_FLAG$0_0$0              mg_leaves_init
     0000C5ED  _SWEEPING_FLAG                     mg_leaves_init
     0000C5EE  G$score$0_0$0                      mg_leaves_init
     0000C5EE  _score                             mg_leaves_init
     0000C5EF  G$score_cache$0_0$0                mg_leaves_init
     0000C5EF  _score_cache                       mg_leaves_init
     0000C5F0  G$next_spawn_idx$0_0$0             mg_leaves_init
     0000C5F0  _next_spawn_idx                    mg_leaves_init
     0000C5F1  __map_tile_offset                  SetTileMap

ASxxxx Linker V03.00/V05.40 + sdld,  page 158.
Hexadecimal  [32-Bits]

Area                                    Addr        Size        Decimal Bytes (Attributes)
--------------------------------        ----        ----        ------- ----- ------------
_HEAP                               0000C5F2    000007FF =        2047. bytes (REL,CON)

      Value  Global                              Global Defined In Module
      -----  --------------------------------   ------------------------
     0000C5F2  ___sdcc_heap                       

ASxxxx Linker V03.00/V05.40 + sdld,  page 159.
Hexadecimal  [32-Bits]

Area                                    Addr        Size        Decimal Bytes (Attributes)
--------------------------------        ----        ----        ------- ----- ------------
_HEAP_END                           0000CDF1    00000001 =           1. bytes (REL,CON)

      Value  Global                              Global Defined In Module
      -----  --------------------------------   ------------------------
     0000CDF1  ___sdcc_heap_end                   

ASxxxx Linker V03.00/V05.40 + sdld,  page 160.
Hexadecimal  [32-Bits]

Area                                    Addr        Size        Decimal Bytes (Attributes)
--------------------------------        ----        ----        ------- ----- ------------
_HRAM                               0000FF80    00000013 =          19. bytes (REL,CON)

      Value  Global                              Global Defined In Module
      -----  --------------------------------   ------------------------
     0000FF80  .refresh_OAM                       Runtime
     0000FF90  __current_bank                     Runtime
     0000FF91  __vbl_done                         Runtime
     0000FF92  __shadow_OAM_base                  Runtime

ASxxxx Linker V03.00/V05.40 + sdld,  page 161.
Hexadecimal  [32-Bits]

Area                                    Addr        Size        Decimal Bytes (Attributes)
--------------------------------        ----        ----        ------- ----- ------------
_CODE_1                             00014000    00001220 =        4640. bytes (REL,CON)

      Value  Global                              Global Defined In Module
      -----  --------------------------------   ------------------------
     00014000  G$inventory_bkg_tileset$0_0$0      inventory_bkg
     00014000  _inventory_bkg_tileset             inventory_bkg
     00014340  G$inventory_bkg_tilemap$0_0$0      inventory_bkg
     00014340  _inventory_bkg_tilemap             inventory_bkg
     000144A8  G$bkg_main_menu_tileset$0_0$0      bkg_MainMenu
     000144A8  _bkg_main_menu_tileset             bkg_MainMenu
     00014768  G$bkg_main_menu_tilemap$0_0$0      bkg_MainMenu
     00014768  _bkg_main_menu_tilemap             bkg_MainMenu
     000148D0  G$example_tileset$0_0$0            map_example
     000148D0  _example_tileset                   map_example
     00014D80  G$example_tilemap$0_0$0            map_example
     00014D80  _example_tilemap                   map_example
     00014EE8  G$template_tileset$0_0$0           template_tileset
     00014EE8  _template_tileset                  template_tileset
     000150B8  G$template_tilemap$0_0$0           template_tileset
     000150B8  _template_tilemap                  template_tileset

ASxxxx Linker V03.00/V05.40 + sdld,  page 162.
Hexadecimal  [32-Bits]

Area                                    Addr        Size        Decimal Bytes (Attributes)
--------------------------------        ----        ----        ------- ----- ------------
_CODE_2                             00024000    00000E0F =        3599. bytes (REL,CON)

      Value  Global                              Global Defined In Module
      -----  --------------------------------   ------------------------
     00024000  G$bkg_leaves_example_tileset$0_0   bkg_leaves_example
     00024000  _bkg_leaves_example_tileset        bkg_leaves_example
     00024420  G$bkg_leaves_example_tilemap$0_0   bkg_leaves_example
     00024420  _bkg_leaves_example_tilemap        bkg_leaves_example
     00024588  A$lcc1877280$123                   mg_leaves_init
     00024588  C$mg_leaves_init.c$47$0_0$176      mg_leaves_init
     00024588  G$Mg_Leaves_Init$0$0               mg_leaves_init
     00024588  _Mg_Leaves_Init                    mg_leaves_init
     0002458A  A$lcc1877280$127                   mg_leaves_init
     0002458A  C$mg_leaves_init.c$49$1_0$176      mg_leaves_init
     0002458D  A$lcc1877280$128                   mg_leaves_init
     0002458F  A$lcc1877280$129                   mg_leaves_init
     00024590  A$lcc1877280$133                   mg_leaves_init
     00024590  C$mg_leaves_init.c$50$1_0$176      mg_leaves_init
     00024591  A$lcc1877280$134                   mg_leaves_init
     00024592  A$lcc1877280$135                   mg_leaves_init
     00024593  A$lcc1877280$136                   mg_leaves_init
     00024595  A$lcc1877280$140                   mg_leaves_init
     00024595  C$mg_leaves_init.c$51$1_0$176      mg_leaves_init
     00024596  A$lcc1877280$141                   mg_leaves_init
     00024597  A$lcc1877280$142                   mg_leaves_init
     00024598  A$lcc1877280$143                   mg_leaves_init
     00024599  A$lcc1877280$144                   mg_leaves_init
     0002459B  A$lcc1877280$148                   mg_leaves_init
     0002459B  C$mg_leaves_init.c$53$1_0$176      mg_leaves_init
     0002459E  A$lcc1877280$149                   mg_leaves_init
     0002459F  A$lcc1877280$150                   mg_leaves_init
     000245A0  A$lcc1877280$151                   mg_leaves_init
     000245A1  A$lcc1877280$152                   mg_leaves_init
     000245A2  A$lcc1877280$162                   mg_leaves_init
     000245A2  C$mg_leaves_init.c$55$2_0$177      mg_leaves_init
     000245A2  C$mg_leaves_init.c$56$2_0$177      mg_leaves_init
     000245A2  C$mg_leaves_init.c$59$1_1$177      mg_leaves_init
     000245A4  A$lcc1877280$163                   mg_leaves_init
     000245A5  A$lcc1877280$164                   mg_leaves_init
     000245A6  A$lcc1877280$165                   mg_leaves_init
     000245A8  A$lcc1877280$166                   mg_leaves_init
     000245A9  A$lcc1877280$167                   mg_leaves_init
     000245AB  A$lcc1877280$171                   mg_leaves_init
     000245AB  C$mg_leaves_init.c$60$1_1$177      mg_leaves_init
     000245AD  A$lcc1877280$175                   mg_leaves_init
     000245AD  C$mg_leaves_init.c$62$1_1$177      mg_leaves_init
     000245AE  A$lcc1877280$176                   mg_leaves_init
     000245AF  A$lcc1877280$177                   mg_leaves_init
     000245B1  A$lcc1877280$178                   mg_leaves_init
     000245B2  A$lcc1877280$182                   mg_leaves_init
     000245B2  C$mg_leaves_init.c$63$1_1$177      mg_leaves_init
     000245B4  A$lcc1877280$183                   mg_leaves_init
     000245B5  A$lcc1877280$184                   mg_leaves_init
     000245B7  A$lcc1877280$188                   mg_leaves_init
ASxxxx Linker V03.00/V05.40 + sdld,  page 163.
Hexadecimal  [32-Bits]

Area                                    Addr        Size        Decimal Bytes (Attributes)
--------------------------------        ----        ----        ------- ----- ------------
_CODE_2                             00024000    00000E0F =        3599. bytes (REL,CON)

      Value  Global                              Global Defined In Module
      -----  --------------------------------   ------------------------
     000245B7  C$mg_leaves_init.c$65$1_1$177      mg_leaves_init
     000245B9  A$lcc1877280$189                   mg_leaves_init
     000245BA  A$lcc1877280$190                   mg_leaves_init
     000245BB  A$lcc1877280$191                   mg_leaves_init
     000245BE  A$lcc1877280$195                   mg_leaves_init
     000245BE  C$mg_leaves_init.c$67$2_1$178      mg_leaves_init
     000245C1  A$lcc1877280$196                   mg_leaves_init
     000245C2  A$lcc1877280$197                   mg_leaves_init
     000245C4  A$lcc1877280$201                   mg_leaves_init
     000245C4  C$mg_leaves_init.c$68$2_1$178      mg_leaves_init
     000245C7  A$lcc1877280$206                   mg_leaves_init
     000245C7  C$mg_leaves_init.c$70$2_1$179      mg_leaves_init
     000245C9  A$lcc1877280$207                   mg_leaves_init
     000245CB  A$lcc1877280$208                   mg_leaves_init
     000245CC  A$lcc1877280$209                   mg_leaves_init
     000245CE  A$lcc1877280$210                   mg_leaves_init
     000245CF  A$lcc1877280$211                   mg_leaves_init
     000245D1  A$lcc1877280$212                   mg_leaves_init
     000245D2  A$lcc1877280$213                   mg_leaves_init
     000245D3  A$lcc1877280$214                   mg_leaves_init
     000245D5  A$lcc1877280$215                   mg_leaves_init
     000245D6  A$lcc1877280$216                   mg_leaves_init
     000245D8  A$lcc1877280$217                   mg_leaves_init
     000245D9  A$lcc1877280$218                   mg_leaves_init
     000245DB  A$lcc1877280$219                   mg_leaves_init
     000245DC  A$lcc1877280$220                   mg_leaves_init
     000245DE  A$lcc1877280$221                   mg_leaves_init
     000245DF  A$lcc1877280$222                   mg_leaves_init
     000245E1  A$lcc1877280$223                   mg_leaves_init
     000245E2  A$lcc1877280$224                   mg_leaves_init
     000245E3  A$lcc1877280$225                   mg_leaves_init
     000245E4  A$lcc1877280$226                   mg_leaves_init
     000245E5  A$lcc1877280$227                   mg_leaves_init
     000245E7  A$lcc1877280$231                   mg_leaves_init
     000245E7  C$mg_leaves_init.c$71$1_4$176      mg_leaves_init
     000245EA  A$lcc1877280$232                   mg_leaves_init
     000245EB  A$lcc1877280$233                   mg_leaves_init
     000245EC  A$lcc1877280$234                   mg_leaves_init
     000245ED  A$lcc1877280$235                   mg_leaves_init
     000245F0  A$lcc1877280$239                   mg_leaves_init
     000245F0  C$mg_leaves_init.c$73$1_2$179      mg_leaves_init
     000245F3  A$lcc1877280$243                   mg_leaves_init
     000245F3  C$mg_leaves_init.c$75$1_2$179      mg_leaves_init
     000245F6  A$lcc1877280$247                   mg_leaves_init
     000245F6  C$mg_leaves_init.c$76$1_2$179      mg_leaves_init
     000245F9  A$lcc1877280$248                   mg_leaves_init
     000245FA  A$lcc1877280$249                   mg_leaves_init
     000245FB  A$lcc1877280$250                   mg_leaves_init
     000245FC  A$lcc1877280$251                   mg_leaves_init
     000245FF  A$lcc1877280$255                   mg_leaves_init
     000245FF  C$mg_leaves_init.c$78$1_2$179      mg_leaves_init
ASxxxx Linker V03.00/V05.40 + sdld,  page 164.
Hexadecimal  [32-Bits]

Area                                    Addr        Size        Decimal Bytes (Attributes)
--------------------------------        ----        ----        ------- ----- ------------
_CODE_2                             00024000    00000E0F =        3599. bytes (REL,CON)

      Value  Global                              Global Defined In Module
      -----  --------------------------------   ------------------------
     00024601  A$lcc1877280$256                   mg_leaves_init
     00024603  A$lcc1877280$257                   mg_leaves_init
     00024606  A$lcc1877280$261                   mg_leaves_init
     00024606  C$mg_leaves_init.c$80$1_2$179      mg_leaves_init
     00024609  A$lcc1877280$265                   mg_leaves_init
     00024609  C$mg_leaves_init.c$82$3_2$181      mg_leaves_init
     0002460B  A$lcc1877280$266                   mg_leaves_init
     0002460D  A$lcc1877280$268                   mg_leaves_init
     0002460F  A$lcc1877280$269                   mg_leaves_init
     00024610  A$lcc1877280$270                   mg_leaves_init
     00024612  A$lcc1877280$271                   mg_leaves_init
     00024614  A$lcc1877280$275                   mg_leaves_init
     00024614  C$mg_leaves_init.c$85$3_2$181      mg_leaves_init
     00024617  A$lcc1877280$276                   mg_leaves_init
     00024618  A$lcc1877280$277                   mg_leaves_init
     0002461A  A$lcc1877280$278                   mg_leaves_init
     0002461B  A$lcc1877280$279                   mg_leaves_init
     0002461C  A$lcc1877280$280                   mg_leaves_init
     0002461D  A$lcc1877280$281                   mg_leaves_init
     0002461F  A$lcc1877280$282                   mg_leaves_init
     00024620  A$lcc1877280$283                   mg_leaves_init
     00024621  A$lcc1877280$284                   mg_leaves_init
     00024622  A$lcc1877280$285                   mg_leaves_init
     00024624  A$lcc1877280$286                   mg_leaves_init
     00024625  A$lcc1877280$287                   mg_leaves_init
     00024626  A$lcc1877280$288                   mg_leaves_init
     00024627  A$lcc1877280$289                   mg_leaves_init
     00024629  A$lcc1877280$290                   mg_leaves_init
     0002462B  A$lcc1877280$291                   mg_leaves_init
     0002462D  A$lcc1877280$292                   mg_leaves_init
     0002462E  A$lcc1877280$293                   mg_leaves_init
     0002462F  A$lcc1877280$294                   mg_leaves_init
     00024630  A$lcc1877280$295                   mg_leaves_init
     00024631  A$lcc1877280$296                   mg_leaves_init
     00024632  A$lcc1877280$300                   mg_leaves_init
     00024632  C$mg_leaves_init.c$88$3_2$181      mg_leaves_init
     00024635  A$lcc1877280$301                   mg_leaves_init
     00024637  A$lcc1877280$302                   mg_leaves_init
     00024638  A$lcc1877280$303                   mg_leaves_init
     0002463A  A$lcc1877280$304                   mg_leaves_init
     0002463B  A$lcc1877280$305                   mg_leaves_init
     0002463C  A$lcc1877280$306                   mg_leaves_init
     0002463D  A$lcc1877280$307                   mg_leaves_init
     0002463E  A$lcc1877280$308                   mg_leaves_init
     0002463F  A$lcc1877280$312                   mg_leaves_init
     0002463F  C$mg_leaves_init.c$89$3_2$181      mg_leaves_init
     00024642  A$lcc1877280$313                   mg_leaves_init
     00024644  A$lcc1877280$314                   mg_leaves_init
     00024645  A$lcc1877280$315                   mg_leaves_init
     00024647  A$lcc1877280$316                   mg_leaves_init
     00024648  A$lcc1877280$317                   mg_leaves_init
ASxxxx Linker V03.00/V05.40 + sdld,  page 165.
Hexadecimal  [32-Bits]

Area                                    Addr        Size        Decimal Bytes (Attributes)
--------------------------------        ----        ----        ------- ----- ------------
_CODE_2                             00024000    00000E0F =        3599. bytes (REL,CON)

      Value  Global                              Global Defined In Module
      -----  --------------------------------   ------------------------
     0002464A  A$lcc1877280$321                   mg_leaves_init
     0002464A  C$mg_leaves_init.c$90$3_2$181      mg_leaves_init
     0002464D  A$lcc1877280$322                   mg_leaves_init
     0002464F  A$lcc1877280$323                   mg_leaves_init
     00024650  A$lcc1877280$324                   mg_leaves_init
     00024652  A$lcc1877280$325                   mg_leaves_init
     00024653  A$lcc1877280$326                   mg_leaves_init
     00024654  A$lcc1877280$327                   mg_leaves_init
     00024655  A$lcc1877280$328                   mg_leaves_init
     00024656  A$lcc1877280$329                   mg_leaves_init
     00024657  A$lcc1877280$333                   mg_leaves_init
     00024657  C$mg_leaves_init.c$82$2_2$180      mg_leaves_init
     00024659  A$lcc1877280$334                   mg_leaves_init
     0002465A  A$lcc1877280$335                   mg_leaves_init
     0002465C  A$lcc1877280$340                   mg_leaves_init
     0002465C  C$mg_leaves_init.c$94$3_2$183      mg_leaves_init
     0002465E  A$lcc1877280$342                   mg_leaves_init
     00024660  A$lcc1877280$343                   mg_leaves_init
     00024661  A$lcc1877280$344                   mg_leaves_init
     00024663  A$lcc1877280$348                   mg_leaves_init
     00024663  C$mg_leaves_init.c$96$3_2$183      mg_leaves_init
     00024664  A$lcc1877280$349                   mg_leaves_init
     00024666  A$lcc1877280$350                   mg_leaves_init
     00024667  A$lcc1877280$351                   mg_leaves_init
     00024668  A$lcc1877280$352                   mg_leaves_init
     0002466B  A$lcc1877280$353                   mg_leaves_init
     0002466C  A$lcc1877280$354                   mg_leaves_init
     0002466F  A$lcc1877280$355                   mg_leaves_init
     00024670  A$lcc1877280$356                   mg_leaves_init
     00024671  A$lcc1877280$360                   mg_leaves_init
     00024671  C$mg_leaves_init.c$97$3_2$183      mg_leaves_init
     00024674  A$lcc1877280$361                   mg_leaves_init
     00024676  A$lcc1877280$362                   mg_leaves_init
     00024677  A$lcc1877280$363                   mg_leaves_init
     00024678  A$lcc1877280$367                   mg_leaves_init
     00024678  C$mg_leaves_init.c$98$3_2$183      mg_leaves_init
     0002467B  A$lcc1877280$368                   mg_leaves_init
     0002467D  A$lcc1877280$369                   mg_leaves_init
     0002467E  A$lcc1877280$370                   mg_leaves_init
     00024680  A$lcc1877280$374                   mg_leaves_init
     00024680  C$mg_leaves_init.c$100$3_2$183     mg_leaves_init
     00024683  A$lcc1877280$375                   mg_leaves_init
     00024685  A$lcc1877280$376                   mg_leaves_init
     00024686  A$lcc1877280$377                   mg_leaves_init
     00024688  A$lcc1877280$378                   mg_leaves_init
     00024689  A$lcc1877280$379                   mg_leaves_init
     0002468A  A$lcc1877280$380                   mg_leaves_init
     0002468C  A$lcc1877280$381                   mg_leaves_init
     0002468E  A$lcc1877280$382                   mg_leaves_init
     0002468F  A$lcc1877280$383                   mg_leaves_init
     00024690  A$lcc1877280$384                   mg_leaves_init
ASxxxx Linker V03.00/V05.40 + sdld,  page 166.
Hexadecimal  [32-Bits]

Area                                    Addr        Size        Decimal Bytes (Attributes)
--------------------------------        ----        ----        ------- ----- ------------
_CODE_2                             00024000    00000E0F =        3599. bytes (REL,CON)

      Value  Global                              Global Defined In Module
      -----  --------------------------------   ------------------------
     00024691  A$lcc1877280$388                   mg_leaves_init
     00024691  C$mg_leaves_init.c$101$3_2$183     mg_leaves_init
     00024694  A$lcc1877280$389                   mg_leaves_init
     00024696  A$lcc1877280$390                   mg_leaves_init
     00024697  A$lcc1877280$391                   mg_leaves_init
     00024698  A$lcc1877280$392                   mg_leaves_init
     00024699  A$lcc1877280$396                   mg_leaves_init
     00024699  C$mg_leaves_init.c$103$3_2$183     mg_leaves_init
     0002469C  A$lcc1877280$397                   mg_leaves_init
     0002469E  A$lcc1877280$398                   mg_leaves_init
     0002469F  A$lcc1877280$399                   mg_leaves_init
     000246A1  A$lcc1877280$403                   mg_leaves_init
     000246A1  C$mg_leaves_init.c$104$3_2$183     mg_leaves_init
     000246A2  A$lcc1877280$404                   mg_leaves_init
     000246A3  A$lcc1877280$405                   mg_leaves_init
     000246A4  A$lcc1877280$406                   mg_leaves_init
     000246A5  A$lcc1877280$407                   mg_leaves_init
     000246A8  A$lcc1877280$408                   mg_leaves_init
     000246A9  A$lcc1877280$409                   mg_leaves_init
     000246AA  A$lcc1877280$410                   mg_leaves_init
     000246AB  A$lcc1877280$411                   mg_leaves_init
     000246AC  A$lcc1877280$415                   mg_leaves_init
     000246AC  C$mg_leaves_init.c$106$3_2$183     mg_leaves_init
     000246AF  A$lcc1877280$416                   mg_leaves_init
     000246B1  A$lcc1877280$417                   mg_leaves_init
     000246B2  A$lcc1877280$418                   mg_leaves_init
     000246B4  A$lcc1877280$422                   mg_leaves_init
     000246B4  C$mg_leaves_init.c$94$2_2$182      mg_leaves_init
     000246B5  A$lcc1877280$423                   mg_leaves_init
     000246B7  A$lcc1877280$428                   mg_leaves_init
     000246B7  C$mg_leaves_init.c$110$3_2$185     mg_leaves_init
     000246B9  A$lcc1877280$429                   mg_leaves_init
     000246BB  A$lcc1877280$431                   mg_leaves_init
     000246BD  A$lcc1877280$432                   mg_leaves_init
     000246BE  A$lcc1877280$433                   mg_leaves_init
     000246C0  A$lcc1877280$434                   mg_leaves_init
     000246C2  A$lcc1877280$438                   mg_leaves_init
     000246C2  C$mg_leaves_init.c$112$3_2$185     mg_leaves_init
     000246C4  A$lcc1877280$439                   mg_leaves_init
     000246C5  A$lcc1877280$440                   mg_leaves_init
     000246C6  A$lcc1877280$441                   mg_leaves_init
     000246C9  A$lcc1877280$442                   mg_leaves_init
     000246CA  A$lcc1877280$443                   mg_leaves_init
     000246CD  A$lcc1877280$444                   mg_leaves_init
     000246CE  A$lcc1877280$448                   mg_leaves_init
     000246CE  C$mg_leaves_init.c$113$3_2$185     mg_leaves_init
     000246D1  A$lcc1877280$449                   mg_leaves_init
     000246D3  A$lcc1877280$450                   mg_leaves_init
     000246D4  A$lcc1877280$451                   mg_leaves_init
     000246D6  A$lcc1877280$452                   mg_leaves_init
     000246D7  A$lcc1877280$453                   mg_leaves_init
ASxxxx Linker V03.00/V05.40 + sdld,  page 167.
Hexadecimal  [32-Bits]

Area                                    Addr        Size        Decimal Bytes (Attributes)
--------------------------------        ----        ----        ------- ----- ------------
_CODE_2                             00024000    00000E0F =        3599. bytes (REL,CON)

      Value  Global                              Global Defined In Module
      -----  --------------------------------   ------------------------
     000246D8  A$lcc1877280$454                   mg_leaves_init
     000246D9  A$lcc1877280$455                   mg_leaves_init
     000246DA  A$lcc1877280$456                   mg_leaves_init
     000246DB  A$lcc1877280$460                   mg_leaves_init
     000246DB  C$mg_leaves_init.c$114$3_2$185     mg_leaves_init
     000246DE  A$lcc1877280$461                   mg_leaves_init
     000246E0  A$lcc1877280$462                   mg_leaves_init
     000246E1  A$lcc1877280$463                   mg_leaves_init
     000246E3  A$lcc1877280$464                   mg_leaves_init
     000246E4  A$lcc1877280$465                   mg_leaves_init
     000246E5  A$lcc1877280$466                   mg_leaves_init
     000246E6  A$lcc1877280$467                   mg_leaves_init
     000246E7  A$lcc1877280$468                   mg_leaves_init
     000246E8  A$lcc1877280$472                   mg_leaves_init
     000246E8  C$mg_leaves_init.c$116$3_2$185     mg_leaves_init
     000246EB  A$lcc1877280$473                   mg_leaves_init
     000246ED  A$lcc1877280$474                   mg_leaves_init
     000246EE  A$lcc1877280$475                   mg_leaves_init
     000246F0  A$lcc1877280$476                   mg_leaves_init
     000246F1  A$lcc1877280$477                   mg_leaves_init
     000246F2  A$lcc1877280$478                   mg_leaves_init
     000246F3  A$lcc1877280$479                   mg_leaves_init
     000246F6  A$lcc1877280$480                   mg_leaves_init
     000246F8  A$lcc1877280$481                   mg_leaves_init
     000246F9  A$lcc1877280$482                   mg_leaves_init
     000246FB  A$lcc1877280$483                   mg_leaves_init
     000246FC  A$lcc1877280$484                   mg_leaves_init
     000246FD  A$lcc1877280$485                   mg_leaves_init
     000246FE  A$lcc1877280$486                   mg_leaves_init
     000246FF  A$lcc1877280$487                   mg_leaves_init
     00024700  A$lcc1877280$491                   mg_leaves_init
     00024700  C$mg_leaves_init.c$117$3_2$185     mg_leaves_init
     00024701  A$lcc1877280$492                   mg_leaves_init
     00024704  A$lcc1877280$493                   mg_leaves_init
     00024706  A$lcc1877280$494                   mg_leaves_init
     00024707  A$lcc1877280$495                   mg_leaves_init
     00024709  A$lcc1877280$496                   mg_leaves_init
     0002470A  A$lcc1877280$497                   mg_leaves_init
     0002470B  A$lcc1877280$498                   mg_leaves_init
     0002470C  A$lcc1877280$499                   mg_leaves_init
     0002470D  A$lcc1877280$500                   mg_leaves_init
     0002470E  A$lcc1877280$501                   mg_leaves_init
     0002470F  A$lcc1877280$505                   mg_leaves_init
     0002470F  C$mg_leaves_init.c$119$3_2$185     mg_leaves_init
     00024712  A$lcc1877280$506                   mg_leaves_init
     00024714  A$lcc1877280$507                   mg_leaves_init
     00024715  A$lcc1877280$508                   mg_leaves_init
     00024717  A$lcc1877280$509                   mg_leaves_init
     00024718  A$lcc1877280$510                   mg_leaves_init
     00024719  A$lcc1877280$511                   mg_leaves_init
     0002471A  A$lcc1877280$512                   mg_leaves_init
ASxxxx Linker V03.00/V05.40 + sdld,  page 168.
Hexadecimal  [32-Bits]

Area                                    Addr        Size        Decimal Bytes (Attributes)
--------------------------------        ----        ----        ------- ----- ------------
_CODE_2                             00024000    00000E0F =        3599. bytes (REL,CON)

      Value  Global                              Global Defined In Module
      -----  --------------------------------   ------------------------
     0002471B  A$lcc1877280$513                   mg_leaves_init
     0002471C  A$lcc1877280$517                   mg_leaves_init
     0002471C  C$mg_leaves_init.c$120$3_2$185     mg_leaves_init
     0002471E  A$lcc1877280$518                   mg_leaves_init
     0002471F  A$lcc1877280$519                   mg_leaves_init
     00024720  A$lcc1877280$520                   mg_leaves_init
     00024721  A$lcc1877280$521                   mg_leaves_init
     00024722  A$lcc1877280$522                   mg_leaves_init
     00024723  A$lcc1877280$523                   mg_leaves_init
     00024726  A$lcc1877280$524                   mg_leaves_init
     00024727  A$lcc1877280$525                   mg_leaves_init
     00024728  A$lcc1877280$526                   mg_leaves_init
     00024729  A$lcc1877280$527                   mg_leaves_init
     0002472A  A$lcc1877280$531                   mg_leaves_init
     0002472A  C$mg_leaves_init.c$122$3_2$185     mg_leaves_init
     0002472D  A$lcc1877280$532                   mg_leaves_init
     0002472F  A$lcc1877280$533                   mg_leaves_init
     00024730  A$lcc1877280$534                   mg_leaves_init
     00024732  A$lcc1877280$535                   mg_leaves_init
     00024733  A$lcc1877280$536                   mg_leaves_init
     00024734  A$lcc1877280$537                   mg_leaves_init
     00024736  A$lcc1877280$541                   mg_leaves_init
     00024736  C$mg_leaves_init.c$110$2_2$184     mg_leaves_init
     00024738  A$lcc1877280$542                   mg_leaves_init
     00024739  A$lcc1877280$543                   mg_leaves_init
     0002473C  A$lcc1877280$548                   mg_leaves_init
     0002473C  C$mg_leaves_init.c$125$2_2$186     mg_leaves_init
     0002473E  A$lcc1877280$549                   mg_leaves_init
     00024740  A$lcc1877280$550                   mg_leaves_init
     00024741  A$lcc1877280$551                   mg_leaves_init
     00024743  A$lcc1877280$552                   mg_leaves_init
     00024744  A$lcc1877280$553                   mg_leaves_init
     00024746  A$lcc1877280$554                   mg_leaves_init
     00024747  A$lcc1877280$555                   mg_leaves_init
     00024749  A$lcc1877280$556                   mg_leaves_init
     0002474A  A$lcc1877280$557                   mg_leaves_init
     0002474C  A$lcc1877280$558                   mg_leaves_init
     0002474D  A$lcc1877280$559                   mg_leaves_init
     0002474F  A$lcc1877280$563                   mg_leaves_init
     0002474F  C$mg_leaves_init.c$127$1_4$176     mg_leaves_init
     00024751  A$lcc1877280$565                   mg_leaves_init
     00024752  A$lcc1877280$566                   mg_leaves_init
     00024754  A$lcc1877280$567                   mg_leaves_init
     00024756  A$lcc1877280$571                   mg_leaves_init
     00024756  C$mg_leaves_init.c$129$3_3$188     mg_leaves_init
     00024757  A$lcc1877280$572                   mg_leaves_init
     00024759  A$lcc1877280$573                   mg_leaves_init
     0002475C  A$lcc1877280$574                   mg_leaves_init
     0002475D  A$lcc1877280$575                   mg_leaves_init
     0002475E  A$lcc1877280$576                   mg_leaves_init
     0002475F  A$lcc1877280$577                   mg_leaves_init
ASxxxx Linker V03.00/V05.40 + sdld,  page 169.
Hexadecimal  [32-Bits]

Area                                    Addr        Size        Decimal Bytes (Attributes)
--------------------------------        ----        ----        ------- ----- ------------
_CODE_2                             00024000    00000E0F =        3599. bytes (REL,CON)

      Value  Global                              Global Defined In Module
      -----  --------------------------------   ------------------------
     00024760  A$lcc1877280$578                   mg_leaves_init
     00024763  A$lcc1877280$579                   mg_leaves_init
     00024764  A$lcc1877280$580                   mg_leaves_init
     00024765  A$lcc1877280$581                   mg_leaves_init
     00024766  A$lcc1877280$582                   mg_leaves_init
     00024768  A$lcc1877280$586                   mg_leaves_init
     00024768  C$mg_leaves_init.c$130$3_3$188     mg_leaves_init
     00024769  A$lcc1877280$587                   mg_leaves_init
     0002476A  A$lcc1877280$588                   mg_leaves_init
     0002476B  A$lcc1877280$589                   mg_leaves_init
     0002476C  A$lcc1877280$590                   mg_leaves_init
     0002476D  A$lcc1877280$591                   mg_leaves_init
     0002476F  A$lcc1877280$592                   mg_leaves_init
     00024770  A$lcc1877280$593                   mg_leaves_init
     00024773  A$lcc1877280$594                   mg_leaves_init
     00024774  A$lcc1877280$598                   mg_leaves_init
     00024774  C$mg_leaves_init.c$127$2_3$187     mg_leaves_init
     00024775  A$lcc1877280$599                   mg_leaves_init
     00024777  A$lcc1877280$604                   mg_leaves_init
     00024777  C$mg_leaves_init.c$133$1_4$189     mg_leaves_init
     0002477A  A$lcc1877280$608                   mg_leaves_init
     0002477A  C$mg_leaves_init.c$134$1_4$176     mg_leaves_init
     0002477C  A$lcc1877280$609                   mg_leaves_init
     0002477D  A$lcc1877280$610                   mg_leaves_init
     0002477F  A$lcc1877280$611                   mg_leaves_init
     00024782  A$lcc1877280$612                   mg_leaves_init
     00024783  A$lcc1877280$613                   mg_leaves_init
     00024785  A$lcc1877280$614                   mg_leaves_init
     00024788  A$lcc1877280$615                   mg_leaves_init
     00024789  A$lcc1877280$616                   mg_leaves_init
     0002478B  A$lcc1877280$617                   mg_leaves_init
     0002478D  A$lcc1877280$621                   mg_leaves_init
     0002478D  C$mg_leaves_init.c$135$1_4$176     mg_leaves_init
     0002478E  A$lcc1877280$622                   mg_leaves_init
     0002478F  A$lcc1877280$623                   mg_leaves_init
     00024791  A$lcc1877280$624                   mg_leaves_init
     00024792  A$lcc1877280$625                   mg_leaves_init
     00024795  A$lcc1877280$626                   mg_leaves_init
     00024796  A$lcc1877280$627                   mg_leaves_init
     00024798  A$lcc1877280$628                   mg_leaves_init
     0002479B  A$lcc1877280$629                   mg_leaves_init
     0002479C  A$lcc1877280$630                   mg_leaves_init
     0002479E  A$lcc1877280$631                   mg_leaves_init
     000247A0  A$lcc1877280$635                   mg_leaves_init
     000247A0  C$mg_leaves_init.c$136$1_4$176     mg_leaves_init
     000247A1  A$lcc1877280$636                   mg_leaves_init
     000247A3  A$lcc1877280$637                   mg_leaves_init
     000247A4  A$lcc1877280$638                   mg_leaves_init
     000247A7  A$lcc1877280$639                   mg_leaves_init
     000247A8  A$lcc1877280$640                   mg_leaves_init
     000247AA  A$lcc1877280$641                   mg_leaves_init
ASxxxx Linker V03.00/V05.40 + sdld,  page 170.
Hexadecimal  [32-Bits]

Area                                    Addr        Size        Decimal Bytes (Attributes)
--------------------------------        ----        ----        ------- ----- ------------
_CODE_2                             00024000    00000E0F =        3599. bytes (REL,CON)

      Value  Global                              Global Defined In Module
      -----  --------------------------------   ------------------------
     000247AC  A$lcc1877280$642                   mg_leaves_init
     000247AD  A$lcc1877280$646                   mg_leaves_init
     000247AD  C$mg_leaves_init.c$138$1_4$189     mg_leaves_init
     000247AF  A$lcc1877280$647                   mg_leaves_init
     000247B0  A$lcc1877280$648                   mg_leaves_init
     000247B1  A$lcc1877280$649                   mg_leaves_init
     000247B3  A$lcc1877280$650                   mg_leaves_init
     000247B5  A$lcc1877280$651                   mg_leaves_init
     000247B8  A$lcc1877280$655                   mg_leaves_init
     000247B8  C$mg_leaves_init.c$139$1_4$189     mg_leaves_init
     000247BA  A$lcc1877280$656                   mg_leaves_init
     000247BB  A$lcc1877280$657                   mg_leaves_init
     000247BC  A$lcc1877280$658                   mg_leaves_init
     000247BD  A$lcc1877280$659                   mg_leaves_init
     000247BF  A$lcc1877280$660                   mg_leaves_init
     000247C1  A$lcc1877280$661                   mg_leaves_init
     000247C4  A$lcc1877280$665                   mg_leaves_init
     000247C4  C$mg_leaves_init.c$140$1_4$189     mg_leaves_init
     000247C6  A$lcc1877280$666                   mg_leaves_init
     000247C7  A$lcc1877280$667                   mg_leaves_init
     000247C8  A$lcc1877280$668                   mg_leaves_init
     000247C9  A$lcc1877280$669                   mg_leaves_init
     000247CB  A$lcc1877280$670                   mg_leaves_init
     000247CD  A$lcc1877280$671                   mg_leaves_init
     000247D0  A$lcc1877280$675                   mg_leaves_init
     000247D0  C$mg_leaves_init.c$141$1_4$189     mg_leaves_init
     000247D2  A$lcc1877280$676                   mg_leaves_init
     000247D3  A$lcc1877280$677                   mg_leaves_init
     000247D4  A$lcc1877280$678                   mg_leaves_init
     000247D5  A$lcc1877280$679                   mg_leaves_init
     000247D7  A$lcc1877280$680                   mg_leaves_init
     000247D9  A$lcc1877280$681                   mg_leaves_init
     000247DC  A$lcc1877280$685                   mg_leaves_init
     000247DC  C$mg_leaves_init.c$143$1_4$189     mg_leaves_init
     000247DF  A$lcc1877280$686                   mg_leaves_init
     000247E2  A$lcc1877280$690                   mg_leaves_init
     000247E4  A$lcc1877280$695                   mg_leaves_init
     000247E4  C$mg_leaves_init.c$144$1_4$176     mg_leaves_init
     000247E4  XG$Mg_Leaves_Init$0$0              mg_leaves_init
     000247E5  Fmg_leaves_init$__str_0$0_0$0      mg_leaves_init
     000247EA  Fmg_leaves_init$__str_1$0_0$0      mg_leaves_init
     000247F0  A$lcc1877282$53                    mg_leaves_player_init
     000247F0  C$mg_leaves_player_init.c$11$0_0   mg_leaves_player_init
     000247F0  G$Mg_Leaves_Player_Init$0$0        mg_leaves_player_init
     000247F0  _Mg_Leaves_Player_Init             mg_leaves_player_init
     000247F2  A$lcc1877282$57                    mg_leaves_player_init
     000247F2  C$mg_leaves_player_init.c$13$1_0   mg_leaves_player_init
     000247F5  A$lcc1877282$58                    mg_leaves_player_init
     000247F6  A$lcc1877282$59                    mg_leaves_player_init
     000247F8  A$lcc1877282$60                    mg_leaves_player_init
     000247FB  A$lcc1877282$61                    mg_leaves_player_init
ASxxxx Linker V03.00/V05.40 + sdld,  page 171.
Hexadecimal  [32-Bits]

Area                                    Addr        Size        Decimal Bytes (Attributes)
--------------------------------        ----        ----        ------- ----- ------------
_CODE_2                             00024000    00000E0F =        3599. bytes (REL,CON)

      Value  Global                              Global Defined In Module
      -----  --------------------------------   ------------------------
     000247FC  A$lcc1877282$62                    mg_leaves_player_init
     000247FE  A$lcc1877282$66                    mg_leaves_player_init
     000247FE  C$mg_leaves_player_init.c$14$1_0   mg_leaves_player_init
     00024801  A$lcc1877282$67                    mg_leaves_player_init
     00024804  A$lcc1877282$68                    mg_leaves_player_init
     00024805  A$lcc1877282$69                    mg_leaves_player_init
     00024807  A$lcc1877282$70                    mg_leaves_player_init
     00024808  A$lcc1877282$71                    mg_leaves_player_init
     0002480A  A$lcc1877282$75                    mg_leaves_player_init
     0002480A  C$mg_leaves_player_init.c$15$1_0   mg_leaves_player_init
     0002480D  A$lcc1877282$76                    mg_leaves_player_init
     00024810  A$lcc1877282$77                    mg_leaves_player_init
     00024811  A$lcc1877282$78                    mg_leaves_player_init
     00024812  A$lcc1877282$79                    mg_leaves_player_init
     00024813  A$lcc1877282$80                    mg_leaves_player_init
     00024814  A$lcc1877282$81                    mg_leaves_player_init
     00024815  A$lcc1877282$82                    mg_leaves_player_init
     00024817  A$lcc1877282$83                    mg_leaves_player_init
     00024818  A$lcc1877282$84                    mg_leaves_player_init
     0002481A  A$lcc1877282$88                    mg_leaves_player_init
     0002481A  C$mg_leaves_player_init.c$17$1_0   mg_leaves_player_init
     0002481D  A$lcc1877282$89                    mg_leaves_player_init
     00024820  A$lcc1877282$90                    mg_leaves_player_init
     00024821  A$lcc1877282$91                    mg_leaves_player_init
     00024822  A$lcc1877282$92                    mg_leaves_player_init
     00024824  A$lcc1877282$93                    mg_leaves_player_init
     00024825  A$lcc1877282$94                    mg_leaves_player_init
     00024828  A$lcc1877282$95                    mg_leaves_player_init
     0002482A  A$lcc1877282$96                    mg_leaves_player_init
     0002482B  A$lcc1877282$97                    mg_leaves_player_init
     0002482D  A$lcc1877282$98                    mg_leaves_player_init
     0002482F  A$lcc1877282$99                    mg_leaves_player_init
     00024830  A$lcc1877282$100                   mg_leaves_player_init
     00024831  A$lcc1877282$101                   mg_leaves_player_init
     00024832  A$lcc1877282$102                   mg_leaves_player_init
     00024833  A$lcc1877282$103                   mg_leaves_player_init
     00024834  A$lcc1877282$104                   mg_leaves_player_init
     00024835  A$lcc1877282$108                   mg_leaves_player_init
     00024835  C$mg_leaves_player_init.c$18$1_0   mg_leaves_player_init
     00024838  A$lcc1877282$109                   mg_leaves_player_init
     00024839  A$lcc1877282$110                   mg_leaves_player_init
     0002483A  A$lcc1877282$111                   mg_leaves_player_init
     0002483C  A$lcc1877282$112                   mg_leaves_player_init
     0002483D  A$lcc1877282$113                   mg_leaves_player_init
     0002483F  A$lcc1877282$114                   mg_leaves_player_init
     00024841  A$lcc1877282$115                   mg_leaves_player_init
     00024842  A$lcc1877282$116                   mg_leaves_player_init
     00024843  A$lcc1877282$117                   mg_leaves_player_init
     00024845  A$lcc1877282$118                   mg_leaves_player_init
     00024846  A$lcc1877282$119                   mg_leaves_player_init
     00024847  A$lcc1877282$120                   mg_leaves_player_init
ASxxxx Linker V03.00/V05.40 + sdld,  page 172.
Hexadecimal  [32-Bits]

Area                                    Addr        Size        Decimal Bytes (Attributes)
--------------------------------        ----        ----        ------- ----- ------------
_CODE_2                             00024000    00000E0F =        3599. bytes (REL,CON)

      Value  Global                              Global Defined In Module
      -----  --------------------------------   ------------------------
     00024848  A$lcc1877282$121                   mg_leaves_player_init
     00024849  A$lcc1877282$122                   mg_leaves_player_init
     0002484A  A$lcc1877282$123                   mg_leaves_player_init
     0002484B  A$lcc1877282$124                   mg_leaves_player_init
     0002484C  A$lcc1877282$128                   mg_leaves_player_init
     0002484C  C$mg_leaves_player_init.c$20$1_0   mg_leaves_player_init
     0002484F  A$lcc1877282$129                   mg_leaves_player_init
     00024850  A$lcc1877282$130                   mg_leaves_player_init
     00024852  A$lcc1877282$131                   mg_leaves_player_init
     00024855  A$lcc1877282$132                   mg_leaves_player_init
     00024856  A$lcc1877282$133                   mg_leaves_player_init
     00024858  A$lcc1877282$137                   mg_leaves_player_init
     00024858  C$mg_leaves_player_init.c$21$1_0   mg_leaves_player_init
     0002485B  A$lcc1877282$138                   mg_leaves_player_init
     0002485E  A$lcc1877282$139                   mg_leaves_player_init
     0002485F  A$lcc1877282$140                   mg_leaves_player_init
     00024861  A$lcc1877282$141                   mg_leaves_player_init
     00024862  A$lcc1877282$142                   mg_leaves_player_init
     00024864  A$lcc1877282$146                   mg_leaves_player_init
     00024864  C$mg_leaves_player_init.c$22$1_0   mg_leaves_player_init
     00024867  A$lcc1877282$147                   mg_leaves_player_init
     0002486A  A$lcc1877282$148                   mg_leaves_player_init
     0002486B  A$lcc1877282$149                   mg_leaves_player_init
     0002486D  A$lcc1877282$150                   mg_leaves_player_init
     0002486E  A$lcc1877282$151                   mg_leaves_player_init
     00024870  A$lcc1877282$155                   mg_leaves_player_init
     00024870  C$mg_leaves_player_init.c$24$2_0   mg_leaves_player_init
     00024872  A$lcc1877282$156                   mg_leaves_player_init
     00024874  A$lcc1877282$157                   mg_leaves_player_init
     00024875  A$lcc1877282$158                   mg_leaves_player_init
     00024877  A$lcc1877282$159                   mg_leaves_player_init
     00024878  A$lcc1877282$160                   mg_leaves_player_init
     0002487A  A$lcc1877282$161                   mg_leaves_player_init
     0002487B  A$lcc1877282$162                   mg_leaves_player_init
     0002487D  A$lcc1877282$166                   mg_leaves_player_init
     0002487D  C$mg_leaves_player_init.c$28$1_1   mg_leaves_player_init
     00024880  A$lcc1877282$167                   mg_leaves_player_init
     00024881  A$lcc1877282$168                   mg_leaves_player_init
     00024883  A$lcc1877282$169                   mg_leaves_player_init
     00024884  A$lcc1877282$170                   mg_leaves_player_init
     00024885  A$lcc1877282$171                   mg_leaves_player_init
     00024886  A$lcc1877282$172                   mg_leaves_player_init
     00024887  A$lcc1877282$173                   mg_leaves_player_init
     00024888  A$lcc1877282$174                   mg_leaves_player_init
     00024889  A$lcc1877282$175                   mg_leaves_player_init
     0002488A  A$lcc1877282$176                   mg_leaves_player_init
     0002488B  A$lcc1877282$177                   mg_leaves_player_init
     0002488C  A$lcc1877282$178                   mg_leaves_player_init
     0002488F  A$lcc1877282$179                   mg_leaves_player_init
     00024890  A$lcc1877282$180                   mg_leaves_player_init
     00024891  A$lcc1877282$181                   mg_leaves_player_init
ASxxxx Linker V03.00/V05.40 + sdld,  page 173.
Hexadecimal  [32-Bits]

Area                                    Addr        Size        Decimal Bytes (Attributes)
--------------------------------        ----        ----        ------- ----- ------------
_CODE_2                             00024000    00000E0F =        3599. bytes (REL,CON)

      Value  Global                              Global Defined In Module
      -----  --------------------------------   ------------------------
     00024892  A$lcc1877282$182                   mg_leaves_player_init
     00024895  A$lcc1877282$183                   mg_leaves_player_init
     00024896  A$lcc1877282$184                   mg_leaves_player_init
     00024898  A$lcc1877282$185                   mg_leaves_player_init
     00024899  A$lcc1877282$186                   mg_leaves_player_init
     0002489A  A$lcc1877282$187                   mg_leaves_player_init
     0002489D  A$lcc1877282$188                   mg_leaves_player_init
     0002489E  A$lcc1877282$189                   mg_leaves_player_init
     0002489F  A$lcc1877282$190                   mg_leaves_player_init
     000248A0  A$lcc1877282$191                   mg_leaves_player_init
     000248A1  A$lcc1877282$192                   mg_leaves_player_init
     000248A2  A$lcc1877282$193                   mg_leaves_player_init
     000248A3  A$lcc1877282$194                   mg_leaves_player_init
     000248A6  A$lcc1877282$195                   mg_leaves_player_init
     000248A9  A$lcc1877282$199                   mg_leaves_player_init
     000248AB  A$lcc1877282$204                   mg_leaves_player_init
     000248AB  C$mg_leaves_player_init.c$29$1_1   mg_leaves_player_init
     000248AB  XG$Mg_Leaves_Player_Init$0$0       mg_leaves_player_init
     000248AC  A$lcc1877283$65                    mg_leaves_update
     000248AC  C$mg_leaves_update.c$22$0_0$177    mg_leaves_update
     000248AC  G$is_being_swept$0$0               mg_leaves_update
     000248AC  _is_being_swept                    mg_leaves_update
     000248AE  A$lcc1877283$66                    mg_leaves_update
     000248AF  A$lcc1877283$70                    mg_leaves_update
     000248AF  C$mg_leaves_update.c$24$1_0$177    mg_leaves_update
     000248B2  A$lcc1877283$71                    mg_leaves_update
     000248B5  A$lcc1877283$72                    mg_leaves_update
     000248B6  A$lcc1877283$73                    mg_leaves_update
     000248B8  A$lcc1877283$74                    mg_leaves_update
     000248B9  A$lcc1877283$75                    mg_leaves_update
     000248BA  A$lcc1877283$76                    mg_leaves_update
     000248BC  A$lcc1877283$77                    mg_leaves_update
     000248BD  A$lcc1877283$81                    mg_leaves_update
     000248BD  C$mg_leaves_update.c$26$1_0$177    mg_leaves_update
     000248C0  A$lcc1877283$82                    mg_leaves_update
     000248C2  A$lcc1877283$83                    mg_leaves_update
     000248C3  A$lcc1877283$84                    mg_leaves_update
     000248C4  A$lcc1877283$88                    mg_leaves_update
     000248C4  C$mg_leaves_update.c$28$2_0$178    mg_leaves_update
     000248C6  A$lcc1877283$89                    mg_leaves_update
     000248C7  A$lcc1877283$90                    mg_leaves_update
     000248C8  A$lcc1877283$91                    mg_leaves_update
     000248C9  A$lcc1877283$92                    mg_leaves_update
     000248CA  A$lcc1877283$93                    mg_leaves_update
     000248CB  A$lcc1877283$94                    mg_leaves_update
     000248CC  A$lcc1877283$95                    mg_leaves_update
     000248CD  A$lcc1877283$96                    mg_leaves_update
     000248CE  A$lcc1877283$97                    mg_leaves_update
     000248D1  A$lcc1877283$98                    mg_leaves_update
     000248D2  A$lcc1877283$99                    mg_leaves_update
     000248D3  A$lcc1877283$100                   mg_leaves_update
ASxxxx Linker V03.00/V05.40 + sdld,  page 174.
Hexadecimal  [32-Bits]

Area                                    Addr        Size        Decimal Bytes (Attributes)
--------------------------------        ----        ----        ------- ----- ------------
_CODE_2                             00024000    00000E0F =        3599. bytes (REL,CON)

      Value  Global                              Global Defined In Module
      -----  --------------------------------   ------------------------
     000248D4  A$lcc1877283$101                   mg_leaves_update
     000248D6  A$lcc1877283$102                   mg_leaves_update
     000248D7  A$lcc1877283$103                   mg_leaves_update
     000248D8  A$lcc1877283$104                   mg_leaves_update
     000248D9  A$lcc1877283$105                   mg_leaves_update
     000248DB  A$lcc1877283$106                   mg_leaves_update
     000248DC  A$lcc1877283$107                   mg_leaves_update
     000248DE  A$lcc1877283$108                   mg_leaves_update
     000248DF  A$lcc1877283$109                   mg_leaves_update
     000248E1  A$lcc1877283$110                   mg_leaves_update
     000248E2  A$lcc1877283$111                   mg_leaves_update
     000248E4  A$lcc1877283$112                   mg_leaves_update
     000248E6  A$lcc1877283$113                   mg_leaves_update
     000248E7  A$lcc1877283$114                   mg_leaves_update
     000248E8  A$lcc1877283$115                   mg_leaves_update
     000248EA  A$lcc1877283$116                   mg_leaves_update
     000248EB  A$lcc1877283$117                   mg_leaves_update
     000248EC  A$lcc1877283$118                   mg_leaves_update
     000248ED  A$lcc1877283$119                   mg_leaves_update
     000248EE  A$lcc1877283$120                   mg_leaves_update
     000248EF  A$lcc1877283$121                   mg_leaves_update
     000248F0  A$lcc1877283$122                   mg_leaves_update
     000248F2  A$lcc1877283$123                   mg_leaves_update
     000248F4  A$lcc1877283$124                   mg_leaves_update
     000248F5  A$lcc1877283$125                   mg_leaves_update
     000248F6  A$lcc1877283$126                   mg_leaves_update
     000248F7  A$lcc1877283$127                   mg_leaves_update
     000248FA  A$lcc1877283$128                   mg_leaves_update
     000248FB  A$lcc1877283$129                   mg_leaves_update
     000248FC  A$lcc1877283$130                   mg_leaves_update
     000248FD  A$lcc1877283$131                   mg_leaves_update
     000248FF  A$lcc1877283$132                   mg_leaves_update
     00024900  A$lcc1877283$133                   mg_leaves_update
     00024901  A$lcc1877283$134                   mg_leaves_update
     00024902  A$lcc1877283$135                   mg_leaves_update
     00024904  A$lcc1877283$136                   mg_leaves_update
     00024905  A$lcc1877283$137                   mg_leaves_update
     00024907  A$lcc1877283$138                   mg_leaves_update
     00024908  A$lcc1877283$139                   mg_leaves_update
     00024909  A$lcc1877283$140                   mg_leaves_update
     0002490B  A$lcc1877283$141                   mg_leaves_update
     0002490C  A$lcc1877283$142                   mg_leaves_update
     0002490D  A$lcc1877283$143                   mg_leaves_update
     0002490E  A$lcc1877283$144                   mg_leaves_update
     0002490F  A$lcc1877283$145                   mg_leaves_update
     00024910  A$lcc1877283$146                   mg_leaves_update
     00024911  A$lcc1877283$147                   mg_leaves_update
     00024913  A$lcc1877283$151                   mg_leaves_update
     00024913  C$mg_leaves_update.c$30$4_0$180    mg_leaves_update
     00024915  A$lcc1877283$152                   mg_leaves_update
     00024916  A$lcc1877283$153                   mg_leaves_update
ASxxxx Linker V03.00/V05.40 + sdld,  page 175.
Hexadecimal  [32-Bits]

Area                                    Addr        Size        Decimal Bytes (Attributes)
--------------------------------        ----        ----        ------- ----- ------------
_CODE_2                             00024000    00000E0F =        3599. bytes (REL,CON)

      Value  Global                              Global Defined In Module
      -----  --------------------------------   ------------------------
     00024917  A$lcc1877283$154                   mg_leaves_update
     00024919  A$lcc1877283$158                   mg_leaves_update
     00024919  C$mg_leaves_update.c$31$4_0$180    mg_leaves_update
     0002491C  A$lcc1877283$159                   mg_leaves_update
     0002491D  A$lcc1877283$160                   mg_leaves_update
     0002491F  A$lcc1877283$161                   mg_leaves_update
     00024920  A$lcc1877283$162                   mg_leaves_update
     00024922  A$lcc1877283$167                   mg_leaves_update
     00024922  C$mg_leaves_update.c$33$4_0$181    mg_leaves_update
     00024924  A$lcc1877283$168                   mg_leaves_update
     00024925  A$lcc1877283$169                   mg_leaves_update
     00024926  A$lcc1877283$170                   mg_leaves_update
     00024928  A$lcc1877283$174                   mg_leaves_update
     00024928  C$mg_leaves_update.c$34$4_0$181    mg_leaves_update
     0002492B  A$lcc1877283$175                   mg_leaves_update
     0002492C  A$lcc1877283$176                   mg_leaves_update
     0002492E  A$lcc1877283$177                   mg_leaves_update
     0002492F  A$lcc1877283$178                   mg_leaves_update
     00024931  A$lcc1877283$183                   mg_leaves_update
     00024931  C$mg_leaves_update.c$36$3_0$179    mg_leaves_update
     00024933  A$lcc1877283$184                   mg_leaves_update
     00024935  A$lcc1877283$189                   mg_leaves_update
     00024935  C$mg_leaves_update.c$39$1_0$177    mg_leaves_update
     00024936  A$lcc1877283$194                   mg_leaves_update
     00024938  A$lcc1877283$199                   mg_leaves_update
     00024938  C$mg_leaves_update.c$40$1_0$177    mg_leaves_update
     00024938  XG$is_being_swept$0$0              mg_leaves_update
     00024939  A$lcc1877283$209                   mg_leaves_update
     00024939  C$mg_leaves_update.c$42$1_0$183    mg_leaves_update
     00024939  G$spawn$0$0                        mg_leaves_update
     00024939  _spawn                             mg_leaves_update
     0002493B  A$lcc1877283$210                   mg_leaves_update
     0002493D  A$lcc1877283$211                   mg_leaves_update
     0002493E  A$lcc1877283$215                   mg_leaves_update
     0002493E  C$mg_leaves_update.c$44$2_0$184    mg_leaves_update
     00024941  A$lcc1877283$216                   mg_leaves_update
     00024942  A$lcc1877283$217                   mg_leaves_update
     00024944  A$lcc1877283$218                   mg_leaves_update
     00024945  A$lcc1877283$219                   mg_leaves_update
     00024946  A$lcc1877283$220                   mg_leaves_update
     00024947  A$lcc1877283$221                   mg_leaves_update
     00024948  A$lcc1877283$222                   mg_leaves_update
     00024949  A$lcc1877283$223                   mg_leaves_update
     0002494A  A$lcc1877283$224                   mg_leaves_update
     0002494B  A$lcc1877283$225                   mg_leaves_update
     0002494D  A$lcc1877283$226                   mg_leaves_update
     0002494F  A$lcc1877283$230                   mg_leaves_update
     0002494F  C$mg_leaves_update.c$45$2_0$184    mg_leaves_update
     00024952  A$lcc1877283$231                   mg_leaves_update
     00024954  A$lcc1877283$232                   mg_leaves_update
     00024955  A$lcc1877283$233                   mg_leaves_update
ASxxxx Linker V03.00/V05.40 + sdld,  page 176.
Hexadecimal  [32-Bits]

Area                                    Addr        Size        Decimal Bytes (Attributes)
--------------------------------        ----        ----        ------- ----- ------------
_CODE_2                             00024000    00000E0F =        3599. bytes (REL,CON)

      Value  Global                              Global Defined In Module
      -----  --------------------------------   ------------------------
     00024957  A$lcc1877283$234                   mg_leaves_update
     00024958  A$lcc1877283$235                   mg_leaves_update
     00024959  A$lcc1877283$236                   mg_leaves_update
     0002495A  A$lcc1877283$237                   mg_leaves_update
     0002495B  A$lcc1877283$238                   mg_leaves_update
     0002495C  A$lcc1877283$239                   mg_leaves_update
     0002495D  A$lcc1877283$244                   mg_leaves_update
     0002495D  C$mg_leaves_update.c$47$2_0$185    mg_leaves_update
     0002495E  A$lcc1877283$245                   mg_leaves_update
     0002495F  A$lcc1877283$246                   mg_leaves_update
     00024960  A$lcc1877283$247                   mg_leaves_update
     00024962  A$lcc1877283$248                   mg_leaves_update
     00024965  A$lcc1877283$249                   mg_leaves_update
     00024968  A$lcc1877283$250                   mg_leaves_update
     0002496A  A$lcc1877283$251                   mg_leaves_update
     0002496B  A$lcc1877283$252                   mg_leaves_update
     0002496C  A$lcc1877283$253                   mg_leaves_update
     0002496D  A$lcc1877283$254                   mg_leaves_update
     0002496F  A$lcc1877283$255                   mg_leaves_update
     00024970  A$lcc1877283$256                   mg_leaves_update
     00024971  A$lcc1877283$257                   mg_leaves_update
     00024972  A$lcc1877283$258                   mg_leaves_update
     00024973  A$lcc1877283$259                   mg_leaves_update
     00024974  A$lcc1877283$260                   mg_leaves_update
     00024975  A$lcc1877283$261                   mg_leaves_update
     00024976  A$lcc1877283$262                   mg_leaves_update
     00024977  A$lcc1877283$263                   mg_leaves_update
     00024978  A$lcc1877283$264                   mg_leaves_update
     00024979  A$lcc1877283$265                   mg_leaves_update
     0002497A  A$lcc1877283$266                   mg_leaves_update
     0002497B  A$lcc1877283$267                   mg_leaves_update
     0002497C  A$lcc1877283$268                   mg_leaves_update
     0002497D  A$lcc1877283$269                   mg_leaves_update
     0002497E  A$lcc1877283$270                   mg_leaves_update
     0002497F  A$lcc1877283$271                   mg_leaves_update
     00024982  A$lcc1877283$272                   mg_leaves_update
     00024983  A$lcc1877283$273                   mg_leaves_update
     00024984  A$lcc1877283$274                   mg_leaves_update
     00024985  A$lcc1877283$275                   mg_leaves_update
     00024987  A$lcc1877283$276                   mg_leaves_update
     00024988  A$lcc1877283$277                   mg_leaves_update
     00024989  A$lcc1877283$278                   mg_leaves_update
     0002498A  A$lcc1877283$279                   mg_leaves_update
     0002498D  A$lcc1877283$280                   mg_leaves_update
     0002498E  A$lcc1877283$281                   mg_leaves_update
     0002498F  A$lcc1877283$282                   mg_leaves_update
     00024991  A$lcc1877283$286                   mg_leaves_update
     00024991  C$mg_leaves_update.c$49$3_0$186    mg_leaves_update
     00024994  A$lcc1877283$287                   mg_leaves_update
     00024996  A$lcc1877283$288                   mg_leaves_update
     00024997  A$lcc1877283$289                   mg_leaves_update
ASxxxx Linker V03.00/V05.40 + sdld,  page 177.
Hexadecimal  [32-Bits]

Area                                    Addr        Size        Decimal Bytes (Attributes)
--------------------------------        ----        ----        ------- ----- ------------
_CODE_2                             00024000    00000E0F =        3599. bytes (REL,CON)

      Value  Global                              Global Defined In Module
      -----  --------------------------------   ------------------------
     00024999  A$lcc1877283$290                   mg_leaves_update
     0002499A  A$lcc1877283$291                   mg_leaves_update
     0002499B  A$lcc1877283$292                   mg_leaves_update
     0002499C  A$lcc1877283$293                   mg_leaves_update
     0002499D  A$lcc1877283$294                   mg_leaves_update
     0002499E  A$lcc1877283$298                   mg_leaves_update
     0002499E  C$mg_leaves_update.c$50$3_0$186    mg_leaves_update
     0002499F  A$lcc1877283$299                   mg_leaves_update
     000249A1  A$lcc1877283$300                   mg_leaves_update
     000249A2  A$lcc1877283$304                   mg_leaves_update
     000249A2  C$mg_leaves_update.c$51$3_0$186    mg_leaves_update
     000249A5  A$lcc1877283$305                   mg_leaves_update
     000249A7  A$lcc1877283$306                   mg_leaves_update
     000249A8  A$lcc1877283$307                   mg_leaves_update
     000249AA  A$lcc1877283$308                   mg_leaves_update
     000249AB  A$lcc1877283$309                   mg_leaves_update
     000249AD  A$lcc1877283$313                   mg_leaves_update
     000249AD  C$mg_leaves_update.c$53$3_0$186    mg_leaves_update
     000249B0  A$lcc1877283$314                   mg_leaves_update
     000249B2  A$lcc1877283$315                   mg_leaves_update
     000249B3  A$lcc1877283$316                   mg_leaves_update
     000249B5  A$lcc1877283$317                   mg_leaves_update
     000249B6  A$lcc1877283$318                   mg_leaves_update
     000249B8  A$lcc1877283$322                   mg_leaves_update
     000249B8  C$mg_leaves_update.c$54$3_0$186    mg_leaves_update
     000249BA  A$lcc1877283$323                   mg_leaves_update
     000249BB  A$lcc1877283$324                   mg_leaves_update
     000249BD  A$lcc1877283$325                   mg_leaves_update
     000249BF  A$lcc1877283$326                   mg_leaves_update
     000249C1  A$lcc1877283$327                   mg_leaves_update
     000249C4  A$lcc1877283$328                   mg_leaves_update
     000249C5  A$lcc1877283$329                   mg_leaves_update
     000249C6  A$lcc1877283$330                   mg_leaves_update
     000249C7  A$lcc1877283$331                   mg_leaves_update
     000249C9  A$lcc1877283$335                   mg_leaves_update
     000249C9  C$mg_leaves_update.c$56$3_0$186    mg_leaves_update
     000249CC  A$lcc1877283$336                   mg_leaves_update
     000249CE  A$lcc1877283$337                   mg_leaves_update
     000249CF  A$lcc1877283$338                   mg_leaves_update
     000249D1  A$lcc1877283$339                   mg_leaves_update
     000249D2  A$lcc1877283$340                   mg_leaves_update
     000249D3  A$lcc1877283$341                   mg_leaves_update
     000249D4  A$lcc1877283$342                   mg_leaves_update
     000249D6  A$lcc1877283$343                   mg_leaves_update
     000249D9  A$lcc1877283$344                   mg_leaves_update
     000249DA  A$lcc1877283$345                   mg_leaves_update
     000249DB  A$lcc1877283$346                   mg_leaves_update
     000249DD  A$lcc1877283$347                   mg_leaves_update
     000249DF  A$lcc1877283$348                   mg_leaves_update
     000249E0  A$lcc1877283$349                   mg_leaves_update
     000249E1  A$lcc1877283$350                   mg_leaves_update
ASxxxx Linker V03.00/V05.40 + sdld,  page 178.
Hexadecimal  [32-Bits]

Area                                    Addr        Size        Decimal Bytes (Attributes)
--------------------------------        ----        ----        ------- ----- ------------
_CODE_2                             00024000    00000E0F =        3599. bytes (REL,CON)

      Value  Global                              Global Defined In Module
      -----  --------------------------------   ------------------------
     000249E2  A$lcc1877283$354                   mg_leaves_update
     000249E2  C$mg_leaves_update.c$57$3_0$186    mg_leaves_update
     000249E3  A$lcc1877283$355                   mg_leaves_update
     000249E5  A$lcc1877283$356                   mg_leaves_update
     000249E6  A$lcc1877283$357                   mg_leaves_update
     000249E7  A$lcc1877283$358                   mg_leaves_update
     000249EA  A$lcc1877283$359                   mg_leaves_update
     000249ED  A$lcc1877283$360                   mg_leaves_update
     000249F0  A$lcc1877283$361                   mg_leaves_update
     000249F1  A$lcc1877283$366                   mg_leaves_update
     000249F3  A$lcc1877283$371                   mg_leaves_update
     000249F3  C$mg_leaves_update.c$59$2_0$183    mg_leaves_update
     000249F3  XG$spawn$0$0                       mg_leaves_update
     000249F4  A$lcc1877283$381                   mg_leaves_update
     000249F4  C$mg_leaves_update.c$61$2_0$188    mg_leaves_update
     000249F4  G$check_actor_status$0$0           mg_leaves_update
     000249F4  _check_actor_status                mg_leaves_update
     000249F6  A$lcc1877283$385                   mg_leaves_update
     000249F6  C$mg_leaves_update.c$63$5_0$191    mg_leaves_update
     000249F8  A$lcc1877283$387                   mg_leaves_update
     000249F9  A$lcc1877283$388                   mg_leaves_update
     000249FB  A$lcc1877283$389                   mg_leaves_update
     000249FE  A$lcc1877283$393                   mg_leaves_update
     000249FE  C$mg_leaves_update.c$65$3_0$189    mg_leaves_update
     000249FF  A$lcc1877283$394                   mg_leaves_update
     00024A01  A$lcc1877283$395                   mg_leaves_update
     00024A03  A$lcc1877283$396                   mg_leaves_update
     00024A04  A$lcc1877283$397                   mg_leaves_update
     00024A06  A$lcc1877283$398                   mg_leaves_update
     00024A07  A$lcc1877283$402                   mg_leaves_update
     00024A07  C$mg_leaves_update.c$67$3_0$189    mg_leaves_update
     00024A08  A$lcc1877283$403                   mg_leaves_update
     00024A09  A$lcc1877283$404                   mg_leaves_update
     00024A0C  A$lcc1877283$405                   mg_leaves_update
     00024A0D  A$lcc1877283$409                   mg_leaves_update
     00024A0D  C$mg_leaves_update.c$69$2_0$188    mg_leaves_update
     00024A10  A$lcc1877283$410                   mg_leaves_update
     00024A11  A$lcc1877283$411                   mg_leaves_update
     00024A13  A$lcc1877283$412                   mg_leaves_update
     00024A14  A$lcc1877283$413                   mg_leaves_update
     00024A15  A$lcc1877283$414                   mg_leaves_update
     00024A16  A$lcc1877283$415                   mg_leaves_update
     00024A17  A$lcc1877283$416                   mg_leaves_update
     00024A18  A$lcc1877283$417                   mg_leaves_update
     00024A19  A$lcc1877283$418                   mg_leaves_update
     00024A1A  A$lcc1877283$419                   mg_leaves_update
     00024A1B  A$lcc1877283$420                   mg_leaves_update
     00024A1D  A$lcc1877283$424                   mg_leaves_update
     00024A1D  C$mg_leaves_update.c$71$6_0$191    mg_leaves_update
     00024A1F  A$lcc1877283$428                   mg_leaves_update
     00024A1F  C$mg_leaves_update.c$72$6_0$192    mg_leaves_update
ASxxxx Linker V03.00/V05.40 + sdld,  page 179.
Hexadecimal  [32-Bits]

Area                                    Addr        Size        Decimal Bytes (Attributes)
--------------------------------        ----        ----        ------- ----- ------------
_CODE_2                             00024000    00000E0F =        3599. bytes (REL,CON)

      Value  Global                              Global Defined In Module
      -----  --------------------------------   ------------------------
     00024A21  A$lcc1877283$429                   mg_leaves_update
     00024A22  A$lcc1877283$430                   mg_leaves_update
     00024A23  A$lcc1877283$431                   mg_leaves_update
     00024A25  A$lcc1877283$435                   mg_leaves_update
     00024A25  C$mg_leaves_update.c$73$6_0$192    mg_leaves_update
     00024A27  A$lcc1877283$440                   mg_leaves_update
     00024A27  C$mg_leaves_update.c$75$5_0$191    mg_leaves_update
     00024A28  A$lcc1877283$441                   mg_leaves_update
     00024A2A  A$lcc1877283$442                   mg_leaves_update
     00024A2B  A$lcc1877283$443                   mg_leaves_update
     00024A2C  A$lcc1877283$444                   mg_leaves_update
     00024A2D  A$lcc1877283$445                   mg_leaves_update
     00024A30  A$lcc1877283$446                   mg_leaves_update
     00024A31  A$lcc1877283$447                   mg_leaves_update
     00024A32  A$lcc1877283$448                   mg_leaves_update
     00024A33  A$lcc1877283$449                   mg_leaves_update
     00024A35  A$lcc1877283$450                   mg_leaves_update
     00024A36  A$lcc1877283$451                   mg_leaves_update
     00024A37  A$lcc1877283$452                   mg_leaves_update
     00024A38  A$lcc1877283$453                   mg_leaves_update
     00024A3A  A$lcc1877283$454                   mg_leaves_update
     00024A3B  A$lcc1877283$455                   mg_leaves_update
     00024A3C  A$lcc1877283$456                   mg_leaves_update
     00024A3D  A$lcc1877283$457                   mg_leaves_update
     00024A3E  A$lcc1877283$458                   mg_leaves_update
     00024A3F  A$lcc1877283$459                   mg_leaves_update
     00024A40  A$lcc1877283$460                   mg_leaves_update
     00024A41  A$lcc1877283$461                   mg_leaves_update
     00024A42  A$lcc1877283$462                   mg_leaves_update
     00024A43  A$lcc1877283$463                   mg_leaves_update
     00024A44  A$lcc1877283$464                   mg_leaves_update
     00024A45  A$lcc1877283$465                   mg_leaves_update
     00024A47  A$lcc1877283$466                   mg_leaves_update
     00024A48  A$lcc1877283$467                   mg_leaves_update
     00024A49  A$lcc1877283$468                   mg_leaves_update
     00024A4A  A$lcc1877283$469                   mg_leaves_update
     00024A4C  A$lcc1877283$470                   mg_leaves_update
     00024A4D  A$lcc1877283$471                   mg_leaves_update
     00024A4E  A$lcc1877283$472                   mg_leaves_update
     00024A4F  A$lcc1877283$473                   mg_leaves_update
     00024A51  A$lcc1877283$474                   mg_leaves_update
     00024A52  A$lcc1877283$475                   mg_leaves_update
     00024A53  A$lcc1877283$476                   mg_leaves_update
     00024A54  A$lcc1877283$477                   mg_leaves_update
     00024A55  A$lcc1877283$478                   mg_leaves_update
     00024A56  A$lcc1877283$479                   mg_leaves_update
     00024A57  A$lcc1877283$480                   mg_leaves_update
     00024A58  A$lcc1877283$481                   mg_leaves_update
     00024A59  A$lcc1877283$482                   mg_leaves_update
     00024A5A  A$lcc1877283$486                   mg_leaves_update
     00024A5A  C$mg_leaves_update.c$76$5_0$191    mg_leaves_update
ASxxxx Linker V03.00/V05.40 + sdld,  page 180.
Hexadecimal  [32-Bits]

Area                                    Addr        Size        Decimal Bytes (Attributes)
--------------------------------        ----        ----        ------- ----- ------------
_CODE_2                             00024000    00000E0F =        3599. bytes (REL,CON)

      Value  Global                              Global Defined In Module
      -----  --------------------------------   ------------------------
     00024A5D  A$lcc1877283$487                   mg_leaves_update
     00024A5F  A$lcc1877283$488                   mg_leaves_update
     00024A60  A$lcc1877283$489                   mg_leaves_update
     00024A61  A$lcc1877283$490                   mg_leaves_update
     00024A63  A$lcc1877283$491                   mg_leaves_update
     00024A64  A$lcc1877283$492                   mg_leaves_update
     00024A65  A$lcc1877283$493                   mg_leaves_update
     00024A66  A$lcc1877283$498                   mg_leaves_update
     00024A66  C$mg_leaves_update.c$79$4_0$193    mg_leaves_update
     00024A69  A$lcc1877283$499                   mg_leaves_update
     00024A6A  A$lcc1877283$500                   mg_leaves_update
     00024A6C  A$lcc1877283$504                   mg_leaves_update
     00024A6D  A$lcc1877283$505                   mg_leaves_update
     00024A6E  A$lcc1877283$506                   mg_leaves_update
     00024A6F  A$lcc1877283$510                   mg_leaves_update
     00024A6F  C$mg_leaves_update.c$82$2_0$188    mg_leaves_update
     00024A72  A$lcc1877283$511                   mg_leaves_update
     00024A73  A$lcc1877283$515                   mg_leaves_update
     00024A73  C$mg_leaves_update.c$81$6_0$195    mg_leaves_update
     00024A75  A$lcc1877283$516                   mg_leaves_update
     00024A77  A$lcc1877283$520                   mg_leaves_update
     00024A77  C$mg_leaves_update.c$82$6_0$195    mg_leaves_update
     00024A7A  A$lcc1877283$521                   mg_leaves_update
     00024A7C  A$lcc1877283$522                   mg_leaves_update
     00024A7D  A$lcc1877283$523                   mg_leaves_update
     00024A7F  A$lcc1877283$524                   mg_leaves_update
     00024A80  A$lcc1877283$525                   mg_leaves_update
     00024A81  A$lcc1877283$526                   mg_leaves_update
     00024A83  A$lcc1877283$527                   mg_leaves_update
     00024A85  A$lcc1877283$528                   mg_leaves_update
     00024A86  A$lcc1877283$529                   mg_leaves_update
     00024A87  A$lcc1877283$530                   mg_leaves_update
     00024A89  A$lcc1877283$531                   mg_leaves_update
     00024A8A  A$lcc1877283$532                   mg_leaves_update
     00024A8C  A$lcc1877283$537                   mg_leaves_update
     00024A8C  C$mg_leaves_update.c$83$7_0$196    mg_leaves_update
     00024A8E  A$lcc1877283$538                   mg_leaves_update
     00024A90  A$lcc1877283$542                   mg_leaves_update
     00024A90  C$mg_leaves_update.c$84$7_0$196    mg_leaves_update
     00024A93  A$lcc1877283$543                   mg_leaves_update
     00024A95  A$lcc1877283$544                   mg_leaves_update
     00024A96  A$lcc1877283$545                   mg_leaves_update
     00024A98  A$lcc1877283$546                   mg_leaves_update
     00024A99  A$lcc1877283$547                   mg_leaves_update
     00024A9A  A$lcc1877283$548                   mg_leaves_update
     00024A9C  A$lcc1877283$549                   mg_leaves_update
     00024A9E  A$lcc1877283$550                   mg_leaves_update
     00024A9F  A$lcc1877283$551                   mg_leaves_update
     00024AA0  A$lcc1877283$552                   mg_leaves_update
     00024AA2  A$lcc1877283$553                   mg_leaves_update
     00024AA3  A$lcc1877283$558                   mg_leaves_update
ASxxxx Linker V03.00/V05.40 + sdld,  page 181.
Hexadecimal  [32-Bits]

Area                                    Addr        Size        Decimal Bytes (Attributes)
--------------------------------        ----        ----        ------- ----- ------------
_CODE_2                             00024000    00000E0F =        3599. bytes (REL,CON)

      Value  Global                              Global Defined In Module
      -----  --------------------------------   ------------------------
     00024AA3  C$mg_leaves_update.c$87$3_0$189    mg_leaves_update
     00024AA6  A$lcc1877283$559                   mg_leaves_update
     00024AA8  A$lcc1877283$560                   mg_leaves_update
     00024AA9  A$lcc1877283$561                   mg_leaves_update
     00024AAA  A$lcc1877283$562                   mg_leaves_update
     00024AAD  A$lcc1877283$563                   mg_leaves_update
     00024AAF  A$lcc1877283$564                   mg_leaves_update
     00024AB0  A$lcc1877283$565                   mg_leaves_update
     00024AB1  A$lcc1877283$566                   mg_leaves_update
     00024AB4  A$lcc1877283$567                   mg_leaves_update
     00024AB6  A$lcc1877283$568                   mg_leaves_update
     00024AB7  A$lcc1877283$569                   mg_leaves_update
     00024AB8  A$lcc1877283$570                   mg_leaves_update
     00024AB9  A$lcc1877283$571                   mg_leaves_update
     00024ABB  A$lcc1877283$572                   mg_leaves_update
     00024ABC  A$lcc1877283$573                   mg_leaves_update
     00024ABD  A$lcc1877283$574                   mg_leaves_update
     00024ABF  A$lcc1877283$575                   mg_leaves_update
     00024AC0  A$lcc1877283$576                   mg_leaves_update
     00024AC1  A$lcc1877283$577                   mg_leaves_update
     00024AC4  A$lcc1877283$578                   mg_leaves_update
     00024AC5  A$lcc1877283$582                   mg_leaves_update
     00024AC5  C$mg_leaves_update.c$63$2_0$188    mg_leaves_update
     00024AC6  A$lcc1877283$583                   mg_leaves_update
     00024AC9  A$lcc1877283$588                   mg_leaves_update
     00024ACB  A$lcc1877283$593                   mg_leaves_update
     00024ACB  C$mg_leaves_update.c$89$2_0$188    mg_leaves_update
     00024ACB  XG$check_actor_status$0$0          mg_leaves_update
     00024ACC  A$lcc1877283$603                   mg_leaves_update
     00024ACC  C$mg_leaves_update.c$91$2_0$197    mg_leaves_update
     00024ACC  G$check_actor_collision$0$0        mg_leaves_update
     00024ACC  _check_actor_collision             mg_leaves_update
     00024ACE  A$lcc1877283$607                   mg_leaves_update
     00024ACE  C$mg_leaves_update.c$93$5_1$208    mg_leaves_update
     00024AD0  A$lcc1877283$608                   mg_leaves_update
     00024AD2  A$lcc1877283$610                   mg_leaves_update
     00024AD4  A$lcc1877283$611                   mg_leaves_update
     00024AD5  A$lcc1877283$612                   mg_leaves_update
     00024AD7  A$lcc1877283$613                   mg_leaves_update
     00024ADA  A$lcc1877283$617                   mg_leaves_update
     00024ADA  C$mg_leaves_update.c$95$2_0$197    mg_leaves_update
     00024ADD  A$lcc1877283$618                   mg_leaves_update
     00024ADE  A$lcc1877283$619                   mg_leaves_update
     00024AE0  A$lcc1877283$620                   mg_leaves_update
     00024AE1  A$lcc1877283$621                   mg_leaves_update
     00024AE2  A$lcc1877283$622                   mg_leaves_update
     00024AE3  A$lcc1877283$623                   mg_leaves_update
     00024AE4  A$lcc1877283$624                   mg_leaves_update
     00024AE5  A$lcc1877283$625                   mg_leaves_update
     00024AE6  A$lcc1877283$626                   mg_leaves_update
     00024AE7  A$lcc1877283$627                   mg_leaves_update
ASxxxx Linker V03.00/V05.40 + sdld,  page 182.
Hexadecimal  [32-Bits]

Area                                    Addr        Size        Decimal Bytes (Attributes)
--------------------------------        ----        ----        ------- ----- ------------
_CODE_2                             00024000    00000E0F =        3599. bytes (REL,CON)

      Value  Global                              Global Defined In Module
      -----  --------------------------------   ------------------------
     00024AE9  A$lcc1877283$628                   mg_leaves_update
     00024AEA  A$lcc1877283$629                   mg_leaves_update
     00024AEB  A$lcc1877283$630                   mg_leaves_update
     00024AEE  A$lcc1877283$631                   mg_leaves_update
     00024AEF  A$lcc1877283$632                   mg_leaves_update
     00024AF2  A$lcc1877283$633                   mg_leaves_update
     00024AF3  A$lcc1877283$634                   mg_leaves_update
     00024AF5  A$lcc1877283$635                   mg_leaves_update
     00024AF6  A$lcc1877283$636                   mg_leaves_update
     00024AF7  A$lcc1877283$637                   mg_leaves_update
     00024AF8  A$lcc1877283$638                   mg_leaves_update
     00024AFA  A$lcc1877283$639                   mg_leaves_update
     00024AFB  A$lcc1877283$640                   mg_leaves_update
     00024AFC  A$lcc1877283$641                   mg_leaves_update
     00024AFD  A$lcc1877283$642                   mg_leaves_update
     00024AFF  A$lcc1877283$643                   mg_leaves_update
     00024B00  A$lcc1877283$644                   mg_leaves_update
     00024B01  A$lcc1877283$645                   mg_leaves_update
     00024B02  A$lcc1877283$646                   mg_leaves_update
     00024B03  A$lcc1877283$647                   mg_leaves_update
     00024B04  A$lcc1877283$648                   mg_leaves_update
     00024B06  A$lcc1877283$649                   mg_leaves_update
     00024B09  A$lcc1877283$653                   mg_leaves_update
     00024B09  C$mg_leaves_update.c$98$4_0$201    mg_leaves_update
     00024B0A  A$lcc1877283$654                   mg_leaves_update
     00024B0C  A$lcc1877283$658                   mg_leaves_update
     00024B0C  C$mg_leaves_update.c$100$6_0$203   mg_leaves_update
     00024B0F  A$lcc1877283$659                   mg_leaves_update
     00024B11  A$lcc1877283$660                   mg_leaves_update
     00024B12  A$lcc1877283$661                   mg_leaves_update
     00024B14  A$lcc1877283$662                   mg_leaves_update
     00024B15  A$lcc1877283$663                   mg_leaves_update
     00024B16  A$lcc1877283$664                   mg_leaves_update
     00024B17  A$lcc1877283$665                   mg_leaves_update
     00024B19  A$lcc1877283$666                   mg_leaves_update
     00024B1A  A$lcc1877283$667                   mg_leaves_update
     00024B1B  A$lcc1877283$668                   mg_leaves_update
     00024B1C  A$lcc1877283$669                   mg_leaves_update
     00024B1E  A$lcc1877283$670                   mg_leaves_update
     00024B1F  A$lcc1877283$671                   mg_leaves_update
     00024B20  A$lcc1877283$672                   mg_leaves_update
     00024B21  A$lcc1877283$673                   mg_leaves_update
     00024B22  A$lcc1877283$674                   mg_leaves_update
     00024B23  A$lcc1877283$675                   mg_leaves_update
     00024B24  A$lcc1877283$676                   mg_leaves_update
     00024B25  A$lcc1877283$677                   mg_leaves_update
     00024B28  A$lcc1877283$678                   mg_leaves_update
     00024B29  A$lcc1877283$679                   mg_leaves_update
     00024B2B  A$lcc1877283$680                   mg_leaves_update
     00024B2C  A$lcc1877283$681                   mg_leaves_update
     00024B2D  A$lcc1877283$682                   mg_leaves_update
ASxxxx Linker V03.00/V05.40 + sdld,  page 183.
Hexadecimal  [32-Bits]

Area                                    Addr        Size        Decimal Bytes (Attributes)
--------------------------------        ----        ----        ------- ----- ------------
_CODE_2                             00024000    00000E0F =        3599. bytes (REL,CON)

      Value  Global                              Global Defined In Module
      -----  --------------------------------   ------------------------
     00024B30  A$lcc1877283$686                   mg_leaves_update
     00024B30  C$mg_leaves_update.c$102$7_0$204   mg_leaves_update
     00024B32  A$lcc1877283$687                   mg_leaves_update
     00024B33  A$lcc1877283$688                   mg_leaves_update
     00024B34  A$lcc1877283$689                   mg_leaves_update
     00024B35  A$lcc1877283$690                   mg_leaves_update
     00024B37  A$lcc1877283$694                   mg_leaves_update
     00024B37  C$mg_leaves_update.c$103$7_0$204   mg_leaves_update
     00024B3A  A$lcc1877283$695                   mg_leaves_update
     00024B3C  A$lcc1877283$696                   mg_leaves_update
     00024B3D  A$lcc1877283$697                   mg_leaves_update
     00024B3E  A$lcc1877283$698                   mg_leaves_update
     00024B3F  A$lcc1877283$699                   mg_leaves_update
     00024B40  A$lcc1877283$700                   mg_leaves_update
     00024B41  A$lcc1877283$708                   mg_leaves_update
     00024B41  C$mg_leaves_update.c$106$4_0$201   mg_leaves_update
     00024B41  C$mg_leaves_update.c$109$4_0$205   mg_leaves_update
     00024B43  A$lcc1877283$709                   mg_leaves_update
     00024B44  A$lcc1877283$710                   mg_leaves_update
     00024B47  A$lcc1877283$711                   mg_leaves_update
     00024B48  A$lcc1877283$712                   mg_leaves_update
     00024B4A  A$lcc1877283$716                   mg_leaves_update
     00024B4A  C$mg_leaves_update.c$110$4_0$205   mg_leaves_update
     00024B4C  A$lcc1877283$717                   mg_leaves_update
     00024B4D  A$lcc1877283$718                   mg_leaves_update
     00024B4E  A$lcc1877283$719                   mg_leaves_update
     00024B4F  A$lcc1877283$720                   mg_leaves_update
     00024B51  A$lcc1877283$725                   mg_leaves_update
     00024B51  C$mg_leaves_update.c$112$3_1$206   mg_leaves_update
     00024B53  A$lcc1877283$726                   mg_leaves_update
     00024B54  A$lcc1877283$727                   mg_leaves_update
     00024B56  A$lcc1877283$728                   mg_leaves_update
     00024B58  A$lcc1877283$729                   mg_leaves_update
     00024B59  A$lcc1877283$730                   mg_leaves_update
     00024B5B  A$lcc1877283$734                   mg_leaves_update
     00024B5C  A$lcc1877283$735                   mg_leaves_update
     00024B5D  A$lcc1877283$736                   mg_leaves_update
     00024B5E  A$lcc1877283$737                   mg_leaves_update
     00024B5F  A$lcc1877283$738                   mg_leaves_update
     00024B60  A$lcc1877283$739                   mg_leaves_update
     00024B61  A$lcc1877283$743                   mg_leaves_update
     00024B61  C$mg_leaves_update.c$120$2_0$197   mg_leaves_update
     00024B63  A$lcc1877283$744                   mg_leaves_update
     00024B64  A$lcc1877283$745                   mg_leaves_update
     00024B65  A$lcc1877283$746                   mg_leaves_update
     00024B66  A$lcc1877283$747                   mg_leaves_update
     00024B68  A$lcc1877283$748                   mg_leaves_update
     00024B6A  A$lcc1877283$749                   mg_leaves_update
     00024B6C  A$lcc1877283$750                   mg_leaves_update
     00024B6D  A$lcc1877283$751                   mg_leaves_update
     00024B6E  A$lcc1877283$752                   mg_leaves_update
ASxxxx Linker V03.00/V05.40 + sdld,  page 184.
Hexadecimal  [32-Bits]

Area                                    Addr        Size        Decimal Bytes (Attributes)
--------------------------------        ----        ----        ------- ----- ------------
_CODE_2                             00024000    00000E0F =        3599. bytes (REL,CON)

      Value  Global                              Global Defined In Module
      -----  --------------------------------   ------------------------
     00024B6F  A$lcc1877283$756                   mg_leaves_update
     00024B6F  C$mg_leaves_update.c$114$4_1$207   mg_leaves_update
     00024B71  A$lcc1877283$757                   mg_leaves_update
     00024B73  A$lcc1877283$758                   mg_leaves_update
     00024B74  A$lcc1877283$759                   mg_leaves_update
     00024B77  A$lcc1877283$760                   mg_leaves_update
     00024B78  A$lcc1877283$761                   mg_leaves_update
     00024B7A  A$lcc1877283$762                   mg_leaves_update
     00024B7B  A$lcc1877283$763                   mg_leaves_update
     00024B7C  A$lcc1877283$764                   mg_leaves_update
     00024B7D  A$lcc1877283$765                   mg_leaves_update
     00024B7E  A$lcc1877283$766                   mg_leaves_update
     00024B7F  A$lcc1877283$767                   mg_leaves_update
     00024B82  A$lcc1877283$768                   mg_leaves_update
     00024B83  A$lcc1877283$769                   mg_leaves_update
     00024B85  A$lcc1877283$773                   mg_leaves_update
     00024B85  C$mg_leaves_update.c$116$5_1$208   mg_leaves_update
     00024B87  A$lcc1877283$774                   mg_leaves_update
     00024B88  A$lcc1877283$775                   mg_leaves_update
     00024B89  A$lcc1877283$776                   mg_leaves_update
     00024B8A  A$lcc1877283$777                   mg_leaves_update
     00024B8C  A$lcc1877283$781                   mg_leaves_update
     00024B8C  C$mg_leaves_update.c$117$5_1$208   mg_leaves_update
     00024B8D  A$lcc1877283$782                   mg_leaves_update
     00024B8F  A$lcc1877283$783                   mg_leaves_update
     00024B90  A$lcc1877283$787                   mg_leaves_update
     00024B90  C$mg_leaves_update.c$119$5_1$208   mg_leaves_update
     00024B93  A$lcc1877283$788                   mg_leaves_update
     00024B95  A$lcc1877283$789                   mg_leaves_update
     00024B96  A$lcc1877283$790                   mg_leaves_update
     00024B98  A$lcc1877283$791                   mg_leaves_update
     00024B99  A$lcc1877283$792                   mg_leaves_update
     00024B9A  A$lcc1877283$793                   mg_leaves_update
     00024B9B  A$lcc1877283$794                   mg_leaves_update
     00024B9C  A$lcc1877283$795                   mg_leaves_update
     00024B9D  A$lcc1877283$799                   mg_leaves_update
     00024B9D  C$mg_leaves_update.c$120$5_1$208   mg_leaves_update
     00024BA0  A$lcc1877283$800                   mg_leaves_update
     00024BA2  A$lcc1877283$801                   mg_leaves_update
     00024BA3  A$lcc1877283$802                   mg_leaves_update
     00024BA4  A$lcc1877283$803                   mg_leaves_update
     00024BA5  A$lcc1877283$804                   mg_leaves_update
     00024BA6  A$lcc1877283$805                   mg_leaves_update
     00024BA7  A$lcc1877283$806                   mg_leaves_update
     00024BA8  A$lcc1877283$807                   mg_leaves_update
     00024BA9  A$lcc1877283$808                   mg_leaves_update
     00024BAA  A$lcc1877283$809                   mg_leaves_update
     00024BAB  A$lcc1877283$810                   mg_leaves_update
     00024BAC  A$lcc1877283$814                   mg_leaves_update
     00024BAF  A$lcc1877283$815                   mg_leaves_update
     00024BB0  A$lcc1877283$819                   mg_leaves_update
ASxxxx Linker V03.00/V05.40 + sdld,  page 185.
Hexadecimal  [32-Bits]

Area                                    Addr        Size        Decimal Bytes (Attributes)
--------------------------------        ----        ----        ------- ----- ------------
_CODE_2                             00024000    00000E0F =        3599. bytes (REL,CON)

      Value  Global                              Global Defined In Module
      -----  --------------------------------   ------------------------
     00024BB0  C$mg_leaves_update.c$122$6_1$209   mg_leaves_update
     00024BB2  A$lcc1877283$820                   mg_leaves_update
     00024BB3  A$lcc1877283$821                   mg_leaves_update
     00024BB4  A$lcc1877283$822                   mg_leaves_update
     00024BB6  A$lcc1877283$826                   mg_leaves_update
     00024BB6  C$mg_leaves_update.c$123$6_1$209   mg_leaves_update
     00024BB7  A$lcc1877283$827                   mg_leaves_update
     00024BB9  A$lcc1877283$828                   mg_leaves_update
     00024BBC  A$lcc1877283$829                   mg_leaves_update
     00024BBE  A$lcc1877283$834                   mg_leaves_update
     00024BBE  C$mg_leaves_update.c$125$6_1$209   mg_leaves_update
     00024BBF  A$lcc1877283$835                   mg_leaves_update
     00024BC1  A$lcc1877283$836                   mg_leaves_update
     00024BC4  A$lcc1877283$841                   mg_leaves_update
     00024BC4  C$mg_leaves_update.c$128$4_1$210   mg_leaves_update
     00024BC6  A$lcc1877283$842                   mg_leaves_update
     00024BC7  A$lcc1877283$843                   mg_leaves_update
     00024BC8  A$lcc1877283$844                   mg_leaves_update
     00024BC9  A$lcc1877283$845                   mg_leaves_update
     00024BCA  A$lcc1877283$846                   mg_leaves_update
     00024BCC  A$lcc1877283$847                   mg_leaves_update
     00024BCE  A$lcc1877283$848                   mg_leaves_update
     00024BD1  A$lcc1877283$849                   mg_leaves_update
     00024BD3  A$lcc1877283$850                   mg_leaves_update
     00024BD4  A$lcc1877283$851                   mg_leaves_update
     00024BD6  A$lcc1877283$852                   mg_leaves_update
     00024BD7  A$lcc1877283$853                   mg_leaves_update
     00024BD8  A$lcc1877283$854                   mg_leaves_update
     00024BD9  A$lcc1877283$855                   mg_leaves_update
     00024BDA  A$lcc1877283$856                   mg_leaves_update
     00024BDD  A$lcc1877283$857                   mg_leaves_update
     00024BDE  A$lcc1877283$858                   mg_leaves_update
     00024BDF  A$lcc1877283$859                   mg_leaves_update
     00024BE1  A$lcc1877283$863                   mg_leaves_update
     00024BE1  C$mg_leaves_update.c$130$5_1$211   mg_leaves_update
     00024BE3  A$lcc1877283$864                   mg_leaves_update
     00024BE4  A$lcc1877283$865                   mg_leaves_update
     00024BE5  A$lcc1877283$866                   mg_leaves_update
     00024BE6  A$lcc1877283$867                   mg_leaves_update
     00024BE8  A$lcc1877283$871                   mg_leaves_update
     00024BE8  C$mg_leaves_update.c$131$5_1$211   mg_leaves_update
     00024BE9  A$lcc1877283$872                   mg_leaves_update
     00024BEB  A$lcc1877283$873                   mg_leaves_update
     00024BEC  A$lcc1877283$877                   mg_leaves_update
     00024BEC  C$mg_leaves_update.c$133$5_1$211   mg_leaves_update
     00024BEF  A$lcc1877283$878                   mg_leaves_update
     00024BF1  A$lcc1877283$879                   mg_leaves_update
     00024BF2  A$lcc1877283$880                   mg_leaves_update
     00024BF4  A$lcc1877283$881                   mg_leaves_update
     00024BF5  A$lcc1877283$882                   mg_leaves_update
     00024BF6  A$lcc1877283$883                   mg_leaves_update
ASxxxx Linker V03.00/V05.40 + sdld,  page 186.
Hexadecimal  [32-Bits]

Area                                    Addr        Size        Decimal Bytes (Attributes)
--------------------------------        ----        ----        ------- ----- ------------
_CODE_2                             00024000    00000E0F =        3599. bytes (REL,CON)

      Value  Global                              Global Defined In Module
      -----  --------------------------------   ------------------------
     00024BF7  A$lcc1877283$884                   mg_leaves_update
     00024BF9  A$lcc1877283$885                   mg_leaves_update
     00024BFA  A$lcc1877283$886                   mg_leaves_update
     00024BFB  A$lcc1877283$887                   mg_leaves_update
     00024BFC  A$lcc1877283$888                   mg_leaves_update
     00024BFE  A$lcc1877283$889                   mg_leaves_update
     00024BFF  A$lcc1877283$890                   mg_leaves_update
     00024C00  A$lcc1877283$891                   mg_leaves_update
     00024C01  A$lcc1877283$892                   mg_leaves_update
     00024C02  A$lcc1877283$893                   mg_leaves_update
     00024C04  A$lcc1877283$897                   mg_leaves_update
     00024C04  C$mg_leaves_update.c$134$5_1$211   mg_leaves_update
     00024C06  A$lcc1877283$898                   mg_leaves_update
     00024C07  A$lcc1877283$899                   mg_leaves_update
     00024C08  A$lcc1877283$900                   mg_leaves_update
     00024C09  A$lcc1877283$901                   mg_leaves_update
     00024C0C  A$lcc1877283$902                   mg_leaves_update
     00024C0D  A$lcc1877283$903                   mg_leaves_update
     00024C0E  A$lcc1877283$904                   mg_leaves_update
     00024C0F  A$lcc1877283$905                   mg_leaves_update
     00024C11  A$lcc1877283$906                   mg_leaves_update
     00024C12  A$lcc1877283$907                   mg_leaves_update
     00024C13  A$lcc1877283$908                   mg_leaves_update
     00024C14  A$lcc1877283$909                   mg_leaves_update
     00024C16  A$lcc1877283$910                   mg_leaves_update
     00024C17  A$lcc1877283$911                   mg_leaves_update
     00024C18  A$lcc1877283$912                   mg_leaves_update
     00024C19  A$lcc1877283$913                   mg_leaves_update
     00024C1A  A$lcc1877283$914                   mg_leaves_update
     00024C1B  A$lcc1877283$915                   mg_leaves_update
     00024C1C  A$lcc1877283$916                   mg_leaves_update
     00024C1D  A$lcc1877283$920                   mg_leaves_update
     00024C1D  C$mg_leaves_update.c$123$2_0$197   mg_leaves_update
     00024C20  A$lcc1877283$921                   mg_leaves_update
     00024C22  A$lcc1877283$925                   mg_leaves_update
     00024C22  C$mg_leaves_update.c$136$6_1$212   mg_leaves_update
     00024C23  A$lcc1877283$926                   mg_leaves_update
     00024C24  A$lcc1877283$927                   mg_leaves_update
     00024C25  A$lcc1877283$928                   mg_leaves_update
     00024C26  A$lcc1877283$929                   mg_leaves_update
     00024C28  A$lcc1877283$933                   mg_leaves_update
     00024C28  C$mg_leaves_update.c$137$6_1$212   mg_leaves_update
     00024C29  A$lcc1877283$934                   mg_leaves_update
     00024C2A  A$lcc1877283$935                   mg_leaves_update
     00024C2B  A$lcc1877283$936                   mg_leaves_update
     00024C2D  A$lcc1877283$937                   mg_leaves_update
     00024C30  A$lcc1877283$938                   mg_leaves_update
     00024C32  A$lcc1877283$943                   mg_leaves_update
     00024C32  C$mg_leaves_update.c$139$6_1$212   mg_leaves_update
     00024C34  A$lcc1877283$944                   mg_leaves_update
     00024C35  A$lcc1877283$945                   mg_leaves_update
ASxxxx Linker V03.00/V05.40 + sdld,  page 187.
Hexadecimal  [32-Bits]

Area                                    Addr        Size        Decimal Bytes (Attributes)
--------------------------------        ----        ----        ------- ----- ------------
_CODE_2                             00024000    00000E0F =        3599. bytes (REL,CON)

      Value  Global                              Global Defined In Module
      -----  --------------------------------   ------------------------
     00024C37  A$lcc1877283$946                   mg_leaves_update
     00024C3A  A$lcc1877283$951                   mg_leaves_update
     00024C3A  C$mg_leaves_update.c$93$2_0$198    mg_leaves_update
     00024C3C  A$lcc1877283$952                   mg_leaves_update
     00024C3D  A$lcc1877283$953                   mg_leaves_update
     00024C40  A$lcc1877283$961                   mg_leaves_update
     00024C40  C$mg_leaves_update.c$144$2_0$197   mg_leaves_update
     00024C42  A$lcc1877283$966                   mg_leaves_update
     00024C42  C$mg_leaves_update.c$145$2_0$197   mg_leaves_update
     00024C42  XG$check_actor_collision$0$0       mg_leaves_update
     00024C43  A$lcc1877283$976                   mg_leaves_update
     00024C43  C$mg_leaves_update.c$147$2_0$215   mg_leaves_update
     00024C43  G$Mg_Leaves_Update$0$0             mg_leaves_update
     00024C43  _Mg_Leaves_Update                  mg_leaves_update
     00024C45  A$lcc1877283$980                   mg_leaves_update
     00024C45  C$mg_leaves_update.c$149$1_0$215   mg_leaves_update
     00024C48  A$lcc1877283$984                   mg_leaves_update
     00024C48  C$mg_leaves_update.c$151$2_0$216   mg_leaves_update
     00024C4B  A$lcc1877283$985                   mg_leaves_update
     00024C4C  A$lcc1877283$986                   mg_leaves_update
     00024C4E  A$lcc1877283$990                   mg_leaves_update
     00024C4E  C$mg_leaves_update.c$153$3_0$217   mg_leaves_update
     00024C51  A$lcc1877283$994                   mg_leaves_update
     00024C51  C$mg_leaves_update.c$155$1_1$215   mg_leaves_update
     00024C53  A$lcc1877283$995                   mg_leaves_update
     00024C55  A$lcc1877283$997                   mg_leaves_update
     00024C57  A$lcc1877283$998                   mg_leaves_update
     00024C58  A$lcc1877283$999                   mg_leaves_update
     00024C59  A$lcc1877283$1000                  mg_leaves_update
     00024C5A  A$lcc1877283$1001                  mg_leaves_update
     00024C5B  A$lcc1877283$1002                  mg_leaves_update
     00024C5C  A$lcc1877283$1003                  mg_leaves_update
     00024C5F  A$lcc1877283$1004                  mg_leaves_update
     00024C60  A$lcc1877283$1005                  mg_leaves_update
     00024C62  A$lcc1877283$1006                  mg_leaves_update
     00024C63  A$lcc1877283$1007                  mg_leaves_update
     00024C64  A$lcc1877283$1008                  mg_leaves_update
     00024C65  A$lcc1877283$1009                  mg_leaves_update
     00024C66  A$lcc1877283$1010                  mg_leaves_update
     00024C67  A$lcc1877283$1011                  mg_leaves_update
     00024C68  A$lcc1877283$1012                  mg_leaves_update
     00024C6A  A$lcc1877283$1013                  mg_leaves_update
     00024C6C  A$lcc1877283$1014                  mg_leaves_update
     00024C6E  A$lcc1877283$1015                  mg_leaves_update
     00024C70  A$lcc1877283$1016                  mg_leaves_update
     00024C71  A$lcc1877283$1017                  mg_leaves_update
     00024C73  A$lcc1877283$1019                  mg_leaves_update
     00024C75  A$lcc1877283$1020                  mg_leaves_update
     00024C77  A$lcc1877283$1021                  mg_leaves_update
     00024C78  A$lcc1877283$1023                  mg_leaves_update
     00024C7A  A$lcc1877283$1027                  mg_leaves_update
ASxxxx Linker V03.00/V05.40 + sdld,  page 188.
Hexadecimal  [32-Bits]

Area                                    Addr        Size        Decimal Bytes (Attributes)
--------------------------------        ----        ----        ------- ----- ------------
_CODE_2                             00024000    00000E0F =        3599. bytes (REL,CON)

      Value  Global                              Global Defined In Module
      -----  --------------------------------   ------------------------
     00024C7A  C$mg_leaves_update.c$156$4_0$218   mg_leaves_update
     00024C7D  A$lcc1877283$1028                  mg_leaves_update
     00024C7E  A$lcc1877283$1029                  mg_leaves_update
     00024C80  A$lcc1877283$1030                  mg_leaves_update
     00024C81  A$lcc1877283$1031                  mg_leaves_update
     00024C82  A$lcc1877283$1032                  mg_leaves_update
     00024C84  A$lcc1877283$1033                  mg_leaves_update
     00024C86  A$lcc1877283$1034                  mg_leaves_update
     00024C87  A$lcc1877283$1035                  mg_leaves_update
     00024C8A  A$lcc1877283$1039                  mg_leaves_update
     00024C8A  C$mg_leaves_update.c$155$4_0$218   mg_leaves_update
     00024C8C  A$lcc1877283$1040                  mg_leaves_update
     00024C8D  A$lcc1877283$1041                  mg_leaves_update
     00024C8F  A$lcc1877283$1046                  mg_leaves_update
     00024C8F  C$mg_leaves_update.c$158$3_0$217   mg_leaves_update
     00024C92  A$lcc1877283$1047                  mg_leaves_update
     00024C95  A$lcc1877283$1048                  mg_leaves_update
     00024C96  A$lcc1877283$1049                  mg_leaves_update
     00024C98  A$lcc1877283$1050                  mg_leaves_update
     00024C99  A$lcc1877283$1051                  mg_leaves_update
     00024C9B  A$lcc1877283$1055                  mg_leaves_update
     00024C9B  C$mg_leaves_update.c$159$3_0$217   mg_leaves_update
     00024C9E  A$lcc1877283$1056                  mg_leaves_update
     00024CA1  A$lcc1877283$1060                  mg_leaves_update
     00024CA1  C$mg_leaves_update.c$161$3_0$217   mg_leaves_update
     00024CA4  A$lcc1877283$1064                  mg_leaves_update
     00024CA4  C$mg_leaves_update.c$162$3_0$217   mg_leaves_update
     00024CA7  A$lcc1877283$1068                  mg_leaves_update
     00024CA7  C$mg_leaves_update.c$164$3_0$217   mg_leaves_update
     00024CAA  A$lcc1877283$1069                  mg_leaves_update
     00024CAB  A$lcc1877283$1070                  mg_leaves_update
     00024CAC  A$lcc1877283$1071                  mg_leaves_update
     00024CAD  A$lcc1877283$1072                  mg_leaves_update
     00024CB0  A$lcc1877283$1073                  mg_leaves_update
     00024CB2  A$lcc1877283$1074                  mg_leaves_update
     00024CB3  A$lcc1877283$1075                  mg_leaves_update
     00024CB4  A$lcc1877283$1076                  mg_leaves_update
     00024CB7  A$lcc1877283$1080                  mg_leaves_update
     00024CB7  C$mg_leaves_update.c$165$3_0$217   mg_leaves_update
     00024CBA  A$lcc1877283$1085                  mg_leaves_update
     00024CBA  C$mg_leaves_update.c$168$2_0$219   mg_leaves_update
     00024CBD  A$lcc1877283$1086                  mg_leaves_update
     00024CBF  A$lcc1877283$1087                  mg_leaves_update
     00024CC1  A$lcc1877283$1091                  mg_leaves_update
     00024CC1  C$mg_leaves_update.c$169$2_0$219   mg_leaves_update
     00024CC4  A$lcc1877283$1092                  mg_leaves_update
     00024CC6  A$lcc1877283$1093                  mg_leaves_update
     00024CC8  A$lcc1877283$1098                  mg_leaves_update
     00024CC8  C$mg_leaves_update.c$171$2_0$219   mg_leaves_update
     00024CC9  A$lcc1877283$1099                  mg_leaves_update
     00024CCC  A$lcc1877283$1104                  mg_leaves_update
ASxxxx Linker V03.00/V05.40 + sdld,  page 189.
Hexadecimal  [32-Bits]

Area                                    Addr        Size        Decimal Bytes (Attributes)
--------------------------------        ----        ----        ------- ----- ------------
_CODE_2                             00024000    00000E0F =        3599. bytes (REL,CON)

      Value  Global                              Global Defined In Module
      -----  --------------------------------   ------------------------
     00024CCC  C$mg_leaves_update.c$173$2_0$220   mg_leaves_update
     00024CCF  A$lcc1877283$1105                  mg_leaves_update
     00024CD2  A$lcc1877283$1106                  mg_leaves_update
     00024CD3  A$lcc1877283$1107                  mg_leaves_update
     00024CD5  A$lcc1877283$1108                  mg_leaves_update
     00024CD6  A$lcc1877283$1109                  mg_leaves_update
     00024CD7  A$lcc1877283$1110                  mg_leaves_update
     00024CD8  A$lcc1877283$1111                  mg_leaves_update
     00024CD9  A$lcc1877283$1112                  mg_leaves_update
     00024CDC  A$lcc1877283$1113                  mg_leaves_update
     00024CDE  A$lcc1877283$1114                  mg_leaves_update
     00024CDF  A$lcc1877283$1115                  mg_leaves_update
     00024CE0  A$lcc1877283$1116                  mg_leaves_update
     00024CE1  A$lcc1877283$1117                  mg_leaves_update
     00024CE2  A$lcc1877283$1118                  mg_leaves_update
     00024CE3  A$lcc1877283$1119                  mg_leaves_update
     00024CE4  A$lcc1877283$1120                  mg_leaves_update
     00024CE7  A$lcc1877283$1121                  mg_leaves_update
     00024CE8  A$lcc1877283$1122                  mg_leaves_update
     00024CE9  A$lcc1877283$1123                  mg_leaves_update
     00024CEA  A$lcc1877283$1124                  mg_leaves_update
     00024CEB  A$lcc1877283$1125                  mg_leaves_update
     00024CEC  A$lcc1877283$1126                  mg_leaves_update
     00024CEE  A$lcc1877283$1127                  mg_leaves_update
     00024CEF  A$lcc1877283$1128                  mg_leaves_update
     00024CF0  A$lcc1877283$1129                  mg_leaves_update
     00024CF1  A$lcc1877283$1130                  mg_leaves_update
     00024CF2  A$lcc1877283$1131                  mg_leaves_update
     00024CF3  A$lcc1877283$1132                  mg_leaves_update
     00024CF4  A$lcc1877283$1133                  mg_leaves_update
     00024CF5  A$lcc1877283$1134                  mg_leaves_update
     00024CF6  A$lcc1877283$1135                  mg_leaves_update
     00024CF8  A$lcc1877283$1136                  mg_leaves_update
     00024CFA  A$lcc1877283$1137                  mg_leaves_update
     00024CFB  A$lcc1877283$1138                  mg_leaves_update
     00024CFC  A$lcc1877283$1139                  mg_leaves_update
     00024CFE  A$lcc1877283$1140                  mg_leaves_update
     00024CFF  A$lcc1877283$1141                  mg_leaves_update
     00024D00  A$lcc1877283$1142                  mg_leaves_update
     00024D01  A$lcc1877283$1143                  mg_leaves_update
     00024D02  A$lcc1877283$1144                  mg_leaves_update
     00024D03  A$lcc1877283$1145                  mg_leaves_update
     00024D04  A$lcc1877283$1146                  mg_leaves_update
     00024D05  A$lcc1877283$1147                  mg_leaves_update
     00024D06  A$lcc1877283$1148                  mg_leaves_update
     00024D08  A$lcc1877283$1149                  mg_leaves_update
     00024D0A  A$lcc1877283$1150                  mg_leaves_update
     00024D0C  A$lcc1877283$1151                  mg_leaves_update
     00024D0E  A$lcc1877283$1152                  mg_leaves_update
     00024D0F  A$lcc1877283$1153                  mg_leaves_update
     00024D11  A$lcc1877283$1155                  mg_leaves_update
ASxxxx Linker V03.00/V05.40 + sdld,  page 190.
Hexadecimal  [32-Bits]

Area                                    Addr        Size        Decimal Bytes (Attributes)
--------------------------------        ----        ----        ------- ----- ------------
_CODE_2                             00024000    00000E0F =        3599. bytes (REL,CON)

      Value  Global                              Global Defined In Module
      -----  --------------------------------   ------------------------
     00024D13  A$lcc1877283$1156                  mg_leaves_update
     00024D15  A$lcc1877283$1157                  mg_leaves_update
     00024D16  A$lcc1877283$1159                  mg_leaves_update
     00024D18  A$lcc1877283$1163                  mg_leaves_update
     00024D18  C$mg_leaves_update.c$174$2_0$220   mg_leaves_update
     00024D1B  A$lcc1877283$1164                  mg_leaves_update
     00024D1D  A$lcc1877283$1165                  mg_leaves_update
     00024D1F  A$lcc1877283$1170                  mg_leaves_update
     00024D1F  C$mg_leaves_update.c$176$2_0$220   mg_leaves_update
     00024D22  A$lcc1877283$1171                  mg_leaves_update
     00024D24  A$lcc1877283$1176                  mg_leaves_update
     00024D24  C$mg_leaves_update.c$178$2_0$221   mg_leaves_update
     00024D27  A$lcc1877283$1177                  mg_leaves_update
     00024D28  A$lcc1877283$1178                  mg_leaves_update
     00024D2A  A$lcc1877283$1179                  mg_leaves_update
     00024D2B  A$lcc1877283$1180                  mg_leaves_update
     00024D2E  A$lcc1877283$1181                  mg_leaves_update
     00024D2F  A$lcc1877283$1182                  mg_leaves_update
     00024D30  A$lcc1877283$1183                  mg_leaves_update
     00024D32  A$lcc1877283$1184                  mg_leaves_update
     00024D33  A$lcc1877283$1185                  mg_leaves_update
     00024D34  A$lcc1877283$1186                  mg_leaves_update
     00024D35  A$lcc1877283$1187                  mg_leaves_update
     00024D36  A$lcc1877283$1188                  mg_leaves_update
     00024D37  A$lcc1877283$1189                  mg_leaves_update
     00024D39  A$lcc1877283$1190                  mg_leaves_update
     00024D3A  A$lcc1877283$1191                  mg_leaves_update
     00024D3B  A$lcc1877283$1192                  mg_leaves_update
     00024D3C  A$lcc1877283$1193                  mg_leaves_update
     00024D3D  A$lcc1877283$1194                  mg_leaves_update
     00024D3F  A$lcc1877283$1198                  mg_leaves_update
     00024D3F  C$mg_leaves_update.c$179$2_0$221   mg_leaves_update
     00024D42  A$lcc1877283$1199                  mg_leaves_update
     00024D44  A$lcc1877283$1200                  mg_leaves_update
     00024D46  A$lcc1877283$1205                  mg_leaves_update
     00024D46  C$mg_leaves_update.c$181$2_0$221   mg_leaves_update
     00024D49  A$lcc1877283$1206                  mg_leaves_update
     00024D4B  A$lcc1877283$1211                  mg_leaves_update
     00024D4B  C$mg_leaves_update.c$183$1_0$215   mg_leaves_update
     00024D4D  A$lcc1877283$1212                  mg_leaves_update
     00024D4F  A$lcc1877283$1213                  mg_leaves_update
     00024D52  A$lcc1877283$1217                  mg_leaves_update
     00024D52  C$mg_leaves_update.c$185$1_0$215   mg_leaves_update
     00024D55  A$lcc1877283$1221                  mg_leaves_update
     00024D55  C$mg_leaves_update.c$186$1_0$215   mg_leaves_update
     00024D58  A$lcc1877283$1225                  mg_leaves_update
     00024D58  C$mg_leaves_update.c$188$1_0$215   mg_leaves_update
     00024D5B  A$lcc1877283$1226                  mg_leaves_update
     00024D5E  A$lcc1877283$1230                  mg_leaves_update
     00024D5E  C$mg_leaves_update.c$190$2_0$222   mg_leaves_update
     00024D61  A$lcc1877283$1231                  mg_leaves_update
ASxxxx Linker V03.00/V05.40 + sdld,  page 191.
Hexadecimal  [32-Bits]

Area                                    Addr        Size        Decimal Bytes (Attributes)
--------------------------------        ----        ----        ------- ----- ------------
_CODE_2                             00024000    00000E0F =        3599. bytes (REL,CON)

      Value  Global                              Global Defined In Module
      -----  --------------------------------   ------------------------
     00024D64  A$lcc1877283$1232                  mg_leaves_update
     00024D65  A$lcc1877283$1233                  mg_leaves_update
     00024D67  A$lcc1877283$1237                  mg_leaves_update
     00024D67  C$mg_leaves_update.c$192$3_0$223   mg_leaves_update
     00024D6A  A$lcc1877283$1238                  mg_leaves_update
     00024D6D  A$lcc1877283$1242                  mg_leaves_update
     00024D6D  C$mg_leaves_update.c$194$3_1$224   mg_leaves_update
     00024D70  A$lcc1877283$1246                  mg_leaves_update
     00024D70  C$mg_leaves_update.c$195$1_1$215   mg_leaves_update
     00024D72  A$lcc1877283$1247                  mg_leaves_update
     00024D73  A$lcc1877283$1248                  mg_leaves_update
     00024D75  A$lcc1877283$1249                  mg_leaves_update
     00024D78  A$lcc1877283$1250                  mg_leaves_update
     00024D79  A$lcc1877283$1251                  mg_leaves_update
     00024D7B  A$lcc1877283$1252                  mg_leaves_update
     00024D7E  A$lcc1877283$1253                  mg_leaves_update
     00024D7F  A$lcc1877283$1254                  mg_leaves_update
     00024D81  A$lcc1877283$1255                  mg_leaves_update
     00024D83  A$lcc1877283$1259                  mg_leaves_update
     00024D83  C$mg_leaves_update.c$196$1_1$215   mg_leaves_update
     00024D84  A$lcc1877283$1260                  mg_leaves_update
     00024D85  A$lcc1877283$1261                  mg_leaves_update
     00024D87  A$lcc1877283$1262                  mg_leaves_update
     00024D88  A$lcc1877283$1263                  mg_leaves_update
     00024D8B  A$lcc1877283$1264                  mg_leaves_update
     00024D8C  A$lcc1877283$1265                  mg_leaves_update
     00024D8E  A$lcc1877283$1266                  mg_leaves_update
     00024D91  A$lcc1877283$1267                  mg_leaves_update
     00024D92  A$lcc1877283$1268                  mg_leaves_update
     00024D94  A$lcc1877283$1269                  mg_leaves_update
     00024D96  A$lcc1877283$1273                  mg_leaves_update
     00024D96  C$mg_leaves_update.c$197$1_1$215   mg_leaves_update
     00024D97  A$lcc1877283$1274                  mg_leaves_update
     00024D99  A$lcc1877283$1275                  mg_leaves_update
     00024D9A  A$lcc1877283$1276                  mg_leaves_update
     00024D9D  A$lcc1877283$1277                  mg_leaves_update
     00024D9E  A$lcc1877283$1278                  mg_leaves_update
     00024DA0  A$lcc1877283$1279                  mg_leaves_update
     00024DA2  A$lcc1877283$1280                  mg_leaves_update
     00024DA3  A$lcc1877283$1284                  mg_leaves_update
     00024DA3  C$mg_leaves_update.c$199$3_1$224   mg_leaves_update
     00024DA5  A$lcc1877283$1285                  mg_leaves_update
     00024DA6  A$lcc1877283$1286                  mg_leaves_update
     00024DA7  A$lcc1877283$1287                  mg_leaves_update
     00024DA9  A$lcc1877283$1288                  mg_leaves_update
     00024DAB  A$lcc1877283$1289                  mg_leaves_update
     00024DAE  A$lcc1877283$1293                  mg_leaves_update
     00024DAE  C$mg_leaves_update.c$200$3_1$224   mg_leaves_update
     00024DB0  A$lcc1877283$1294                  mg_leaves_update
     00024DB1  A$lcc1877283$1295                  mg_leaves_update
     00024DB2  A$lcc1877283$1296                  mg_leaves_update
ASxxxx Linker V03.00/V05.40 + sdld,  page 192.
Hexadecimal  [32-Bits]

Area                                    Addr        Size        Decimal Bytes (Attributes)
--------------------------------        ----        ----        ------- ----- ------------
_CODE_2                             00024000    00000E0F =        3599. bytes (REL,CON)

      Value  Global                              Global Defined In Module
      -----  --------------------------------   ------------------------
     00024DB3  A$lcc1877283$1297                  mg_leaves_update
     00024DB5  A$lcc1877283$1298                  mg_leaves_update
     00024DB7  A$lcc1877283$1299                  mg_leaves_update
     00024DBA  A$lcc1877283$1303                  mg_leaves_update
     00024DBA  C$mg_leaves_update.c$201$3_1$224   mg_leaves_update
     00024DBC  A$lcc1877283$1304                  mg_leaves_update
     00024DBD  A$lcc1877283$1305                  mg_leaves_update
     00024DBE  A$lcc1877283$1306                  mg_leaves_update
     00024DBF  A$lcc1877283$1307                  mg_leaves_update
     00024DC1  A$lcc1877283$1308                  mg_leaves_update
     00024DC3  A$lcc1877283$1309                  mg_leaves_update
     00024DC6  A$lcc1877283$1313                  mg_leaves_update
     00024DC6  C$mg_leaves_update.c$202$3_1$224   mg_leaves_update
     00024DC8  A$lcc1877283$1314                  mg_leaves_update
     00024DC9  A$lcc1877283$1315                  mg_leaves_update
     00024DCA  A$lcc1877283$1316                  mg_leaves_update
     00024DCB  A$lcc1877283$1317                  mg_leaves_update
     00024DCD  A$lcc1877283$1318                  mg_leaves_update
     00024DCF  A$lcc1877283$1319                  mg_leaves_update
     00024DD2  A$lcc1877283$1324                  mg_leaves_update
     00024DD2  C$mg_leaves_update.c$205$1_1$225   mg_leaves_update
     00024DD5  A$lcc1877283$1325                  mg_leaves_update
     00024DD8  A$lcc1877283$1326                  mg_leaves_update
     00024DD9  A$lcc1877283$1327                  mg_leaves_update
     00024DDC  A$lcc1877283$1328                  mg_leaves_update
     00024DDD  A$lcc1877283$1332                  mg_leaves_update
     00024DDD  C$mg_leaves_update.c$207$1_1$215   mg_leaves_update
     00024DE0  A$lcc1877283$1333                  mg_leaves_update
     00024DE1  A$lcc1877283$1334                  mg_leaves_update
     00024DE2  A$lcc1877283$1335                  mg_leaves_update
     00024DE3  A$lcc1877283$1336                  mg_leaves_update
     00024DE6  A$lcc1877283$1337                  mg_leaves_update
     00024DE9  A$lcc1877283$1338                  mg_leaves_update
     00024DEA  A$lcc1877283$1339                  mg_leaves_update
     00024DEB  A$lcc1877283$1340                  mg_leaves_update
     00024DED  A$lcc1877283$1341                  mg_leaves_update
     00024DEE  A$lcc1877283$1345                  mg_leaves_update
     00024DEE  C$mg_leaves_update.c$208$1_1$215   mg_leaves_update
     00024DEF  A$lcc1877283$1346                  mg_leaves_update
     00024DF2  A$lcc1877283$1347                  mg_leaves_update
     00024DF5  A$lcc1877283$1348                  mg_leaves_update
     00024DF6  A$lcc1877283$1349                  mg_leaves_update
     00024DF7  A$lcc1877283$1350                  mg_leaves_update
     00024DF9  A$lcc1877283$1351                  mg_leaves_update
     00024DFA  A$lcc1877283$1355                  mg_leaves_update
     00024DFA  C$mg_leaves_update.c$210$1_1$225   mg_leaves_update
     00024DFB  A$lcc1877283$1356                  mg_leaves_update
     00024DFC  A$lcc1877283$1357                  mg_leaves_update
     00024DFD  A$lcc1877283$1358                  mg_leaves_update
     00024DFF  A$lcc1877283$1359                  mg_leaves_update
     00024E01  A$lcc1877283$1360                  mg_leaves_update
ASxxxx Linker V03.00/V05.40 + sdld,  page 193.
Hexadecimal  [32-Bits]

Area                                    Addr        Size        Decimal Bytes (Attributes)
--------------------------------        ----        ----        ------- ----- ------------
_CODE_2                             00024000    00000E0F =        3599. bytes (REL,CON)

      Value  Global                              Global Defined In Module
      -----  --------------------------------   ------------------------
     00024E04  A$lcc1877283$1364                  mg_leaves_update
     00024E04  C$mg_leaves_update.c$211$1_1$225   mg_leaves_update
     00024E05  A$lcc1877283$1365                  mg_leaves_update
     00024E07  A$lcc1877283$1366                  mg_leaves_update
     00024E09  A$lcc1877283$1367                  mg_leaves_update
     00024E0C  A$lcc1877283$1375                  mg_leaves_update
     00024E0C  C$mg_leaves_update.c$213$1_1$225   mg_leaves_update
     00024E0E  A$lcc1877283$1380                  mg_leaves_update
     00024E0E  C$mg_leaves_update.c$214$1_1$215   mg_leaves_update
     00024E0E  XG$Mg_Leaves_Update$0$0            mg_leaves_update
ASxxxx Linker V03.00/V05.40 + sdld,  page 194.

Files Linked                              [ module(s) ]

C:\Program Files\GBDK\lib/gb/crt0.o       [ Runtime ]
C:\Users\Bau_M\AppData\Local\Temp/lcc187720.o
                                          [ buttons ]
C:\Users\Bau_M\AppData\Local\Temp/lcc187721.o
                                          [ chars ]
C:\Users\Bau_M\AppData\Local\Temp/lcc187722.o
                                          [ numbers ]
C:\Users\Bau_M\AppData\Local\Temp/lcc187723.o
                                          [ gender_select_tilemap ]
C:\Users\Bau_M\AppData\Local\Temp/lcc187724.o
                                          [ gender_select_tileset ]
C:\Users\Bau_M\AppData\Local\Temp/lcc187725.o
                                          [ inventory_bkg ]
C:\Users\Bau_M\AppData\Local\Temp/lcc187726.o
                                          [ bkg_MainMenu ]
C:\Users\Bau_M\AppData\Local\Temp/lcc187727.o
                                          [ map_example ]
C:\Users\Bau_M\AppData\Local\Temp/lcc187728.o
                                          [ bkg_leaves_example ]
C:\Users\Bau_M\AppData\Local\Temp/lcc187729.o
                                          [ npc_icons ]
C:\Users\Bau_M\AppData\Local\Temp/lcc1877210.o
                                          [ template_tileset ]
C:\Users\Bau_M\AppData\Local\Temp/lcc1877211.o
                                          [ text_frame ]
C:\Users\Bau_M\AppData\Local\Temp/lcc1877212.o
                                          [ text_frame_init ]
C:\Users\Bau_M\AppData\Local\Temp/lcc1877213.o
                                          [ spr_InventoryArrow_idle ]
C:\Users\Bau_M\AppData\Local\Temp/lcc1877214.o
                                          [ spr_Branch ]
C:\Users\Bau_M\AppData\Local\Temp/lcc1877215.o
                                          [ broom ]
C:\Users\Bau_M\AppData\Local\Temp/lcc1877216.o
                                          [ spr_garbage ]
C:\Users\Bau_M\AppData\Local\Temp/lcc1877217.o
                                          [ leaf ]
C:\Users\Bau_M\AppData\Local\Temp/lcc1877218.o
                                          [ example_npc ]
C:\Users\Bau_M\AppData\Local\Temp/lcc1877219.o
                                          [ spr_Player_down0 ]
C:\Users\Bau_M\AppData\Local\Temp/lcc1877220.o
                                          [ spr_Player_down1 ]
C:\Users\Bau_M\AppData\Local\Temp/lcc1877221.o
                                          [ spr_Player_down2 ]
C:\Users\Bau_M\AppData\Local\Temp/lcc1877222.o
                                          [ spr_Player_up0 ]
C:\Users\Bau_M\AppData\Local\Temp/lcc1877223.o
                                          [ spr_Player_up1 ]
C:\Users\Bau_M\AppData\Local\Temp/lcc1877224.o
                                          [ spr_Player_up2 ]
C:\Users\Bau_M\AppData\Local\Temp/lcc1877225.o
                                          [ action ]
C:\Users\Bau_M\AppData\Local\Temp/lcc1877226.o
                                          [ animation ]
C:\Users\Bau_M\AppData\Local\Temp/lcc1877227.o
                                          [ can_move ]
C:\Users\Bau_M\AppData\Local\Temp/lcc1877228.o
                                          [ char_to_tile ]
C:\Users\Bau_M\AppData\Local\Temp/lcc1877229.o
                                          [ collision ]
C:\Users\Bau_M\AppData\Local\Temp/lcc1877230.o
                                          [ draw ]
C:\Users\Bau_M\AppData\Local\Temp/lcc1877231.o
                                          [ entity ]
C:\Users\Bau_M\AppData\Local\Temp/lcc1877232.o
                                          [ extra_actors ]
C:\Users\Bau_M\AppData\Local\Temp/lcc1877233.o
                                          [ gender_selection ]
C:\Users\Bau_M\AppData\Local\Temp/lcc1877234.o
                                          [ input ]
C:\Users\Bau_M\AppData\Local\Temp/lcc1877235.o
                                          [ inventory ]
C:\Users\Bau_M\AppData\Local\Temp/lcc1877236.o
                                          [ inventory_input ]
C:\Users\Bau_M\AppData\Local\Temp/lcc1877237.o
                                          [ load ]
C:\Users\Bau_M\AppData\Local\Temp/lcc1877238.o
                                          [ map_scenes ]
C:\Users\Bau_M\AppData\Local\Temp/lcc1877239.o
                                          [ minigames ]
C:\Users\Bau_M\AppData\Local\Temp/lcc1877240.o
                                          [ money ]
C:\Users\Bau_M\AppData\Local\Temp/lcc1877241.o
                                          [ name ]
C:\Users\Bau_M\AppData\Local\Temp/lcc1877242.o
                                          [ npcs ]
C:\Users\Bau_M\AppData\Local\Temp/lcc1877243.o
                                          [ npc_lines ]
C:\Users\Bau_M\AppData\Local\Temp/lcc1877244.o
                                          [ player ]
C:\Users\Bau_M\AppData\Local\Temp/lcc1877245.o
                                          [ position ]
C:\Users\Bau_M\AppData\Local\Temp/lcc1877246.o
                                          [ random ]
C:\Users\Bau_M\AppData\Local\Temp/lcc1877247.o
                                          [ render ]
C:\Users\Bau_M\AppData\Local\Temp/lcc1877248.o
                                          [ scene ]
C:\Users\Bau_M\AppData\Local\Temp/lcc1877249.o
                                          [ scene_manager ]
C:\Users\Bau_M\AppData\Local\Temp/lcc1877250.o
                                          [ speed ]
C:\Users\Bau_M\AppData\Local\Temp/lcc1877251.o
                                          [ gender_select ]
C:\Users\Bau_M\AppData\Local\Temp/lcc1877252.o
                                          [ gender_select_init ]
C:\Users\Bau_M\AppData\Local\Temp/lcc1877253.o
                                          [ gender_select_update ]
C:\Users\Bau_M\AppData\Local\Temp/lcc1877254.o
                                          [ inventory_scene ]
C:\Users\Bau_M\AppData\Local\Temp/lcc1877255.o
                                          [ inventory_scene_init ]
C:\Users\Bau_M\AppData\Local\Temp/lcc1877256.o
                                          [ inventory_scene_update ]
C:\Users\Bau_M\AppData\Local\Temp/lcc1877257.o
                                          [ main_menu ]
C:\Users\Bau_M\AppData\Local\Temp/lcc1877258.o
                                          [ main_menu_init ]
C:\Users\Bau_M\AppData\Local\Temp/lcc1877259.o
                                          [ main_menu_init_stats ]
C:\Users\Bau_M\AppData\Local\Temp/lcc1877260.o
                                          [ main_menu_input ]
C:\Users\Bau_M\AppData\Local\Temp/lcc1877261.o
                                          [ main_menu_update ]
C:\Users\Bau_M\AppData\Local\Temp/lcc1877262.o
                                          [ clean_text ]
C:\Users\Bau_M\AppData\Local\Temp/lcc1877263.o
                                          [ map_collision ]
C:\Users\Bau_M\AppData\Local\Temp/lcc1877264.o
                                          [ map_data ]
C:\Users\Bau_M\AppData\Local\Temp/lcc1877265.o
                                          [ map_player_movement ]
C:\Users\Bau_M\AppData\Local\Temp/lcc1877266.o
                                          [ map_00 ]
C:\Users\Bau_M\AppData\Local\Temp/lcc1877267.o
                                          [ map_00_check_items ]
C:\Users\Bau_M\AppData\Local\Temp/lcc1877268.o
                                          [ map_00_collision ]
C:\Users\Bau_M\AppData\Local\Temp/lcc1877269.o
                                          [ map_00_init ]
C:\Users\Bau_M\AppData\Local\Temp/lcc1877270.o
                                          [ map_00_init_dialogues ]
C:\Users\Bau_M\AppData\Local\Temp/lcc1877271.o
                                          [ map_00_init_npc ]
C:\Users\Bau_M\AppData\Local\Temp/lcc1877272.o
                                          [ map_00_update ]
C:\Users\Bau_M\AppData\Local\Temp/lcc1877273.o
                                          [ mg_instruction_set ]
C:\Users\Bau_M\AppData\Local\Temp/lcc1877274.o
                                          [ mg_load_screen ]
C:\Users\Bau_M\AppData\Local\Temp/lcc1877275.o
                                          [ mg_mission_complete ]
C:\Users\Bau_M\AppData\Local\Temp/lcc1877276.o
                                          [ mg_player_movement ]
C:\Users\Bau_M\AppData\Local\Temp/lcc1877277.o
                                          [ mg_timer ]
C:\Users\Bau_M\AppData\Local\Temp/lcc1877278.o
                                          [ mini_games ]
C:\Users\Bau_M\AppData\Local\Temp/lcc1877279.o
                                          [ mg_leaves ]
C:\Users\Bau_M\AppData\Local\Temp/lcc1877280.o
                                          [ mg_leaves_init ]
C:\Users\Bau_M\AppData\Local\Temp/lcc1877281.o
                                          [ mg_leaves_load_bkg ]
C:\Users\Bau_M\AppData\Local\Temp/lcc1877282.o
                                          [ mg_leaves_player_init ]
C:\Users\Bau_M\AppData\Local\Temp/lcc1877283.o
                                          [ mg_leaves_update ]
C:\Users\Bau_M\AppData\Local\Temp/lcc1877284.o
                                          [ main ]


Libraries Linked                          [ object file ]

C:\Program Files\GBDK\lib/gb/gb.lib       [ sfr.o ]
C:\Program Files\GBDK\lib/sm83/sm83.lib   [ div.o ]
C:\Program Files\GBDK\lib/sm83/sm83.lib   [ free.o ]
C:\Program Files\GBDK\lib/sm83/sm83.lib   [ malloc.o ]
C:\Program Files\GBDK\lib/gb/gb.lib       [ set_data.o ]
C:\Program Files\GBDK\lib/gb/gb.lib       [ set_tile.o ]
C:\Program Files\GBDK\lib/sm83/sm83.lib   [ mul.o ]
C:\Program Files\GBDK\lib/gb/gb.lib       [ pad.o ]
C:\Program Files\GBDK\lib/sm83/sm83.lib   [ __sdcc_call_hl.o ]
C:\Program Files\GBDK\lib/sm83/sm83.lib   [ memcpy.o ]
C:\Program Files\GBDK\lib/gb/gb.lib       [ heap.o ]
C:\Program Files\GBDK\lib/gb/gb.lib       [ set_bk_t.o ]
C:\Program Files\GBDK\lib/gb/gb.lib       [ set_xy_t.o ]

ASxxxx Linker V03.00/V05.40 + sdld,  page 195.

User Base Address Definitions

_DATA=0xC0A0
_CODE=0x0200
_HRAM=0xFF80
ASxxxx Linker V03.00/V05.40 + sdld,  page 196.

User Global Definitions

_shadow_OAM=0xC000
.STACK=0xE000

