ASxxxx Linker V03.00/V05.40 + sdld,  page 1.
Hexadecimal  [32-Bits]

Area                                    Addr        Size        Decimal Bytes (Attributes)
--------------------------------        ----        ----        ------- ----- ------------
.  .ABS.                            00000000    00000000 =           0. bytes (ABS,CON)

      Value  Global                              Global Defined In Module
      -----  --------------------------------   ------------------------
     00000000  .__.ABS.                           SetTileMap
     00000000  _rMBC7_SRAM_ENABLE_1               
     00000000  _rRAMG                             
     00000000  l__BASE                         
     00000000  l__BSS                          
     00000000  l__CABS                         
     00000000  l__CODE_0                       
     00000000  l__DABS                         
     00000000  l__HEADER                       
     00000000  l__LIT                          
     00000000  s__CABS                         
     00000000  s__DABS                         
     00000000  s__HEADER                       
     00000000  s__HEADER0                      
     00000000  s__HEADER1                      
     00000000  s__HEADER10                     
     00000000  s__HEADER11                     
     00000000  s__HEADER2                      
     00000000  s__HEADER3                      
     00000000  s__HEADER4                      
     00000000  s__HEADER5                      
     00000000  s__HEADER6                      
     00000000  s__HEADER7                      
     00000000  s__HEADER8                      
     00000000  s__HEADER9                      
     00000000  s__HEADERa                      
     00000000  s__HEADERb                      
     00000000  s__HEADERc                      
     00000000  s__HEADERd                      
     00000000  s__HEADERe                      
     00000000  s__HEADERf                      
     00000001  l__GSFINAL                      
     00000001  l__HEADER0                      
     00000001  l__HEADER5                      
     00000001  l__HEADERa                      
     00000001  l__HEADERb                      
     00000001  l__HEADERc                      
     00000001  l__HEADERe                      
     00000001  l__HEADERf                      
     00000001  l__HEAP_END                     
     00000002  l__HEADER10                     
     00000002  l__HEADER6                      
     00000002  l__HEADERd                      
     00000003  l__HEADER9                      
     00000005  l__HEADER1                      
     00000006  l__HEADER8                      
     00000007  l__HEADER2                      
     00000008  l__HEADER3                      
     0000000F  l__GSINIT                       
     00000013  l__HRAM                         
ASxxxx Linker V03.00/V05.40 + sdld,  page 2.
Hexadecimal  [32-Bits]

Area                                    Addr        Size        Decimal Bytes (Attributes)
--------------------------------        ----        ----        ------- ----- ------------
.  .ABS.                            00000000    00000000 =           0. bytes (ABS,CON)

      Value  Global                              Global Defined In Module
      -----  --------------------------------   ------------------------
     00000030  l__HEADER7                      
     00000060  l__HEADER4                      
     000000AB  l__HEADER11                     
     0000012C  l__HOME                         
     000001A8  l__DATA                         
     000001E3  l__INITIALIZED                  
     000001E3  l__INITIALIZER                  
     00000200  s__CODE                         
     000007FF  l__HEAP                         
     00002000  _rROMB0                            
     00003000  _rROMB1                            
     00003123  l__CODE                         
     00003323  s__HOME                         
     0000344F  s__BASE                         
     0000344F  s__CODE_0                       
     0000344F  s__INITIALIZER                  
     0000344F  s__LIT                          
     00003632  s__GSINIT                       
     00003641  s__GSFINAL                      
     00004000  _rMBC7_SRAM_ENABLE_2               
     00004000  _rRAMB                             
     00008000  __VRAM                             
     00008000  __VRAM8000                         
     00008800  __VRAM8800                         
     00009000  __VRAM9000                         
     00009800  __SCRN0                            
     00009C00  __SCRN1                            
     0000A000  __SRAM                             
     0000A000  _rMBC7_LATCH_1                     
     0000A010  _rMBC7_LATCH_2                     
     0000A020  _rMBC7_ACCEL_X_LO                  
     0000A030  _rMBC7_ACCEL_X_HI                  
     0000A040  _rMBC7_ACCEL_Y_LO                  
     0000A050  _rMBC7_ACCEL_Y_HI                  
     0000C000  __RAM                              
     0000C000  _shadow_OAM                     
     0000C0A0  s__DATA                         
     0000C248  s__BSS                          
     0000C248  s__INITIALIZED                  
     0000C42B  s__HEAP                         
     0000CC2A  s__HEAP_END                     
     0000D000  __RAMBANK                          
     0000E000  .STACK                          
     0000FE00  __OAMRAM                           
     0000FF00  _P1_REG                            
     0000FF00  __IO                               
     0000FF01  _SB_REG                            
     0000FF02  _SC_REG                            
     0000FF04  _DIV_REG                           
     0000FF05  _TIMA_REG                          
     0000FF06  _TMA_REG                           
ASxxxx Linker V03.00/V05.40 + sdld,  page 3.
Hexadecimal  [32-Bits]

Area                                    Addr        Size        Decimal Bytes (Attributes)
--------------------------------        ----        ----        ------- ----- ------------
.  .ABS.                            00000000    00000000 =           0. bytes (ABS,CON)

      Value  Global                              Global Defined In Module
      -----  --------------------------------   ------------------------
     0000FF07  _TAC_REG                           
     0000FF0F  _IF_REG                            
     0000FF10  _NR10_REG                          
     0000FF11  _NR11_REG                          
     0000FF12  _NR12_REG                          
     0000FF13  _NR13_REG                          
     0000FF14  _NR14_REG                          
     0000FF16  _NR21_REG                          
     0000FF17  _NR22_REG                          
     0000FF18  _NR23_REG                          
     0000FF19  _NR24_REG                          
     0000FF1A  _NR30_REG                          
     0000FF1B  _NR31_REG                          
     0000FF1C  _NR32_REG                          
     0000FF1D  _NR33_REG                          
     0000FF1E  _NR34_REG                          
     0000FF20  _NR41_REG                          
     0000FF21  _NR42_REG                          
     0000FF22  _NR43_REG                          
     0000FF23  _NR44_REG                          
     0000FF24  _NR50_REG                          
     0000FF25  _NR51_REG                          
     0000FF26  _NR52_REG                          
     0000FF30  _AUD3WAVE                          
     0000FF30  _PCM_SAMPLE                        
     0000FF30  __AUD3WAVERAM                      
     0000FF40  _LCDC_REG                          
     0000FF41  _STAT_REG                          
     0000FF42  _SCY_REG                           
     0000FF43  _SCX_REG                           
     0000FF44  _LY_REG                            
     0000FF45  _LYC_REG                           
     0000FF46  _DMA_REG                           
     0000FF47  _BGP_REG                           
     0000FF48  _OBP0_REG                          
     0000FF49  _OBP1_REG                          
     0000FF4A  _WY_REG                            
     0000FF4B  _WX_REG                            
     0000FF4D  _KEY1_REG                          
     0000FF4F  _VBK_REG                           
     0000FF51  _HDMA1_REG                         
     0000FF52  _HDMA2_REG                         
     0000FF53  _HDMA3_REG                         
     0000FF54  _HDMA4_REG                         
     0000FF55  _HDMA5_REG                         
     0000FF56  _RP_REG                            
     0000FF68  _BCPS_REG                          
     0000FF69  _BCPD_REG                          
     0000FF6A  _OCPS_REG                          
     0000FF6B  _OCPD_REG                          
     0000FF70  _SVBK_REG                          
ASxxxx Linker V03.00/V05.40 + sdld,  page 4.
Hexadecimal  [32-Bits]

Area                                    Addr        Size        Decimal Bytes (Attributes)
--------------------------------        ----        ----        ------- ----- ------------
.  .ABS.                            00000000    00000000 =           0. bytes (ABS,CON)

      Value  Global                              Global Defined In Module
      -----  --------------------------------   ------------------------
     0000FF76  _PCM12_REG                         
     0000FF77  _PCM34_REG                         
     0000FF80  __HRAM                             
     0000FF80  s__HRAM                         
     0000FFFF  _IE_REG                            

ASxxxx Linker V03.00/V05.40 + sdld,  page 5.
Hexadecimal  [32-Bits]

Area                                    Addr        Size        Decimal Bytes (Attributes)
--------------------------------        ----        ----        ------- ----- ------------
_CODE                               00000200    00003123 =       12579. bytes (REL,CON)

      Value  Global                              Global Defined In Module
      -----  --------------------------------   ------------------------
     00000200  G$chars_tileset$0_0$0              chars
     00000200  _chars_tileset                     chars
     000003F0  G$chars_tilemap$0_0$0              chars
     000003F0  _chars_tilemap                     chars
     0000040E  G$numbers_tileset$0_0$0            numbers
     0000040E  _numbers_tileset                   numbers
     000004AE  G$numbers_tilemap$0_0$0            numbers
     000004AE  _numbers_tilemap                   numbers
     000004B8  G$gender_select_tilemap$0_0$0      gender_select_tilemap
     000004B8  _gender_select_tilemap             gender_select_tilemap
     00000620  G$gender_select_tileset$0_0$0      gender_select_tileset
     00000620  _gender_select_tileset             gender_select_tileset
     00000910  G$inventory_bkg_tileset$0_0$0      inventory_bkg
     00000910  _inventory_bkg_tileset             inventory_bkg
     00000C50  G$inventory_bkg_tilemap$0_0$0      inventory_bkg
     00000C50  _inventory_bkg_tilemap             inventory_bkg
     00000DB8  G$bkg_main_menu_tileset$0_0$0      bkg_MainMenu
     00000DB8  _bkg_main_menu_tileset             bkg_MainMenu
     00001078  G$bkg_main_menu_tilemap$0_0$0      bkg_MainMenu
     00001078  _bkg_main_menu_tilemap             bkg_MainMenu
     000011E0  G$example_tileset$0_0$0            map_example
     000011E0  _example_tileset                   map_example
     00001690  G$example_tilemap$0_0$0            map_example
     00001690  _example_tilemap                   map_example
     000017F8  G$template_tilemap$0_0$0           template_tilemap
     000017F8  _template_tilemap                  template_tilemap
     00001960  G$template_tileset$0_0$0           template_tileset
     00001960  _template_tileset                  template_tileset
     00001B30  G$spr_Branch$0_0$0                 spr_Branch
     00001B30  _spr_Branch                        spr_Branch
     00001B40  A$lcc588818$66                     action
     00001B40  C$action.c$12$0_0$150              action
     00001B40  G$move_up$0$0                      action
     00001B40  _move_up                           action
     00001B42  A$lcc588818$67                     action
     00001B44  A$lcc588818$68                     action
     00001B45  A$lcc588818$72                     action
     00001B45  C$action.c$14$2_0$151              action
     00001B48  A$lcc588818$73                     action
     00001B4A  A$lcc588818$77                     action
     00001B4A  C$action.c$15$2_0$151              action
     00001B4C  A$lcc588818$81                     action
     00001B4C  C$action.c$17$1_0$150              action
     00001B4E  A$lcc588818$82                     action
     00001B4F  A$lcc588818$83                     action
     00001B50  A$lcc588818$84                     action
     00001B52  A$lcc588818$85                     action
     00001B53  A$lcc588818$86                     action
     00001B55  A$lcc588818$87                     action
     00001B57  A$lcc588818$88                     action
ASxxxx Linker V03.00/V05.40 + sdld,  page 6.
Hexadecimal  [32-Bits]

Area                                    Addr        Size        Decimal Bytes (Attributes)
--------------------------------        ----        ----        ------- ----- ------------
_CODE                               00000200    00003123 =       12579. bytes (REL,CON)

      Value  Global                              Global Defined In Module
      -----  --------------------------------   ------------------------
     00001B58  A$lcc588818$89                     action
     00001B5B  A$lcc588818$90                     action
     00001B5D  A$lcc588818$91                     action
     00001B5E  A$lcc588818$92                     action
     00001B5F  A$lcc588818$93                     action
     00001B60  A$lcc588818$94                     action
     00001B61  A$lcc588818$95                     action
     00001B62  A$lcc588818$96                     action
     00001B63  A$lcc588818$97                     action
     00001B64  A$lcc588818$98                     action
     00001B65  A$lcc588818$99                     action
     00001B66  A$lcc588818$100                    action
     00001B67  A$lcc588818$101                    action
     00001B69  A$lcc588818$102                    action
     00001B6A  A$lcc588818$103                    action
     00001B6C  A$lcc588818$104                    action
     00001B6D  A$lcc588818$105                    action
     00001B6F  A$lcc588818$106                    action
     00001B70  A$lcc588818$107                    action
     00001B72  A$lcc588818$108                    action
     00001B73  A$lcc588818$109                    action
     00001B75  A$lcc588818$110                    action
     00001B76  A$lcc588818$111                    action
     00001B78  A$lcc588818$112                    action
     00001B79  A$lcc588818$113                    action
     00001B7A  A$lcc588818$114                    action
     00001B7B  A$lcc588818$115                    action
     00001B7C  A$lcc588818$116                    action
     00001B7D  A$lcc588818$117                    action
     00001B7E  A$lcc588818$118                    action
     00001B7F  A$lcc588818$119                    action
     00001B80  A$lcc588818$120                    action
     00001B81  A$lcc588818$121                    action
     00001B82  A$lcc588818$122                    action
     00001B84  A$lcc588818$123                    action
     00001B85  A$lcc588818$124                    action
     00001B86  A$lcc588818$125                    action
     00001B87  A$lcc588818$126                    action
     00001B88  A$lcc588818$127                    action
     00001B89  A$lcc588818$128                    action
     00001B8A  A$lcc588818$129                    action
     00001B8B  A$lcc588818$130                    action
     00001B8C  A$lcc588818$131                    action
     00001B8D  A$lcc588818$132                    action
     00001B8E  A$lcc588818$136                    action
     00001B8E  C$action.c$18$1_0$150              action
     00001B91  A$lcc588818$137                    action
     00001B92  A$lcc588818$138                    action
     00001B93  A$lcc588818$139                    action
     00001B95  A$lcc588818$140                    action
     00001B96  A$lcc588818$141                    action
ASxxxx Linker V03.00/V05.40 + sdld,  page 7.
Hexadecimal  [32-Bits]

Area                                    Addr        Size        Decimal Bytes (Attributes)
--------------------------------        ----        ----        ------- ----- ------------
_CODE                               00000200    00003123 =       12579. bytes (REL,CON)

      Value  Global                              Global Defined In Module
      -----  --------------------------------   ------------------------
     00001B97  A$lcc588818$142                    action
     00001B98  A$lcc588818$143                    action
     00001B99  A$lcc588818$144                    action
     00001B9A  A$lcc588818$149                    action
     00001B9C  A$lcc588818$154                    action
     00001B9C  C$action.c$19$1_0$150              action
     00001B9C  XG$move_up$0$0                     action
     00001B9D  A$lcc588818$164                    action
     00001B9D  C$action.c$21$1_0$153              action
     00001B9D  G$move_down$0$0                    action
     00001B9D  _move_down                         action
     00001B9F  A$lcc588818$165                    action
     00001BA1  A$lcc588818$166                    action
     00001BA2  A$lcc588818$170                    action
     00001BA2  C$action.c$23$2_0$154              action
     00001BA5  A$lcc588818$171                    action
     00001BA7  A$lcc588818$175                    action
     00001BA7  C$action.c$24$2_0$154              action
     00001BA9  A$lcc588818$179                    action
     00001BA9  C$action.c$26$1_0$153              action
     00001BAB  A$lcc588818$180                    action
     00001BAC  A$lcc588818$181                    action
     00001BAD  A$lcc588818$182                    action
     00001BAF  A$lcc588818$183                    action
     00001BB0  A$lcc588818$184                    action
     00001BB2  A$lcc588818$185                    action
     00001BB4  A$lcc588818$186                    action
     00001BB5  A$lcc588818$187                    action
     00001BB8  A$lcc588818$188                    action
     00001BBA  A$lcc588818$189                    action
     00001BBB  A$lcc588818$190                    action
     00001BBC  A$lcc588818$191                    action
     00001BBD  A$lcc588818$192                    action
     00001BBE  A$lcc588818$193                    action
     00001BBF  A$lcc588818$194                    action
     00001BC0  A$lcc588818$195                    action
     00001BC1  A$lcc588818$196                    action
     00001BC3  A$lcc588818$197                    action
     00001BC4  A$lcc588818$198                    action
     00001BC5  A$lcc588818$199                    action
     00001BC7  A$lcc588818$200                    action
     00001BC8  A$lcc588818$201                    action
     00001BC9  A$lcc588818$202                    action
     00001BCA  A$lcc588818$203                    action
     00001BCB  A$lcc588818$204                    action
     00001BCC  A$lcc588818$205                    action
     00001BCD  A$lcc588818$206                    action
     00001BCE  A$lcc588818$207                    action
     00001BCF  A$lcc588818$208                    action
     00001BD0  A$lcc588818$209                    action
     00001BD1  A$lcc588818$213                    action
ASxxxx Linker V03.00/V05.40 + sdld,  page 8.
Hexadecimal  [32-Bits]

Area                                    Addr        Size        Decimal Bytes (Attributes)
--------------------------------        ----        ----        ------- ----- ------------
_CODE                               00000200    00003123 =       12579. bytes (REL,CON)

      Value  Global                              Global Defined In Module
      -----  --------------------------------   ------------------------
     00001BD1  C$action.c$27$1_0$153              action
     00001BD4  A$lcc588818$214                    action
     00001BD6  A$lcc588818$215                    action
     00001BD7  A$lcc588818$216                    action
     00001BD9  A$lcc588818$217                    action
     00001BDA  A$lcc588818$218                    action
     00001BDB  A$lcc588818$219                    action
     00001BDC  A$lcc588818$220                    action
     00001BDD  A$lcc588818$221                    action
     00001BDE  A$lcc588818$226                    action
     00001BE0  A$lcc588818$231                    action
     00001BE0  C$action.c$28$1_0$153              action
     00001BE0  XG$move_down$0$0                   action
     00001BE1  A$lcc588818$241                    action
     00001BE1  C$action.c$30$1_0$156              action
     00001BE1  G$move_left$0$0                    action
     00001BE1  _move_left                         action
     00001BE3  A$lcc588818$242                    action
     00001BE5  A$lcc588818$243                    action
     00001BE6  A$lcc588818$247                    action
     00001BE6  C$action.c$32$2_0$157              action
     00001BE9  A$lcc588818$248                    action
     00001BEB  A$lcc588818$252                    action
     00001BEB  C$action.c$33$2_0$157              action
     00001BED  A$lcc588818$256                    action
     00001BED  C$action.c$35$1_0$156              action
     00001BEF  A$lcc588818$257                    action
     00001BF0  A$lcc588818$258                    action
     00001BF1  A$lcc588818$259                    action
     00001BF3  A$lcc588818$260                    action
     00001BF4  A$lcc588818$261                    action
     00001BF6  A$lcc588818$262                    action
     00001BF8  A$lcc588818$263                    action
     00001BF9  A$lcc588818$264                    action
     00001BFC  A$lcc588818$265                    action
     00001BFE  A$lcc588818$266                    action
     00001BFF  A$lcc588818$267                    action
     00001C00  A$lcc588818$268                    action
     00001C01  A$lcc588818$269                    action
     00001C02  A$lcc588818$270                    action
     00001C03  A$lcc588818$271                    action
     00001C04  A$lcc588818$272                    action
     00001C05  A$lcc588818$273                    action
     00001C06  A$lcc588818$274                    action
     00001C07  A$lcc588818$275                    action
     00001C08  A$lcc588818$276                    action
     00001C0A  A$lcc588818$277                    action
     00001C0B  A$lcc588818$278                    action
     00001C0D  A$lcc588818$279                    action
     00001C0E  A$lcc588818$280                    action
     00001C10  A$lcc588818$281                    action
ASxxxx Linker V03.00/V05.40 + sdld,  page 9.
Hexadecimal  [32-Bits]

Area                                    Addr        Size        Decimal Bytes (Attributes)
--------------------------------        ----        ----        ------- ----- ------------
_CODE                               00000200    00003123 =       12579. bytes (REL,CON)

      Value  Global                              Global Defined In Module
      -----  --------------------------------   ------------------------
     00001C11  A$lcc588818$282                    action
     00001C13  A$lcc588818$283                    action
     00001C14  A$lcc588818$284                    action
     00001C16  A$lcc588818$285                    action
     00001C17  A$lcc588818$286                    action
     00001C19  A$lcc588818$287                    action
     00001C1A  A$lcc588818$288                    action
     00001C1B  A$lcc588818$289                    action
     00001C1C  A$lcc588818$290                    action
     00001C1D  A$lcc588818$291                    action
     00001C1E  A$lcc588818$292                    action
     00001C1F  A$lcc588818$293                    action
     00001C20  A$lcc588818$294                    action
     00001C21  A$lcc588818$295                    action
     00001C22  A$lcc588818$296                    action
     00001C23  A$lcc588818$297                    action
     00001C25  A$lcc588818$298                    action
     00001C26  A$lcc588818$299                    action
     00001C27  A$lcc588818$300                    action
     00001C28  A$lcc588818$301                    action
     00001C29  A$lcc588818$305                    action
     00001C29  C$action.c$36$1_0$156              action
     00001C2A  A$lcc588818$306                    action
     00001C2B  A$lcc588818$307                    action
     00001C2C  A$lcc588818$308                    action
     00001C2D  A$lcc588818$309                    action
     00001C2E  A$lcc588818$310                    action
     00001C2F  A$lcc588818$311                    action
     00001C30  A$lcc588818$312                    action
     00001C31  A$lcc588818$313                    action
     00001C34  A$lcc588818$314                    action
     00001C35  A$lcc588818$315                    action
     00001C37  A$lcc588818$316                    action
     00001C38  A$lcc588818$317                    action
     00001C39  A$lcc588818$318                    action
     00001C3A  A$lcc588818$319                    action
     00001C3B  A$lcc588818$320                    action
     00001C3C  A$lcc588818$321                    action
     00001C3D  A$lcc588818$326                    action
     00001C3F  A$lcc588818$331                    action
     00001C3F  C$action.c$37$1_0$156              action
     00001C3F  XG$move_left$0$0                   action
     00001C40  A$lcc588818$341                    action
     00001C40  C$action.c$39$1_0$159              action
     00001C40  G$move_right$0$0                   action
     00001C40  _move_right                        action
     00001C42  A$lcc588818$342                    action
     00001C44  A$lcc588818$343                    action
     00001C45  A$lcc588818$347                    action
     00001C45  C$action.c$41$2_0$160              action
     00001C48  A$lcc588818$348                    action
ASxxxx Linker V03.00/V05.40 + sdld,  page 10.
Hexadecimal  [32-Bits]

Area                                    Addr        Size        Decimal Bytes (Attributes)
--------------------------------        ----        ----        ------- ----- ------------
_CODE                               00000200    00003123 =       12579. bytes (REL,CON)

      Value  Global                              Global Defined In Module
      -----  --------------------------------   ------------------------
     00001C4A  A$lcc588818$352                    action
     00001C4A  C$action.c$42$2_0$160              action
     00001C4C  A$lcc588818$356                    action
     00001C4C  C$action.c$44$1_0$159              action
     00001C4E  A$lcc588818$357                    action
     00001C4F  A$lcc588818$358                    action
     00001C50  A$lcc588818$359                    action
     00001C52  A$lcc588818$360                    action
     00001C53  A$lcc588818$361                    action
     00001C55  A$lcc588818$362                    action
     00001C57  A$lcc588818$363                    action
     00001C58  A$lcc588818$364                    action
     00001C5B  A$lcc588818$365                    action
     00001C5D  A$lcc588818$366                    action
     00001C5E  A$lcc588818$367                    action
     00001C5F  A$lcc588818$368                    action
     00001C60  A$lcc588818$369                    action
     00001C61  A$lcc588818$370                    action
     00001C62  A$lcc588818$371                    action
     00001C63  A$lcc588818$372                    action
     00001C64  A$lcc588818$373                    action
     00001C66  A$lcc588818$374                    action
     00001C67  A$lcc588818$375                    action
     00001C68  A$lcc588818$376                    action
     00001C6A  A$lcc588818$377                    action
     00001C6B  A$lcc588818$378                    action
     00001C6C  A$lcc588818$379                    action
     00001C6D  A$lcc588818$380                    action
     00001C6E  A$lcc588818$381                    action
     00001C6F  A$lcc588818$382                    action
     00001C70  A$lcc588818$383                    action
     00001C71  A$lcc588818$384                    action
     00001C72  A$lcc588818$385                    action
     00001C73  A$lcc588818$386                    action
     00001C74  A$lcc588818$390                    action
     00001C74  C$action.c$45$1_0$159              action
     00001C75  A$lcc588818$391                    action
     00001C78  A$lcc588818$392                    action
     00001C7A  A$lcc588818$393                    action
     00001C7B  A$lcc588818$394                    action
     00001C7D  A$lcc588818$395                    action
     00001C7E  A$lcc588818$396                    action
     00001C7F  A$lcc588818$397                    action
     00001C80  A$lcc588818$398                    action
     00001C81  A$lcc588818$399                    action
     00001C82  A$lcc588818$400                    action
     00001C83  A$lcc588818$405                    action
     00001C85  A$lcc588818$410                    action
     00001C85  C$action.c$46$1_0$159              action
     00001C85  XG$move_right$0$0                  action
     00001C86  A$lcc588818$420                    action
ASxxxx Linker V03.00/V05.40 + sdld,  page 11.
Hexadecimal  [32-Bits]

Area                                    Addr        Size        Decimal Bytes (Attributes)
--------------------------------        ----        ----        ------- ----- ------------
_CODE                               00000200    00003123 =       12579. bytes (REL,CON)

      Value  Global                              Global Defined In Module
      -----  --------------------------------   ------------------------
     00001C86  C$action.c$48$1_0$162              action
     00001C86  G$check_input$0$0                  action
     00001C86  _check_input                       action
     00001C87  A$lcc588818$424                    action
     00001C87  C$action.c$50$1_0$162              action
     00001C8A  A$lcc588818$425                    action
     00001C8D  A$lcc588818$426                    action
     00001C8E  A$lcc588818$430                    action
     00001C8E  C$action.c$52$2_0$163              action
     00001C90  A$lcc588818$431                    action
     00001C92  A$lcc588818$432                    action
     00001C95  A$lcc588818$433                    action
     00001C97  A$lcc588818$434                    action
     00001C99  A$lcc588818$438                    action
     00001C99  C$action.c$54$3_0$164              action
     00001C9C  A$lcc588818$439                    action
     00001C9F  A$lcc588818$440                    action
     00001CA0  A$lcc588818$441                    action
     00001CA1  A$lcc588818$442                    action
     00001CA2  A$lcc588818$443                    action
     00001CA3  A$lcc588818$444                    action
     00001CA4  A$lcc588818$445                    action
     00001CA5  A$lcc588818$446                    action
     00001CA6  A$lcc588818$447                    action
     00001CA9  A$lcc588818$448                    action
     00001CAB  A$lcc588818$449                    action
     00001CAC  A$lcc588818$450                    action
     00001CAE  A$lcc588818$451                    action
     00001CAF  A$lcc588818$452                    action
     00001CB0  A$lcc588818$453                    action
     00001CB3  A$lcc588818$458                    action
     00001CB3  C$action.c$58$2_0$165              action
     00001CB6  A$lcc588818$459                    action
     00001CB7  A$lcc588818$460                    action
     00001CB9  A$lcc588818$464                    action
     00001CBC  A$lcc588818$468                    action
     00001CBC  C$action.c$60$4_0$167              action
     00001CBE  A$lcc588818$469                    action
     00001CC0  A$lcc588818$473                    action
     00001CC0  C$action.c$61$4_0$167              action
     00001CC3  A$lcc588818$474                    action
     00001CC5  A$lcc588818$475                    action
     00001CC7  A$lcc588818$480                    action
     00001CC7  C$action.c$62$5_0$168              action
     00001CC9  A$lcc588818$481                    action
     00001CCB  A$lcc588818$485                    action
     00001CCB  C$action.c$63$5_0$168              action
     00001CCE  A$lcc588818$486                    action
     00001CD0  A$lcc588818$487                    action
     00001CD2  A$lcc588818$492                    action
     00001CD2  C$action.c$64$6_0$169              action
ASxxxx Linker V03.00/V05.40 + sdld,  page 12.
Hexadecimal  [32-Bits]

Area                                    Addr        Size        Decimal Bytes (Attributes)
--------------------------------        ----        ----        ------- ----- ------------
_CODE                               00000200    00003123 =       12579. bytes (REL,CON)

      Value  Global                              Global Defined In Module
      -----  --------------------------------   ------------------------
     00001CD4  A$lcc588818$493                    action
     00001CD6  A$lcc588818$497                    action
     00001CD6  C$action.c$65$6_0$169              action
     00001CD9  A$lcc588818$498                    action
     00001CDB  A$lcc588818$499                    action
     00001CDD  A$lcc588818$504                    action
     00001CDD  C$action.c$66$7_0$170              action
     00001CDE  A$lcc588818$505                    action
     00001CE0  A$lcc588818$509                    action
     00001CE0  C$action.c$67$7_0$170              action
     00001CE3  A$lcc588818$510                    action
     00001CE5  A$lcc588818$515                    action
     00001CE5  C$action.c$71$2_0$171              action
     00001CE8  A$lcc588818$516                    action
     00001CE9  A$lcc588818$517                    action
     00001CEB  A$lcc588818$518                    action
     00001CEE  A$lcc588818$519                    action
     00001CF0  A$lcc588818$520                    action
     00001CF2  A$lcc588818$521                    action
     00001CF4  A$lcc588818$522                    action
     00001CF6  A$lcc588818$523                    action
     00001CF8  A$lcc588818$524                    action
     00001CFA  A$lcc588818$525                    action
     00001CFC  A$lcc588818$533                    action
     00001CFC  C$action.c$73$3_0$172              action
     00001CFC  C$action.c$74$3_0$172              action
     00001CFF  A$lcc588818$534                    action
     00001D02  A$lcc588818$538                    action
     00001D02  C$action.c$75$3_0$172              action
     00001D05  A$lcc588818$539                    action
     00001D07  A$lcc588818$540                    action
     00001D08  A$lcc588818$541                    action
     00001D0B  A$lcc588818$542                    action
     00001D0C  A$lcc588818$543                    action
     00001D0E  A$lcc588818$544                    action
     00001D0F  A$lcc588818$545                    action
     00001D10  A$lcc588818$546                    action
     00001D11  A$lcc588818$547                    action
     00001D12  A$lcc588818$548                    action
     00001D13  A$lcc588818$549                    action
     00001D14  A$lcc588818$550                    action
     00001D15  A$lcc588818$551                    action
     00001D16  A$lcc588818$552                    action
     00001D17  A$lcc588818$553                    action
     00001D1A  A$lcc588818$554                    action
     00001D1B  A$lcc588818$555                    action
     00001D1C  A$lcc588818$556                    action
     00001D1D  A$lcc588818$557                    action
     00001D1F  A$lcc588818$558                    action
     00001D20  A$lcc588818$559                    action
     00001D23  A$lcc588818$563                    action
ASxxxx Linker V03.00/V05.40 + sdld,  page 13.
Hexadecimal  [32-Bits]

Area                                    Addr        Size        Decimal Bytes (Attributes)
--------------------------------        ----        ----        ------- ----- ------------
_CODE                               00000200    00003123 =       12579. bytes (REL,CON)

      Value  Global                              Global Defined In Module
      -----  --------------------------------   ------------------------
     00001D23  C$action.c$76$3_0$172              action
     00001D25  A$lcc588818$571                    action
     00001D25  C$action.c$77$3_0$172              action
     00001D25  C$action.c$78$3_0$172              action
     00001D28  A$lcc588818$572                    action
     00001D2B  A$lcc588818$576                    action
     00001D2B  C$action.c$79$3_0$172              action
     00001D2E  A$lcc588818$577                    action
     00001D30  A$lcc588818$578                    action
     00001D31  A$lcc588818$579                    action
     00001D34  A$lcc588818$580                    action
     00001D35  A$lcc588818$581                    action
     00001D37  A$lcc588818$582                    action
     00001D38  A$lcc588818$583                    action
     00001D39  A$lcc588818$584                    action
     00001D3A  A$lcc588818$585                    action
     00001D3B  A$lcc588818$586                    action
     00001D3C  A$lcc588818$587                    action
     00001D3D  A$lcc588818$588                    action
     00001D3E  A$lcc588818$589                    action
     00001D3F  A$lcc588818$590                    action
     00001D40  A$lcc588818$591                    action
     00001D43  A$lcc588818$592                    action
     00001D44  A$lcc588818$593                    action
     00001D45  A$lcc588818$594                    action
     00001D46  A$lcc588818$595                    action
     00001D48  A$lcc588818$596                    action
     00001D49  A$lcc588818$597                    action
     00001D4C  A$lcc588818$601                    action
     00001D4C  C$action.c$80$3_0$172              action
     00001D4E  A$lcc588818$609                    action
     00001D4E  C$action.c$81$3_0$172              action
     00001D4E  C$action.c$82$3_0$172              action
     00001D51  A$lcc588818$610                    action
     00001D54  A$lcc588818$614                    action
     00001D54  C$action.c$83$3_0$172              action
     00001D56  A$lcc588818$622                    action
     00001D56  C$action.c$84$3_0$172              action
     00001D56  C$action.c$85$3_0$172              action
     00001D59  A$lcc588818$623                    action
     00001D5C  A$lcc588818$631                    action
     00001D5C  C$action.c$89$2_0$171              action
     00001D5C  C$action.c$92$2_0$173              action
     00001D5F  A$lcc588818$632                    action
     00001D60  A$lcc588818$633                    action
     00001D62  A$lcc588818$634                    action
     00001D65  A$lcc588818$635                    action
     00001D67  A$lcc588818$636                    action
     00001D69  A$lcc588818$640                    action
     00001D69  C$action.c$94$3_0$174              action
     00001D6A  A$lcc588818$641                    action
ASxxxx Linker V03.00/V05.40 + sdld,  page 14.
Hexadecimal  [32-Bits]

Area                                    Addr        Size        Decimal Bytes (Attributes)
--------------------------------        ----        ----        ------- ----- ------------
_CODE                               00000200    00003123 =       12579. bytes (REL,CON)

      Value  Global                              Global Defined In Module
      -----  --------------------------------   ------------------------
     00001D6D  A$lcc588818$645                    action
     00001D6D  C$action.c$95$3_0$174              action
     00001D70  A$lcc588818$646                    action
     00001D72  A$lcc588818$647                    action
     00001D73  A$lcc588818$648                    action
     00001D76  A$lcc588818$649                    action
     00001D77  A$lcc588818$650                    action
     00001D79  A$lcc588818$651                    action
     00001D7A  A$lcc588818$652                    action
     00001D7B  A$lcc588818$653                    action
     00001D7C  A$lcc588818$654                    action
     00001D7D  A$lcc588818$655                    action
     00001D7E  A$lcc588818$656                    action
     00001D7F  A$lcc588818$657                    action
     00001D80  A$lcc588818$658                    action
     00001D81  A$lcc588818$659                    action
     00001D82  A$lcc588818$660                    action
     00001D85  A$lcc588818$661                    action
     00001D86  A$lcc588818$662                    action
     00001D87  A$lcc588818$663                    action
     00001D88  A$lcc588818$664                    action
     00001D8A  A$lcc588818$665                    action
     00001D8B  A$lcc588818$666                    action
     00001D8E  A$lcc588818$671                    action
     00001D8E  C$action.c$98$2_0$175              action
     00001D91  A$lcc588818$672                    action
     00001D93  A$lcc588818$673                    action
     00001D95  A$lcc588818$674                    action
     00001D98  A$lcc588818$675                    action
     00001D9A  A$lcc588818$676                    action
     00001D9C  A$lcc588818$680                    action
     00001D9C  C$action.c$100$3_0$176             action
     00001D9D  A$lcc588818$681                    action
     00001DA0  A$lcc588818$685                    action
     00001DA0  C$action.c$101$3_0$176             action
     00001DA3  A$lcc588818$686                    action
     00001DA5  A$lcc588818$687                    action
     00001DA6  A$lcc588818$688                    action
     00001DA9  A$lcc588818$689                    action
     00001DAA  A$lcc588818$690                    action
     00001DAC  A$lcc588818$691                    action
     00001DAD  A$lcc588818$692                    action
     00001DAE  A$lcc588818$693                    action
     00001DAF  A$lcc588818$694                    action
     00001DB0  A$lcc588818$695                    action
     00001DB1  A$lcc588818$696                    action
     00001DB2  A$lcc588818$697                    action
     00001DB3  A$lcc588818$698                    action
     00001DB4  A$lcc588818$699                    action
     00001DB5  A$lcc588818$700                    action
     00001DB8  A$lcc588818$701                    action
ASxxxx Linker V03.00/V05.40 + sdld,  page 15.
Hexadecimal  [32-Bits]

Area                                    Addr        Size        Decimal Bytes (Attributes)
--------------------------------        ----        ----        ------- ----- ------------
_CODE                               00000200    00003123 =       12579. bytes (REL,CON)

      Value  Global                              Global Defined In Module
      -----  --------------------------------   ------------------------
     00001DB9  A$lcc588818$702                    action
     00001DBA  A$lcc588818$703                    action
     00001DBB  A$lcc588818$704                    action
     00001DBD  A$lcc588818$705                    action
     00001DBE  A$lcc588818$706                    action
     00001DC1  A$lcc588818$711                    action
     00001DC1  C$action.c$52$1_0$162              action
     00001DC4  A$lcc588818$712                    action
     00001DC5  A$lcc588818$716                    action
     00001DC5  C$action.c$104$2_0$177             action
     00001DC8  A$lcc588818$717                    action
     00001DCA  A$lcc588818$718                    action
     00001DCC  A$lcc588818$719                    action
     00001DCE  A$lcc588818$720                    action
     00001DD0  A$lcc588818$724                    action
     00001DD0  C$action.c$105$2_0$177             action
     00001DD1  A$lcc588818$725                    action
     00001DD4  A$lcc588818$730                    action
     00001DD4  C$action.c$106$2_0$178             action
     00001DD7  A$lcc588818$731                    action
     00001DD9  A$lcc588818$732                    action
     00001DDB  A$lcc588818$733                    action
     00001DDD  A$lcc588818$734                    action
     00001DDF  A$lcc588818$738                    action
     00001DDF  C$action.c$107$2_0$178             action
     00001DE0  A$lcc588818$739                    action
     00001DE3  A$lcc588818$744                    action
     00001DE3  C$action.c$109$1_0$162             action
     00001DE6  A$lcc588818$745                    action
     00001DE9  A$lcc588818$749                    action
     00001DEA  A$lcc588818$754                    action
     00001DEA  C$action.c$110$1_0$162             action
     00001DEA  XG$check_input$0$0                 action
     00001DEB  A$lcc588819$59                     animation
     00001DEB  C$animation.c$7$0_0$135            animation
     00001DEB  G$init_animation$0$0               animation
     00001DEB  _init_animation                    animation
     00001DED  A$lcc588819$60                     animation
     00001DEF  A$lcc588819$61                     animation
     00001DF0  A$lcc588819$62                     animation
     00001DF1  A$lcc588819$63                     animation
     00001DF2  A$lcc588819$64                     animation
     00001DF3  A$lcc588819$65                     animation
     00001DF4  A$lcc588819$69                     animation
     00001DF4  C$animation.c$12$1_0$135           animation
     00001DF6  A$lcc588819$70                     animation
     00001DF7  A$lcc588819$71                     animation
     00001DF8  A$lcc588819$72                     animation
     00001DF9  A$lcc588819$73                     animation
     00001DFA  A$lcc588819$74                     animation
     00001DFB  A$lcc588819$75                     animation
ASxxxx Linker V03.00/V05.40 + sdld,  page 16.
Hexadecimal  [32-Bits]

Area                                    Addr        Size        Decimal Bytes (Attributes)
--------------------------------        ----        ----        ------- ----- ------------
_CODE                               00000200    00003123 =       12579. bytes (REL,CON)

      Value  Global                              Global Defined In Module
      -----  --------------------------------   ------------------------
     00001DFC  A$lcc588819$76                     animation
     00001DFE  A$lcc588819$77                     animation
     00001E00  A$lcc588819$78                     animation
     00001E01  A$lcc588819$79                     animation
     00001E02  A$lcc588819$80                     animation
     00001E03  A$lcc588819$81                     animation
     00001E04  A$lcc588819$82                     animation
     00001E05  A$lcc588819$83                     animation
     00001E06  A$lcc588819$87                     animation
     00001E06  C$animation.c$14$1_0$135           animation
     00001E07  A$lcc588819$88                     animation
     00001E08  A$lcc588819$89                     animation
     00001E09  A$lcc588819$90                     animation
     00001E0B  A$lcc588819$91                     animation
     00001E0C  A$lcc588819$92                     animation
     00001E0D  A$lcc588819$96                     animation
     00001E0D  C$animation.c$15$1_0$135           animation
     00001E0E  A$lcc588819$97                     animation
     00001E0F  A$lcc588819$98                     animation
     00001E10  A$lcc588819$99                     animation
     00001E11  A$lcc588819$100                    animation
     00001E12  A$lcc588819$101                    animation
     00001E13  A$lcc588819$102                    animation
     00001E15  A$lcc588819$103                    animation
     00001E16  A$lcc588819$104                    animation
     00001E17  A$lcc588819$105                    animation
     00001E18  A$lcc588819$109                    animation
     00001E18  C$animation.c$16$1_0$135           animation
     00001E1B  A$lcc588819$110                    animation
     00001E1C  A$lcc588819$111                    animation
     00001E1E  A$lcc588819$115                    animation
     00001E1E  C$animation.c$17$1_0$135           animation
     00001E1F  A$lcc588819$116                    animation
     00001E20  A$lcc588819$117                    animation
     00001E21  A$lcc588819$118                    animation
     00001E22  A$lcc588819$119                    animation
     00001E24  A$lcc588819$123                    animation
     00001E24  C$animation.c$18$1_0$135           animation
     00001E27  A$lcc588819$124                    animation
     00001E28  A$lcc588819$125                    animation
     00001E29  A$lcc588819$126                    animation
     00001E2B  A$lcc588819$127                    animation
     00001E2C  A$lcc588819$128                    animation
     00001E2D  A$lcc588819$129                    animation
     00001E2E  A$lcc588819$133                    animation
     00001E2E  C$animation.c$21$1_0$135           animation
     00001E2F  A$lcc588819$134                    animation
     00001E30  A$lcc588819$135                    animation
     00001E31  A$lcc588819$136                    animation
     00001E32  A$lcc588819$137                    animation
     00001E34  A$lcc588819$138                    animation
ASxxxx Linker V03.00/V05.40 + sdld,  page 17.
Hexadecimal  [32-Bits]

Area                                    Addr        Size        Decimal Bytes (Attributes)
--------------------------------        ----        ----        ------- ----- ------------
_CODE                               00000200    00003123 =       12579. bytes (REL,CON)

      Value  Global                              Global Defined In Module
      -----  --------------------------------   ------------------------
     00001E35  A$lcc588819$139                    animation
     00001E36  A$lcc588819$140                    animation
     00001E37  A$lcc588819$141                    animation
     00001E38  A$lcc588819$142                    animation
     00001E3B  A$lcc588819$143                    animation
     00001E3C  A$lcc588819$144                    animation
     00001E3D  A$lcc588819$145                    animation
     00001E3E  A$lcc588819$146                    animation
     00001E40  A$lcc588819$147                    animation
     00001E41  A$lcc588819$148                    animation
     00001E42  A$lcc588819$149                    animation
     00001E43  A$lcc588819$150                    animation
     00001E45  A$lcc588819$151                    animation
     00001E46  A$lcc588819$152                    animation
     00001E49  A$lcc588819$153                    animation
     00001E4A  A$lcc588819$154                    animation
     00001E4B  A$lcc588819$155                    animation
     00001E4C  A$lcc588819$156                    animation
     00001E4D  A$lcc588819$160                    animation
     00001E4D  C$animation.c$24$2_0$135           animation
     00001E4F  A$lcc588819$162                    animation
     00001E50  A$lcc588819$163                    animation
     00001E51  A$lcc588819$164                    animation
     00001E52  A$lcc588819$165                    animation
     00001E53  A$lcc588819$166                    animation
     00001E55  A$lcc588819$167                    animation
     00001E56  A$lcc588819$168                    animation
     00001E58  A$lcc588819$173                    animation
     00001E58  C$animation.c$32$2_0$138           animation
     00001E5A  A$lcc588819$174                    animation
     00001E5B  A$lcc588819$175                    animation
     00001E5C  A$lcc588819$176                    animation
     00001E5D  A$lcc588819$177                    animation
     00001E60  A$lcc588819$178                    animation
     00001E61  A$lcc588819$179                    animation
     00001E62  A$lcc588819$180                    animation
     00001E63  A$lcc588819$181                    animation
     00001E64  A$lcc588819$182                    animation
     00001E65  A$lcc588819$183                    animation
     00001E67  A$lcc588819$187                    animation
     00001E67  C$animation.c$33$2_0$138           animation
     00001E69  A$lcc588819$188                    animation
     00001E6A  A$lcc588819$189                    animation
     00001E6B  A$lcc588819$194                    animation
     00001E6B  C$animation.c$34$2_0$135           animation
     00001E6D  A$lcc588819$195                    animation
     00001E6E  A$lcc588819$196                    animation
     00001E70  A$lcc588819$197                    animation
     00001E71  A$lcc588819$207                    animation
     00001E71  C$animation.c$36$2_0$140           animation
     00001E71  G$update_animation$0$0             animation
ASxxxx Linker V03.00/V05.40 + sdld,  page 18.
Hexadecimal  [32-Bits]

Area                                    Addr        Size        Decimal Bytes (Attributes)
--------------------------------        ----        ----        ------- ----- ------------
_CODE                               00000200    00003123 =       12579. bytes (REL,CON)

      Value  Global                              Global Defined In Module
      -----  --------------------------------   ------------------------
     00001E71  _update_animation                  animation
     00001E72  A$lcc588819$208                    animation
     00001E73  A$lcc588819$209                    animation
     00001E74  A$lcc588819$210                    animation
     00001E75  A$lcc588819$214                    animation
     00001E75  C$animation.c$38$1_0$140           animation
     00001E78  A$lcc588819$215                    animation
     00001E79  A$lcc588819$216                    animation
     00001E7A  A$lcc588819$217                    animation
     00001E7B  A$lcc588819$218                    animation
     00001E7C  A$lcc588819$219                    animation
     00001E7D  A$lcc588819$220                    animation
     00001E7E  A$lcc588819$221                    animation
     00001E7F  A$lcc588819$222                    animation
     00001E80  A$lcc588819$223                    animation
     00001E82  A$lcc588819$224                    animation
     00001E83  A$lcc588819$225                    animation
     00001E84  A$lcc588819$229                    animation
     00001E84  C$animation.c$40$1_0$140           animation
     00001E87  A$lcc588819$230                    animation
     00001E88  A$lcc588819$231                    animation
     00001E89  A$lcc588819$232                    animation
     00001E8A  A$lcc588819$233                    animation
     00001E8B  A$lcc588819$234                    animation
     00001E8C  A$lcc588819$235                    animation
     00001E8E  A$lcc588819$236                    animation
     00001E8F  A$lcc588819$237                    animation
     00001E90  A$lcc588819$241                    animation
     00001E90  C$animation.c$41$2_0$141           animation
     00001E91  A$lcc588819$242                    animation
     00001E92  A$lcc588819$243                    animation
     00001E93  A$lcc588819$244                    animation
     00001E94  A$lcc588819$245                    animation
     00001E95  A$lcc588819$246                    animation
     00001E96  A$lcc588819$247                    animation
     00001E98  A$lcc588819$248                    animation
     00001E99  A$lcc588819$249                    animation
     00001E9B  A$lcc588819$250                    animation
     00001E9C  A$lcc588819$251                    animation
     00001E9D  A$lcc588819$252                    animation
     00001E9F  A$lcc588819$256                    animation
     00001E9F  C$animation.c$43$3_0$142           animation
     00001EA0  A$lcc588819$257                    animation
     00001EA1  A$lcc588819$261                    animation
     00001EA1  C$animation.c$44$3_0$142           animation
     00001EA2  A$lcc588819$262                    animation
     00001EA3  A$lcc588819$263                    animation
     00001EA4  A$lcc588819$264                    animation
     00001EA5  A$lcc588819$265                    animation
     00001EA6  A$lcc588819$266                    animation
     00001EA7  A$lcc588819$270                    animation
ASxxxx Linker V03.00/V05.40 + sdld,  page 19.
Hexadecimal  [32-Bits]

Area                                    Addr        Size        Decimal Bytes (Attributes)
--------------------------------        ----        ----        ------- ----- ------------
_CODE                               00000200    00003123 =       12579. bytes (REL,CON)

      Value  Global                              Global Defined In Module
      -----  --------------------------------   ------------------------
     00001EA7  C$animation.c$45$4_0$143           animation
     00001EA8  A$lcc588819$271                    animation
     00001EA9  A$lcc588819$272                    animation
     00001EAA  A$lcc588819$273                    animation
     00001EAB  A$lcc588819$274                    animation
     00001EAC  A$lcc588819$275                    animation
     00001EAE  A$lcc588819$279                    animation
     00001EAE  C$animation.c$46$4_0$143           animation
     00001EB0  A$lcc588819$284                    animation
     00001EB1  A$lcc588819$285                    animation
     00001EB2  A$lcc588819$290                    animation
     00001EB2  C$animation.c$48$2_0$140           animation
     00001EB2  XG$update_animation$0$0            animation
     00001EB3  A$lcc588819$300                    animation
     00001EB3  C$animation.c$50$2_0$145           animation
     00001EB3  G$set_animation$0$0                animation
     00001EB3  _set_animation                     animation
     00001EB4  A$lcc588819$301                    animation
     00001EB5  A$lcc588819$302                    animation
     00001EB6  A$lcc588819$306                    animation
     00001EB6  C$animation.c$52$2_0$146           animation
     00001EB7  A$lcc588819$307                    animation
     00001EB9  A$lcc588819$308                    animation
     00001EBA  A$lcc588819$309                    animation
     00001EBB  A$lcc588819$310                    animation
     00001EBD  A$lcc588819$311                    animation
     00001EBE  A$lcc588819$312                    animation
     00001EBF  A$lcc588819$313                    animation
     00001EC0  A$lcc588819$314                    animation
     00001EC1  A$lcc588819$321                    animation
     00001EC1  C$animation.c$53$2_0$146           animation
     00001EC1  C$animation.c$55$1_0$145           animation
     00001EC2  A$lcc588819$322                    animation
     00001EC3  A$lcc588819$326                    animation
     00001EC3  C$animation.c$56$1_1$147           animation
     00001EC4  A$lcc588819$327                    animation
     00001EC5  A$lcc588819$328                    animation
     00001EC6  A$lcc588819$329                    animation
     00001EC7  A$lcc588819$330                    animation
     00001EC9  A$lcc588819$331                    animation
     00001ECA  A$lcc588819$335                    animation
     00001ECA  C$animation.c$57$1_1$147           animation
     00001ECB  A$lcc588819$336                    animation
     00001ECC  A$lcc588819$337                    animation
     00001ECD  A$lcc588819$338                    animation
     00001ECE  A$lcc588819$339                    animation
     00001ECF  A$lcc588819$340                    animation
     00001ED0  A$lcc588819$344                    animation
     00001ED0  C$animation.c$58$1_1$147           animation
     00001ED3  A$lcc588819$345                    animation
     00001ED4  A$lcc588819$346                    animation
ASxxxx Linker V03.00/V05.40 + sdld,  page 20.
Hexadecimal  [32-Bits]

Area                                    Addr        Size        Decimal Bytes (Attributes)
--------------------------------        ----        ----        ------- ----- ------------
_CODE                               00000200    00003123 =       12579. bytes (REL,CON)

      Value  Global                              Global Defined In Module
      -----  --------------------------------   ------------------------
     00001ED6  A$lcc588819$354                    animation
     00001ED6  C$animation.c$59$1_1$145           animation
     00001ED6  XG$set_animation$0$0               animation
     00001ED7  A$lcc588821$52                     char_to_tile
     00001ED7  C$char_to_tile.c$3$0_0$3           char_to_tile
     00001ED7  G$char_to_tile$0$0                 char_to_tile
     00001ED7  _char_to_tile                      char_to_tile
     00001ED9  A$lcc588821$53                     char_to_tile
     00001EDB  A$lcc588821$54                     char_to_tile
     00001EDC  A$lcc588821$58                     char_to_tile
     00001EDC  C$char_to_tile.c$4$2_0$3           char_to_tile
     00001EDE  A$lcc588821$59                     char_to_tile
     00001EE0  A$lcc588821$60                     char_to_tile
     00001EE1  A$lcc588821$61                     char_to_tile
     00001EE3  A$lcc588821$62                     char_to_tile
     00001EE4  A$lcc588821$63                     char_to_tile
     00001EE6  A$lcc588821$64                     char_to_tile
     00001EE7  A$lcc588821$65                     char_to_tile
     00001EE9  A$lcc588821$66                     char_to_tile
     00001EEA  A$lcc588821$67                     char_to_tile
     00001EEC  A$lcc588821$68                     char_to_tile
     00001EED  A$lcc588821$69                     char_to_tile
     00001EEF  A$lcc588821$70                     char_to_tile
     00001EF0  A$lcc588821$71                     char_to_tile
     00001EF2  A$lcc588821$72                     char_to_tile
     00001EF3  A$lcc588821$73                     char_to_tile
     00001EF5  A$lcc588821$74                     char_to_tile
     00001EF6  A$lcc588821$75                     char_to_tile
     00001EF8  A$lcc588821$76                     char_to_tile
     00001EF9  A$lcc588821$77                     char_to_tile
     00001EFB  A$lcc588821$78                     char_to_tile
     00001EFC  A$lcc588821$79                     char_to_tile
     00001EFE  A$lcc588821$80                     char_to_tile
     00001EFF  A$lcc588821$81                     char_to_tile
     00001F01  A$lcc588821$82                     char_to_tile
     00001F02  A$lcc588821$83                     char_to_tile
     00001F04  A$lcc588821$84                     char_to_tile
     00001F05  A$lcc588821$85                     char_to_tile
     00001F07  A$lcc588821$86                     char_to_tile
     00001F08  A$lcc588821$87                     char_to_tile
     00001F0A  A$lcc588821$88                     char_to_tile
     00001F0B  A$lcc588821$89                     char_to_tile
     00001F0D  A$lcc588821$90                     char_to_tile
     00001F0E  A$lcc588821$91                     char_to_tile
     00001F10  A$lcc588821$92                     char_to_tile
     00001F11  A$lcc588821$93                     char_to_tile
     00001F13  A$lcc588821$94                     char_to_tile
     00001F14  A$lcc588821$95                     char_to_tile
     00001F16  A$lcc588821$96                     char_to_tile
     00001F17  A$lcc588821$97                     char_to_tile
     00001F19  A$lcc588821$98                     char_to_tile
ASxxxx Linker V03.00/V05.40 + sdld,  page 21.
Hexadecimal  [32-Bits]

Area                                    Addr        Size        Decimal Bytes (Attributes)
--------------------------------        ----        ----        ------- ----- ------------
_CODE                               00000200    00003123 =       12579. bytes (REL,CON)

      Value  Global                              Global Defined In Module
      -----  --------------------------------   ------------------------
     00001F1A  A$lcc588821$99                     char_to_tile
     00001F1C  A$lcc588821$100                    char_to_tile
     00001F1D  A$lcc588821$101                    char_to_tile
     00001F1F  A$lcc588821$102                    char_to_tile
     00001F20  A$lcc588821$103                    char_to_tile
     00001F22  A$lcc588821$104                    char_to_tile
     00001F23  A$lcc588821$105                    char_to_tile
     00001F25  A$lcc588821$106                    char_to_tile
     00001F26  A$lcc588821$107                    char_to_tile
     00001F28  A$lcc588821$108                    char_to_tile
     00001F29  A$lcc588821$109                    char_to_tile
     00001F2B  A$lcc588821$110                    char_to_tile
     00001F2C  A$lcc588821$111                    char_to_tile
     00001F2E  A$lcc588821$112                    char_to_tile
     00001F2F  A$lcc588821$113                    char_to_tile
     00001F31  A$lcc588821$114                    char_to_tile
     00001F32  A$lcc588821$115                    char_to_tile
     00001F34  A$lcc588821$116                    char_to_tile
     00001F35  A$lcc588821$117                    char_to_tile
     00001F37  A$lcc588821$118                    char_to_tile
     00001F38  A$lcc588821$122                    char_to_tile
     00001F38  C$char_to_tile.c$5$3_0$4           char_to_tile
     00001F39  A$lcc588821$123                    char_to_tile
     00001F3A  A$lcc588821$124                    char_to_tile
     00001F3B  A$lcc588821$125                    char_to_tile
     00001F3C  A$lcc588821$126                    char_to_tile
     00001F3F  A$lcc588821$128                    char_to_tile
     00001F40  A$lcc588821$129                    char_to_tile
     00001F42  A$lcc588821$130                    char_to_tile
     00001F44  A$lcc588821$134                    char_to_tile
     00001F44  C$char_to_tile.c$6$4_0$6           char_to_tile
     00001F47  A$lcc588821$135                    char_to_tile
     00001F48  A$lcc588821$136                    char_to_tile
     00001F49  A$lcc588821$137                    char_to_tile
     00001F4A  A$lcc588821$138                    char_to_tile
     00001F4C  A$lcc588821$139                    char_to_tile
     00001F4D  A$lcc588821$140                    char_to_tile
     00001F4E  A$lcc588821$141                    char_to_tile
     00001F50  A$lcc588821$145                    char_to_tile
     00001F50  C$char_to_tile.c$7$5_0$7           char_to_tile
     00001F52  A$lcc588821$146                    char_to_tile
     00001F53  A$lcc588821$147                    char_to_tile
     00001F55  A$lcc588821$148                    char_to_tile
     00001F56  A$lcc588821$149                    char_to_tile
     00001F58  A$lcc588821$154                    char_to_tile
     00001F58  C$char_to_tile.c$5$2_0$4           char_to_tile
     00001F59  A$lcc588821$155                    char_to_tile
     00001F5B  A$lcc588821$156                    char_to_tile
     00001F5C  A$lcc588821$157                    char_to_tile
     00001F5D  A$lcc588821$158                    char_to_tile
     00001F5E  A$lcc588821$159                    char_to_tile
ASxxxx Linker V03.00/V05.40 + sdld,  page 22.
Hexadecimal  [32-Bits]

Area                                    Addr        Size        Decimal Bytes (Attributes)
--------------------------------        ----        ----        ------- ----- ------------
_CODE                               00000200    00003123 =       12579. bytes (REL,CON)

      Value  Global                              Global Defined In Module
      -----  --------------------------------   ------------------------
     00001F60  A$lcc588821$164                    char_to_tile
     00001F60  C$char_to_tile.c$11$1_0$3          char_to_tile
     00001F63  A$lcc588821$169                    char_to_tile
     00001F65  A$lcc588821$174                    char_to_tile
     00001F65  C$char_to_tile.c$12$1_0$3          char_to_tile
     00001F65  XG$char_to_tile$0$0                char_to_tile
     00001F66  A$lcc588822$52                     draw
     00001F66  C$draw.c$6$0_0$136                 draw
     00001F66  G$draw_actor$0$0                   draw
     00001F66  _draw_actor                        draw
     00001F68  A$lcc588822$53                     draw
     00001F6A  A$lcc588822$54                     draw
     00001F6B  A$lcc588822$58                     draw
     00001F6B  C$draw.c$8$1_0$136                 draw
     00001F6E  A$lcc588822$59                     draw
     00001F6F  A$lcc588822$60                     draw
     00001F71  A$lcc588822$61                     draw
     00001F72  A$lcc588822$62                     draw
     00001F73  A$lcc588822$63                     draw
     00001F74  A$lcc588822$64                     draw
     00001F75  A$lcc588822$65                     draw
     00001F77  A$lcc588822$66                     draw
     00001F78  A$lcc588822$70                     draw
     00001F78  C$draw.c$9$1_0$136                 draw
     00001F7B  A$lcc588822$71                     draw
     00001F7D  A$lcc588822$72                     draw
     00001F7E  A$lcc588822$73                     draw
     00001F80  A$lcc588822$74                     draw
     00001F81  A$lcc588822$75                     draw
     00001F82  A$lcc588822$76                     draw
     00001F83  A$lcc588822$77                     draw
     00001F84  A$lcc588822$78                     draw
     00001F86  A$lcc588822$79                     draw
     00001F87  A$lcc588822$83                     draw
     00001F87  C$draw.c$11$1_0$136                draw
     00001F8A  A$lcc588822$84                     draw
     00001F8C  A$lcc588822$85                     draw
     00001F8D  A$lcc588822$86                     draw
     00001F8F  A$lcc588822$87                     draw
     00001F90  A$lcc588822$88                     draw
     00001F91  A$lcc588822$89                     draw
     00001F92  A$lcc588822$90                     draw
     00001F93  A$lcc588822$91                     draw
     00001F94  A$lcc588822$92                     draw
     00001F95  A$lcc588822$93                     draw
     00001F96  A$lcc588822$94                     draw
     00001F97  A$lcc588822$95                     draw
     00001F98  A$lcc588822$96                     draw
     00001F99  A$lcc588822$97                     draw
     00001F9A  A$lcc588822$98                     draw
     00001F9B  A$lcc588822$102                    draw
ASxxxx Linker V03.00/V05.40 + sdld,  page 23.
Hexadecimal  [32-Bits]

Area                                    Addr        Size        Decimal Bytes (Attributes)
--------------------------------        ----        ----        ------- ----- ------------
_CODE                               00000200    00003123 =       12579. bytes (REL,CON)

      Value  Global                              Global Defined In Module
      -----  --------------------------------   ------------------------
     00001F9B  C$draw.c$12$1_0$136                draw
     00001F9E  A$lcc588822$103                    draw
     00001F9F  A$lcc588822$104                    draw
     00001FA0  A$lcc588822$105                    draw
     00001FA1  A$lcc588822$106                    draw
     00001FA2  A$lcc588822$107                    draw
     00001FA3  A$lcc588822$108                    draw
     00001FA4  A$lcc588822$109                    draw
     00001FA5  A$lcc588822$110                    draw
     00001FA6  A$lcc588822$111                    draw
     00001FA8  A$lcc588822$112                    draw
     00001FA9  A$lcc588822$113                    draw
     00001FAA  A$lcc588822$117                    draw
     00001FAA  C$draw.c$14$1_0$136                draw
     00001FAD  A$lcc588822$118                    draw
     00001FAE  A$lcc588822$119                    draw
     00001FAF  A$lcc588822$120                    draw
     00001FB1  A$lcc588822$121                    draw
     00001FB2  A$lcc588822$125                    draw
     00001FB2  C$draw.c$15$1_0$136                draw
     00001FB3  A$lcc588822$126                    draw
     00001FB4  A$lcc588822$127                    draw
     00001FB5  A$lcc588822$128                    draw
     00001FB6  A$lcc588822$129                    draw
     00001FB7  A$lcc588822$130                    draw
     00001FB8  A$lcc588822$131                    draw
     00001FBB  A$lcc588822$132                    draw
     00001FBC  A$lcc588822$133                    draw
     00001FBD  A$lcc588822$134                    draw
     00001FBE  A$lcc588822$135                    draw
     00001FC0  A$lcc588822$139                    draw
     00001FC0  C$draw.c$17$1_0$136                draw
     00001FC1  A$lcc588822$140                    draw
     00001FC2  A$lcc588822$141                    draw
     00001FC3  A$lcc588822$142                    draw
     00001FC4  A$lcc588822$143                    draw
     00001FC5  A$lcc588822$147                    draw
     00001FC5  C$draw.c$18$1_0$136                draw
     00001FC7  A$lcc588822$148                    draw
     00001FC8  A$lcc588822$149                    draw
     00001FC9  A$lcc588822$150                    draw
     00001FCA  A$lcc588822$151                    draw
     00001FCB  A$lcc588822$152                    draw
     00001FCC  A$lcc588822$153                    draw
     00001FCD  A$lcc588822$154                    draw
     00001FCE  A$lcc588822$155                    draw
     00001FCF  A$lcc588822$156                    draw
     00001FD0  A$lcc588822$157                    draw
     00001FD1  A$lcc588822$158                    draw
     00001FD2  A$lcc588822$159                    draw
     00001FD3  A$lcc588822$160                    draw
ASxxxx Linker V03.00/V05.40 + sdld,  page 24.
Hexadecimal  [32-Bits]

Area                                    Addr        Size        Decimal Bytes (Attributes)
--------------------------------        ----        ----        ------- ----- ------------
_CODE                               00000200    00003123 =       12579. bytes (REL,CON)

      Value  Global                              Global Defined In Module
      -----  --------------------------------   ------------------------
     00001FD4  A$lcc588822$161                    draw
     00001FD5  A$lcc588822$165                    draw
     00001FD5  C$draw.c$20$2_0$137                draw
     00001FD7  A$lcc588822$166                    draw
     00001FD8  A$lcc588822$173                    draw
     00001FD8  C$draw.c$21$2_0$137                draw
     00001FD8  C$draw.c$24$2_0$136                draw
     00001FDB  A$lcc588822$174                    draw
     00001FDD  A$lcc588822$176                    draw
     00001FDE  A$lcc588822$177                    draw
     00001FE0  A$lcc588822$178                    draw
     00001FE1  A$lcc588822$179                    draw
     00001FE3  A$lcc588822$181                    draw
     00001FE4  A$lcc588822$182                    draw
     00001FE5  A$lcc588822$183                    draw
     00001FE6  A$lcc588822$184                    draw
     00001FE7  A$lcc588822$185                    draw
     00001FE8  A$lcc588822$186                    draw
     00001FEA  A$lcc588822$187                    draw
     00001FED  A$lcc588822$188                    draw
     00001FEE  A$lcc588822$189                    draw
     00001FEF  A$lcc588822$190                    draw
     00001FF0  A$lcc588822$191                    draw
     00001FF1  A$lcc588822$193                    draw
     00001FF2  A$lcc588822$194                    draw
     00001FF3  A$lcc588822$195                    draw
     00001FF4  A$lcc588822$196                    draw
     00001FF5  A$lcc588822$197                    draw
     00001FF6  A$lcc588822$198                    draw
     00001FF7  A$lcc588822$199                    draw
     00001FFA  A$lcc588822$200                    draw
     00001FFB  A$lcc588822$201                    draw
     00001FFC  A$lcc588822$202                    draw
     00001FFD  A$lcc588822$203                    draw
     00001FFE  A$lcc588822$204                    draw
     00001FFF  A$lcc588822$208                    draw
     00001FFF  C$draw.c$24$2_0$138                draw
     00002000  A$lcc588822$209                    draw
     00002002  A$lcc588822$214                    draw
     00002002  C$draw.c$28$2_0$139                draw
     00002004  A$lcc588822$215                    draw
     00002005  A$lcc588822$216                    draw
     00002006  A$lcc588822$217                    draw
     00002008  A$lcc588822$219                    draw
     0000200A  A$lcc588822$220                    draw
     0000200B  A$lcc588822$222                    draw
     0000200C  A$lcc588822$223                    draw
     0000200D  A$lcc588822$224                    draw
     0000200E  A$lcc588822$225                    draw
     0000200F  A$lcc588822$226                    draw
     00002010  A$lcc588822$227                    draw
ASxxxx Linker V03.00/V05.40 + sdld,  page 25.
Hexadecimal  [32-Bits]

Area                                    Addr        Size        Decimal Bytes (Attributes)
--------------------------------        ----        ----        ------- ----- ------------
_CODE                               00000200    00003123 =       12579. bytes (REL,CON)

      Value  Global                              Global Defined In Module
      -----  --------------------------------   ------------------------
     00002013  A$lcc588822$228                    draw
     00002014  A$lcc588822$229                    draw
     00002015  A$lcc588822$230                    draw
     00002016  A$lcc588822$232                    draw
     00002018  A$lcc588822$233                    draw
     00002019  A$lcc588822$234                    draw
     0000201A  A$lcc588822$235                    draw
     0000201B  A$lcc588822$236                    draw
     0000201C  A$lcc588822$237                    draw
     0000201D  A$lcc588822$241                    draw
     0000201D  C$draw.c$30$2_0$139                draw
     00002020  A$lcc588822$246                    draw
     00002020  C$draw.c$32$3_0$141                draw
     00002022  A$lcc588822$247                    draw
     00002023  A$lcc588822$248                    draw
     00002025  A$lcc588822$249                    draw
     00002027  A$lcc588822$253                    draw
     0000202A  A$lcc588822$254                    draw
     0000202C  A$lcc588822$255                    draw
     0000202D  A$lcc588822$256                    draw
     0000202F  A$lcc588822$257                    draw
     00002030  A$lcc588822$258                    draw
     00002031  A$lcc588822$259                    draw
     00002032  A$lcc588822$260                    draw
     00002033  A$lcc588822$261                    draw
     00002034  A$lcc588822$265                    draw
     00002034  C$draw.c$30$2_0$136                draw
     00002036  A$lcc588822$266                    draw
     00002037  A$lcc588822$270                    draw
     00002037  C$draw.c$34$5_0$143                draw
     00002039  A$lcc588822$271                    draw
     0000203B  A$lcc588822$274                    draw
     0000203C  A$lcc588822$275                    draw
     0000203D  A$lcc588822$276                    draw
     0000203E  A$lcc588822$277                    draw
     0000203F  A$lcc588822$278                    draw
     00002040  A$lcc588822$279                    draw
     00002043  A$lcc588822$280                    draw
     00002044  A$lcc588822$281                    draw
     00002045  A$lcc588822$282                    draw
     00002046  A$lcc588822$284                    draw
     00002048  A$lcc588822$285                    draw
     00002049  A$lcc588822$286                    draw
     0000204A  A$lcc588822$287                    draw
     0000204B  A$lcc588822$289                    draw
     0000204C  A$lcc588822$290                    draw
     0000204D  A$lcc588822$291                    draw
     0000204E  A$lcc588822$292                    draw
     00002050  A$lcc588822$293                    draw
     00002051  A$lcc588822$294                    draw
     00002053  A$lcc588822$296                    draw
ASxxxx Linker V03.00/V05.40 + sdld,  page 26.
Hexadecimal  [32-Bits]

Area                                    Addr        Size        Decimal Bytes (Attributes)
--------------------------------        ----        ----        ------- ----- ------------
_CODE                               00000200    00003123 =       12579. bytes (REL,CON)

      Value  Global                              Global Defined In Module
      -----  --------------------------------   ------------------------
     00002054  A$lcc588822$297                    draw
     00002057  A$lcc588822$298                    draw
     00002058  A$lcc588822$299                    draw
     00002059  A$lcc588822$300                    draw
     0000205A  A$lcc588822$301                    draw
     0000205B  A$lcc588822$302                    draw
     0000205C  A$lcc588822$303                    draw
     0000205D  A$lcc588822$304                    draw
     0000205E  A$lcc588822$306                    draw
     0000205F  A$lcc588822$307                    draw
     00002060  A$lcc588822$308                    draw
     00002061  A$lcc588822$309                    draw
     00002063  A$lcc588822$310                    draw
     00002064  A$lcc588822$311                    draw
     00002065  A$lcc588822$315                    draw
     00002065  C$draw.c$37$5_0$143                draw
     00002068  A$lcc588822$319                    draw
     00002069  A$lcc588822$320                    draw
     0000206A  A$lcc588822$321                    draw
     0000206B  A$lcc588822$322                    draw
     0000206C  A$lcc588822$323                    draw
     0000206D  A$lcc588822$324                    draw
     00002070  A$lcc588822$325                    draw
     00002071  A$lcc588822$326                    draw
     00002072  A$lcc588822$327                    draw
     00002073  A$lcc588822$329                    draw
     00002075  A$lcc588822$330                    draw
     00002076  A$lcc588822$331                    draw
     00002077  A$lcc588822$332                    draw
     00002078  A$lcc588822$333                    draw
     00002079  A$lcc588822$334                    draw
     0000207A  A$lcc588822$336                    draw
     0000207B  A$lcc588822$337                    draw
     0000207D  A$lcc588822$338                    draw
     0000207E  A$lcc588822$339                    draw
     00002080  A$lcc588822$341                    draw
     00002081  A$lcc588822$342                    draw
     00002082  A$lcc588822$343                    draw
     00002083  A$lcc588822$344                    draw
     00002084  A$lcc588822$345                    draw
     00002085  A$lcc588822$346                    draw
     00002088  A$lcc588822$347                    draw
     00002089  A$lcc588822$349                    draw
     0000208A  A$lcc588822$350                    draw
     0000208C  A$lcc588822$351                    draw
     0000208D  A$lcc588822$352                    draw
     0000208E  A$lcc588822$353                    draw
     0000208F  A$lcc588822$354                    draw
     00002090  A$lcc588822$358                    draw
     00002090  C$draw.c$42$3_0$141                draw
     00002092  A$lcc588822$363                    draw
ASxxxx Linker V03.00/V05.40 + sdld,  page 27.
Hexadecimal  [32-Bits]

Area                                    Addr        Size        Decimal Bytes (Attributes)
--------------------------------        ----        ----        ------- ----- ------------
_CODE                               00000200    00003123 =       12579. bytes (REL,CON)

      Value  Global                              Global Defined In Module
      -----  --------------------------------   ------------------------
     00002092  C$draw.c$45$4_0$146                draw
     00002094  A$lcc588822$364                    draw
     00002095  A$lcc588822$365                    draw
     00002097  A$lcc588822$366                    draw
     00002099  A$lcc588822$368                    draw
     0000209B  A$lcc588822$369                    draw
     0000209C  A$lcc588822$371                    draw
     0000209D  A$lcc588822$372                    draw
     0000209E  A$lcc588822$373                    draw
     0000209F  A$lcc588822$374                    draw
     000020A0  A$lcc588822$375                    draw
     000020A1  A$lcc588822$376                    draw
     000020A4  A$lcc588822$377                    draw
     000020A5  A$lcc588822$378                    draw
     000020A6  A$lcc588822$379                    draw
     000020A7  A$lcc588822$381                    draw
     000020A9  A$lcc588822$382                    draw
     000020AA  A$lcc588822$383                    draw
     000020AB  A$lcc588822$384                    draw
     000020AC  A$lcc588822$385                    draw
     000020AD  A$lcc588822$386                    draw
     000020AE  A$lcc588822$388                    draw
     000020AF  A$lcc588822$389                    draw
     000020B1  A$lcc588822$390                    draw
     000020B3  A$lcc588822$391                    draw
     000020B4  A$lcc588822$392                    draw
     000020B5  A$lcc588822$393                    draw
     000020B7  A$lcc588822$395                    draw
     000020B8  A$lcc588822$396                    draw
     000020B9  A$lcc588822$397                    draw
     000020BA  A$lcc588822$398                    draw
     000020BB  A$lcc588822$399                    draw
     000020BC  A$lcc588822$400                    draw
     000020BF  A$lcc588822$401                    draw
     000020C0  A$lcc588822$403                    draw
     000020C1  A$lcc588822$404                    draw
     000020C3  A$lcc588822$405                    draw
     000020C4  A$lcc588822$406                    draw
     000020C5  A$lcc588822$407                    draw
     000020C6  A$lcc588822$408                    draw
     000020C7  A$lcc588822$410                    draw
     000020C9  A$lcc588822$411                    draw
     000020CA  A$lcc588822$412                    draw
     000020CC  A$lcc588822$413                    draw
     000020CD  A$lcc588822$414                    draw
     000020CE  A$lcc588822$415                    draw
     000020D0  A$lcc588822$417                    draw
     000020D1  A$lcc588822$418                    draw
     000020D2  A$lcc588822$419                    draw
     000020D3  A$lcc588822$420                    draw
     000020D4  A$lcc588822$421                    draw
ASxxxx Linker V03.00/V05.40 + sdld,  page 28.
Hexadecimal  [32-Bits]

Area                                    Addr        Size        Decimal Bytes (Attributes)
--------------------------------        ----        ----        ------- ----- ------------
_CODE                               00000200    00003123 =       12579. bytes (REL,CON)

      Value  Global                              Global Defined In Module
      -----  --------------------------------   ------------------------
     000020D5  A$lcc588822$422                    draw
     000020D8  A$lcc588822$423                    draw
     000020D9  A$lcc588822$424                    draw
     000020DA  A$lcc588822$425                    draw
     000020DB  A$lcc588822$427                    draw
     000020DD  A$lcc588822$428                    draw
     000020DE  A$lcc588822$429                    draw
     000020DF  A$lcc588822$430                    draw
     000020E0  A$lcc588822$431                    draw
     000020E1  A$lcc588822$433                    draw
     000020E2  A$lcc588822$434                    draw
     000020E3  A$lcc588822$436                    draw
     000020E4  A$lcc588822$437                    draw
     000020E7  A$lcc588822$438                    draw
     000020E8  A$lcc588822$439                    draw
     000020E9  A$lcc588822$440                    draw
     000020EA  A$lcc588822$441                    draw
     000020EB  A$lcc588822$442                    draw
     000020EC  A$lcc588822$443                    draw
     000020ED  A$lcc588822$444                    draw
     000020EE  A$lcc588822$446                    draw
     000020EF  A$lcc588822$447                    draw
     000020F0  A$lcc588822$448                    draw
     000020F1  A$lcc588822$449                    draw
     000020F3  A$lcc588822$450                    draw
     000020F4  A$lcc588822$451                    draw
     000020F5  A$lcc588822$459                    draw
     000020F5  C$draw.c$50$2_0$136                draw
     000020F7  A$lcc588822$464                    draw
     000020F7  C$draw.c$52$2_0$136                draw
     000020F7  XG$draw_actor$0$0                  draw
     000020F8  A$lcc588823$60                     entity
     000020F8  C$entity.c$7$0_0$3                 entity
     000020F8  C$entity.c$9$2_0$4                 entity
     000020F8  G$create_entity$0$0                entity
     000020F8  _create_entity                     entity
     000020FB  A$lcc588823$61                     entity
     000020FD  A$lcc588823$62                     entity
     000020FF  A$lcc588823$66                     entity
     000020FF  C$entity.c$10$3_0$5                entity
     00002100  A$lcc588823$67                     entity
     00002101  A$lcc588823$72                     entity
     00002101  C$entity.c$13$1_0$3                entity
     00002104  A$lcc588823$73                     entity
     00002105  A$lcc588823$74                     entity
     00002108  A$lcc588823$75                     entity
     00002109  A$lcc588823$76                     entity
     0000210A  A$lcc588823$84                     entity
     0000210A  C$entity.c$14$1_0$3                entity
     0000210A  XG$create_entity$0$0               entity
     0000210B  A$lcc588823$97                     entity
ASxxxx Linker V03.00/V05.40 + sdld,  page 29.
Hexadecimal  [32-Bits]

Area                                    Addr        Size        Decimal Bytes (Attributes)
--------------------------------        ----        ----        ------- ----- ------------
_CODE                               00000200    00003123 =       12579. bytes (REL,CON)

      Value  Global                              Global Defined In Module
      -----  --------------------------------   ------------------------
     0000210B  C$entity.c$16$1_0$6                entity
     0000210B  C$entity.c$18$1_0$6                entity
     0000210B  G$reset_entities$0$0               entity
     0000210B  _reset_entities                    entity
     0000210E  A$lcc588823$98                     entity
     00002110  A$lcc588823$106                    entity
     00002110  C$entity.c$19$1_0$6                entity
     00002110  XG$reset_entities$0$0              entity
     00002111  A$lcc588825$56                     global_action
     00002111  C$global_action.c$4$0_0$142        global_action
     00002111  C$global_action.c$6$1_0$142        global_action
     00002111  G$check_global_input$0$0           global_action
     00002111  _check_global_input                global_action
     00002114  A$lcc588825$60                     global_action
     00002114  C$global_action.c$9$1_0$142        global_action
     00002117  A$lcc588825$61                     global_action
     0000211A  A$lcc588825$69                     global_action
     0000211A  C$global_action.c$10$1_0$142       global_action
     0000211A  XG$check_global_input$0$0          global_action
     0000211B  A$lcc588827$57                     inventory
     0000211B  C$inventory.c$10$0_0$140           inventory
     0000211B  G$init_arrow$0$0                   inventory
     0000211B  _init_arrow                        inventory
     0000211C  A$lcc588827$58                     inventory
     0000211D  A$lcc588827$62                     inventory
     0000211D  C$inventory.c$12$1_0$140           inventory
     00002120  A$lcc588827$63                     inventory
     00002121  A$lcc588827$64                     inventory
     00002123  A$lcc588827$65                     inventory
     00002126  A$lcc588827$66                     inventory
     00002127  A$lcc588827$67                     inventory
     00002129  A$lcc588827$71                     inventory
     00002129  C$inventory.c$13$1_0$140           inventory
     0000212C  A$lcc588827$72                     inventory
     0000212F  A$lcc588827$73                     inventory
     00002130  A$lcc588827$74                     inventory
     00002132  A$lcc588827$75                     inventory
     00002133  A$lcc588827$76                     inventory
     00002135  A$lcc588827$80                     inventory
     00002135  C$inventory.c$15$1_0$140           inventory
     00002138  A$lcc588827$81                     inventory
     0000213B  A$lcc588827$82                     inventory
     0000213C  A$lcc588827$83                     inventory
     0000213D  A$lcc588827$84                     inventory
     0000213F  A$lcc588827$85                     inventory
     00002140  A$lcc588827$86                     inventory
     00002143  A$lcc588827$87                     inventory
     00002145  A$lcc588827$88                     inventory
     00002146  A$lcc588827$89                     inventory
     00002148  A$lcc588827$90                     inventory
     0000214A  A$lcc588827$91                     inventory
ASxxxx Linker V03.00/V05.40 + sdld,  page 30.
Hexadecimal  [32-Bits]

Area                                    Addr        Size        Decimal Bytes (Attributes)
--------------------------------        ----        ----        ------- ----- ------------
_CODE                               00000200    00003123 =       12579. bytes (REL,CON)

      Value  Global                              Global Defined In Module
      -----  --------------------------------   ------------------------
     0000214B  A$lcc588827$92                     inventory
     0000214C  A$lcc588827$93                     inventory
     0000214D  A$lcc588827$94                     inventory
     0000214E  A$lcc588827$95                     inventory
     0000214F  A$lcc588827$96                     inventory
     00002150  A$lcc588827$100                    inventory
     00002150  C$inventory.c$16$1_0$140           inventory
     00002153  A$lcc588827$101                    inventory
     00002154  A$lcc588827$102                    inventory
     00002155  A$lcc588827$103                    inventory
     00002157  A$lcc588827$104                    inventory
     00002158  A$lcc588827$105                    inventory
     0000215A  A$lcc588827$106                    inventory
     0000215C  A$lcc588827$107                    inventory
     0000215D  A$lcc588827$108                    inventory
     0000215E  A$lcc588827$109                    inventory
     00002160  A$lcc588827$110                    inventory
     00002161  A$lcc588827$111                    inventory
     00002162  A$lcc588827$112                    inventory
     00002163  A$lcc588827$113                    inventory
     00002164  A$lcc588827$114                    inventory
     00002165  A$lcc588827$115                    inventory
     00002166  A$lcc588827$116                    inventory
     00002167  A$lcc588827$120                    inventory
     00002167  C$inventory.c$18$1_0$140           inventory
     0000216A  A$lcc588827$121                    inventory
     0000216B  A$lcc588827$122                    inventory
     0000216D  A$lcc588827$123                    inventory
     00002170  A$lcc588827$124                    inventory
     00002171  A$lcc588827$125                    inventory
     00002173  A$lcc588827$129                    inventory
     00002173  C$inventory.c$19$1_0$140           inventory
     00002176  A$lcc588827$130                    inventory
     00002179  A$lcc588827$131                    inventory
     0000217A  A$lcc588827$132                    inventory
     0000217C  A$lcc588827$133                    inventory
     0000217D  A$lcc588827$134                    inventory
     0000217F  A$lcc588827$138                    inventory
     0000217F  C$inventory.c$20$1_0$140           inventory
     00002182  A$lcc588827$139                    inventory
     00002185  A$lcc588827$140                    inventory
     00002186  A$lcc588827$141                    inventory
     00002188  A$lcc588827$142                    inventory
     00002189  A$lcc588827$143                    inventory
     0000218B  A$lcc588827$147                    inventory
     0000218B  C$inventory.c$22$2_0$141           inventory
     0000218D  A$lcc588827$148                    inventory
     0000218F  A$lcc588827$149                    inventory
     00002190  A$lcc588827$150                    inventory
     00002192  A$lcc588827$154                    inventory
     00002192  C$inventory.c$24$1_1$141           inventory
ASxxxx Linker V03.00/V05.40 + sdld,  page 31.
Hexadecimal  [32-Bits]

Area                                    Addr        Size        Decimal Bytes (Attributes)
--------------------------------        ----        ----        ------- ----- ------------
_CODE                               00000200    00003123 =       12579. bytes (REL,CON)

      Value  Global                              Global Defined In Module
      -----  --------------------------------   ------------------------
     00002195  A$lcc588827$155                    inventory
     00002196  A$lcc588827$156                    inventory
     00002198  A$lcc588827$157                    inventory
     00002199  A$lcc588827$158                    inventory
     0000219A  A$lcc588827$159                    inventory
     0000219B  A$lcc588827$160                    inventory
     0000219C  A$lcc588827$161                    inventory
     0000219D  A$lcc588827$162                    inventory
     0000219E  A$lcc588827$163                    inventory
     0000219F  A$lcc588827$164                    inventory
     000021A0  A$lcc588827$165                    inventory
     000021A1  A$lcc588827$166                    inventory
     000021A4  A$lcc588827$167                    inventory
     000021A5  A$lcc588827$168                    inventory
     000021A6  A$lcc588827$169                    inventory
     000021A7  A$lcc588827$170                    inventory
     000021AA  A$lcc588827$171                    inventory
     000021AB  A$lcc588827$172                    inventory
     000021AD  A$lcc588827$173                    inventory
     000021AE  A$lcc588827$174                    inventory
     000021AF  A$lcc588827$175                    inventory
     000021B2  A$lcc588827$176                    inventory
     000021B3  A$lcc588827$177                    inventory
     000021B4  A$lcc588827$178                    inventory
     000021B5  A$lcc588827$179                    inventory
     000021B6  A$lcc588827$180                    inventory
     000021B7  A$lcc588827$181                    inventory
     000021B8  A$lcc588827$182                    inventory
     000021BB  A$lcc588827$186                    inventory
     000021BE  A$lcc588827$187                    inventory
     000021BF  A$lcc588827$192                    inventory
     000021BF  C$inventory.c$25$1_1$140           inventory
     000021BF  XG$init_arrow$0$0                  inventory
     000021C0  A$lcc588828$63                     inventory_input
     000021C0  C$inventory_input.c$18$0_0$145     inventory_input
     000021C0  C$inventory_input.c$20$1_0$145     inventory_input
     000021C0  G$inventory_input$0$0              inventory_input
     000021C0  _inventory_input                   inventory_input
     000021C3  A$lcc588828$64                     inventory_input
     000021C6  A$lcc588828$65                     inventory_input
     000021C7  A$lcc588828$69                     inventory_input
     000021C7  C$inventory_input.c$22$2_0$146     inventory_input
     000021C9  A$lcc588828$70                     inventory_input
     000021CB  A$lcc588828$71                     inventory_input
     000021CE  A$lcc588828$72                     inventory_input
     000021D0  A$lcc588828$73                     inventory_input
     000021D2  A$lcc588828$77                     inventory_input
     000021D2  C$inventory_input.c$24$3_0$147     inventory_input
     000021D5  A$lcc588828$78                     inventory_input
     000021D8  A$lcc588828$79                     inventory_input
     000021D9  A$lcc588828$80                     inventory_input
ASxxxx Linker V03.00/V05.40 + sdld,  page 32.
Hexadecimal  [32-Bits]

Area                                    Addr        Size        Decimal Bytes (Attributes)
--------------------------------        ----        ----        ------- ----- ------------
_CODE                               00000200    00003123 =       12579. bytes (REL,CON)

      Value  Global                              Global Defined In Module
      -----  --------------------------------   ------------------------
     000021DA  A$lcc588828$81                     inventory_input
     000021DB  A$lcc588828$82                     inventory_input
     000021DC  A$lcc588828$83                     inventory_input
     000021DD  A$lcc588828$84                     inventory_input
     000021DE  A$lcc588828$85                     inventory_input
     000021DF  A$lcc588828$86                     inventory_input
     000021E2  A$lcc588828$87                     inventory_input
     000021E4  A$lcc588828$88                     inventory_input
     000021E5  A$lcc588828$89                     inventory_input
     000021E7  A$lcc588828$90                     inventory_input
     000021E8  A$lcc588828$91                     inventory_input
     000021E9  A$lcc588828$92                     inventory_input
     000021EC  A$lcc588828$96                     inventory_input
     000021EC  C$inventory_input.c$25$3_0$147     inventory_input
     000021EF  A$lcc588828$97                     inventory_input
     000021F2  A$lcc588828$98                     inventory_input
     000021F3  A$lcc588828$99                     inventory_input
     000021F5  A$lcc588828$100                    inventory_input
     000021F6  A$lcc588828$101                    inventory_input
     000021F8  A$lcc588828$105                    inventory_input
     000021F8  C$inventory_input.c$26$3_0$147     inventory_input
     000021FB  A$lcc588828$106                    inventory_input
     000021FE  A$lcc588828$114                    inventory_input
     000021FE  C$inventory_input.c$25$1_1$145     inventory_input
     00002201  A$lcc588828$115                    inventory_input
     00002202  A$lcc588828$119                    inventory_input
     00002202  C$inventory_input.c$29$1_1$148     inventory_input
     00002205  A$lcc588828$120                    inventory_input
     00002207  A$lcc588828$121                    inventory_input
     00002208  A$lcc588828$122                    inventory_input
     00002209  A$lcc588828$126                    inventory_input
     00002209  C$inventory_input.c$30$1_1$148     inventory_input
     0000220C  A$lcc588828$127                    inventory_input
     0000220E  A$lcc588828$128                    inventory_input
     0000220F  A$lcc588828$129                    inventory_input
     00002210  A$lcc588828$133                    inventory_input
     00002210  C$inventory_input.c$22$1_1$145     inventory_input
     00002213  A$lcc588828$134                    inventory_input
     00002214  A$lcc588828$135                    inventory_input
     00002217  A$lcc588828$139                    inventory_input
     00002217  C$inventory_input.c$32$2_1$149     inventory_input
     00002219  A$lcc588828$140                    inventory_input
     0000221B  A$lcc588828$141                    inventory_input
     0000221D  A$lcc588828$142                    inventory_input
     0000221F  A$lcc588828$146                    inventory_input
     0000221F  C$inventory_input.c$34$3_1$150     inventory_input
     00002220  A$lcc588828$147                    inventory_input
     00002222  A$lcc588828$148                    inventory_input
     00002223  A$lcc588828$149                    inventory_input
     00002225  A$lcc588828$154                    inventory_input
     00002225  C$inventory_input.c$36$3_1$151     inventory_input
ASxxxx Linker V03.00/V05.40 + sdld,  page 33.
Hexadecimal  [32-Bits]

Area                                    Addr        Size        Decimal Bytes (Attributes)
--------------------------------        ----        ----        ------- ----- ------------
_CODE                               00000200    00003123 =       12579. bytes (REL,CON)

      Value  Global                              Global Defined In Module
      -----  --------------------------------   ------------------------
     00002227  A$lcc588828$155                    inventory_input
     00002229  A$lcc588828$156                    inventory_input
     0000222B  A$lcc588828$157                    inventory_input
     0000222D  A$lcc588828$161                    inventory_input
     0000222D  C$inventory_input.c$38$4_1$152     inventory_input
     0000222E  A$lcc588828$162                    inventory_input
     00002230  A$lcc588828$163                    inventory_input
     00002231  A$lcc588828$164                    inventory_input
     00002233  A$lcc588828$169                    inventory_input
     00002233  C$inventory_input.c$40$4_1$153     inventory_input
     00002235  A$lcc588828$170                    inventory_input
     00002237  A$lcc588828$171                    inventory_input
     00002239  A$lcc588828$172                    inventory_input
     0000223B  A$lcc588828$176                    inventory_input
     0000223B  C$inventory_input.c$42$5_1$154     inventory_input
     0000223C  A$lcc588828$177                    inventory_input
     0000223E  A$lcc588828$178                    inventory_input
     0000223F  A$lcc588828$179                    inventory_input
     00002241  A$lcc588828$184                    inventory_input
     00002241  C$inventory_input.c$44$5_1$155     inventory_input
     00002243  A$lcc588828$185                    inventory_input
     00002245  A$lcc588828$186                    inventory_input
     00002247  A$lcc588828$187                    inventory_input
     00002249  A$lcc588828$191                    inventory_input
     00002249  C$inventory_input.c$46$6_1$156     inventory_input
     0000224A  A$lcc588828$192                    inventory_input
     0000224C  A$lcc588828$193                    inventory_input
     0000224D  A$lcc588828$198                    inventory_input
     0000224D  C$inventory_input.c$49$2_1$157     inventory_input
     0000224F  A$lcc588828$199                    inventory_input
     00002250  A$lcc588828$200                    inventory_input
     00002252  A$lcc588828$204                    inventory_input
     00002252  C$inventory_input.c$50$2_1$157     inventory_input
     00002254  A$lcc588828$209                    inventory_input
     00002254  C$inventory_input.c$51$2_1$158     inventory_input
     00002255  A$lcc588828$210                    inventory_input
     00002257  A$lcc588828$211                    inventory_input
     00002259  A$lcc588828$215                    inventory_input
     00002259  C$inventory_input.c$52$2_1$158     inventory_input
     0000225B  A$lcc588828$220                    inventory_input
     0000225B  C$inventory_input.c$54$2_1$159     inventory_input
     0000225D  A$lcc588828$221                    inventory_input
     0000225E  A$lcc588828$222                    inventory_input
     00002260  A$lcc588828$226                    inventory_input
     00002260  C$inventory_input.c$55$2_1$159     inventory_input
     00002262  A$lcc588828$231                    inventory_input
     00002262  C$inventory_input.c$56$2_1$160     inventory_input
     00002263  A$lcc588828$232                    inventory_input
     00002265  A$lcc588828$233                    inventory_input
     00002267  A$lcc588828$237                    inventory_input
     00002267  C$inventory_input.c$57$2_1$160     inventory_input
ASxxxx Linker V03.00/V05.40 + sdld,  page 34.
Hexadecimal  [32-Bits]

Area                                    Addr        Size        Decimal Bytes (Attributes)
--------------------------------        ----        ----        ------- ----- ------------
_CODE                               00000200    00003123 =       12579. bytes (REL,CON)

      Value  Global                              Global Defined In Module
      -----  --------------------------------   ------------------------
     00002269  A$lcc588828$242                    inventory_input
     00002269  C$inventory_input.c$59$1_1$148     inventory_input
     0000226A  A$lcc588828$246                    inventory_input
     0000226A  C$inventory_input.c$60$1_1$148     inventory_input
     0000226D  A$lcc588828$247                    inventory_input
     0000226E  A$lcc588828$248                    inventory_input
     00002270  A$lcc588828$249                    inventory_input
     00002273  A$lcc588828$250                    inventory_input
     00002274  A$lcc588828$251                    inventory_input
     00002275  A$lcc588828$255                    inventory_input
     00002275  C$inventory_input.c$62$1_1$148     inventory_input
     00002278  A$lcc588828$256                    inventory_input
     0000227B  A$lcc588828$264                    inventory_input
     0000227B  C$inventory_input.c$63$1_1$145     inventory_input
     0000227B  XG$inventory_input$0$0             inventory_input
     0000227C  G$top_limit$0_0$0                  inventory_input
     0000227C  _top_limit                         inventory_input
     0000227D  G$bottom_limit$0_0$0               inventory_input
     0000227D  _bottom_limit                      inventory_input
     0000227E  G$left_limit$0_0$0                 inventory_input
     0000227E  _left_limit                        inventory_input
     0000227F  G$right_limit$0_0$0                inventory_input
     0000227F  _right_limit                       inventory_input
     00002280  G$VERTICAL_MOVEMENT$0_0$0          inventory_input
     00002280  _VERTICAL_MOVEMENT                 inventory_input
     00002281  G$HORIZONTAL_MOVEMENT$0_0$0        inventory_input
     00002281  _HORIZONTAL_MOVEMENT               inventory_input
     00002282  A$lcc588829$58                     load
     00002282  C$load.c$8$0_0$132                 load
     00002282  G$load_actor_tiles$0$0             load
     00002282  _load_actor_tiles                  load
     00002284  A$lcc588829$59                     load
     00002286  A$lcc588829$60                     load
     00002287  A$lcc588829$61                     load
     00002288  A$lcc588829$62                     load
     00002289  A$lcc588829$63                     load
     0000228A  A$lcc588829$64                     load
     0000228B  A$lcc588829$68                     load
     0000228B  C$load.c$9$2_0$132                 load
     0000228E  A$lcc588829$69                     load
     0000228F  A$lcc588829$73                     load
     0000228F  C$load.c$12$1_0$132                load
     00002291  A$lcc588829$75                     load
     00002292  A$lcc588829$76                     load
     00002294  A$lcc588829$77                     load
     00002295  A$lcc588829$78                     load
     00002297  A$lcc588829$82                     load
     00002297  C$load.c$13$3_0$134                load
     00002298  A$lcc588829$83                     load
     0000229A  A$lcc588829$84                     load
     0000229B  A$lcc588829$85                     load
ASxxxx Linker V03.00/V05.40 + sdld,  page 35.
Hexadecimal  [32-Bits]

Area                                    Addr        Size        Decimal Bytes (Attributes)
--------------------------------        ----        ----        ------- ----- ------------
_CODE                               00000200    00003123 =       12579. bytes (REL,CON)

      Value  Global                              Global Defined In Module
      -----  --------------------------------   ------------------------
     0000229C  A$lcc588829$86                     load
     0000229D  A$lcc588829$87                     load
     0000229F  A$lcc588829$88                     load
     000022A0  A$lcc588829$89                     load
     000022A1  A$lcc588829$90                     load
     000022A2  A$lcc588829$91                     load
     000022A3  A$lcc588829$92                     load
     000022A4  A$lcc588829$93                     load
     000022A5  A$lcc588829$94                     load
     000022A6  A$lcc588829$95                     load
     000022A7  A$lcc588829$96                     load
     000022A8  A$lcc588829$97                     load
     000022A9  A$lcc588829$98                     load
     000022AA  A$lcc588829$99                     load
     000022AB  A$lcc588829$100                    load
     000022AC  A$lcc588829$101                    load
     000022AD  A$lcc588829$102                    load
     000022AE  A$lcc588829$103                    load
     000022AF  A$lcc588829$104                    load
     000022B0  A$lcc588829$105                    load
     000022B2  A$lcc588829$106                    load
     000022B3  A$lcc588829$107                    load
     000022B4  A$lcc588829$108                    load
     000022B5  A$lcc588829$109                    load
     000022B6  A$lcc588829$110                    load
     000022B9  A$lcc588829$111                    load
     000022BB  A$lcc588829$115                    load
     000022BB  C$load.c$12$2_0$133                load
     000022BC  A$lcc588829$116                    load
     000022BE  A$lcc588829$121                    load
     000022BE  C$load.c$17$1_0$132                load
     000022C1  A$lcc588829$122                    load
     000022C3  A$lcc588829$123                    load
     000022C4  A$lcc588829$124                    load
     000022C6  A$lcc588829$125                    load
     000022C7  A$lcc588829$126                    load
     000022C8  A$lcc588829$127                    load
     000022C9  A$lcc588829$128                    load
     000022CA  A$lcc588829$129                    load
     000022CB  A$lcc588829$133                    load
     000022CB  C$load.c$18$1_0$132                load
     000022CE  A$lcc588829$134                    load
     000022D0  A$lcc588829$135                    load
     000022D1  A$lcc588829$136                    load
     000022D3  A$lcc588829$137                    load
     000022D4  A$lcc588829$138                    load
     000022D5  A$lcc588829$139                    load
     000022D6  A$lcc588829$140                    load
     000022D8  A$lcc588829$141                    load
     000022D9  A$lcc588829$142                    load
     000022DA  A$lcc588829$146                    load
ASxxxx Linker V03.00/V05.40 + sdld,  page 36.
Hexadecimal  [32-Bits]

Area                                    Addr        Size        Decimal Bytes (Attributes)
--------------------------------        ----        ----        ------- ----- ------------
_CODE                               00000200    00003123 =       12579. bytes (REL,CON)

      Value  Global                              Global Defined In Module
      -----  --------------------------------   ------------------------
     000022DA  C$load.c$21$1_0$132                load
     000022DD  A$lcc588829$147                    load
     000022DF  A$lcc588829$148                    load
     000022E0  A$lcc588829$149                    load
     000022E3  A$lcc588829$153                    load
     000022E3  C$load.c$23$1_0$132                load
     000022E4  A$lcc588829$157                    load
     000022E4  C$load.c$24$1_0$132                load
     000022E6  A$lcc588829$158                    load
     000022E7  A$lcc588829$159                    load
     000022E8  A$lcc588829$160                    load
     000022E9  A$lcc588829$173                    load
     000022E9  C$load.c$26$1_0$136                load
     000022E9  C$load.c$27$3_0$138                load
     000022E9  G$reset_render_component$0$0       load
     000022E9  _reset_render_component            load
     000022EB  A$lcc588829$175                    load
     000022EC  A$lcc588829$176                    load
     000022EF  A$lcc588829$177                    load
     000022F0  A$lcc588829$178                    load
     000022F2  A$lcc588829$182                    load
     000022F2  C$load.c$28$3_0$138                load
     000022F5  A$lcc588829$183                    load
     000022F7  A$lcc588829$184                    load
     000022F8  A$lcc588829$185                    load
     000022FA  A$lcc588829$189                    load
     000022FA  C$load.c$29$3_0$138                load
     000022FD  A$lcc588829$190                    load
     000022FF  A$lcc588829$191                    load
     00002300  A$lcc588829$192                    load
     00002302  A$lcc588829$196                    load
     00002302  C$load.c$27$2_0$137                load
     00002303  A$lcc588829$197                    load
     00002305  A$lcc588829$202                    load
     00002305  C$load.c$32$1_0$136                load
     00002306  A$lcc588829$203                    load
     00002309  A$lcc588829$211                    load
     00002309  C$load.c$33$1_0$136                load
     00002309  XG$reset_render_component$0$0      load
     0000230A  A$lcc588830$56                     map_scenes
     0000230A  C$map_scenes.c$10$0_0$43           map_scenes
     0000230A  G$scene_manager_MapScene$0$0       map_scenes
     0000230A  _scene_manager_MapScene            map_scenes
     0000230B  A$lcc588830$60                     map_scenes
     0000230B  C$map_scenes.c$12$2_0$43           map_scenes
     0000230D  A$lcc588830$61                     map_scenes
     0000230E  A$lcc588830$62                     map_scenes
     00002310  A$lcc588830$63                     map_scenes
     00002312  A$lcc588830$64                     map_scenes
     00002315  A$lcc588830$65                     map_scenes
     00002316  A$lcc588830$66                     map_scenes
ASxxxx Linker V03.00/V05.40 + sdld,  page 37.
Hexadecimal  [32-Bits]

Area                                    Addr        Size        Decimal Bytes (Attributes)
--------------------------------        ----        ----        ------- ----- ------------
_CODE                               00000200    00003123 =       12579. bytes (REL,CON)

      Value  Global                              Global Defined In Module
      -----  --------------------------------   ------------------------
     00002317  A$lcc588830$67                     map_scenes
     00002318  A$lcc588830$68                     map_scenes
     00002319  A$lcc588830$69                     map_scenes
     0000231A  A$lcc588830$70                     map_scenes
     0000231B  A$lcc588830$71                     map_scenes
     00002324  A$lcc588830$84                     map_scenes
     00002324  C$map_scenes.c$14$3_0$44           map_scenes
     00002324  C$map_scenes.c$15$3_0$44           map_scenes
     00002327  A$lcc588830$88                     map_scenes
     00002327  C$map_scenes.c$16$3_0$44           map_scenes
     0000232A  A$lcc588830$89                     map_scenes
     0000232B  A$lcc588830$97                     map_scenes
     0000232B  C$map_scenes.c$17$3_0$44           map_scenes
     0000232B  C$map_scenes.c$18$3_0$44           map_scenes
     0000232E  A$lcc588830$101                    map_scenes
     0000232E  C$map_scenes.c$19$3_0$44           map_scenes
     00002331  A$lcc588830$102                    map_scenes
     00002332  A$lcc588830$110                    map_scenes
     00002332  C$map_scenes.c$20$3_0$44           map_scenes
     00002332  C$map_scenes.c$21$3_0$44           map_scenes
     00002335  A$lcc588830$114                    map_scenes
     00002335  C$map_scenes.c$22$3_0$44           map_scenes
     00002338  A$lcc588830$115                    map_scenes
     00002339  A$lcc588830$123                    map_scenes
     00002339  C$map_scenes.c$23$3_0$44           map_scenes
     00002339  C$map_scenes.c$24$3_0$44           map_scenes
     0000233C  A$lcc588830$127                    map_scenes
     0000233C  C$map_scenes.c$25$3_0$44           map_scenes
     0000233F  A$lcc588830$128                    map_scenes
     00002340  A$lcc588830$136                    map_scenes
     00002340  C$map_scenes.c$26$3_0$44           map_scenes
     00002340  C$map_scenes.c$27$3_0$44           map_scenes
     00002343  A$lcc588830$147                    map_scenes
     00002343  C$map_scenes.c$28$2_0$43           map_scenes
     00002343  C$map_scenes.c$29$2_0$43           map_scenes
     00002343  XG$scene_manager_MapScene$0$0      map_scenes
     00002344  A$lcc588831$56                     money
     00002344  C$money.c$5$0_0$3                  money
     00002344  G$add_money$0$0                    money
     00002344  _add_money                         money
     00002345  A$lcc588831$60                     money
     00002345  C$money.c$6$1_0$3                  money
     00002346  A$lcc588831$61                     money
     00002348  A$lcc588831$62                     money
     00002349  A$lcc588831$63                     money
     0000234A  A$lcc588831$64                     money
     0000234B  A$lcc588831$65                     money
     0000234C  A$lcc588831$66                     money
     0000234D  A$lcc588831$67                     money
     0000234E  A$lcc588831$68                     money
     0000234F  A$lcc588831$69                     money
ASxxxx Linker V03.00/V05.40 + sdld,  page 38.
Hexadecimal  [32-Bits]

Area                                    Addr        Size        Decimal Bytes (Attributes)
--------------------------------        ----        ----        ------- ----- ------------
_CODE                               00000200    00003123 =       12579. bytes (REL,CON)

      Value  Global                              Global Defined In Module
      -----  --------------------------------   ------------------------
     00002350  A$lcc588831$70                     money
     00002351  A$lcc588831$71                     money
     00002354  A$lcc588831$72                     money
     00002355  A$lcc588831$73                     money
     00002358  A$lcc588831$74                     money
     00002359  A$lcc588831$75                     money
     0000235A  A$lcc588831$76                     money
     0000235B  A$lcc588831$77                     money
     0000235C  A$lcc588831$78                     money
     0000235D  A$lcc588831$79                     money
     0000235E  A$lcc588831$80                     money
     00002361  A$lcc588831$81                     money
     00002362  A$lcc588831$82                     money
     00002363  A$lcc588831$83                     money
     00002364  A$lcc588831$87                     money
     00002364  C$money.c$7$1_0$3                  money
     00002366  A$lcc588831$88                     money
     00002367  A$lcc588831$89                     money
     00002368  A$lcc588831$90                     money
     00002369  A$lcc588831$91                     money
     0000236A  A$lcc588831$92                     money
     0000236B  A$lcc588831$93                     money
     0000236C  A$lcc588831$94                     money
     0000236D  A$lcc588831$95                     money
     0000236E  A$lcc588831$96                     money
     0000236F  A$lcc588831$97                     money
     00002370  A$lcc588831$98                     money
     00002371  A$lcc588831$99                     money
     00002372  A$lcc588831$100                    money
     00002375  A$lcc588831$101                    money
     00002378  A$lcc588831$102                    money
     00002379  A$lcc588831$103                    money
     0000237A  A$lcc588831$104                    money
     0000237B  A$lcc588831$105                    money
     0000237C  A$lcc588831$106                    money
     0000237D  A$lcc588831$107                    money
     0000237E  A$lcc588831$108                    money
     0000237F  A$lcc588831$109                    money
     00002380  A$lcc588831$110                    money
     00002381  A$lcc588831$118                    money
     00002381  C$money.c$8$1_0$3                  money
     00002381  XG$add_money$0$0                   money
     00002382  A$lcc588833$66                     player
     00002382  C$player.c$7$0_0$136               player
     00002382  G$init_player$0$0                  player
     00002382  _init_player                       player
     00002384  A$lcc588833$70                     player
     00002384  C$player.c$9$1_0$136               player
     00002387  A$lcc588833$71                     player
     0000238A  A$lcc588833$72                     player
     0000238B  A$lcc588833$76                     player
ASxxxx Linker V03.00/V05.40 + sdld,  page 39.
Hexadecimal  [32-Bits]

Area                                    Addr        Size        Decimal Bytes (Attributes)
--------------------------------        ----        ----        ------- ----- ------------
_CODE                               00000200    00003123 =       12579. bytes (REL,CON)

      Value  Global                              Global Defined In Module
      -----  --------------------------------   ------------------------
     0000238B  C$player.c$11$1_0$136              player
     0000238C  A$lcc588833$77                     player
     0000238E  A$lcc588833$78                     player
     00002391  A$lcc588833$79                     player
     00002392  A$lcc588833$80                     player
     00002394  A$lcc588833$84                     player
     00002394  C$player.c$12$1_0$136              player
     00002397  A$lcc588833$85                     player
     0000239A  A$lcc588833$86                     player
     0000239B  A$lcc588833$87                     player
     0000239D  A$lcc588833$88                     player
     0000239E  A$lcc588833$89                     player
     000023A0  A$lcc588833$93                     player
     000023A0  C$player.c$11$1_1$136              player
     000023A3  A$lcc588833$94                     player
     000023A4  A$lcc588833$98                     player
     000023A4  C$player.c$14$1_0$136              player
     000023A5  A$lcc588833$99                     player
     000023A7  A$lcc588833$100                    player
     000023A8  A$lcc588833$101                    player
     000023A9  A$lcc588833$102                    player
     000023AC  A$lcc588833$106                    player
     000023AC  C$player.c$16$1_0$136              player
     000023AF  A$lcc588833$107                    player
     000023B0  A$lcc588833$108                    player
     000023B2  A$lcc588833$109                    player
     000023B3  A$lcc588833$110                    player
     000023B5  A$lcc588833$111                    player
     000023B7  A$lcc588833$112                    player
     000023B8  A$lcc588833$113                    player
     000023BA  A$lcc588833$114                    player
     000023BB  A$lcc588833$115                    player
     000023BC  A$lcc588833$116                    player
     000023BE  A$lcc588833$117                    player
     000023C0  A$lcc588833$118                    player
     000023C1  A$lcc588833$119                    player
     000023C2  A$lcc588833$120                    player
     000023C3  A$lcc588833$121                    player
     000023C4  A$lcc588833$122                    player
     000023C5  A$lcc588833$123                    player
     000023C6  A$lcc588833$127                    player
     000023C6  C$player.c$17$1_0$136              player
     000023C9  A$lcc588833$128                    player
     000023CA  A$lcc588833$129                    player
     000023CB  A$lcc588833$130                    player
     000023CD  A$lcc588833$131                    player
     000023CE  A$lcc588833$132                    player
     000023D0  A$lcc588833$133                    player
     000023D2  A$lcc588833$134                    player
     000023D3  A$lcc588833$135                    player
     000023D4  A$lcc588833$136                    player
ASxxxx Linker V03.00/V05.40 + sdld,  page 40.
Hexadecimal  [32-Bits]

Area                                    Addr        Size        Decimal Bytes (Attributes)
--------------------------------        ----        ----        ------- ----- ------------
_CODE                               00000200    00003123 =       12579. bytes (REL,CON)

      Value  Global                              Global Defined In Module
      -----  --------------------------------   ------------------------
     000023D6  A$lcc588833$137                    player
     000023D7  A$lcc588833$138                    player
     000023D8  A$lcc588833$139                    player
     000023D9  A$lcc588833$140                    player
     000023DA  A$lcc588833$141                    player
     000023DB  A$lcc588833$142                    player
     000023DC  A$lcc588833$143                    player
     000023DD  A$lcc588833$147                    player
     000023DD  C$player.c$19$1_0$136              player
     000023E0  A$lcc588833$148                    player
     000023E1  A$lcc588833$149                    player
     000023E3  A$lcc588833$150                    player
     000023E6  A$lcc588833$151                    player
     000023E7  A$lcc588833$152                    player
     000023E9  A$lcc588833$156                    player
     000023E9  C$player.c$20$1_0$136              player
     000023EC  A$lcc588833$157                    player
     000023EF  A$lcc588833$158                    player
     000023F0  A$lcc588833$159                    player
     000023F2  A$lcc588833$160                    player
     000023F3  A$lcc588833$161                    player
     000023F5  A$lcc588833$165                    player
     000023F5  C$player.c$21$1_0$136              player
     000023F8  A$lcc588833$166                    player
     000023FB  A$lcc588833$167                    player
     000023FC  A$lcc588833$168                    player
     000023FE  A$lcc588833$169                    player
     000023FF  A$lcc588833$170                    player
     00002401  A$lcc588833$174                    player
     00002401  C$player.c$24$2_0$137              player
     00002404  A$lcc588833$175                    player
     00002405  A$lcc588833$176                    player
     00002406  A$lcc588833$177                    player
     00002407  A$lcc588833$178                    player
     00002409  A$lcc588833$179                    player
     0000240B  A$lcc588833$180                    player
     0000240C  A$lcc588833$181                    player
     0000240E  A$lcc588833$182                    player
     0000240F  A$lcc588833$183                    player
     00002411  A$lcc588833$184                    player
     00002412  A$lcc588833$185                    player
     00002414  A$lcc588833$186                    player
     00002415  A$lcc588833$187                    player
     00002417  A$lcc588833$188                    player
     00002418  A$lcc588833$189                    player
     0000241A  A$lcc588833$193                    player
     0000241A  C$player.c$30$2_0$137              player
     0000241B  A$lcc588833$194                    player
     0000241D  A$lcc588833$195                    player
     0000241E  A$lcc588833$196                    player
     00002420  A$lcc588833$197                    player
ASxxxx Linker V03.00/V05.40 + sdld,  page 41.
Hexadecimal  [32-Bits]

Area                                    Addr        Size        Decimal Bytes (Attributes)
--------------------------------        ----        ----        ------- ----- ------------
_CODE                               00000200    00003123 =       12579. bytes (REL,CON)

      Value  Global                              Global Defined In Module
      -----  --------------------------------   ------------------------
     00002421  A$lcc588833$198                    player
     00002423  A$lcc588833$199                    player
     00002424  A$lcc588833$200                    player
     00002426  A$lcc588833$201                    player
     00002427  A$lcc588833$202                    player
     00002429  A$lcc588833$203                    player
     0000242A  A$lcc588833$204                    player
     0000242C  A$lcc588833$205                    player
     0000242D  A$lcc588833$206                    player
     0000242F  A$lcc588833$207                    player
     00002430  A$lcc588833$208                    player
     00002432  A$lcc588833$209                    player
     00002433  A$lcc588833$210                    player
     00002434  A$lcc588833$211                    player
     00002435  A$lcc588833$212                    player
     00002436  A$lcc588833$213                    player
     00002437  A$lcc588833$214                    player
     00002439  A$lcc588833$215                    player
     0000243A  A$lcc588833$216                    player
     0000243C  A$lcc588833$217                    player
     0000243D  A$lcc588833$218                    player
     0000243F  A$lcc588833$219                    player
     00002440  A$lcc588833$220                    player
     00002442  A$lcc588833$221                    player
     00002443  A$lcc588833$222                    player
     00002445  A$lcc588833$223                    player
     00002446  A$lcc588833$224                    player
     00002448  A$lcc588833$225                    player
     00002449  A$lcc588833$226                    player
     0000244B  A$lcc588833$227                    player
     0000244C  A$lcc588833$228                    player
     0000244E  A$lcc588833$229                    player
     0000244F  A$lcc588833$230                    player
     00002451  A$lcc588833$231                    player
     00002452  A$lcc588833$232                    player
     00002454  A$lcc588833$233                    player
     00002455  A$lcc588833$234                    player
     00002457  A$lcc588833$235                    player
     00002458  A$lcc588833$236                    player
     0000245A  A$lcc588833$237                    player
     0000245B  A$lcc588833$238                    player
     0000245D  A$lcc588833$239                    player
     0000245E  A$lcc588833$240                    player
     00002460  A$lcc588833$241                    player
     00002461  A$lcc588833$242                    player
     00002462  A$lcc588833$243                    player
     00002463  A$lcc588833$244                    player
     00002464  A$lcc588833$245                    player
     00002465  A$lcc588833$246                    player
     00002467  A$lcc588833$247                    player
     00002468  A$lcc588833$248                    player
ASxxxx Linker V03.00/V05.40 + sdld,  page 42.
Hexadecimal  [32-Bits]

Area                                    Addr        Size        Decimal Bytes (Attributes)
--------------------------------        ----        ----        ------- ----- ------------
_CODE                               00000200    00003123 =       12579. bytes (REL,CON)

      Value  Global                              Global Defined In Module
      -----  --------------------------------   ------------------------
     0000246A  A$lcc588833$249                    player
     0000246B  A$lcc588833$250                    player
     0000246D  A$lcc588833$251                    player
     0000246E  A$lcc588833$252                    player
     00002470  A$lcc588833$253                    player
     00002471  A$lcc588833$254                    player
     00002473  A$lcc588833$255                    player
     00002474  A$lcc588833$256                    player
     00002476  A$lcc588833$260                    player
     00002476  C$player.c$53$2_0$137              player
     00002477  A$lcc588833$261                    player
     0000247A  A$lcc588833$262                    player
     0000247B  A$lcc588833$263                    player
     0000247C  A$lcc588833$264                    player
     0000247D  A$lcc588833$265                    player
     0000247E  A$lcc588833$266                    player
     00002480  A$lcc588833$267                    player
     00002481  A$lcc588833$268                    player
     00002483  A$lcc588833$269                    player
     00002484  A$lcc588833$270                    player
     00002486  A$lcc588833$271                    player
     00002487  A$lcc588833$272                    player
     00002489  A$lcc588833$273                    player
     0000248A  A$lcc588833$274                    player
     0000248C  A$lcc588833$275                    player
     0000248D  A$lcc588833$276                    player
     0000248F  A$lcc588833$280                    player
     0000248F  C$player.c$59$2_0$137              player
     00002490  A$lcc588833$281                    player
     00002492  A$lcc588833$282                    player
     00002493  A$lcc588833$283                    player
     00002495  A$lcc588833$284                    player
     00002496  A$lcc588833$285                    player
     00002498  A$lcc588833$286                    player
     00002499  A$lcc588833$287                    player
     0000249B  A$lcc588833$288                    player
     0000249C  A$lcc588833$289                    player
     0000249E  A$lcc588833$290                    player
     0000249F  A$lcc588833$291                    player
     000024A1  A$lcc588833$292                    player
     000024A2  A$lcc588833$293                    player
     000024A4  A$lcc588833$294                    player
     000024A5  A$lcc588833$295                    player
     000024A7  A$lcc588833$296                    player
     000024A8  A$lcc588833$297                    player
     000024A9  A$lcc588833$298                    player
     000024AA  A$lcc588833$299                    player
     000024AB  A$lcc588833$300                    player
     000024AC  A$lcc588833$301                    player
     000024AE  A$lcc588833$302                    player
     000024AF  A$lcc588833$303                    player
ASxxxx Linker V03.00/V05.40 + sdld,  page 43.
Hexadecimal  [32-Bits]

Area                                    Addr        Size        Decimal Bytes (Attributes)
--------------------------------        ----        ----        ------- ----- ------------
_CODE                               00000200    00003123 =       12579. bytes (REL,CON)

      Value  Global                              Global Defined In Module
      -----  --------------------------------   ------------------------
     000024B1  A$lcc588833$304                    player
     000024B2  A$lcc588833$305                    player
     000024B4  A$lcc588833$306                    player
     000024B5  A$lcc588833$307                    player
     000024B7  A$lcc588833$308                    player
     000024B8  A$lcc588833$309                    player
     000024BA  A$lcc588833$310                    player
     000024BB  A$lcc588833$311                    player
     000024BD  A$lcc588833$312                    player
     000024BE  A$lcc588833$313                    player
     000024C0  A$lcc588833$314                    player
     000024C1  A$lcc588833$315                    player
     000024C3  A$lcc588833$316                    player
     000024C4  A$lcc588833$317                    player
     000024C6  A$lcc588833$318                    player
     000024C7  A$lcc588833$319                    player
     000024C9  A$lcc588833$320                    player
     000024CA  A$lcc588833$321                    player
     000024CC  A$lcc588833$322                    player
     000024CD  A$lcc588833$323                    player
     000024CF  A$lcc588833$324                    player
     000024D0  A$lcc588833$325                    player
     000024D2  A$lcc588833$326                    player
     000024D3  A$lcc588833$327                    player
     000024D5  A$lcc588833$328                    player
     000024D6  A$lcc588833$329                    player
     000024D7  A$lcc588833$330                    player
     000024D8  A$lcc588833$331                    player
     000024D9  A$lcc588833$332                    player
     000024DA  A$lcc588833$333                    player
     000024DC  A$lcc588833$334                    player
     000024DD  A$lcc588833$335                    player
     000024DF  A$lcc588833$336                    player
     000024E0  A$lcc588833$337                    player
     000024E2  A$lcc588833$338                    player
     000024E3  A$lcc588833$339                    player
     000024E5  A$lcc588833$340                    player
     000024E6  A$lcc588833$341                    player
     000024E8  A$lcc588833$342                    player
     000024E9  A$lcc588833$343                    player
     000024EB  A$lcc588833$347                    player
     000024EB  C$player.c$81$1_1$137              player
     000024EE  A$lcc588833$348                    player
     000024EF  A$lcc588833$349                    player
     000024F1  A$lcc588833$350                    player
     000024F2  A$lcc588833$351                    player
     000024F3  A$lcc588833$352                    player
     000024F4  A$lcc588833$353                    player
     000024F5  A$lcc588833$354                    player
     000024F6  A$lcc588833$355                    player
     000024F7  A$lcc588833$356                    player
ASxxxx Linker V03.00/V05.40 + sdld,  page 44.
Hexadecimal  [32-Bits]

Area                                    Addr        Size        Decimal Bytes (Attributes)
--------------------------------        ----        ----        ------- ----- ------------
_CODE                               00000200    00003123 =       12579. bytes (REL,CON)

      Value  Global                              Global Defined In Module
      -----  --------------------------------   ------------------------
     000024F8  A$lcc588833$357                    player
     000024F9  A$lcc588833$358                    player
     000024FA  A$lcc588833$359                    player
     000024FD  A$lcc588833$360                    player
     000024FE  A$lcc588833$361                    player
     000024FF  A$lcc588833$362                    player
     00002500  A$lcc588833$363                    player
     00002503  A$lcc588833$364                    player
     00002504  A$lcc588833$365                    player
     00002506  A$lcc588833$366                    player
     00002507  A$lcc588833$367                    player
     00002508  A$lcc588833$368                    player
     0000250B  A$lcc588833$369                    player
     0000250C  A$lcc588833$370                    player
     0000250D  A$lcc588833$371                    player
     0000250E  A$lcc588833$372                    player
     0000250F  A$lcc588833$373                    player
     00002510  A$lcc588833$374                    player
     00002511  A$lcc588833$375                    player
     00002514  A$lcc588833$376                    player
     00002517  A$lcc588833$380                    player
     00002517  C$player.c$82$1_1$137              player
     0000251A  A$lcc588833$381                    player
     0000251B  A$lcc588833$382                    player
     0000251D  A$lcc588833$383                    player
     0000251E  A$lcc588833$384                    player
     0000251F  A$lcc588833$385                    player
     00002520  A$lcc588833$386                    player
     00002521  A$lcc588833$387                    player
     00002522  A$lcc588833$388                    player
     00002523  A$lcc588833$389                    player
     00002524  A$lcc588833$390                    player
     00002525  A$lcc588833$391                    player
     00002526  A$lcc588833$392                    player
     00002529  A$lcc588833$393                    player
     0000252A  A$lcc588833$394                    player
     0000252B  A$lcc588833$395                    player
     0000252C  A$lcc588833$396                    player
     0000252F  A$lcc588833$397                    player
     00002530  A$lcc588833$398                    player
     00002532  A$lcc588833$399                    player
     00002533  A$lcc588833$400                    player
     00002534  A$lcc588833$401                    player
     00002537  A$lcc588833$402                    player
     00002538  A$lcc588833$403                    player
     00002539  A$lcc588833$404                    player
     0000253B  A$lcc588833$405                    player
     0000253C  A$lcc588833$406                    player
     0000253D  A$lcc588833$407                    player
     0000253E  A$lcc588833$408                    player
     00002541  A$lcc588833$409                    player
ASxxxx Linker V03.00/V05.40 + sdld,  page 45.
Hexadecimal  [32-Bits]

Area                                    Addr        Size        Decimal Bytes (Attributes)
--------------------------------        ----        ----        ------- ----- ------------
_CODE                               00000200    00003123 =       12579. bytes (REL,CON)

      Value  Global                              Global Defined In Module
      -----  --------------------------------   ------------------------
     00002544  A$lcc588833$413                    player
     00002544  C$player.c$83$1_1$137              player
     00002547  A$lcc588833$414                    player
     00002548  A$lcc588833$415                    player
     0000254A  A$lcc588833$416                    player
     0000254B  A$lcc588833$417                    player
     0000254C  A$lcc588833$418                    player
     0000254D  A$lcc588833$419                    player
     0000254E  A$lcc588833$420                    player
     0000254F  A$lcc588833$421                    player
     00002550  A$lcc588833$422                    player
     00002551  A$lcc588833$423                    player
     00002552  A$lcc588833$424                    player
     00002553  A$lcc588833$425                    player
     00002556  A$lcc588833$426                    player
     00002557  A$lcc588833$427                    player
     00002558  A$lcc588833$428                    player
     00002559  A$lcc588833$429                    player
     0000255C  A$lcc588833$430                    player
     0000255D  A$lcc588833$431                    player
     0000255F  A$lcc588833$432                    player
     00002560  A$lcc588833$433                    player
     00002561  A$lcc588833$434                    player
     00002564  A$lcc588833$435                    player
     00002565  A$lcc588833$436                    player
     00002566  A$lcc588833$437                    player
     00002568  A$lcc588833$438                    player
     00002569  A$lcc588833$439                    player
     0000256A  A$lcc588833$440                    player
     0000256B  A$lcc588833$441                    player
     0000256E  A$lcc588833$442                    player
     00002571  A$lcc588833$446                    player
     00002571  C$player.c$84$1_1$137              player
     00002574  A$lcc588833$447                    player
     00002575  A$lcc588833$448                    player
     00002577  A$lcc588833$449                    player
     00002578  A$lcc588833$450                    player
     00002579  A$lcc588833$451                    player
     0000257A  A$lcc588833$452                    player
     0000257B  A$lcc588833$453                    player
     0000257C  A$lcc588833$454                    player
     0000257D  A$lcc588833$455                    player
     0000257E  A$lcc588833$456                    player
     0000257F  A$lcc588833$457                    player
     00002580  A$lcc588833$458                    player
     00002583  A$lcc588833$459                    player
     00002584  A$lcc588833$460                    player
     00002585  A$lcc588833$461                    player
     00002586  A$lcc588833$462                    player
     00002589  A$lcc588833$463                    player
     0000258A  A$lcc588833$464                    player
ASxxxx Linker V03.00/V05.40 + sdld,  page 46.
Hexadecimal  [32-Bits]

Area                                    Addr        Size        Decimal Bytes (Attributes)
--------------------------------        ----        ----        ------- ----- ------------
_CODE                               00000200    00003123 =       12579. bytes (REL,CON)

      Value  Global                              Global Defined In Module
      -----  --------------------------------   ------------------------
     0000258C  A$lcc588833$465                    player
     0000258D  A$lcc588833$466                    player
     0000258E  A$lcc588833$467                    player
     00002591  A$lcc588833$468                    player
     00002592  A$lcc588833$469                    player
     00002593  A$lcc588833$470                    player
     00002595  A$lcc588833$471                    player
     00002596  A$lcc588833$472                    player
     00002597  A$lcc588833$473                    player
     00002598  A$lcc588833$474                    player
     0000259B  A$lcc588833$475                    player
     0000259E  A$lcc588833$479                    player
     0000259E  C$player.c$86$1_1$137              player
     000025A1  A$lcc588833$483                    player
     000025A1  C$player.c$87$1_1$137              player
     000025A2  A$lcc588833$484                    player
     000025A3  A$lcc588833$485                    player
     000025A5  A$lcc588833$489                    player
     000025A5  C$player.c$88$1_1$137              player
     000025A8  A$lcc588833$490                    player
     000025AA  A$lcc588833$494                    player
     000025AA  C$player.c$89$1_1$137              player
     000025AD  A$lcc588833$495                    player
     000025AF  A$lcc588833$499                    player
     000025AF  C$player.c$91$1_1$137              player
     000025B2  A$lcc588833$503                    player
     000025B4  A$lcc588833$508                    player
     000025B4  C$player.c$92$1_1$136              player
     000025B4  XG$init_player$0$0                 player
     000025B5  A$lcc588835$56                     render
     000025B5  C$render.c$5$0_0$130               render
     000025B5  G$render_reset$0$0                 render
     000025B5  _render_reset                      render
     000025B6  A$lcc588835$60                     render
     000025B6  C$render.c$6$1_0$130               render
     000025B9  A$lcc588835$61                     render
     000025BB  A$lcc588835$62                     render
     000025BC  A$lcc588835$63                     render
     000025BE  A$lcc588835$67                     render
     000025BE  C$render.c$7$1_0$130               render
     000025C1  A$lcc588835$68                     render
     000025C3  A$lcc588835$69                     render
     000025C4  A$lcc588835$70                     render
     000025C6  A$lcc588835$78                     render
     000025C6  C$render.c$8$1_0$130               render
     000025C6  XG$render_reset$0$0                render
     000025C7  A$lcc588836$70                     scene
     000025C7  C$scene.c$10$0_0$26                scene
     000025C7  C$scene.c$11$1_0$26                scene
     000025C7  G$init_NPCs$0$0                    scene
     000025C7  _init_NPCs                         scene
ASxxxx Linker V03.00/V05.40 + sdld,  page 47.
Hexadecimal  [32-Bits]

Area                                    Addr        Size        Decimal Bytes (Attributes)
--------------------------------        ----        ----        ------- ----- ------------
_CODE                               00000200    00003123 =       12579. bytes (REL,CON)

      Value  Global                              Global Defined In Module
      -----  --------------------------------   ------------------------
     000025CA  A$lcc588836$71                     scene
     000025CD  A$lcc588836$75                     scene
     000025CD  C$scene.c$12$1_0$26                scene
     000025D0  A$lcc588836$76                     scene
     000025D3  A$lcc588836$80                     scene
     000025D3  C$scene.c$13$1_0$26                scene
     000025D6  A$lcc588836$81                     scene
     000025D9  A$lcc588836$89                     scene
     000025D9  C$scene.c$14$1_0$26                scene
     000025D9  XG$init_NPCs$0$0                   scene
     000025DA  A$lcc588836$102                    scene
     000025DA  C$scene.c$16$1_0$28                scene
     000025DA  C$scene.c$18$2_0$29                scene
     000025DA  G$Scene_Destroy$0$0                scene
     000025DA  _Scene_Destroy                     scene
     000025DD  A$lcc588836$103                    scene
     000025DE  A$lcc588836$104                    scene
     000025DF  A$lcc588836$105                    scene
     000025E0  A$lcc588836$106                    scene
     000025E1  A$lcc588836$107                    scene
     000025E2  A$lcc588836$108                    scene
     000025E3  A$lcc588836$109                    scene
     000025E4  A$lcc588836$113                    scene
     000025E4  C$scene.c$19$2_0$29                scene
     000025E5  A$lcc588836$117                    scene
     000025E5  C$scene.c$21$1_0$28                scene
     000025E6  A$lcc588836$118                    scene
     000025E7  A$lcc588836$119                    scene
     000025E8  A$lcc588836$120                    scene
     000025EB  A$lcc588836$121                    scene
     000025EC  A$lcc588836$125                    scene
     000025EC  C$scene.c$22$1_0$28                scene
     000025ED  A$lcc588836$126                    scene
     000025EE  A$lcc588836$127                    scene
     000025EF  A$lcc588836$128                    scene
     000025F0  A$lcc588836$136                    scene
     000025F0  C$scene.c$23$1_0$28                scene
     000025F0  XG$Scene_Destroy$0$0               scene
     000025F1  A$lcc588837$63                     scene_manager
     000025F1  C$scene_manager.c$13$0_0$163       scene_manager
     000025F1  C$scene_manager.c$16$1_0$163       scene_manager
     000025F1  G$SceneManager_CleanScreen$0$0     scene_manager
     000025F1  _SceneManager_CleanScreen          scene_manager
     000025F4  A$lcc588837$64                     scene_manager
     000025F7  A$lcc588837$65                     scene_manager
     000025F8  A$lcc588837$66                     scene_manager
     000025FA  A$lcc588837$67                     scene_manager
     000025FB  A$lcc588837$68                     scene_manager
     000025FD  A$lcc588837$72                     scene_manager
     000025FD  C$scene_manager.c$17$1_0$163       scene_manager
     00002600  A$lcc588837$73                     scene_manager
ASxxxx Linker V03.00/V05.40 + sdld,  page 48.
Hexadecimal  [32-Bits]

Area                                    Addr        Size        Decimal Bytes (Attributes)
--------------------------------        ----        ----        ------- ----- ------------
_CODE                               00000200    00003123 =       12579. bytes (REL,CON)

      Value  Global                              Global Defined In Module
      -----  --------------------------------   ------------------------
     00002601  A$lcc588837$74                     scene_manager
     00002603  A$lcc588837$75                     scene_manager
     00002604  A$lcc588837$76                     scene_manager
     00002606  A$lcc588837$80                     scene_manager
     00002606  C$scene_manager.c$18$1_0$163       scene_manager
     00002609  A$lcc588837$81                     scene_manager
     0000260A  A$lcc588837$82                     scene_manager
     0000260C  A$lcc588837$83                     scene_manager
     0000260D  A$lcc588837$84                     scene_manager
     0000260F  A$lcc588837$88                     scene_manager
     0000260F  C$scene_manager.c$19$1_0$163       scene_manager
     00002612  A$lcc588837$89                     scene_manager
     00002613  A$lcc588837$90                     scene_manager
     00002615  A$lcc588837$91                     scene_manager
     00002616  A$lcc588837$92                     scene_manager
     00002618  A$lcc588837$100                    scene_manager
     00002618  C$scene_manager.c$20$1_0$163       scene_manager
     00002618  XG$SceneManager_CleanScreen$0$0    scene_manager
     00002619  A$lcc588837$113                    scene_manager
     00002619  C$scene_manager.c$22$1_0$165       scene_manager
     00002619  C$scene_manager.c$24$1_0$165       scene_manager
     00002619  G$SceneManager_Create$0$0          scene_manager
     00002619  _SceneManager_Create               scene_manager
     0000261A  A$lcc588837$114                    scene_manager
     0000261D  A$lcc588837$115                    scene_manager
     00002620  A$lcc588837$116                    scene_manager
     00002621  A$lcc588837$117                    scene_manager
     00002624  A$lcc588837$118                    scene_manager
     00002625  A$lcc588837$119                    scene_manager
     00002626  A$lcc588837$123                    scene_manager
     00002626  C$scene_manager.c$26$1_0$165       scene_manager
     00002627  A$lcc588837$124                    scene_manager
     00002628  A$lcc588837$125                    scene_manager
     00002629  A$lcc588837$126                    scene_manager
     0000262C  A$lcc588837$127                    scene_manager
     0000262D  A$lcc588837$128                    scene_manager
     0000262E  A$lcc588837$129                    scene_manager
     0000262F  A$lcc588837$130                    scene_manager
     00002630  A$lcc588837$134                    scene_manager
     00002630  C$scene_manager.c$27$1_0$165       scene_manager
     00002633  A$lcc588837$135                    scene_manager
     00002636  A$lcc588837$136                    scene_manager
     00002637  A$lcc588837$137                    scene_manager
     00002638  A$lcc588837$138                    scene_manager
     00002639  A$lcc588837$139                    scene_manager
     0000263A  A$lcc588837$140                    scene_manager
     0000263C  A$lcc588837$141                    scene_manager
     0000263D  A$lcc588837$142                    scene_manager
     0000263F  A$lcc588837$150                    scene_manager
     0000263F  C$scene_manager.c$28$1_0$165       scene_manager
     0000263F  XG$SceneManager_Create$0$0         scene_manager
ASxxxx Linker V03.00/V05.40 + sdld,  page 49.
Hexadecimal  [32-Bits]

Area                                    Addr        Size        Decimal Bytes (Attributes)
--------------------------------        ----        ----        ------- ----- ------------
_CODE                               00000200    00003123 =       12579. bytes (REL,CON)

      Value  Global                              Global Defined In Module
      -----  --------------------------------   ------------------------
     00002640  A$lcc588837$160                    scene_manager
     00002640  C$scene_manager.c$30$1_0$167       scene_manager
     00002640  G$SceneManager_ChangeScene$0$0     scene_manager
     00002640  _SceneManager_ChangeScene          scene_manager
     00002642  A$lcc588837$161                    scene_manager
     00002644  A$lcc588837$162                    scene_manager
     00002645  A$lcc588837$163                    scene_manager
     00002646  A$lcc588837$164                    scene_manager
     00002647  A$lcc588837$165                    scene_manager
     00002648  A$lcc588837$166                    scene_manager
     00002649  A$lcc588837$170                    scene_manager
     0000264C  A$lcc588837$171                    scene_manager
     0000264D  A$lcc588837$172                    scene_manager
     0000264E  A$lcc588837$173                    scene_manager
     0000264F  A$lcc588837$174                    scene_manager
     00002650  A$lcc588837$175                    scene_manager
     00002651  A$lcc588837$176                    scene_manager
     00002652  A$lcc588837$177                    scene_manager
     00002653  A$lcc588837$178                    scene_manager
     00002654  A$lcc588837$182                    scene_manager
     00002654  C$scene_manager.c$33$2_0$168       scene_manager
     00002656  A$lcc588837$186                    scene_manager
     00002657  A$lcc588837$187                    scene_manager
     00002658  A$lcc588837$188                    scene_manager
     00002659  A$lcc588837$189                    scene_manager
     0000265A  A$lcc588837$190                    scene_manager
     0000265B  A$lcc588837$191                    scene_manager
     0000265C  A$lcc588837$192                    scene_manager
     0000265D  A$lcc588837$193                    scene_manager
     0000265F  A$lcc588837$194                    scene_manager
     00002662  A$lcc588837$195                    scene_manager
     00002663  A$lcc588837$196                    scene_manager
     00002664  A$lcc588837$197                    scene_manager
     00002665  A$lcc588837$198                    scene_manager
     00002666  A$lcc588837$199                    scene_manager
     00002667  A$lcc588837$200                    scene_manager
     00002669  A$lcc588837$204                    scene_manager
     00002669  C$scene_manager.c$36$2_0$169       scene_manager
     0000266A  A$lcc588837$205                    scene_manager
     0000266B  A$lcc588837$206                    scene_manager
     0000266E  A$lcc588837$207                    scene_manager
     0000266F  A$lcc588837$208                    scene_manager
     00002670  A$lcc588837$209                    scene_manager
     00002671  A$lcc588837$215                    scene_manager
     00002671  C$scene_manager.c$38$1_0$167       scene_manager
     00002674  A$lcc588837$216                    scene_manager
     00002675  A$lcc588837$217                    scene_manager
     00002676  A$lcc588837$218                    scene_manager
     00002677  A$lcc588837$219                    scene_manager
     00002678  A$lcc588837$220                    scene_manager
     00002679  A$lcc588837$221                    scene_manager
ASxxxx Linker V03.00/V05.40 + sdld,  page 50.
Hexadecimal  [32-Bits]

Area                                    Addr        Size        Decimal Bytes (Attributes)
--------------------------------        ----        ----        ------- ----- ------------
_CODE                               00000200    00003123 =       12579. bytes (REL,CON)

      Value  Global                              Global Defined In Module
      -----  --------------------------------   ------------------------
     0000267A  A$lcc588837$222                    scene_manager
     0000267B  A$lcc588837$223                    scene_manager
     0000267D  A$lcc588837$224                    scene_manager
     0000267E  A$lcc588837$225                    scene_manager
     00002681  A$lcc588837$226                    scene_manager
     00002682  A$lcc588837$227                    scene_manager
     00002683  A$lcc588837$228                    scene_manager
     00002684  A$lcc588837$229                    scene_manager
     00002685  A$lcc588837$230                    scene_manager
     00002686  A$lcc588837$231                    scene_manager
     00002687  A$lcc588837$232                    scene_manager
     00002688  A$lcc588837$233                    scene_manager
     00002689  A$lcc588837$237                    scene_manager
     00002689  C$scene_manager.c$40$1_0$167       scene_manager
     0000268C  A$lcc588837$241                    scene_manager
     0000268C  C$scene_manager.c$32$1_0$167       scene_manager
     0000268F  A$lcc588837$242                    scene_manager
     00002690  A$lcc588837$243                    scene_manager
     00002691  A$lcc588837$244                    scene_manager
     00002692  A$lcc588837$245                    scene_manager
     00002693  A$lcc588837$246                    scene_manager
     00002694  A$lcc588837$247                    scene_manager
     00002695  A$lcc588837$251                    scene_manager
     00002695  C$scene_manager.c$35$1_0$167       scene_manager
     00002696  A$lcc588837$252                    scene_manager
     00002697  A$lcc588837$253                    scene_manager
     00002698  A$lcc588837$254                    scene_manager
     00002699  A$lcc588837$255                    scene_manager
     0000269A  A$lcc588837$259                    scene_manager
     0000269A  C$scene_manager.c$41$1_0$167       scene_manager
     0000269B  A$lcc588837$260                    scene_manager
     0000269C  A$lcc588837$261                    scene_manager
     0000269D  A$lcc588837$262                    scene_manager
     0000269F  A$lcc588837$263                    scene_manager
     000026A0  A$lcc588837$264                    scene_manager
     000026A1  A$lcc588837$265                    scene_manager
     000026A2  A$lcc588837$266                    scene_manager
     000026A3  A$lcc588837$267                    scene_manager
     000026A4  A$lcc588837$268                    scene_manager
     000026A5  A$lcc588837$269                    scene_manager
     000026A6  A$lcc588837$270                    scene_manager
     000026A7  A$lcc588837$271                    scene_manager
     000026A8  A$lcc588837$272                    scene_manager
     000026AB  A$lcc588837$276                    scene_manager
     000026AB  C$scene_manager.c$43$1_0$167       scene_manager
     000026AD  A$lcc588837$277                    scene_manager
     000026AF  A$lcc588837$278                    scene_manager
     000026B1  A$lcc588837$283                    scene_manager
     000026B3  A$lcc588837$288                    scene_manager
     000026B3  C$scene_manager.c$44$1_0$167       scene_manager
     000026B3  XG$SceneManager_ChangeScene$0$0    scene_manager
ASxxxx Linker V03.00/V05.40 + sdld,  page 51.
Hexadecimal  [32-Bits]

Area                                    Addr        Size        Decimal Bytes (Attributes)
--------------------------------        ----        ----        ------- ----- ------------
_CODE                               00000200    00003123 =       12579. bytes (REL,CON)

      Value  Global                              Global Defined In Module
      -----  --------------------------------   ------------------------
     000026B4  A$lcc588838$61                     gender_select
     000026B4  C$gender_select.c$6$0_0$30         gender_select
     000026B4  C$gender_select.c$8$1_0$30         gender_select
     000026B4  G$GenderSelect_Create$0$0          gender_select
     000026B4  _GenderSelect_Create               gender_select
     000026B7  A$lcc588838$62                     gender_select
     000026B9  A$lcc588838$63                     gender_select
     000026BA  A$lcc588838$64                     gender_select
     000026BC  A$lcc588838$68                     gender_select
     000026BC  C$gender_select.c$9$1_0$30         gender_select
     000026BD  A$lcc588838$69                     gender_select
     000026BF  A$lcc588838$70                     gender_select
     000026C0  A$lcc588838$71                     gender_select
     000026C2  A$lcc588838$75                     gender_select
     000026C2  C$gender_select.c$11$1_0$30        gender_select
     000026C5  A$lcc588838$76                     gender_select
     000026C6  A$lcc588838$77                     gender_select
     000026C7  A$lcc588838$78                     gender_select
     000026C8  A$lcc588838$86                     gender_select
     000026C8  C$gender_select.c$12$1_0$30        gender_select
     000026C8  XG$GenderSelect_Create$0$0         gender_select
     000026C9  A$lcc588839$58                     gender_select_init
     000026C9  C$gender_select_init.c$11$1_0$15   gender_select_init
     000026C9  C$gender_select_init.c$9$0_0$155   gender_select_init
     000026C9  G$GenderSelect_Init$0$0            gender_select_init
     000026C9  _GenderSelect_Init                 gender_select_init
     000026CA  A$lcc588839$59                     gender_select_init
     000026CD  A$lcc588839$60                     gender_select_init
     000026D0  A$lcc588839$61                     gender_select_init
     000026D1  A$lcc588839$62                     gender_select_init
     000026D2  A$lcc588839$63                     gender_select_init
     000026D3  A$lcc588839$67                     gender_select_init
     000026D3  C$gender_select_init.c$12$2_0$15   gender_select_init
     000026D4  A$lcc588839$68                     gender_select_init
     000026D5  A$lcc588839$72                     gender_select_init
     000026D5  C$gender_select_init.c$13$2_0$15   gender_select_init
     000026D6  A$lcc588839$76                     gender_select_init
     000026D6  C$gender_select_init.c$15$1_0$15   gender_select_init
     000026D7  A$lcc588839$77                     gender_select_init
     000026D8  A$lcc588839$81                     gender_select_init
     000026D8  C$gender_select_init.c$16$1_0$15   gender_select_init
     000026DB  A$lcc588839$82                     gender_select_init
     000026DC  A$lcc588839$83                     gender_select_init
     000026DD  A$lcc588839$84                     gender_select_init
     000026DE  A$lcc588839$85                     gender_select_init
     000026DF  A$lcc588839$89                     gender_select_init
     000026DF  C$gender_select_init.c$18$1_0$15   gender_select_init
     000026E2  A$lcc588839$90                     gender_select_init
     000026E3  A$lcc588839$91                     gender_select_init
     000026E6  A$lcc588839$92                     gender_select_init
     000026E7  A$lcc588839$93                     gender_select_init
ASxxxx Linker V03.00/V05.40 + sdld,  page 52.
Hexadecimal  [32-Bits]

Area                                    Addr        Size        Decimal Bytes (Attributes)
--------------------------------        ----        ----        ------- ----- ------------
_CODE                               00000200    00003123 =       12579. bytes (REL,CON)

      Value  Global                              Global Defined In Module
      -----  --------------------------------   ------------------------
     000026EA  A$lcc588839$94                     gender_select_init
     000026EC  A$lcc588839$98                     gender_select_init
     000026EC  C$gender_select_init.c$19$1_0$15   gender_select_init
     000026EF  A$lcc588839$99                     gender_select_init
     000026F0  A$lcc588839$100                    gender_select_init
     000026F3  A$lcc588839$101                    gender_select_init
     000026F4  A$lcc588839$102                    gender_select_init
     000026F5  A$lcc588839$103                    gender_select_init
     000026F6  A$lcc588839$104                    gender_select_init
     000026F7  A$lcc588839$105                    gender_select_init
     000026FA  A$lcc588839$106                    gender_select_init
     000026FC  A$lcc588839$114                    gender_select_init
     000026FC  C$gender_select_init.c$20$1_0$15   gender_select_init
     000026FC  XG$GenderSelect_Init$0$0           gender_select_init
     000026FD  A$lcc588840$62                     gender_select_update
     000026FD  C$gender_select_update.c$6$0_0$1   gender_select_update
     000026FD  C$gender_select_update.c$8$1_0$1   gender_select_update
     000026FD  C$gender_select_update.c$9$1_0$1   gender_select_update
     000026FD  G$GenderSelect_Update$0$0          gender_select_update
     000026FD  XG$GenderSelect_Update$0$0         gender_select_update
     000026FD  _GenderSelect_Update               gender_select_update
     000026FE  A$lcc588841$61                     inventory_scene
     000026FE  C$inventory_scene.c$6$0_0$30       inventory_scene
     000026FE  C$inventory_scene.c$8$1_0$30       inventory_scene
     000026FE  G$InventoryScene_Create$0$0        inventory_scene
     000026FE  _InventoryScene_Create             inventory_scene
     00002701  A$lcc588841$62                     inventory_scene
     00002703  A$lcc588841$63                     inventory_scene
     00002704  A$lcc588841$64                     inventory_scene
     00002706  A$lcc588841$68                     inventory_scene
     00002706  C$inventory_scene.c$9$1_0$30       inventory_scene
     00002707  A$lcc588841$69                     inventory_scene
     00002709  A$lcc588841$70                     inventory_scene
     0000270A  A$lcc588841$71                     inventory_scene
     0000270C  A$lcc588841$75                     inventory_scene
     0000270C  C$inventory_scene.c$11$1_0$30      inventory_scene
     0000270F  A$lcc588841$76                     inventory_scene
     00002710  A$lcc588841$77                     inventory_scene
     00002711  A$lcc588841$78                     inventory_scene
     00002712  A$lcc588841$86                     inventory_scene
     00002712  C$inventory_scene.c$12$1_0$30      inventory_scene
     00002712  XG$InventoryScene_Create$0$0       inventory_scene
     00002713  A$lcc588842$56                     inventory_scene_init
     00002713  C$inventory_scene_init.c$12$0_0$   inventory_scene_init
     00002713  G$InventoryScene_DrawCoins$0$0     inventory_scene_init
     00002713  _InventoryScene_DrawCoins          inventory_scene_init
     00002715  A$lcc588842$60                     inventory_scene_init
     00002715  C$inventory_scene_init.c$14$1_0$   inventory_scene_init
     00002718  A$lcc588842$61                     inventory_scene_init
     0000271A  A$lcc588842$62                     inventory_scene_init
     0000271B  A$lcc588842$63                     inventory_scene_init
ASxxxx Linker V03.00/V05.40 + sdld,  page 53.
Hexadecimal  [32-Bits]

Area                                    Addr        Size        Decimal Bytes (Attributes)
--------------------------------        ----        ----        ------- ----- ------------
_CODE                               00000200    00003123 =       12579. bytes (REL,CON)

      Value  Global                              Global Defined In Module
      -----  --------------------------------   ------------------------
     0000271E  A$lcc588842$64                     inventory_scene_init
     00002720  A$lcc588842$65                     inventory_scene_init
     00002721  A$lcc588842$66                     inventory_scene_init
     00002724  A$lcc588842$67                     inventory_scene_init
     00002725  A$lcc588842$68                     inventory_scene_init
     00002726  A$lcc588842$69                     inventory_scene_init
     00002727  A$lcc588842$70                     inventory_scene_init
     0000272A  A$lcc588842$71                     inventory_scene_init
     0000272B  A$lcc588842$72                     inventory_scene_init
     0000272D  A$lcc588842$73                     inventory_scene_init
     00002730  A$lcc588842$74                     inventory_scene_init
     00002731  A$lcc588842$75                     inventory_scene_init
     00002733  A$lcc588842$76                     inventory_scene_init
     00002735  A$lcc588842$77                     inventory_scene_init
     00002736  A$lcc588842$81                     inventory_scene_init
     00002736  C$inventory_scene_init.c$15$1_0$   inventory_scene_init
     00002739  A$lcc588842$82                     inventory_scene_init
     0000273B  A$lcc588842$83                     inventory_scene_init
     0000273C  A$lcc588842$84                     inventory_scene_init
     0000273D  A$lcc588842$85                     inventory_scene_init
     0000273E  A$lcc588842$86                     inventory_scene_init
     00002741  A$lcc588842$87                     inventory_scene_init
     00002742  A$lcc588842$88                     inventory_scene_init
     00002743  A$lcc588842$89                     inventory_scene_init
     00002746  A$lcc588842$90                     inventory_scene_init
     00002749  A$lcc588842$91                     inventory_scene_init
     0000274A  A$lcc588842$92                     inventory_scene_init
     0000274C  A$lcc588842$93                     inventory_scene_init
     0000274E  A$lcc588842$94                     inventory_scene_init
     0000274F  A$lcc588842$98                     inventory_scene_init
     0000274F  C$inventory_scene_init.c$16$1_0$   inventory_scene_init
     00002752  A$lcc588842$99                     inventory_scene_init
     00002754  A$lcc588842$100                    inventory_scene_init
     00002755  A$lcc588842$101                    inventory_scene_init
     00002756  A$lcc588842$102                    inventory_scene_init
     00002757  A$lcc588842$103                    inventory_scene_init
     0000275A  A$lcc588842$104                    inventory_scene_init
     0000275B  A$lcc588842$105                    inventory_scene_init
     0000275C  A$lcc588842$106                    inventory_scene_init
     0000275F  A$lcc588842$107                    inventory_scene_init
     00002762  A$lcc588842$108                    inventory_scene_init
     00002763  A$lcc588842$109                    inventory_scene_init
     00002765  A$lcc588842$110                    inventory_scene_init
     00002767  A$lcc588842$114                    inventory_scene_init
     00002767  C$inventory_scene_init.c$17$1_0$   inventory_scene_init
     00002768  A$lcc588842$115                    inventory_scene_init
     00002769  A$lcc588842$116                    inventory_scene_init
     0000276C  A$lcc588842$117                    inventory_scene_init
     0000276D  A$lcc588842$118                    inventory_scene_init
     0000276E  A$lcc588842$119                    inventory_scene_init
     0000276F  A$lcc588842$120                    inventory_scene_init
ASxxxx Linker V03.00/V05.40 + sdld,  page 54.
Hexadecimal  [32-Bits]

Area                                    Addr        Size        Decimal Bytes (Attributes)
--------------------------------        ----        ----        ------- ----- ------------
_CODE                               00000200    00003123 =       12579. bytes (REL,CON)

      Value  Global                              Global Defined In Module
      -----  --------------------------------   ------------------------
     00002772  A$lcc588842$121                    inventory_scene_init
     00002773  A$lcc588842$122                    inventory_scene_init
     00002775  A$lcc588842$123                    inventory_scene_init
     00002777  A$lcc588842$124                    inventory_scene_init
     00002778  A$lcc588842$128                    inventory_scene_init
     00002778  C$inventory_scene_init.c$19$1_0$   inventory_scene_init
     0000277A  A$lcc588842$129                    inventory_scene_init
     0000277B  A$lcc588842$130                    inventory_scene_init
     0000277E  A$lcc588842$131                    inventory_scene_init
     0000277F  A$lcc588842$132                    inventory_scene_init
     00002782  A$lcc588842$133                    inventory_scene_init
     00002783  A$lcc588842$134                    inventory_scene_init
     00002786  A$lcc588842$135                    inventory_scene_init
     00002788  A$lcc588842$139                    inventory_scene_init
     00002788  C$inventory_scene_init.c$20$1_0$   inventory_scene_init
     0000278A  A$lcc588842$140                    inventory_scene_init
     0000278B  A$lcc588842$141                    inventory_scene_init
     0000278E  A$lcc588842$142                    inventory_scene_init
     0000278F  A$lcc588842$143                    inventory_scene_init
     00002792  A$lcc588842$144                    inventory_scene_init
     00002793  A$lcc588842$145                    inventory_scene_init
     00002796  A$lcc588842$146                    inventory_scene_init
     00002798  A$lcc588842$150                    inventory_scene_init
     00002798  C$inventory_scene_init.c$21$1_0$   inventory_scene_init
     0000279A  A$lcc588842$151                    inventory_scene_init
     0000279B  A$lcc588842$152                    inventory_scene_init
     0000279E  A$lcc588842$153                    inventory_scene_init
     0000279F  A$lcc588842$154                    inventory_scene_init
     000027A2  A$lcc588842$155                    inventory_scene_init
     000027A3  A$lcc588842$156                    inventory_scene_init
     000027A6  A$lcc588842$157                    inventory_scene_init
     000027A8  A$lcc588842$161                    inventory_scene_init
     000027A8  C$inventory_scene_init.c$22$1_0$   inventory_scene_init
     000027AA  A$lcc588842$162                    inventory_scene_init
     000027AB  A$lcc588842$163                    inventory_scene_init
     000027AC  A$lcc588842$164                    inventory_scene_init
     000027AD  A$lcc588842$165                    inventory_scene_init
     000027B0  A$lcc588842$166                    inventory_scene_init
     000027B1  A$lcc588842$167                    inventory_scene_init
     000027B4  A$lcc588842$168                    inventory_scene_init
     000027B5  A$lcc588842$169                    inventory_scene_init
     000027B8  A$lcc588842$173                    inventory_scene_init
     000027BA  A$lcc588842$178                    inventory_scene_init
     000027BA  C$inventory_scene_init.c$23$1_0$   inventory_scene_init
     000027BA  XG$InventoryScene_DrawCoins$0$0    inventory_scene_init
     000027BB  A$lcc588842$188                    inventory_scene_init
     000027BB  C$inventory_scene_init.c$25$1_0$   inventory_scene_init
     000027BB  G$InventoryScene_Init$0$0          inventory_scene_init
     000027BB  _InventoryScene_Init               inventory_scene_init
     000027BC  A$lcc588842$192                    inventory_scene_init
     000027BC  C$inventory_scene_init.c$27$1_0$   inventory_scene_init
ASxxxx Linker V03.00/V05.40 + sdld,  page 55.
Hexadecimal  [32-Bits]

Area                                    Addr        Size        Decimal Bytes (Attributes)
--------------------------------        ----        ----        ------- ----- ------------
_CODE                               00000200    00003123 =       12579. bytes (REL,CON)

      Value  Global                              Global Defined In Module
      -----  --------------------------------   ------------------------
     000027BF  A$lcc588842$193                    inventory_scene_init
     000027C0  A$lcc588842$194                    inventory_scene_init
     000027C1  A$lcc588842$195                    inventory_scene_init
     000027C2  A$lcc588842$196                    inventory_scene_init
     000027C3  A$lcc588842$200                    inventory_scene_init
     000027C3  C$inventory_scene_init.c$28$1_0$   inventory_scene_init
     000027C6  A$lcc588842$204                    inventory_scene_init
     000027C6  C$inventory_scene_init.c$30$2_0$   inventory_scene_init
     000027C8  A$lcc588842$205                    inventory_scene_init
     000027CA  A$lcc588842$209                    inventory_scene_init
     000027CA  C$inventory_scene_init.c$32$1_1$   inventory_scene_init
     000027CD  A$lcc588842$210                    inventory_scene_init
     000027CE  A$lcc588842$211                    inventory_scene_init
     000027D1  A$lcc588842$212                    inventory_scene_init
     000027D2  A$lcc588842$213                    inventory_scene_init
     000027D5  A$lcc588842$214                    inventory_scene_init
     000027D7  A$lcc588842$218                    inventory_scene_init
     000027D7  C$inventory_scene_init.c$33$1_1$   inventory_scene_init
     000027DA  A$lcc588842$219                    inventory_scene_init
     000027DB  A$lcc588842$220                    inventory_scene_init
     000027DE  A$lcc588842$221                    inventory_scene_init
     000027DF  A$lcc588842$222                    inventory_scene_init
     000027E0  A$lcc588842$223                    inventory_scene_init
     000027E1  A$lcc588842$224                    inventory_scene_init
     000027E2  A$lcc588842$225                    inventory_scene_init
     000027E5  A$lcc588842$226                    inventory_scene_init
     000027E7  A$lcc588842$230                    inventory_scene_init
     000027E7  C$inventory_scene_init.c$35$1_1$   inventory_scene_init
     000027EA  A$lcc588842$231                    inventory_scene_init
     000027EB  A$lcc588842$232                    inventory_scene_init
     000027EE  A$lcc588842$233                    inventory_scene_init
     000027EF  A$lcc588842$234                    inventory_scene_init
     000027F2  A$lcc588842$235                    inventory_scene_init
     000027F4  A$lcc588842$239                    inventory_scene_init
     000027F4  C$inventory_scene_init.c$36$1_1$   inventory_scene_init
     000027F6  A$lcc588842$240                    inventory_scene_init
     000027F7  A$lcc588842$241                    inventory_scene_init
     000027FA  A$lcc588842$242                    inventory_scene_init
     000027FB  A$lcc588842$243                    inventory_scene_init
     000027FE  A$lcc588842$244                    inventory_scene_init
     000027FF  A$lcc588842$245                    inventory_scene_init
     00002802  A$lcc588842$246                    inventory_scene_init
     00002804  A$lcc588842$250                    inventory_scene_init
     00002804  C$inventory_scene_init.c$38$1_1$   inventory_scene_init
     00002807  A$lcc588842$254                    inventory_scene_init
     00002808  A$lcc588842$259                    inventory_scene_init
     00002808  C$inventory_scene_init.c$39$1_1$   inventory_scene_init
     00002808  XG$InventoryScene_Init$0$0         inventory_scene_init
     00002809  A$lcc588843$57                     inventory_scene_update
     00002809  C$inventory_scene_update.c$6$0_0   inventory_scene_update
     00002809  C$inventory_scene_update.c$7$1_0   inventory_scene_update
ASxxxx Linker V03.00/V05.40 + sdld,  page 56.
Hexadecimal  [32-Bits]

Area                                    Addr        Size        Decimal Bytes (Attributes)
--------------------------------        ----        ----        ------- ----- ------------
_CODE                               00000200    00003123 =       12579. bytes (REL,CON)

      Value  Global                              Global Defined In Module
      -----  --------------------------------   ------------------------
     00002809  G$InventoryScene_Update$0$0        inventory_scene_update
     00002809  _InventoryScene_Update             inventory_scene_update
     0000280C  A$lcc588843$58                     inventory_scene_update
     0000280F  A$lcc588843$69                     inventory_scene_update
     0000280F  C$inventory_scene_update.c$8$1_0   inventory_scene_update
     0000280F  C$inventory_scene_update.c$9$1_0   inventory_scene_update
     0000280F  XG$InventoryScene_Update$0$0       inventory_scene_update
     00002812  A$lcc588844$73                     main_menu
     00002812  C$main_menu.c$10$1_0$31            main_menu
     00002812  C$main_menu.c$9$0_0$31             main_menu
     00002812  G$MainMenu_Create$0$0              main_menu
     00002812  _MainMenu_Create                   main_menu
     00002815  A$lcc588844$74                     main_menu
     00002817  A$lcc588844$75                     main_menu
     00002818  A$lcc588844$76                     main_menu
     0000281A  A$lcc588844$80                     main_menu
     0000281A  C$main_menu.c$11$1_0$31            main_menu
     0000281B  A$lcc588844$81                     main_menu
     0000281D  A$lcc588844$82                     main_menu
     0000281E  A$lcc588844$83                     main_menu
     00002820  A$lcc588844$87                     main_menu
     00002820  C$main_menu.c$13$1_0$31            main_menu
     00002823  A$lcc588844$88                     main_menu
     00002824  A$lcc588844$89                     main_menu
     00002825  A$lcc588844$90                     main_menu
     00002826  A$lcc588844$98                     main_menu
     00002826  C$main_menu.c$14$1_0$31            main_menu
     00002826  XG$MainMenu_Create$0$0             main_menu
     00002827  A$lcc588845$57                     main_menu_init
     00002827  C$main_menu_init.c$7$0_0$163       main_menu_init
     00002827  C$main_menu_init.c$9$1_0$163       main_menu_init
     00002827  G$MainMenu_Init$0$0                main_menu_init
     00002827  _MainMenu_Init                     main_menu_init
     0000282A  A$lcc588845$58                     main_menu_init
     0000282B  A$lcc588845$59                     main_menu_init
     0000282C  A$lcc588845$60                     main_menu_init
     0000282D  A$lcc588845$61                     main_menu_init
     0000282E  A$lcc588845$65                     main_menu_init
     0000282E  C$main_menu_init.c$11$1_0$163      main_menu_init
     00002831  A$lcc588845$66                     main_menu_init
     00002832  A$lcc588845$67                     main_menu_init
     00002835  A$lcc588845$68                     main_menu_init
     00002836  A$lcc588845$69                     main_menu_init
     00002839  A$lcc588845$70                     main_menu_init
     0000283B  A$lcc588845$74                     main_menu_init
     0000283B  C$main_menu_init.c$12$1_0$163      main_menu_init
     0000283E  A$lcc588845$75                     main_menu_init
     0000283F  A$lcc588845$76                     main_menu_init
     00002842  A$lcc588845$77                     main_menu_init
     00002843  A$lcc588845$78                     main_menu_init
     00002844  A$lcc588845$79                     main_menu_init
ASxxxx Linker V03.00/V05.40 + sdld,  page 57.
Hexadecimal  [32-Bits]

Area                                    Addr        Size        Decimal Bytes (Attributes)
--------------------------------        ----        ----        ------- ----- ------------
_CODE                               00000200    00003123 =       12579. bytes (REL,CON)

      Value  Global                              Global Defined In Module
      -----  --------------------------------   ------------------------
     00002845  A$lcc588845$80                     main_menu_init
     00002846  A$lcc588845$81                     main_menu_init
     00002849  A$lcc588845$82                     main_menu_init
     0000284B  A$lcc588845$90                     main_menu_init
     0000284B  C$main_menu_init.c$13$1_0$163      main_menu_init
     0000284B  XG$MainMenu_Init$0$0               main_menu_init
     0000284C  A$lcc588846$56                     main_menu_input
     0000284C  C$main_menu_input.c$10$1_0$167     main_menu_input
     0000284C  C$main_menu_input.c$8$0_0$167      main_menu_input
     0000284C  G$MainMenu_CheckInput$0$0          main_menu_input
     0000284C  _MainMenu_CheckInput               main_menu_input
     0000284F  A$lcc588846$60                     main_menu_input
     0000284F  C$main_menu_input.c$12$2_0$168     main_menu_input
     00002852  A$lcc588846$61                     main_menu_input
     00002853  A$lcc588846$62                     main_menu_input
     00002855  A$lcc588846$63                     main_menu_input
     00002858  A$lcc588846$64                     main_menu_input
     00002859  A$lcc588846$65                     main_menu_input
     0000285B  A$lcc588846$69                     main_menu_input
     0000285B  C$main_menu_input.c$14$3_0$169     main_menu_input
     0000285E  A$lcc588846$70                     main_menu_input
     00002861  A$lcc588846$71                     main_menu_input
     00002862  A$lcc588846$72                     main_menu_input
     00002863  A$lcc588846$73                     main_menu_input
     00002864  A$lcc588846$74                     main_menu_input
     00002865  A$lcc588846$75                     main_menu_input
     00002866  A$lcc588846$76                     main_menu_input
     00002867  A$lcc588846$77                     main_menu_input
     00002868  A$lcc588846$78                     main_menu_input
     0000286B  A$lcc588846$79                     main_menu_input
     0000286D  A$lcc588846$80                     main_menu_input
     0000286E  A$lcc588846$81                     main_menu_input
     00002870  A$lcc588846$82                     main_menu_input
     00002871  A$lcc588846$83                     main_menu_input
     00002872  A$lcc588846$84                     main_menu_input
     00002875  A$lcc588846$89                     main_menu_input
     00002875  C$main_menu_input.c$17$1_0$167     main_menu_input
     00002878  A$lcc588846$90                     main_menu_input
     0000287B  A$lcc588846$98                     main_menu_input
     0000287B  C$main_menu_input.c$18$1_0$167     main_menu_input
     0000287B  XG$MainMenu_CheckInput$0$0         main_menu_input
     0000287C  A$lcc588847$55                     main_menu_update
     0000287C  C$main_menu_update.c$7$0_0$157     main_menu_update
     0000287C  G$MainMenu_Update$0$0              main_menu_update
     0000287C  _MainMenu_Update                   main_menu_update
     0000287E  A$lcc588847$59                     main_menu_update
     0000287E  C$main_menu_update.c$9$1_0$157     main_menu_update
     00002881  A$lcc588847$60                     main_menu_update
     00002882  A$lcc588847$61                     main_menu_update
     00002884  A$lcc588847$62                     main_menu_update
     00002885  A$lcc588847$63                     main_menu_update
ASxxxx Linker V03.00/V05.40 + sdld,  page 58.
Hexadecimal  [32-Bits]

Area                                    Addr        Size        Decimal Bytes (Attributes)
--------------------------------        ----        ----        ------- ----- ------------
_CODE                               00000200    00003123 =       12579. bytes (REL,CON)

      Value  Global                              Global Defined In Module
      -----  --------------------------------   ------------------------
     00002886  A$lcc588847$68                     main_menu_update
     00002886  C$main_menu_update.c$10$1_0$157    main_menu_update
     00002889  A$lcc588847$72                     main_menu_update
     00002889  C$main_menu_update.c$12$2_0$158    main_menu_update
     0000288C  A$lcc588847$73                     main_menu_update
     0000288D  A$lcc588847$74                     main_menu_update
     0000288F  A$lcc588847$75                     main_menu_update
     00002892  A$lcc588847$76                     main_menu_update
     00002893  A$lcc588847$77                     main_menu_update
     00002894  A$lcc588847$78                     main_menu_update
     00002895  A$lcc588847$79                     main_menu_update
     00002896  A$lcc588847$80                     main_menu_update
     00002899  A$lcc588847$84                     main_menu_update
     00002899  C$main_menu_update.c$14$3_0$159    main_menu_update
     0000289A  A$lcc588847$85                     main_menu_update
     0000289B  A$lcc588847$86                     main_menu_update
     0000289C  A$lcc588847$87                     main_menu_update
     0000289D  A$lcc588847$91                     main_menu_update
     0000289D  C$main_menu_update.c$16$4_0$160    main_menu_update
     000028A0  A$lcc588847$95                     main_menu_update
     000028A0  C$main_menu_update.c$18$5_0$161    main_menu_update
     000028A1  A$lcc588847$96                     main_menu_update
     000028A3  A$lcc588847$97                     main_menu_update
     000028A6  A$lcc588847$101                    main_menu_update
     000028A6  C$main_menu_update.c$20$6_0$163    main_menu_update
     000028A8  A$lcc588847$102                    main_menu_update
     000028AA  A$lcc588847$106                    main_menu_update
     000028AA  C$main_menu_update.c$21$2_0$157    main_menu_update
     000028AC  A$lcc588847$108                    main_menu_update
     000028AD  A$lcc588847$109                    main_menu_update
     000028AF  A$lcc588847$110                    main_menu_update
     000028B1  A$lcc588847$114                    main_menu_update
     000028B1  C$main_menu_update.c$23$7_1$164    main_menu_update
     000028B2  A$lcc588847$115                    main_menu_update
     000028B5  A$lcc588847$116                    main_menu_update
     000028B6  A$lcc588847$117                    main_menu_update
     000028B7  A$lcc588847$118                    main_menu_update
     000028BA  A$lcc588847$119                    main_menu_update
     000028BB  A$lcc588847$120                    main_menu_update
     000028BD  A$lcc588847$121                    main_menu_update
     000028BE  A$lcc588847$122                    main_menu_update
     000028BF  A$lcc588847$123                    main_menu_update
     000028C0  A$lcc588847$124                    main_menu_update
     000028C1  A$lcc588847$125                    main_menu_update
     000028C4  A$lcc588847$126                    main_menu_update
     000028C6  A$lcc588847$130                    main_menu_update
     000028C6  C$main_menu_update.c$21$6_1$163    main_menu_update
     000028C7  A$lcc588847$131                    main_menu_update
     000028C9  A$lcc588847$136                    main_menu_update
     000028C9  C$main_menu_update.c$28$5_0$165    main_menu_update
     000028CC  A$lcc588847$137                    main_menu_update
ASxxxx Linker V03.00/V05.40 + sdld,  page 59.
Hexadecimal  [32-Bits]

Area                                    Addr        Size        Decimal Bytes (Attributes)
--------------------------------        ----        ----        ------- ----- ------------
_CODE                               00000200    00003123 =       12579. bytes (REL,CON)

      Value  Global                              Global Defined In Module
      -----  --------------------------------   ------------------------
     000028CE  A$lcc588847$141                    main_menu_update
     000028CE  C$main_menu_update.c$30$6_0$167    main_menu_update
     000028D0  A$lcc588847$142                    main_menu_update
     000028D2  A$lcc588847$143                    main_menu_update
     000028D3  A$lcc588847$144                    main_menu_update
     000028D5  A$lcc588847$145                    main_menu_update
     000028D6  A$lcc588847$146                    main_menu_update
     000028D8  A$lcc588847$147                    main_menu_update
     000028D9  A$lcc588847$148                    main_menu_update
     000028DB  A$lcc588847$149                    main_menu_update
     000028DC  A$lcc588847$150                    main_menu_update
     000028DD  A$lcc588847$151                    main_menu_update
     000028DF  A$lcc588847$152                    main_menu_update
     000028E0  A$lcc588847$153                    main_menu_update
     000028E1  A$lcc588847$154                    main_menu_update
     000028E3  A$lcc588847$155                    main_menu_update
     000028E4  A$lcc588847$156                    main_menu_update
     000028E6  A$lcc588847$157                    main_menu_update
     000028E7  A$lcc588847$158                    main_menu_update
     000028E9  A$lcc588847$159                    main_menu_update
     000028EA  A$lcc588847$160                    main_menu_update
     000028EC  A$lcc588847$161                    main_menu_update
     000028ED  A$lcc588847$162                    main_menu_update
     000028EF  A$lcc588847$163                    main_menu_update
     000028F0  A$lcc588847$167                    main_menu_update
     000028F0  C$main_menu_update.c$33$2_0$157    main_menu_update
     000028F3  A$lcc588847$168                    main_menu_update
     000028F4  A$lcc588847$170                    main_menu_update
     000028F5  A$lcc588847$171                    main_menu_update
     000028F7  A$lcc588847$172                    main_menu_update
     000028F9  A$lcc588847$176                    main_menu_update
     000028F9  C$main_menu_update.c$35$7_1$168    main_menu_update
     000028FA  A$lcc588847$177                    main_menu_update
     000028FC  A$lcc588847$178                    main_menu_update
     000028FF  A$lcc588847$179                    main_menu_update
     00002900  A$lcc588847$180                    main_menu_update
     00002901  A$lcc588847$181                    main_menu_update
     00002902  A$lcc588847$182                    main_menu_update
     00002903  A$lcc588847$183                    main_menu_update
     00002906  A$lcc588847$184                    main_menu_update
     00002907  A$lcc588847$185                    main_menu_update
     00002908  A$lcc588847$186                    main_menu_update
     00002909  A$lcc588847$187                    main_menu_update
     0000290B  A$lcc588847$191                    main_menu_update
     0000290B  C$main_menu_update.c$36$7_1$168    main_menu_update
     0000290D  A$lcc588847$192                    main_menu_update
     0000290E  A$lcc588847$193                    main_menu_update
     0000290F  A$lcc588847$194                    main_menu_update
     00002912  A$lcc588847$195                    main_menu_update
     00002913  A$lcc588847$196                    main_menu_update
     00002915  A$lcc588847$197                    main_menu_update
ASxxxx Linker V03.00/V05.40 + sdld,  page 60.
Hexadecimal  [32-Bits]

Area                                    Addr        Size        Decimal Bytes (Attributes)
--------------------------------        ----        ----        ------- ----- ------------
_CODE                               00000200    00003123 =       12579. bytes (REL,CON)

      Value  Global                              Global Defined In Module
      -----  --------------------------------   ------------------------
     00002916  A$lcc588847$198                    main_menu_update
     00002917  A$lcc588847$199                    main_menu_update
     00002918  A$lcc588847$200                    main_menu_update
     00002919  A$lcc588847$201                    main_menu_update
     0000291C  A$lcc588847$202                    main_menu_update
     0000291E  A$lcc588847$206                    main_menu_update
     0000291E  C$main_menu_update.c$37$7_1$168    main_menu_update
     0000291F  A$lcc588847$210                    main_menu_update
     0000291F  C$main_menu_update.c$33$6_1$167    main_menu_update
     00002920  A$lcc588847$211                    main_menu_update
     00002922  A$lcc588847$216                    main_menu_update
     00002924  A$lcc588847$221                    main_menu_update
     00002924  C$main_menu_update.c$41$2_0$157    main_menu_update
     00002924  XG$MainMenu_Update$0$0             main_menu_update
     00002925  A$lcc588848$57                     clean_text
     00002925  C$clean_text.c$7$0_0$133           clean_text
     00002925  C$clean_text.c$9$1_0$133           clean_text
     00002925  G$clean$0$0                        clean_text
     00002925  _clean                             clean_text
     00002928  A$lcc588848$58                     clean_text
     0000292A  A$lcc588848$62                     clean_text
     0000292A  C$clean_text.c$11$2_0$133          clean_text
     0000292C  A$lcc588848$64                     clean_text
     0000292E  A$lcc588848$65                     clean_text
     0000292F  A$lcc588848$66                     clean_text
     00002931  A$lcc588848$70                     clean_text
     00002931  C$clean_text.c$13$3_0$135          clean_text
     00002934  A$lcc588848$71                     clean_text
     00002935  A$lcc588848$72                     clean_text
     00002936  A$lcc588848$73                     clean_text
     00002937  A$lcc588848$74                     clean_text
     0000293A  A$lcc588848$75                     clean_text
     0000293B  A$lcc588848$76                     clean_text
     0000293D  A$lcc588848$77                     clean_text
     0000293E  A$lcc588848$78                     clean_text
     0000293F  A$lcc588848$79                     clean_text
     00002940  A$lcc588848$80                     clean_text
     00002941  A$lcc588848$81                     clean_text
     00002944  A$lcc588848$82                     clean_text
     00002946  A$lcc588848$86                     clean_text
     00002946  C$clean_text.c$14$3_0$135          clean_text
     00002949  A$lcc588848$87                     clean_text
     0000294A  A$lcc588848$88                     clean_text
     0000294C  A$lcc588848$89                     clean_text
     0000294D  A$lcc588848$90                     clean_text
     0000294E  A$lcc588848$91                     clean_text
     0000294F  A$lcc588848$92                     clean_text
     00002950  A$lcc588848$93                     clean_text
     00002953  A$lcc588848$94                     clean_text
     00002955  A$lcc588848$98                     clean_text
     00002955  C$clean_text.c$11$2_0$134          clean_text
ASxxxx Linker V03.00/V05.40 + sdld,  page 61.
Hexadecimal  [32-Bits]

Area                                    Addr        Size        Decimal Bytes (Attributes)
--------------------------------        ----        ----        ------- ----- ------------
_CODE                               00000200    00003123 =       12579. bytes (REL,CON)

      Value  Global                              Global Defined In Module
      -----  --------------------------------   ------------------------
     00002956  A$lcc588848$99                     clean_text
     00002958  A$lcc588848$104                    clean_text
     00002958  C$clean_text.c$17$2_0$133          clean_text
     0000295A  A$lcc588848$109                    clean_text
     0000295A  C$clean_text.c$18$3_0$137          clean_text
     0000295B  A$lcc588848$110                    clean_text
     0000295D  A$lcc588848$111                    clean_text
     0000295E  A$lcc588848$112                    clean_text
     00002961  A$lcc588848$113                    clean_text
     00002962  A$lcc588848$114                    clean_text
     00002964  A$lcc588848$115                    clean_text
     00002965  A$lcc588848$116                    clean_text
     00002966  A$lcc588848$117                    clean_text
     00002968  A$lcc588848$118                    clean_text
     00002969  A$lcc588848$119                    clean_text
     0000296A  A$lcc588848$120                    clean_text
     0000296C  A$lcc588848$121                    clean_text
     0000296D  A$lcc588848$122                    clean_text
     0000296E  A$lcc588848$123                    clean_text
     0000296F  A$lcc588848$124                    clean_text
     00002970  A$lcc588848$125                    clean_text
     00002973  A$lcc588848$126                    clean_text
     00002975  A$lcc588848$130                    clean_text
     00002975  C$clean_text.c$17$2_0$136          clean_text
     00002976  A$lcc588848$138                    clean_text
     00002976  C$clean_text.c$20$2_0$133          clean_text
     00002976  XG$clean$0$0                       clean_text
     00002978  G$empty_tile$0_0$0                 clean_text
     00002978  _empty_tile                        clean_text
     00002979  A$lcc588849$53                     map_collision
     00002979  C$map_collision.c$12$0_0$135       map_collision
     00002979  Fmap_collision$get_tile$0$0        map_collision
     0000297B  A$lcc588849$54                     map_collision
     0000297D  A$lcc588849$55                     map_collision
     0000297E  A$lcc588849$56                     map_collision
     0000297F  A$lcc588849$57                     map_collision
     00002980  A$lcc588849$61                     map_collision
     00002980  C$map_collision.c$14$1_0$135       map_collision
     00002983  A$lcc588849$62                     map_collision
     00002984  A$lcc588849$63                     map_collision
     00002985  A$lcc588849$64                     map_collision
     00002986  A$lcc588849$65                     map_collision
     00002987  A$lcc588849$66                     map_collision
     00002989  A$lcc588849$67                     map_collision
     0000298A  A$lcc588849$68                     map_collision
     0000298B  A$lcc588849$69                     map_collision
     0000298C  A$lcc588849$70                     map_collision
     0000298D  A$lcc588849$71                     map_collision
     0000298F  A$lcc588849$72                     map_collision
     00002990  A$lcc588849$73                     map_collision
     00002991  A$lcc588849$74                     map_collision
ASxxxx Linker V03.00/V05.40 + sdld,  page 62.
Hexadecimal  [32-Bits]

Area                                    Addr        Size        Decimal Bytes (Attributes)
--------------------------------        ----        ----        ------- ----- ------------
_CODE                               00000200    00003123 =       12579. bytes (REL,CON)

      Value  Global                              Global Defined In Module
      -----  --------------------------------   ------------------------
     00002992  A$lcc588849$75                     map_collision
     00002993  A$lcc588849$76                     map_collision
     00002994  A$lcc588849$77                     map_collision
     00002995  A$lcc588849$78                     map_collision
     00002996  A$lcc588849$79                     map_collision
     00002997  A$lcc588849$80                     map_collision
     00002998  A$lcc588849$81                     map_collision
     00002999  A$lcc588849$82                     map_collision
     0000299A  A$lcc588849$83                     map_collision
     0000299B  A$lcc588849$84                     map_collision
     0000299D  A$lcc588849$85                     map_collision
     0000299E  A$lcc588849$86                     map_collision
     0000299F  A$lcc588849$87                     map_collision
     000029A0  A$lcc588849$88                     map_collision
     000029A1  A$lcc588849$89                     map_collision
     000029A2  A$lcc588849$90                     map_collision
     000029A3  A$lcc588849$91                     map_collision
     000029A4  A$lcc588849$92                     map_collision
     000029A5  A$lcc588849$93                     map_collision
     000029A6  A$lcc588849$94                     map_collision
     000029A7  A$lcc588849$95                     map_collision
     000029A8  A$lcc588849$96                     map_collision
     000029A9  A$lcc588849$97                     map_collision
     000029AA  A$lcc588849$98                     map_collision
     000029AB  A$lcc588849$99                     map_collision
     000029AC  A$lcc588849$100                    map_collision
     000029AD  A$lcc588849$101                    map_collision
     000029AE  A$lcc588849$105                    map_collision
     000029AE  C$map_collision.c$15$1_0$135       map_collision
     000029B0  A$lcc588849$106                    map_collision
     000029B1  A$lcc588849$107                    map_collision
     000029B2  A$lcc588849$108                    map_collision
     000029B3  A$lcc588849$118                    map_collision
     000029B3  C$map_collision.c$18$1_0$137       map_collision
     000029B3  G$Map_Collision$0$0                map_collision
     000029B3  _Map_Collision                     map_collision
     000029B5  A$lcc588849$122                    map_collision
     000029B5  C$map_collision.c$20$1_0$137       map_collision
     000029B8  A$lcc588849$123                    map_collision
     000029B9  A$lcc588849$124                    map_collision
     000029BA  A$lcc588849$125                    map_collision
     000029BB  A$lcc588849$126                    map_collision
     000029BD  A$lcc588849$127                    map_collision
     000029BE  A$lcc588849$128                    map_collision
     000029BF  A$lcc588849$132                    map_collision
     000029BF  C$map_collision.c$21$1_0$137       map_collision
     000029C0  A$lcc588849$133                    map_collision
     000029C1  A$lcc588849$134                    map_collision
     000029C2  A$lcc588849$135                    map_collision
     000029C3  A$lcc588849$136                    map_collision
     000029C4  A$lcc588849$137                    map_collision
ASxxxx Linker V03.00/V05.40 + sdld,  page 63.
Hexadecimal  [32-Bits]

Area                                    Addr        Size        Decimal Bytes (Attributes)
--------------------------------        ----        ----        ------- ----- ------------
_CODE                               00000200    00003123 =       12579. bytes (REL,CON)

      Value  Global                              Global Defined In Module
      -----  --------------------------------   ------------------------
     000029C5  A$lcc588849$141                    map_collision
     000029C5  C$map_collision.c$29$1_0$137       map_collision
     000029C8  A$lcc588849$142                    map_collision
     000029CA  A$lcc588849$143                    map_collision
     000029CB  A$lcc588849$144                    map_collision
     000029CC  A$lcc588849$145                    map_collision
     000029CE  A$lcc588849$146                    map_collision
     000029CF  A$lcc588849$147                    map_collision
     000029D1  A$lcc588849$148                    map_collision
     000029D3  A$lcc588849$149                    map_collision
     000029D4  A$lcc588849$153                    map_collision
     000029D4  C$map_collision.c$30$1_0$137       map_collision
     000029D7  A$lcc588849$154                    map_collision
     000029D9  A$lcc588849$155                    map_collision
     000029DA  A$lcc588849$156                    map_collision
     000029DB  A$lcc588849$157                    map_collision
     000029DD  A$lcc588849$158                    map_collision
     000029DE  A$lcc588849$159                    map_collision
     000029E0  A$lcc588849$160                    map_collision
     000029E1  A$lcc588849$164                    map_collision
     000029E1  C$map_collision.c$35$1_0$137       map_collision
     000029E2  A$lcc588849$165                    map_collision
     000029E3  A$lcc588849$166                    map_collision
     000029E6  A$lcc588849$167                    map_collision
     000029E7  A$lcc588849$168                    map_collision
     000029E8  A$lcc588849$169                    map_collision
     000029E9  A$lcc588849$170                    map_collision
     000029EB  A$lcc588849$171                    map_collision
     000029EC  A$lcc588849$172                    map_collision
     000029ED  A$lcc588849$173                    map_collision
     000029EE  A$lcc588849$174                    map_collision
     000029F0  A$lcc588849$175                    map_collision
     000029F1  A$lcc588849$176                    map_collision
     000029F2  A$lcc588849$177                    map_collision
     000029F3  A$lcc588849$178                    map_collision
     000029F4  A$lcc588849$179                    map_collision
     000029F5  A$lcc588849$180                    map_collision
     000029F7  A$lcc588849$181                    map_collision
     000029F8  A$lcc588849$182                    map_collision
     000029F9  A$lcc588849$183                    map_collision
     000029FA  A$lcc588849$184                    map_collision
     000029FB  A$lcc588849$185                    map_collision
     000029FD  A$lcc588849$186                    map_collision
     000029FE  A$lcc588849$187                    map_collision
     000029FF  A$lcc588849$188                    map_collision
     00002A00  A$lcc588849$189                    map_collision
     00002A01  A$lcc588849$190                    map_collision
     00002A02  A$lcc588849$191                    map_collision
     00002A03  A$lcc588849$192                    map_collision
     00002A04  A$lcc588849$193                    map_collision
     00002A05  A$lcc588849$194                    map_collision
ASxxxx Linker V03.00/V05.40 + sdld,  page 64.
Hexadecimal  [32-Bits]

Area                                    Addr        Size        Decimal Bytes (Attributes)
--------------------------------        ----        ----        ------- ----- ------------
_CODE                               00000200    00003123 =       12579. bytes (REL,CON)

      Value  Global                              Global Defined In Module
      -----  --------------------------------   ------------------------
     00002A06  A$lcc588849$195                    map_collision
     00002A08  A$lcc588849$196                    map_collision
     00002A09  A$lcc588849$197                    map_collision
     00002A0A  A$lcc588849$198                    map_collision
     00002A0B  A$lcc588849$199                    map_collision
     00002A0D  A$lcc588849$200                    map_collision
     00002A0E  A$lcc588849$201                    map_collision
     00002A0F  A$lcc588849$202                    map_collision
     00002A10  A$lcc588849$203                    map_collision
     00002A11  A$lcc588849$204                    map_collision
     00002A13  A$lcc588849$205                    map_collision
     00002A14  A$lcc588849$206                    map_collision
     00002A15  A$lcc588849$207                    map_collision
     00002A16  A$lcc588849$208                    map_collision
     00002A17  A$lcc588849$209                    map_collision
     00002A18  A$lcc588849$210                    map_collision
     00002A19  A$lcc588849$211                    map_collision
     00002A1B  A$lcc588849$212                    map_collision
     00002A1C  A$lcc588849$213                    map_collision
     00002A1D  A$lcc588849$214                    map_collision
     00002A1E  A$lcc588849$215                    map_collision
     00002A20  A$lcc588849$216                    map_collision
     00002A21  A$lcc588849$217                    map_collision
     00002A22  A$lcc588849$218                    map_collision
     00002A23  A$lcc588849$219                    map_collision
     00002A25  A$lcc588849$220                    map_collision
     00002A27  A$lcc588849$221                    map_collision
     00002A28  A$lcc588849$223                    map_collision
     00002A2A  A$lcc588849$224                    map_collision
     00002A2D  A$lcc588849$228                    map_collision
     00002A2D  C$map_collision.c$36$1_0$137       map_collision
     00002A2F  A$lcc588849$229                    map_collision
     00002A30  A$lcc588849$230                    map_collision
     00002A31  A$lcc588849$231                    map_collision
     00002A32  A$lcc588849$232                    map_collision
     00002A33  A$lcc588849$233                    map_collision
     00002A35  A$lcc588849$234                    map_collision
     00002A36  A$lcc588849$235                    map_collision
     00002A37  A$lcc588849$236                    map_collision
     00002A38  A$lcc588849$237                    map_collision
     00002A39  A$lcc588849$238                    map_collision
     00002A3A  A$lcc588849$239                    map_collision
     00002A3B  A$lcc588849$240                    map_collision
     00002A3C  A$lcc588849$241                    map_collision
     00002A3E  A$lcc588849$242                    map_collision
     00002A3F  A$lcc588849$243                    map_collision
     00002A40  A$lcc588849$244                    map_collision
     00002A41  A$lcc588849$245                    map_collision
     00002A42  A$lcc588849$246                    map_collision
     00002A43  A$lcc588849$247                    map_collision
     00002A44  A$lcc588849$248                    map_collision
ASxxxx Linker V03.00/V05.40 + sdld,  page 65.
Hexadecimal  [32-Bits]

Area                                    Addr        Size        Decimal Bytes (Attributes)
--------------------------------        ----        ----        ------- ----- ------------
_CODE                               00000200    00003123 =       12579. bytes (REL,CON)

      Value  Global                              Global Defined In Module
      -----  --------------------------------   ------------------------
     00002A45  A$lcc588849$249                    map_collision
     00002A46  A$lcc588849$250                    map_collision
     00002A48  A$lcc588849$251                    map_collision
     00002A49  A$lcc588849$252                    map_collision
     00002A4A  A$lcc588849$253                    map_collision
     00002A4B  A$lcc588849$254                    map_collision
     00002A4D  A$lcc588849$255                    map_collision
     00002A4F  A$lcc588849$256                    map_collision
     00002A50  A$lcc588849$258                    map_collision
     00002A52  A$lcc588849$259                    map_collision
     00002A55  A$lcc588849$263                    map_collision
     00002A55  C$map_collision.c$37$1_0$137       map_collision
     00002A57  A$lcc588849$264                    map_collision
     00002A58  A$lcc588849$265                    map_collision
     00002A59  A$lcc588849$266                    map_collision
     00002A5A  A$lcc588849$267                    map_collision
     00002A5B  A$lcc588849$268                    map_collision
     00002A5D  A$lcc588849$269                    map_collision
     00002A5E  A$lcc588849$270                    map_collision
     00002A5F  A$lcc588849$271                    map_collision
     00002A60  A$lcc588849$272                    map_collision
     00002A61  A$lcc588849$273                    map_collision
     00002A62  A$lcc588849$274                    map_collision
     00002A63  A$lcc588849$275                    map_collision
     00002A64  A$lcc588849$276                    map_collision
     00002A65  A$lcc588849$277                    map_collision
     00002A66  A$lcc588849$278                    map_collision
     00002A67  A$lcc588849$279                    map_collision
     00002A68  A$lcc588849$280                    map_collision
     00002A69  A$lcc588849$281                    map_collision
     00002A6A  A$lcc588849$282                    map_collision
     00002A6B  A$lcc588849$283                    map_collision
     00002A6C  A$lcc588849$284                    map_collision
     00002A6D  A$lcc588849$285                    map_collision
     00002A6E  A$lcc588849$286                    map_collision
     00002A6F  A$lcc588849$287                    map_collision
     00002A70  A$lcc588849$288                    map_collision
     00002A71  A$lcc588849$289                    map_collision
     00002A72  A$lcc588849$290                    map_collision
     00002A74  A$lcc588849$291                    map_collision
     00002A75  A$lcc588849$292                    map_collision
     00002A76  A$lcc588849$293                    map_collision
     00002A77  A$lcc588849$294                    map_collision
     00002A78  A$lcc588849$295                    map_collision
     00002A79  A$lcc588849$296                    map_collision
     00002A7A  A$lcc588849$297                    map_collision
     00002A7C  A$lcc588849$298                    map_collision
     00002A7D  A$lcc588849$299                    map_collision
     00002A7F  A$lcc588849$300                    map_collision
     00002A80  A$lcc588849$301                    map_collision
     00002A81  A$lcc588849$302                    map_collision
ASxxxx Linker V03.00/V05.40 + sdld,  page 66.
Hexadecimal  [32-Bits]

Area                                    Addr        Size        Decimal Bytes (Attributes)
--------------------------------        ----        ----        ------- ----- ------------
_CODE                               00000200    00003123 =       12579. bytes (REL,CON)

      Value  Global                              Global Defined In Module
      -----  --------------------------------   ------------------------
     00002A82  A$lcc588849$303                    map_collision
     00002A83  A$lcc588849$304                    map_collision
     00002A84  A$lcc588849$305                    map_collision
     00002A86  A$lcc588849$306                    map_collision
     00002A88  A$lcc588849$307                    map_collision
     00002A89  A$lcc588849$309                    map_collision
     00002A8B  A$lcc588849$310                    map_collision
     00002A8E  A$lcc588849$314                    map_collision
     00002A8E  C$map_collision.c$38$1_0$137       map_collision
     00002A90  A$lcc588849$315                    map_collision
     00002A91  A$lcc588849$316                    map_collision
     00002A92  A$lcc588849$317                    map_collision
     00002A93  A$lcc588849$318                    map_collision
     00002A94  A$lcc588849$319                    map_collision
     00002A95  A$lcc588849$320                    map_collision
     00002A96  A$lcc588849$321                    map_collision
     00002A97  A$lcc588849$322                    map_collision
     00002A98  A$lcc588849$323                    map_collision
     00002A9A  A$lcc588849$324                    map_collision
     00002A9B  A$lcc588849$325                    map_collision
     00002A9D  A$lcc588849$326                    map_collision
     00002A9E  A$lcc588849$327                    map_collision
     00002A9F  A$lcc588849$328                    map_collision
     00002AA0  A$lcc588849$329                    map_collision
     00002AA1  A$lcc588849$330                    map_collision
     00002AA2  A$lcc588849$331                    map_collision
     00002AA3  A$lcc588849$332                    map_collision
     00002AA4  A$lcc588849$333                    map_collision
     00002AA5  A$lcc588849$334                    map_collision
     00002AA6  A$lcc588849$335                    map_collision
     00002AA7  A$lcc588849$336                    map_collision
     00002AA8  A$lcc588849$337                    map_collision
     00002AA9  A$lcc588849$338                    map_collision
     00002AAB  A$lcc588849$339                    map_collision
     00002AAC  A$lcc588849$340                    map_collision
     00002AAE  A$lcc588849$341                    map_collision
     00002AAF  A$lcc588849$342                    map_collision
     00002AB0  A$lcc588849$343                    map_collision
     00002AB1  A$lcc588849$344                    map_collision
     00002AB2  A$lcc588849$345                    map_collision
     00002AB3  A$lcc588849$346                    map_collision
     00002AB5  A$lcc588849$347                    map_collision
     00002AB7  A$lcc588849$348                    map_collision
     00002AB8  A$lcc588849$350                    map_collision
     00002ABA  A$lcc588849$351                    map_collision
     00002ABD  A$lcc588849$355                    map_collision
     00002ABD  C$map_collision.c$44$2_0$138       map_collision
     00002ABF  A$lcc588849$356                    map_collision
     00002AC0  A$lcc588849$357                    map_collision
     00002AC1  A$lcc588849$358                    map_collision
     00002AC2  A$lcc588849$359                    map_collision
ASxxxx Linker V03.00/V05.40 + sdld,  page 67.
Hexadecimal  [32-Bits]

Area                                    Addr        Size        Decimal Bytes (Attributes)
--------------------------------        ----        ----        ------- ----- ------------
_CODE                               00000200    00003123 =       12579. bytes (REL,CON)

      Value  Global                              Global Defined In Module
      -----  --------------------------------   ------------------------
     00002AC3  A$lcc588849$360                    map_collision
     00002AC4  A$lcc588849$361                    map_collision
     00002AC5  A$lcc588849$362                    map_collision
     00002AC6  A$lcc588849$363                    map_collision
     00002AC7  A$lcc588849$364                    map_collision
     00002AC8  A$lcc588849$365                    map_collision
     00002AC9  A$lcc588849$366                    map_collision
     00002ACA  A$lcc588849$367                    map_collision
     00002ACB  A$lcc588849$368                    map_collision
     00002ACC  A$lcc588849$369                    map_collision
     00002ACD  A$lcc588849$370                    map_collision
     00002ACE  A$lcc588849$371                    map_collision
     00002AD0  A$lcc588849$372                    map_collision
     00002AD1  A$lcc588849$373                    map_collision
     00002AD3  A$lcc588849$374                    map_collision
     00002AD4  A$lcc588849$375                    map_collision
     00002AD5  A$lcc588849$376                    map_collision
     00002AD6  A$lcc588849$377                    map_collision
     00002AD7  A$lcc588849$378                    map_collision
     00002AD8  A$lcc588849$379                    map_collision
     00002ADA  A$lcc588849$380                    map_collision
     00002ADC  A$lcc588849$381                    map_collision
     00002ADD  A$lcc588849$383                    map_collision
     00002ADE  A$lcc588849$384                    map_collision
     00002AE1  A$lcc588849$385                    map_collision
     00002AE2  A$lcc588849$386                    map_collision
     00002AE4  A$lcc588849$387                    map_collision
     00002AE6  A$lcc588849$388                    map_collision
     00002AE7  A$lcc588849$390                    map_collision
     00002AE8  A$lcc588849$391                    map_collision
     00002AEA  A$lcc588849$395                    map_collision
     00002AEA  C$map_collision.c$46$3_0$139       map_collision
     00002AED  A$lcc588849$400                    map_collision
     00002AED  C$map_collision.c$49$2_0$140       map_collision
     00002AEF  A$lcc588849$401                    map_collision
     00002AF0  A$lcc588849$402                    map_collision
     00002AF1  A$lcc588849$403                    map_collision
     00002AF2  A$lcc588849$404                    map_collision
     00002AF3  A$lcc588849$405                    map_collision
     00002AF4  A$lcc588849$406                    map_collision
     00002AF5  A$lcc588849$407                    map_collision
     00002AF6  A$lcc588849$408                    map_collision
     00002AF7  A$lcc588849$409                    map_collision
     00002AF8  A$lcc588849$410                    map_collision
     00002AF9  A$lcc588849$411                    map_collision
     00002AFA  A$lcc588849$412                    map_collision
     00002AFB  A$lcc588849$413                    map_collision
     00002AFC  A$lcc588849$414                    map_collision
     00002AFD  A$lcc588849$415                    map_collision
     00002AFE  A$lcc588849$416                    map_collision
     00002B00  A$lcc588849$417                    map_collision
ASxxxx Linker V03.00/V05.40 + sdld,  page 68.
Hexadecimal  [32-Bits]

Area                                    Addr        Size        Decimal Bytes (Attributes)
--------------------------------        ----        ----        ------- ----- ------------
_CODE                               00000200    00003123 =       12579. bytes (REL,CON)

      Value  Global                              Global Defined In Module
      -----  --------------------------------   ------------------------
     00002B01  A$lcc588849$418                    map_collision
     00002B03  A$lcc588849$419                    map_collision
     00002B04  A$lcc588849$420                    map_collision
     00002B05  A$lcc588849$421                    map_collision
     00002B06  A$lcc588849$422                    map_collision
     00002B07  A$lcc588849$423                    map_collision
     00002B08  A$lcc588849$424                    map_collision
     00002B0A  A$lcc588849$431                    map_collision
     00002B0A  C$map_collision.c$51$3_0$141       map_collision
     00002B0A  C$map_collision.c$52$3_0$141       map_collision
     00002B0B  A$lcc588849$432                    map_collision
     00002B0C  A$lcc588849$433                    map_collision
     00002B0D  A$lcc588849$437                    map_collision
     00002B0D  C$map_collision.c$54$4_0$142       map_collision
     00002B0E  A$lcc588849$438                    map_collision
     00002B0F  A$lcc588849$439                    map_collision
     00002B12  A$lcc588849$440                    map_collision
     00002B13  A$lcc588849$441                    map_collision
     00002B14  A$lcc588849$442                    map_collision
     00002B15  A$lcc588849$443                    map_collision
     00002B16  A$lcc588849$444                    map_collision
     00002B17  A$lcc588849$445                    map_collision
     00002B18  A$lcc588849$446                    map_collision
     00002B19  A$lcc588849$447                    map_collision
     00002B1B  A$lcc588849$448                    map_collision
     00002B1D  A$lcc588849$452                    map_collision
     00002B1D  C$map_collision.c$55$4_0$142       map_collision
     00002B1F  A$lcc588849$456                    map_collision
     00002B1F  C$map_collision.c$57$4_0$143       map_collision
     00002B20  A$lcc588849$457                    map_collision
     00002B21  A$lcc588849$458                    map_collision
     00002B24  A$lcc588849$459                    map_collision
     00002B25  A$lcc588849$460                    map_collision
     00002B26  A$lcc588849$461                    map_collision
     00002B27  A$lcc588849$462                    map_collision
     00002B28  A$lcc588849$463                    map_collision
     00002B29  A$lcc588849$464                    map_collision
     00002B2A  A$lcc588849$465                    map_collision
     00002B2C  A$lcc588849$466                    map_collision
     00002B2D  A$lcc588849$467                    map_collision
     00002B2E  A$lcc588849$468                    map_collision
     00002B2F  A$lcc588849$469                    map_collision
     00002B30  A$lcc588849$470                    map_collision
     00002B31  A$lcc588849$471                    map_collision
     00002B32  A$lcc588849$475                    map_collision
     00002B32  C$map_collision.c$58$4_0$143       map_collision
     00002B34  A$lcc588849$479                    map_collision
     00002B34  C$map_collision.c$60$3_0$141       map_collision
     00002B35  A$lcc588849$480                    map_collision
     00002B36  A$lcc588849$481                    map_collision
     00002B39  A$lcc588849$486                    map_collision
ASxxxx Linker V03.00/V05.40 + sdld,  page 69.
Hexadecimal  [32-Bits]

Area                                    Addr        Size        Decimal Bytes (Attributes)
--------------------------------        ----        ----        ------- ----- ------------
_CODE                               00000200    00003123 =       12579. bytes (REL,CON)

      Value  Global                              Global Defined In Module
      -----  --------------------------------   ------------------------
     00002B3B  A$lcc588849$491                    map_collision
     00002B3B  C$map_collision.c$62$2_0$137       map_collision
     00002B3B  XG$Map_Collision$0$0               map_collision
     00002B3C  A$lcc588851$61                     map_00
     00002B3C  C$map_00.c$6$0_0$32                map_00
     00002B3C  C$map_00.c$7$1_0$32                map_00
     00002B3C  G$Map_00_Create$0$0                map_00
     00002B3C  _Map_00_Create                     map_00
     00002B3F  A$lcc588851$62                     map_00
     00002B41  A$lcc588851$63                     map_00
     00002B42  A$lcc588851$64                     map_00
     00002B44  A$lcc588851$68                     map_00
     00002B44  C$map_00.c$8$1_0$32                map_00
     00002B45  A$lcc588851$69                     map_00
     00002B47  A$lcc588851$70                     map_00
     00002B48  A$lcc588851$71                     map_00
     00002B4A  A$lcc588851$75                     map_00
     00002B4A  C$map_00.c$10$1_0$32               map_00
     00002B4D  A$lcc588851$76                     map_00
     00002B4E  A$lcc588851$77                     map_00
     00002B4F  A$lcc588851$78                     map_00
     00002B50  A$lcc588851$86                     map_00
     00002B50  C$map_00.c$11$1_0$32               map_00
     00002B50  XG$Map_00_Create$0$0               map_00
     00002B51  G$map_00_example_collision$0_0$0   map_00_collision
     00002B51  _map_00_example_collision          map_00_collision
     00002CB9  A$lcc588853$57                     map_00_init
     00002CB9  C$map_00_init.c$16$0_0$164         map_00_init
     00002CB9  G$hello_event$0$0                  map_00_init
     00002CB9  _hello_event                       map_00_init
     00002CBB  A$lcc588853$61                     map_00_init
     00002CBB  C$map_00_init.c$18$2_0$165         map_00_init
     00002CBE  A$lcc588853$62                     map_00_init
     00002CBF  A$lcc588853$63                     map_00_init
     00002CC2  A$lcc588853$70                     map_00_init
     00002CC2  C$map_00_init.c$19$2_0$165         map_00_init
     00002CC2  C$map_00_init.c$21$1_0$164         map_00_init
     00002CC5  A$lcc588853$71                     map_00_init
     00002CC7  A$lcc588853$75                     map_00_init
     00002CC7  C$map_00_init.c$22$2_0$166         map_00_init
     00002CC9  A$lcc588853$76                     map_00_init
     00002CCB  A$lcc588853$77                     map_00_init
     00002CCC  A$lcc588853$78                     map_00_init
     00002CCE  A$lcc588853$79                     map_00_init
     00002CCF  A$lcc588853$80                     map_00_init
     00002CD1  A$lcc588853$81                     map_00_init
     00002CD2  A$lcc588853$82                     map_00_init
     00002CD3  A$lcc588853$83                     map_00_init
     00002CD5  A$lcc588853$84                     map_00_init
     00002CD6  A$lcc588853$85                     map_00_init
     00002CD8  A$lcc588853$86                     map_00_init
ASxxxx Linker V03.00/V05.40 + sdld,  page 70.
Hexadecimal  [32-Bits]

Area                                    Addr        Size        Decimal Bytes (Attributes)
--------------------------------        ----        ----        ------- ----- ------------
_CODE                               00000200    00003123 =       12579. bytes (REL,CON)

      Value  Global                              Global Defined In Module
      -----  --------------------------------   ------------------------
     00002CD9  A$lcc588853$87                     map_00_init
     00002CDB  A$lcc588853$88                     map_00_init
     00002CDC  A$lcc588853$89                     map_00_init
     00002CDE  A$lcc588853$90                     map_00_init
     00002CDF  A$lcc588853$91                     map_00_init
     00002CE1  A$lcc588853$92                     map_00_init
     00002CE2  A$lcc588853$93                     map_00_init
     00002CE4  A$lcc588853$94                     map_00_init
     00002CE5  A$lcc588853$95                     map_00_init
     00002CE7  A$lcc588853$96                     map_00_init
     00002CE8  A$lcc588853$97                     map_00_init
     00002CEA  A$lcc588853$98                     map_00_init
     00002CEB  A$lcc588853$99                     map_00_init
     00002CED  A$lcc588853$100                    map_00_init
     00002CEE  A$lcc588853$104                    map_00_init
     00002CEE  C$map_00_init.c$23$2_1$164         map_00_init
     00002CF1  A$lcc588853$105                    map_00_init
     00002CF2  A$lcc588853$107                    map_00_init
     00002CF5  A$lcc588853$108                    map_00_init
     00002CF6  A$lcc588853$109                    map_00_init
     00002CF7  A$lcc588853$110                    map_00_init
     00002CF8  A$lcc588853$111                    map_00_init
     00002CF9  A$lcc588853$112                    map_00_init
     00002CFB  A$lcc588853$116                    map_00_init
     00002CFB  C$map_00_init.c$25$3_1$168         map_00_init
     00002CFC  A$lcc588853$117                    map_00_init
     00002CFF  A$lcc588853$118                    map_00_init
     00002D00  A$lcc588853$119                    map_00_init
     00002D01  A$lcc588853$120                    map_00_init
     00002D02  A$lcc588853$121                    map_00_init
     00002D04  A$lcc588853$125                    map_00_init
     00002D04  C$map_00_init.c$26$3_1$168         map_00_init
     00002D06  A$lcc588853$126                    map_00_init
     00002D07  A$lcc588853$127                    map_00_init
     00002D08  A$lcc588853$128                    map_00_init
     00002D09  A$lcc588853$129                    map_00_init
     00002D0A  A$lcc588853$130                    map_00_init
     00002D0B  A$lcc588853$131                    map_00_init
     00002D0C  A$lcc588853$132                    map_00_init
     00002D0E  A$lcc588853$133                    map_00_init
     00002D0F  A$lcc588853$134                    map_00_init
     00002D10  A$lcc588853$135                    map_00_init
     00002D12  A$lcc588853$136                    map_00_init
     00002D13  A$lcc588853$137                    map_00_init
     00002D14  A$lcc588853$138                    map_00_init
     00002D16  A$lcc588853$139                    map_00_init
     00002D17  A$lcc588853$140                    map_00_init
     00002D18  A$lcc588853$141                    map_00_init
     00002D19  A$lcc588853$142                    map_00_init
     00002D1A  A$lcc588853$143                    map_00_init
     00002D1D  A$lcc588853$144                    map_00_init
ASxxxx Linker V03.00/V05.40 + sdld,  page 71.
Hexadecimal  [32-Bits]

Area                                    Addr        Size        Decimal Bytes (Attributes)
--------------------------------        ----        ----        ------- ----- ------------
_CODE                               00000200    00003123 =       12579. bytes (REL,CON)

      Value  Global                              Global Defined In Module
      -----  --------------------------------   ------------------------
     00002D1F  A$lcc588853$148                    map_00_init
     00002D1F  C$map_00_init.c$23$2_1$167         map_00_init
     00002D20  A$lcc588853$149                    map_00_init
     00002D22  A$lcc588853$154                    map_00_init
     00002D23  A$lcc588853$155                    map_00_init
     00002D25  A$lcc588853$156                    map_00_init
     00002D26  A$lcc588853$157                    map_00_init
     00002D27  A$lcc588853$159                    map_00_init
     00002D2A  A$lcc588853$160                    map_00_init
     00002D2B  A$lcc588853$161                    map_00_init
     00002D2D  A$lcc588853$162                    map_00_init
     00002D2E  A$lcc588853$163                    map_00_init
     00002D2F  A$lcc588853$164                    map_00_init
     00002D30  A$lcc588853$165                    map_00_init
     00002D31  A$lcc588853$166                    map_00_init
     00002D32  A$lcc588853$167                    map_00_init
     00002D33  A$lcc588853$168                    map_00_init
     00002D36  A$lcc588853$169                    map_00_init
     00002D37  A$lcc588853$170                    map_00_init
     00002D38  A$lcc588853$171                    map_00_init
     00002D39  A$lcc588853$172                    map_00_init
     00002D3B  A$lcc588853$173                    map_00_init
     00002D3C  A$lcc588853$174                    map_00_init
     00002D3D  A$lcc588853$175                    map_00_init
     00002D3E  A$lcc588853$176                    map_00_init
     00002D3F  A$lcc588853$177                    map_00_init
     00002D40  A$lcc588853$178                    map_00_init
     00002D41  A$lcc588853$179                    map_00_init
     00002D42  A$lcc588853$180                    map_00_init
     00002D43  A$lcc588853$181                    map_00_init
     00002D45  A$lcc588853$185                    map_00_init
     00002D45  C$map_00_init.c$31$3_1$170         map_00_init
     00002D48  A$lcc588853$186                    map_00_init
     00002D49  A$lcc588853$187                    map_00_init
     00002D4B  A$lcc588853$191                    map_00_init
     00002D4B  C$map_00_init.c$32$3_1$170         map_00_init
     00002D4D  A$lcc588853$192                    map_00_init
     00002D4E  A$lcc588853$193                    map_00_init
     00002D4F  A$lcc588853$194                    map_00_init
     00002D50  A$lcc588853$195                    map_00_init
     00002D52  A$lcc588853$196                    map_00_init
     00002D53  A$lcc588853$197                    map_00_init
     00002D54  A$lcc588853$198                    map_00_init
     00002D55  A$lcc588853$199                    map_00_init
     00002D57  A$lcc588853$200                    map_00_init
     00002D58  A$lcc588853$201                    map_00_init
     00002D59  A$lcc588853$202                    map_00_init
     00002D5B  A$lcc588853$203                    map_00_init
     00002D5C  A$lcc588853$204                    map_00_init
     00002D5D  A$lcc588853$205                    map_00_init
     00002D5F  A$lcc588853$206                    map_00_init
ASxxxx Linker V03.00/V05.40 + sdld,  page 72.
Hexadecimal  [32-Bits]

Area                                    Addr        Size        Decimal Bytes (Attributes)
--------------------------------        ----        ----        ------- ----- ------------
_CODE                               00000200    00003123 =       12579. bytes (REL,CON)

      Value  Global                              Global Defined In Module
      -----  --------------------------------   ------------------------
     00002D60  A$lcc588853$207                    map_00_init
     00002D61  A$lcc588853$208                    map_00_init
     00002D62  A$lcc588853$209                    map_00_init
     00002D63  A$lcc588853$210                    map_00_init
     00002D66  A$lcc588853$211                    map_00_init
     00002D68  A$lcc588853$215                    map_00_init
     00002D68  C$map_00_init.c$29$2_1$169         map_00_init
     00002D6A  A$lcc588853$216                    map_00_init
     00002D6B  A$lcc588853$217                    map_00_init
     00002D6D  A$lcc588853$218                    map_00_init
     00002D6E  A$lcc588853$219                    map_00_init
     00002D6F  A$lcc588853$220                    map_00_init
     00002D71  A$lcc588853$225                    map_00_init
     00002D73  A$lcc588853$230                    map_00_init
     00002D73  C$map_00_init.c$34$2_1$164         map_00_init
     00002D73  XG$hello_event$0$0                 map_00_init
     00002D74  A$lcc588853$240                    map_00_init
     00002D74  C$map_00_init.c$36$2_1$172         map_00_init
     00002D74  G$Map_00_Init$0$0                  map_00_init
     00002D74  _Map_00_Init                       map_00_init
     00002D75  A$lcc588853$241                    map_00_init
     00002D76  A$lcc588853$242                    map_00_init
     00002D77  A$lcc588853$246                    map_00_init
     00002D77  C$map_00_init.c$38$1_0$172         map_00_init
     00002D7A  A$lcc588853$247                    map_00_init
     00002D7C  A$lcc588853$248                    map_00_init
     00002D7D  A$lcc588853$249                    map_00_init
     00002D7F  A$lcc588853$250                    map_00_init
     00002D81  A$lcc588853$251                    map_00_init
     00002D82  A$lcc588853$252                    map_00_init
     00002D85  A$lcc588853$253                    map_00_init
     00002D86  A$lcc588853$257                    map_00_init
     00002D86  C$map_00_init.c$39$1_0$172         map_00_init
     00002D89  A$lcc588853$258                    map_00_init
     00002D8A  A$lcc588853$262                    map_00_init
     00002D8A  C$map_00_init.c$40$1_0$172         map_00_init
     00002D8D  A$lcc588853$263                    map_00_init
     00002D8F  A$lcc588853$264                    map_00_init
     00002D90  A$lcc588853$265                    map_00_init
     00002D92  A$lcc588853$269                    map_00_init
     00002D92  C$map_00_init.c$41$1_0$172         map_00_init
     00002D95  A$lcc588853$270                    map_00_init
     00002D97  A$lcc588853$274                    map_00_init
     00002D97  C$map_00_init.c$42$1_0$172         map_00_init
     00002D98  A$lcc588853$275                    map_00_init
     00002D99  A$lcc588853$276                    map_00_init
     00002D9B  A$lcc588853$280                    map_00_init
     00002D9B  C$map_00_init.c$44$1_0$172         map_00_init
     00002D9E  A$lcc588853$281                    map_00_init
     00002DA0  A$lcc588853$285                    map_00_init
     00002DA0  C$map_00_init.c$45$1_0$172         map_00_init
ASxxxx Linker V03.00/V05.40 + sdld,  page 73.
Hexadecimal  [32-Bits]

Area                                    Addr        Size        Decimal Bytes (Attributes)
--------------------------------        ----        ----        ------- ----- ------------
_CODE                               00000200    00003123 =       12579. bytes (REL,CON)

      Value  Global                              Global Defined In Module
      -----  --------------------------------   ------------------------
     00002DA3  A$lcc588853$286                    map_00_init
     00002DA5  A$lcc588853$287                    map_00_init
     00002DA6  A$lcc588853$288                    map_00_init
     00002DA8  A$lcc588853$292                    map_00_init
     00002DA8  C$map_00_init.c$46$1_0$172         map_00_init
     00002DAB  A$lcc588853$293                    map_00_init
     00002DAD  A$lcc588853$297                    map_00_init
     00002DAD  C$map_00_init.c$48$1_0$172         map_00_init
     00002DB0  A$lcc588853$298                    map_00_init
     00002DB1  A$lcc588853$299                    map_00_init
     00002DB3  A$lcc588853$300                    map_00_init
     00002DB4  A$lcc588853$301                    map_00_init
     00002DB6  A$lcc588853$305                    map_00_init
     00002DB6  C$map_00_init.c$49$1_0$172         map_00_init
     00002DB7  A$lcc588853$306                    map_00_init
     00002DB8  A$lcc588853$307                    map_00_init
     00002DBB  A$lcc588853$311                    map_00_init
     00002DBB  C$map_00_init.c$51$1_0$172         map_00_init
     00002DBE  A$lcc588853$312                    map_00_init
     00002DBF  A$lcc588853$313                    map_00_init
     00002DC2  A$lcc588853$314                    map_00_init
     00002DC3  A$lcc588853$315                    map_00_init
     00002DC6  A$lcc588853$316                    map_00_init
     00002DC8  A$lcc588853$320                    map_00_init
     00002DC8  C$map_00_init.c$52$1_0$172         map_00_init
     00002DCB  A$lcc588853$321                    map_00_init
     00002DCC  A$lcc588853$322                    map_00_init
     00002DCF  A$lcc588853$323                    map_00_init
     00002DD0  A$lcc588853$324                    map_00_init
     00002DD1  A$lcc588853$325                    map_00_init
     00002DD2  A$lcc588853$326                    map_00_init
     00002DD3  A$lcc588853$327                    map_00_init
     00002DD6  A$lcc588853$328                    map_00_init
     00002DD8  A$lcc588853$336                    map_00_init
     00002DD8  C$map_00_init.c$53$1_0$172         map_00_init
     00002DD8  XG$Map_00_Init$0$0                 map_00_init
     00002DD9  A$lcc588854$53                     map_00_init_npc
     00002DD9  C$map_00_init_npc.c$11$0_0$163     map_00_init_npc
     00002DD9  G$Map_00_NPC_Init$0$0              map_00_init_npc
     00002DD9  _Map_00_NPC_Init                   map_00_init_npc
     00002DDB  A$lcc588854$57                     map_00_init_npc
     00002DDB  C$map_00_init_npc.c$13$1_0$163     map_00_init_npc
     00002DDE  A$lcc588854$58                     map_00_init_npc
     00002DDF  A$lcc588854$59                     map_00_init_npc
     00002DE1  A$lcc588854$60                     map_00_init_npc
     00002DE4  A$lcc588854$61                     map_00_init_npc
     00002DE5  A$lcc588854$62                     map_00_init_npc
     00002DE7  A$lcc588854$66                     map_00_init_npc
     00002DE7  C$map_00_init_npc.c$14$1_0$163     map_00_init_npc
     00002DEA  A$lcc588854$67                     map_00_init_npc
     00002DEB  A$lcc588854$68                     map_00_init_npc
ASxxxx Linker V03.00/V05.40 + sdld,  page 74.
Hexadecimal  [32-Bits]

Area                                    Addr        Size        Decimal Bytes (Attributes)
--------------------------------        ----        ----        ------- ----- ------------
_CODE                               00000200    00003123 =       12579. bytes (REL,CON)

      Value  Global                              Global Defined In Module
      -----  --------------------------------   ------------------------
     00002DED  A$lcc588854$69                     map_00_init_npc
     00002DF0  A$lcc588854$70                     map_00_init_npc
     00002DF1  A$lcc588854$71                     map_00_init_npc
     00002DF3  A$lcc588854$75                     map_00_init_npc
     00002DF3  C$map_00_init_npc.c$16$2_0$164     map_00_init_npc
     00002DF5  A$lcc588854$76                     map_00_init_npc
     00002DF7  A$lcc588854$77                     map_00_init_npc
     00002DF8  A$lcc588854$78                     map_00_init_npc
     00002DFA  A$lcc588854$79                     map_00_init_npc
     00002DFB  A$lcc588854$80                     map_00_init_npc
     00002DFD  A$lcc588854$81                     map_00_init_npc
     00002DFE  A$lcc588854$82                     map_00_init_npc
     00002E00  A$lcc588854$83                     map_00_init_npc
     00002E01  A$lcc588854$84                     map_00_init_npc
     00002E03  A$lcc588854$85                     map_00_init_npc
     00002E04  A$lcc588854$86                     map_00_init_npc
     00002E05  A$lcc588854$87                     map_00_init_npc
     00002E06  A$lcc588854$88                     map_00_init_npc
     00002E07  A$lcc588854$89                     map_00_init_npc
     00002E08  A$lcc588854$90                     map_00_init_npc
     00002E09  A$lcc588854$91                     map_00_init_npc
     00002E0A  A$lcc588854$95                     map_00_init_npc
     00002E0D  A$lcc588854$96                     map_00_init_npc
     00002E0E  A$lcc588854$98                     map_00_init_npc
     00002E11  A$lcc588854$99                     map_00_init_npc
     00002E12  A$lcc588854$100                    map_00_init_npc
     00002E13  A$lcc588854$101                    map_00_init_npc
     00002E14  A$lcc588854$102                    map_00_init_npc
     00002E16  A$lcc588854$103                    map_00_init_npc
     00002E17  A$lcc588854$104                    map_00_init_npc
     00002E19  A$lcc588854$105                    map_00_init_npc
     00002E1B  A$lcc588854$109                    map_00_init_npc
     00002E1B  C$map_00_init_npc.c$18$2_1$165     map_00_init_npc
     00002E1E  A$lcc588854$110                    map_00_init_npc
     00002E1F  A$lcc588854$111                    map_00_init_npc
     00002E21  A$lcc588854$112                    map_00_init_npc
     00002E22  A$lcc588854$113                    map_00_init_npc
     00002E23  A$lcc588854$114                    map_00_init_npc
     00002E24  A$lcc588854$115                    map_00_init_npc
     00002E25  A$lcc588854$116                    map_00_init_npc
     00002E26  A$lcc588854$117                    map_00_init_npc
     00002E27  A$lcc588854$118                    map_00_init_npc
     00002E28  A$lcc588854$119                    map_00_init_npc
     00002E29  A$lcc588854$120                    map_00_init_npc
     00002E2B  A$lcc588854$121                    map_00_init_npc
     00002E2C  A$lcc588854$122                    map_00_init_npc
     00002E2D  A$lcc588854$123                    map_00_init_npc
     00002E2E  A$lcc588854$124                    map_00_init_npc
     00002E30  A$lcc588854$125                    map_00_init_npc
     00002E31  A$lcc588854$126                    map_00_init_npc
     00002E32  A$lcc588854$127                    map_00_init_npc
ASxxxx Linker V03.00/V05.40 + sdld,  page 75.
Hexadecimal  [32-Bits]

Area                                    Addr        Size        Decimal Bytes (Attributes)
--------------------------------        ----        ----        ------- ----- ------------
_CODE                               00000200    00003123 =       12579. bytes (REL,CON)

      Value  Global                              Global Defined In Module
      -----  --------------------------------   ------------------------
     00002E33  A$lcc588854$128                    map_00_init_npc
     00002E34  A$lcc588854$129                    map_00_init_npc
     00002E37  A$lcc588854$130                    map_00_init_npc
     00002E38  A$lcc588854$131                    map_00_init_npc
     00002E39  A$lcc588854$132                    map_00_init_npc
     00002E3A  A$lcc588854$133                    map_00_init_npc
     00002E3C  A$lcc588854$134                    map_00_init_npc
     00002E3D  A$lcc588854$135                    map_00_init_npc
     00002E3E  A$lcc588854$136                    map_00_init_npc
     00002E3F  A$lcc588854$140                    map_00_init_npc
     00002E3F  C$map_00_init_npc.c$17$2_1$165     map_00_init_npc
     00002E40  A$lcc588854$141                    map_00_init_npc
     00002E42  A$lcc588854$146                    map_00_init_npc
     00002E42  C$map_00_init_npc.c$20$1_1$164     map_00_init_npc
     00002E45  A$lcc588854$147                    map_00_init_npc
     00002E46  A$lcc588854$148                    map_00_init_npc
     00002E47  A$lcc588854$149                    map_00_init_npc
     00002E49  A$lcc588854$150                    map_00_init_npc
     00002E4C  A$lcc588854$151                    map_00_init_npc
     00002E4D  A$lcc588854$152                    map_00_init_npc
     00002E50  A$lcc588854$153                    map_00_init_npc
     00002E52  A$lcc588854$154                    map_00_init_npc
     00002E53  A$lcc588854$155                    map_00_init_npc
     00002E55  A$lcc588854$156                    map_00_init_npc
     00002E57  A$lcc588854$157                    map_00_init_npc
     00002E58  A$lcc588854$158                    map_00_init_npc
     00002E59  A$lcc588854$159                    map_00_init_npc
     00002E5A  A$lcc588854$160                    map_00_init_npc
     00002E5B  A$lcc588854$161                    map_00_init_npc
     00002E5C  A$lcc588854$162                    map_00_init_npc
     00002E5D  A$lcc588854$166                    map_00_init_npc
     00002E5D  C$map_00_init_npc.c$21$1_1$164     map_00_init_npc
     00002E60  A$lcc588854$167                    map_00_init_npc
     00002E61  A$lcc588854$168                    map_00_init_npc
     00002E62  A$lcc588854$169                    map_00_init_npc
     00002E64  A$lcc588854$170                    map_00_init_npc
     00002E67  A$lcc588854$171                    map_00_init_npc
     00002E68  A$lcc588854$172                    map_00_init_npc
     00002E6B  A$lcc588854$173                    map_00_init_npc
     00002E6D  A$lcc588854$174                    map_00_init_npc
     00002E6E  A$lcc588854$175                    map_00_init_npc
     00002E70  A$lcc588854$176                    map_00_init_npc
     00002E72  A$lcc588854$177                    map_00_init_npc
     00002E73  A$lcc588854$178                    map_00_init_npc
     00002E74  A$lcc588854$179                    map_00_init_npc
     00002E75  A$lcc588854$180                    map_00_init_npc
     00002E76  A$lcc588854$181                    map_00_init_npc
     00002E77  A$lcc588854$182                    map_00_init_npc
     00002E78  A$lcc588854$186                    map_00_init_npc
     00002E78  C$map_00_init_npc.c$23$1_1$164     map_00_init_npc
     00002E7B  A$lcc588854$187                    map_00_init_npc
ASxxxx Linker V03.00/V05.40 + sdld,  page 76.
Hexadecimal  [32-Bits]

Area                                    Addr        Size        Decimal Bytes (Attributes)
--------------------------------        ----        ----        ------- ----- ------------
_CODE                               00000200    00003123 =       12579. bytes (REL,CON)

      Value  Global                              Global Defined In Module
      -----  --------------------------------   ------------------------
     00002E7C  A$lcc588854$188                    map_00_init_npc
     00002E7E  A$lcc588854$189                    map_00_init_npc
     00002E81  A$lcc588854$190                    map_00_init_npc
     00002E82  A$lcc588854$191                    map_00_init_npc
     00002E84  A$lcc588854$195                    map_00_init_npc
     00002E84  C$map_00_init_npc.c$24$1_1$164     map_00_init_npc
     00002E87  A$lcc588854$196                    map_00_init_npc
     00002E88  A$lcc588854$197                    map_00_init_npc
     00002E8A  A$lcc588854$198                    map_00_init_npc
     00002E8D  A$lcc588854$199                    map_00_init_npc
     00002E8E  A$lcc588854$200                    map_00_init_npc
     00002E90  A$lcc588854$204                    map_00_init_npc
     00002E90  C$map_00_init_npc.c$25$1_1$164     map_00_init_npc
     00002E93  A$lcc588854$205                    map_00_init_npc
     00002E94  A$lcc588854$206                    map_00_init_npc
     00002E96  A$lcc588854$207                    map_00_init_npc
     00002E99  A$lcc588854$208                    map_00_init_npc
     00002E9A  A$lcc588854$209                    map_00_init_npc
     00002E9C  A$lcc588854$213                    map_00_init_npc
     00002E9C  C$map_00_init_npc.c$28$2_1$166     map_00_init_npc
     00002E9E  A$lcc588854$214                    map_00_init_npc
     00002EA0  A$lcc588854$215                    map_00_init_npc
     00002EA1  A$lcc588854$216                    map_00_init_npc
     00002EA3  A$lcc588854$217                    map_00_init_npc
     00002EA4  A$lcc588854$218                    map_00_init_npc
     00002EA6  A$lcc588854$219                    map_00_init_npc
     00002EA7  A$lcc588854$220                    map_00_init_npc
     00002EA9  A$lcc588854$221                    map_00_init_npc
     00002EAA  A$lcc588854$222                    map_00_init_npc
     00002EAC  A$lcc588854$223                    map_00_init_npc
     00002EAD  A$lcc588854$224                    map_00_init_npc
     00002EAF  A$lcc588854$225                    map_00_init_npc
     00002EB0  A$lcc588854$226                    map_00_init_npc
     00002EB2  A$lcc588854$227                    map_00_init_npc
     00002EB3  A$lcc588854$228                    map_00_init_npc
     00002EB5  A$lcc588854$232                    map_00_init_npc
     00002EB5  C$map_00_init_npc.c$34$1_2$166     map_00_init_npc
     00002EB8  A$lcc588854$233                    map_00_init_npc
     00002EB9  A$lcc588854$234                    map_00_init_npc
     00002EBB  A$lcc588854$235                    map_00_init_npc
     00002EBC  A$lcc588854$236                    map_00_init_npc
     00002EBD  A$lcc588854$237                    map_00_init_npc
     00002EBE  A$lcc588854$238                    map_00_init_npc
     00002EBF  A$lcc588854$239                    map_00_init_npc
     00002EC0  A$lcc588854$240                    map_00_init_npc
     00002EC1  A$lcc588854$241                    map_00_init_npc
     00002EC2  A$lcc588854$242                    map_00_init_npc
     00002EC3  A$lcc588854$243                    map_00_init_npc
     00002EC4  A$lcc588854$244                    map_00_init_npc
     00002EC7  A$lcc588854$245                    map_00_init_npc
     00002EC8  A$lcc588854$246                    map_00_init_npc
ASxxxx Linker V03.00/V05.40 + sdld,  page 77.
Hexadecimal  [32-Bits]

Area                                    Addr        Size        Decimal Bytes (Attributes)
--------------------------------        ----        ----        ------- ----- ------------
_CODE                               00000200    00003123 =       12579. bytes (REL,CON)

      Value  Global                              Global Defined In Module
      -----  --------------------------------   ------------------------
     00002EC9  A$lcc588854$247                    map_00_init_npc
     00002ECA  A$lcc588854$248                    map_00_init_npc
     00002ECD  A$lcc588854$249                    map_00_init_npc
     00002ECE  A$lcc588854$250                    map_00_init_npc
     00002ED0  A$lcc588854$251                    map_00_init_npc
     00002ED1  A$lcc588854$252                    map_00_init_npc
     00002ED2  A$lcc588854$253                    map_00_init_npc
     00002ED5  A$lcc588854$254                    map_00_init_npc
     00002ED6  A$lcc588854$255                    map_00_init_npc
     00002ED7  A$lcc588854$256                    map_00_init_npc
     00002ED8  A$lcc588854$257                    map_00_init_npc
     00002ED9  A$lcc588854$258                    map_00_init_npc
     00002EDA  A$lcc588854$259                    map_00_init_npc
     00002EDD  A$lcc588854$260                    map_00_init_npc
     00002EE0  A$lcc588854$264                    map_00_init_npc
     00002EE2  A$lcc588854$269                    map_00_init_npc
     00002EE2  C$map_00_init_npc.c$35$1_2$163     map_00_init_npc
     00002EE2  XG$Map_00_NPC_Init$0$0             map_00_init_npc
     00002EE3  A$lcc588855$56                     map_00_update
     00002EE3  C$map_00_update.c$11$0_0$171       map_00_update
     00002EE3  G$Map_00_Update$0$0                map_00_update
     00002EE3  _Map_00_Update                     map_00_update
     00002EE5  A$lcc588855$57                     map_00_update
     00002EE7  A$lcc588855$58                     map_00_update
     00002EE8  A$lcc588855$59                     map_00_update
     00002EE9  A$lcc588855$60                     map_00_update
     00002EEA  A$lcc588855$64                     map_00_update
     00002EEA  C$map_00_update.c$13$1_0$171       map_00_update
     00002EED  A$lcc588855$68                     map_00_update
     00002EED  C$map_00_update.c$15$1_1$172       map_00_update
     00002EEF  A$lcc588855$69                     map_00_update
     00002EF0  A$lcc588855$70                     map_00_update
     00002EF1  A$lcc588855$71                     map_00_update
     00002EF2  A$lcc588855$72                     map_00_update
     00002EF5  A$lcc588855$73                     map_00_update
     00002EF6  A$lcc588855$74                     map_00_update
     00002EF7  A$lcc588855$75                     map_00_update
     00002EF8  A$lcc588855$76                     map_00_update
     00002EF9  A$lcc588855$77                     map_00_update
     00002EFB  A$lcc588855$78                     map_00_update
     00002EFC  A$lcc588855$79                     map_00_update
     00002EFD  A$lcc588855$80                     map_00_update
     00002EFE  A$lcc588855$84                     map_00_update
     00002EFF  A$lcc588855$85                     map_00_update
     00002F00  A$lcc588855$86                     map_00_update
     00002F03  A$lcc588855$87                     map_00_update
     00002F04  A$lcc588855$88                     map_00_update
     00002F05  A$lcc588855$89                     map_00_update
     00002F06  A$lcc588855$90                     map_00_update
     00002F08  A$lcc588855$91                     map_00_update
     00002F09  A$lcc588855$92                     map_00_update
ASxxxx Linker V03.00/V05.40 + sdld,  page 78.
Hexadecimal  [32-Bits]

Area                                    Addr        Size        Decimal Bytes (Attributes)
--------------------------------        ----        ----        ------- ----- ------------
_CODE                               00000200    00003123 =       12579. bytes (REL,CON)

      Value  Global                              Global Defined In Module
      -----  --------------------------------   ------------------------
     00002F0A  A$lcc588855$93                     map_00_update
     00002F0B  A$lcc588855$94                     map_00_update
     00002F0D  A$lcc588855$95                     map_00_update
     00002F0E  A$lcc588855$96                     map_00_update
     00002F11  A$lcc588855$98                     map_00_update
     00002F13  A$lcc588855$99                     map_00_update
     00002F14  A$lcc588855$100                    map_00_update
     00002F15  A$lcc588855$101                    map_00_update
     00002F16  A$lcc588855$102                    map_00_update
     00002F17  A$lcc588855$103                    map_00_update
     00002F18  A$lcc588855$104                    map_00_update
     00002F1A  A$lcc588855$105                    map_00_update
     00002F1B  A$lcc588855$106                    map_00_update
     00002F1C  A$lcc588855$107                    map_00_update
     00002F1D  A$lcc588855$108                    map_00_update
     00002F1E  A$lcc588855$109                    map_00_update
     00002F20  A$lcc588855$113                    map_00_update
     00002F20  C$map_00_update.c$18$3_1$174       map_00_update
     00002F21  A$lcc588855$114                    map_00_update
     00002F22  A$lcc588855$115                    map_00_update
     00002F23  A$lcc588855$116                    map_00_update
     00002F24  A$lcc588855$117                    map_00_update
     00002F25  A$lcc588855$118                    map_00_update
     00002F26  A$lcc588855$119                    map_00_update
     00002F27  A$lcc588855$120                    map_00_update
     00002F2A  A$lcc588855$121                    map_00_update
     00002F2B  A$lcc588855$125                    map_00_update
     00002F2B  C$map_00_update.c$17$2_1$173       map_00_update
     00002F2C  A$lcc588855$126                    map_00_update
     00002F2E  A$lcc588855$131                    map_00_update
     00002F2E  C$map_00_update.c$21$1_1$172       map_00_update
     00002F31  A$lcc588855$132                    map_00_update
     00002F34  A$lcc588855$136                    map_00_update
     00002F34  C$map_00_update.c$22$1_1$172       map_00_update
     00002F35  A$lcc588855$137                    map_00_update
     00002F36  A$lcc588855$138                    map_00_update
     00002F37  A$lcc588855$139                    map_00_update
     00002F38  A$lcc588855$140                    map_00_update
     00002F39  A$lcc588855$141                    map_00_update
     00002F3A  A$lcc588855$142                    map_00_update
     00002F3D  A$lcc588855$146                    map_00_update
     00002F3D  C$map_00_update.c$24$1_1$172       map_00_update
     00002F3F  A$lcc588855$147                    map_00_update
     00002F40  A$lcc588855$148                    map_00_update
     00002F41  A$lcc588855$149                    map_00_update
     00002F42  A$lcc588855$150                    map_00_update
     00002F45  A$lcc588855$157                    map_00_update
     00002F45  C$map_00_update.c$26$1_1$172       map_00_update
     00002F47  A$lcc588855$162                    map_00_update
     00002F47  C$map_00_update.c$27$1_1$171       map_00_update
     00002F47  XG$Map_00_Update$0$0               map_00_update
ASxxxx Linker V03.00/V05.40 + sdld,  page 79.
Hexadecimal  [32-Bits]

Area                                    Addr        Size        Decimal Bytes (Attributes)
--------------------------------        ----        ----        ------- ----- ------------
_CODE                               00000200    00003123 =       12579. bytes (REL,CON)

      Value  Global                              Global Defined In Module
      -----  --------------------------------   ------------------------
     00002F48  A$lcc588856$64                     main
     00002F48  C$main.c$35$0_0$173                main
     00002F48  C$main.c$37$1_0$173                main
     00002F48  G$load_number_tiles$0$0            main
     00002F48  _load_number_tiles                 main
     00002F4B  A$lcc588856$65                     main
     00002F4C  A$lcc588856$66                     main
     00002F4F  A$lcc588856$67                     main
     00002F50  A$lcc588856$68                     main
     00002F53  A$lcc588856$69                     main
     00002F55  A$lcc588856$73                     main
     00002F55  C$main.c$38$1_0$173                main
     00002F58  A$lcc588856$74                     main
     00002F59  A$lcc588856$75                     main
     00002F5C  A$lcc588856$76                     main
     00002F5D  A$lcc588856$77                     main
     00002F60  A$lcc588856$78                     main
     00002F62  A$lcc588856$86                     main
     00002F62  C$main.c$39$1_0$173                main
     00002F62  XG$load_number_tiles$0$0           main
     00002F63  A$lcc588856$99                     main
     00002F63  C$main.c$41$1_0$175                main
     00002F63  C$main.c$43$1_0$175                main
     00002F63  G$main$0$0                         main
     00002F63  _main                              main
     00002F65  A$lcc588856$100                    main
     00002F67  A$lcc588856$101                    main
     00002F69  A$lcc588856$105                    main
     00002F69  C$main.c$44$1_0$175                main
     00002F6B  A$lcc588856$106                    main
     00002F6D  A$lcc588856$107                    main
     00002F6F  A$lcc588856$111                    main
     00002F6F  C$main.c$53$1_1$176                main
     00002F72  A$lcc588856$112                    main
     00002F74  A$lcc588856$113                    main
     00002F75  A$lcc588856$114                    main
     00002F77  A$lcc588856$118                    main
     00002F77  C$main.c$55$1_1$176                main
     00002F7A  A$lcc588856$122                    main
     00002F7A  C$main.c$56$1_1$176                main
     00002F7D  A$lcc588856$126                    main
     00002F7D  C$main.c$59$1_2$177                main
     00002F80  A$lcc588856$127                    main
     00002F83  A$lcc588856$131                    main
     00002F83  C$main.c$61$1_2$177                main
     00002F86  A$lcc588856$132                    main
     00002F89  A$lcc588856$133                    main
     00002F8A  A$lcc588856$134                    main
     00002F8B  A$lcc588856$135                    main
     00002F8C  A$lcc588856$136                    main
     00002F8D  A$lcc588856$137                    main
ASxxxx Linker V03.00/V05.40 + sdld,  page 80.
Hexadecimal  [32-Bits]

Area                                    Addr        Size        Decimal Bytes (Attributes)
--------------------------------        ----        ----        ------- ----- ------------
_CODE                               00000200    00003123 =       12579. bytes (REL,CON)

      Value  Global                              Global Defined In Module
      -----  --------------------------------   ------------------------
     00002F8E  A$lcc588856$138                    main
     00002F8F  A$lcc588856$139                    main
     00002F90  A$lcc588856$140                    main
     00002F93  A$lcc588856$141                    main
     00002F95  A$lcc588856$142                    main
     00002F96  A$lcc588856$143                    main
     00002F97  A$lcc588856$144                    main
     00002F98  A$lcc588856$145                    main
     00002F99  A$lcc588856$146                    main
     00002F9C  A$lcc588856$150                    main
     00002F9C  C$main.c$63$1_2$177                main
     00002F9F  A$lcc588856$155                    main
     00002F9F  C$main.c$75$1_2$177                main
     00002FA2  A$lcc588856$156                    main
     00002FA3  A$lcc588856$157                    main
     00002FA4  A$lcc588856$158                    main
     00002FA5  A$lcc588856$162                    main
     00002FA5  C$main.c$77$2_2$178                main
     00002FA8  A$lcc588856$163                    main
     00002FA9  A$lcc588856$164                    main
     00002FAA  A$lcc588856$165                    main
     00002FAB  A$lcc588856$166                    main
     00002FAC  A$lcc588856$167                    main
     00002FAD  A$lcc588856$168                    main
     00002FAE  A$lcc588856$169                    main
     00002FAF  A$lcc588856$170                    main
     00002FB0  A$lcc588856$171                    main
     00002FB1  A$lcc588856$172                    main
     00002FB2  A$lcc588856$173                    main
     00002FB3  A$lcc588856$174                    main
     00002FB4  A$lcc588856$175                    main
     00002FB7  A$lcc588856$176                    main
     00002FB8  A$lcc588856$177                    main
     00002FB9  A$lcc588856$178                    main
     00002FBA  A$lcc588856$183                    main
     00002FBA  C$main.c$79$2_2$178                main
     00002FBD  A$lcc588856$191                    main
     00002FBD  C$main.c$81$1_2$175                main
     00002FBD  XG$main$0$0                        main
     00002FBF  __divsuchar                        divmod
     00002FC5  __modsuchar                        divmod
     00002FCE  __divuschar                        divmod
     00002FD7  __moduschar                        divmod
     00002FE3  __divschar                         divmod
     00002FE8  __modschar                         divmod
     00002FEF  __divsint                          divmod
     00002FF8  __modsint                          divmod
     00003004  __divuchar                         divmod
     00003009  __moduchar                         divmod
     00003010  __divuint                          divmod
     00003019  __moduint                          divmod
ASxxxx Linker V03.00/V05.40 + sdld,  page 81.
Hexadecimal  [32-Bits]

Area                                    Addr        Size        Decimal Bytes (Attributes)
--------------------------------        ----        ----        ------- ----- ------------
_CODE                               00000200    00003123 =       12579. bytes (REL,CON)

      Value  Global                              Global Defined In Module
      -----  --------------------------------   ------------------------
     00003025  .div8                              divmod
     00003025  .mod8                              divmod
     0000302D  .div16                             divmod
     0000302D  .mod16                             divmod
     00003063  .divu8                             divmod
     00003063  .modu8                             divmod
     00003066  .divu16                            divmod
     00003066  .modu16                            divmod
     000030A6  _free                              free
     000031B6  ___sdcc_heap_init                  malloc
     000031D8  _malloc                            malloc
     000032DE  __mulsuchar                        mul
     000032E1  __muluschar                        mul
     000032EA  __mulschar                         mul
     000032F2  __mulint                           mul
     00003311  __muluchar                         mul
ASxxxx Linker V03.00/V05.40 + sdld,  page 82.
Hexadecimal  [32-Bits]

Area                                    Addr        Size        Decimal Bytes (Attributes)
--------------------------------        ----        ----        ------- ----- ------------
_HEADER0                            00000000    00000001 =           1. bytes (ABS,CON)

      Value  Global                              Global Defined In Module
      -----  --------------------------------   ------------------------
     00000020  .call_hl                           Runtime

ASxxxx Linker V03.00/V05.40 + sdld,  page 83.
Hexadecimal  [32-Bits]

Area                                    Addr        Size        Decimal Bytes (Attributes)
--------------------------------        ----        ----        ------- ----- ------------
_HEADER1                            00000000    00000005 =           5. bytes (ABS,CON)

      Value  Global                              Global Defined In Module
      -----  --------------------------------   ------------------------
     00000028  .MemsetSmall                       Runtime

ASxxxx Linker V03.00/V05.40 + sdld,  page 84.
Hexadecimal  [32-Bits]

Area                                    Addr        Size        Decimal Bytes (Attributes)
--------------------------------        ----        ----        ------- ----- ------------
_HEADER2                            00000000    00000007 =           7. bytes (ABS,CON)

      Value  Global                              Global Defined In Module
      -----  --------------------------------   ------------------------
     00000030  .MemcpySmall                       Runtime

ASxxxx Linker V03.00/V05.40 + sdld,  page 85.
Hexadecimal  [32-Bits]

Area                                    Addr        Size        Decimal Bytes (Attributes)
--------------------------------        ----        ----        ------- ----- ------------
_HEADER3                            00000000    00000008 =           8. bytes (ABS,CON)

      Value  Global                              Global Defined In Module
      -----  --------------------------------   ------------------------
ASxxxx Linker V03.00/V05.40 + sdld,  page 86.
Hexadecimal  [32-Bits]

Area                                    Addr        Size        Decimal Bytes (Attributes)
--------------------------------        ----        ----        ------- ----- ------------
_HEADER4                            00000000    00000060 =          96. bytes (ABS,CON)

      Value  Global                              Global Defined In Module
      -----  --------------------------------   ------------------------
     00000080  .int                               Runtime
     0000008F  _wait_int_handler                  Runtime
     0000009C  __standard_VBL_handler             Runtime
     000000AB  _refresh_OAM                       Runtime
     000000CC  _set_interrupts                    Runtime

ASxxxx Linker V03.00/V05.40 + sdld,  page 87.
Hexadecimal  [32-Bits]

Area                                    Addr        Size        Decimal Bytes (Attributes)
--------------------------------        ----        ----        ------- ----- ------------
_HEADER5                            00000000    00000001 =           1. bytes (ABS,CON)

      Value  Global                              Global Defined In Module
      -----  --------------------------------   ------------------------
ASxxxx Linker V03.00/V05.40 + sdld,  page 88.
Hexadecimal  [32-Bits]

Area                                    Addr        Size        Decimal Bytes (Attributes)
--------------------------------        ----        ----        ------- ----- ------------
_HEADER6                            00000000    00000002 =           2. bytes (ABS,CON)

      Value  Global                              Global Defined In Module
      -----  --------------------------------   ------------------------
ASxxxx Linker V03.00/V05.40 + sdld,  page 89.
Hexadecimal  [32-Bits]

Area                                    Addr        Size        Decimal Bytes (Attributes)
--------------------------------        ----        ----        ------- ----- ------------
_HEADER7                            00000000    00000030 =          48. bytes (ABS,CON)

      Value  Global                              Global Defined In Module
      -----  --------------------------------   ------------------------
ASxxxx Linker V03.00/V05.40 + sdld,  page 90.
Hexadecimal  [32-Bits]

Area                                    Addr        Size        Decimal Bytes (Attributes)
--------------------------------        ----        ----        ------- ----- ------------
_HEADER8                            00000000    00000006 =           6. bytes (ABS,CON)

      Value  Global                              Global Defined In Module
      -----  --------------------------------   ------------------------
ASxxxx Linker V03.00/V05.40 + sdld,  page 91.
Hexadecimal  [32-Bits]

Area                                    Addr        Size        Decimal Bytes (Attributes)
--------------------------------        ----        ----        ------- ----- ------------
_HEADER9                            00000000    00000003 =           3. bytes (ABS,CON)

      Value  Global                              Global Defined In Module
      -----  --------------------------------   ------------------------
ASxxxx Linker V03.00/V05.40 + sdld,  page 92.
Hexadecimal  [32-Bits]

Area                                    Addr        Size        Decimal Bytes (Attributes)
--------------------------------        ----        ----        ------- ----- ------------
_HEADERa                            00000000    00000001 =           1. bytes (ABS,CON)

      Value  Global                              Global Defined In Module
      -----  --------------------------------   ------------------------
ASxxxx Linker V03.00/V05.40 + sdld,  page 93.
Hexadecimal  [32-Bits]

Area                                    Addr        Size        Decimal Bytes (Attributes)
--------------------------------        ----        ----        ------- ----- ------------
_HEADERb                            00000000    00000001 =           1. bytes (ABS,CON)

      Value  Global                              Global Defined In Module
      -----  --------------------------------   ------------------------
ASxxxx Linker V03.00/V05.40 + sdld,  page 94.
Hexadecimal  [32-Bits]

Area                                    Addr        Size        Decimal Bytes (Attributes)
--------------------------------        ----        ----        ------- ----- ------------
_HEADERc                            00000000    00000001 =           1. bytes (ABS,CON)

      Value  Global                              Global Defined In Module
      -----  --------------------------------   ------------------------
ASxxxx Linker V03.00/V05.40 + sdld,  page 95.
Hexadecimal  [32-Bits]

Area                                    Addr        Size        Decimal Bytes (Attributes)
--------------------------------        ----        ----        ------- ----- ------------
_HEADERd                            00000000    00000002 =           2. bytes (ABS,CON)

      Value  Global                              Global Defined In Module
      -----  --------------------------------   ------------------------
ASxxxx Linker V03.00/V05.40 + sdld,  page 96.
Hexadecimal  [32-Bits]

Area                                    Addr        Size        Decimal Bytes (Attributes)
--------------------------------        ----        ----        ------- ----- ------------
_HEADERe                            00000000    00000001 =           1. bytes (ABS,CON)

      Value  Global                              Global Defined In Module
      -----  --------------------------------   ------------------------
ASxxxx Linker V03.00/V05.40 + sdld,  page 97.
Hexadecimal  [32-Bits]

Area                                    Addr        Size        Decimal Bytes (Attributes)
--------------------------------        ----        ----        ------- ----- ------------
_HEADERf                            00000000    00000001 =           1. bytes (ABS,CON)

      Value  Global                              Global Defined In Module
      -----  --------------------------------   ------------------------
ASxxxx Linker V03.00/V05.40 + sdld,  page 98.
Hexadecimal  [32-Bits]

Area                                    Addr        Size        Decimal Bytes (Attributes)
--------------------------------        ----        ----        ------- ----- ------------
_HEADER10                           00000000    00000002 =           2. bytes (ABS,CON)

      Value  Global                              Global Defined In Module
      -----  --------------------------------   ------------------------
ASxxxx Linker V03.00/V05.40 + sdld,  page 99.
Hexadecimal  [32-Bits]

Area                                    Addr        Size        Decimal Bytes (Attributes)
--------------------------------        ----        ----        ------- ----- ------------
_HEADER11                           00000000    000000AB =         171. bytes (ABS,CON)

      Value  Global                              Global Defined In Module
      -----  --------------------------------   ------------------------
     00000150  .reset                             Runtime
     00000150  _reset                             Runtime
     00000157  .code_start                        Runtime
     000001B9  _exit                              Runtime
     000001BD  .wait_vbl_done                     Runtime
     000001BD  _vsync                             Runtime
     000001BD  _wait_vbl_done                     Runtime
     000001CD  .remove_VBL                        Runtime
     000001CD  _remove_VBL                        Runtime
     000001D0  .remove_int                        Runtime
     000001ED  .add_VBL                           Runtime
     000001ED  _add_VBL                           Runtime
     000001F0  .add_int                           Runtime

ASxxxx Linker V03.00/V05.40 + sdld,  page 100.
Hexadecimal  [32-Bits]

Area                                    Addr        Size        Decimal Bytes (Attributes)
--------------------------------        ----        ----        ------- ----- ------------
_HOME                               00003323    0000012C =         300. bytes (REL,CON)

      Value  Global                              Global Defined In Module
      -----  --------------------------------   ------------------------
     00003323  .memset_simple                     Runtime
     0000332C  .memcpy_simple                     Runtime
     00003349  .display_off                       Runtime
     00003349  _display_off                       Runtime
     00003361  _set_tile_data                     
     00003366  _set_bkg_data                      
     00003366  _set_win_data                      
     0000336E  _set_sprite_data                   
     0000339E  .padup                             
     0000339E  _waitpadup                         
     000033AE  .jpad                              
     000033AE  _joypad                            
     000033D6  _waitpad                           
     000033D7  .wait_pad                          
     000033DE  ___sdcc_call_hl                    call_hl
     000033DF  _set_bkg_tiles                     
     000033F3  .set_xy_wtt                        SetTileMap
     000033FC  .set_xy_btt                        SetTileMap
     0000340B  .set_xy_tt                         SetTileMap

ASxxxx Linker V03.00/V05.40 + sdld,  page 101.
Hexadecimal  [32-Bits]

Area                                    Addr        Size        Decimal Bytes (Attributes)
--------------------------------        ----        ----        ------- ----- ------------
_INITIALIZER                        0000344F    000001E3 =         483. bytes (REL,CON)

      Value  Global                              Global Defined In Module
      -----  --------------------------------   ------------------------
     0000344F  Fspr_InventoryArrow_idle$__xinit   spr_InventoryArrow_idle
     0000345F  Fexample_npc$__xinit_spr_example   example_npc
     0000346F  Fexample_npc$__xinit_spr_example   example_npc
     0000347F  Fexample_npc$__xinit_spr_example   example_npc
     0000348F  Fexample_npc$__xinit_spr_example   example_npc
     0000349F  Fspr_Player_down0$__xinit_spr_Pl   spr_Player_down0
     000034AF  Fspr_Player_down0$__xinit_spr_Pl   spr_Player_down0
     000034BF  Fspr_Player_down0$__xinit_spr_Pl   spr_Player_down0
     000034CF  Fspr_Player_down0$__xinit_spr_Pl   spr_Player_down0
     000034DF  Fspr_Player_down1$__xinit_spr_Pl   spr_Player_down1
     000034EF  Fspr_Player_down1$__xinit_spr_Pl   spr_Player_down1
     000034FF  Fspr_Player_down1$__xinit_spr_Pl   spr_Player_down1
     0000350F  Fspr_Player_down1$__xinit_spr_Pl   spr_Player_down1
     0000351F  Fspr_Player_down2$__xinit_spr_Pl   spr_Player_down2
     0000352F  Fspr_Player_down2$__xinit_spr_Pl   spr_Player_down2
     0000353F  Fspr_Player_down2$__xinit_spr_Pl   spr_Player_down2
     0000354F  Fspr_Player_down2$__xinit_spr_Pl   spr_Player_down2
     0000355F  Fspr_Player_up0$__xinit_spr_Play   spr_Player_up0
     0000356F  Fspr_Player_up0$__xinit_spr_Play   spr_Player_up0
     0000357F  Fspr_Player_up0$__xinit_spr_Play   spr_Player_up0
     0000358F  Fspr_Player_up0$__xinit_spr_Play   spr_Player_up0
     0000359F  Fspr_Player_up1$__xinit_spr_Play   spr_Player_up1
     000035AF  Fspr_Player_up1$__xinit_spr_Play   spr_Player_up1
     000035BF  Fspr_Player_up1$__xinit_spr_Play   spr_Player_up1
     000035CF  Fspr_Player_up1$__xinit_spr_Play   spr_Player_up1
     000035DF  Fspr_Player_up2$__xinit_spr_Play   spr_Player_up2
     000035EF  Fspr_Player_up2$__xinit_spr_Play   spr_Player_up2
     000035FF  Fspr_Player_up2$__xinit_spr_Play   spr_Player_up2
     0000360F  Fspr_Player_up2$__xinit_spr_Play   spr_Player_up2
     0000361F  Faction$__xinit_MOVE_SPEED$0_0$0   action
     00003620  Faction$__xinit_current_directio   action
     00003621  Fcan_move$__xinit_can_move$0_0$0   can_move
     00003625  Fentity$__xinit_next_entity_id$0   entity
     00003626  Fgender_selection$__xinit_GENDER   gender_selection
     00003627  Finput$__xinit_keys$0_0$0          input
     00003628  Finput$__xinit_prev_keys$0_0$0     input
     00003629  Finventory$__xinit_inventory_act   inventory
     0000362A  Fload$__xinit_vram_next_index$0_   load
     0000362B  Fmoney$__xinit_money$0_0$0         money
     0000362D  Fmain_menu$__xinit_timer$0_0$0     main_menu
     0000362F  Fmain_menu$__xinit_rate$0_0$0      main_menu
     00003630  Fmain_menu$__xinit_show_text$0_0   main_menu
ASxxxx Linker V03.00/V05.40 + sdld,  page 102.
Hexadecimal  [32-Bits]

Area                                    Addr        Size        Decimal Bytes (Attributes)
--------------------------------        ----        ----        ------- ----- ------------
_GSINIT                             00003632    0000000F =          15. bytes (REL,CON)

      Value  Global                              Global Defined In Module
      -----  --------------------------------   ------------------------
     00003632  gsinit                             Runtime

ASxxxx Linker V03.00/V05.40 + sdld,  page 103.
Hexadecimal  [32-Bits]

Area                                    Addr        Size        Decimal Bytes (Attributes)
--------------------------------        ----        ----        ------- ----- ------------
_GSFINAL                            00003641    00000001 =           1. bytes (REL,CON)

      Value  Global                              Global Defined In Module
      -----  --------------------------------   ------------------------
ASxxxx Linker V03.00/V05.40 + sdld,  page 104.
Hexadecimal  [32-Bits]

Area                                    Addr        Size        Decimal Bytes (Attributes)
--------------------------------        ----        ----        ------- ----- ------------
_DATA                               0000C0A0    000001A8 =         424. bytes (REL,CON)

      Value  Global                              Global Defined In Module
      -----  --------------------------------   ------------------------
     0000C0A0  __cpu                              Runtime
     0000C0A1  __is_GBA                           Runtime
     0000C0A2  .mode                              Runtime
     0000C0A3  .sys_time                          Runtime
     0000C0A3  _sys_time                          Runtime
     0000C0A5  .int_0x40                          Runtime
     0000C0B1  G$animation$0_0$0                  animation
     0000C0B1  _animation                         animation
     0000C1A6  G$names$0_0$0                      name
     0000C1A6  _names                             name
     0000C1D8  G$player$0_0$0                     player
     0000C1D8  _player                            player
     0000C1D9  G$player_animations$0_0$0          player
     0000C1D9  _player_animations                 player
     0000C1DD  G$player_y_cache$0_0$0             player
     0000C1DD  _player_y_cache                    player
     0000C1DE  G$position$0_0$0                   position
     0000C1DE  _position                          position
     0000C1FC  G$render$0_0$0                     render
     0000C1FC  _render                            render
     0000C20B  G$npc_1$0_0$0                      scene
     0000C20B  _npc_1                             scene
     0000C20C  G$npc_2$0_0$0                      scene
     0000C20C  _npc_2                             scene
     0000C20D  G$option_actor$0_0$0               scene
     0000C20D  _option_actor                      scene
     0000C20E  G$scene_manager$0_0$0              scene_manager
     0000C20E  _scene_manager                     scene_manager
     0000C210  G$GenderSelect$0_0$0               gender_select
     0000C210  _GenderSelect                      gender_select
     0000C218  G$InventoryScene$0_0$0             inventory_scene
     0000C218  _InventoryScene                    inventory_scene
     0000C220  G$MainMenu$0_0$0                   main_menu
     0000C220  _MainMenu                          main_menu
     0000C228  G$CurrentMapData$0_0$0             map_data
     0000C228  _CurrentMapData                    map_data
     0000C23A  G$Map_00$0_0$0                     map_00
     0000C23A  _Map_00                            map_00
     0000C242  Lmain.main$game$1_1$176            main
     0000C246  ___sdcc_heap_free                  malloc

ASxxxx Linker V03.00/V05.40 + sdld,  page 105.
Hexadecimal  [32-Bits]

Area                                    Addr        Size        Decimal Bytes (Attributes)
--------------------------------        ----        ----        ------- ----- ------------
_INITIALIZED                        0000C248    000001E3 =         483. bytes (REL,CON)

      Value  Global                              Global Defined In Module
      -----  --------------------------------   ------------------------
     0000C248  G$spr_InventoryArrow_idle$0_0$0    spr_InventoryArrow_idle
     0000C248  _spr_InventoryArrow_idle           spr_InventoryArrow_idle
     0000C258  G$spr_example_NPC_00$0_0$0         example_npc
     0000C258  _spr_example_NPC_00                example_npc
     0000C268  G$spr_example_NPC_01$0_0$0         example_npc
     0000C268  _spr_example_NPC_01                example_npc
     0000C278  G$spr_example_NPC_10$0_0$0         example_npc
     0000C278  _spr_example_NPC_10                example_npc
     0000C288  G$spr_example_NPC_11$0_0$0         example_npc
     0000C288  _spr_example_NPC_11                example_npc
     0000C298  G$spr_Player_down0_00$0_0$0        spr_Player_down0
     0000C298  _spr_Player_down0_00               spr_Player_down0
     0000C2A8  G$spr_Player_down0_10$0_0$0        spr_Player_down0
     0000C2A8  _spr_Player_down0_10               spr_Player_down0
     0000C2B8  G$spr_Player_down0_01$0_0$0        spr_Player_down0
     0000C2B8  _spr_Player_down0_01               spr_Player_down0
     0000C2C8  G$spr_Player_down0_11$0_0$0        spr_Player_down0
     0000C2C8  _spr_Player_down0_11               spr_Player_down0
     0000C2D8  G$spr_Player_down1_00$0_0$0        spr_Player_down1
     0000C2D8  _spr_Player_down1_00               spr_Player_down1
     0000C2E8  G$spr_Player_down1_10$0_0$0        spr_Player_down1
     0000C2E8  _spr_Player_down1_10               spr_Player_down1
     0000C2F8  G$spr_Player_down1_01$0_0$0        spr_Player_down1
     0000C2F8  _spr_Player_down1_01               spr_Player_down1
     0000C308  G$spr_Player_down1_11$0_0$0        spr_Player_down1
     0000C308  _spr_Player_down1_11               spr_Player_down1
     0000C318  G$spr_Player_down2_00$0_0$0        spr_Player_down2
     0000C318  _spr_Player_down2_00               spr_Player_down2
     0000C328  G$spr_Player_down2_10$0_0$0        spr_Player_down2
     0000C328  _spr_Player_down2_10               spr_Player_down2
     0000C338  G$spr_Player_down2_01$0_0$0        spr_Player_down2
     0000C338  _spr_Player_down2_01               spr_Player_down2
     0000C348  G$spr_Player_down2_11$0_0$0        spr_Player_down2
     0000C348  _spr_Player_down2_11               spr_Player_down2
     0000C358  G$spr_Player_up0_00$0_0$0          spr_Player_up0
     0000C358  _spr_Player_up0_00                 spr_Player_up0
     0000C368  G$spr_Player_up0_10$0_0$0          spr_Player_up0
     0000C368  _spr_Player_up0_10                 spr_Player_up0
     0000C378  G$spr_Player_up0_01$0_0$0          spr_Player_up0
     0000C378  _spr_Player_up0_01                 spr_Player_up0
     0000C388  G$spr_Player_up0_11$0_0$0          spr_Player_up0
     0000C388  _spr_Player_up0_11                 spr_Player_up0
     0000C398  G$spr_Player_up1_00$0_0$0          spr_Player_up1
     0000C398  _spr_Player_up1_00                 spr_Player_up1
     0000C3A8  G$spr_Player_up1_10$0_0$0          spr_Player_up1
     0000C3A8  _spr_Player_up1_10                 spr_Player_up1
     0000C3B8  G$spr_Player_up1_01$0_0$0          spr_Player_up1
     0000C3B8  _spr_Player_up1_01                 spr_Player_up1
     0000C3C8  G$spr_Player_up1_11$0_0$0          spr_Player_up1
     0000C3C8  _spr_Player_up1_11                 spr_Player_up1
ASxxxx Linker V03.00/V05.40 + sdld,  page 106.
Hexadecimal  [32-Bits]

Area                                    Addr        Size        Decimal Bytes (Attributes)
--------------------------------        ----        ----        ------- ----- ------------
_INITIALIZED                        0000C248    000001E3 =         483. bytes (REL,CON)

      Value  Global                              Global Defined In Module
      -----  --------------------------------   ------------------------
     0000C3D8  G$spr_Player_up2_00$0_0$0          spr_Player_up2
     0000C3D8  _spr_Player_up2_00                 spr_Player_up2
     0000C3E8  G$spr_Player_up2_10$0_0$0          spr_Player_up2
     0000C3E8  _spr_Player_up2_10                 spr_Player_up2
     0000C3F8  G$spr_Player_up2_01$0_0$0          spr_Player_up2
     0000C3F8  _spr_Player_up2_01                 spr_Player_up2
     0000C408  G$spr_Player_up2_11$0_0$0          spr_Player_up2
     0000C408  _spr_Player_up2_11                 spr_Player_up2
     0000C418  G$MOVE_SPEED$0_0$0                 action
     0000C418  _MOVE_SPEED                        action
     0000C419  G$current_direction$0_0$0          action
     0000C419  _current_direction                 action
     0000C41A  G$can_move$0_0$0                   can_move
     0000C41A  _can_move                          can_move
     0000C41E  G$next_entity_id$0_0$0             entity
     0000C41E  _next_entity_id                    entity
     0000C41F  G$GENDER$0_0$0                     gender_selection
     0000C41F  _GENDER                            gender_selection
     0000C420  G$keys$0_0$0                       input
     0000C420  _keys                              input
     0000C421  G$prev_keys$0_0$0                  input
     0000C421  _prev_keys                         input
     0000C422  G$inventory_active$0_0$0           inventory
     0000C422  _inventory_active                  inventory
     0000C423  G$vram_next_index$0_0$0            load
     0000C423  _vram_next_index                   load
     0000C424  G$money$0_0$0                      money
     0000C424  _money                             money
     0000C426  G$timer$0_0$0                      main_menu
     0000C426  _timer                             main_menu
     0000C428  G$rate$0_0$0                       main_menu
     0000C428  _rate                              main_menu
     0000C429  G$show_text$0_0$0                  main_menu
     0000C429  _show_text                         main_menu
     0000C42A  __map_tile_offset                  SetTileMap

ASxxxx Linker V03.00/V05.40 + sdld,  page 107.
Hexadecimal  [32-Bits]

Area                                    Addr        Size        Decimal Bytes (Attributes)
--------------------------------        ----        ----        ------- ----- ------------
_HEAP                               0000C42B    000007FF =        2047. bytes (REL,CON)

      Value  Global                              Global Defined In Module
      -----  --------------------------------   ------------------------
     0000C42B  ___sdcc_heap                       

ASxxxx Linker V03.00/V05.40 + sdld,  page 108.
Hexadecimal  [32-Bits]

Area                                    Addr        Size        Decimal Bytes (Attributes)
--------------------------------        ----        ----        ------- ----- ------------
_HEAP_END                           0000CC2A    00000001 =           1. bytes (REL,CON)

      Value  Global                              Global Defined In Module
      -----  --------------------------------   ------------------------
     0000CC2A  ___sdcc_heap_end                   

ASxxxx Linker V03.00/V05.40 + sdld,  page 109.
Hexadecimal  [32-Bits]

Area                                    Addr        Size        Decimal Bytes (Attributes)
--------------------------------        ----        ----        ------- ----- ------------
_HRAM                               0000FF80    00000013 =          19. bytes (REL,CON)

      Value  Global                              Global Defined In Module
      -----  --------------------------------   ------------------------
     0000FF80  .refresh_OAM                       Runtime
     0000FF90  __current_bank                     Runtime
     0000FF91  __vbl_done                         Runtime
     0000FF92  __shadow_OAM_base                  Runtime

ASxxxx Linker V03.00/V05.40 + sdld,  page 110.

Files Linked                              [ module(s) ]

C:\Program Files\GBDK\lib/gb/crt0.o       [ Runtime ]
C:\Users\Bau_M\AppData\Local\Temp/lcc58880.o
                                          [ chars ]
C:\Users\Bau_M\AppData\Local\Temp/lcc58881.o
                                          [ numbers ]
C:\Users\Bau_M\AppData\Local\Temp/lcc58882.o
                                          [ gender_select_tilemap ]
C:\Users\Bau_M\AppData\Local\Temp/lcc58883.o
                                          [ gender_select_tileset ]
C:\Users\Bau_M\AppData\Local\Temp/lcc58884.o
                                          [ inventory_bkg ]
C:\Users\Bau_M\AppData\Local\Temp/lcc58885.o
                                          [ bkg_MainMenu ]
C:\Users\Bau_M\AppData\Local\Temp/lcc58886.o
                                          [ map_example ]
C:\Users\Bau_M\AppData\Local\Temp/lcc58887.o
                                          [ template_tilemap ]
C:\Users\Bau_M\AppData\Local\Temp/lcc58888.o
                                          [ template_tileset ]
C:\Users\Bau_M\AppData\Local\Temp/lcc58889.o
                                          [ spr_InventoryArrow_idle ]
C:\Users\Bau_M\AppData\Local\Temp/lcc588810.o
                                          [ spr_Branch ]
C:\Users\Bau_M\AppData\Local\Temp/lcc588811.o
                                          [ example_npc ]
C:\Users\Bau_M\AppData\Local\Temp/lcc588812.o
                                          [ spr_Player_down0 ]
C:\Users\Bau_M\AppData\Local\Temp/lcc588813.o
                                          [ spr_Player_down1 ]
C:\Users\Bau_M\AppData\Local\Temp/lcc588814.o
                                          [ spr_Player_down2 ]
C:\Users\Bau_M\AppData\Local\Temp/lcc588815.o
                                          [ spr_Player_up0 ]
C:\Users\Bau_M\AppData\Local\Temp/lcc588816.o
                                          [ spr_Player_up1 ]
C:\Users\Bau_M\AppData\Local\Temp/lcc588817.o
                                          [ spr_Player_up2 ]
C:\Users\Bau_M\AppData\Local\Temp/lcc588818.o
                                          [ action ]
C:\Users\Bau_M\AppData\Local\Temp/lcc588819.o
                                          [ animation ]
C:\Users\Bau_M\AppData\Local\Temp/lcc588820.o
                                          [ can_move ]
C:\Users\Bau_M\AppData\Local\Temp/lcc588821.o
                                          [ char_to_tile ]
C:\Users\Bau_M\AppData\Local\Temp/lcc588822.o
                                          [ draw ]
C:\Users\Bau_M\AppData\Local\Temp/lcc588823.o
                                          [ entity ]
C:\Users\Bau_M\AppData\Local\Temp/lcc588824.o
                                          [ gender_selection ]
C:\Users\Bau_M\AppData\Local\Temp/lcc588825.o
                                          [ global_action ]
C:\Users\Bau_M\AppData\Local\Temp/lcc588826.o
                                          [ input ]
C:\Users\Bau_M\AppData\Local\Temp/lcc588827.o
                                          [ inventory ]
C:\Users\Bau_M\AppData\Local\Temp/lcc588828.o
                                          [ inventory_input ]
C:\Users\Bau_M\AppData\Local\Temp/lcc588829.o
                                          [ load ]
C:\Users\Bau_M\AppData\Local\Temp/lcc588830.o
                                          [ map_scenes ]
C:\Users\Bau_M\AppData\Local\Temp/lcc588831.o
                                          [ money ]
C:\Users\Bau_M\AppData\Local\Temp/lcc588832.o
                                          [ name ]
C:\Users\Bau_M\AppData\Local\Temp/lcc588833.o
                                          [ player ]
C:\Users\Bau_M\AppData\Local\Temp/lcc588834.o
                                          [ position ]
C:\Users\Bau_M\AppData\Local\Temp/lcc588835.o
                                          [ render ]
C:\Users\Bau_M\AppData\Local\Temp/lcc588836.o
                                          [ scene ]
C:\Users\Bau_M\AppData\Local\Temp/lcc588837.o
                                          [ scene_manager ]
C:\Users\Bau_M\AppData\Local\Temp/lcc588838.o
                                          [ gender_select ]
C:\Users\Bau_M\AppData\Local\Temp/lcc588839.o
                                          [ gender_select_init ]
C:\Users\Bau_M\AppData\Local\Temp/lcc588840.o
                                          [ gender_select_update ]
C:\Users\Bau_M\AppData\Local\Temp/lcc588841.o
                                          [ inventory_scene ]
C:\Users\Bau_M\AppData\Local\Temp/lcc588842.o
                                          [ inventory_scene_init ]
C:\Users\Bau_M\AppData\Local\Temp/lcc588843.o
                                          [ inventory_scene_update ]
C:\Users\Bau_M\AppData\Local\Temp/lcc588844.o
                                          [ main_menu ]
C:\Users\Bau_M\AppData\Local\Temp/lcc588845.o
                                          [ main_menu_init ]
C:\Users\Bau_M\AppData\Local\Temp/lcc588846.o
                                          [ main_menu_input ]
C:\Users\Bau_M\AppData\Local\Temp/lcc588847.o
                                          [ main_menu_update ]
C:\Users\Bau_M\AppData\Local\Temp/lcc588848.o
                                          [ clean_text ]
C:\Users\Bau_M\AppData\Local\Temp/lcc588849.o
                                          [ map_collision ]
C:\Users\Bau_M\AppData\Local\Temp/lcc588850.o
                                          [ map_data ]
C:\Users\Bau_M\AppData\Local\Temp/lcc588851.o
                                          [ map_00 ]
C:\Users\Bau_M\AppData\Local\Temp/lcc588852.o
                                          [ map_00_collision ]
C:\Users\Bau_M\AppData\Local\Temp/lcc588853.o
                                          [ map_00_init ]
C:\Users\Bau_M\AppData\Local\Temp/lcc588854.o
                                          [ map_00_init_npc ]
C:\Users\Bau_M\AppData\Local\Temp/lcc588855.o
                                          [ map_00_update ]
C:\Users\Bau_M\AppData\Local\Temp/lcc588856.o
                                          [ main ]


Libraries Linked                          [ object file ]

C:\Program Files\GBDK\lib/sm83/sm83.lib   [ div.o ]
C:\Program Files\GBDK\lib/sm83/sm83.lib   [ free.o ]
C:\Program Files\GBDK\lib/sm83/sm83.lib   [ malloc.o ]
C:\Program Files\GBDK\lib/gb/gb.lib       [ set_data.o ]
C:\Program Files\GBDK\lib/sm83/sm83.lib   [ mul.o ]
C:\Program Files\GBDK\lib/gb/gb.lib       [ pad.o ]
C:\Program Files\GBDK\lib/sm83/sm83.lib   [ __sdcc_call_hl.o ]
C:\Program Files\GBDK\lib/gb/gb.lib       [ sfr.o ]
C:\Program Files\GBDK\lib/gb/gb.lib       [ heap.o ]
C:\Program Files\GBDK\lib/gb/gb.lib       [ set_bk_t.o ]
C:\Program Files\GBDK\lib/gb/gb.lib       [ set_xy_t.o ]

ASxxxx Linker V03.00/V05.40 + sdld,  page 111.

User Base Address Definitions

_DATA=0xC0A0
_CODE=0x0200
_HRAM=0xFF80
ASxxxx Linker V03.00/V05.40 + sdld,  page 112.

User Global Definitions

_shadow_OAM=0xC000
.STACK=0xE000

