ASxxxx Linker V03.00/V05.40 + sdld,  page 1.
Hexadecimal  [32-Bits]

Area                                    Addr        Size        Decimal Bytes (Attributes)
--------------------------------        ----        ----        ------- ----- ------------
.  .ABS.                            00000000    00000000 =           0. bytes (ABS,CON)

      Value  Global                              Global Defined In Module
      -----  --------------------------------   ------------------------
     00000000  .__.ABS.                           SetTileMap
     00000000  _rMBC7_SRAM_ENABLE_1               
     00000000  _rRAMG                             
     00000000  l__BASE                         
     00000000  l__BSS                          
     00000000  l__CABS                         
     00000000  l__CODE_0                       
     00000000  l__DABS                         
     00000000  l__HEADER                       
     00000000  l__LIT                          
     00000000  s__CABS                         
     00000000  s__DABS                         
     00000000  s__HEADER                       
     00000000  s__HEADER0                      
     00000000  s__HEADER1                      
     00000000  s__HEADER10                     
     00000000  s__HEADER11                     
     00000000  s__HEADER2                      
     00000000  s__HEADER3                      
     00000000  s__HEADER4                      
     00000000  s__HEADER5                      
     00000000  s__HEADER6                      
     00000000  s__HEADER7                      
     00000000  s__HEADER8                      
     00000000  s__HEADER9                      
     00000000  s__HEADERa                      
     00000000  s__HEADERb                      
     00000000  s__HEADERc                      
     00000000  s__HEADERd                      
     00000000  s__HEADERe                      
     00000000  s__HEADERf                      
     00000001  l__GSFINAL                      
     00000001  l__HEADER0                      
     00000001  l__HEADER5                      
     00000001  l__HEADERa                      
     00000001  l__HEADERb                      
     00000001  l__HEADERc                      
     00000001  l__HEADERe                      
     00000001  l__HEADERf                      
     00000001  l__HEAP_END                     
     00000002  l__HEADER10                     
     00000002  l__HEADER6                      
     00000002  l__HEADERd                      
     00000003  l__HEADER9                      
     00000005  l__HEADER1                      
     00000006  l__HEADER8                      
     00000007  l__HEADER2                      
     00000008  l__HEADER3                      
     0000000F  l__GSINIT                       
     00000013  l__HRAM                         
ASxxxx Linker V03.00/V05.40 + sdld,  page 2.
Hexadecimal  [32-Bits]

Area                                    Addr        Size        Decimal Bytes (Attributes)
--------------------------------        ----        ----        ------- ----- ------------
.  .ABS.                            00000000    00000000 =           0. bytes (ABS,CON)

      Value  Global                              Global Defined In Module
      -----  --------------------------------   ------------------------
     00000030  l__HEADER7                      
     00000060  l__HEADER4                      
     000000AB  l__HEADER11                     
     0000012C  l__HOME                         
     00000200  s__CODE                         
     00000239  l__INITIALIZED                  
     00000239  l__INITIALIZER                  
     00000319  l__DATA                         
     000007FF  l__HEAP                         
     00000E08  l__CODE_2                       
     00001220  l__CODE_1                       
     00002000  _rROMB0                            
     00002BB8  l__CODE                         
     00002DB8  s__HOME                         
     00002EE4  s__BASE                         
     00002EE4  s__CODE_0                       
     00002EE4  s__INITIALIZER                  
     00002EE4  s__LIT                          
     00003000  _rROMB1                            
     0000311D  s__GSINIT                       
     0000312C  s__GSFINAL                      
     00004000  _rMBC7_SRAM_ENABLE_2               
     00004000  _rRAMB                             
     00008000  __VRAM                             
     00008000  __VRAM8000                         
     00008800  __VRAM8800                         
     00009000  __VRAM9000                         
     00009800  __SCRN0                            
     00009C00  __SCRN1                            
     0000A000  __SRAM                             
     0000A000  _rMBC7_LATCH_1                     
     0000A010  _rMBC7_LATCH_2                     
     0000A020  _rMBC7_ACCEL_X_LO                  
     0000A030  _rMBC7_ACCEL_X_HI                  
     0000A040  _rMBC7_ACCEL_Y_LO                  
     0000A050  _rMBC7_ACCEL_Y_HI                  
     0000C000  __RAM                              
     0000C000  _shadow_OAM                     
     0000C0A0  s__DATA                         
     0000C3B9  s__BSS                          
     0000C3B9  s__INITIALIZED                  
     0000C5F2  s__HEAP                         
     0000CDF1  s__HEAP_END                     
     0000D000  __RAMBANK                          
     0000E000  .STACK                          
     0000FE00  __OAMRAM                           
     0000FF00  _P1_REG                            
     0000FF00  __IO                               
     0000FF01  _SB_REG                            
     0000FF02  _SC_REG                            
     0000FF04  _DIV_REG                           
ASxxxx Linker V03.00/V05.40 + sdld,  page 3.
Hexadecimal  [32-Bits]

Area                                    Addr        Size        Decimal Bytes (Attributes)
--------------------------------        ----        ----        ------- ----- ------------
.  .ABS.                            00000000    00000000 =           0. bytes (ABS,CON)

      Value  Global                              Global Defined In Module
      -----  --------------------------------   ------------------------
     0000FF05  _TIMA_REG                          
     0000FF06  _TMA_REG                           
     0000FF07  _TAC_REG                           
     0000FF0F  _IF_REG                            
     0000FF10  _NR10_REG                          
     0000FF11  _NR11_REG                          
     0000FF12  _NR12_REG                          
     0000FF13  _NR13_REG                          
     0000FF14  _NR14_REG                          
     0000FF16  _NR21_REG                          
     0000FF17  _NR22_REG                          
     0000FF18  _NR23_REG                          
     0000FF19  _NR24_REG                          
     0000FF1A  _NR30_REG                          
     0000FF1B  _NR31_REG                          
     0000FF1C  _NR32_REG                          
     0000FF1D  _NR33_REG                          
     0000FF1E  _NR34_REG                          
     0000FF20  _NR41_REG                          
     0000FF21  _NR42_REG                          
     0000FF22  _NR43_REG                          
     0000FF23  _NR44_REG                          
     0000FF24  _NR50_REG                          
     0000FF25  _NR51_REG                          
     0000FF26  _NR52_REG                          
     0000FF30  _AUD3WAVE                          
     0000FF30  _PCM_SAMPLE                        
     0000FF30  __AUD3WAVERAM                      
     0000FF40  _LCDC_REG                          
     0000FF41  _STAT_REG                          
     0000FF42  _SCY_REG                           
     0000FF43  _SCX_REG                           
     0000FF44  _LY_REG                            
     0000FF45  _LYC_REG                           
     0000FF46  _DMA_REG                           
     0000FF47  _BGP_REG                           
     0000FF48  _OBP0_REG                          
     0000FF49  _OBP1_REG                          
     0000FF4A  _WY_REG                            
     0000FF4B  _WX_REG                            
     0000FF4D  _KEY1_REG                          
     0000FF4F  _VBK_REG                           
     0000FF51  _HDMA1_REG                         
     0000FF52  _HDMA2_REG                         
     0000FF53  _HDMA3_REG                         
     0000FF54  _HDMA4_REG                         
     0000FF55  _HDMA5_REG                         
     0000FF56  _RP_REG                            
     0000FF68  _BCPS_REG                          
     0000FF69  _BCPD_REG                          
     0000FF6A  _OCPS_REG                          
ASxxxx Linker V03.00/V05.40 + sdld,  page 4.
Hexadecimal  [32-Bits]

Area                                    Addr        Size        Decimal Bytes (Attributes)
--------------------------------        ----        ----        ------- ----- ------------
.  .ABS.                            00000000    00000000 =           0. bytes (ABS,CON)

      Value  Global                              Global Defined In Module
      -----  --------------------------------   ------------------------
     0000FF6B  _OCPD_REG                          
     0000FF70  _SVBK_REG                          
     0000FF76  _PCM12_REG                         
     0000FF77  _PCM34_REG                         
     0000FF80  __HRAM                             
     0000FF80  s__HRAM                         
     0000FFFF  _IE_REG                            
     00014000  s__CODE_1                       
     00024000  s__CODE_2                       

ASxxxx Linker V03.00/V05.40 + sdld,  page 5.
Hexadecimal  [32-Bits]

Area                                    Addr        Size        Decimal Bytes (Attributes)
--------------------------------        ----        ----        ------- ----- ------------
_CODE                               00000200    00002BB8 =       11192. bytes (REL,CON)

      Value  Global                              Global Defined In Module
      -----  --------------------------------   ------------------------
     00000200  A$lcc188760$58                     buttons
     00000200  C$buttons.c$21$0_0$126             buttons
     00000200  C$buttons.c$22$1_0$126             buttons
     00000200  G$init_buttons_tileset$0$0         buttons
     00000200  _init_buttons_tileset              buttons
     00000203  A$lcc188760$59                     buttons
     00000204  A$lcc188760$60                     buttons
     00000207  A$lcc188760$61                     buttons
     00000208  A$lcc188760$62                     buttons
     0000020B  A$lcc188760$63                     buttons
     0000020D  A$lcc188760$71                     buttons
     0000020D  C$buttons.c$23$1_0$126             buttons
     0000020D  XG$init_buttons_tileset$0$0        buttons
     0000020E  G$buttons_tileset$0_0$0            buttons
     0000020E  _buttons_tileset                   buttons
     0000023E  G$buttons_tilemap$0_0$0            buttons
     0000023E  _buttons_tilemap                   buttons
     00000241  G$chars_tileset$0_0$0              chars
     00000241  _chars_tileset                     chars
     00000441  G$chars_tilemap$0_0$0              chars
     00000441  _chars_tilemap                     chars
     00000460  G$numbers_tileset$0_0$0            numbers
     00000460  _numbers_tileset                   numbers
     00000500  G$numbers_tilemap$0_0$0            numbers
     00000500  _numbers_tilemap                   numbers
     0000050A  G$gender_select_tilemap$0_0$0      gender_select_tilemap
     0000050A  _gender_select_tilemap             gender_select_tilemap
     00000672  G$gender_select_tileset$0_0$0      gender_select_tileset
     00000672  _gender_select_tileset             gender_select_tileset
     00000962  A$lcc188769$58                     npc_icons
     00000962  C$npc_icons.c$27$0_0$127           npc_icons
     00000962  C$npc_icons.c$28$1_0$127           npc_icons
     00000962  G$InitNPCIcons$0$0                 npc_icons
     00000962  _InitNPCIcons                      npc_icons
     00000965  A$lcc188769$59                     npc_icons
     00000966  A$lcc188769$60                     npc_icons
     00000969  A$lcc188769$61                     npc_icons
     0000096A  A$lcc188769$62                     npc_icons
     0000096D  A$lcc188769$63                     npc_icons
     0000096F  A$lcc188769$71                     npc_icons
     0000096F  C$npc_icons.c$29$1_0$127           npc_icons
     0000096F  XG$InitNPCIcons$0$0                npc_icons
     00000970  G$npc_icons_tileset$0_0$0          npc_icons
     00000970  _npc_icons_tileset                 npc_icons
     000009D0  G$npc_icons_tilemap$0_0$0          npc_icons
     000009D0  _npc_icons_tilemap                 npc_icons
     000009D6  G$spr_Branch$0_0$0                 spr_Branch
     000009D6  _spr_Branch                        spr_Branch
     000009E6  A$lcc1887623$59                    action
     000009E6  C$action.c$11$0_0$171              action
ASxxxx Linker V03.00/V05.40 + sdld,  page 6.
Hexadecimal  [32-Bits]

Area                                    Addr        Size        Decimal Bytes (Attributes)
--------------------------------        ----        ----        ------- ----- ------------
_CODE                               00000200    00002BB8 =       11192. bytes (REL,CON)

      Value  Global                              Global Defined In Module
      -----  --------------------------------   ------------------------
     000009E6  G$move_up$0$0                      action
     000009E6  _move_up                           action
     000009E8  A$lcc1887623$60                    action
     000009EA  A$lcc1887623$61                    action
     000009EB  A$lcc1887623$65                    action
     000009EB  C$action.c$13$2_0$172              action
     000009EE  A$lcc1887623$66                    action
     000009F0  A$lcc1887623$70                    action
     000009F0  C$action.c$14$2_0$172              action
     000009F2  A$lcc1887623$74                    action
     000009F2  C$action.c$16$1_0$171              action
     000009F4  A$lcc1887623$75                    action
     000009F5  A$lcc1887623$76                    action
     000009F6  A$lcc1887623$77                    action
     000009F8  A$lcc1887623$78                    action
     000009F9  A$lcc1887623$79                    action
     000009FB  A$lcc1887623$80                    action
     000009FD  A$lcc1887623$81                    action
     000009FE  A$lcc1887623$82                    action
     000009FF  A$lcc1887623$83                    action
     00000A00  A$lcc1887623$84                    action
     00000A01  A$lcc1887623$85                    action
     00000A02  A$lcc1887623$86                    action
     00000A03  A$lcc1887623$87                    action
     00000A06  A$lcc1887623$88                    action
     00000A07  A$lcc1887623$89                    action
     00000A08  A$lcc1887623$90                    action
     00000A09  A$lcc1887623$91                    action
     00000A0A  A$lcc1887623$92                    action
     00000A0C  A$lcc1887623$93                    action
     00000A0D  A$lcc1887623$94                    action
     00000A0E  A$lcc1887623$95                    action
     00000A0F  A$lcc1887623$96                    action
     00000A10  A$lcc1887623$97                    action
     00000A11  A$lcc1887623$98                    action
     00000A12  A$lcc1887623$99                    action
     00000A13  A$lcc1887623$100                   action
     00000A15  A$lcc1887623$101                   action
     00000A16  A$lcc1887623$102                   action
     00000A17  A$lcc1887623$103                   action
     00000A18  A$lcc1887623$104                   action
     00000A19  A$lcc1887623$105                   action
     00000A1A  A$lcc1887623$106                   action
     00000A1B  A$lcc1887623$107                   action
     00000A1C  A$lcc1887623$108                   action
     00000A1D  A$lcc1887623$109                   action
     00000A1E  A$lcc1887623$110                   action
     00000A1F  A$lcc1887623$111                   action
     00000A20  A$lcc1887623$112                   action
     00000A21  A$lcc1887623$113                   action
     00000A22  A$lcc1887623$114                   action
ASxxxx Linker V03.00/V05.40 + sdld,  page 7.
Hexadecimal  [32-Bits]

Area                                    Addr        Size        Decimal Bytes (Attributes)
--------------------------------        ----        ----        ------- ----- ------------
_CODE                               00000200    00002BB8 =       11192. bytes (REL,CON)

      Value  Global                              Global Defined In Module
      -----  --------------------------------   ------------------------
     00000A23  A$lcc1887623$115                   action
     00000A25  A$lcc1887623$116                   action
     00000A26  A$lcc1887623$117                   action
     00000A27  A$lcc1887623$118                   action
     00000A28  A$lcc1887623$119                   action
     00000A29  A$lcc1887623$120                   action
     00000A2A  A$lcc1887623$124                   action
     00000A2A  C$action.c$17$1_0$171              action
     00000A2B  A$lcc1887623$125                   action
     00000A2C  A$lcc1887623$126                   action
     00000A2F  A$lcc1887623$127                   action
     00000A30  A$lcc1887623$128                   action
     00000A32  A$lcc1887623$129                   action
     00000A33  A$lcc1887623$130                   action
     00000A34  A$lcc1887623$131                   action
     00000A35  A$lcc1887623$132                   action
     00000A37  A$lcc1887623$133                   action
     00000A38  A$lcc1887623$134                   action
     00000A39  A$lcc1887623$139                   action
     00000A3B  A$lcc1887623$144                   action
     00000A3B  C$action.c$18$1_0$171              action
     00000A3B  XG$move_up$0$0                     action
     00000A3C  A$lcc1887623$154                   action
     00000A3C  C$action.c$20$1_0$174              action
     00000A3C  G$move_down$0$0                    action
     00000A3C  _move_down                         action
     00000A3E  A$lcc1887623$155                   action
     00000A40  A$lcc1887623$156                   action
     00000A41  A$lcc1887623$160                   action
     00000A41  C$action.c$22$2_0$175              action
     00000A44  A$lcc1887623$161                   action
     00000A46  A$lcc1887623$165                   action
     00000A46  C$action.c$23$2_0$175              action
     00000A48  A$lcc1887623$169                   action
     00000A48  C$action.c$25$1_0$174              action
     00000A4A  A$lcc1887623$170                   action
     00000A4B  A$lcc1887623$171                   action
     00000A4C  A$lcc1887623$172                   action
     00000A4E  A$lcc1887623$173                   action
     00000A4F  A$lcc1887623$174                   action
     00000A51  A$lcc1887623$175                   action
     00000A53  A$lcc1887623$176                   action
     00000A54  A$lcc1887623$177                   action
     00000A55  A$lcc1887623$178                   action
     00000A56  A$lcc1887623$179                   action
     00000A57  A$lcc1887623$180                   action
     00000A58  A$lcc1887623$181                   action
     00000A59  A$lcc1887623$182                   action
     00000A5C  A$lcc1887623$183                   action
     00000A5D  A$lcc1887623$184                   action
     00000A5E  A$lcc1887623$185                   action
ASxxxx Linker V03.00/V05.40 + sdld,  page 8.
Hexadecimal  [32-Bits]

Area                                    Addr        Size        Decimal Bytes (Attributes)
--------------------------------        ----        ----        ------- ----- ------------
_CODE                               00000200    00002BB8 =       11192. bytes (REL,CON)

      Value  Global                              Global Defined In Module
      -----  --------------------------------   ------------------------
     00000A5F  A$lcc1887623$186                   action
     00000A60  A$lcc1887623$187                   action
     00000A62  A$lcc1887623$188                   action
     00000A63  A$lcc1887623$189                   action
     00000A64  A$lcc1887623$190                   action
     00000A65  A$lcc1887623$191                   action
     00000A66  A$lcc1887623$192                   action
     00000A67  A$lcc1887623$193                   action
     00000A68  A$lcc1887623$194                   action
     00000A69  A$lcc1887623$195                   action
     00000A6B  A$lcc1887623$196                   action
     00000A6C  A$lcc1887623$197                   action
     00000A6D  A$lcc1887623$198                   action
     00000A6E  A$lcc1887623$199                   action
     00000A6F  A$lcc1887623$200                   action
     00000A70  A$lcc1887623$201                   action
     00000A71  A$lcc1887623$202                   action
     00000A72  A$lcc1887623$203                   action
     00000A73  A$lcc1887623$204                   action
     00000A74  A$lcc1887623$205                   action
     00000A75  A$lcc1887623$206                   action
     00000A76  A$lcc1887623$207                   action
     00000A77  A$lcc1887623$208                   action
     00000A78  A$lcc1887623$209                   action
     00000A79  A$lcc1887623$210                   action
     00000A7A  A$lcc1887623$211                   action
     00000A7B  A$lcc1887623$212                   action
     00000A7C  A$lcc1887623$216                   action
     00000A7C  C$action.c$26$1_0$174              action
     00000A7F  A$lcc1887623$217                   action
     00000A81  A$lcc1887623$218                   action
     00000A82  A$lcc1887623$219                   action
     00000A84  A$lcc1887623$220                   action
     00000A85  A$lcc1887623$221                   action
     00000A86  A$lcc1887623$222                   action
     00000A87  A$lcc1887623$223                   action
     00000A88  A$lcc1887623$224                   action
     00000A89  A$lcc1887623$229                   action
     00000A8B  A$lcc1887623$234                   action
     00000A8B  C$action.c$27$1_0$174              action
     00000A8B  XG$move_down$0$0                   action
     00000A8C  A$lcc1887623$244                   action
     00000A8C  C$action.c$29$1_0$177              action
     00000A8C  G$move_left$0$0                    action
     00000A8C  _move_left                         action
     00000A8E  A$lcc1887623$245                   action
     00000A90  A$lcc1887623$246                   action
     00000A91  A$lcc1887623$250                   action
     00000A91  C$action.c$31$2_0$178              action
     00000A94  A$lcc1887623$251                   action
     00000A96  A$lcc1887623$255                   action
ASxxxx Linker V03.00/V05.40 + sdld,  page 9.
Hexadecimal  [32-Bits]

Area                                    Addr        Size        Decimal Bytes (Attributes)
--------------------------------        ----        ----        ------- ----- ------------
_CODE                               00000200    00002BB8 =       11192. bytes (REL,CON)

      Value  Global                              Global Defined In Module
      -----  --------------------------------   ------------------------
     00000A96  C$action.c$32$2_0$178              action
     00000A98  A$lcc1887623$259                   action
     00000A98  C$action.c$34$1_0$177              action
     00000A9A  A$lcc1887623$260                   action
     00000A9B  A$lcc1887623$261                   action
     00000A9C  A$lcc1887623$262                   action
     00000A9E  A$lcc1887623$263                   action
     00000A9F  A$lcc1887623$264                   action
     00000AA1  A$lcc1887623$265                   action
     00000AA3  A$lcc1887623$266                   action
     00000AA4  A$lcc1887623$267                   action
     00000AA5  A$lcc1887623$268                   action
     00000AA6  A$lcc1887623$269                   action
     00000AA7  A$lcc1887623$270                   action
     00000AA8  A$lcc1887623$271                   action
     00000AA9  A$lcc1887623$272                   action
     00000AAC  A$lcc1887623$273                   action
     00000AAD  A$lcc1887623$274                   action
     00000AAE  A$lcc1887623$275                   action
     00000AAF  A$lcc1887623$276                   action
     00000AB0  A$lcc1887623$277                   action
     00000AB2  A$lcc1887623$278                   action
     00000AB3  A$lcc1887623$279                   action
     00000AB4  A$lcc1887623$280                   action
     00000AB5  A$lcc1887623$281                   action
     00000AB6  A$lcc1887623$282                   action
     00000AB7  A$lcc1887623$283                   action
     00000AB8  A$lcc1887623$284                   action
     00000AB9  A$lcc1887623$285                   action
     00000ABB  A$lcc1887623$286                   action
     00000ABC  A$lcc1887623$287                   action
     00000ABD  A$lcc1887623$288                   action
     00000ABE  A$lcc1887623$289                   action
     00000ABF  A$lcc1887623$290                   action
     00000AC0  A$lcc1887623$291                   action
     00000AC1  A$lcc1887623$292                   action
     00000AC2  A$lcc1887623$293                   action
     00000AC3  A$lcc1887623$294                   action
     00000AC4  A$lcc1887623$295                   action
     00000AC5  A$lcc1887623$296                   action
     00000AC6  A$lcc1887623$297                   action
     00000AC7  A$lcc1887623$298                   action
     00000AC8  A$lcc1887623$299                   action
     00000AC9  A$lcc1887623$300                   action
     00000ACB  A$lcc1887623$301                   action
     00000ACC  A$lcc1887623$302                   action
     00000ACD  A$lcc1887623$303                   action
     00000ACE  A$lcc1887623$304                   action
     00000ACF  A$lcc1887623$305                   action
     00000AD0  A$lcc1887623$309                   action
     00000AD0  C$action.c$35$1_0$177              action
ASxxxx Linker V03.00/V05.40 + sdld,  page 10.
Hexadecimal  [32-Bits]

Area                                    Addr        Size        Decimal Bytes (Attributes)
--------------------------------        ----        ----        ------- ----- ------------
_CODE                               00000200    00002BB8 =       11192. bytes (REL,CON)

      Value  Global                              Global Defined In Module
      -----  --------------------------------   ------------------------
     00000AD1  A$lcc1887623$310                   action
     00000AD2  A$lcc1887623$311                   action
     00000AD5  A$lcc1887623$312                   action
     00000AD6  A$lcc1887623$313                   action
     00000AD8  A$lcc1887623$314                   action
     00000AD9  A$lcc1887623$315                   action
     00000ADA  A$lcc1887623$316                   action
     00000ADB  A$lcc1887623$317                   action
     00000ADD  A$lcc1887623$318                   action
     00000ADE  A$lcc1887623$319                   action
     00000ADF  A$lcc1887623$324                   action
     00000AE1  A$lcc1887623$329                   action
     00000AE1  C$action.c$36$1_0$177              action
     00000AE1  XG$move_left$0$0                   action
     00000AE2  A$lcc1887623$339                   action
     00000AE2  C$action.c$38$1_0$180              action
     00000AE2  G$move_right$0$0                   action
     00000AE2  _move_right                        action
     00000AE4  A$lcc1887623$340                   action
     00000AE6  A$lcc1887623$341                   action
     00000AE7  A$lcc1887623$345                   action
     00000AE7  C$action.c$40$2_0$181              action
     00000AEA  A$lcc1887623$346                   action
     00000AEC  A$lcc1887623$350                   action
     00000AEC  C$action.c$41$2_0$181              action
     00000AEE  A$lcc1887623$354                   action
     00000AEE  C$action.c$43$1_0$180              action
     00000AF0  A$lcc1887623$355                   action
     00000AF1  A$lcc1887623$356                   action
     00000AF2  A$lcc1887623$357                   action
     00000AF4  A$lcc1887623$358                   action
     00000AF5  A$lcc1887623$359                   action
     00000AF7  A$lcc1887623$360                   action
     00000AF9  A$lcc1887623$361                   action
     00000AFA  A$lcc1887623$362                   action
     00000AFB  A$lcc1887623$363                   action
     00000AFC  A$lcc1887623$364                   action
     00000AFD  A$lcc1887623$365                   action
     00000AFE  A$lcc1887623$366                   action
     00000AFF  A$lcc1887623$367                   action
     00000B02  A$lcc1887623$368                   action
     00000B03  A$lcc1887623$369                   action
     00000B04  A$lcc1887623$370                   action
     00000B05  A$lcc1887623$371                   action
     00000B06  A$lcc1887623$372                   action
     00000B08  A$lcc1887623$373                   action
     00000B09  A$lcc1887623$374                   action
     00000B0A  A$lcc1887623$375                   action
     00000B0B  A$lcc1887623$376                   action
     00000B0C  A$lcc1887623$377                   action
     00000B0D  A$lcc1887623$378                   action
ASxxxx Linker V03.00/V05.40 + sdld,  page 11.
Hexadecimal  [32-Bits]

Area                                    Addr        Size        Decimal Bytes (Attributes)
--------------------------------        ----        ----        ------- ----- ------------
_CODE                               00000200    00002BB8 =       11192. bytes (REL,CON)

      Value  Global                              Global Defined In Module
      -----  --------------------------------   ------------------------
     00000B0E  A$lcc1887623$379                   action
     00000B0F  A$lcc1887623$380                   action
     00000B11  A$lcc1887623$381                   action
     00000B12  A$lcc1887623$382                   action
     00000B13  A$lcc1887623$383                   action
     00000B14  A$lcc1887623$384                   action
     00000B15  A$lcc1887623$385                   action
     00000B16  A$lcc1887623$386                   action
     00000B17  A$lcc1887623$387                   action
     00000B18  A$lcc1887623$388                   action
     00000B19  A$lcc1887623$389                   action
     00000B1A  A$lcc1887623$390                   action
     00000B1B  A$lcc1887623$391                   action
     00000B1C  A$lcc1887623$392                   action
     00000B1D  A$lcc1887623$393                   action
     00000B1E  A$lcc1887623$394                   action
     00000B1F  A$lcc1887623$395                   action
     00000B20  A$lcc1887623$396                   action
     00000B21  A$lcc1887623$397                   action
     00000B22  A$lcc1887623$401                   action
     00000B22  C$action.c$44$1_0$180              action
     00000B23  A$lcc1887623$402                   action
     00000B26  A$lcc1887623$403                   action
     00000B28  A$lcc1887623$404                   action
     00000B29  A$lcc1887623$405                   action
     00000B2B  A$lcc1887623$406                   action
     00000B2C  A$lcc1887623$407                   action
     00000B2D  A$lcc1887623$408                   action
     00000B2E  A$lcc1887623$409                   action
     00000B2F  A$lcc1887623$410                   action
     00000B30  A$lcc1887623$411                   action
     00000B31  A$lcc1887623$416                   action
     00000B33  A$lcc1887623$421                   action
     00000B33  C$action.c$45$1_0$180              action
     00000B33  XG$move_right$0$0                  action
     00000B34  A$lcc1887624$59                    animation
     00000B34  C$animation.c$7$0_0$137            animation
     00000B34  G$init_animation$0$0               animation
     00000B34  _init_animation                    animation
     00000B36  A$lcc1887624$60                    animation
     00000B38  A$lcc1887624$61                    animation
     00000B39  A$lcc1887624$62                    animation
     00000B3A  A$lcc1887624$63                    animation
     00000B3B  A$lcc1887624$64                    animation
     00000B3C  A$lcc1887624$65                    animation
     00000B3D  A$lcc1887624$69                    animation
     00000B3D  C$animation.c$12$1_0$137           animation
     00000B3F  A$lcc1887624$70                    animation
     00000B40  A$lcc1887624$71                    animation
     00000B41  A$lcc1887624$72                    animation
     00000B42  A$lcc1887624$73                    animation
ASxxxx Linker V03.00/V05.40 + sdld,  page 12.
Hexadecimal  [32-Bits]

Area                                    Addr        Size        Decimal Bytes (Attributes)
--------------------------------        ----        ----        ------- ----- ------------
_CODE                               00000200    00002BB8 =       11192. bytes (REL,CON)

      Value  Global                              Global Defined In Module
      -----  --------------------------------   ------------------------
     00000B43  A$lcc1887624$74                    animation
     00000B44  A$lcc1887624$75                    animation
     00000B45  A$lcc1887624$76                    animation
     00000B47  A$lcc1887624$77                    animation
     00000B49  A$lcc1887624$78                    animation
     00000B4A  A$lcc1887624$79                    animation
     00000B4B  A$lcc1887624$80                    animation
     00000B4C  A$lcc1887624$81                    animation
     00000B4D  A$lcc1887624$82                    animation
     00000B4E  A$lcc1887624$83                    animation
     00000B4F  A$lcc1887624$87                    animation
     00000B4F  C$animation.c$14$1_0$137           animation
     00000B50  A$lcc1887624$88                    animation
     00000B51  A$lcc1887624$89                    animation
     00000B52  A$lcc1887624$90                    animation
     00000B54  A$lcc1887624$91                    animation
     00000B55  A$lcc1887624$92                    animation
     00000B56  A$lcc1887624$96                    animation
     00000B56  C$animation.c$15$1_0$137           animation
     00000B57  A$lcc1887624$97                    animation
     00000B58  A$lcc1887624$98                    animation
     00000B59  A$lcc1887624$99                    animation
     00000B5A  A$lcc1887624$100                   animation
     00000B5B  A$lcc1887624$101                   animation
     00000B5C  A$lcc1887624$102                   animation
     00000B5E  A$lcc1887624$103                   animation
     00000B5F  A$lcc1887624$104                   animation
     00000B60  A$lcc1887624$105                   animation
     00000B61  A$lcc1887624$109                   animation
     00000B61  C$animation.c$16$1_0$137           animation
     00000B64  A$lcc1887624$110                   animation
     00000B65  A$lcc1887624$111                   animation
     00000B67  A$lcc1887624$115                   animation
     00000B67  C$animation.c$17$1_0$137           animation
     00000B68  A$lcc1887624$116                   animation
     00000B69  A$lcc1887624$117                   animation
     00000B6A  A$lcc1887624$118                   animation
     00000B6B  A$lcc1887624$119                   animation
     00000B6D  A$lcc1887624$123                   animation
     00000B6D  C$animation.c$18$1_0$137           animation
     00000B70  A$lcc1887624$124                   animation
     00000B71  A$lcc1887624$125                   animation
     00000B72  A$lcc1887624$126                   animation
     00000B74  A$lcc1887624$127                   animation
     00000B75  A$lcc1887624$128                   animation
     00000B76  A$lcc1887624$129                   animation
     00000B77  A$lcc1887624$133                   animation
     00000B77  C$animation.c$21$1_0$137           animation
     00000B78  A$lcc1887624$134                   animation
     00000B79  A$lcc1887624$135                   animation
     00000B7A  A$lcc1887624$136                   animation
ASxxxx Linker V03.00/V05.40 + sdld,  page 13.
Hexadecimal  [32-Bits]

Area                                    Addr        Size        Decimal Bytes (Attributes)
--------------------------------        ----        ----        ------- ----- ------------
_CODE                               00000200    00002BB8 =       11192. bytes (REL,CON)

      Value  Global                              Global Defined In Module
      -----  --------------------------------   ------------------------
     00000B7B  A$lcc1887624$137                   animation
     00000B7D  A$lcc1887624$138                   animation
     00000B7E  A$lcc1887624$139                   animation
     00000B7F  A$lcc1887624$140                   animation
     00000B80  A$lcc1887624$141                   animation
     00000B81  A$lcc1887624$142                   animation
     00000B84  A$lcc1887624$143                   animation
     00000B85  A$lcc1887624$144                   animation
     00000B86  A$lcc1887624$145                   animation
     00000B87  A$lcc1887624$146                   animation
     00000B89  A$lcc1887624$147                   animation
     00000B8A  A$lcc1887624$148                   animation
     00000B8B  A$lcc1887624$149                   animation
     00000B8C  A$lcc1887624$150                   animation
     00000B8E  A$lcc1887624$151                   animation
     00000B8F  A$lcc1887624$152                   animation
     00000B92  A$lcc1887624$153                   animation
     00000B93  A$lcc1887624$154                   animation
     00000B94  A$lcc1887624$155                   animation
     00000B95  A$lcc1887624$156                   animation
     00000B96  A$lcc1887624$160                   animation
     00000B96  C$animation.c$24$2_0$137           animation
     00000B98  A$lcc1887624$162                   animation
     00000B99  A$lcc1887624$163                   animation
     00000B9A  A$lcc1887624$164                   animation
     00000B9B  A$lcc1887624$165                   animation
     00000B9C  A$lcc1887624$166                   animation
     00000B9E  A$lcc1887624$167                   animation
     00000B9F  A$lcc1887624$168                   animation
     00000BA1  A$lcc1887624$173                   animation
     00000BA1  C$animation.c$32$2_0$140           animation
     00000BA3  A$lcc1887624$174                   animation
     00000BA4  A$lcc1887624$175                   animation
     00000BA5  A$lcc1887624$176                   animation
     00000BA6  A$lcc1887624$177                   animation
     00000BA9  A$lcc1887624$178                   animation
     00000BAA  A$lcc1887624$179                   animation
     00000BAB  A$lcc1887624$180                   animation
     00000BAC  A$lcc1887624$181                   animation
     00000BAD  A$lcc1887624$182                   animation
     00000BAE  A$lcc1887624$183                   animation
     00000BB0  A$lcc1887624$187                   animation
     00000BB0  C$animation.c$33$2_0$140           animation
     00000BB2  A$lcc1887624$188                   animation
     00000BB3  A$lcc1887624$189                   animation
     00000BB4  A$lcc1887624$194                   animation
     00000BB4  C$animation.c$34$2_0$137           animation
     00000BB6  A$lcc1887624$195                   animation
     00000BB7  A$lcc1887624$196                   animation
     00000BB9  A$lcc1887624$197                   animation
     00000BBA  A$lcc1887624$207                   animation
ASxxxx Linker V03.00/V05.40 + sdld,  page 14.
Hexadecimal  [32-Bits]

Area                                    Addr        Size        Decimal Bytes (Attributes)
--------------------------------        ----        ----        ------- ----- ------------
_CODE                               00000200    00002BB8 =       11192. bytes (REL,CON)

      Value  Global                              Global Defined In Module
      -----  --------------------------------   ------------------------
     00000BBA  C$animation.c$36$2_0$142           animation
     00000BBA  G$update_animation$0$0             animation
     00000BBA  _update_animation                  animation
     00000BBB  A$lcc1887624$208                   animation
     00000BBC  A$lcc1887624$209                   animation
     00000BBD  A$lcc1887624$210                   animation
     00000BBE  A$lcc1887624$214                   animation
     00000BBE  C$animation.c$38$1_0$142           animation
     00000BC1  A$lcc1887624$215                   animation
     00000BC2  A$lcc1887624$216                   animation
     00000BC3  A$lcc1887624$217                   animation
     00000BC4  A$lcc1887624$218                   animation
     00000BC5  A$lcc1887624$219                   animation
     00000BC6  A$lcc1887624$220                   animation
     00000BC7  A$lcc1887624$221                   animation
     00000BC8  A$lcc1887624$222                   animation
     00000BC9  A$lcc1887624$223                   animation
     00000BCB  A$lcc1887624$224                   animation
     00000BCC  A$lcc1887624$225                   animation
     00000BCD  A$lcc1887624$229                   animation
     00000BCD  C$animation.c$40$1_0$142           animation
     00000BD0  A$lcc1887624$230                   animation
     00000BD1  A$lcc1887624$231                   animation
     00000BD2  A$lcc1887624$232                   animation
     00000BD3  A$lcc1887624$233                   animation
     00000BD4  A$lcc1887624$234                   animation
     00000BD5  A$lcc1887624$235                   animation
     00000BD7  A$lcc1887624$236                   animation
     00000BD8  A$lcc1887624$237                   animation
     00000BD9  A$lcc1887624$241                   animation
     00000BD9  C$animation.c$41$2_0$143           animation
     00000BDA  A$lcc1887624$242                   animation
     00000BDB  A$lcc1887624$243                   animation
     00000BDC  A$lcc1887624$244                   animation
     00000BDD  A$lcc1887624$245                   animation
     00000BDE  A$lcc1887624$246                   animation
     00000BDF  A$lcc1887624$247                   animation
     00000BE1  A$lcc1887624$248                   animation
     00000BE2  A$lcc1887624$249                   animation
     00000BE4  A$lcc1887624$250                   animation
     00000BE5  A$lcc1887624$251                   animation
     00000BE6  A$lcc1887624$252                   animation
     00000BE8  A$lcc1887624$256                   animation
     00000BE8  C$animation.c$43$3_0$144           animation
     00000BE9  A$lcc1887624$257                   animation
     00000BEA  A$lcc1887624$261                   animation
     00000BEA  C$animation.c$44$3_0$144           animation
     00000BEB  A$lcc1887624$262                   animation
     00000BEC  A$lcc1887624$263                   animation
     00000BED  A$lcc1887624$264                   animation
     00000BEE  A$lcc1887624$265                   animation
ASxxxx Linker V03.00/V05.40 + sdld,  page 15.
Hexadecimal  [32-Bits]

Area                                    Addr        Size        Decimal Bytes (Attributes)
--------------------------------        ----        ----        ------- ----- ------------
_CODE                               00000200    00002BB8 =       11192. bytes (REL,CON)

      Value  Global                              Global Defined In Module
      -----  --------------------------------   ------------------------
     00000BEF  A$lcc1887624$266                   animation
     00000BF0  A$lcc1887624$270                   animation
     00000BF0  C$animation.c$45$4_0$145           animation
     00000BF1  A$lcc1887624$271                   animation
     00000BF2  A$lcc1887624$272                   animation
     00000BF3  A$lcc1887624$273                   animation
     00000BF4  A$lcc1887624$274                   animation
     00000BF5  A$lcc1887624$275                   animation
     00000BF7  A$lcc1887624$279                   animation
     00000BF7  C$animation.c$46$4_0$145           animation
     00000BF9  A$lcc1887624$284                   animation
     00000BFA  A$lcc1887624$285                   animation
     00000BFB  A$lcc1887624$290                   animation
     00000BFB  C$animation.c$48$2_0$142           animation
     00000BFB  XG$update_animation$0$0            animation
     00000BFC  A$lcc1887624$300                   animation
     00000BFC  C$animation.c$50$2_0$147           animation
     00000BFC  G$set_animation$0$0                animation
     00000BFC  _set_animation                     animation
     00000BFD  A$lcc1887624$301                   animation
     00000BFE  A$lcc1887624$302                   animation
     00000BFF  A$lcc1887624$306                   animation
     00000BFF  C$animation.c$52$2_0$148           animation
     00000C00  A$lcc1887624$307                   animation
     00000C02  A$lcc1887624$308                   animation
     00000C03  A$lcc1887624$309                   animation
     00000C04  A$lcc1887624$310                   animation
     00000C06  A$lcc1887624$311                   animation
     00000C07  A$lcc1887624$312                   animation
     00000C08  A$lcc1887624$313                   animation
     00000C09  A$lcc1887624$314                   animation
     00000C0A  A$lcc1887624$321                   animation
     00000C0A  C$animation.c$53$2_0$148           animation
     00000C0A  C$animation.c$55$1_0$147           animation
     00000C0B  A$lcc1887624$322                   animation
     00000C0C  A$lcc1887624$326                   animation
     00000C0C  C$animation.c$56$1_1$149           animation
     00000C0D  A$lcc1887624$327                   animation
     00000C0E  A$lcc1887624$328                   animation
     00000C0F  A$lcc1887624$329                   animation
     00000C10  A$lcc1887624$330                   animation
     00000C12  A$lcc1887624$331                   animation
     00000C13  A$lcc1887624$335                   animation
     00000C13  C$animation.c$57$1_1$149           animation
     00000C14  A$lcc1887624$336                   animation
     00000C15  A$lcc1887624$337                   animation
     00000C16  A$lcc1887624$338                   animation
     00000C17  A$lcc1887624$339                   animation
     00000C18  A$lcc1887624$340                   animation
     00000C19  A$lcc1887624$344                   animation
     00000C19  C$animation.c$58$1_1$149           animation
ASxxxx Linker V03.00/V05.40 + sdld,  page 16.
Hexadecimal  [32-Bits]

Area                                    Addr        Size        Decimal Bytes (Attributes)
--------------------------------        ----        ----        ------- ----- ------------
_CODE                               00000200    00002BB8 =       11192. bytes (REL,CON)

      Value  Global                              Global Defined In Module
      -----  --------------------------------   ------------------------
     00000C1C  A$lcc1887624$345                   animation
     00000C1D  A$lcc1887624$346                   animation
     00000C1F  A$lcc1887624$354                   animation
     00000C1F  C$animation.c$59$1_1$147           animation
     00000C1F  XG$set_animation$0$0               animation
     00000C20  A$lcc1887626$52                    char_to_tile
     00000C20  C$char_to_tile.c$3$0_0$3           char_to_tile
     00000C20  G$char_to_tile$0$0                 char_to_tile
     00000C20  _char_to_tile                      char_to_tile
     00000C22  A$lcc1887626$53                    char_to_tile
     00000C24  A$lcc1887626$54                    char_to_tile
     00000C25  A$lcc1887626$58                    char_to_tile
     00000C25  C$char_to_tile.c$4$2_0$3           char_to_tile
     00000C27  A$lcc1887626$59                    char_to_tile
     00000C29  A$lcc1887626$60                    char_to_tile
     00000C2A  A$lcc1887626$61                    char_to_tile
     00000C2C  A$lcc1887626$62                    char_to_tile
     00000C2D  A$lcc1887626$63                    char_to_tile
     00000C2F  A$lcc1887626$64                    char_to_tile
     00000C30  A$lcc1887626$65                    char_to_tile
     00000C32  A$lcc1887626$66                    char_to_tile
     00000C33  A$lcc1887626$67                    char_to_tile
     00000C35  A$lcc1887626$68                    char_to_tile
     00000C36  A$lcc1887626$69                    char_to_tile
     00000C38  A$lcc1887626$70                    char_to_tile
     00000C39  A$lcc1887626$71                    char_to_tile
     00000C3B  A$lcc1887626$72                    char_to_tile
     00000C3C  A$lcc1887626$73                    char_to_tile
     00000C3E  A$lcc1887626$74                    char_to_tile
     00000C3F  A$lcc1887626$75                    char_to_tile
     00000C41  A$lcc1887626$76                    char_to_tile
     00000C42  A$lcc1887626$77                    char_to_tile
     00000C44  A$lcc1887626$78                    char_to_tile
     00000C45  A$lcc1887626$79                    char_to_tile
     00000C47  A$lcc1887626$80                    char_to_tile
     00000C48  A$lcc1887626$81                    char_to_tile
     00000C4A  A$lcc1887626$82                    char_to_tile
     00000C4B  A$lcc1887626$83                    char_to_tile
     00000C4D  A$lcc1887626$84                    char_to_tile
     00000C4E  A$lcc1887626$85                    char_to_tile
     00000C50  A$lcc1887626$86                    char_to_tile
     00000C51  A$lcc1887626$87                    char_to_tile
     00000C53  A$lcc1887626$88                    char_to_tile
     00000C54  A$lcc1887626$89                    char_to_tile
     00000C56  A$lcc1887626$90                    char_to_tile
     00000C57  A$lcc1887626$91                    char_to_tile
     00000C59  A$lcc1887626$92                    char_to_tile
     00000C5A  A$lcc1887626$93                    char_to_tile
     00000C5C  A$lcc1887626$94                    char_to_tile
     00000C5D  A$lcc1887626$95                    char_to_tile
     00000C5F  A$lcc1887626$96                    char_to_tile
ASxxxx Linker V03.00/V05.40 + sdld,  page 17.
Hexadecimal  [32-Bits]

Area                                    Addr        Size        Decimal Bytes (Attributes)
--------------------------------        ----        ----        ------- ----- ------------
_CODE                               00000200    00002BB8 =       11192. bytes (REL,CON)

      Value  Global                              Global Defined In Module
      -----  --------------------------------   ------------------------
     00000C60  A$lcc1887626$97                    char_to_tile
     00000C62  A$lcc1887626$98                    char_to_tile
     00000C63  A$lcc1887626$99                    char_to_tile
     00000C65  A$lcc1887626$100                   char_to_tile
     00000C66  A$lcc1887626$101                   char_to_tile
     00000C68  A$lcc1887626$102                   char_to_tile
     00000C69  A$lcc1887626$103                   char_to_tile
     00000C6B  A$lcc1887626$104                   char_to_tile
     00000C6C  A$lcc1887626$105                   char_to_tile
     00000C6E  A$lcc1887626$106                   char_to_tile
     00000C6F  A$lcc1887626$107                   char_to_tile
     00000C71  A$lcc1887626$108                   char_to_tile
     00000C72  A$lcc1887626$109                   char_to_tile
     00000C74  A$lcc1887626$110                   char_to_tile
     00000C75  A$lcc1887626$111                   char_to_tile
     00000C77  A$lcc1887626$112                   char_to_tile
     00000C78  A$lcc1887626$113                   char_to_tile
     00000C7A  A$lcc1887626$114                   char_to_tile
     00000C7B  A$lcc1887626$115                   char_to_tile
     00000C7D  A$lcc1887626$116                   char_to_tile
     00000C7E  A$lcc1887626$117                   char_to_tile
     00000C80  A$lcc1887626$118                   char_to_tile
     00000C81  A$lcc1887626$119                   char_to_tile
     00000C83  A$lcc1887626$120                   char_to_tile
     00000C84  A$lcc1887626$124                   char_to_tile
     00000C84  C$char_to_tile.c$5$3_0$4           char_to_tile
     00000C85  A$lcc1887626$125                   char_to_tile
     00000C86  A$lcc1887626$126                   char_to_tile
     00000C87  A$lcc1887626$127                   char_to_tile
     00000C88  A$lcc1887626$128                   char_to_tile
     00000C8B  A$lcc1887626$130                   char_to_tile
     00000C8C  A$lcc1887626$131                   char_to_tile
     00000C8E  A$lcc1887626$132                   char_to_tile
     00000C90  A$lcc1887626$136                   char_to_tile
     00000C90  C$char_to_tile.c$6$4_0$6           char_to_tile
     00000C93  A$lcc1887626$137                   char_to_tile
     00000C94  A$lcc1887626$138                   char_to_tile
     00000C95  A$lcc1887626$139                   char_to_tile
     00000C96  A$lcc1887626$140                   char_to_tile
     00000C98  A$lcc1887626$141                   char_to_tile
     00000C99  A$lcc1887626$142                   char_to_tile
     00000C9A  A$lcc1887626$143                   char_to_tile
     00000C9C  A$lcc1887626$147                   char_to_tile
     00000C9C  C$char_to_tile.c$7$5_0$7           char_to_tile
     00000C9E  A$lcc1887626$148                   char_to_tile
     00000C9F  A$lcc1887626$149                   char_to_tile
     00000CA1  A$lcc1887626$150                   char_to_tile
     00000CA2  A$lcc1887626$151                   char_to_tile
     00000CA4  A$lcc1887626$156                   char_to_tile
     00000CA4  C$char_to_tile.c$5$2_0$4           char_to_tile
     00000CA5  A$lcc1887626$157                   char_to_tile
ASxxxx Linker V03.00/V05.40 + sdld,  page 18.
Hexadecimal  [32-Bits]

Area                                    Addr        Size        Decimal Bytes (Attributes)
--------------------------------        ----        ----        ------- ----- ------------
_CODE                               00000200    00002BB8 =       11192. bytes (REL,CON)

      Value  Global                              Global Defined In Module
      -----  --------------------------------   ------------------------
     00000CA7  A$lcc1887626$158                   char_to_tile
     00000CA8  A$lcc1887626$159                   char_to_tile
     00000CA9  A$lcc1887626$160                   char_to_tile
     00000CAA  A$lcc1887626$161                   char_to_tile
     00000CAC  A$lcc1887626$166                   char_to_tile
     00000CAC  C$char_to_tile.c$11$1_0$3          char_to_tile
     00000CAF  A$lcc1887626$171                   char_to_tile
     00000CB1  A$lcc1887626$176                   char_to_tile
     00000CB1  C$char_to_tile.c$12$1_0$3          char_to_tile
     00000CB1  XG$char_to_tile$0$0                char_to_tile
     00000CB2  A$lcc1887627$52                    collision
     00000CB2  C$collision.c$3$0_0$3              collision
     00000CB2  G$check_collision$0$0              collision
     00000CB2  _check_collision                   collision
     00000CB4  A$lcc1887627$53                    collision
     00000CB5  A$lcc1887627$54                    collision
     00000CB7  A$lcc1887627$55                    collision
     00000CB8  A$lcc1887627$59                    collision
     00000CB8  C$collision.c$8$1_0$3              collision
     00000CBA  A$lcc1887627$60                    collision
     00000CBB  A$lcc1887627$61                    collision
     00000CBD  A$lcc1887627$62                    collision
     00000CBE  A$lcc1887627$63                    collision
     00000CC0  A$lcc1887627$64                    collision
     00000CC2  A$lcc1887627$65                    collision
     00000CC3  A$lcc1887627$66                    collision
     00000CC5  A$lcc1887627$67                    collision
     00000CC6  A$lcc1887627$68                    collision
     00000CC7  A$lcc1887627$69                    collision
     00000CC8  A$lcc1887627$70                    collision
     00000CC9  A$lcc1887627$71                    collision
     00000CCA  A$lcc1887627$72                    collision
     00000CCB  A$lcc1887627$73                    collision
     00000CCC  A$lcc1887627$74                    collision
     00000CCD  A$lcc1887627$75                    collision
     00000CCE  A$lcc1887627$76                    collision
     00000CCF  A$lcc1887627$77                    collision
     00000CD0  A$lcc1887627$78                    collision
     00000CD2  A$lcc1887627$79                    collision
     00000CD3  A$lcc1887627$80                    collision
     00000CD4  A$lcc1887627$81                    collision
     00000CD5  A$lcc1887627$82                    collision
     00000CD7  A$lcc1887627$83                    collision
     00000CD8  A$lcc1887627$84                    collision
     00000CDA  A$lcc1887627$85                    collision
     00000CDB  A$lcc1887627$86                    collision
     00000CDC  A$lcc1887627$87                    collision
     00000CDD  A$lcc1887627$88                    collision
     00000CDE  A$lcc1887627$89                    collision
     00000CDF  A$lcc1887627$90                    collision
     00000CE1  A$lcc1887627$94                    collision
ASxxxx Linker V03.00/V05.40 + sdld,  page 19.
Hexadecimal  [32-Bits]

Area                                    Addr        Size        Decimal Bytes (Attributes)
--------------------------------        ----        ----        ------- ----- ------------
_CODE                               00000200    00002BB8 =       11192. bytes (REL,CON)

      Value  Global                              Global Defined In Module
      -----  --------------------------------   ------------------------
     00000CE1  C$collision.c$9$1_0$3              collision
     00000CE2  A$lcc1887627$95                    collision
     00000CE3  A$lcc1887627$96                    collision
     00000CE4  A$lcc1887627$97                    collision
     00000CE5  A$lcc1887627$98                    collision
     00000CE6  A$lcc1887627$99                    collision
     00000CE8  A$lcc1887627$100                   collision
     00000CE9  A$lcc1887627$101                   collision
     00000CEA  A$lcc1887627$102                   collision
     00000CEB  A$lcc1887627$103                   collision
     00000CEC  A$lcc1887627$104                   collision
     00000CEE  A$lcc1887627$108                   collision
     00000CEE  C$collision.c$10$1_0$3             collision
     00000CF0  A$lcc1887627$109                   collision
     00000CF1  A$lcc1887627$110                   collision
     00000CF3  A$lcc1887627$111                   collision
     00000CF4  A$lcc1887627$112                   collision
     00000CF5  A$lcc1887627$113                   collision
     00000CF6  A$lcc1887627$114                   collision
     00000CF7  A$lcc1887627$115                   collision
     00000CF8  A$lcc1887627$116                   collision
     00000CF9  A$lcc1887627$117                   collision
     00000CFA  A$lcc1887627$118                   collision
     00000CFB  A$lcc1887627$119                   collision
     00000CFC  A$lcc1887627$120                   collision
     00000CFD  A$lcc1887627$121                   collision
     00000CFE  A$lcc1887627$122                   collision
     00000D00  A$lcc1887627$123                   collision
     00000D01  A$lcc1887627$124                   collision
     00000D02  A$lcc1887627$125                   collision
     00000D03  A$lcc1887627$126                   collision
     00000D05  A$lcc1887627$127                   collision
     00000D06  A$lcc1887627$128                   collision
     00000D07  A$lcc1887627$129                   collision
     00000D08  A$lcc1887627$130                   collision
     00000D09  A$lcc1887627$131                   collision
     00000D0B  A$lcc1887627$132                   collision
     00000D0C  A$lcc1887627$133                   collision
     00000D0D  A$lcc1887627$134                   collision
     00000D0E  A$lcc1887627$135                   collision
     00000D0F  A$lcc1887627$136                   collision
     00000D10  A$lcc1887627$137                   collision
     00000D12  A$lcc1887627$141                   collision
     00000D12  C$collision.c$11$1_0$3             collision
     00000D13  A$lcc1887627$142                   collision
     00000D14  A$lcc1887627$143                   collision
     00000D15  A$lcc1887627$144                   collision
     00000D16  A$lcc1887627$145                   collision
     00000D17  A$lcc1887627$146                   collision
     00000D19  A$lcc1887627$147                   collision
     00000D1A  A$lcc1887627$148                   collision
ASxxxx Linker V03.00/V05.40 + sdld,  page 20.
Hexadecimal  [32-Bits]

Area                                    Addr        Size        Decimal Bytes (Attributes)
--------------------------------        ----        ----        ------- ----- ------------
_CODE                               00000200    00002BB8 =       11192. bytes (REL,CON)

      Value  Global                              Global Defined In Module
      -----  --------------------------------   ------------------------
     00000D1B  A$lcc1887627$149                   collision
     00000D1C  A$lcc1887627$150                   collision
     00000D1D  A$lcc1887627$151                   collision
     00000D1F  A$lcc1887627$153                   collision
     00000D20  A$lcc1887627$154                   collision
     00000D22  A$lcc1887627$156                   collision
     00000D24  A$lcc1887627$161                   collision
     00000D24  C$collision.c$12$1_0$3             collision
     00000D26  A$lcc1887627$162                   collision
     00000D27  A$lcc1887627$163                   collision
     00000D29  A$lcc1887627$164                   collision
     00000D2A  A$lcc1887628$53                    draw
     00000D2A  C$draw.c$7$0_0$139                 draw
     00000D2A  G$draw_actor$0$0                   draw
     00000D2A  _draw_actor                        draw
     00000D2C  A$lcc1887628$54                    draw
     00000D2E  A$lcc1887628$55                    draw
     00000D2F  A$lcc1887628$59                    draw
     00000D2F  C$draw.c$9$1_0$139                 draw
     00000D32  A$lcc1887628$60                    draw
     00000D33  A$lcc1887628$61                    draw
     00000D35  A$lcc1887628$62                    draw
     00000D36  A$lcc1887628$63                    draw
     00000D37  A$lcc1887628$64                    draw
     00000D38  A$lcc1887628$65                    draw
     00000D39  A$lcc1887628$66                    draw
     00000D3B  A$lcc1887628$67                    draw
     00000D3C  A$lcc1887628$71                    draw
     00000D3C  C$draw.c$10$1_0$139                draw
     00000D3F  A$lcc1887628$72                    draw
     00000D41  A$lcc1887628$73                    draw
     00000D42  A$lcc1887628$74                    draw
     00000D44  A$lcc1887628$75                    draw
     00000D45  A$lcc1887628$76                    draw
     00000D46  A$lcc1887628$77                    draw
     00000D47  A$lcc1887628$78                    draw
     00000D48  A$lcc1887628$79                    draw
     00000D4A  A$lcc1887628$80                    draw
     00000D4B  A$lcc1887628$84                    draw
     00000D4B  C$draw.c$12$1_0$139                draw
     00000D4E  A$lcc1887628$85                    draw
     00000D50  A$lcc1887628$86                    draw
     00000D51  A$lcc1887628$87                    draw
     00000D53  A$lcc1887628$88                    draw
     00000D54  A$lcc1887628$89                    draw
     00000D55  A$lcc1887628$90                    draw
     00000D56  A$lcc1887628$91                    draw
     00000D57  A$lcc1887628$92                    draw
     00000D58  A$lcc1887628$93                    draw
     00000D59  A$lcc1887628$94                    draw
     00000D5A  A$lcc1887628$95                    draw
ASxxxx Linker V03.00/V05.40 + sdld,  page 21.
Hexadecimal  [32-Bits]

Area                                    Addr        Size        Decimal Bytes (Attributes)
--------------------------------        ----        ----        ------- ----- ------------
_CODE                               00000200    00002BB8 =       11192. bytes (REL,CON)

      Value  Global                              Global Defined In Module
      -----  --------------------------------   ------------------------
     00000D5B  A$lcc1887628$96                    draw
     00000D5C  A$lcc1887628$97                    draw
     00000D5D  A$lcc1887628$98                    draw
     00000D5E  A$lcc1887628$99                    draw
     00000D5F  A$lcc1887628$103                   draw
     00000D5F  C$draw.c$13$1_0$139                draw
     00000D62  A$lcc1887628$104                   draw
     00000D63  A$lcc1887628$105                   draw
     00000D64  A$lcc1887628$106                   draw
     00000D65  A$lcc1887628$107                   draw
     00000D66  A$lcc1887628$108                   draw
     00000D67  A$lcc1887628$109                   draw
     00000D68  A$lcc1887628$110                   draw
     00000D69  A$lcc1887628$111                   draw
     00000D6A  A$lcc1887628$112                   draw
     00000D6C  A$lcc1887628$113                   draw
     00000D6D  A$lcc1887628$114                   draw
     00000D6E  A$lcc1887628$118                   draw
     00000D6E  C$draw.c$15$1_0$139                draw
     00000D71  A$lcc1887628$119                   draw
     00000D72  A$lcc1887628$120                   draw
     00000D73  A$lcc1887628$121                   draw
     00000D75  A$lcc1887628$122                   draw
     00000D76  A$lcc1887628$126                   draw
     00000D76  C$draw.c$16$1_0$139                draw
     00000D77  A$lcc1887628$127                   draw
     00000D78  A$lcc1887628$128                   draw
     00000D79  A$lcc1887628$129                   draw
     00000D7A  A$lcc1887628$130                   draw
     00000D7B  A$lcc1887628$131                   draw
     00000D7C  A$lcc1887628$132                   draw
     00000D7F  A$lcc1887628$133                   draw
     00000D80  A$lcc1887628$134                   draw
     00000D81  A$lcc1887628$135                   draw
     00000D82  A$lcc1887628$136                   draw
     00000D84  A$lcc1887628$140                   draw
     00000D84  C$draw.c$18$1_0$139                draw
     00000D85  A$lcc1887628$141                   draw
     00000D86  A$lcc1887628$142                   draw
     00000D87  A$lcc1887628$143                   draw
     00000D88  A$lcc1887628$144                   draw
     00000D89  A$lcc1887628$148                   draw
     00000D89  C$draw.c$19$1_0$139                draw
     00000D8B  A$lcc1887628$149                   draw
     00000D8C  A$lcc1887628$150                   draw
     00000D8D  A$lcc1887628$151                   draw
     00000D8E  A$lcc1887628$152                   draw
     00000D8F  A$lcc1887628$153                   draw
     00000D90  A$lcc1887628$154                   draw
     00000D91  A$lcc1887628$155                   draw
     00000D92  A$lcc1887628$156                   draw
ASxxxx Linker V03.00/V05.40 + sdld,  page 22.
Hexadecimal  [32-Bits]

Area                                    Addr        Size        Decimal Bytes (Attributes)
--------------------------------        ----        ----        ------- ----- ------------
_CODE                               00000200    00002BB8 =       11192. bytes (REL,CON)

      Value  Global                              Global Defined In Module
      -----  --------------------------------   ------------------------
     00000D93  A$lcc1887628$157                   draw
     00000D94  A$lcc1887628$158                   draw
     00000D95  A$lcc1887628$159                   draw
     00000D96  A$lcc1887628$160                   draw
     00000D97  A$lcc1887628$161                   draw
     00000D98  A$lcc1887628$162                   draw
     00000D99  A$lcc1887628$166                   draw
     00000D99  C$draw.c$21$2_0$140                draw
     00000D9B  A$lcc1887628$167                   draw
     00000D9C  A$lcc1887628$174                   draw
     00000D9C  C$draw.c$22$2_0$140                draw
     00000D9C  C$draw.c$25$2_0$139                draw
     00000D9F  A$lcc1887628$175                   draw
     00000DA1  A$lcc1887628$177                   draw
     00000DA2  A$lcc1887628$178                   draw
     00000DA4  A$lcc1887628$179                   draw
     00000DA5  A$lcc1887628$180                   draw
     00000DA7  A$lcc1887628$182                   draw
     00000DA8  A$lcc1887628$183                   draw
     00000DA9  A$lcc1887628$184                   draw
     00000DAA  A$lcc1887628$185                   draw
     00000DAB  A$lcc1887628$186                   draw
     00000DAC  A$lcc1887628$187                   draw
     00000DAE  A$lcc1887628$188                   draw
     00000DB1  A$lcc1887628$189                   draw
     00000DB2  A$lcc1887628$190                   draw
     00000DB3  A$lcc1887628$191                   draw
     00000DB4  A$lcc1887628$192                   draw
     00000DB5  A$lcc1887628$194                   draw
     00000DB6  A$lcc1887628$195                   draw
     00000DB7  A$lcc1887628$196                   draw
     00000DB8  A$lcc1887628$197                   draw
     00000DB9  A$lcc1887628$198                   draw
     00000DBA  A$lcc1887628$199                   draw
     00000DBB  A$lcc1887628$200                   draw
     00000DBE  A$lcc1887628$201                   draw
     00000DBF  A$lcc1887628$202                   draw
     00000DC0  A$lcc1887628$203                   draw
     00000DC1  A$lcc1887628$204                   draw
     00000DC2  A$lcc1887628$205                   draw
     00000DC3  A$lcc1887628$209                   draw
     00000DC3  C$draw.c$25$2_0$141                draw
     00000DC4  A$lcc1887628$210                   draw
     00000DC6  A$lcc1887628$215                   draw
     00000DC6  C$draw.c$29$2_0$142                draw
     00000DC8  A$lcc1887628$216                   draw
     00000DC9  A$lcc1887628$217                   draw
     00000DCA  A$lcc1887628$218                   draw
     00000DCC  A$lcc1887628$220                   draw
     00000DCE  A$lcc1887628$221                   draw
     00000DCF  A$lcc1887628$223                   draw
ASxxxx Linker V03.00/V05.40 + sdld,  page 23.
Hexadecimal  [32-Bits]

Area                                    Addr        Size        Decimal Bytes (Attributes)
--------------------------------        ----        ----        ------- ----- ------------
_CODE                               00000200    00002BB8 =       11192. bytes (REL,CON)

      Value  Global                              Global Defined In Module
      -----  --------------------------------   ------------------------
     00000DD0  A$lcc1887628$224                   draw
     00000DD1  A$lcc1887628$225                   draw
     00000DD2  A$lcc1887628$226                   draw
     00000DD3  A$lcc1887628$227                   draw
     00000DD4  A$lcc1887628$228                   draw
     00000DD7  A$lcc1887628$229                   draw
     00000DD8  A$lcc1887628$230                   draw
     00000DD9  A$lcc1887628$231                   draw
     00000DDA  A$lcc1887628$233                   draw
     00000DDC  A$lcc1887628$234                   draw
     00000DDD  A$lcc1887628$235                   draw
     00000DDE  A$lcc1887628$236                   draw
     00000DDF  A$lcc1887628$237                   draw
     00000DE0  A$lcc1887628$238                   draw
     00000DE1  A$lcc1887628$242                   draw
     00000DE1  C$draw.c$31$2_0$142                draw
     00000DE4  A$lcc1887628$247                   draw
     00000DE4  C$draw.c$33$3_0$144                draw
     00000DE6  A$lcc1887628$248                   draw
     00000DE7  A$lcc1887628$249                   draw
     00000DE9  A$lcc1887628$250                   draw
     00000DEB  A$lcc1887628$254                   draw
     00000DEE  A$lcc1887628$255                   draw
     00000DF0  A$lcc1887628$256                   draw
     00000DF1  A$lcc1887628$257                   draw
     00000DF3  A$lcc1887628$258                   draw
     00000DF4  A$lcc1887628$259                   draw
     00000DF5  A$lcc1887628$260                   draw
     00000DF6  A$lcc1887628$261                   draw
     00000DF7  A$lcc1887628$262                   draw
     00000DF8  A$lcc1887628$266                   draw
     00000DF8  C$draw.c$31$2_0$139                draw
     00000DFA  A$lcc1887628$267                   draw
     00000DFB  A$lcc1887628$271                   draw
     00000DFB  C$draw.c$35$5_0$146                draw
     00000DFD  A$lcc1887628$272                   draw
     00000DFF  A$lcc1887628$275                   draw
     00000E00  A$lcc1887628$276                   draw
     00000E01  A$lcc1887628$277                   draw
     00000E02  A$lcc1887628$278                   draw
     00000E03  A$lcc1887628$279                   draw
     00000E04  A$lcc1887628$280                   draw
     00000E07  A$lcc1887628$281                   draw
     00000E08  A$lcc1887628$282                   draw
     00000E09  A$lcc1887628$283                   draw
     00000E0A  A$lcc1887628$285                   draw
     00000E0C  A$lcc1887628$286                   draw
     00000E0D  A$lcc1887628$287                   draw
     00000E0E  A$lcc1887628$288                   draw
     00000E0F  A$lcc1887628$290                   draw
     00000E10  A$lcc1887628$291                   draw
ASxxxx Linker V03.00/V05.40 + sdld,  page 24.
Hexadecimal  [32-Bits]

Area                                    Addr        Size        Decimal Bytes (Attributes)
--------------------------------        ----        ----        ------- ----- ------------
_CODE                               00000200    00002BB8 =       11192. bytes (REL,CON)

      Value  Global                              Global Defined In Module
      -----  --------------------------------   ------------------------
     00000E11  A$lcc1887628$292                   draw
     00000E12  A$lcc1887628$293                   draw
     00000E14  A$lcc1887628$294                   draw
     00000E15  A$lcc1887628$295                   draw
     00000E17  A$lcc1887628$297                   draw
     00000E18  A$lcc1887628$298                   draw
     00000E1B  A$lcc1887628$299                   draw
     00000E1C  A$lcc1887628$300                   draw
     00000E1D  A$lcc1887628$301                   draw
     00000E1E  A$lcc1887628$302                   draw
     00000E1F  A$lcc1887628$303                   draw
     00000E20  A$lcc1887628$304                   draw
     00000E21  A$lcc1887628$305                   draw
     00000E22  A$lcc1887628$307                   draw
     00000E23  A$lcc1887628$308                   draw
     00000E24  A$lcc1887628$309                   draw
     00000E25  A$lcc1887628$310                   draw
     00000E27  A$lcc1887628$311                   draw
     00000E28  A$lcc1887628$312                   draw
     00000E29  A$lcc1887628$316                   draw
     00000E29  C$draw.c$38$5_0$146                draw
     00000E2C  A$lcc1887628$320                   draw
     00000E2D  A$lcc1887628$321                   draw
     00000E2E  A$lcc1887628$322                   draw
     00000E2F  A$lcc1887628$323                   draw
     00000E30  A$lcc1887628$324                   draw
     00000E31  A$lcc1887628$325                   draw
     00000E34  A$lcc1887628$326                   draw
     00000E35  A$lcc1887628$327                   draw
     00000E36  A$lcc1887628$328                   draw
     00000E37  A$lcc1887628$330                   draw
     00000E39  A$lcc1887628$331                   draw
     00000E3A  A$lcc1887628$332                   draw
     00000E3B  A$lcc1887628$333                   draw
     00000E3C  A$lcc1887628$334                   draw
     00000E3D  A$lcc1887628$335                   draw
     00000E3E  A$lcc1887628$337                   draw
     00000E3F  A$lcc1887628$338                   draw
     00000E41  A$lcc1887628$339                   draw
     00000E42  A$lcc1887628$340                   draw
     00000E44  A$lcc1887628$342                   draw
     00000E45  A$lcc1887628$343                   draw
     00000E46  A$lcc1887628$344                   draw
     00000E47  A$lcc1887628$345                   draw
     00000E48  A$lcc1887628$346                   draw
     00000E49  A$lcc1887628$347                   draw
     00000E4C  A$lcc1887628$348                   draw
     00000E4D  A$lcc1887628$350                   draw
     00000E4E  A$lcc1887628$351                   draw
     00000E50  A$lcc1887628$352                   draw
     00000E51  A$lcc1887628$353                   draw
ASxxxx Linker V03.00/V05.40 + sdld,  page 25.
Hexadecimal  [32-Bits]

Area                                    Addr        Size        Decimal Bytes (Attributes)
--------------------------------        ----        ----        ------- ----- ------------
_CODE                               00000200    00002BB8 =       11192. bytes (REL,CON)

      Value  Global                              Global Defined In Module
      -----  --------------------------------   ------------------------
     00000E52  A$lcc1887628$354                   draw
     00000E53  A$lcc1887628$355                   draw
     00000E54  A$lcc1887628$359                   draw
     00000E54  C$draw.c$43$3_0$144                draw
     00000E56  A$lcc1887628$364                   draw
     00000E56  C$draw.c$46$4_0$149                draw
     00000E58  A$lcc1887628$365                   draw
     00000E59  A$lcc1887628$366                   draw
     00000E5B  A$lcc1887628$367                   draw
     00000E5D  A$lcc1887628$369                   draw
     00000E5F  A$lcc1887628$370                   draw
     00000E60  A$lcc1887628$372                   draw
     00000E61  A$lcc1887628$373                   draw
     00000E62  A$lcc1887628$374                   draw
     00000E63  A$lcc1887628$375                   draw
     00000E64  A$lcc1887628$376                   draw
     00000E65  A$lcc1887628$377                   draw
     00000E68  A$lcc1887628$378                   draw
     00000E69  A$lcc1887628$379                   draw
     00000E6A  A$lcc1887628$380                   draw
     00000E6B  A$lcc1887628$382                   draw
     00000E6D  A$lcc1887628$383                   draw
     00000E6E  A$lcc1887628$384                   draw
     00000E6F  A$lcc1887628$385                   draw
     00000E70  A$lcc1887628$386                   draw
     00000E71  A$lcc1887628$387                   draw
     00000E72  A$lcc1887628$389                   draw
     00000E73  A$lcc1887628$390                   draw
     00000E75  A$lcc1887628$391                   draw
     00000E77  A$lcc1887628$392                   draw
     00000E78  A$lcc1887628$393                   draw
     00000E79  A$lcc1887628$394                   draw
     00000E7B  A$lcc1887628$396                   draw
     00000E7C  A$lcc1887628$397                   draw
     00000E7D  A$lcc1887628$398                   draw
     00000E7E  A$lcc1887628$399                   draw
     00000E7F  A$lcc1887628$400                   draw
     00000E80  A$lcc1887628$401                   draw
     00000E83  A$lcc1887628$402                   draw
     00000E84  A$lcc1887628$404                   draw
     00000E85  A$lcc1887628$405                   draw
     00000E87  A$lcc1887628$406                   draw
     00000E88  A$lcc1887628$407                   draw
     00000E89  A$lcc1887628$408                   draw
     00000E8A  A$lcc1887628$409                   draw
     00000E8B  A$lcc1887628$411                   draw
     00000E8D  A$lcc1887628$412                   draw
     00000E8E  A$lcc1887628$413                   draw
     00000E90  A$lcc1887628$414                   draw
     00000E91  A$lcc1887628$415                   draw
     00000E92  A$lcc1887628$416                   draw
ASxxxx Linker V03.00/V05.40 + sdld,  page 26.
Hexadecimal  [32-Bits]

Area                                    Addr        Size        Decimal Bytes (Attributes)
--------------------------------        ----        ----        ------- ----- ------------
_CODE                               00000200    00002BB8 =       11192. bytes (REL,CON)

      Value  Global                              Global Defined In Module
      -----  --------------------------------   ------------------------
     00000E94  A$lcc1887628$418                   draw
     00000E95  A$lcc1887628$419                   draw
     00000E96  A$lcc1887628$420                   draw
     00000E97  A$lcc1887628$421                   draw
     00000E98  A$lcc1887628$422                   draw
     00000E99  A$lcc1887628$423                   draw
     00000E9C  A$lcc1887628$424                   draw
     00000E9D  A$lcc1887628$425                   draw
     00000E9E  A$lcc1887628$426                   draw
     00000E9F  A$lcc1887628$428                   draw
     00000EA1  A$lcc1887628$429                   draw
     00000EA2  A$lcc1887628$430                   draw
     00000EA3  A$lcc1887628$431                   draw
     00000EA4  A$lcc1887628$432                   draw
     00000EA5  A$lcc1887628$434                   draw
     00000EA6  A$lcc1887628$435                   draw
     00000EA7  A$lcc1887628$437                   draw
     00000EA8  A$lcc1887628$438                   draw
     00000EAB  A$lcc1887628$439                   draw
     00000EAC  A$lcc1887628$440                   draw
     00000EAD  A$lcc1887628$441                   draw
     00000EAE  A$lcc1887628$442                   draw
     00000EAF  A$lcc1887628$443                   draw
     00000EB0  A$lcc1887628$444                   draw
     00000EB1  A$lcc1887628$445                   draw
     00000EB2  A$lcc1887628$447                   draw
     00000EB3  A$lcc1887628$448                   draw
     00000EB4  A$lcc1887628$449                   draw
     00000EB5  A$lcc1887628$450                   draw
     00000EB7  A$lcc1887628$451                   draw
     00000EB8  A$lcc1887628$452                   draw
     00000EB9  A$lcc1887628$460                   draw
     00000EB9  C$draw.c$51$2_0$139                draw
     00000EBB  A$lcc1887628$465                   draw
     00000EBB  C$draw.c$53$2_0$139                draw
     00000EBB  XG$draw_actor$0$0                  draw
     00000EBC  A$lcc1887628$475                   draw
     00000EBC  C$draw.c$55$2_0$182                draw
     00000EBC  G$draw_extra$0$0                   draw
     00000EBC  _draw_extra                        draw
     00000EBE  A$lcc1887628$476                   draw
     00000EBF  A$lcc1887628$477                   draw
     00000EC1  A$lcc1887628$478                   draw
     00000EC2  A$lcc1887628$482                   draw
     00000EC2  C$draw.c$58$1_0$182                draw
     00000EC4  A$lcc1887628$483                   draw
     00000EC5  A$lcc1887628$484                   draw
     00000EC6  A$lcc1887628$485                   draw
     00000EC7  A$lcc1887628$486                   draw
     00000EC8  A$lcc1887628$487                   draw
     00000ECB  A$lcc1887628$488                   draw
ASxxxx Linker V03.00/V05.40 + sdld,  page 27.
Hexadecimal  [32-Bits]

Area                                    Addr        Size        Decimal Bytes (Attributes)
--------------------------------        ----        ----        ------- ----- ------------
_CODE                               00000200    00002BB8 =       11192. bytes (REL,CON)

      Value  Global                              Global Defined In Module
      -----  --------------------------------   ------------------------
     00000ECC  A$lcc1887628$489                   draw
     00000ECD  A$lcc1887628$490                   draw
     00000ECE  A$lcc1887628$491                   draw
     00000ED0  A$lcc1887628$492                   draw
     00000ED1  A$lcc1887628$496                   draw
     00000ED1  C$draw.c$61$2_0$182                draw
     00000ED3  A$lcc1887628$497                   draw
     00000ED4  A$lcc1887628$498                   draw
     00000ED5  A$lcc1887628$499                   draw
     00000ED8  A$lcc1887628$500                   draw
     00000ED9  A$lcc1887628$501                   draw
     00000EDB  A$lcc1887628$502                   draw
     00000EDD  A$lcc1887628$503                   draw
     00000EDE  A$lcc1887628$507                   draw
     00000EDE  C$draw.c$64$2_0$183                draw
     00000EDF  A$lcc1887628$508                   draw
     00000EE1  A$lcc1887628$509                   draw
     00000EE3  A$lcc1887628$510                   draw
     00000EE4  A$lcc1887628$511                   draw
     00000EE6  A$lcc1887628$512                   draw
     00000EE7  A$lcc1887628$513                   draw
     00000EE8  A$lcc1887628$514                   draw
     00000EEA  A$lcc1887628$515                   draw
     00000EEB  A$lcc1887628$516                   draw
     00000EED  A$lcc1887628$517                   draw
     00000EEE  A$lcc1887628$524                   draw
     00000EEE  C$draw.c$65$2_0$183                draw
     00000EEE  C$draw.c$68$2_0$182                draw
     00000EF1  A$lcc1887628$525                   draw
     00000EF3  A$lcc1887628$527                   draw
     00000EF4  A$lcc1887628$528                   draw
     00000EF6  A$lcc1887628$529                   draw
     00000EF7  A$lcc1887628$530                   draw
     00000EF9  A$lcc1887628$532                   draw
     00000EFB  A$lcc1887628$533                   draw
     00000EFC  A$lcc1887628$534                   draw
     00000EFD  A$lcc1887628$535                   draw
     00000EFE  A$lcc1887628$536                   draw
     00000EFF  A$lcc1887628$537                   draw
     00000F00  A$lcc1887628$538                   draw
     00000F01  A$lcc1887628$540                   draw
     00000F02  A$lcc1887628$541                   draw
     00000F03  A$lcc1887628$542                   draw
     00000F04  A$lcc1887628$543                   draw
     00000F05  A$lcc1887628$544                   draw
     00000F06  A$lcc1887628$545                   draw
     00000F07  A$lcc1887628$546                   draw
     00000F0A  A$lcc1887628$547                   draw
     00000F0B  A$lcc1887628$548                   draw
     00000F0C  A$lcc1887628$549                   draw
     00000F0D  A$lcc1887628$550                   draw
ASxxxx Linker V03.00/V05.40 + sdld,  page 28.
Hexadecimal  [32-Bits]

Area                                    Addr        Size        Decimal Bytes (Attributes)
--------------------------------        ----        ----        ------- ----- ------------
_CODE                               00000200    00002BB8 =       11192. bytes (REL,CON)

      Value  Global                              Global Defined In Module
      -----  --------------------------------   ------------------------
     00000F0E  A$lcc1887628$551                   draw
     00000F0F  A$lcc1887628$552                   draw
     00000F11  A$lcc1887628$553                   draw
     00000F12  A$lcc1887628$554                   draw
     00000F13  A$lcc1887628$555                   draw
     00000F14  A$lcc1887628$559                   draw
     00000F14  C$draw.c$68$2_0$184                draw
     00000F15  A$lcc1887628$560                   draw
     00000F17  A$lcc1887628$565                   draw
     00000F17  C$draw.c$74$2_0$182                draw
     00000F19  A$lcc1887628$566                   draw
     00000F1A  A$lcc1887628$567                   draw
     00000F1C  A$lcc1887628$568                   draw
     00000F1D  A$lcc1887628$572                   draw
     00000F1D  C$draw.c$72$2_0$185                draw
     00000F1F  A$lcc1887628$573                   draw
     00000F20  A$lcc1887628$574                   draw
     00000F21  A$lcc1887628$575                   draw
     00000F23  A$lcc1887628$577                   draw
     00000F24  A$lcc1887628$578                   draw
     00000F25  A$lcc1887628$579                   draw
     00000F26  A$lcc1887628$580                   draw
     00000F27  A$lcc1887628$581                   draw
     00000F2A  A$lcc1887628$582                   draw
     00000F2B  A$lcc1887628$583                   draw
     00000F2C  A$lcc1887628$584                   draw
     00000F2D  A$lcc1887628$586                   draw
     00000F2F  A$lcc1887628$587                   draw
     00000F30  A$lcc1887628$588                   draw
     00000F31  A$lcc1887628$589                   draw
     00000F32  A$lcc1887628$590                   draw
     00000F34  A$lcc1887628$591                   draw
     00000F35  A$lcc1887628$592                   draw
     00000F36  A$lcc1887628$596                   draw
     00000F36  C$draw.c$74$2_0$185                draw
     00000F39  A$lcc1887628$601                   draw
     00000F39  C$draw.c$76$3_0$187                draw
     00000F3B  A$lcc1887628$602                   draw
     00000F3C  A$lcc1887628$603                   draw
     00000F3E  A$lcc1887628$604                   draw
     00000F40  A$lcc1887628$608                   draw
     00000F40  C$draw.c$78$5_0$189                draw
     00000F42  A$lcc1887628$609                   draw
     00000F43  A$lcc1887628$610                   draw
     00000F44  A$lcc1887628$611                   draw
     00000F46  A$lcc1887628$613                   draw
     00000F47  A$lcc1887628$614                   draw
     00000F48  A$lcc1887628$615                   draw
     00000F49  A$lcc1887628$616                   draw
     00000F4A  A$lcc1887628$617                   draw
     00000F4D  A$lcc1887628$618                   draw
ASxxxx Linker V03.00/V05.40 + sdld,  page 29.
Hexadecimal  [32-Bits]

Area                                    Addr        Size        Decimal Bytes (Attributes)
--------------------------------        ----        ----        ------- ----- ------------
_CODE                               00000200    00002BB8 =       11192. bytes (REL,CON)

      Value  Global                              Global Defined In Module
      -----  --------------------------------   ------------------------
     00000F4E  A$lcc1887628$619                   draw
     00000F4F  A$lcc1887628$620                   draw
     00000F50  A$lcc1887628$622                   draw
     00000F52  A$lcc1887628$623                   draw
     00000F53  A$lcc1887628$624                   draw
     00000F54  A$lcc1887628$625                   draw
     00000F55  A$lcc1887628$626                   draw
     00000F57  A$lcc1887628$627                   draw
     00000F58  A$lcc1887628$628                   draw
     00000F59  A$lcc1887628$630                   draw
     00000F5B  A$lcc1887628$631                   draw
     00000F5C  A$lcc1887628$632                   draw
     00000F5D  A$lcc1887628$633                   draw
     00000F5F  A$lcc1887628$634                   draw
     00000F60  A$lcc1887628$635                   draw
     00000F61  A$lcc1887628$636                   draw
     00000F62  A$lcc1887628$638                   draw
     00000F63  A$lcc1887628$639                   draw
     00000F64  A$lcc1887628$640                   draw
     00000F65  A$lcc1887628$641                   draw
     00000F66  A$lcc1887628$642                   draw
     00000F67  A$lcc1887628$643                   draw
     00000F6A  A$lcc1887628$644                   draw
     00000F6B  A$lcc1887628$646                   draw
     00000F6C  A$lcc1887628$647                   draw
     00000F6D  A$lcc1887628$648                   draw
     00000F6E  A$lcc1887628$649                   draw
     00000F6F  A$lcc1887628$650                   draw
     00000F71  A$lcc1887628$651                   draw
     00000F72  A$lcc1887628$652                   draw
     00000F73  A$lcc1887628$656                   draw
     00000F73  C$draw.c$81$5_0$189                draw
     00000F76  A$lcc1887628$659                   draw
     00000F77  A$lcc1887628$660                   draw
     00000F78  A$lcc1887628$661                   draw
     00000F79  A$lcc1887628$662                   draw
     00000F7A  A$lcc1887628$663                   draw
     00000F7D  A$lcc1887628$664                   draw
     00000F7E  A$lcc1887628$665                   draw
     00000F7F  A$lcc1887628$666                   draw
     00000F80  A$lcc1887628$668                   draw
     00000F82  A$lcc1887628$669                   draw
     00000F83  A$lcc1887628$670                   draw
     00000F84  A$lcc1887628$671                   draw
     00000F85  A$lcc1887628$672                   draw
     00000F87  A$lcc1887628$673                   draw
     00000F88  A$lcc1887628$674                   draw
     00000F89  A$lcc1887628$676                   draw
     00000F8A  A$lcc1887628$677                   draw
     00000F8C  A$lcc1887628$678                   draw
     00000F8D  A$lcc1887628$679                   draw
ASxxxx Linker V03.00/V05.40 + sdld,  page 30.
Hexadecimal  [32-Bits]

Area                                    Addr        Size        Decimal Bytes (Attributes)
--------------------------------        ----        ----        ------- ----- ------------
_CODE                               00000200    00002BB8 =       11192. bytes (REL,CON)

      Value  Global                              Global Defined In Module
      -----  --------------------------------   ------------------------
     00000F8E  A$lcc1887628$680                   draw
     00000F8F  A$lcc1887628$682                   draw
     00000F90  A$lcc1887628$683                   draw
     00000F91  A$lcc1887628$684                   draw
     00000F92  A$lcc1887628$685                   draw
     00000F93  A$lcc1887628$686                   draw
     00000F94  A$lcc1887628$687                   draw
     00000F97  A$lcc1887628$688                   draw
     00000F98  A$lcc1887628$690                   draw
     00000F99  A$lcc1887628$691                   draw
     00000F9B  A$lcc1887628$692                   draw
     00000F9C  A$lcc1887628$693                   draw
     00000F9D  A$lcc1887628$694                   draw
     00000F9E  A$lcc1887628$695                   draw
     00000F9F  A$lcc1887628$699                   draw
     00000F9F  C$draw.c$86$3_0$187                draw
     00000FA1  A$lcc1887628$704                   draw
     00000FA1  C$draw.c$89$4_0$192                draw
     00000FA3  A$lcc1887628$705                   draw
     00000FA4  A$lcc1887628$706                   draw
     00000FA6  A$lcc1887628$707                   draw
     00000FA8  A$lcc1887628$709                   draw
     00000FA9  A$lcc1887628$710                   draw
     00000FAA  A$lcc1887628$711                   draw
     00000FAB  A$lcc1887628$712                   draw
     00000FAC  A$lcc1887628$713                   draw
     00000FAF  A$lcc1887628$714                   draw
     00000FB0  A$lcc1887628$715                   draw
     00000FB1  A$lcc1887628$716                   draw
     00000FB2  A$lcc1887628$718                   draw
     00000FB4  A$lcc1887628$719                   draw
     00000FB5  A$lcc1887628$720                   draw
     00000FB6  A$lcc1887628$721                   draw
     00000FB7  A$lcc1887628$722                   draw
     00000FB9  A$lcc1887628$723                   draw
     00000FBA  A$lcc1887628$724                   draw
     00000FBB  A$lcc1887628$726                   draw
     00000FBC  A$lcc1887628$727                   draw
     00000FBD  A$lcc1887628$728                   draw
     00000FBF  A$lcc1887628$729                   draw
     00000FC0  A$lcc1887628$730                   draw
     00000FC1  A$lcc1887628$731                   draw
     00000FC2  A$lcc1887628$732                   draw
     00000FC3  A$lcc1887628$733                   draw
     00000FC4  A$lcc1887628$735                   draw
     00000FC5  A$lcc1887628$736                   draw
     00000FC6  A$lcc1887628$737                   draw
     00000FC7  A$lcc1887628$738                   draw
     00000FC8  A$lcc1887628$739                   draw
     00000FC9  A$lcc1887628$740                   draw
     00000FCC  A$lcc1887628$741                   draw
ASxxxx Linker V03.00/V05.40 + sdld,  page 31.
Hexadecimal  [32-Bits]

Area                                    Addr        Size        Decimal Bytes (Attributes)
--------------------------------        ----        ----        ------- ----- ------------
_CODE                               00000200    00002BB8 =       11192. bytes (REL,CON)

      Value  Global                              Global Defined In Module
      -----  --------------------------------   ------------------------
     00000FCD  A$lcc1887628$743                   draw
     00000FCE  A$lcc1887628$744                   draw
     00000FD0  A$lcc1887628$745                   draw
     00000FD1  A$lcc1887628$746                   draw
     00000FD2  A$lcc1887628$747                   draw
     00000FD3  A$lcc1887628$748                   draw
     00000FD4  A$lcc1887628$750                   draw
     00000FD6  A$lcc1887628$751                   draw
     00000FD7  A$lcc1887628$752                   draw
     00000FD9  A$lcc1887628$753                   draw
     00000FDA  A$lcc1887628$754                   draw
     00000FDB  A$lcc1887628$755                   draw
     00000FDC  A$lcc1887628$756                   draw
     00000FDD  A$lcc1887628$757                   draw
     00000FDE  A$lcc1887628$758                   draw
     00000FDF  A$lcc1887628$760                   draw
     00000FE2  A$lcc1887628$761                   draw
     00000FE3  A$lcc1887628$762                   draw
     00000FE4  A$lcc1887628$763                   draw
     00000FE5  A$lcc1887628$764                   draw
     00000FE6  A$lcc1887628$765                   draw
     00000FE7  A$lcc1887628$766                   draw
     00000FE8  A$lcc1887628$767                   draw
     00000FE9  A$lcc1887628$768                   draw
     00000FEA  A$lcc1887628$770                   draw
     00000FEC  A$lcc1887628$771                   draw
     00000FED  A$lcc1887628$772                   draw
     00000FEE  A$lcc1887628$773                   draw
     00000FEF  A$lcc1887628$774                   draw
     00000FF1  A$lcc1887628$776                   draw
     00000FF2  A$lcc1887628$777                   draw
     00000FF3  A$lcc1887628$778                   draw
     00000FF4  A$lcc1887628$779                   draw
     00000FF5  A$lcc1887628$780                   draw
     00000FF6  A$lcc1887628$781                   draw
     00000FF7  A$lcc1887628$783                   draw
     00000FFA  A$lcc1887628$784                   draw
     00000FFB  A$lcc1887628$785                   draw
     00000FFC  A$lcc1887628$786                   draw
     00000FFD  A$lcc1887628$787                   draw
     00000FFE  A$lcc1887628$788                   draw
     00000FFF  A$lcc1887628$789                   draw
     00001000  A$lcc1887628$790                   draw
     00001001  A$lcc1887628$791                   draw
     00001002  A$lcc1887628$793                   draw
     00001003  A$lcc1887628$794                   draw
     00001004  A$lcc1887628$795                   draw
     00001005  A$lcc1887628$796                   draw
     00001007  A$lcc1887628$797                   draw
     00001008  A$lcc1887628$798                   draw
     00001009  A$lcc1887628$806                   draw
ASxxxx Linker V03.00/V05.40 + sdld,  page 32.
Hexadecimal  [32-Bits]

Area                                    Addr        Size        Decimal Bytes (Attributes)
--------------------------------        ----        ----        ------- ----- ------------
_CODE                               00000200    00002BB8 =       11192. bytes (REL,CON)

      Value  Global                              Global Defined In Module
      -----  --------------------------------   ------------------------
     00001009  C$draw.c$94$2_0$182                draw
     00001009  C$draw.c$96$2_0$182                draw
     0000100B  A$lcc1887628$807                   draw
     0000100C  A$lcc1887628$808                   draw
     0000100E  A$lcc1887628$809                   draw
     0000100F  A$lcc1887629$60                    entity
     0000100F  C$entity.c$7$0_0$3                 entity
     0000100F  C$entity.c$9$2_0$4                 entity
     0000100F  G$create_entity$0$0                entity
     0000100F  _create_entity                     entity
     00001012  A$lcc1887629$61                    entity
     00001014  A$lcc1887629$62                    entity
     00001016  A$lcc1887629$66                    entity
     00001016  C$entity.c$10$3_0$5                entity
     00001017  A$lcc1887629$67                    entity
     00001018  A$lcc1887629$72                    entity
     00001018  C$entity.c$13$1_0$3                entity
     0000101B  A$lcc1887629$73                    entity
     0000101C  A$lcc1887629$74                    entity
     0000101F  A$lcc1887629$75                    entity
     00001020  A$lcc1887629$76                    entity
     00001021  A$lcc1887629$84                    entity
     00001021  C$entity.c$14$1_0$3                entity
     00001021  XG$create_entity$0$0               entity
     00001022  A$lcc1887629$97                    entity
     00001022  C$entity.c$16$1_0$6                entity
     00001022  C$entity.c$18$1_0$6                entity
     00001022  G$reset_entities$0$0               entity
     00001022  _reset_entities                    entity
     00001025  A$lcc1887629$98                    entity
     00001027  A$lcc1887629$106                   entity
     00001027  C$entity.c$19$1_0$6                entity
     00001027  XG$reset_entities$0$0              entity
     00001028  A$lcc1887633$74                    inventory
     00001028  C$inventory.c$15$0_0$144           inventory
     00001028  G$init_arrow$0$0                   inventory
     00001028  _init_arrow                        inventory
     00001029  A$lcc1887633$75                    inventory
     0000102A  A$lcc1887633$79                    inventory
     0000102A  C$inventory.c$16$1_0$144           inventory
     0000102D  A$lcc1887633$80                    inventory
     0000102E  A$lcc1887633$81                    inventory
     00001030  A$lcc1887633$82                    inventory
     00001033  A$lcc1887633$83                    inventory
     00001034  A$lcc1887633$84                    inventory
     00001036  A$lcc1887633$88                    inventory
     00001036  C$inventory.c$17$1_0$144           inventory
     00001039  A$lcc1887633$89                    inventory
     0000103C  A$lcc1887633$90                    inventory
     0000103D  A$lcc1887633$91                    inventory
     0000103F  A$lcc1887633$92                    inventory
ASxxxx Linker V03.00/V05.40 + sdld,  page 33.
Hexadecimal  [32-Bits]

Area                                    Addr        Size        Decimal Bytes (Attributes)
--------------------------------        ----        ----        ------- ----- ------------
_CODE                               00000200    00002BB8 =       11192. bytes (REL,CON)

      Value  Global                              Global Defined In Module
      -----  --------------------------------   ------------------------
     00001040  A$lcc1887633$93                    inventory
     00001042  A$lcc1887633$97                    inventory
     00001042  C$inventory.c$19$1_0$144           inventory
     00001045  A$lcc1887633$98                    inventory
     00001048  A$lcc1887633$99                    inventory
     00001049  A$lcc1887633$100                   inventory
     0000104A  A$lcc1887633$101                   inventory
     0000104C  A$lcc1887633$102                   inventory
     0000104D  A$lcc1887633$103                   inventory
     00001050  A$lcc1887633$104                   inventory
     00001052  A$lcc1887633$105                   inventory
     00001053  A$lcc1887633$106                   inventory
     00001055  A$lcc1887633$107                   inventory
     00001057  A$lcc1887633$108                   inventory
     00001058  A$lcc1887633$109                   inventory
     00001059  A$lcc1887633$110                   inventory
     0000105A  A$lcc1887633$111                   inventory
     0000105B  A$lcc1887633$112                   inventory
     0000105C  A$lcc1887633$113                   inventory
     0000105D  A$lcc1887633$117                   inventory
     0000105D  C$inventory.c$20$1_0$144           inventory
     00001060  A$lcc1887633$118                   inventory
     00001061  A$lcc1887633$119                   inventory
     00001062  A$lcc1887633$120                   inventory
     00001064  A$lcc1887633$121                   inventory
     00001065  A$lcc1887633$122                   inventory
     00001067  A$lcc1887633$123                   inventory
     00001069  A$lcc1887633$124                   inventory
     0000106A  A$lcc1887633$125                   inventory
     0000106B  A$lcc1887633$126                   inventory
     0000106D  A$lcc1887633$127                   inventory
     0000106E  A$lcc1887633$128                   inventory
     0000106F  A$lcc1887633$129                   inventory
     00001070  A$lcc1887633$130                   inventory
     00001071  A$lcc1887633$131                   inventory
     00001072  A$lcc1887633$132                   inventory
     00001073  A$lcc1887633$133                   inventory
     00001074  A$lcc1887633$137                   inventory
     00001074  C$inventory.c$22$1_0$144           inventory
     00001077  A$lcc1887633$138                   inventory
     00001078  A$lcc1887633$139                   inventory
     0000107A  A$lcc1887633$140                   inventory
     0000107D  A$lcc1887633$141                   inventory
     0000107E  A$lcc1887633$142                   inventory
     00001080  A$lcc1887633$146                   inventory
     00001080  C$inventory.c$23$1_0$144           inventory
     00001083  A$lcc1887633$147                   inventory
     00001086  A$lcc1887633$148                   inventory
     00001087  A$lcc1887633$149                   inventory
     00001089  A$lcc1887633$150                   inventory
     0000108A  A$lcc1887633$151                   inventory
ASxxxx Linker V03.00/V05.40 + sdld,  page 34.
Hexadecimal  [32-Bits]

Area                                    Addr        Size        Decimal Bytes (Attributes)
--------------------------------        ----        ----        ------- ----- ------------
_CODE                               00000200    00002BB8 =       11192. bytes (REL,CON)

      Value  Global                              Global Defined In Module
      -----  --------------------------------   ------------------------
     0000108C  A$lcc1887633$155                   inventory
     0000108C  C$inventory.c$24$1_0$144           inventory
     0000108F  A$lcc1887633$156                   inventory
     00001092  A$lcc1887633$157                   inventory
     00001093  A$lcc1887633$158                   inventory
     00001095  A$lcc1887633$159                   inventory
     00001096  A$lcc1887633$160                   inventory
     00001098  A$lcc1887633$164                   inventory
     00001098  C$inventory.c$26$2_0$145           inventory
     0000109A  A$lcc1887633$165                   inventory
     0000109C  A$lcc1887633$166                   inventory
     0000109D  A$lcc1887633$167                   inventory
     0000109F  A$lcc1887633$171                   inventory
     0000109F  C$inventory.c$28$1_1$145           inventory
     000010A2  A$lcc1887633$172                   inventory
     000010A3  A$lcc1887633$173                   inventory
     000010A5  A$lcc1887633$174                   inventory
     000010A6  A$lcc1887633$175                   inventory
     000010A7  A$lcc1887633$176                   inventory
     000010A8  A$lcc1887633$177                   inventory
     000010A9  A$lcc1887633$178                   inventory
     000010AA  A$lcc1887633$179                   inventory
     000010AB  A$lcc1887633$180                   inventory
     000010AC  A$lcc1887633$181                   inventory
     000010AD  A$lcc1887633$182                   inventory
     000010AE  A$lcc1887633$183                   inventory
     000010B1  A$lcc1887633$184                   inventory
     000010B2  A$lcc1887633$185                   inventory
     000010B3  A$lcc1887633$186                   inventory
     000010B4  A$lcc1887633$187                   inventory
     000010B7  A$lcc1887633$188                   inventory
     000010B8  A$lcc1887633$189                   inventory
     000010BA  A$lcc1887633$190                   inventory
     000010BB  A$lcc1887633$191                   inventory
     000010BC  A$lcc1887633$192                   inventory
     000010BF  A$lcc1887633$193                   inventory
     000010C0  A$lcc1887633$194                   inventory
     000010C1  A$lcc1887633$195                   inventory
     000010C2  A$lcc1887633$196                   inventory
     000010C3  A$lcc1887633$197                   inventory
     000010C4  A$lcc1887633$198                   inventory
     000010C5  A$lcc1887633$199                   inventory
     000010C8  A$lcc1887633$203                   inventory
     000010CB  A$lcc1887633$204                   inventory
     000010CC  A$lcc1887633$209                   inventory
     000010CC  C$inventory.c$30$1_1$144           inventory
     000010CC  XG$init_arrow$0$0                  inventory
     000010CD  A$lcc1887633$219                   inventory
     000010CD  C$inventory.c$32$1_1$147           inventory
     000010CD  G$initialize_inventory$0$0         inventory
     000010CD  _initialize_inventory              inventory
ASxxxx Linker V03.00/V05.40 + sdld,  page 35.
Hexadecimal  [32-Bits]

Area                                    Addr        Size        Decimal Bytes (Attributes)
--------------------------------        ----        ----        ------- ----- ------------
_CODE                               00000200    00002BB8 =       11192. bytes (REL,CON)

      Value  Global                              Global Defined In Module
      -----  --------------------------------   ------------------------
     000010CF  A$lcc1887633$223                   inventory
     000010CF  C$inventory.c$33$3_0$148           inventory
     000010D1  A$lcc1887633$224                   inventory
     000010D3  A$lcc1887633$226                   inventory
     000010D5  A$lcc1887633$227                   inventory
     000010D6  A$lcc1887633$228                   inventory
     000010D8  A$lcc1887633$229                   inventory
     000010DA  A$lcc1887633$233                   inventory
     000010DA  C$inventory.c$35$3_0$148           inventory
     000010DB  A$lcc1887633$237                   inventory
     000010DB  C$inventory.c$36$3_0$148           inventory
     000010DC  A$lcc1887633$238                   inventory
     000010DD  A$lcc1887633$239                   inventory
     000010DE  A$lcc1887633$240                   inventory
     000010DF  A$lcc1887633$244                   inventory
     000010DF  C$inventory.c$39$4_0$149           inventory
     000010E0  A$lcc1887633$245                   inventory
     000010E1  A$lcc1887633$246                   inventory
     000010E2  A$lcc1887633$247                   inventory
     000010E3  A$lcc1887633$248                   inventory
     000010E5  A$lcc1887633$252                   inventory
     000010E5  C$inventory.c$40$4_0$149           inventory
     000010E6  A$lcc1887633$253                   inventory
     000010E8  A$lcc1887633$258                   inventory
     000010E8  C$inventory.c$42$3_0$148           inventory
     000010EB  A$lcc1887633$259                   inventory
     000010EC  A$lcc1887633$260                   inventory
     000010ED  A$lcc1887633$261                   inventory
     000010EE  A$lcc1887633$262                   inventory
     000010F0  A$lcc1887633$263                   inventory
     000010F1  A$lcc1887633$264                   inventory
     000010F2  A$lcc1887633$265                   inventory
     000010F3  A$lcc1887633$266                   inventory
     000010F4  A$lcc1887633$267                   inventory
     000010F5  A$lcc1887633$268                   inventory
     000010F8  A$lcc1887633$269                   inventory
     000010F9  A$lcc1887633$270                   inventory
     000010FA  A$lcc1887633$271                   inventory
     000010FB  A$lcc1887633$272                   inventory
     000010FE  A$lcc1887633$273                   inventory
     000010FF  A$lcc1887633$274                   inventory
     00001102  A$lcc1887633$278                   inventory
     00001102  C$inventory.c$33$2_0$147           inventory
     00001104  A$lcc1887633$279                   inventory
     00001105  A$lcc1887633$280                   inventory
     00001107  A$lcc1887633$285                   inventory
     00001109  A$lcc1887633$290                   inventory
     00001109  C$inventory.c$44$2_0$147           inventory
     00001109  XG$initialize_inventory$0$0        inventory
     0000110A  A$lcc1887634$59                    inventory_input
     0000110A  C$inventory_input.c$19$0_0$152     inventory_input
ASxxxx Linker V03.00/V05.40 + sdld,  page 36.
Hexadecimal  [32-Bits]

Area                                    Addr        Size        Decimal Bytes (Attributes)
--------------------------------        ----        ----        ------- ----- ------------
_CODE                               00000200    00002BB8 =       11192. bytes (REL,CON)

      Value  Global                              Global Defined In Module
      -----  --------------------------------   ------------------------
     0000110A  G$inventory_input$0$0              inventory_input
     0000110A  _inventory_input                   inventory_input
     0000110C  A$lcc1887634$63                    inventory_input
     0000110C  C$inventory_input.c$20$2_0$153     inventory_input
     0000110F  A$lcc1887634$64                    inventory_input
     00001111  A$lcc1887634$65                    inventory_input
     00001113  A$lcc1887634$66                    inventory_input
     00001116  A$lcc1887634$67                    inventory_input
     00001118  A$lcc1887634$68                    inventory_input
     0000111A  A$lcc1887634$72                    inventory_input
     0000111A  C$inventory_input.c$21$4_0$155     inventory_input
     0000111D  A$lcc1887634$73                    inventory_input
     0000111E  A$lcc1887634$74                    inventory_input
     00001121  A$lcc1887634$81                    inventory_input
     00001121  C$inventory_input.c$22$4_0$155     inventory_input
     00001121  C$inventory_input.c$23$3_0$154     inventory_input
     00001124  A$lcc1887634$82                    inventory_input
     00001126  A$lcc1887634$86                    inventory_input
     00001126  C$inventory_input.c$24$3_0$154     inventory_input
     00001129  A$lcc1887634$87                    inventory_input
     0000112C  A$lcc1887634$88                    inventory_input
     0000112D  A$lcc1887634$89                    inventory_input
     0000112F  A$lcc1887634$90                    inventory_input
     00001130  A$lcc1887634$91                    inventory_input
     00001132  A$lcc1887634$95                    inventory_input
     00001132  C$inventory_input.c$25$3_0$154     inventory_input
     00001135  A$lcc1887634$96                    inventory_input
     00001138  A$lcc1887634$100                   inventory_input
     00001138  C$inventory_input.c$27$3_0$154     inventory_input
     0000113B  A$lcc1887634$101                   inventory_input
     0000113D  A$lcc1887634$105                   inventory_input
     0000113D  C$inventory_input.c$29$3_0$154     inventory_input
     00001140  A$lcc1887634$106                   inventory_input
     00001141  A$lcc1887634$107                   inventory_input
     00001142  A$lcc1887634$108                   inventory_input
     00001143  A$lcc1887634$109                   inventory_input
     00001146  A$lcc1887634$110                   inventory_input
     00001148  A$lcc1887634$111                   inventory_input
     00001149  A$lcc1887634$112                   inventory_input
     0000114B  A$lcc1887634$113                   inventory_input
     0000114C  A$lcc1887634$114                   inventory_input
     0000114D  A$lcc1887634$115                   inventory_input
     00001150  A$lcc1887634$119                   inventory_input
     00001150  C$inventory_input.c$30$3_0$154     inventory_input
     00001151  A$lcc1887634$120                   inventory_input
     00001154  A$lcc1887634$125                   inventory_input
     00001154  C$inventory_input.c$33$2_0$156     inventory_input
     00001157  A$lcc1887634$126                   inventory_input
     00001159  A$lcc1887634$127                   inventory_input
     0000115B  A$lcc1887634$128                   inventory_input
     0000115E  A$lcc1887634$129                   inventory_input
ASxxxx Linker V03.00/V05.40 + sdld,  page 37.
Hexadecimal  [32-Bits]

Area                                    Addr        Size        Decimal Bytes (Attributes)
--------------------------------        ----        ----        ------- ----- ------------
_CODE                               00000200    00002BB8 =       11192. bytes (REL,CON)

      Value  Global                              Global Defined In Module
      -----  --------------------------------   ------------------------
     00001160  A$lcc1887634$130                   inventory_input
     00001162  A$lcc1887634$134                   inventory_input
     00001162  C$inventory_input.c$34$4_0$158     inventory_input
     00001165  A$lcc1887634$135                   inventory_input
     00001166  A$lcc1887634$136                   inventory_input
     00001169  A$lcc1887634$143                   inventory_input
     00001169  C$inventory_input.c$35$4_0$158     inventory_input
     00001169  C$inventory_input.c$36$3_0$157     inventory_input
     0000116C  A$lcc1887634$144                   inventory_input
     0000116E  A$lcc1887634$148                   inventory_input
     0000116E  C$inventory_input.c$37$3_0$157     inventory_input
     00001171  A$lcc1887634$149                   inventory_input
     00001174  A$lcc1887634$150                   inventory_input
     00001175  A$lcc1887634$151                   inventory_input
     00001177  A$lcc1887634$152                   inventory_input
     00001178  A$lcc1887634$153                   inventory_input
     0000117A  A$lcc1887634$157                   inventory_input
     0000117A  C$inventory_input.c$38$3_0$157     inventory_input
     0000117D  A$lcc1887634$158                   inventory_input
     00001180  A$lcc1887634$162                   inventory_input
     00001180  C$inventory_input.c$40$3_0$157     inventory_input
     00001183  A$lcc1887634$163                   inventory_input
     00001186  A$lcc1887634$167                   inventory_input
     00001186  C$inventory_input.c$41$3_0$157     inventory_input
     00001189  A$lcc1887634$168                   inventory_input
     0000118B  A$lcc1887634$172                   inventory_input
     0000118B  C$inventory_input.c$43$3_0$157     inventory_input
     0000118E  A$lcc1887634$173                   inventory_input
     0000118F  A$lcc1887634$174                   inventory_input
     00001190  A$lcc1887634$175                   inventory_input
     00001191  A$lcc1887634$176                   inventory_input
     00001194  A$lcc1887634$177                   inventory_input
     00001196  A$lcc1887634$178                   inventory_input
     00001197  A$lcc1887634$179                   inventory_input
     00001199  A$lcc1887634$180                   inventory_input
     0000119A  A$lcc1887634$181                   inventory_input
     0000119B  A$lcc1887634$182                   inventory_input
     0000119E  A$lcc1887634$186                   inventory_input
     0000119E  C$inventory_input.c$44$3_0$157     inventory_input
     0000119F  A$lcc1887634$187                   inventory_input
     000011A2  A$lcc1887634$192                   inventory_input
     000011A5  A$lcc1887634$196                   inventory_input
     000011A5  C$inventory_input.c$24$1_1$152     inventory_input
     000011A8  A$lcc1887634$197                   inventory_input
     000011A9  A$lcc1887634$201                   inventory_input
     000011A9  C$inventory_input.c$47$1_1$159     inventory_input
     000011AA  A$lcc1887634$202                   inventory_input
     000011AC  A$lcc1887634$203                   inventory_input
     000011AD  A$lcc1887634$204                   inventory_input
     000011AE  A$lcc1887634$205                   inventory_input
     000011B0  A$lcc1887634$206                   inventory_input
ASxxxx Linker V03.00/V05.40 + sdld,  page 38.
Hexadecimal  [32-Bits]

Area                                    Addr        Size        Decimal Bytes (Attributes)
--------------------------------        ----        ----        ------- ----- ------------
_CODE                               00000200    00002BB8 =       11192. bytes (REL,CON)

      Value  Global                              Global Defined In Module
      -----  --------------------------------   ------------------------
     000011B1  A$lcc1887634$210                   inventory_input
     000011B1  C$inventory_input.c$48$1_1$159     inventory_input
     000011B3  A$lcc1887634$211                   inventory_input
     000011B6  A$lcc1887634$212                   inventory_input
     000011B7  A$lcc1887634$213                   inventory_input
     000011B8  A$lcc1887634$214                   inventory_input
     000011B9  A$lcc1887634$215                   inventory_input
     000011BA  A$lcc1887634$216                   inventory_input
     000011BB  A$lcc1887634$217                   inventory_input
     000011BC  A$lcc1887634$218                   inventory_input
     000011BD  A$lcc1887634$219                   inventory_input
     000011BF  A$lcc1887634$220                   inventory_input
     000011C0  A$lcc1887634$224                   inventory_input
     000011C0  C$inventory_input.c$20$1_1$152     inventory_input
     000011C3  A$lcc1887634$225                   inventory_input
     000011C6  A$lcc1887634$226                   inventory_input
     000011C7  A$lcc1887634$230                   inventory_input
     000011C7  C$inventory_input.c$52$1_1$152     inventory_input
     000011CA  A$lcc1887634$231                   inventory_input
     000011CB  A$lcc1887634$232                   inventory_input
     000011CC  A$lcc1887634$233                   inventory_input
     000011CD  A$lcc1887634$237                   inventory_input
     000011CD  C$inventory_input.c$50$2_1$160     inventory_input
     000011CF  A$lcc1887634$238                   inventory_input
     000011D1  A$lcc1887634$239                   inventory_input
     000011D3  A$lcc1887634$240                   inventory_input
     000011D5  A$lcc1887634$244                   inventory_input
     000011D5  C$inventory_input.c$51$3_1$161     inventory_input
     000011D7  A$lcc1887634$245                   inventory_input
     000011D8  A$lcc1887634$246                   inventory_input
     000011DA  A$lcc1887634$247                   inventory_input
     000011DB  A$lcc1887634$251                   inventory_input
     000011DB  C$inventory_input.c$52$3_1$161     inventory_input
     000011DE  A$lcc1887634$252                   inventory_input
     000011DF  A$lcc1887634$253                   inventory_input
     000011E1  A$lcc1887634$258                   inventory_input
     000011E1  C$inventory_input.c$53$3_1$162     inventory_input
     000011E3  A$lcc1887634$259                   inventory_input
     000011E5  A$lcc1887634$260                   inventory_input
     000011E7  A$lcc1887634$261                   inventory_input
     000011E9  A$lcc1887634$265                   inventory_input
     000011E9  C$inventory_input.c$54$4_1$163     inventory_input
     000011EB  A$lcc1887634$266                   inventory_input
     000011EC  A$lcc1887634$267                   inventory_input
     000011EE  A$lcc1887634$268                   inventory_input
     000011EF  A$lcc1887634$272                   inventory_input
     000011EF  C$inventory_input.c$55$4_1$163     inventory_input
     000011F2  A$lcc1887634$273                   inventory_input
     000011F3  A$lcc1887634$274                   inventory_input
     000011F5  A$lcc1887634$279                   inventory_input
     000011F5  C$inventory_input.c$56$4_1$164     inventory_input
ASxxxx Linker V03.00/V05.40 + sdld,  page 39.
Hexadecimal  [32-Bits]

Area                                    Addr        Size        Decimal Bytes (Attributes)
--------------------------------        ----        ----        ------- ----- ------------
_CODE                               00000200    00002BB8 =       11192. bytes (REL,CON)

      Value  Global                              Global Defined In Module
      -----  --------------------------------   ------------------------
     000011F7  A$lcc1887634$280                   inventory_input
     000011F9  A$lcc1887634$281                   inventory_input
     000011FB  A$lcc1887634$282                   inventory_input
     000011FD  A$lcc1887634$286                   inventory_input
     000011FD  C$inventory_input.c$57$5_1$165     inventory_input
     000011FF  A$lcc1887634$287                   inventory_input
     00001200  A$lcc1887634$288                   inventory_input
     00001202  A$lcc1887634$289                   inventory_input
     00001203  A$lcc1887634$293                   inventory_input
     00001203  C$inventory_input.c$58$5_1$165     inventory_input
     00001206  A$lcc1887634$294                   inventory_input
     00001207  A$lcc1887634$295                   inventory_input
     00001209  A$lcc1887634$300                   inventory_input
     00001209  C$inventory_input.c$59$5_1$166     inventory_input
     0000120B  A$lcc1887634$301                   inventory_input
     0000120D  A$lcc1887634$302                   inventory_input
     0000120F  A$lcc1887634$303                   inventory_input
     00001211  A$lcc1887634$307                   inventory_input
     00001211  C$inventory_input.c$60$6_1$167     inventory_input
     00001213  A$lcc1887634$308                   inventory_input
     00001214  A$lcc1887634$309                   inventory_input
     00001216  A$lcc1887634$310                   inventory_input
     00001217  A$lcc1887634$314                   inventory_input
     00001217  C$inventory_input.c$61$6_1$167     inventory_input
     0000121A  A$lcc1887634$315                   inventory_input
     0000121B  A$lcc1887634$320                   inventory_input
     0000121B  C$inventory_input.c$64$2_1$168     inventory_input
     0000121D  A$lcc1887634$321                   inventory_input
     0000121F  A$lcc1887634$322                   inventory_input
     00001220  A$lcc1887634$323                   inventory_input
     00001222  A$lcc1887634$327                   inventory_input
     00001222  C$inventory_input.c$65$3_1$169     inventory_input
     00001224  A$lcc1887634$331                   inventory_input
     00001224  C$inventory_input.c$66$3_1$169     inventory_input
     00001227  A$lcc1887634$332                   inventory_input
     00001228  A$lcc1887634$333                   inventory_input
     00001229  A$lcc1887634$338                   inventory_input
     00001229  C$inventory_input.c$68$2_1$170     inventory_input
     0000122B  A$lcc1887634$339                   inventory_input
     0000122C  A$lcc1887634$340                   inventory_input
     0000122E  A$lcc1887634$341                   inventory_input
     00001230  A$lcc1887634$345                   inventory_input
     00001230  C$inventory_input.c$69$3_1$171     inventory_input
     00001232  A$lcc1887634$349                   inventory_input
     00001232  C$inventory_input.c$70$3_1$171     inventory_input
     00001235  A$lcc1887634$350                   inventory_input
     00001236  A$lcc1887634$351                   inventory_input
     00001237  A$lcc1887634$356                   inventory_input
     00001237  C$inventory_input.c$73$2_1$172     inventory_input
     00001239  A$lcc1887634$357                   inventory_input
     0000123B  A$lcc1887634$358                   inventory_input
ASxxxx Linker V03.00/V05.40 + sdld,  page 40.
Hexadecimal  [32-Bits]

Area                                    Addr        Size        Decimal Bytes (Attributes)
--------------------------------        ----        ----        ------- ----- ------------
_CODE                               00000200    00002BB8 =       11192. bytes (REL,CON)

      Value  Global                              Global Defined In Module
      -----  --------------------------------   ------------------------
     0000123C  A$lcc1887634$359                   inventory_input
     0000123E  A$lcc1887634$363                   inventory_input
     0000123E  C$inventory_input.c$74$3_1$173     inventory_input
     00001240  A$lcc1887634$367                   inventory_input
     00001240  C$inventory_input.c$75$3_1$173     inventory_input
     00001243  A$lcc1887634$368                   inventory_input
     00001244  A$lcc1887634$373                   inventory_input
     00001244  C$inventory_input.c$77$2_1$174     inventory_input
     00001246  A$lcc1887634$374                   inventory_input
     00001247  A$lcc1887634$375                   inventory_input
     00001249  A$lcc1887634$376                   inventory_input
     0000124B  A$lcc1887634$380                   inventory_input
     0000124B  C$inventory_input.c$78$3_1$175     inventory_input
     0000124D  A$lcc1887634$384                   inventory_input
     0000124D  C$inventory_input.c$79$3_1$175     inventory_input
     00001250  A$lcc1887634$385                   inventory_input
     00001251  A$lcc1887634$390                   inventory_input
     00001251  C$inventory_input.c$82$1_1$159     inventory_input
     00001252  A$lcc1887634$391                   inventory_input
     00001253  A$lcc1887634$392                   inventory_input
     00001255  A$lcc1887634$396                   inventory_input
     00001255  C$inventory_input.c$83$1_1$159     inventory_input
     00001256  A$lcc1887634$397                   inventory_input
     00001257  A$lcc1887634$398                   inventory_input
     0000125A  A$lcc1887634$399                   inventory_input
     0000125B  A$lcc1887634$400                   inventory_input
     0000125C  A$lcc1887634$401                   inventory_input
     0000125E  A$lcc1887634$402                   inventory_input
     0000125F  A$lcc1887634$403                   inventory_input
     00001260  A$lcc1887634$404                   inventory_input
     00001261  A$lcc1887634$405                   inventory_input
     00001262  A$lcc1887634$410                   inventory_input
     00001264  A$lcc1887634$415                   inventory_input
     00001264  C$inventory_input.c$84$1_1$152     inventory_input
     00001264  XG$inventory_input$0$0             inventory_input
     00001265  G$top_limit$0_0$0                  inventory_input
     00001265  _top_limit                         inventory_input
     00001266  G$bottom_limit$0_0$0               inventory_input
     00001266  _bottom_limit                      inventory_input
     00001267  G$left_limit$0_0$0                 inventory_input
     00001267  _left_limit                        inventory_input
     00001268  G$right_limit$0_0$0                inventory_input
     00001268  _right_limit                       inventory_input
     00001269  G$VERTICAL_MOVEMENT$0_0$0          inventory_input
     00001269  _VERTICAL_MOVEMENT                 inventory_input
     0000126A  G$HORIZONTAL_MOVEMENT$0_0$0        inventory_input
     0000126A  _HORIZONTAL_MOVEMENT               inventory_input
     0000126B  A$lcc1887635$64                    load
     0000126B  C$load.c$10$0_0$134                load
     0000126B  G$load_actor_tiles$0$0             load
     0000126B  _load_actor_tiles                  load
ASxxxx Linker V03.00/V05.40 + sdld,  page 41.
Hexadecimal  [32-Bits]

Area                                    Addr        Size        Decimal Bytes (Attributes)
--------------------------------        ----        ----        ------- ----- ------------
_CODE                               00000200    00002BB8 =       11192. bytes (REL,CON)

      Value  Global                              Global Defined In Module
      -----  --------------------------------   ------------------------
     0000126D  A$lcc1887635$65                    load
     0000126F  A$lcc1887635$66                    load
     00001270  A$lcc1887635$67                    load
     00001271  A$lcc1887635$68                    load
     00001272  A$lcc1887635$69                    load
     00001273  A$lcc1887635$70                    load
     00001274  A$lcc1887635$74                    load
     00001274  C$load.c$12$2_0$134                load
     00001277  A$lcc1887635$75                    load
     00001278  A$lcc1887635$79                    load
     00001278  C$load.c$15$1_0$134                load
     0000127A  A$lcc1887635$81                    load
     0000127B  A$lcc1887635$82                    load
     0000127D  A$lcc1887635$83                    load
     0000127E  A$lcc1887635$84                    load
     00001280  A$lcc1887635$88                    load
     00001280  C$load.c$17$3_0$136                load
     00001281  A$lcc1887635$89                    load
     00001283  A$lcc1887635$90                    load
     00001284  A$lcc1887635$91                    load
     00001285  A$lcc1887635$92                    load
     00001286  A$lcc1887635$93                    load
     00001288  A$lcc1887635$94                    load
     00001289  A$lcc1887635$95                    load
     0000128A  A$lcc1887635$96                    load
     0000128B  A$lcc1887635$97                    load
     0000128C  A$lcc1887635$98                    load
     0000128D  A$lcc1887635$99                    load
     0000128E  A$lcc1887635$100                   load
     0000128F  A$lcc1887635$101                   load
     00001290  A$lcc1887635$102                   load
     00001291  A$lcc1887635$103                   load
     00001292  A$lcc1887635$104                   load
     00001293  A$lcc1887635$105                   load
     00001294  A$lcc1887635$106                   load
     00001295  A$lcc1887635$107                   load
     00001296  A$lcc1887635$108                   load
     00001297  A$lcc1887635$109                   load
     00001298  A$lcc1887635$110                   load
     00001299  A$lcc1887635$111                   load
     0000129B  A$lcc1887635$112                   load
     0000129C  A$lcc1887635$113                   load
     0000129D  A$lcc1887635$114                   load
     0000129E  A$lcc1887635$115                   load
     0000129F  A$lcc1887635$116                   load
     000012A2  A$lcc1887635$117                   load
     000012A4  A$lcc1887635$121                   load
     000012A4  C$load.c$15$2_0$135                load
     000012A5  A$lcc1887635$122                   load
     000012A7  A$lcc1887635$127                   load
     000012A7  C$load.c$21$1_0$134                load
ASxxxx Linker V03.00/V05.40 + sdld,  page 42.
Hexadecimal  [32-Bits]

Area                                    Addr        Size        Decimal Bytes (Attributes)
--------------------------------        ----        ----        ------- ----- ------------
_CODE                               00000200    00002BB8 =       11192. bytes (REL,CON)

      Value  Global                              Global Defined In Module
      -----  --------------------------------   ------------------------
     000012AA  A$lcc1887635$128                   load
     000012AC  A$lcc1887635$129                   load
     000012AD  A$lcc1887635$130                   load
     000012AF  A$lcc1887635$131                   load
     000012B0  A$lcc1887635$132                   load
     000012B1  A$lcc1887635$133                   load
     000012B2  A$lcc1887635$134                   load
     000012B3  A$lcc1887635$135                   load
     000012B4  A$lcc1887635$139                   load
     000012B4  C$load.c$22$1_0$134                load
     000012B7  A$lcc1887635$140                   load
     000012B9  A$lcc1887635$141                   load
     000012BA  A$lcc1887635$142                   load
     000012BC  A$lcc1887635$143                   load
     000012BD  A$lcc1887635$144                   load
     000012BE  A$lcc1887635$145                   load
     000012BF  A$lcc1887635$146                   load
     000012C1  A$lcc1887635$147                   load
     000012C2  A$lcc1887635$148                   load
     000012C3  A$lcc1887635$152                   load
     000012C3  C$load.c$25$1_0$134                load
     000012C6  A$lcc1887635$153                   load
     000012C8  A$lcc1887635$154                   load
     000012C9  A$lcc1887635$155                   load
     000012CC  A$lcc1887635$159                   load
     000012CC  C$load.c$27$1_0$134                load
     000012CD  A$lcc1887635$163                   load
     000012CD  C$load.c$28$1_0$134                load
     000012CF  A$lcc1887635$164                   load
     000012D0  A$lcc1887635$165                   load
     000012D1  A$lcc1887635$166                   load
     000012D2  A$lcc1887635$176                   load
     000012D2  C$load.c$30$1_0$138                load
     000012D2  G$load_extra_tiles$0$0             load
     000012D2  _load_extra_tiles                  load
     000012D4  A$lcc1887635$177                   load
     000012D5  A$lcc1887635$181                   load
     000012D5  C$load.c$32$2_0$139                load
     000012D8  A$lcc1887635$182                   load
     000012D9  A$lcc1887635$183                   load
     000012DB  A$lcc1887635$184                   load
     000012DD  A$lcc1887635$188                   load
     000012DD  C$load.c$33$2_0$139                load
     000012DF  A$lcc1887635$193                   load
     000012DF  C$load.c$35$2_0$140                load
     000012E2  A$lcc1887635$194                   load
     000012E3  A$lcc1887635$198                   load
     000012E3  C$load.c$37$1_1$140                load
     000012E4  A$lcc1887635$199                   load
     000012E6  A$lcc1887635$200                   load
     000012E7  A$lcc1887635$201                   load
ASxxxx Linker V03.00/V05.40 + sdld,  page 43.
Hexadecimal  [32-Bits]

Area                                    Addr        Size        Decimal Bytes (Attributes)
--------------------------------        ----        ----        ------- ----- ------------
_CODE                               00000200    00002BB8 =       11192. bytes (REL,CON)

      Value  Global                              Global Defined In Module
      -----  --------------------------------   ------------------------
     000012E8  A$lcc1887635$202                   load
     000012E9  A$lcc1887635$203                   load
     000012EA  A$lcc1887635$204                   load
     000012EB  A$lcc1887635$205                   load
     000012EE  A$lcc1887635$206                   load
     000012F0  A$lcc1887635$210                   load
     000012F0  C$load.c$39$1_1$140                load
     000012F3  A$lcc1887635$211                   load
     000012F5  A$lcc1887635$212                   load
     000012F6  A$lcc1887635$213                   load
     000012F9  A$lcc1887635$217                   load
     000012F9  C$load.c$42$1_2$141                load
     000012FB  A$lcc1887635$218                   load
     000012FC  A$lcc1887635$222                   load
     000012FC  C$load.c$43$1_2$141                load
     000012FE  A$lcc1887635$223                   load
     000012FF  A$lcc1887635$224                   load
     00001301  A$lcc1887635$228                   load
     00001301  C$load.c$44$1_2$141                load
     00001302  A$lcc1887635$229                   load
     00001303  A$lcc1887635$233                   load
     00001303  C$load.c$46$1_2$141                load
     00001306  A$lcc1887635$234                   load
     00001307  A$lcc1887635$235                   load
     00001309  A$lcc1887635$236                   load
     0000130A  A$lcc1887635$237                   load
     0000130B  A$lcc1887635$238                   load
     0000130C  A$lcc1887635$239                   load
     0000130D  A$lcc1887635$240                   load
     00001310  A$lcc1887635$241                   load
     00001311  A$lcc1887635$242                   load
     00001312  A$lcc1887635$243                   load
     00001313  A$lcc1887635$244                   load
     00001316  A$lcc1887635$245                   load
     00001317  A$lcc1887635$246                   load
     0000131A  A$lcc1887635$247                   load
     0000131B  A$lcc1887635$248                   load
     0000131C  A$lcc1887635$249                   load
     0000131D  A$lcc1887635$250                   load
     00001320  A$lcc1887635$254                   load
     00001320  C$load.c$48$1_2$141                load
     00001323  A$lcc1887635$255                   load
     00001324  A$lcc1887635$256                   load
     00001327  A$lcc1887635$257                   load
     00001328  A$lcc1887635$258                   load
     00001329  A$lcc1887635$262                   load
     00001329  C$load.c$49$1_2$138                load
     0000132B  A$lcc1887635$263                   load
     0000132C  A$lcc1887635$264                   load
     0000132D  A$lcc1887635$265                   load
     0000132E  A$lcc1887635$278                   load
ASxxxx Linker V03.00/V05.40 + sdld,  page 44.
Hexadecimal  [32-Bits]

Area                                    Addr        Size        Decimal Bytes (Attributes)
--------------------------------        ----        ----        ------- ----- ------------
_CODE                               00000200    00002BB8 =       11192. bytes (REL,CON)

      Value  Global                              Global Defined In Module
      -----  --------------------------------   ------------------------
     0000132E  C$load.c$51$1_2$142                load
     0000132E  C$load.c$53$1_0$142                load
     0000132E  G$reset_extra_tiles$0$0            load
     0000132E  _reset_extra_tiles                 load
     00001331  A$lcc1887635$279                   load
     00001333  A$lcc1887635$287                   load
     00001333  C$load.c$54$1_0$142                load
     00001333  XG$reset_extra_tiles$0$0           load
     00001334  A$lcc1887635$300                   load
     00001334  C$load.c$56$1_0$144                load
     00001334  C$load.c$58$3_0$146                load
     00001334  G$reset_render_component$0$0       load
     00001334  _reset_render_component            load
     00001336  A$lcc1887635$302                   load
     00001337  A$lcc1887635$303                   load
     0000133A  A$lcc1887635$304                   load
     0000133B  A$lcc1887635$305                   load
     0000133D  A$lcc1887635$309                   load
     0000133D  C$load.c$60$3_0$146                load
     00001340  A$lcc1887635$310                   load
     00001342  A$lcc1887635$311                   load
     00001343  A$lcc1887635$312                   load
     00001345  A$lcc1887635$316                   load
     00001345  C$load.c$61$3_0$146                load
     00001348  A$lcc1887635$317                   load
     0000134A  A$lcc1887635$318                   load
     0000134B  A$lcc1887635$319                   load
     0000134D  A$lcc1887635$323                   load
     0000134D  C$load.c$58$2_0$145                load
     0000134E  A$lcc1887635$324                   load
     00001350  A$lcc1887635$329                   load
     00001350  C$load.c$64$1_0$144                load
     00001351  A$lcc1887635$330                   load
     00001354  A$lcc1887635$338                   load
     00001354  C$load.c$65$1_0$144                load
     00001354  XG$reset_render_component$0$0      load
     00001355  A$lcc1887636$57                    map_scenes
     00001355  C$map_scenes.c$17$0_0$174          map_scenes
     00001355  G$scene_manager_MapScene$0$0       map_scenes
     00001355  _scene_manager_MapScene            map_scenes
     00001356  A$lcc1887636$61                    map_scenes
     00001356  C$map_scenes.c$19$2_0$174          map_scenes
     00001358  A$lcc1887636$62                    map_scenes
     00001359  A$lcc1887636$63                    map_scenes
     0000135B  A$lcc1887636$64                    map_scenes
     0000135D  A$lcc1887636$65                    map_scenes
     00001360  A$lcc1887636$66                    map_scenes
     00001361  A$lcc1887636$67                    map_scenes
     00001362  A$lcc1887636$68                    map_scenes
     00001363  A$lcc1887636$69                    map_scenes
     00001364  A$lcc1887636$70                    map_scenes
ASxxxx Linker V03.00/V05.40 + sdld,  page 45.
Hexadecimal  [32-Bits]

Area                                    Addr        Size        Decimal Bytes (Attributes)
--------------------------------        ----        ----        ------- ----- ------------
_CODE                               00000200    00002BB8 =       11192. bytes (REL,CON)

      Value  Global                              Global Defined In Module
      -----  --------------------------------   ------------------------
     00001365  A$lcc1887636$71                    map_scenes
     00001366  A$lcc1887636$72                    map_scenes
     00001371  A$lcc1887636$86                    map_scenes
     00001371  C$map_scenes.c$21$3_0$175          map_scenes
     00001371  C$map_scenes.c$22$3_0$175          map_scenes
     00001374  A$lcc1887636$90                    map_scenes
     00001374  C$map_scenes.c$23$3_0$175          map_scenes
     00001377  A$lcc1887636$91                    map_scenes
     00001378  A$lcc1887636$99                    map_scenes
     00001378  C$map_scenes.c$24$3_0$175          map_scenes
     00001378  C$map_scenes.c$25$3_0$175          map_scenes
     0000137B  A$lcc1887636$103                   map_scenes
     0000137B  C$map_scenes.c$26$3_0$175          map_scenes
     0000137E  A$lcc1887636$104                   map_scenes
     0000137F  A$lcc1887636$112                   map_scenes
     0000137F  C$map_scenes.c$27$3_0$175          map_scenes
     0000137F  C$map_scenes.c$28$3_0$175          map_scenes
     00001382  A$lcc1887636$116                   map_scenes
     00001382  C$map_scenes.c$29$3_0$175          map_scenes
     00001385  A$lcc1887636$117                   map_scenes
     00001386  A$lcc1887636$125                   map_scenes
     00001386  C$map_scenes.c$32$3_0$175          map_scenes
     00001386  C$map_scenes.c$33$3_0$175          map_scenes
     00001389  A$lcc1887636$129                   map_scenes
     00001389  C$map_scenes.c$34$3_0$175          map_scenes
     0000138C  A$lcc1887636$130                   map_scenes
     0000138D  A$lcc1887636$138                   map_scenes
     0000138D  C$map_scenes.c$36$3_0$175          map_scenes
     0000138D  C$map_scenes.c$37$3_0$175          map_scenes
     00001390  A$lcc1887636$142                   map_scenes
     00001390  C$map_scenes.c$38$3_0$175          map_scenes
     00001393  A$lcc1887636$143                   map_scenes
     00001394  A$lcc1887636$151                   map_scenes
     00001394  C$map_scenes.c$39$3_0$175          map_scenes
     00001394  C$map_scenes.c$40$3_0$175          map_scenes
     00001397  A$lcc1887636$162                   map_scenes
     00001397  C$map_scenes.c$41$2_0$174          map_scenes
     00001397  C$map_scenes.c$42$2_0$174          map_scenes
     00001397  XG$scene_manager_MapScene$0$0      map_scenes
     00001398  A$lcc1887638$56                    money
     00001398  C$money.c$5$0_0$3                  money
     00001398  G$add_money$0$0                    money
     00001398  _add_money                         money
     00001399  A$lcc1887638$60                    money
     00001399  C$money.c$6$1_0$3                  money
     0000139A  A$lcc1887638$61                    money
     0000139C  A$lcc1887638$62                    money
     0000139D  A$lcc1887638$63                    money
     0000139E  A$lcc1887638$64                    money
     0000139F  A$lcc1887638$65                    money
     000013A0  A$lcc1887638$66                    money
ASxxxx Linker V03.00/V05.40 + sdld,  page 46.
Hexadecimal  [32-Bits]

Area                                    Addr        Size        Decimal Bytes (Attributes)
--------------------------------        ----        ----        ------- ----- ------------
_CODE                               00000200    00002BB8 =       11192. bytes (REL,CON)

      Value  Global                              Global Defined In Module
      -----  --------------------------------   ------------------------
     000013A1  A$lcc1887638$67                    money
     000013A2  A$lcc1887638$68                    money
     000013A3  A$lcc1887638$69                    money
     000013A4  A$lcc1887638$70                    money
     000013A5  A$lcc1887638$71                    money
     000013A8  A$lcc1887638$72                    money
     000013A9  A$lcc1887638$73                    money
     000013AC  A$lcc1887638$74                    money
     000013AD  A$lcc1887638$75                    money
     000013AE  A$lcc1887638$76                    money
     000013AF  A$lcc1887638$77                    money
     000013B0  A$lcc1887638$78                    money
     000013B1  A$lcc1887638$79                    money
     000013B2  A$lcc1887638$80                    money
     000013B5  A$lcc1887638$81                    money
     000013B6  A$lcc1887638$82                    money
     000013B7  A$lcc1887638$83                    money
     000013B8  A$lcc1887638$87                    money
     000013B8  C$money.c$7$1_0$3                  money
     000013BA  A$lcc1887638$88                    money
     000013BB  A$lcc1887638$89                    money
     000013BC  A$lcc1887638$90                    money
     000013BD  A$lcc1887638$91                    money
     000013BE  A$lcc1887638$92                    money
     000013BF  A$lcc1887638$93                    money
     000013C0  A$lcc1887638$94                    money
     000013C1  A$lcc1887638$95                    money
     000013C2  A$lcc1887638$96                    money
     000013C3  A$lcc1887638$97                    money
     000013C4  A$lcc1887638$98                    money
     000013C5  A$lcc1887638$99                    money
     000013C6  A$lcc1887638$100                   money
     000013C9  A$lcc1887638$101                   money
     000013CC  A$lcc1887638$102                   money
     000013CD  A$lcc1887638$103                   money
     000013CE  A$lcc1887638$104                   money
     000013CF  A$lcc1887638$105                   money
     000013D0  A$lcc1887638$106                   money
     000013D1  A$lcc1887638$107                   money
     000013D2  A$lcc1887638$108                   money
     000013D3  A$lcc1887638$109                   money
     000013D4  A$lcc1887638$110                   money
     000013D5  A$lcc1887638$118                   money
     000013D5  C$money.c$8$1_0$3                  money
     000013D5  XG$add_money$0$0                   money
     000013D6  A$lcc1887640$75                    npcs
     000013D6  C$npcs.c$21$0_0$135                npcs
     000013D6  C$npcs.c$23$1_0$135                npcs
     000013D6  G$init_NPCs$0$0                    npcs
     000013D6  _init_NPCs                         npcs
     000013D9  A$lcc1887640$76                    npcs
ASxxxx Linker V03.00/V05.40 + sdld,  page 47.
Hexadecimal  [32-Bits]

Area                                    Addr        Size        Decimal Bytes (Attributes)
--------------------------------        ----        ----        ------- ----- ------------
_CODE                               00000200    00002BB8 =       11192. bytes (REL,CON)

      Value  Global                              Global Defined In Module
      -----  --------------------------------   ------------------------
     000013DC  A$lcc1887640$80                    npcs
     000013DC  C$npcs.c$24$1_0$135                npcs
     000013DF  A$lcc1887640$81                    npcs
     000013E2  A$lcc1887640$85                    npcs
     000013E2  C$npcs.c$25$1_0$135                npcs
     000013E5  A$lcc1887640$86                    npcs
     000013E8  A$lcc1887640$94                    npcs
     000013E8  C$npcs.c$26$1_0$135                npcs
     000013E8  XG$init_NPCs$0$0                   npcs
     000013E9  A$lcc1887640$104                   npcs
     000013E9  C$npcs.c$28$1_0$137                npcs
     000013E9  G$Scene_DrawNPCLine$0$0            npcs
     000013E9  _Scene_DrawNPCLine                 npcs
     000013EB  A$lcc1887640$105                   npcs
     000013ED  A$lcc1887640$106                   npcs
     000013EE  A$lcc1887640$110                   npcs
     000013EE  C$npcs.c$36$1_0$137                npcs
     000013F0  A$lcc1887640$111                   npcs
     000013F3  A$lcc1887640$112                   npcs
     000013F4  A$lcc1887640$113                   npcs
     000013F5  A$lcc1887640$114                   npcs
     000013F6  A$lcc1887640$115                   npcs
     000013F8  A$lcc1887640$116                   npcs
     000013F9  A$lcc1887640$117                   npcs
     000013FA  A$lcc1887640$118                   npcs
     000013FB  A$lcc1887640$119                   npcs
     000013FD  A$lcc1887640$120                   npcs
     000013FE  A$lcc1887640$121                   npcs
     000013FF  A$lcc1887640$122                   npcs
     00001400  A$lcc1887640$123                   npcs
     00001401  A$lcc1887640$124                   npcs
     00001402  A$lcc1887640$125                   npcs
     00001404  A$lcc1887640$126                   npcs
     00001405  A$lcc1887640$130                   npcs
     00001405  C$npcs.c$38$1_0$137                npcs
     00001408  A$lcc1887640$131                   npcs
     0000140A  A$lcc1887640$132                   npcs
     0000140B  A$lcc1887640$133                   npcs
     0000140C  A$lcc1887640$134                   npcs
     0000140D  A$lcc1887640$135                   npcs
     0000140E  A$lcc1887640$136                   npcs
     0000140F  A$lcc1887640$137                   npcs
     00001410  A$lcc1887640$138                   npcs
     00001411  A$lcc1887640$139                   npcs
     00001412  A$lcc1887640$140                   npcs
     00001413  A$lcc1887640$144                   npcs
     00001413  C$npcs.c$40$1_0$137                npcs
     00001416  A$lcc1887640$145                   npcs
     00001417  A$lcc1887640$146                   npcs
     00001418  A$lcc1887640$147                   npcs
     00001419  A$lcc1887640$148                   npcs
ASxxxx Linker V03.00/V05.40 + sdld,  page 48.
Hexadecimal  [32-Bits]

Area                                    Addr        Size        Decimal Bytes (Attributes)
--------------------------------        ----        ----        ------- ----- ------------
_CODE                               00000200    00002BB8 =       11192. bytes (REL,CON)

      Value  Global                              Global Defined In Module
      -----  --------------------------------   ------------------------
     0000141B  A$lcc1887640$149                   npcs
     0000141C  A$lcc1887640$150                   npcs
     0000141D  A$lcc1887640$151                   npcs
     0000141E  A$lcc1887640$152                   npcs
     0000141F  A$lcc1887640$153                   npcs
     00001420  A$lcc1887640$154                   npcs
     00001421  A$lcc1887640$155                   npcs
     00001422  A$lcc1887640$156                   npcs
     00001423  A$lcc1887640$157                   npcs
     00001424  A$lcc1887640$158                   npcs
     00001425  A$lcc1887640$159                   npcs
     00001427  A$lcc1887640$160                   npcs
     00001428  A$lcc1887640$161                   npcs
     00001429  A$lcc1887640$162                   npcs
     0000142A  A$lcc1887640$163                   npcs
     0000142B  A$lcc1887640$164                   npcs
     0000142C  A$lcc1887640$168                   npcs
     0000142C  C$npcs.c$41$1_0$137                npcs
     0000142F  A$lcc1887640$169                   npcs
     00001430  A$lcc1887640$170                   npcs
     00001431  A$lcc1887640$171                   npcs
     00001432  A$lcc1887640$175                   npcs
     00001432  C$npcs.c$44$1_2$137                npcs
     00001433  A$lcc1887640$176                   npcs
     00001435  A$lcc1887640$177                   npcs
     00001436  A$lcc1887640$178                   npcs
     00001437  A$lcc1887640$180                   npcs
     00001438  A$lcc1887640$181                   npcs
     0000143A  A$lcc1887640$182                   npcs
     0000143B  A$lcc1887640$183                   npcs
     0000143C  A$lcc1887640$184                   npcs
     0000143D  A$lcc1887640$185                   npcs
     0000143F  A$lcc1887640$186                   npcs
     00001440  A$lcc1887640$187                   npcs
     00001441  A$lcc1887640$188                   npcs
     00001442  A$lcc1887640$189                   npcs
     00001443  A$lcc1887640$190                   npcs
     00001444  A$lcc1887640$191                   npcs
     00001445  A$lcc1887640$192                   npcs
     00001446  A$lcc1887640$193                   npcs
     00001447  A$lcc1887640$194                   npcs
     00001448  A$lcc1887640$195                   npcs
     0000144A  A$lcc1887640$199                   npcs
     0000144A  C$npcs.c$46$3_0$139                npcs
     0000144B  A$lcc1887640$200                   npcs
     0000144E  A$lcc1887640$201                   npcs
     0000144F  A$lcc1887640$202                   npcs
     00001450  A$lcc1887640$203                   npcs
     00001452  A$lcc1887640$204                   npcs
     00001454  A$lcc1887640$205                   npcs
     00001455  A$lcc1887640$209                   npcs
ASxxxx Linker V03.00/V05.40 + sdld,  page 49.
Hexadecimal  [32-Bits]

Area                                    Addr        Size        Decimal Bytes (Attributes)
--------------------------------        ----        ----        ------- ----- ------------
_CODE                               00000200    00002BB8 =       11192. bytes (REL,CON)

      Value  Global                              Global Defined In Module
      -----  --------------------------------   ------------------------
     00001455  C$npcs.c$47$3_0$139                npcs
     00001457  A$lcc1887640$210                   npcs
     00001458  A$lcc1887640$211                   npcs
     00001459  A$lcc1887640$212                   npcs
     0000145A  A$lcc1887640$213                   npcs
     0000145D  A$lcc1887640$214                   npcs
     0000145E  A$lcc1887640$215                   npcs
     0000145F  A$lcc1887640$216                   npcs
     00001462  A$lcc1887640$217                   npcs
     00001463  A$lcc1887640$218                   npcs
     00001465  A$lcc1887640$219                   npcs
     00001466  A$lcc1887640$220                   npcs
     00001467  A$lcc1887640$221                   npcs
     00001468  A$lcc1887640$222                   npcs
     00001469  A$lcc1887640$223                   npcs
     0000146C  A$lcc1887640$224                   npcs
     0000146E  A$lcc1887640$225                   npcs
     0000146F  A$lcc1887640$229                   npcs
     0000146F  C$npcs.c$44$2_0$138                npcs
     00001471  A$lcc1887640$230                   npcs
     00001472  A$lcc1887640$231                   npcs
     00001474  A$lcc1887640$232                   npcs
     00001475  A$lcc1887640$233                   npcs
     00001476  A$lcc1887640$234                   npcs
     00001478  A$lcc1887640$239                   npcs
     00001478  C$npcs.c$51$1_2$137                npcs
     00001479  A$lcc1887640$240                   npcs
     0000147B  A$lcc1887640$241                   npcs
     0000147C  A$lcc1887640$242                   npcs
     0000147D  A$lcc1887640$244                   npcs
     0000147E  A$lcc1887640$245                   npcs
     00001480  A$lcc1887640$246                   npcs
     00001481  A$lcc1887640$247                   npcs
     00001482  A$lcc1887640$248                   npcs
     00001483  A$lcc1887640$249                   npcs
     00001484  A$lcc1887640$250                   npcs
     00001485  A$lcc1887640$251                   npcs
     00001486  A$lcc1887640$252                   npcs
     00001487  A$lcc1887640$253                   npcs
     00001488  A$lcc1887640$254                   npcs
     00001489  A$lcc1887640$255                   npcs
     0000148B  A$lcc1887640$259                   npcs
     0000148B  C$npcs.c$53$3_0$141                npcs
     0000148C  A$lcc1887640$260                   npcs
     0000148F  A$lcc1887640$261                   npcs
     00001490  A$lcc1887640$262                   npcs
     00001491  A$lcc1887640$263                   npcs
     00001493  A$lcc1887640$267                   npcs
     00001493  C$npcs.c$54$3_0$141                npcs
     00001495  A$lcc1887640$268                   npcs
     00001496  A$lcc1887640$269                   npcs
ASxxxx Linker V03.00/V05.40 + sdld,  page 50.
Hexadecimal  [32-Bits]

Area                                    Addr        Size        Decimal Bytes (Attributes)
--------------------------------        ----        ----        ------- ----- ------------
_CODE                               00000200    00002BB8 =       11192. bytes (REL,CON)

      Value  Global                              Global Defined In Module
      -----  --------------------------------   ------------------------
     00001497  A$lcc1887640$270                   npcs
     00001498  A$lcc1887640$271                   npcs
     0000149A  A$lcc1887640$272                   npcs
     0000149B  A$lcc1887640$273                   npcs
     0000149C  A$lcc1887640$274                   npcs
     0000149D  A$lcc1887640$275                   npcs
     0000149E  A$lcc1887640$276                   npcs
     000014A0  A$lcc1887640$277                   npcs
     000014A1  A$lcc1887640$278                   npcs
     000014A2  A$lcc1887640$279                   npcs
     000014A4  A$lcc1887640$280                   npcs
     000014A5  A$lcc1887640$281                   npcs
     000014A6  A$lcc1887640$282                   npcs
     000014A8  A$lcc1887640$283                   npcs
     000014A9  A$lcc1887640$284                   npcs
     000014AA  A$lcc1887640$285                   npcs
     000014AB  A$lcc1887640$286                   npcs
     000014AC  A$lcc1887640$287                   npcs
     000014AF  A$lcc1887640$288                   npcs
     000014B1  A$lcc1887640$289                   npcs
     000014B2  A$lcc1887640$293                   npcs
     000014B2  C$npcs.c$51$2_0$140                npcs
     000014B4  A$lcc1887640$294                   npcs
     000014B5  A$lcc1887640$295                   npcs
     000014B7  A$lcc1887640$296                   npcs
     000014B8  A$lcc1887640$297                   npcs
     000014B9  A$lcc1887640$298                   npcs
     000014BB  A$lcc1887640$303                   npcs
     000014BD  A$lcc1887640$304                   npcs
     000014BE  A$lcc1887640$305                   npcs
     000014C0  A$lcc1887640$306                   npcs
     000014C1  A$lcc1887640$307                   npcs
     000014C2  A$lcc1887640$308                   npcs
     000014C3  A$lcc1887640$309                   npcs
     000014C4  A$lcc1887640$310                   npcs
     000014C5  A$lcc1887640$311                   npcs
     000014C6  A$lcc1887640$312                   npcs
     000014C9  A$lcc1887640$313                   npcs
     000014CA  A$lcc1887640$314                   npcs
     000014CB  A$lcc1887640$315                   npcs
     000014CC  A$lcc1887640$316                   npcs
     000014CE  A$lcc1887640$317                   npcs
     000014CF  A$lcc1887640$318                   npcs
     000014D0  A$lcc1887640$319                   npcs
     000014D1  A$lcc1887640$320                   npcs
     000014D3  A$lcc1887640$321                   npcs
     000014D4  A$lcc1887640$322                   npcs
     000014D7  A$lcc1887640$324                   npcs
     000014D9  A$lcc1887640$325                   npcs
     000014DA  A$lcc1887640$326                   npcs
     000014DB  A$lcc1887640$327                   npcs
ASxxxx Linker V03.00/V05.40 + sdld,  page 51.
Hexadecimal  [32-Bits]

Area                                    Addr        Size        Decimal Bytes (Attributes)
--------------------------------        ----        ----        ------- ----- ------------
_CODE                               00000200    00002BB8 =       11192. bytes (REL,CON)

      Value  Global                              Global Defined In Module
      -----  --------------------------------   ------------------------
     000014DC  A$lcc1887640$328                   npcs
     000014DD  A$lcc1887640$329                   npcs
     000014DE  A$lcc1887640$330                   npcs
     000014DF  A$lcc1887640$331                   npcs
     000014E0  A$lcc1887640$332                   npcs
     000014E1  A$lcc1887640$333                   npcs
     000014E3  A$lcc1887640$337                   npcs
     000014E3  C$npcs.c$60$3_0$143                npcs
     000014E4  A$lcc1887640$338                   npcs
     000014E7  A$lcc1887640$339                   npcs
     000014E8  A$lcc1887640$340                   npcs
     000014E9  A$lcc1887640$341                   npcs
     000014EA  A$lcc1887640$342                   npcs
     000014EC  A$lcc1887640$343                   npcs
     000014EE  A$lcc1887640$344                   npcs
     000014EF  A$lcc1887640$348                   npcs
     000014EF  C$npcs.c$61$3_0$143                npcs
     000014F0  A$lcc1887640$349                   npcs
     000014F1  A$lcc1887640$350                   npcs
     000014F4  A$lcc1887640$351                   npcs
     000014F5  A$lcc1887640$352                   npcs
     000014F6  A$lcc1887640$353                   npcs
     000014F9  A$lcc1887640$354                   npcs
     000014FA  A$lcc1887640$355                   npcs
     000014FC  A$lcc1887640$356                   npcs
     000014FD  A$lcc1887640$357                   npcs
     00001500  A$lcc1887640$358                   npcs
     00001502  A$lcc1887640$362                   npcs
     00001502  C$npcs.c$58$2_0$142                npcs
     00001503  A$lcc1887640$363                   npcs
     00001505  A$lcc1887640$368                   npcs
     00001505  C$npcs.c$65$1_1$144                npcs
     00001507  A$lcc1887640$369                   npcs
     00001508  A$lcc1887640$370                   npcs
     00001509  A$lcc1887640$371                   npcs
     0000150A  A$lcc1887640$372                   npcs
     0000150B  A$lcc1887640$373                   npcs
     0000150D  A$lcc1887640$374                   npcs
     0000150F  A$lcc1887640$375                   npcs
     00001510  A$lcc1887640$379                   npcs
     00001510  C$npcs.c$66$1_1$144                npcs
     00001513  A$lcc1887640$380                   npcs
     00001514  A$lcc1887640$381                   npcs
     00001515  A$lcc1887640$382                   npcs
     00001518  A$lcc1887640$383                   npcs
     00001519  A$lcc1887640$384                   npcs
     0000151C  A$lcc1887640$385                   npcs
     0000151D  A$lcc1887640$386                   npcs
     00001520  A$lcc1887640$387                   npcs
     00001522  A$lcc1887640$391                   npcs
     00001522  C$npcs.c$69$2_1$145                npcs
ASxxxx Linker V03.00/V05.40 + sdld,  page 52.
Hexadecimal  [32-Bits]

Area                                    Addr        Size        Decimal Bytes (Attributes)
--------------------------------        ----        ----        ------- ----- ------------
_CODE                               00000200    00002BB8 =       11192. bytes (REL,CON)

      Value  Global                              Global Defined In Module
      -----  --------------------------------   ------------------------
     00001524  A$lcc1887640$392                   npcs
     00001526  A$lcc1887640$396                   npcs
     00001526  C$npcs.c$70$1_2$145                npcs
     00001529  A$lcc1887640$397                   npcs
     0000152A  A$lcc1887640$398                   npcs
     0000152B  A$lcc1887640$399                   npcs
     0000152E  A$lcc1887640$400                   npcs
     0000152F  A$lcc1887640$401                   npcs
     00001532  A$lcc1887640$402                   npcs
     00001533  A$lcc1887640$403                   npcs
     00001536  A$lcc1887640$407                   npcs
     00001536  C$npcs.c$71$1_2$137                npcs
     00001538  A$lcc1887640$408                   npcs
     00001539  A$lcc1887640$409                   npcs
     0000153B  A$lcc1887640$410                   npcs
     0000153C  A$lcc1887642$75                    player
     0000153C  C$player.c$11$0_0$158              player
     0000153C  C$player.c$12$1_0$158              player
     0000153C  G$create_player$0$0                player
     0000153C  _create_player                     player
     0000153F  A$lcc1887642$76                    player
     00001542  A$lcc1887642$80                    player
     00001542  C$player.c$13$1_0$158              player
     00001545  A$lcc1887642$81                    player
     00001548  A$lcc1887642$85                    player
     00001548  C$player.c$15$1_0$158              player
     0000154B  A$lcc1887642$86                    player
     0000154E  A$lcc1887642$87                    player
     0000154F  A$lcc1887642$88                    player
     00001551  A$lcc1887642$89                    player
     00001552  A$lcc1887642$90                    player
     00001554  A$lcc1887642$98                    player
     00001554  C$player.c$16$1_0$158              player
     00001554  XG$create_player$0$0               player
     00001555  A$lcc1887642$108                   player
     00001555  C$player.c$18$1_0$160              player
     00001555  G$init_player$0$0                  player
     00001555  _init_player                       player
     00001557  A$lcc1887642$112                   player
     00001557  C$player.c$19$1_0$160              player
     0000155A  A$lcc1887642$113                   player
     0000155B  A$lcc1887642$114                   player
     0000155D  A$lcc1887642$115                   player
     00001560  A$lcc1887642$116                   player
     00001561  A$lcc1887642$117                   player
     00001563  A$lcc1887642$121                   player
     00001563  C$player.c$20$1_0$160              player
     00001566  A$lcc1887642$122                   player
     00001567  A$lcc1887642$123                   player
     00001569  A$lcc1887642$124                   player
     0000156C  A$lcc1887642$125                   player
ASxxxx Linker V03.00/V05.40 + sdld,  page 53.
Hexadecimal  [32-Bits]

Area                                    Addr        Size        Decimal Bytes (Attributes)
--------------------------------        ----        ----        ------- ----- ------------
_CODE                               00000200    00002BB8 =       11192. bytes (REL,CON)

      Value  Global                              Global Defined In Module
      -----  --------------------------------   ------------------------
     0000156D  A$lcc1887642$126                   player
     0000156F  A$lcc1887642$133                   player
     00001572  A$lcc1887642$134                   player
     00001573  A$lcc1887642$138                   player
     00001576  A$lcc1887642$139                   player
     00001578  A$lcc1887642$140                   player
     00001579  A$lcc1887642$141                   player
     0000157A  A$lcc1887642$151                   player
     0000157A  C$player.c$22$2_0$161              player
     0000157A  C$player.c$25$1_1$160              player
     0000157A  C$player.c$26$1_1$160              player
     0000157B  A$lcc1887642$152                   player
     0000157D  A$lcc1887642$156                   player
     0000157D  C$player.c$23$3_0$162              player
     0000157F  A$lcc1887642$157                   player
     00001580  A$lcc1887642$158                   player
     00001581  A$lcc1887642$159                   player
     00001583  A$lcc1887642$160                   player
     00001585  A$lcc1887642$161                   player
     00001586  A$lcc1887642$162                   player
     00001589  A$lcc1887642$163                   player
     0000158B  A$lcc1887642$164                   player
     0000158C  A$lcc1887642$165                   player
     0000158D  A$lcc1887642$166                   player
     0000158E  A$lcc1887642$170                   player
     00001591  A$lcc1887642$174                   player
     00001591  C$player.c$24$3_0$162              player
     00001592  A$lcc1887642$175                   player
     00001594  A$lcc1887642$176                   player
     00001595  A$lcc1887642$177                   player
     00001597  A$lcc1887642$178                   player
     00001599  A$lcc1887642$179                   player
     0000159A  A$lcc1887642$180                   player
     0000159D  A$lcc1887642$181                   player
     0000159F  A$lcc1887642$182                   player
     000015A0  A$lcc1887642$183                   player
     000015A1  A$lcc1887642$184                   player
     000015A2  A$lcc1887642$188                   player
     000015A2  C$player.c$25$3_0$162              player
     000015A5  A$lcc1887642$189                   player
     000015A6  A$lcc1887642$190                   player
     000015A7  A$lcc1887642$191                   player
     000015A9  A$lcc1887642$192                   player
     000015AA  A$lcc1887642$193                   player
     000015AC  A$lcc1887642$194                   player
     000015AE  A$lcc1887642$195                   player
     000015AF  A$lcc1887642$196                   player
     000015B2  A$lcc1887642$197                   player
     000015B4  A$lcc1887642$198                   player
     000015B5  A$lcc1887642$199                   player
     000015B6  A$lcc1887642$200                   player
ASxxxx Linker V03.00/V05.40 + sdld,  page 54.
Hexadecimal  [32-Bits]

Area                                    Addr        Size        Decimal Bytes (Attributes)
--------------------------------        ----        ----        ------- ----- ------------
_CODE                               00000200    00002BB8 =       11192. bytes (REL,CON)

      Value  Global                              Global Defined In Module
      -----  --------------------------------   ------------------------
     000015B7  A$lcc1887642$201                   player
     000015B8  A$lcc1887642$202                   player
     000015B9  A$lcc1887642$203                   player
     000015BA  A$lcc1887642$204                   player
     000015BB  A$lcc1887642$208                   player
     000015BB  C$player.c$26$3_0$162              player
     000015BE  A$lcc1887642$209                   player
     000015BF  A$lcc1887642$210                   player
     000015C0  A$lcc1887642$211                   player
     000015C2  A$lcc1887642$212                   player
     000015C3  A$lcc1887642$213                   player
     000015C5  A$lcc1887642$214                   player
     000015C7  A$lcc1887642$215                   player
     000015C8  A$lcc1887642$216                   player
     000015CB  A$lcc1887642$217                   player
     000015CD  A$lcc1887642$218                   player
     000015CE  A$lcc1887642$219                   player
     000015CF  A$lcc1887642$220                   player
     000015D0  A$lcc1887642$221                   player
     000015D1  A$lcc1887642$222                   player
     000015D2  A$lcc1887642$223                   player
     000015D3  A$lcc1887642$224                   player
     000015D4  A$lcc1887642$228                   player
     000015D4  C$player.c$28$3_0$162              player
     000015D7  A$lcc1887642$229                   player
     000015D8  A$lcc1887642$230                   player
     000015DA  A$lcc1887642$231                   player
     000015DD  A$lcc1887642$232                   player
     000015DE  A$lcc1887642$233                   player
     000015E0  A$lcc1887642$238                   player
     000015E0  C$player.c$31$1_0$160              player
     000015E3  A$lcc1887642$239                   player
     000015E6  A$lcc1887642$240                   player
     000015E8  A$lcc1887642$241                   player
     000015E9  A$lcc1887642$242                   player
     000015EA  A$lcc1887642$243                   player
     000015EB  A$lcc1887642$244                   player
     000015ED  A$lcc1887642$245                   player
     000015EE  A$lcc1887642$246                   player
     000015F0  A$lcc1887642$250                   player
     000015F0  C$player.c$19$1_1$160              player
     000015F3  A$lcc1887642$251                   player
     000015F4  A$lcc1887642$255                   player
     000015F4  C$player.c$33$1_0$160              player
     000015F7  A$lcc1887642$256                   player
     000015F9  A$lcc1887642$257                   player
     000015FA  A$lcc1887642$258                   player
     000015FB  A$lcc1887642$259                   player
     000015FE  A$lcc1887642$263                   player
     000015FE  C$player.c$35$1_0$160              player
     00001601  A$lcc1887642$264                   player
ASxxxx Linker V03.00/V05.40 + sdld,  page 55.
Hexadecimal  [32-Bits]

Area                                    Addr        Size        Decimal Bytes (Attributes)
--------------------------------        ----        ----        ------- ----- ------------
_CODE                               00000200    00002BB8 =       11192. bytes (REL,CON)

      Value  Global                              Global Defined In Module
      -----  --------------------------------   ------------------------
     00001602  A$lcc1887642$265                   player
     00001604  A$lcc1887642$266                   player
     00001605  A$lcc1887642$267                   player
     00001607  A$lcc1887642$268                   player
     00001609  A$lcc1887642$269                   player
     0000160A  A$lcc1887642$270                   player
     0000160D  A$lcc1887642$271                   player
     0000160F  A$lcc1887642$272                   player
     00001610  A$lcc1887642$273                   player
     00001611  A$lcc1887642$274                   player
     00001612  A$lcc1887642$275                   player
     00001613  A$lcc1887642$276                   player
     00001614  A$lcc1887642$277                   player
     00001615  A$lcc1887642$278                   player
     00001616  A$lcc1887642$282                   player
     00001616  C$player.c$36$1_0$160              player
     00001619  A$lcc1887642$283                   player
     0000161A  A$lcc1887642$284                   player
     0000161B  A$lcc1887642$285                   player
     0000161D  A$lcc1887642$286                   player
     00001620  A$lcc1887642$287                   player
     00001621  A$lcc1887642$288                   player
     00001624  A$lcc1887642$289                   player
     00001626  A$lcc1887642$290                   player
     00001627  A$lcc1887642$291                   player
     00001629  A$lcc1887642$292                   player
     0000162B  A$lcc1887642$293                   player
     0000162C  A$lcc1887642$294                   player
     0000162D  A$lcc1887642$295                   player
     0000162E  A$lcc1887642$296                   player
     0000162F  A$lcc1887642$297                   player
     00001630  A$lcc1887642$298                   player
     00001631  A$lcc1887642$302                   player
     00001631  C$player.c$38$1_0$160              player
     00001634  A$lcc1887642$303                   player
     00001635  A$lcc1887642$304                   player
     00001637  A$lcc1887642$305                   player
     0000163A  A$lcc1887642$306                   player
     0000163B  A$lcc1887642$307                   player
     0000163D  A$lcc1887642$311                   player
     0000163D  C$player.c$39$1_0$160              player
     00001640  A$lcc1887642$312                   player
     00001643  A$lcc1887642$313                   player
     00001644  A$lcc1887642$314                   player
     00001646  A$lcc1887642$315                   player
     00001647  A$lcc1887642$316                   player
     00001649  A$lcc1887642$320                   player
     00001649  C$player.c$40$1_0$160              player
     0000164C  A$lcc1887642$321                   player
     0000164F  A$lcc1887642$322                   player
     00001650  A$lcc1887642$323                   player
ASxxxx Linker V03.00/V05.40 + sdld,  page 56.
Hexadecimal  [32-Bits]

Area                                    Addr        Size        Decimal Bytes (Attributes)
--------------------------------        ----        ----        ------- ----- ------------
_CODE                               00000200    00002BB8 =       11192. bytes (REL,CON)

      Value  Global                              Global Defined In Module
      -----  --------------------------------   ------------------------
     00001652  A$lcc1887642$324                   player
     00001653  A$lcc1887642$325                   player
     00001655  A$lcc1887642$329                   player
     00001655  C$player.c$43$2_0$163              player
     00001658  A$lcc1887642$330                   player
     00001659  A$lcc1887642$331                   player
     0000165A  A$lcc1887642$332                   player
     0000165B  A$lcc1887642$333                   player
     0000165D  A$lcc1887642$334                   player
     0000165F  A$lcc1887642$335                   player
     00001660  A$lcc1887642$336                   player
     00001662  A$lcc1887642$337                   player
     00001663  A$lcc1887642$338                   player
     00001665  A$lcc1887642$339                   player
     00001666  A$lcc1887642$340                   player
     00001668  A$lcc1887642$341                   player
     00001669  A$lcc1887642$342                   player
     0000166B  A$lcc1887642$343                   player
     0000166C  A$lcc1887642$344                   player
     0000166E  A$lcc1887642$348                   player
     0000166E  C$player.c$47$2_0$163              player
     0000166F  A$lcc1887642$349                   player
     00001671  A$lcc1887642$350                   player
     00001672  A$lcc1887642$351                   player
     00001674  A$lcc1887642$352                   player
     00001675  A$lcc1887642$353                   player
     00001677  A$lcc1887642$354                   player
     00001678  A$lcc1887642$355                   player
     0000167A  A$lcc1887642$356                   player
     0000167B  A$lcc1887642$357                   player
     0000167D  A$lcc1887642$358                   player
     0000167E  A$lcc1887642$359                   player
     00001680  A$lcc1887642$360                   player
     00001681  A$lcc1887642$361                   player
     00001683  A$lcc1887642$362                   player
     00001684  A$lcc1887642$363                   player
     00001686  A$lcc1887642$364                   player
     00001687  A$lcc1887642$365                   player
     00001688  A$lcc1887642$366                   player
     00001689  A$lcc1887642$367                   player
     0000168A  A$lcc1887642$368                   player
     0000168B  A$lcc1887642$369                   player
     0000168D  A$lcc1887642$370                   player
     0000168E  A$lcc1887642$371                   player
     00001690  A$lcc1887642$372                   player
     00001691  A$lcc1887642$373                   player
     00001693  A$lcc1887642$374                   player
     00001694  A$lcc1887642$375                   player
     00001696  A$lcc1887642$376                   player
     00001697  A$lcc1887642$377                   player
     00001699  A$lcc1887642$378                   player
ASxxxx Linker V03.00/V05.40 + sdld,  page 57.
Hexadecimal  [32-Bits]

Area                                    Addr        Size        Decimal Bytes (Attributes)
--------------------------------        ----        ----        ------- ----- ------------
_CODE                               00000200    00002BB8 =       11192. bytes (REL,CON)

      Value  Global                              Global Defined In Module
      -----  --------------------------------   ------------------------
     0000169A  A$lcc1887642$379                   player
     0000169C  A$lcc1887642$380                   player
     0000169D  A$lcc1887642$381                   player
     0000169F  A$lcc1887642$382                   player
     000016A0  A$lcc1887642$383                   player
     000016A2  A$lcc1887642$384                   player
     000016A3  A$lcc1887642$385                   player
     000016A5  A$lcc1887642$386                   player
     000016A6  A$lcc1887642$387                   player
     000016A8  A$lcc1887642$388                   player
     000016A9  A$lcc1887642$389                   player
     000016AB  A$lcc1887642$390                   player
     000016AC  A$lcc1887642$391                   player
     000016AE  A$lcc1887642$392                   player
     000016AF  A$lcc1887642$393                   player
     000016B1  A$lcc1887642$394                   player
     000016B2  A$lcc1887642$395                   player
     000016B4  A$lcc1887642$396                   player
     000016B5  A$lcc1887642$397                   player
     000016B6  A$lcc1887642$398                   player
     000016B7  A$lcc1887642$399                   player
     000016B8  A$lcc1887642$400                   player
     000016B9  A$lcc1887642$401                   player
     000016BB  A$lcc1887642$402                   player
     000016BC  A$lcc1887642$403                   player
     000016BE  A$lcc1887642$404                   player
     000016BF  A$lcc1887642$405                   player
     000016C1  A$lcc1887642$406                   player
     000016C2  A$lcc1887642$407                   player
     000016C4  A$lcc1887642$408                   player
     000016C5  A$lcc1887642$409                   player
     000016C7  A$lcc1887642$410                   player
     000016C8  A$lcc1887642$411                   player
     000016CA  A$lcc1887642$415                   player
     000016CA  C$player.c$62$2_0$163              player
     000016CB  A$lcc1887642$416                   player
     000016CE  A$lcc1887642$417                   player
     000016CF  A$lcc1887642$418                   player
     000016D0  A$lcc1887642$419                   player
     000016D1  A$lcc1887642$420                   player
     000016D2  A$lcc1887642$421                   player
     000016D4  A$lcc1887642$422                   player
     000016D5  A$lcc1887642$423                   player
     000016D7  A$lcc1887642$424                   player
     000016D8  A$lcc1887642$425                   player
     000016DA  A$lcc1887642$426                   player
     000016DB  A$lcc1887642$427                   player
     000016DD  A$lcc1887642$428                   player
     000016DE  A$lcc1887642$429                   player
     000016E0  A$lcc1887642$430                   player
     000016E1  A$lcc1887642$431                   player
ASxxxx Linker V03.00/V05.40 + sdld,  page 58.
Hexadecimal  [32-Bits]

Area                                    Addr        Size        Decimal Bytes (Attributes)
--------------------------------        ----        ----        ------- ----- ------------
_CODE                               00000200    00002BB8 =       11192. bytes (REL,CON)

      Value  Global                              Global Defined In Module
      -----  --------------------------------   ------------------------
     000016E3  A$lcc1887642$435                   player
     000016E3  C$player.c$66$2_0$163              player
     000016E4  A$lcc1887642$436                   player
     000016E6  A$lcc1887642$437                   player
     000016E7  A$lcc1887642$438                   player
     000016E9  A$lcc1887642$439                   player
     000016EA  A$lcc1887642$440                   player
     000016EC  A$lcc1887642$441                   player
     000016ED  A$lcc1887642$442                   player
     000016EF  A$lcc1887642$443                   player
     000016F0  A$lcc1887642$444                   player
     000016F2  A$lcc1887642$445                   player
     000016F3  A$lcc1887642$446                   player
     000016F5  A$lcc1887642$447                   player
     000016F6  A$lcc1887642$448                   player
     000016F8  A$lcc1887642$449                   player
     000016F9  A$lcc1887642$450                   player
     000016FB  A$lcc1887642$451                   player
     000016FC  A$lcc1887642$452                   player
     000016FD  A$lcc1887642$453                   player
     000016FE  A$lcc1887642$454                   player
     000016FF  A$lcc1887642$455                   player
     00001700  A$lcc1887642$456                   player
     00001702  A$lcc1887642$457                   player
     00001703  A$lcc1887642$458                   player
     00001705  A$lcc1887642$459                   player
     00001706  A$lcc1887642$460                   player
     00001708  A$lcc1887642$461                   player
     00001709  A$lcc1887642$462                   player
     0000170B  A$lcc1887642$463                   player
     0000170C  A$lcc1887642$464                   player
     0000170E  A$lcc1887642$465                   player
     0000170F  A$lcc1887642$466                   player
     00001711  A$lcc1887642$467                   player
     00001712  A$lcc1887642$468                   player
     00001714  A$lcc1887642$469                   player
     00001715  A$lcc1887642$470                   player
     00001717  A$lcc1887642$471                   player
     00001718  A$lcc1887642$472                   player
     0000171A  A$lcc1887642$473                   player
     0000171B  A$lcc1887642$474                   player
     0000171D  A$lcc1887642$475                   player
     0000171E  A$lcc1887642$476                   player
     00001720  A$lcc1887642$477                   player
     00001721  A$lcc1887642$478                   player
     00001723  A$lcc1887642$479                   player
     00001724  A$lcc1887642$480                   player
     00001726  A$lcc1887642$481                   player
     00001727  A$lcc1887642$482                   player
     00001729  A$lcc1887642$483                   player
     0000172A  A$lcc1887642$484                   player
ASxxxx Linker V03.00/V05.40 + sdld,  page 59.
Hexadecimal  [32-Bits]

Area                                    Addr        Size        Decimal Bytes (Attributes)
--------------------------------        ----        ----        ------- ----- ------------
_CODE                               00000200    00002BB8 =       11192. bytes (REL,CON)

      Value  Global                              Global Defined In Module
      -----  --------------------------------   ------------------------
     0000172B  A$lcc1887642$485                   player
     0000172C  A$lcc1887642$486                   player
     0000172D  A$lcc1887642$487                   player
     0000172E  A$lcc1887642$488                   player
     00001730  A$lcc1887642$489                   player
     00001731  A$lcc1887642$490                   player
     00001733  A$lcc1887642$491                   player
     00001734  A$lcc1887642$492                   player
     00001736  A$lcc1887642$493                   player
     00001737  A$lcc1887642$494                   player
     00001739  A$lcc1887642$495                   player
     0000173A  A$lcc1887642$496                   player
     0000173C  A$lcc1887642$497                   player
     0000173D  A$lcc1887642$498                   player
     0000173F  A$lcc1887642$502                   player
     0000173F  C$player.c$80$1_1$163              player
     00001742  A$lcc1887642$503                   player
     00001743  A$lcc1887642$504                   player
     00001745  A$lcc1887642$505                   player
     00001746  A$lcc1887642$506                   player
     00001747  A$lcc1887642$507                   player
     00001748  A$lcc1887642$508                   player
     00001749  A$lcc1887642$509                   player
     0000174A  A$lcc1887642$510                   player
     0000174B  A$lcc1887642$511                   player
     0000174C  A$lcc1887642$512                   player
     0000174D  A$lcc1887642$513                   player
     0000174E  A$lcc1887642$514                   player
     00001751  A$lcc1887642$515                   player
     00001752  A$lcc1887642$516                   player
     00001753  A$lcc1887642$517                   player
     00001754  A$lcc1887642$518                   player
     00001757  A$lcc1887642$519                   player
     00001758  A$lcc1887642$520                   player
     0000175A  A$lcc1887642$521                   player
     0000175B  A$lcc1887642$522                   player
     0000175C  A$lcc1887642$523                   player
     0000175F  A$lcc1887642$524                   player
     00001760  A$lcc1887642$525                   player
     00001761  A$lcc1887642$526                   player
     00001762  A$lcc1887642$527                   player
     00001763  A$lcc1887642$528                   player
     00001764  A$lcc1887642$529                   player
     00001765  A$lcc1887642$530                   player
     00001768  A$lcc1887642$531                   player
     0000176B  A$lcc1887642$535                   player
     0000176B  C$player.c$82$1_1$163              player
     0000176E  A$lcc1887642$536                   player
     0000176F  A$lcc1887642$537                   player
     00001771  A$lcc1887642$538                   player
     00001772  A$lcc1887642$539                   player
ASxxxx Linker V03.00/V05.40 + sdld,  page 60.
Hexadecimal  [32-Bits]

Area                                    Addr        Size        Decimal Bytes (Attributes)
--------------------------------        ----        ----        ------- ----- ------------
_CODE                               00000200    00002BB8 =       11192. bytes (REL,CON)

      Value  Global                              Global Defined In Module
      -----  --------------------------------   ------------------------
     00001773  A$lcc1887642$540                   player
     00001774  A$lcc1887642$541                   player
     00001775  A$lcc1887642$542                   player
     00001776  A$lcc1887642$543                   player
     00001777  A$lcc1887642$544                   player
     00001778  A$lcc1887642$545                   player
     00001779  A$lcc1887642$546                   player
     0000177A  A$lcc1887642$547                   player
     0000177D  A$lcc1887642$548                   player
     0000177E  A$lcc1887642$549                   player
     0000177F  A$lcc1887642$550                   player
     00001780  A$lcc1887642$551                   player
     00001783  A$lcc1887642$552                   player
     00001784  A$lcc1887642$553                   player
     00001786  A$lcc1887642$554                   player
     00001787  A$lcc1887642$555                   player
     00001788  A$lcc1887642$556                   player
     0000178B  A$lcc1887642$557                   player
     0000178C  A$lcc1887642$558                   player
     0000178D  A$lcc1887642$559                   player
     0000178F  A$lcc1887642$560                   player
     00001790  A$lcc1887642$561                   player
     00001791  A$lcc1887642$562                   player
     00001792  A$lcc1887642$563                   player
     00001795  A$lcc1887642$564                   player
     00001798  A$lcc1887642$568                   player
     00001798  C$player.c$84$1_1$163              player
     0000179B  A$lcc1887642$569                   player
     0000179C  A$lcc1887642$570                   player
     0000179E  A$lcc1887642$571                   player
     0000179F  A$lcc1887642$572                   player
     000017A0  A$lcc1887642$573                   player
     000017A1  A$lcc1887642$574                   player
     000017A2  A$lcc1887642$575                   player
     000017A3  A$lcc1887642$576                   player
     000017A4  A$lcc1887642$577                   player
     000017A5  A$lcc1887642$578                   player
     000017A6  A$lcc1887642$579                   player
     000017A7  A$lcc1887642$580                   player
     000017AA  A$lcc1887642$581                   player
     000017AB  A$lcc1887642$582                   player
     000017AC  A$lcc1887642$583                   player
     000017AD  A$lcc1887642$584                   player
     000017B0  A$lcc1887642$585                   player
     000017B1  A$lcc1887642$586                   player
     000017B3  A$lcc1887642$587                   player
     000017B4  A$lcc1887642$588                   player
     000017B5  A$lcc1887642$589                   player
     000017B8  A$lcc1887642$590                   player
     000017B9  A$lcc1887642$591                   player
     000017BA  A$lcc1887642$592                   player
ASxxxx Linker V03.00/V05.40 + sdld,  page 61.
Hexadecimal  [32-Bits]

Area                                    Addr        Size        Decimal Bytes (Attributes)
--------------------------------        ----        ----        ------- ----- ------------
_CODE                               00000200    00002BB8 =       11192. bytes (REL,CON)

      Value  Global                              Global Defined In Module
      -----  --------------------------------   ------------------------
     000017BC  A$lcc1887642$593                   player
     000017BD  A$lcc1887642$594                   player
     000017BE  A$lcc1887642$595                   player
     000017BF  A$lcc1887642$596                   player
     000017C2  A$lcc1887642$597                   player
     000017C5  A$lcc1887642$601                   player
     000017C5  C$player.c$86$1_1$163              player
     000017C8  A$lcc1887642$602                   player
     000017C9  A$lcc1887642$603                   player
     000017CB  A$lcc1887642$604                   player
     000017CC  A$lcc1887642$605                   player
     000017CD  A$lcc1887642$606                   player
     000017CE  A$lcc1887642$607                   player
     000017CF  A$lcc1887642$608                   player
     000017D0  A$lcc1887642$609                   player
     000017D1  A$lcc1887642$610                   player
     000017D2  A$lcc1887642$611                   player
     000017D3  A$lcc1887642$612                   player
     000017D4  A$lcc1887642$613                   player
     000017D7  A$lcc1887642$614                   player
     000017D8  A$lcc1887642$615                   player
     000017D9  A$lcc1887642$616                   player
     000017DA  A$lcc1887642$617                   player
     000017DD  A$lcc1887642$618                   player
     000017DE  A$lcc1887642$619                   player
     000017E0  A$lcc1887642$620                   player
     000017E1  A$lcc1887642$621                   player
     000017E2  A$lcc1887642$622                   player
     000017E5  A$lcc1887642$623                   player
     000017E6  A$lcc1887642$624                   player
     000017E7  A$lcc1887642$625                   player
     000017E9  A$lcc1887642$626                   player
     000017EA  A$lcc1887642$627                   player
     000017EB  A$lcc1887642$628                   player
     000017EC  A$lcc1887642$629                   player
     000017EF  A$lcc1887642$630                   player
     000017F2  A$lcc1887642$634                   player
     000017F2  C$player.c$89$1_1$163              player
     000017F5  A$lcc1887642$638                   player
     000017F5  C$player.c$90$1_1$163              player
     000017F6  A$lcc1887642$639                   player
     000017F7  A$lcc1887642$640                   player
     000017F9  A$lcc1887642$644                   player
     000017F9  C$player.c$91$1_1$163              player
     000017FC  A$lcc1887642$645                   player
     000017FE  A$lcc1887642$649                   player
     000017FE  C$player.c$92$1_1$163              player
     00001801  A$lcc1887642$650                   player
     00001803  A$lcc1887642$654                   player
     00001803  C$player.c$94$1_1$163              player
     00001806  A$lcc1887642$658                   player
ASxxxx Linker V03.00/V05.40 + sdld,  page 62.
Hexadecimal  [32-Bits]

Area                                    Addr        Size        Decimal Bytes (Attributes)
--------------------------------        ----        ----        ------- ----- ------------
_CODE                               00000200    00002BB8 =       11192. bytes (REL,CON)

      Value  Global                              Global Defined In Module
      -----  --------------------------------   ------------------------
     00001808  A$lcc1887642$663                   player
     00001808  C$player.c$95$1_1$160              player
     00001808  XG$init_player$0$0                 player
     00001809  A$lcc1887642$676                   player
     00001809  C$player.c$97$1_1$164              player
     00001809  G$cache_player_position$0$0        player
     00001809  _cache_player_position             player
     0000180C  A$lcc1887642$677                   player
     0000180D  A$lcc1887642$678                   player
     0000180F  A$lcc1887642$679                   player
     00001810  A$lcc1887642$680                   player
     00001812  A$lcc1887642$681                   player
     00001814  A$lcc1887642$682                   player
     00001815  A$lcc1887642$683                   player
     00001818  A$lcc1887642$684                   player
     0000181A  A$lcc1887642$685                   player
     0000181B  A$lcc1887642$686                   player
     0000181C  A$lcc1887642$687                   player
     0000181D  A$lcc1887642$694                   player
     0000181D  C$player.c$98$1_0$164              player
     00001820  A$lcc1887642$698                   player
     00001820  C$player.c$99$1_0$164              player
     00001821  A$lcc1887642$699                   player
     00001823  A$lcc1887642$700                   player
     00001824  A$lcc1887642$701                   player
     00001826  A$lcc1887642$702                   player
     00001828  A$lcc1887642$703                   player
     00001829  A$lcc1887642$704                   player
     0000182C  A$lcc1887642$705                   player
     0000182E  A$lcc1887642$706                   player
     0000182F  A$lcc1887642$707                   player
     00001830  A$lcc1887642$708                   player
     00001831  A$lcc1887642$712                   player
     00001831  C$player.c$100$1_0$164             player
     00001834  A$lcc1887642$713                   player
     00001835  A$lcc1887642$714                   player
     00001836  A$lcc1887642$715                   player
     00001838  A$lcc1887642$716                   player
     00001839  A$lcc1887642$717                   player
     0000183B  A$lcc1887642$718                   player
     0000183D  A$lcc1887642$719                   player
     0000183E  A$lcc1887642$720                   player
     00001841  A$lcc1887642$721                   player
     00001843  A$lcc1887642$722                   player
     00001844  A$lcc1887642$723                   player
     00001845  A$lcc1887642$724                   player
     00001846  A$lcc1887642$725                   player
     00001847  A$lcc1887642$726                   player
     00001848  A$lcc1887642$727                   player
     00001849  A$lcc1887642$728                   player
     0000184A  A$lcc1887642$732                   player
ASxxxx Linker V03.00/V05.40 + sdld,  page 63.
Hexadecimal  [32-Bits]

Area                                    Addr        Size        Decimal Bytes (Attributes)
--------------------------------        ----        ----        ------- ----- ------------
_CODE                               00000200    00002BB8 =       11192. bytes (REL,CON)

      Value  Global                              Global Defined In Module
      -----  --------------------------------   ------------------------
     0000184A  C$player.c$101$1_0$164             player
     0000184D  A$lcc1887642$733                   player
     0000184E  A$lcc1887642$734                   player
     0000184F  A$lcc1887642$735                   player
     00001851  A$lcc1887642$736                   player
     00001852  A$lcc1887642$737                   player
     00001854  A$lcc1887642$738                   player
     00001856  A$lcc1887642$739                   player
     00001857  A$lcc1887642$740                   player
     0000185A  A$lcc1887642$741                   player
     0000185C  A$lcc1887642$742                   player
     0000185D  A$lcc1887642$743                   player
     0000185E  A$lcc1887642$744                   player
     0000185F  A$lcc1887642$745                   player
     00001860  A$lcc1887642$746                   player
     00001861  A$lcc1887642$747                   player
     00001862  A$lcc1887642$748                   player
     00001863  A$lcc1887642$752                   player
     00001863  C$player.c$103$1_0$164             player
     00001866  A$lcc1887642$753                   player
     00001869  A$lcc1887642$754                   player
     0000186A  A$lcc1887642$755                   player
     0000186C  A$lcc1887642$756                   player
     0000186D  A$lcc1887642$757                   player
     0000186F  A$lcc1887642$765                   player
     0000186F  C$player.c$104$1_0$164             player
     0000186F  XG$cache_player_position$0$0       player
     00001870  A$lcc1887644$59                    random
     00001870  C$random.c$5$0_0$1                 random
     00001870  C$random.c$7$1_0$1                 random
     00001870  G$my_rand$0$0                      random
     00001870  _my_rand                           random
     00001873  A$lcc1887644$60                    random
     00001874  A$lcc1887644$61                    random
     00001875  A$lcc1887644$62                    random
     00001876  A$lcc1887644$63                    random
     00001877  A$lcc1887644$64                    random
     00001878  A$lcc1887644$65                    random
     00001879  A$lcc1887644$66                    random
     0000187A  A$lcc1887644$67                    random
     0000187B  A$lcc1887644$68                    random
     0000187C  A$lcc1887644$69                    random
     0000187D  A$lcc1887644$70                    random
     0000187E  A$lcc1887644$71                    random
     0000187F  A$lcc1887644$72                    random
     00001880  A$lcc1887644$73                    random
     00001881  A$lcc1887644$74                    random
     00001882  A$lcc1887644$75                    random
     00001883  A$lcc1887644$76                    random
     00001884  A$lcc1887644$77                    random
     00001885  A$lcc1887644$78                    random
ASxxxx Linker V03.00/V05.40 + sdld,  page 64.
Hexadecimal  [32-Bits]

Area                                    Addr        Size        Decimal Bytes (Attributes)
--------------------------------        ----        ----        ------- ----- ------------
_CODE                               00000200    00002BB8 =       11192. bytes (REL,CON)

      Value  Global                              Global Defined In Module
      -----  --------------------------------   ------------------------
     00001886  A$lcc1887644$79                    random
     00001887  A$lcc1887644$80                    random
     00001888  A$lcc1887644$81                    random
     00001889  A$lcc1887644$82                    random
     0000188A  A$lcc1887644$83                    random
     0000188B  A$lcc1887644$84                    random
     0000188C  A$lcc1887644$85                    random
     0000188D  A$lcc1887644$86                    random
     0000188E  A$lcc1887644$87                    random
     0000188F  A$lcc1887644$88                    random
     00001891  A$lcc1887644$89                    random
     00001894  A$lcc1887644$90                    random
     00001895  A$lcc1887644$91                    random
     00001896  A$lcc1887644$92                    random
     00001898  A$lcc1887644$96                    random
     00001898  C$random.c$8$1_0$1                 random
     00001899  A$lcc1887644$97                    random
     0000189A  A$lcc1887644$98                    random
     0000189B  A$lcc1887644$99                    random
     0000189C  A$lcc1887644$107                   random
     0000189C  C$random.c$9$1_0$1                 random
     0000189C  XG$my_rand$0$0                     random
     0000189D  A$lcc1887645$56                    render
     0000189D  C$render.c$5$0_0$130               render
     0000189D  G$render_reset$0$0                 render
     0000189D  _render_reset                      render
     0000189E  A$lcc1887645$60                    render
     0000189E  C$render.c$6$1_0$130               render
     000018A1  A$lcc1887645$61                    render
     000018A3  A$lcc1887645$62                    render
     000018A4  A$lcc1887645$63                    render
     000018A6  A$lcc1887645$67                    render
     000018A6  C$render.c$7$1_0$130               render
     000018A9  A$lcc1887645$68                    render
     000018AB  A$lcc1887645$69                    render
     000018AC  A$lcc1887645$70                    render
     000018AE  A$lcc1887645$78                    render
     000018AE  C$render.c$8$1_0$130               render
     000018AE  XG$render_reset$0$0                render
     000018AF  A$lcc1887646$56                    scene
     000018AF  C$scene.c$6$0_0$27                 scene
     000018AF  C$scene.c$8$2_0$28                 scene
     000018AF  G$Scene_Destroy$0$0                scene
     000018AF  _Scene_Destroy                     scene
     000018B2  A$lcc1887646$57                    scene
     000018B3  A$lcc1887646$58                    scene
     000018B4  A$lcc1887646$59                    scene
     000018B5  A$lcc1887646$60                    scene
     000018B6  A$lcc1887646$61                    scene
     000018B7  A$lcc1887646$62                    scene
     000018B8  A$lcc1887646$63                    scene
ASxxxx Linker V03.00/V05.40 + sdld,  page 65.
Hexadecimal  [32-Bits]

Area                                    Addr        Size        Decimal Bytes (Attributes)
--------------------------------        ----        ----        ------- ----- ------------
_CODE                               00000200    00002BB8 =       11192. bytes (REL,CON)

      Value  Global                              Global Defined In Module
      -----  --------------------------------   ------------------------
     000018B9  A$lcc1887646$67                    scene
     000018B9  C$scene.c$9$2_0$28                 scene
     000018BA  A$lcc1887646$71                    scene
     000018BA  C$scene.c$11$1_0$27                scene
     000018BB  A$lcc1887646$72                    scene
     000018BC  A$lcc1887646$73                    scene
     000018BD  A$lcc1887646$74                    scene
     000018C0  A$lcc1887646$75                    scene
     000018C1  A$lcc1887646$79                    scene
     000018C1  C$scene.c$12$1_0$27                scene
     000018C2  A$lcc1887646$80                    scene
     000018C3  A$lcc1887646$81                    scene
     000018C4  A$lcc1887646$82                    scene
     000018C5  A$lcc1887646$90                    scene
     000018C5  C$scene.c$13$1_0$27                scene
     000018C5  XG$Scene_Destroy$0$0               scene
     000018C6  A$lcc1887647$69                    scene_manager
     000018C6  C$scene_manager.c$14$0_0$149       scene_manager
     000018C6  C$scene_manager.c$15$1_0$149       scene_manager
     000018C6  G$SceneManager_CleanScreen$0$0     scene_manager
     000018C6  _SceneManager_CleanScreen          scene_manager
     000018C9  A$lcc1887647$73                    scene_manager
     000018C9  C$scene_manager.c$16$1_0$149       scene_manager
     000018CB  A$lcc1887647$74                    scene_manager
     000018CD  A$lcc1887647$75                    scene_manager
     000018CF  A$lcc1887647$79                    scene_manager
     000018CF  C$scene_manager.c$17$1_0$149       scene_manager
     000018D1  A$lcc1887647$80                    scene_manager
     000018D3  A$lcc1887647$81                    scene_manager
     000018D5  A$lcc1887647$85                    scene_manager
     000018D5  C$scene_manager.c$19$1_0$149       scene_manager
     000018D8  A$lcc1887647$89                    scene_manager
     000018D8  C$scene_manager.c$21$1_0$149       scene_manager
     000018DB  A$lcc1887647$90                    scene_manager
     000018DE  A$lcc1887647$91                    scene_manager
     000018DF  A$lcc1887647$92                    scene_manager
     000018E1  A$lcc1887647$93                    scene_manager
     000018E2  A$lcc1887647$94                    scene_manager
     000018E4  A$lcc1887647$98                    scene_manager
     000018E4  C$scene_manager.c$22$1_0$149       scene_manager
     000018E7  A$lcc1887647$99                    scene_manager
     000018EA  A$lcc1887647$103                   scene_manager
     000018EA  C$scene_manager.c$24$1_0$149       scene_manager
     000018EC  A$lcc1887647$105                   scene_manager
     000018ED  A$lcc1887647$106                   scene_manager
     000018EF  A$lcc1887647$107                   scene_manager
     000018F1  A$lcc1887647$109                   scene_manager
     000018F4  A$lcc1887647$110                   scene_manager
     000018F5  A$lcc1887647$111                   scene_manager
     000018F6  A$lcc1887647$112                   scene_manager
     000018F7  A$lcc1887647$113                   scene_manager
ASxxxx Linker V03.00/V05.40 + sdld,  page 66.
Hexadecimal  [32-Bits]

Area                                    Addr        Size        Decimal Bytes (Attributes)
--------------------------------        ----        ----        ------- ----- ------------
_CODE                               00000200    00002BB8 =       11192. bytes (REL,CON)

      Value  Global                              Global Defined In Module
      -----  --------------------------------   ------------------------
     000018F8  A$lcc1887647$114                   scene_manager
     000018F9  A$lcc1887647$115                   scene_manager
     000018FA  A$lcc1887647$117                   scene_manager
     000018FB  A$lcc1887647$118                   scene_manager
     000018FC  A$lcc1887647$119                   scene_manager
     000018FD  A$lcc1887647$123                   scene_manager
     000018FD  C$scene_manager.c$24$2_0$150       scene_manager
     000018FE  A$lcc1887647$124                   scene_manager
     00001900  A$lcc1887647$129                   scene_manager
     00001900  C$scene_manager.c$27$1_0$149       scene_manager
     00001901  A$lcc1887647$130                   scene_manager
     00001904  A$lcc1887647$134                   scene_manager
     00001904  C$scene_manager.c$28$1_0$149       scene_manager
     00001907  A$lcc1887647$135                   scene_manager
     00001909  A$lcc1887647$143                   scene_manager
     00001909  C$scene_manager.c$29$1_0$149       scene_manager
     00001909  XG$SceneManager_CleanScreen$0$0    scene_manager
     0000190A  A$lcc1887647$153                   scene_manager
     0000190A  C$scene_manager.c$31$1_0$155       scene_manager
     0000190A  G$SceneManager_Create$0$0          scene_manager
     0000190A  _SceneManager_Create               scene_manager
     0000190B  A$lcc1887647$154                   scene_manager
     0000190C  A$lcc1887647$158                   scene_manager
     0000190C  C$scene_manager.c$32$1_0$155       scene_manager
     0000190F  A$lcc1887647$159                   scene_manager
     00001910  A$lcc1887647$160                   scene_manager
     00001911  A$lcc1887647$161                   scene_manager
     00001912  A$lcc1887647$165                   scene_manager
     00001912  C$scene_manager.c$33$1_0$155       scene_manager
     00001913  A$lcc1887647$166                   scene_manager
     00001915  A$lcc1887647$167                   scene_manager
     00001916  A$lcc1887647$168                   scene_manager
     00001918  A$lcc1887647$176                   scene_manager
     00001918  C$scene_manager.c$34$1_0$155       scene_manager
     00001918  XG$SceneManager_Create$0$0         scene_manager
     00001919  A$lcc1887647$186                   scene_manager
     00001919  C$scene_manager.c$36$1_0$157       scene_manager
     00001919  G$SceneManager_ChangeScene$0$0     scene_manager
     00001919  _SceneManager_ChangeScene          scene_manager
     0000191B  A$lcc1887647$187                   scene_manager
     0000191C  A$lcc1887647$188                   scene_manager
     0000191E  A$lcc1887647$189                   scene_manager
     0000191F  A$lcc1887647$190                   scene_manager
     00001920  A$lcc1887647$191                   scene_manager
     00001921  A$lcc1887647$195                   scene_manager
     00001921  C$scene_manager.c$37$2_0$158       scene_manager
     00001924  A$lcc1887647$196                   scene_manager
     00001925  A$lcc1887647$197                   scene_manager
     00001928  A$lcc1887647$204                   scene_manager
     00001928  C$scene_manager.c$38$2_0$158       scene_manager
     00001928  C$scene_manager.c$40$2_0$159       scene_manager
ASxxxx Linker V03.00/V05.40 + sdld,  page 67.
Hexadecimal  [32-Bits]

Area                                    Addr        Size        Decimal Bytes (Attributes)
--------------------------------        ----        ----        ------- ----- ------------
_CODE                               00000200    00002BB8 =       11192. bytes (REL,CON)

      Value  Global                              Global Defined In Module
      -----  --------------------------------   ------------------------
     0000192B  A$lcc1887647$205                   scene_manager
     0000192C  A$lcc1887647$206                   scene_manager
     0000192D  A$lcc1887647$207                   scene_manager
     0000192E  A$lcc1887647$211                   scene_manager
     0000192E  C$scene_manager.c$41$2_0$159       scene_manager
     00001931  A$lcc1887647$215                   scene_manager
     00001931  C$scene_manager.c$43$1_0$157       scene_manager
     00001934  A$lcc1887647$216                   scene_manager
     00001936  A$lcc1887647$220                   scene_manager
     00001936  C$scene_manager.c$45$1_0$157       scene_manager
     00001937  A$lcc1887647$221                   scene_manager
     0000193A  A$lcc1887647$222                   scene_manager
     0000193B  A$lcc1887647$226                   scene_manager
     0000193B  C$scene_manager.c$47$1_0$157       scene_manager
     0000193D  A$lcc1887647$227                   scene_manager
     0000193F  A$lcc1887647$228                   scene_manager
     00001941  A$lcc1887647$232                   scene_manager
     00001941  C$scene_manager.c$48$1_0$157       scene_manager
     00001943  A$lcc1887647$233                   scene_manager
     00001945  A$lcc1887647$234                   scene_manager
     00001947  A$lcc1887647$238                   scene_manager
     00001947  C$scene_manager.c$49$1_0$157       scene_manager
     00001949  A$lcc1887647$239                   scene_manager
     0000194B  A$lcc1887647$240                   scene_manager
     0000194D  A$lcc1887647$244                   scene_manager
     0000194D  C$scene_manager.c$51$1_1$160       scene_manager
     0000194E  A$lcc1887647$245                   scene_manager
     00001951  A$lcc1887647$246                   scene_manager
     00001952  A$lcc1887647$247                   scene_manager
     00001953  A$lcc1887647$251                   scene_manager
     00001953  C$scene_manager.c$52$1_1$160       scene_manager
     00001955  A$lcc1887647$252                   scene_manager
     00001956  A$lcc1887647$256                   scene_manager
     00001956  C$scene_manager.c$53$1_1$160       scene_manager
     00001957  A$lcc1887647$257                   scene_manager
     00001958  A$lcc1887647$258                   scene_manager
     0000195B  A$lcc1887647$259                   scene_manager
     0000195C  A$lcc1887647$260                   scene_manager
     0000195D  A$lcc1887647$261                   scene_manager
     0000195E  A$lcc1887647$262                   scene_manager
     0000195F  A$lcc1887647$263                   scene_manager
     00001961  A$lcc1887647$264                   scene_manager
     00001962  A$lcc1887647$265                   scene_manager
     00001965  A$lcc1887647$269                   scene_manager
     00001965  C$scene_manager.c$54$1_1$160       scene_manager
     00001966  A$lcc1887647$270                   scene_manager
     00001967  A$lcc1887647$271                   scene_manager
     00001968  A$lcc1887647$272                   scene_manager
     0000196A  A$lcc1887647$273                   scene_manager
     0000196B  A$lcc1887647$274                   scene_manager
     0000196C  A$lcc1887647$275                   scene_manager
ASxxxx Linker V03.00/V05.40 + sdld,  page 68.
Hexadecimal  [32-Bits]

Area                                    Addr        Size        Decimal Bytes (Attributes)
--------------------------------        ----        ----        ------- ----- ------------
_CODE                               00000200    00002BB8 =       11192. bytes (REL,CON)

      Value  Global                              Global Defined In Module
      -----  --------------------------------   ------------------------
     0000196D  A$lcc1887647$276                   scene_manager
     0000196E  A$lcc1887647$277                   scene_manager
     0000196F  A$lcc1887647$278                   scene_manager
     00001970  A$lcc1887647$279                   scene_manager
     00001971  A$lcc1887647$280                   scene_manager
     00001972  A$lcc1887647$281                   scene_manager
     00001973  A$lcc1887647$282                   scene_manager
     00001975  A$lcc1887647$283                   scene_manager
     00001976  A$lcc1887647$284                   scene_manager
     00001977  A$lcc1887647$285                   scene_manager
     00001978  A$lcc1887647$286                   scene_manager
     00001979  A$lcc1887647$287                   scene_manager
     0000197B  A$lcc1887647$288                   scene_manager
     0000197C  A$lcc1887647$289                   scene_manager
     0000197D  A$lcc1887647$290                   scene_manager
     0000197E  A$lcc1887647$291                   scene_manager
     0000197F  A$lcc1887647$292                   scene_manager
     00001982  A$lcc1887647$293                   scene_manager
     00001983  A$lcc1887647$297                   scene_manager
     00001983  C$scene_manager.c$56$1_1$160       scene_manager
     00001986  A$lcc1887647$298                   scene_manager
     00001987  A$lcc1887647$299                   scene_manager
     00001988  A$lcc1887647$300                   scene_manager
     00001989  A$lcc1887647$301                   scene_manager
     0000198A  A$lcc1887647$302                   scene_manager
     0000198C  A$lcc1887647$303                   scene_manager
     0000198D  A$lcc1887647$304                   scene_manager
     0000198E  A$lcc1887647$305                   scene_manager
     0000198F  A$lcc1887647$306                   scene_manager
     00001990  A$lcc1887647$307                   scene_manager
     00001992  A$lcc1887647$308                   scene_manager
     00001993  A$lcc1887647$309                   scene_manager
     00001994  A$lcc1887647$310                   scene_manager
     00001995  A$lcc1887647$314                   scene_manager
     00001995  C$scene_manager.c$58$1_1$160       scene_manager
     00001998  A$lcc1887647$318                   scene_manager
     00001998  C$scene_manager.c$60$2_1$161       scene_manager
     0000199A  A$lcc1887647$319                   scene_manager
     0000199B  A$lcc1887647$320                   scene_manager
     0000199D  A$lcc1887647$324                   scene_manager
     0000199D  C$scene_manager.c$61$2_1$161       scene_manager
     0000199E  A$lcc1887647$325                   scene_manager
     000019A0  A$lcc1887647$326                   scene_manager
     000019A3  A$lcc1887647$327                   scene_manager
     000019A4  A$lcc1887647$335                   scene_manager
     000019A4  C$scene_manager.c$63$1_1$160       scene_manager
     000019A4  C$scene_manager.c$64$1_1$160       scene_manager
     000019A5  A$lcc1887647$336                   scene_manager
     000019A8  A$lcc1887647$337                   scene_manager
     000019AB  A$lcc1887647$341                   scene_manager
     000019AB  C$scene_manager.c$66$1_1$160       scene_manager
ASxxxx Linker V03.00/V05.40 + sdld,  page 69.
Hexadecimal  [32-Bits]

Area                                    Addr        Size        Decimal Bytes (Attributes)
--------------------------------        ----        ----        ------- ----- ------------
_CODE                               00000200    00002BB8 =       11192. bytes (REL,CON)

      Value  Global                              Global Defined In Module
      -----  --------------------------------   ------------------------
     000019AC  A$lcc1887647$342                   scene_manager
     000019AF  A$lcc1887647$347                   scene_manager
     000019B1  A$lcc1887647$352                   scene_manager
     000019B1  C$scene_manager.c$67$1_1$157       scene_manager
     000019B1  XG$SceneManager_ChangeScene$0$0    scene_manager
     000019B2  A$lcc1887649$61                    gender_select
     000019B2  C$gender_select.c$6$0_0$30         gender_select
     000019B2  C$gender_select.c$8$1_0$30         gender_select
     000019B2  G$GenderSelect_Create$0$0          gender_select
     000019B2  _GenderSelect_Create               gender_select
     000019B5  A$lcc1887649$62                    gender_select
     000019B7  A$lcc1887649$63                    gender_select
     000019B8  A$lcc1887649$64                    gender_select
     000019BA  A$lcc1887649$68                    gender_select
     000019BA  C$gender_select.c$9$1_0$30         gender_select
     000019BB  A$lcc1887649$69                    gender_select
     000019BD  A$lcc1887649$70                    gender_select
     000019BE  A$lcc1887649$71                    gender_select
     000019C0  A$lcc1887649$75                    gender_select
     000019C0  C$gender_select.c$11$1_0$30        gender_select
     000019C3  A$lcc1887649$76                    gender_select
     000019C4  A$lcc1887649$77                    gender_select
     000019C5  A$lcc1887649$78                    gender_select
     000019C6  A$lcc1887649$86                    gender_select
     000019C6  C$gender_select.c$12$1_0$30        gender_select
     000019C6  XG$GenderSelect_Create$0$0         gender_select
     000019C7  A$lcc1887650$58                    gender_select_init
     000019C7  C$gender_select_init.c$11$1_0$15   gender_select_init
     000019C7  C$gender_select_init.c$9$0_0$155   gender_select_init
     000019C7  G$GenderSelect_Init$0$0            gender_select_init
     000019C7  _GenderSelect_Init                 gender_select_init
     000019C8  A$lcc1887650$59                    gender_select_init
     000019CB  A$lcc1887650$60                    gender_select_init
     000019CE  A$lcc1887650$61                    gender_select_init
     000019CF  A$lcc1887650$62                    gender_select_init
     000019D0  A$lcc1887650$63                    gender_select_init
     000019D1  A$lcc1887650$67                    gender_select_init
     000019D1  C$gender_select_init.c$12$2_0$15   gender_select_init
     000019D2  A$lcc1887650$68                    gender_select_init
     000019D3  A$lcc1887650$72                    gender_select_init
     000019D3  C$gender_select_init.c$13$2_0$15   gender_select_init
     000019D4  A$lcc1887650$76                    gender_select_init
     000019D4  C$gender_select_init.c$15$1_0$15   gender_select_init
     000019D5  A$lcc1887650$77                    gender_select_init
     000019D6  A$lcc1887650$81                    gender_select_init
     000019D6  C$gender_select_init.c$16$1_0$15   gender_select_init
     000019D9  A$lcc1887650$82                    gender_select_init
     000019DA  A$lcc1887650$83                    gender_select_init
     000019DB  A$lcc1887650$84                    gender_select_init
     000019DC  A$lcc1887650$85                    gender_select_init
     000019DD  A$lcc1887650$89                    gender_select_init
ASxxxx Linker V03.00/V05.40 + sdld,  page 70.
Hexadecimal  [32-Bits]

Area                                    Addr        Size        Decimal Bytes (Attributes)
--------------------------------        ----        ----        ------- ----- ------------
_CODE                               00000200    00002BB8 =       11192. bytes (REL,CON)

      Value  Global                              Global Defined In Module
      -----  --------------------------------   ------------------------
     000019DD  C$gender_select_init.c$18$1_0$15   gender_select_init
     000019E0  A$lcc1887650$90                    gender_select_init
     000019E1  A$lcc1887650$91                    gender_select_init
     000019E4  A$lcc1887650$92                    gender_select_init
     000019E5  A$lcc1887650$93                    gender_select_init
     000019E8  A$lcc1887650$94                    gender_select_init
     000019EA  A$lcc1887650$98                    gender_select_init
     000019EA  C$gender_select_init.c$19$1_0$15   gender_select_init
     000019ED  A$lcc1887650$99                    gender_select_init
     000019EE  A$lcc1887650$100                   gender_select_init
     000019F1  A$lcc1887650$101                   gender_select_init
     000019F2  A$lcc1887650$102                   gender_select_init
     000019F3  A$lcc1887650$103                   gender_select_init
     000019F4  A$lcc1887650$104                   gender_select_init
     000019F5  A$lcc1887650$105                   gender_select_init
     000019F8  A$lcc1887650$106                   gender_select_init
     000019FA  A$lcc1887650$114                   gender_select_init
     000019FA  C$gender_select_init.c$20$1_0$15   gender_select_init
     000019FA  XG$GenderSelect_Init$0$0           gender_select_init
     000019FB  A$lcc1887651$62                    gender_select_update
     000019FB  C$gender_select_update.c$6$0_0$1   gender_select_update
     000019FB  C$gender_select_update.c$8$1_0$1   gender_select_update
     000019FB  C$gender_select_update.c$9$1_0$1   gender_select_update
     000019FB  G$GenderSelect_Update$0$0          gender_select_update
     000019FB  XG$GenderSelect_Update$0$0         gender_select_update
     000019FB  _GenderSelect_Update               gender_select_update
     000019FC  A$lcc1887652$61                    inventory_scene
     000019FC  C$inventory_scene.c$6$0_0$11       inventory_scene
     000019FC  C$inventory_scene.c$7$1_0$11       inventory_scene
     000019FC  G$InventoryScene_Create$0$0        inventory_scene
     000019FC  _InventoryScene_Create             inventory_scene
     000019FF  A$lcc1887652$62                    inventory_scene
     00001A01  A$lcc1887652$63                    inventory_scene
     00001A02  A$lcc1887652$64                    inventory_scene
     00001A04  A$lcc1887652$68                    inventory_scene
     00001A04  C$inventory_scene.c$8$1_0$11       inventory_scene
     00001A05  A$lcc1887652$69                    inventory_scene
     00001A07  A$lcc1887652$70                    inventory_scene
     00001A08  A$lcc1887652$71                    inventory_scene
     00001A0A  A$lcc1887652$75                    inventory_scene
     00001A0A  C$inventory_scene.c$9$1_0$11       inventory_scene
     00001A0D  A$lcc1887652$76                    inventory_scene
     00001A0F  A$lcc1887652$84                    inventory_scene
     00001A0F  C$inventory_scene.c$10$1_0$11      inventory_scene
     00001A0F  XG$InventoryScene_Create$0$0       inventory_scene
     00001A10  A$lcc1887653$56                    inventory_scene_init
     00001A10  C$inventory_scene_init.c$12$0_0$   inventory_scene_init
     00001A10  G$InventoryScene_DrawCoins$0$0     inventory_scene_init
     00001A10  _InventoryScene_DrawCoins          inventory_scene_init
     00001A12  A$lcc1887653$60                    inventory_scene_init
     00001A12  C$inventory_scene_init.c$13$1_0$   inventory_scene_init
ASxxxx Linker V03.00/V05.40 + sdld,  page 71.
Hexadecimal  [32-Bits]

Area                                    Addr        Size        Decimal Bytes (Attributes)
--------------------------------        ----        ----        ------- ----- ------------
_CODE                               00000200    00002BB8 =       11192. bytes (REL,CON)

      Value  Global                              Global Defined In Module
      -----  --------------------------------   ------------------------
     00001A15  A$lcc1887653$61                    inventory_scene_init
     00001A17  A$lcc1887653$62                    inventory_scene_init
     00001A18  A$lcc1887653$63                    inventory_scene_init
     00001A1B  A$lcc1887653$64                    inventory_scene_init
     00001A1D  A$lcc1887653$65                    inventory_scene_init
     00001A1E  A$lcc1887653$66                    inventory_scene_init
     00001A21  A$lcc1887653$67                    inventory_scene_init
     00001A22  A$lcc1887653$68                    inventory_scene_init
     00001A23  A$lcc1887653$69                    inventory_scene_init
     00001A24  A$lcc1887653$70                    inventory_scene_init
     00001A27  A$lcc1887653$71                    inventory_scene_init
     00001A28  A$lcc1887653$72                    inventory_scene_init
     00001A2A  A$lcc1887653$73                    inventory_scene_init
     00001A2D  A$lcc1887653$74                    inventory_scene_init
     00001A2E  A$lcc1887653$75                    inventory_scene_init
     00001A30  A$lcc1887653$76                    inventory_scene_init
     00001A32  A$lcc1887653$77                    inventory_scene_init
     00001A33  A$lcc1887653$81                    inventory_scene_init
     00001A33  C$inventory_scene_init.c$14$1_0$   inventory_scene_init
     00001A36  A$lcc1887653$82                    inventory_scene_init
     00001A38  A$lcc1887653$83                    inventory_scene_init
     00001A39  A$lcc1887653$84                    inventory_scene_init
     00001A3A  A$lcc1887653$85                    inventory_scene_init
     00001A3B  A$lcc1887653$86                    inventory_scene_init
     00001A3E  A$lcc1887653$87                    inventory_scene_init
     00001A3F  A$lcc1887653$88                    inventory_scene_init
     00001A40  A$lcc1887653$89                    inventory_scene_init
     00001A43  A$lcc1887653$90                    inventory_scene_init
     00001A46  A$lcc1887653$91                    inventory_scene_init
     00001A47  A$lcc1887653$92                    inventory_scene_init
     00001A49  A$lcc1887653$93                    inventory_scene_init
     00001A4B  A$lcc1887653$94                    inventory_scene_init
     00001A4C  A$lcc1887653$98                    inventory_scene_init
     00001A4C  C$inventory_scene_init.c$15$1_0$   inventory_scene_init
     00001A4F  A$lcc1887653$99                    inventory_scene_init
     00001A51  A$lcc1887653$100                   inventory_scene_init
     00001A52  A$lcc1887653$101                   inventory_scene_init
     00001A53  A$lcc1887653$102                   inventory_scene_init
     00001A54  A$lcc1887653$103                   inventory_scene_init
     00001A57  A$lcc1887653$104                   inventory_scene_init
     00001A58  A$lcc1887653$105                   inventory_scene_init
     00001A59  A$lcc1887653$106                   inventory_scene_init
     00001A5C  A$lcc1887653$107                   inventory_scene_init
     00001A5F  A$lcc1887653$108                   inventory_scene_init
     00001A60  A$lcc1887653$109                   inventory_scene_init
     00001A62  A$lcc1887653$110                   inventory_scene_init
     00001A64  A$lcc1887653$114                   inventory_scene_init
     00001A64  C$inventory_scene_init.c$16$1_0$   inventory_scene_init
     00001A65  A$lcc1887653$115                   inventory_scene_init
     00001A66  A$lcc1887653$116                   inventory_scene_init
     00001A69  A$lcc1887653$117                   inventory_scene_init
ASxxxx Linker V03.00/V05.40 + sdld,  page 72.
Hexadecimal  [32-Bits]

Area                                    Addr        Size        Decimal Bytes (Attributes)
--------------------------------        ----        ----        ------- ----- ------------
_CODE                               00000200    00002BB8 =       11192. bytes (REL,CON)

      Value  Global                              Global Defined In Module
      -----  --------------------------------   ------------------------
     00001A6A  A$lcc1887653$118                   inventory_scene_init
     00001A6B  A$lcc1887653$119                   inventory_scene_init
     00001A6C  A$lcc1887653$120                   inventory_scene_init
     00001A6F  A$lcc1887653$121                   inventory_scene_init
     00001A70  A$lcc1887653$122                   inventory_scene_init
     00001A72  A$lcc1887653$123                   inventory_scene_init
     00001A74  A$lcc1887653$124                   inventory_scene_init
     00001A75  A$lcc1887653$128                   inventory_scene_init
     00001A75  C$inventory_scene_init.c$19$1_0$   inventory_scene_init
     00001A77  A$lcc1887653$132                   inventory_scene_init
     00001A77  C$inventory_scene_init.c$18$1_0$   inventory_scene_init
     00001A78  A$lcc1887653$133                   inventory_scene_init
     00001A7B  A$lcc1887653$134                   inventory_scene_init
     00001A7C  A$lcc1887653$135                   inventory_scene_init
     00001A7F  A$lcc1887653$136                   inventory_scene_init
     00001A80  A$lcc1887653$137                   inventory_scene_init
     00001A83  A$lcc1887653$138                   inventory_scene_init
     00001A85  A$lcc1887653$142                   inventory_scene_init
     00001A85  C$inventory_scene_init.c$21$1_0$   inventory_scene_init
     00001A87  A$lcc1887653$146                   inventory_scene_init
     00001A87  C$inventory_scene_init.c$20$1_0$   inventory_scene_init
     00001A88  A$lcc1887653$147                   inventory_scene_init
     00001A8B  A$lcc1887653$148                   inventory_scene_init
     00001A8C  A$lcc1887653$149                   inventory_scene_init
     00001A8F  A$lcc1887653$150                   inventory_scene_init
     00001A90  A$lcc1887653$151                   inventory_scene_init
     00001A93  A$lcc1887653$152                   inventory_scene_init
     00001A95  A$lcc1887653$156                   inventory_scene_init
     00001A95  C$inventory_scene_init.c$23$1_0$   inventory_scene_init
     00001A97  A$lcc1887653$160                   inventory_scene_init
     00001A97  C$inventory_scene_init.c$22$1_0$   inventory_scene_init
     00001A98  A$lcc1887653$161                   inventory_scene_init
     00001A9B  A$lcc1887653$162                   inventory_scene_init
     00001A9C  A$lcc1887653$163                   inventory_scene_init
     00001A9F  A$lcc1887653$164                   inventory_scene_init
     00001AA0  A$lcc1887653$165                   inventory_scene_init
     00001AA3  A$lcc1887653$166                   inventory_scene_init
     00001AA5  A$lcc1887653$170                   inventory_scene_init
     00001AA5  C$inventory_scene_init.c$25$1_0$   inventory_scene_init
     00001AA7  A$lcc1887653$171                   inventory_scene_init
     00001AA8  A$lcc1887653$172                   inventory_scene_init
     00001AA9  A$lcc1887653$176                   inventory_scene_init
     00001AA9  C$inventory_scene_init.c$24$1_0$   inventory_scene_init
     00001AAA  A$lcc1887653$177                   inventory_scene_init
     00001AAD  A$lcc1887653$178                   inventory_scene_init
     00001AAE  A$lcc1887653$179                   inventory_scene_init
     00001AB1  A$lcc1887653$180                   inventory_scene_init
     00001AB2  A$lcc1887653$181                   inventory_scene_init
     00001AB5  A$lcc1887653$185                   inventory_scene_init
     00001AB7  A$lcc1887653$190                   inventory_scene_init
     00001AB7  C$inventory_scene_init.c$26$1_0$   inventory_scene_init
ASxxxx Linker V03.00/V05.40 + sdld,  page 73.
Hexadecimal  [32-Bits]

Area                                    Addr        Size        Decimal Bytes (Attributes)
--------------------------------        ----        ----        ------- ----- ------------
_CODE                               00000200    00002BB8 =       11192. bytes (REL,CON)

      Value  Global                              Global Defined In Module
      -----  --------------------------------   ------------------------
     00001AB7  XG$InventoryScene_DrawCoins$0$0    inventory_scene_init
     00001AB8  A$lcc1887653$200                   inventory_scene_init
     00001AB8  C$inventory_scene_init.c$28$1_0$   inventory_scene_init
     00001AB8  G$InventoryScene_Init$0$0          inventory_scene_init
     00001AB8  _InventoryScene_Init               inventory_scene_init
     00001AB9  A$lcc1887653$204                   inventory_scene_init
     00001AB9  C$inventory_scene_init.c$29$1_0$   inventory_scene_init
     00001ABC  A$lcc1887653$205                   inventory_scene_init
     00001ABD  A$lcc1887653$206                   inventory_scene_init
     00001ABE  A$lcc1887653$207                   inventory_scene_init
     00001ABF  A$lcc1887653$208                   inventory_scene_init
     00001AC0  A$lcc1887653$212                   inventory_scene_init
     00001AC0  C$inventory_scene_init.c$30$1_0$   inventory_scene_init
     00001AC3  A$lcc1887653$216                   inventory_scene_init
     00001AC3  C$inventory_scene_init.c$32$2_0$   inventory_scene_init
     00001AC5  A$lcc1887653$217                   inventory_scene_init
     00001AC7  A$lcc1887653$221                   inventory_scene_init
     00001AC7  C$inventory_scene_init.c$34$1_1$   inventory_scene_init
     00001ACA  A$lcc1887653$222                   inventory_scene_init
     00001ACB  A$lcc1887653$223                   inventory_scene_init
     00001ACE  A$lcc1887653$224                   inventory_scene_init
     00001ACF  A$lcc1887653$225                   inventory_scene_init
     00001AD2  A$lcc1887653$226                   inventory_scene_init
     00001AD4  A$lcc1887653$230                   inventory_scene_init
     00001AD4  C$inventory_scene_init.c$35$1_1$   inventory_scene_init
     00001AD7  A$lcc1887653$231                   inventory_scene_init
     00001AD8  A$lcc1887653$232                   inventory_scene_init
     00001ADB  A$lcc1887653$233                   inventory_scene_init
     00001ADC  A$lcc1887653$234                   inventory_scene_init
     00001ADD  A$lcc1887653$235                   inventory_scene_init
     00001ADE  A$lcc1887653$236                   inventory_scene_init
     00001ADF  A$lcc1887653$237                   inventory_scene_init
     00001AE2  A$lcc1887653$238                   inventory_scene_init
     00001AE4  A$lcc1887653$242                   inventory_scene_init
     00001AE4  C$inventory_scene_init.c$37$3_1$   inventory_scene_init
     00001AE6  A$lcc1887653$244                   inventory_scene_init
     00001AE7  A$lcc1887653$245                   inventory_scene_init
     00001AE9  A$lcc1887653$246                   inventory_scene_init
     00001AEB  A$lcc1887653$250                   inventory_scene_init
     00001AEB  C$inventory_scene_init.c$38$4_1$   inventory_scene_init
     00001AEC  A$lcc1887653$251                   inventory_scene_init
     00001AED  A$lcc1887653$252                   inventory_scene_init
     00001AEE  A$lcc1887653$253                   inventory_scene_init
     00001AEF  A$lcc1887653$254                   inventory_scene_init
     00001AF2  A$lcc1887653$255                   inventory_scene_init
     00001AF3  A$lcc1887653$256                   inventory_scene_init
     00001AF4  A$lcc1887653$257                   inventory_scene_init
     00001AF5  A$lcc1887653$258                   inventory_scene_init
     00001AF6  A$lcc1887653$259                   inventory_scene_init
     00001AF8  A$lcc1887653$263                   inventory_scene_init
     00001AF8  C$inventory_scene_init.c$41$3_1$   inventory_scene_init
ASxxxx Linker V03.00/V05.40 + sdld,  page 74.
Hexadecimal  [32-Bits]

Area                                    Addr        Size        Decimal Bytes (Attributes)
--------------------------------        ----        ----        ------- ----- ------------
_CODE                               00000200    00002BB8 =       11192. bytes (REL,CON)

      Value  Global                              Global Defined In Module
      -----  --------------------------------   ------------------------
     00001AFB  A$lcc1887653$264                   inventory_scene_init
     00001AFC  A$lcc1887653$265                   inventory_scene_init
     00001AFF  A$lcc1887653$266                   inventory_scene_init
     00001B00  A$lcc1887653$267                   inventory_scene_init
     00001B03  A$lcc1887653$268                   inventory_scene_init
     00001B05  A$lcc1887653$272                   inventory_scene_init
     00001B05  C$inventory_scene_init.c$42$3_1$   inventory_scene_init
     00001B07  A$lcc1887653$273                   inventory_scene_init
     00001B08  A$lcc1887653$274                   inventory_scene_init
     00001B0B  A$lcc1887653$275                   inventory_scene_init
     00001B0C  A$lcc1887653$276                   inventory_scene_init
     00001B0F  A$lcc1887653$277                   inventory_scene_init
     00001B10  A$lcc1887653$278                   inventory_scene_init
     00001B13  A$lcc1887653$279                   inventory_scene_init
     00001B15  A$lcc1887653$284                   inventory_scene_init
     00001B15  C$inventory_scene_init.c$37$2_1$   inventory_scene_init
     00001B16  A$lcc1887653$285                   inventory_scene_init
     00001B18  A$lcc1887653$290                   inventory_scene_init
     00001B18  C$inventory_scene_init.c$45$1_1$   inventory_scene_init
     00001B1B  A$lcc1887653$294                   inventory_scene_init
     00001B1C  A$lcc1887653$299                   inventory_scene_init
     00001B1C  C$inventory_scene_init.c$46$1_1$   inventory_scene_init
     00001B1C  XG$InventoryScene_Init$0$0         inventory_scene_init
     00001B1D  A$lcc1887654$57                    inventory_scene_update
     00001B1D  C$inventory_scene_update.c$8$0_0   inventory_scene_update
     00001B1D  C$inventory_scene_update.c$9$1_0   inventory_scene_update
     00001B1D  G$InventoryScene_Update$0$0        inventory_scene_update
     00001B1D  _InventoryScene_Update             inventory_scene_update
     00001B20  A$lcc1887654$58                    inventory_scene_update
     00001B23  A$lcc1887654$69                    inventory_scene_update
     00001B23  C$inventory_scene_update.c$10$1_   inventory_scene_update
     00001B23  C$inventory_scene_update.c$11$1_   inventory_scene_update
     00001B23  XG$InventoryScene_Update$0$0       inventory_scene_update
     00001B26  A$lcc1887655$73                    main_menu
     00001B26  C$main_menu.c$11$1_0$31            main_menu
     00001B26  C$main_menu.c$9$0_0$31             main_menu
     00001B26  G$MainMenu_Create$0$0              main_menu
     00001B26  _MainMenu_Create                   main_menu
     00001B29  A$lcc1887655$74                    main_menu
     00001B2B  A$lcc1887655$75                    main_menu
     00001B2C  A$lcc1887655$76                    main_menu
     00001B2E  A$lcc1887655$80                    main_menu
     00001B2E  C$main_menu.c$12$1_0$31            main_menu
     00001B2F  A$lcc1887655$81                    main_menu
     00001B31  A$lcc1887655$82                    main_menu
     00001B32  A$lcc1887655$83                    main_menu
     00001B34  A$lcc1887655$87                    main_menu
     00001B34  C$main_menu.c$13$1_0$31            main_menu
     00001B37  A$lcc1887655$88                    main_menu
     00001B39  A$lcc1887655$92                    main_menu
     00001B39  C$main_menu.c$15$1_0$31            main_menu
ASxxxx Linker V03.00/V05.40 + sdld,  page 75.
Hexadecimal  [32-Bits]

Area                                    Addr        Size        Decimal Bytes (Attributes)
--------------------------------        ----        ----        ------- ----- ------------
_CODE                               00000200    00002BB8 =       11192. bytes (REL,CON)

      Value  Global                              Global Defined In Module
      -----  --------------------------------   ------------------------
     00001B3C  A$lcc1887655$93                    main_menu
     00001B3D  A$lcc1887655$94                    main_menu
     00001B3E  A$lcc1887655$95                    main_menu
     00001B3F  A$lcc1887655$103                   main_menu
     00001B3F  C$main_menu.c$16$1_0$31            main_menu
     00001B3F  XG$MainMenu_Create$0$0             main_menu
     00001B40  A$lcc1887656$57                    main_menu_init
     00001B40  C$main_menu_init.c$10$1_0$167      main_menu_init
     00001B40  C$main_menu_init.c$8$0_0$167       main_menu_init
     00001B40  G$MainMenu_Init$0$0                main_menu_init
     00001B40  _MainMenu_Init                     main_menu_init
     00001B43  A$lcc1887656$58                    main_menu_init
     00001B44  A$lcc1887656$59                    main_menu_init
     00001B45  A$lcc1887656$60                    main_menu_init
     00001B46  A$lcc1887656$61                    main_menu_init
     00001B47  A$lcc1887656$65                    main_menu_init
     00001B47  C$main_menu_init.c$12$2_0$168      main_menu_init
     00001B49  A$lcc1887656$66                    main_menu_init
     00001B4A  A$lcc1887656$70                    main_menu_init
     00001B4A  C$main_menu_init.c$13$1_1$168      main_menu_init
     00001B4C  A$lcc1887656$71                    main_menu_init
     00001B4E  A$lcc1887656$72                    main_menu_init
     00001B51  A$lcc1887656$73                    main_menu_init
     00001B53  A$lcc1887656$77                    main_menu_init
     00001B53  C$main_menu_init.c$15$1_1$168      main_menu_init
     00001B56  A$lcc1887656$78                    main_menu_init
     00001B57  A$lcc1887656$79                    main_menu_init
     00001B5A  A$lcc1887656$80                    main_menu_init
     00001B5B  A$lcc1887656$81                    main_menu_init
     00001B5E  A$lcc1887656$82                    main_menu_init
     00001B60  A$lcc1887656$86                    main_menu_init
     00001B60  C$main_menu_init.c$16$1_1$168      main_menu_init
     00001B63  A$lcc1887656$87                    main_menu_init
     00001B64  A$lcc1887656$88                    main_menu_init
     00001B67  A$lcc1887656$89                    main_menu_init
     00001B68  A$lcc1887656$90                    main_menu_init
     00001B69  A$lcc1887656$91                    main_menu_init
     00001B6A  A$lcc1887656$92                    main_menu_init
     00001B6B  A$lcc1887656$93                    main_menu_init
     00001B6E  A$lcc1887656$94                    main_menu_init
     00001B70  A$lcc1887656$98                    main_menu_init
     00001B70  C$main_menu_init.c$18$1_1$168      main_menu_init
     00001B71  A$lcc1887656$99                    main_menu_init
     00001B73  A$lcc1887656$100                   main_menu_init
     00001B76  A$lcc1887656$101                   main_menu_init
     00001B77  A$lcc1887656$109                   main_menu_init
     00001B77  C$main_menu_init.c$19$1_1$167      main_menu_init
     00001B77  XG$MainMenu_Init$0$0               main_menu_init
     00001B78  A$lcc1887657$59                    main_menu_init_stats
     00001B78  C$main_menu_init_stats.c$3$0_0$3   main_menu_init_stats
     00001B78  C$main_menu_init_stats.c$5$0_0$3   main_menu_init_stats
ASxxxx Linker V03.00/V05.40 + sdld,  page 76.
Hexadecimal  [32-Bits]

Area                                    Addr        Size        Decimal Bytes (Attributes)
--------------------------------        ----        ----        ------- ----- ------------
_CODE                               00000200    00002BB8 =       11192. bytes (REL,CON)

      Value  Global                              Global Defined In Module
      -----  --------------------------------   ------------------------
     00001B78  G$MainMenu_InitRandomStats$0$0     main_menu_init_stats
     00001B78  XG$MainMenu_InitRandomStats$0$0    main_menu_init_stats
     00001B78  _MainMenu_InitRandomStats          main_menu_init_stats
     00001B79  A$lcc1887658$53                    main_menu_input
     00001B79  C$main_menu_input.c$12$0_0$173     main_menu_input
     00001B79  G$MainMenu_CheckInput$0$0          main_menu_input
     00001B79  _MainMenu_CheckInput               main_menu_input
     00001B7A  A$lcc1887658$57                    main_menu_input
     00001B7A  C$main_menu_input.c$13$2_0$173     main_menu_input
     00001B7D  A$lcc1887658$58                    main_menu_input
     00001B7E  A$lcc1887658$59                    main_menu_input
     00001B80  A$lcc1887658$60                    main_menu_input
     00001B83  A$lcc1887658$61                    main_menu_input
     00001B84  A$lcc1887658$62                    main_menu_input
     00001B86  A$lcc1887658$66                    main_menu_input
     00001B86  C$main_menu_input.c$14$3_0$174     main_menu_input
     00001B88  A$lcc1887658$67                    main_menu_input
     00001B8B  A$lcc1887658$68                    main_menu_input
     00001B8C  A$lcc1887658$69                    main_menu_input
     00001B8E  A$lcc1887658$73                    main_menu_input
     00001B8E  C$main_menu_input.c$15$3_0$174     main_menu_input
     00001B90  A$lcc1887658$74                    main_menu_input
     00001B91  A$lcc1887658$75                    main_menu_input
     00001B92  A$lcc1887658$79                    main_menu_input
     00001B92  C$main_menu_input.c$17$5_0$176     main_menu_input
     00001B94  A$lcc1887658$80                    main_menu_input
     00001B96  A$lcc1887658$82                    main_menu_input
     00001B98  A$lcc1887658$83                    main_menu_input
     00001B99  A$lcc1887658$84                    main_menu_input
     00001B9B  A$lcc1887658$85                    main_menu_input
     00001B9D  A$lcc1887658$89                    main_menu_input
     00001B9D  C$main_menu_input.c$18$5_0$176     main_menu_input
     00001BA0  A$lcc1887658$90                    main_menu_input
     00001BA1  A$lcc1887658$91                    main_menu_input
     00001BA3  A$lcc1887658$92                    main_menu_input
     00001BA4  A$lcc1887658$93                    main_menu_input
     00001BA5  A$lcc1887658$94                    main_menu_input
     00001BA8  A$lcc1887658$95                    main_menu_input
     00001BA9  A$lcc1887658$96                    main_menu_input
     00001BAA  A$lcc1887658$97                    main_menu_input
     00001BAD  A$lcc1887658$98                    main_menu_input
     00001BAE  A$lcc1887658$99                    main_menu_input
     00001BAF  A$lcc1887658$100                   main_menu_input
     00001BB2  A$lcc1887658$101                   main_menu_input
     00001BB3  A$lcc1887658$102                   main_menu_input
     00001BB4  A$lcc1887658$103                   main_menu_input
     00001BB5  A$lcc1887658$107                   main_menu_input
     00001BB5  C$main_menu_input.c$17$4_0$175     main_menu_input
     00001BB7  A$lcc1887658$108                   main_menu_input
     00001BB8  A$lcc1887658$109                   main_menu_input
     00001BBA  A$lcc1887658$114                   main_menu_input
ASxxxx Linker V03.00/V05.40 + sdld,  page 77.
Hexadecimal  [32-Bits]

Area                                    Addr        Size        Decimal Bytes (Attributes)
--------------------------------        ----        ----        ------- ----- ------------
_CODE                               00000200    00002BB8 =       11192. bytes (REL,CON)

      Value  Global                              Global Defined In Module
      -----  --------------------------------   ------------------------
     00001BBA  C$main_menu_input.c$21$3_0$174     main_menu_input
     00001BBD  A$lcc1887658$115                   main_menu_input
     00001BBE  A$lcc1887658$116                   main_menu_input
     00001BBF  A$lcc1887658$117                   main_menu_input
     00001BC0  A$lcc1887658$118                   main_menu_input
     00001BC3  A$lcc1887658$119                   main_menu_input
     00001BC5  A$lcc1887658$120                   main_menu_input
     00001BC6  A$lcc1887658$121                   main_menu_input
     00001BC8  A$lcc1887658$122                   main_menu_input
     00001BC9  A$lcc1887658$123                   main_menu_input
     00001BCA  A$lcc1887658$124                   main_menu_input
     00001BCB  A$lcc1887658$125                   main_menu_input
     00001BCC  A$lcc1887658$130                   main_menu_input
     00001BCD  A$lcc1887658$135                   main_menu_input
     00001BCD  C$main_menu_input.c$23$2_0$173     main_menu_input
     00001BCD  XG$MainMenu_CheckInput$0$0         main_menu_input
     00001BCE  A$lcc1887659$55                    main_menu_update
     00001BCE  C$main_menu_update.c$7$0_0$157     main_menu_update
     00001BCE  G$MainMenu_Update$0$0              main_menu_update
     00001BCE  _MainMenu_Update                   main_menu_update
     00001BD0  A$lcc1887659$59                    main_menu_update
     00001BD0  C$main_menu_update.c$9$1_0$157     main_menu_update
     00001BD3  A$lcc1887659$60                    main_menu_update
     00001BD4  A$lcc1887659$61                    main_menu_update
     00001BD6  A$lcc1887659$62                    main_menu_update
     00001BD7  A$lcc1887659$63                    main_menu_update
     00001BD8  A$lcc1887659$68                    main_menu_update
     00001BD8  C$main_menu_update.c$10$1_0$157    main_menu_update
     00001BDB  A$lcc1887659$72                    main_menu_update
     00001BDB  C$main_menu_update.c$12$2_0$158    main_menu_update
     00001BDE  A$lcc1887659$73                    main_menu_update
     00001BDF  A$lcc1887659$74                    main_menu_update
     00001BE1  A$lcc1887659$75                    main_menu_update
     00001BE4  A$lcc1887659$76                    main_menu_update
     00001BE5  A$lcc1887659$77                    main_menu_update
     00001BE6  A$lcc1887659$78                    main_menu_update
     00001BE7  A$lcc1887659$79                    main_menu_update
     00001BE8  A$lcc1887659$80                    main_menu_update
     00001BEB  A$lcc1887659$84                    main_menu_update
     00001BEB  C$main_menu_update.c$14$3_0$159    main_menu_update
     00001BEC  A$lcc1887659$85                    main_menu_update
     00001BED  A$lcc1887659$86                    main_menu_update
     00001BEE  A$lcc1887659$87                    main_menu_update
     00001BEF  A$lcc1887659$91                    main_menu_update
     00001BEF  C$main_menu_update.c$16$4_0$160    main_menu_update
     00001BF2  A$lcc1887659$95                    main_menu_update
     00001BF2  C$main_menu_update.c$18$5_0$161    main_menu_update
     00001BF3  A$lcc1887659$96                    main_menu_update
     00001BF5  A$lcc1887659$97                    main_menu_update
     00001BF8  A$lcc1887659$101                   main_menu_update
     00001BF8  C$main_menu_update.c$20$6_0$163    main_menu_update
ASxxxx Linker V03.00/V05.40 + sdld,  page 78.
Hexadecimal  [32-Bits]

Area                                    Addr        Size        Decimal Bytes (Attributes)
--------------------------------        ----        ----        ------- ----- ------------
_CODE                               00000200    00002BB8 =       11192. bytes (REL,CON)

      Value  Global                              Global Defined In Module
      -----  --------------------------------   ------------------------
     00001BFA  A$lcc1887659$102                   main_menu_update
     00001BFC  A$lcc1887659$106                   main_menu_update
     00001BFC  C$main_menu_update.c$21$2_0$157    main_menu_update
     00001BFE  A$lcc1887659$108                   main_menu_update
     00001BFF  A$lcc1887659$109                   main_menu_update
     00001C01  A$lcc1887659$110                   main_menu_update
     00001C03  A$lcc1887659$114                   main_menu_update
     00001C03  C$main_menu_update.c$23$7_1$164    main_menu_update
     00001C04  A$lcc1887659$115                   main_menu_update
     00001C07  A$lcc1887659$116                   main_menu_update
     00001C08  A$lcc1887659$117                   main_menu_update
     00001C09  A$lcc1887659$118                   main_menu_update
     00001C0C  A$lcc1887659$119                   main_menu_update
     00001C0D  A$lcc1887659$120                   main_menu_update
     00001C0F  A$lcc1887659$121                   main_menu_update
     00001C10  A$lcc1887659$122                   main_menu_update
     00001C11  A$lcc1887659$123                   main_menu_update
     00001C12  A$lcc1887659$124                   main_menu_update
     00001C13  A$lcc1887659$125                   main_menu_update
     00001C16  A$lcc1887659$126                   main_menu_update
     00001C18  A$lcc1887659$130                   main_menu_update
     00001C18  C$main_menu_update.c$21$6_1$163    main_menu_update
     00001C19  A$lcc1887659$131                   main_menu_update
     00001C1B  A$lcc1887659$136                   main_menu_update
     00001C1B  C$main_menu_update.c$28$5_0$165    main_menu_update
     00001C1E  A$lcc1887659$137                   main_menu_update
     00001C20  A$lcc1887659$141                   main_menu_update
     00001C20  C$main_menu_update.c$30$6_0$167    main_menu_update
     00001C22  A$lcc1887659$142                   main_menu_update
     00001C24  A$lcc1887659$143                   main_menu_update
     00001C25  A$lcc1887659$144                   main_menu_update
     00001C27  A$lcc1887659$145                   main_menu_update
     00001C28  A$lcc1887659$146                   main_menu_update
     00001C2A  A$lcc1887659$147                   main_menu_update
     00001C2B  A$lcc1887659$148                   main_menu_update
     00001C2D  A$lcc1887659$149                   main_menu_update
     00001C2E  A$lcc1887659$150                   main_menu_update
     00001C2F  A$lcc1887659$151                   main_menu_update
     00001C31  A$lcc1887659$152                   main_menu_update
     00001C32  A$lcc1887659$153                   main_menu_update
     00001C33  A$lcc1887659$154                   main_menu_update
     00001C35  A$lcc1887659$155                   main_menu_update
     00001C36  A$lcc1887659$156                   main_menu_update
     00001C38  A$lcc1887659$157                   main_menu_update
     00001C39  A$lcc1887659$158                   main_menu_update
     00001C3B  A$lcc1887659$159                   main_menu_update
     00001C3C  A$lcc1887659$160                   main_menu_update
     00001C3E  A$lcc1887659$161                   main_menu_update
     00001C3F  A$lcc1887659$162                   main_menu_update
     00001C41  A$lcc1887659$163                   main_menu_update
     00001C42  A$lcc1887659$167                   main_menu_update
ASxxxx Linker V03.00/V05.40 + sdld,  page 79.
Hexadecimal  [32-Bits]

Area                                    Addr        Size        Decimal Bytes (Attributes)
--------------------------------        ----        ----        ------- ----- ------------
_CODE                               00000200    00002BB8 =       11192. bytes (REL,CON)

      Value  Global                              Global Defined In Module
      -----  --------------------------------   ------------------------
     00001C42  C$main_menu_update.c$33$2_0$157    main_menu_update
     00001C45  A$lcc1887659$168                   main_menu_update
     00001C46  A$lcc1887659$170                   main_menu_update
     00001C47  A$lcc1887659$171                   main_menu_update
     00001C49  A$lcc1887659$172                   main_menu_update
     00001C4B  A$lcc1887659$176                   main_menu_update
     00001C4B  C$main_menu_update.c$35$7_1$168    main_menu_update
     00001C4C  A$lcc1887659$177                   main_menu_update
     00001C4E  A$lcc1887659$178                   main_menu_update
     00001C51  A$lcc1887659$179                   main_menu_update
     00001C52  A$lcc1887659$180                   main_menu_update
     00001C53  A$lcc1887659$181                   main_menu_update
     00001C54  A$lcc1887659$182                   main_menu_update
     00001C55  A$lcc1887659$183                   main_menu_update
     00001C58  A$lcc1887659$184                   main_menu_update
     00001C59  A$lcc1887659$185                   main_menu_update
     00001C5A  A$lcc1887659$186                   main_menu_update
     00001C5B  A$lcc1887659$187                   main_menu_update
     00001C5D  A$lcc1887659$191                   main_menu_update
     00001C5D  C$main_menu_update.c$36$7_1$168    main_menu_update
     00001C5F  A$lcc1887659$192                   main_menu_update
     00001C60  A$lcc1887659$193                   main_menu_update
     00001C61  A$lcc1887659$194                   main_menu_update
     00001C64  A$lcc1887659$195                   main_menu_update
     00001C65  A$lcc1887659$196                   main_menu_update
     00001C67  A$lcc1887659$197                   main_menu_update
     00001C68  A$lcc1887659$198                   main_menu_update
     00001C69  A$lcc1887659$199                   main_menu_update
     00001C6A  A$lcc1887659$200                   main_menu_update
     00001C6B  A$lcc1887659$201                   main_menu_update
     00001C6E  A$lcc1887659$202                   main_menu_update
     00001C70  A$lcc1887659$206                   main_menu_update
     00001C70  C$main_menu_update.c$37$7_1$168    main_menu_update
     00001C71  A$lcc1887659$210                   main_menu_update
     00001C71  C$main_menu_update.c$33$6_1$167    main_menu_update
     00001C72  A$lcc1887659$211                   main_menu_update
     00001C74  A$lcc1887659$216                   main_menu_update
     00001C76  A$lcc1887659$221                   main_menu_update
     00001C76  C$main_menu_update.c$41$2_0$157    main_menu_update
     00001C76  XG$MainMenu_Update$0$0             main_menu_update
     00001C77  A$lcc1887660$58                    clean_text
     00001C77  C$clean_text.c$7$0_0$133           clean_text
     00001C77  C$clean_text.c$8$1_0$133           clean_text
     00001C77  G$clean$0$0                        clean_text
     00001C77  _clean                             clean_text
     00001C7A  A$lcc1887660$59                    clean_text
     00001C7C  A$lcc1887660$63                    clean_text
     00001C7C  C$clean_text.c$10$1_0$133          clean_text
     00001C7E  A$lcc1887660$65                    clean_text
     00001C80  A$lcc1887660$66                    clean_text
     00001C81  A$lcc1887660$67                    clean_text
ASxxxx Linker V03.00/V05.40 + sdld,  page 80.
Hexadecimal  [32-Bits]

Area                                    Addr        Size        Decimal Bytes (Attributes)
--------------------------------        ----        ----        ------- ----- ------------
_CODE                               00000200    00002BB8 =       11192. bytes (REL,CON)

      Value  Global                              Global Defined In Module
      -----  --------------------------------   ------------------------
     00001C83  A$lcc1887660$71                    clean_text
     00001C83  C$clean_text.c$11$3_0$135          clean_text
     00001C84  A$lcc1887660$72                    clean_text
     00001C85  A$lcc1887660$73                    clean_text
     00001C86  A$lcc1887660$74                    clean_text
     00001C87  A$lcc1887660$75                    clean_text
     00001C88  A$lcc1887660$76                    clean_text
     00001C8A  A$lcc1887660$77                    clean_text
     00001C8B  A$lcc1887660$78                    clean_text
     00001C8E  A$lcc1887660$79                    clean_text
     00001C8F  A$lcc1887660$83                    clean_text
     00001C8F  C$clean_text.c$12$3_0$135          clean_text
     00001C90  A$lcc1887660$84                    clean_text
     00001C91  A$lcc1887660$85                    clean_text
     00001C92  A$lcc1887660$86                    clean_text
     00001C93  A$lcc1887660$87                    clean_text
     00001C95  A$lcc1887660$88                    clean_text
     00001C96  A$lcc1887660$89                    clean_text
     00001C99  A$lcc1887660$90                    clean_text
     00001C9A  A$lcc1887660$94                    clean_text
     00001C9A  C$clean_text.c$10$2_0$134          clean_text
     00001C9B  A$lcc1887660$95                    clean_text
     00001C9D  A$lcc1887660$100                   clean_text
     00001C9D  C$clean_text.c$15$1_0$133          clean_text
     00001C9F  A$lcc1887660$105                   clean_text
     00001C9F  C$clean_text.c$16$3_0$137          clean_text
     00001CA0  A$lcc1887660$106                   clean_text
     00001CA2  A$lcc1887660$107                   clean_text
     00001CA4  A$lcc1887660$108                   clean_text
     00001CA7  A$lcc1887660$109                   clean_text
     00001CA8  A$lcc1887660$110                   clean_text
     00001CAA  A$lcc1887660$111                   clean_text
     00001CAB  A$lcc1887660$112                   clean_text
     00001CAC  A$lcc1887660$113                   clean_text
     00001CAE  A$lcc1887660$114                   clean_text
     00001CAF  A$lcc1887660$115                   clean_text
     00001CB0  A$lcc1887660$116                   clean_text
     00001CB2  A$lcc1887660$117                   clean_text
     00001CB3  A$lcc1887660$118                   clean_text
     00001CB4  A$lcc1887660$119                   clean_text
     00001CB5  A$lcc1887660$120                   clean_text
     00001CB6  A$lcc1887660$121                   clean_text
     00001CB9  A$lcc1887660$122                   clean_text
     00001CBB  A$lcc1887660$126                   clean_text
     00001CBB  C$clean_text.c$15$2_0$136          clean_text
     00001CBC  A$lcc1887660$127                   clean_text
     00001CBE  A$lcc1887660$132                   clean_text
     00001CBE  C$clean_text.c$19$1_0$133          clean_text
     00001CC1  A$lcc1887660$133                   clean_text
     00001CC2  A$lcc1887660$134                   clean_text
     00001CC5  A$lcc1887660$135                   clean_text
ASxxxx Linker V03.00/V05.40 + sdld,  page 81.
Hexadecimal  [32-Bits]

Area                                    Addr        Size        Decimal Bytes (Attributes)
--------------------------------        ----        ----        ------- ----- ------------
_CODE                               00000200    00002BB8 =       11192. bytes (REL,CON)

      Value  Global                              Global Defined In Module
      -----  --------------------------------   ------------------------
     00001CC6  A$lcc1887660$136                   clean_text
     00001CC9  A$lcc1887660$137                   clean_text
     00001CCA  A$lcc1887660$138                   clean_text
     00001CCD  A$lcc1887660$139                   clean_text
     00001CCF  A$lcc1887660$143                   clean_text
     00001CCF  C$clean_text.c$20$1_0$133          clean_text
     00001CD0  A$lcc1887660$144                   clean_text
     00001CD3  A$lcc1887660$145                   clean_text
     00001CD4  A$lcc1887660$146                   clean_text
     00001CD7  A$lcc1887660$147                   clean_text
     00001CD8  A$lcc1887660$148                   clean_text
     00001CDB  A$lcc1887660$149                   clean_text
     00001CDD  A$lcc1887660$157                   clean_text
     00001CDD  C$clean_text.c$21$1_0$133          clean_text
     00001CDD  XG$clean$0$0                       clean_text
     00001CDE  G$empty_tile$0_0$0                 clean_text
     00001CDE  _empty_tile                        clean_text
     00001CDF  A$lcc1887661$53                    map_collision
     00001CDF  C$map_collision.c$9$0_0$134        map_collision
     00001CDF  Fmap_collision$get_tile$0$0        map_collision
     00001CE1  A$lcc1887661$54                    map_collision
     00001CE3  A$lcc1887661$55                    map_collision
     00001CE4  A$lcc1887661$56                    map_collision
     00001CE5  A$lcc1887661$57                    map_collision
     00001CE6  A$lcc1887661$61                    map_collision
     00001CE6  C$map_collision.c$10$1_0$134       map_collision
     00001CE9  A$lcc1887661$62                    map_collision
     00001CEA  A$lcc1887661$63                    map_collision
     00001CEB  A$lcc1887661$64                    map_collision
     00001CEC  A$lcc1887661$65                    map_collision
     00001CED  A$lcc1887661$66                    map_collision
     00001CEF  A$lcc1887661$67                    map_collision
     00001CF0  A$lcc1887661$68                    map_collision
     00001CF1  A$lcc1887661$69                    map_collision
     00001CF2  A$lcc1887661$70                    map_collision
     00001CF3  A$lcc1887661$71                    map_collision
     00001CF5  A$lcc1887661$72                    map_collision
     00001CF6  A$lcc1887661$73                    map_collision
     00001CF7  A$lcc1887661$74                    map_collision
     00001CF8  A$lcc1887661$75                    map_collision
     00001CF9  A$lcc1887661$76                    map_collision
     00001CFA  A$lcc1887661$77                    map_collision
     00001CFB  A$lcc1887661$78                    map_collision
     00001CFC  A$lcc1887661$79                    map_collision
     00001CFD  A$lcc1887661$80                    map_collision
     00001CFE  A$lcc1887661$81                    map_collision
     00001CFF  A$lcc1887661$82                    map_collision
     00001D00  A$lcc1887661$83                    map_collision
     00001D01  A$lcc1887661$84                    map_collision
     00001D03  A$lcc1887661$85                    map_collision
     00001D04  A$lcc1887661$86                    map_collision
ASxxxx Linker V03.00/V05.40 + sdld,  page 82.
Hexadecimal  [32-Bits]

Area                                    Addr        Size        Decimal Bytes (Attributes)
--------------------------------        ----        ----        ------- ----- ------------
_CODE                               00000200    00002BB8 =       11192. bytes (REL,CON)

      Value  Global                              Global Defined In Module
      -----  --------------------------------   ------------------------
     00001D05  A$lcc1887661$87                    map_collision
     00001D06  A$lcc1887661$88                    map_collision
     00001D07  A$lcc1887661$89                    map_collision
     00001D08  A$lcc1887661$90                    map_collision
     00001D09  A$lcc1887661$91                    map_collision
     00001D0A  A$lcc1887661$92                    map_collision
     00001D0B  A$lcc1887661$93                    map_collision
     00001D0C  A$lcc1887661$94                    map_collision
     00001D0D  A$lcc1887661$95                    map_collision
     00001D0E  A$lcc1887661$96                    map_collision
     00001D0F  A$lcc1887661$97                    map_collision
     00001D10  A$lcc1887661$98                    map_collision
     00001D11  A$lcc1887661$99                    map_collision
     00001D12  A$lcc1887661$100                   map_collision
     00001D13  A$lcc1887661$101                   map_collision
     00001D14  A$lcc1887661$105                   map_collision
     00001D14  C$map_collision.c$11$1_0$134       map_collision
     00001D16  A$lcc1887661$106                   map_collision
     00001D17  A$lcc1887661$107                   map_collision
     00001D18  A$lcc1887661$108                   map_collision
     00001D19  A$lcc1887661$118                   map_collision
     00001D19  C$map_collision.c$14$1_0$136       map_collision
     00001D19  G$Map_Collision$0$0                map_collision
     00001D19  _Map_Collision                     map_collision
     00001D1B  A$lcc1887661$122                   map_collision
     00001D1B  C$map_collision.c$15$1_0$136       map_collision
     00001D1E  A$lcc1887661$123                   map_collision
     00001D1F  A$lcc1887661$124                   map_collision
     00001D20  A$lcc1887661$125                   map_collision
     00001D21  A$lcc1887661$126                   map_collision
     00001D23  A$lcc1887661$127                   map_collision
     00001D24  A$lcc1887661$128                   map_collision
     00001D25  A$lcc1887661$132                   map_collision
     00001D25  C$map_collision.c$16$1_0$136       map_collision
     00001D26  A$lcc1887661$133                   map_collision
     00001D27  A$lcc1887661$134                   map_collision
     00001D28  A$lcc1887661$135                   map_collision
     00001D29  A$lcc1887661$136                   map_collision
     00001D2A  A$lcc1887661$137                   map_collision
     00001D2B  A$lcc1887661$141                   map_collision
     00001D2B  C$map_collision.c$18$1_0$136       map_collision
     00001D2E  A$lcc1887661$142                   map_collision
     00001D30  A$lcc1887661$143                   map_collision
     00001D31  A$lcc1887661$144                   map_collision
     00001D32  A$lcc1887661$145                   map_collision
     00001D34  A$lcc1887661$146                   map_collision
     00001D35  A$lcc1887661$147                   map_collision
     00001D37  A$lcc1887661$148                   map_collision
     00001D39  A$lcc1887661$149                   map_collision
     00001D3A  A$lcc1887661$153                   map_collision
     00001D3A  C$map_collision.c$19$1_0$136       map_collision
ASxxxx Linker V03.00/V05.40 + sdld,  page 83.
Hexadecimal  [32-Bits]

Area                                    Addr        Size        Decimal Bytes (Attributes)
--------------------------------        ----        ----        ------- ----- ------------
_CODE                               00000200    00002BB8 =       11192. bytes (REL,CON)

      Value  Global                              Global Defined In Module
      -----  --------------------------------   ------------------------
     00001D3D  A$lcc1887661$154                   map_collision
     00001D3F  A$lcc1887661$155                   map_collision
     00001D40  A$lcc1887661$156                   map_collision
     00001D41  A$lcc1887661$157                   map_collision
     00001D43  A$lcc1887661$158                   map_collision
     00001D44  A$lcc1887661$159                   map_collision
     00001D46  A$lcc1887661$160                   map_collision
     00001D47  A$lcc1887661$161                   map_collision
     00001D49  A$lcc1887661$162                   map_collision
     00001D4A  A$lcc1887661$166                   map_collision
     00001D4A  C$map_collision.c$21$1_0$136       map_collision
     00001D4D  A$lcc1887661$167                   map_collision
     00001D50  A$lcc1887661$171                   map_collision
     00001D50  C$map_collision.c$22$1_0$136       map_collision
     00001D53  A$lcc1887661$172                   map_collision
     00001D55  A$lcc1887661$173                   map_collision
     00001D56  A$lcc1887661$174                   map_collision
     00001D57  A$lcc1887661$178                   map_collision
     00001D57  C$map_collision.c$23$1_0$136       map_collision
     00001D5A  A$lcc1887661$179                   map_collision
     00001D5C  A$lcc1887661$180                   map_collision
     00001D5D  A$lcc1887661$181                   map_collision
     00001D5E  A$lcc1887661$185                   map_collision
     00001D5E  C$map_collision.c$24$1_0$136       map_collision
     00001D5F  A$lcc1887661$186                   map_collision
     00001D60  A$lcc1887661$187                   map_collision
     00001D63  A$lcc1887661$188                   map_collision
     00001D64  A$lcc1887661$189                   map_collision
     00001D65  A$lcc1887661$190                   map_collision
     00001D66  A$lcc1887661$191                   map_collision
     00001D68  A$lcc1887661$192                   map_collision
     00001D69  A$lcc1887661$193                   map_collision
     00001D6A  A$lcc1887661$194                   map_collision
     00001D6B  A$lcc1887661$195                   map_collision
     00001D6D  A$lcc1887661$196                   map_collision
     00001D6E  A$lcc1887661$197                   map_collision
     00001D6F  A$lcc1887661$198                   map_collision
     00001D70  A$lcc1887661$199                   map_collision
     00001D71  A$lcc1887661$200                   map_collision
     00001D72  A$lcc1887661$201                   map_collision
     00001D73  A$lcc1887661$202                   map_collision
     00001D74  A$lcc1887661$203                   map_collision
     00001D75  A$lcc1887661$204                   map_collision
     00001D76  A$lcc1887661$205                   map_collision
     00001D78  A$lcc1887661$206                   map_collision
     00001D79  A$lcc1887661$207                   map_collision
     00001D7B  A$lcc1887661$208                   map_collision
     00001D7C  A$lcc1887661$209                   map_collision
     00001D7D  A$lcc1887661$210                   map_collision
     00001D7E  A$lcc1887661$211                   map_collision
     00001D7F  A$lcc1887661$212                   map_collision
ASxxxx Linker V03.00/V05.40 + sdld,  page 84.
Hexadecimal  [32-Bits]

Area                                    Addr        Size        Decimal Bytes (Attributes)
--------------------------------        ----        ----        ------- ----- ------------
_CODE                               00000200    00002BB8 =       11192. bytes (REL,CON)

      Value  Global                              Global Defined In Module
      -----  --------------------------------   ------------------------
     00001D80  A$lcc1887661$213                   map_collision
     00001D81  A$lcc1887661$214                   map_collision
     00001D82  A$lcc1887661$215                   map_collision
     00001D83  A$lcc1887661$216                   map_collision
     00001D84  A$lcc1887661$217                   map_collision
     00001D86  A$lcc1887661$218                   map_collision
     00001D87  A$lcc1887661$219                   map_collision
     00001D88  A$lcc1887661$220                   map_collision
     00001D89  A$lcc1887661$221                   map_collision
     00001D8B  A$lcc1887661$222                   map_collision
     00001D8C  A$lcc1887661$223                   map_collision
     00001D8D  A$lcc1887661$224                   map_collision
     00001D8E  A$lcc1887661$225                   map_collision
     00001D8F  A$lcc1887661$226                   map_collision
     00001D90  A$lcc1887661$227                   map_collision
     00001D91  A$lcc1887661$228                   map_collision
     00001D92  A$lcc1887661$229                   map_collision
     00001D94  A$lcc1887661$230                   map_collision
     00001D95  A$lcc1887661$231                   map_collision
     00001D97  A$lcc1887661$232                   map_collision
     00001D98  A$lcc1887661$233                   map_collision
     00001D99  A$lcc1887661$234                   map_collision
     00001D9A  A$lcc1887661$235                   map_collision
     00001D9B  A$lcc1887661$236                   map_collision
     00001D9E  A$lcc1887661$240                   map_collision
     00001D9E  C$map_collision.c$26$1_0$136       map_collision
     00001DA0  A$lcc1887661$241                   map_collision
     00001DA1  A$lcc1887661$242                   map_collision
     00001DA2  A$lcc1887661$243                   map_collision
     00001DA3  A$lcc1887661$244                   map_collision
     00001DA4  A$lcc1887661$245                   map_collision
     00001DA5  A$lcc1887661$246                   map_collision
     00001DA6  A$lcc1887661$247                   map_collision
     00001DA7  A$lcc1887661$248                   map_collision
     00001DA8  A$lcc1887661$249                   map_collision
     00001DA9  A$lcc1887661$250                   map_collision
     00001DAA  A$lcc1887661$251                   map_collision
     00001DAB  A$lcc1887661$252                   map_collision
     00001DAC  A$lcc1887661$253                   map_collision
     00001DAD  A$lcc1887661$254                   map_collision
     00001DAE  A$lcc1887661$255                   map_collision
     00001DAF  A$lcc1887661$256                   map_collision
     00001DB1  A$lcc1887661$257                   map_collision
     00001DB2  A$lcc1887661$258                   map_collision
     00001DB4  A$lcc1887661$259                   map_collision
     00001DB5  A$lcc1887661$260                   map_collision
     00001DB6  A$lcc1887661$261                   map_collision
     00001DB7  A$lcc1887661$262                   map_collision
     00001DB9  A$lcc1887661$263                   map_collision
     00001DBA  A$lcc1887661$264                   map_collision
     00001DBB  A$lcc1887661$265                   map_collision
ASxxxx Linker V03.00/V05.40 + sdld,  page 85.
Hexadecimal  [32-Bits]

Area                                    Addr        Size        Decimal Bytes (Attributes)
--------------------------------        ----        ----        ------- ----- ------------
_CODE                               00000200    00002BB8 =       11192. bytes (REL,CON)

      Value  Global                              Global Defined In Module
      -----  --------------------------------   ------------------------
     00001DBC  A$lcc1887661$266                   map_collision
     00001DBE  A$lcc1887661$267                   map_collision
     00001DC0  A$lcc1887661$268                   map_collision
     00001DC1  A$lcc1887661$270                   map_collision
     00001DC3  A$lcc1887661$271                   map_collision
     00001DC6  A$lcc1887661$275                   map_collision
     00001DC6  C$map_collision.c$27$1_0$136       map_collision
     00001DC8  A$lcc1887661$276                   map_collision
     00001DC9  A$lcc1887661$277                   map_collision
     00001DCA  A$lcc1887661$278                   map_collision
     00001DCB  A$lcc1887661$279                   map_collision
     00001DCC  A$lcc1887661$280                   map_collision
     00001DCD  A$lcc1887661$281                   map_collision
     00001DCE  A$lcc1887661$282                   map_collision
     00001DCF  A$lcc1887661$283                   map_collision
     00001DD0  A$lcc1887661$284                   map_collision
     00001DD1  A$lcc1887661$285                   map_collision
     00001DD2  A$lcc1887661$286                   map_collision
     00001DD3  A$lcc1887661$287                   map_collision
     00001DD4  A$lcc1887661$288                   map_collision
     00001DD5  A$lcc1887661$289                   map_collision
     00001DD6  A$lcc1887661$290                   map_collision
     00001DD7  A$lcc1887661$291                   map_collision
     00001DD9  A$lcc1887661$292                   map_collision
     00001DDA  A$lcc1887661$293                   map_collision
     00001DDB  A$lcc1887661$294                   map_collision
     00001DDC  A$lcc1887661$295                   map_collision
     00001DDE  A$lcc1887661$296                   map_collision
     00001DDF  A$lcc1887661$297                   map_collision
     00001DE0  A$lcc1887661$298                   map_collision
     00001DE1  A$lcc1887661$299                   map_collision
     00001DE3  A$lcc1887661$300                   map_collision
     00001DE5  A$lcc1887661$301                   map_collision
     00001DE6  A$lcc1887661$303                   map_collision
     00001DE8  A$lcc1887661$304                   map_collision
     00001DEB  A$lcc1887661$308                   map_collision
     00001DEB  C$map_collision.c$28$1_0$136       map_collision
     00001DED  A$lcc1887661$309                   map_collision
     00001DEE  A$lcc1887661$310                   map_collision
     00001DEF  A$lcc1887661$311                   map_collision
     00001DF0  A$lcc1887661$312                   map_collision
     00001DF1  A$lcc1887661$313                   map_collision
     00001DF3  A$lcc1887661$314                   map_collision
     00001DF4  A$lcc1887661$315                   map_collision
     00001DF5  A$lcc1887661$316                   map_collision
     00001DF6  A$lcc1887661$317                   map_collision
     00001DF7  A$lcc1887661$318                   map_collision
     00001DF8  A$lcc1887661$319                   map_collision
     00001DF9  A$lcc1887661$320                   map_collision
     00001DFA  A$lcc1887661$321                   map_collision
     00001DFB  A$lcc1887661$322                   map_collision
ASxxxx Linker V03.00/V05.40 + sdld,  page 86.
Hexadecimal  [32-Bits]

Area                                    Addr        Size        Decimal Bytes (Attributes)
--------------------------------        ----        ----        ------- ----- ------------
_CODE                               00000200    00002BB8 =       11192. bytes (REL,CON)

      Value  Global                              Global Defined In Module
      -----  --------------------------------   ------------------------
     00001DFC  A$lcc1887661$323                   map_collision
     00001DFD  A$lcc1887661$324                   map_collision
     00001DFE  A$lcc1887661$325                   map_collision
     00001DFF  A$lcc1887661$326                   map_collision
     00001E00  A$lcc1887661$327                   map_collision
     00001E01  A$lcc1887661$328                   map_collision
     00001E02  A$lcc1887661$329                   map_collision
     00001E03  A$lcc1887661$330                   map_collision
     00001E04  A$lcc1887661$331                   map_collision
     00001E05  A$lcc1887661$332                   map_collision
     00001E06  A$lcc1887661$333                   map_collision
     00001E07  A$lcc1887661$334                   map_collision
     00001E08  A$lcc1887661$335                   map_collision
     00001E09  A$lcc1887661$336                   map_collision
     00001E0B  A$lcc1887661$337                   map_collision
     00001E0C  A$lcc1887661$338                   map_collision
     00001E0D  A$lcc1887661$339                   map_collision
     00001E0E  A$lcc1887661$340                   map_collision
     00001E0F  A$lcc1887661$341                   map_collision
     00001E10  A$lcc1887661$342                   map_collision
     00001E11  A$lcc1887661$343                   map_collision
     00001E13  A$lcc1887661$344                   map_collision
     00001E14  A$lcc1887661$345                   map_collision
     00001E16  A$lcc1887661$346                   map_collision
     00001E17  A$lcc1887661$347                   map_collision
     00001E18  A$lcc1887661$348                   map_collision
     00001E19  A$lcc1887661$349                   map_collision
     00001E1A  A$lcc1887661$350                   map_collision
     00001E1B  A$lcc1887661$351                   map_collision
     00001E1D  A$lcc1887661$352                   map_collision
     00001E1F  A$lcc1887661$353                   map_collision
     00001E20  A$lcc1887661$355                   map_collision
     00001E22  A$lcc1887661$356                   map_collision
     00001E25  A$lcc1887661$360                   map_collision
     00001E25  C$map_collision.c$29$1_0$136       map_collision
     00001E27  A$lcc1887661$361                   map_collision
     00001E28  A$lcc1887661$362                   map_collision
     00001E29  A$lcc1887661$363                   map_collision
     00001E2A  A$lcc1887661$364                   map_collision
     00001E2B  A$lcc1887661$365                   map_collision
     00001E2C  A$lcc1887661$366                   map_collision
     00001E2D  A$lcc1887661$367                   map_collision
     00001E2E  A$lcc1887661$368                   map_collision
     00001E2F  A$lcc1887661$369                   map_collision
     00001E31  A$lcc1887661$370                   map_collision
     00001E32  A$lcc1887661$371                   map_collision
     00001E34  A$lcc1887661$372                   map_collision
     00001E35  A$lcc1887661$373                   map_collision
     00001E36  A$lcc1887661$374                   map_collision
     00001E37  A$lcc1887661$375                   map_collision
     00001E38  A$lcc1887661$376                   map_collision
ASxxxx Linker V03.00/V05.40 + sdld,  page 87.
Hexadecimal  [32-Bits]

Area                                    Addr        Size        Decimal Bytes (Attributes)
--------------------------------        ----        ----        ------- ----- ------------
_CODE                               00000200    00002BB8 =       11192. bytes (REL,CON)

      Value  Global                              Global Defined In Module
      -----  --------------------------------   ------------------------
     00001E39  A$lcc1887661$377                   map_collision
     00001E3A  A$lcc1887661$378                   map_collision
     00001E3B  A$lcc1887661$379                   map_collision
     00001E3C  A$lcc1887661$380                   map_collision
     00001E3D  A$lcc1887661$381                   map_collision
     00001E3E  A$lcc1887661$382                   map_collision
     00001E3F  A$lcc1887661$383                   map_collision
     00001E40  A$lcc1887661$384                   map_collision
     00001E42  A$lcc1887661$385                   map_collision
     00001E43  A$lcc1887661$386                   map_collision
     00001E45  A$lcc1887661$387                   map_collision
     00001E46  A$lcc1887661$388                   map_collision
     00001E47  A$lcc1887661$389                   map_collision
     00001E48  A$lcc1887661$390                   map_collision
     00001E49  A$lcc1887661$391                   map_collision
     00001E4A  A$lcc1887661$392                   map_collision
     00001E4C  A$lcc1887661$393                   map_collision
     00001E4E  A$lcc1887661$394                   map_collision
     00001E4F  A$lcc1887661$396                   map_collision
     00001E51  A$lcc1887661$397                   map_collision
     00001E54  A$lcc1887661$401                   map_collision
     00001E54  C$map_collision.c$35$2_0$137       map_collision
     00001E57  A$lcc1887661$402                   map_collision
     00001E5A  A$lcc1887661$403                   map_collision
     00001E5B  A$lcc1887661$404                   map_collision
     00001E5C  A$lcc1887661$405                   map_collision
     00001E5E  A$lcc1887661$409                   map_collision
     00001E5E  C$map_collision.c$36$3_0$138       map_collision
     00001E61  A$lcc1887661$414                   map_collision
     00001E61  C$map_collision.c$39$2_0$139       map_collision
     00001E63  A$lcc1887661$415                   map_collision
     00001E64  A$lcc1887661$416                   map_collision
     00001E65  A$lcc1887661$417                   map_collision
     00001E66  A$lcc1887661$418                   map_collision
     00001E67  A$lcc1887661$419                   map_collision
     00001E68  A$lcc1887661$420                   map_collision
     00001E69  A$lcc1887661$421                   map_collision
     00001E6A  A$lcc1887661$422                   map_collision
     00001E6B  A$lcc1887661$423                   map_collision
     00001E6C  A$lcc1887661$424                   map_collision
     00001E6D  A$lcc1887661$425                   map_collision
     00001E6E  A$lcc1887661$426                   map_collision
     00001E6F  A$lcc1887661$427                   map_collision
     00001E70  A$lcc1887661$428                   map_collision
     00001E71  A$lcc1887661$429                   map_collision
     00001E72  A$lcc1887661$430                   map_collision
     00001E74  A$lcc1887661$431                   map_collision
     00001E75  A$lcc1887661$432                   map_collision
     00001E77  A$lcc1887661$433                   map_collision
     00001E78  A$lcc1887661$434                   map_collision
     00001E79  A$lcc1887661$435                   map_collision
ASxxxx Linker V03.00/V05.40 + sdld,  page 88.
Hexadecimal  [32-Bits]

Area                                    Addr        Size        Decimal Bytes (Attributes)
--------------------------------        ----        ----        ------- ----- ------------
_CODE                               00000200    00002BB8 =       11192. bytes (REL,CON)

      Value  Global                              Global Defined In Module
      -----  --------------------------------   ------------------------
     00001E7A  A$lcc1887661$436                   map_collision
     00001E7B  A$lcc1887661$437                   map_collision
     00001E7C  A$lcc1887661$438                   map_collision
     00001E7E  A$lcc1887661$445                   map_collision
     00001E7E  C$map_collision.c$40$3_0$140       map_collision
     00001E7E  C$map_collision.c$41$3_0$140       map_collision
     00001E7F  A$lcc1887661$446                   map_collision
     00001E80  A$lcc1887661$447                   map_collision
     00001E81  A$lcc1887661$451                   map_collision
     00001E81  C$map_collision.c$43$4_0$141       map_collision
     00001E82  A$lcc1887661$452                   map_collision
     00001E83  A$lcc1887661$453                   map_collision
     00001E86  A$lcc1887661$454                   map_collision
     00001E87  A$lcc1887661$455                   map_collision
     00001E88  A$lcc1887661$456                   map_collision
     00001E89  A$lcc1887661$457                   map_collision
     00001E8A  A$lcc1887661$458                   map_collision
     00001E8B  A$lcc1887661$459                   map_collision
     00001E8C  A$lcc1887661$460                   map_collision
     00001E8D  A$lcc1887661$461                   map_collision
     00001E8F  A$lcc1887661$462                   map_collision
     00001E91  A$lcc1887661$466                   map_collision
     00001E91  C$map_collision.c$44$4_0$141       map_collision
     00001E93  A$lcc1887661$470                   map_collision
     00001E93  C$map_collision.c$46$4_0$142       map_collision
     00001E94  A$lcc1887661$471                   map_collision
     00001E95  A$lcc1887661$472                   map_collision
     00001E98  A$lcc1887661$473                   map_collision
     00001E99  A$lcc1887661$474                   map_collision
     00001E9A  A$lcc1887661$475                   map_collision
     00001E9B  A$lcc1887661$476                   map_collision
     00001E9C  A$lcc1887661$477                   map_collision
     00001E9D  A$lcc1887661$478                   map_collision
     00001E9E  A$lcc1887661$479                   map_collision
     00001EA0  A$lcc1887661$480                   map_collision
     00001EA1  A$lcc1887661$481                   map_collision
     00001EA2  A$lcc1887661$482                   map_collision
     00001EA3  A$lcc1887661$483                   map_collision
     00001EA4  A$lcc1887661$484                   map_collision
     00001EA5  A$lcc1887661$485                   map_collision
     00001EA6  A$lcc1887661$489                   map_collision
     00001EA6  C$map_collision.c$47$4_0$142       map_collision
     00001EA8  A$lcc1887661$493                   map_collision
     00001EA8  C$map_collision.c$49$3_0$140       map_collision
     00001EA9  A$lcc1887661$494                   map_collision
     00001EAA  A$lcc1887661$495                   map_collision
     00001EAD  A$lcc1887661$500                   map_collision
     00001EAF  A$lcc1887661$505                   map_collision
     00001EAF  C$map_collision.c$51$2_0$136       map_collision
     00001EAF  XG$Map_Collision$0$0               map_collision
     00001EB0  A$lcc1887663$58                    map_player_movement
ASxxxx Linker V03.00/V05.40 + sdld,  page 89.
Hexadecimal  [32-Bits]

Area                                    Addr        Size        Decimal Bytes (Attributes)
--------------------------------        ----        ----        ------- ----- ------------
_CODE                               00000200    00002BB8 =       11192. bytes (REL,CON)

      Value  Global                              Global Defined In Module
      -----  --------------------------------   ------------------------
     00001EB0  C$map_player_movement.c$10$0_0$1   map_player_movement
     00001EB0  G$Map_PlayerMovement$0$0           map_player_movement
     00001EB0  _Map_PlayerMovement                map_player_movement
     00001EB1  A$lcc1887663$62                    map_player_movement
     00001EB1  C$map_player_movement.c$11$2_0$1   map_player_movement
     00001EB4  A$lcc1887663$63                    map_player_movement
     00001EB6  A$lcc1887663$64                    map_player_movement
     00001EB8  A$lcc1887663$65                    map_player_movement
     00001EBB  A$lcc1887663$66                    map_player_movement
     00001EBD  A$lcc1887663$67                    map_player_movement
     00001EBF  A$lcc1887663$71                    map_player_movement
     00001EBF  C$map_player_movement.c$12$3_0$1   map_player_movement
     00001EC2  A$lcc1887663$75                    map_player_movement
     00001EC2  C$map_player_movement.c$14$3_0$1   map_player_movement
     00001EC5  A$lcc1887663$76                    map_player_movement
     00001EC6  A$lcc1887663$77                    map_player_movement
     00001EC7  A$lcc1887663$78                    map_player_movement
     00001EC8  A$lcc1887663$79                    map_player_movement
     00001ECB  A$lcc1887663$80                    map_player_movement
     00001ECD  A$lcc1887663$81                    map_player_movement
     00001ECE  A$lcc1887663$82                    map_player_movement
     00001ECF  A$lcc1887663$83                    map_player_movement
     00001ED2  A$lcc1887663$88                    map_player_movement
     00001ED2  C$map_player_movement.c$18$2_0$1   map_player_movement
     00001ED5  A$lcc1887663$89                    map_player_movement
     00001ED6  A$lcc1887663$90                    map_player_movement
     00001ED8  A$lcc1887663$94                    map_player_movement
     00001EDB  A$lcc1887663$98                    map_player_movement
     00001EDB  C$map_player_movement.c$19$4_0$1   map_player_movement
     00001EDD  A$lcc1887663$99                    map_player_movement
     00001EDF  A$lcc1887663$103                   map_player_movement
     00001EDF  C$map_player_movement.c$20$4_0$1   map_player_movement
     00001EE2  A$lcc1887663$104                   map_player_movement
     00001EE4  A$lcc1887663$105                   map_player_movement
     00001EE6  A$lcc1887663$110                   map_player_movement
     00001EE6  C$map_player_movement.c$21$5_0$1   map_player_movement
     00001EE8  A$lcc1887663$111                   map_player_movement
     00001EEA  A$lcc1887663$115                   map_player_movement
     00001EEA  C$map_player_movement.c$22$5_0$1   map_player_movement
     00001EED  A$lcc1887663$116                   map_player_movement
     00001EEF  A$lcc1887663$117                   map_player_movement
     00001EF1  A$lcc1887663$122                   map_player_movement
     00001EF1  C$map_player_movement.c$23$6_0$1   map_player_movement
     00001EF3  A$lcc1887663$123                   map_player_movement
     00001EF5  A$lcc1887663$127                   map_player_movement
     00001EF5  C$map_player_movement.c$24$6_0$1   map_player_movement
     00001EF8  A$lcc1887663$128                   map_player_movement
     00001EFA  A$lcc1887663$129                   map_player_movement
     00001EFC  A$lcc1887663$134                   map_player_movement
     00001EFC  C$map_player_movement.c$25$7_0$1   map_player_movement
     00001EFD  A$lcc1887663$135                   map_player_movement
ASxxxx Linker V03.00/V05.40 + sdld,  page 90.
Hexadecimal  [32-Bits]

Area                                    Addr        Size        Decimal Bytes (Attributes)
--------------------------------        ----        ----        ------- ----- ------------
_CODE                               00000200    00002BB8 =       11192. bytes (REL,CON)

      Value  Global                              Global Defined In Module
      -----  --------------------------------   ------------------------
     00001EFF  A$lcc1887663$139                   map_player_movement
     00001EFF  C$map_player_movement.c$26$7_0$1   map_player_movement
     00001F02  A$lcc1887663$140                   map_player_movement
     00001F04  A$lcc1887663$145                   map_player_movement
     00001F04  C$map_player_movement.c$30$2_0$1   map_player_movement
     00001F07  A$lcc1887663$146                   map_player_movement
     00001F08  A$lcc1887663$147                   map_player_movement
     00001F0A  A$lcc1887663$148                   map_player_movement
     00001F0D  A$lcc1887663$149                   map_player_movement
     00001F0F  A$lcc1887663$150                   map_player_movement
     00001F11  A$lcc1887663$151                   map_player_movement
     00001F13  A$lcc1887663$152                   map_player_movement
     00001F15  A$lcc1887663$153                   map_player_movement
     00001F17  A$lcc1887663$154                   map_player_movement
     00001F19  A$lcc1887663$155                   map_player_movement
     00001F1B  A$lcc1887663$163                   map_player_movement
     00001F1B  C$map_player_movement.c$31$3_0$1   map_player_movement
     00001F1B  C$map_player_movement.c$32$3_0$1   map_player_movement
     00001F1E  A$lcc1887663$164                   map_player_movement
     00001F21  A$lcc1887663$168                   map_player_movement
     00001F21  C$map_player_movement.c$33$3_0$1   map_player_movement
     00001F24  A$lcc1887663$169                   map_player_movement
     00001F26  A$lcc1887663$170                   map_player_movement
     00001F27  A$lcc1887663$171                   map_player_movement
     00001F2A  A$lcc1887663$172                   map_player_movement
     00001F2B  A$lcc1887663$173                   map_player_movement
     00001F2D  A$lcc1887663$174                   map_player_movement
     00001F2E  A$lcc1887663$175                   map_player_movement
     00001F2F  A$lcc1887663$176                   map_player_movement
     00001F30  A$lcc1887663$177                   map_player_movement
     00001F31  A$lcc1887663$178                   map_player_movement
     00001F32  A$lcc1887663$179                   map_player_movement
     00001F33  A$lcc1887663$180                   map_player_movement
     00001F34  A$lcc1887663$181                   map_player_movement
     00001F35  A$lcc1887663$182                   map_player_movement
     00001F36  A$lcc1887663$183                   map_player_movement
     00001F39  A$lcc1887663$184                   map_player_movement
     00001F3A  A$lcc1887663$185                   map_player_movement
     00001F3B  A$lcc1887663$186                   map_player_movement
     00001F3C  A$lcc1887663$187                   map_player_movement
     00001F3E  A$lcc1887663$188                   map_player_movement
     00001F3F  A$lcc1887663$189                   map_player_movement
     00001F42  A$lcc1887663$193                   map_player_movement
     00001F42  C$map_player_movement.c$34$3_0$1   map_player_movement
     00001F44  A$lcc1887663$201                   map_player_movement
     00001F44  C$map_player_movement.c$35$3_0$1   map_player_movement
     00001F44  C$map_player_movement.c$36$3_0$1   map_player_movement
     00001F47  A$lcc1887663$202                   map_player_movement
     00001F4A  A$lcc1887663$206                   map_player_movement
     00001F4A  C$map_player_movement.c$37$3_0$1   map_player_movement
     00001F4D  A$lcc1887663$207                   map_player_movement
ASxxxx Linker V03.00/V05.40 + sdld,  page 91.
Hexadecimal  [32-Bits]

Area                                    Addr        Size        Decimal Bytes (Attributes)
--------------------------------        ----        ----        ------- ----- ------------
_CODE                               00000200    00002BB8 =       11192. bytes (REL,CON)

      Value  Global                              Global Defined In Module
      -----  --------------------------------   ------------------------
     00001F4F  A$lcc1887663$208                   map_player_movement
     00001F50  A$lcc1887663$209                   map_player_movement
     00001F53  A$lcc1887663$210                   map_player_movement
     00001F54  A$lcc1887663$211                   map_player_movement
     00001F56  A$lcc1887663$212                   map_player_movement
     00001F57  A$lcc1887663$213                   map_player_movement
     00001F58  A$lcc1887663$214                   map_player_movement
     00001F59  A$lcc1887663$215                   map_player_movement
     00001F5A  A$lcc1887663$216                   map_player_movement
     00001F5B  A$lcc1887663$217                   map_player_movement
     00001F5C  A$lcc1887663$218                   map_player_movement
     00001F5D  A$lcc1887663$219                   map_player_movement
     00001F5E  A$lcc1887663$220                   map_player_movement
     00001F5F  A$lcc1887663$221                   map_player_movement
     00001F62  A$lcc1887663$222                   map_player_movement
     00001F63  A$lcc1887663$223                   map_player_movement
     00001F64  A$lcc1887663$224                   map_player_movement
     00001F65  A$lcc1887663$225                   map_player_movement
     00001F67  A$lcc1887663$226                   map_player_movement
     00001F68  A$lcc1887663$227                   map_player_movement
     00001F6B  A$lcc1887663$231                   map_player_movement
     00001F6B  C$map_player_movement.c$38$3_0$1   map_player_movement
     00001F6D  A$lcc1887663$239                   map_player_movement
     00001F6D  C$map_player_movement.c$39$3_0$1   map_player_movement
     00001F6D  C$map_player_movement.c$40$3_0$1   map_player_movement
     00001F70  A$lcc1887663$240                   map_player_movement
     00001F73  A$lcc1887663$244                   map_player_movement
     00001F73  C$map_player_movement.c$41$3_0$1   map_player_movement
     00001F75  A$lcc1887663$252                   map_player_movement
     00001F75  C$map_player_movement.c$42$3_0$1   map_player_movement
     00001F75  C$map_player_movement.c$43$3_0$1   map_player_movement
     00001F78  A$lcc1887663$253                   map_player_movement
     00001F7B  A$lcc1887663$261                   map_player_movement
     00001F7B  C$map_player_movement.c$47$2_0$1   map_player_movement
     00001F7B  C$map_player_movement.c$50$2_0$1   map_player_movement
     00001F7E  A$lcc1887663$262                   map_player_movement
     00001F7F  A$lcc1887663$263                   map_player_movement
     00001F81  A$lcc1887663$264                   map_player_movement
     00001F84  A$lcc1887663$265                   map_player_movement
     00001F86  A$lcc1887663$266                   map_player_movement
     00001F88  A$lcc1887663$270                   map_player_movement
     00001F88  C$map_player_movement.c$51$3_0$1   map_player_movement
     00001F89  A$lcc1887663$271                   map_player_movement
     00001F8C  A$lcc1887663$275                   map_player_movement
     00001F8C  C$map_player_movement.c$52$3_0$1   map_player_movement
     00001F8F  A$lcc1887663$276                   map_player_movement
     00001F91  A$lcc1887663$277                   map_player_movement
     00001F92  A$lcc1887663$278                   map_player_movement
     00001F95  A$lcc1887663$279                   map_player_movement
     00001F96  A$lcc1887663$280                   map_player_movement
     00001F98  A$lcc1887663$281                   map_player_movement
ASxxxx Linker V03.00/V05.40 + sdld,  page 92.
Hexadecimal  [32-Bits]

Area                                    Addr        Size        Decimal Bytes (Attributes)
--------------------------------        ----        ----        ------- ----- ------------
_CODE                               00000200    00002BB8 =       11192. bytes (REL,CON)

      Value  Global                              Global Defined In Module
      -----  --------------------------------   ------------------------
     00001F99  A$lcc1887663$282                   map_player_movement
     00001F9A  A$lcc1887663$283                   map_player_movement
     00001F9B  A$lcc1887663$284                   map_player_movement
     00001F9C  A$lcc1887663$285                   map_player_movement
     00001F9D  A$lcc1887663$286                   map_player_movement
     00001F9E  A$lcc1887663$287                   map_player_movement
     00001F9F  A$lcc1887663$288                   map_player_movement
     00001FA0  A$lcc1887663$289                   map_player_movement
     00001FA1  A$lcc1887663$290                   map_player_movement
     00001FA4  A$lcc1887663$291                   map_player_movement
     00001FA5  A$lcc1887663$292                   map_player_movement
     00001FA6  A$lcc1887663$293                   map_player_movement
     00001FA7  A$lcc1887663$294                   map_player_movement
     00001FA9  A$lcc1887663$295                   map_player_movement
     00001FAA  A$lcc1887663$296                   map_player_movement
     00001FAD  A$lcc1887663$301                   map_player_movement
     00001FAD  C$map_player_movement.c$55$2_0$1   map_player_movement
     00001FB0  A$lcc1887663$302                   map_player_movement
     00001FB2  A$lcc1887663$303                   map_player_movement
     00001FB4  A$lcc1887663$304                   map_player_movement
     00001FB7  A$lcc1887663$305                   map_player_movement
     00001FB9  A$lcc1887663$306                   map_player_movement
     00001FBB  A$lcc1887663$310                   map_player_movement
     00001FBB  C$map_player_movement.c$56$3_0$1   map_player_movement
     00001FBC  A$lcc1887663$311                   map_player_movement
     00001FBF  A$lcc1887663$315                   map_player_movement
     00001FBF  C$map_player_movement.c$57$3_0$1   map_player_movement
     00001FC2  A$lcc1887663$316                   map_player_movement
     00001FC4  A$lcc1887663$317                   map_player_movement
     00001FC5  A$lcc1887663$318                   map_player_movement
     00001FC8  A$lcc1887663$319                   map_player_movement
     00001FC9  A$lcc1887663$320                   map_player_movement
     00001FCB  A$lcc1887663$321                   map_player_movement
     00001FCC  A$lcc1887663$322                   map_player_movement
     00001FCD  A$lcc1887663$323                   map_player_movement
     00001FCE  A$lcc1887663$324                   map_player_movement
     00001FCF  A$lcc1887663$325                   map_player_movement
     00001FD0  A$lcc1887663$326                   map_player_movement
     00001FD1  A$lcc1887663$327                   map_player_movement
     00001FD2  A$lcc1887663$328                   map_player_movement
     00001FD3  A$lcc1887663$329                   map_player_movement
     00001FD4  A$lcc1887663$330                   map_player_movement
     00001FD7  A$lcc1887663$331                   map_player_movement
     00001FD8  A$lcc1887663$332                   map_player_movement
     00001FD9  A$lcc1887663$333                   map_player_movement
     00001FDA  A$lcc1887663$334                   map_player_movement
     00001FDC  A$lcc1887663$335                   map_player_movement
     00001FDD  A$lcc1887663$336                   map_player_movement
     00001FE0  A$lcc1887663$341                   map_player_movement
     00001FE0  C$map_player_movement.c$11$2_0$1   map_player_movement
     00001FE3  A$lcc1887663$342                   map_player_movement
ASxxxx Linker V03.00/V05.40 + sdld,  page 93.
Hexadecimal  [32-Bits]

Area                                    Addr        Size        Decimal Bytes (Attributes)
--------------------------------        ----        ----        ------- ----- ------------
_CODE                               00000200    00002BB8 =       11192. bytes (REL,CON)

      Value  Global                              Global Defined In Module
      -----  --------------------------------   ------------------------
     00001FE4  A$lcc1887663$346                   map_player_movement
     00001FE4  C$map_player_movement.c$60$2_0$1   map_player_movement
     00001FE7  A$lcc1887663$347                   map_player_movement
     00001FE9  A$lcc1887663$348                   map_player_movement
     00001FEB  A$lcc1887663$349                   map_player_movement
     00001FED  A$lcc1887663$350                   map_player_movement
     00001FEF  A$lcc1887663$354                   map_player_movement
     00001FEF  C$map_player_movement.c$61$2_0$1   map_player_movement
     00001FF0  A$lcc1887663$355                   map_player_movement
     00001FF3  A$lcc1887663$360                   map_player_movement
     00001FF3  C$map_player_movement.c$62$2_0$1   map_player_movement
     00001FF6  A$lcc1887663$361                   map_player_movement
     00001FF8  A$lcc1887663$362                   map_player_movement
     00001FFA  A$lcc1887663$363                   map_player_movement
     00001FFC  A$lcc1887663$364                   map_player_movement
     00001FFE  A$lcc1887663$368                   map_player_movement
     00001FFE  C$map_player_movement.c$63$2_0$1   map_player_movement
     00001FFF  A$lcc1887663$369                   map_player_movement
     00002002  A$lcc1887663$374                   map_player_movement
     00002003  A$lcc1887663$379                   map_player_movement
     00002003  C$map_player_movement.c$64$2_0$1   map_player_movement
     00002003  XG$Map_PlayerMovement$0$0          map_player_movement
     00002004  A$lcc1887664$61                    map_00
     00002004  C$map_00.c$6$0_0$35                map_00
     00002004  C$map_00.c$8$1_0$35                map_00
     00002004  G$Map_00_Create$0$0                map_00
     00002004  _Map_00_Create                     map_00
     00002007  A$lcc1887664$62                    map_00
     00002009  A$lcc1887664$63                    map_00
     0000200A  A$lcc1887664$64                    map_00
     0000200C  A$lcc1887664$68                    map_00
     0000200C  C$map_00.c$9$1_0$35                map_00
     0000200D  A$lcc1887664$69                    map_00
     0000200F  A$lcc1887664$70                    map_00
     00002010  A$lcc1887664$71                    map_00
     00002012  A$lcc1887664$75                    map_00
     00002012  C$map_00.c$10$1_0$35               map_00
     00002015  A$lcc1887664$76                    map_00
     00002017  A$lcc1887664$80                    map_00
     00002017  C$map_00.c$11$1_0$35               map_00
     0000201A  A$lcc1887664$81                    map_00
     0000201B  A$lcc1887664$82                    map_00
     0000201C  A$lcc1887664$83                    map_00
     0000201D  A$lcc1887664$91                    map_00
     0000201D  C$map_00.c$12$1_0$35               map_00
     0000201D  XG$Map_00_Create$0$0               map_00
     0000201E  A$lcc1887665$61                    map_00_check_items
     0000201E  C$map_00_check_items.c$10$1_0$17   map_00_check_items
     0000201E  C$map_00_check_items.c$26$2_0$17   map_00_check_items
     0000201E  C$map_00_check_items.c$9$0_0$170   map_00_check_items
     0000201E  G$Map_00_CheckItems$0$0            map_00_check_items
ASxxxx Linker V03.00/V05.40 + sdld,  page 94.
Hexadecimal  [32-Bits]

Area                                    Addr        Size        Decimal Bytes (Attributes)
--------------------------------        ----        ----        ------- ----- ------------
_CODE                               00000200    00002BB8 =       11192. bytes (REL,CON)

      Value  Global                              Global Defined In Module
      -----  --------------------------------   ------------------------
     0000201E  _Map_00_CheckItems                 map_00_check_items
     00002020  A$lcc1887665$66                    map_00_check_items
     00002020  C$map_00_check_items.c$31$2_0$17   map_00_check_items
     00002020  XG$Map_00_CheckItems$0$0           map_00_check_items
     00002021  G$map_00_example_collision$0_0$0   map_00_collision
     00002021  _map_00_example_collision          map_00_collision
     00002189  A$lcc1887667$63                    map_00_init
     00002189  C$map_00_init.c$21$0_0$173         map_00_init
     00002189  C$map_00_init.c$22$2_0$174         map_00_init
     00002189  G$hello_event$0$0                  map_00_init
     00002189  _hello_event                       map_00_init
     0000218C  A$lcc1887667$64                    map_00_init
     0000218D  A$lcc1887667$65                    map_00_init
     0000218E  A$lcc1887667$66                    map_00_init
     0000218F  A$lcc1887667$73                    map_00_init
     0000218F  C$map_00_init.c$23$2_0$174         map_00_init
     0000218F  C$map_00_init.c$25$1_0$173         map_00_init
     00002191  A$lcc1887667$74                    map_00_init
     00002192  A$lcc1887667$78                    map_00_init
     00002192  C$map_00_init.c$27$1_0$173         map_00_init
     00002194  A$lcc1887667$79                    map_00_init
     00002195  A$lcc1887667$80                    map_00_init
     00002196  A$lcc1887667$81                    map_00_init
     00002197  A$lcc1887667$82                    map_00_init
     00002198  A$lcc1887667$83                    map_00_init
     00002199  A$lcc1887667$84                    map_00_init
     0000219B  A$lcc1887667$85                    map_00_init
     0000219E  A$lcc1887667$86                    map_00_init
     000021A1  A$lcc1887667$94                    map_00_init
     000021A1  C$map_00_init.c$28$1_0$173         map_00_init
     000021A1  XG$hello_event$0$0                 map_00_init
     000021A2  A$lcc1887667$107                   map_00_init
     000021A2  C$map_00_init.c$30$1_0$176         map_00_init
     000021A2  C$map_00_init.c$31$1_0$176         map_00_init
     000021A2  G$Map_00_Init$0$0                  map_00_init
     000021A2  _Map_00_Init                       map_00_init
     000021A3  A$lcc1887667$108                   map_00_init
     000021A6  A$lcc1887667$109                   map_00_init
     000021A7  A$lcc1887667$113                   map_00_init
     000021A7  C$map_00_init.c$33$1_0$176         map_00_init
     000021AA  A$lcc1887667$114                   map_00_init
     000021AD  A$lcc1887667$115                   map_00_init
     000021AE  A$lcc1887667$119                   map_00_init
     000021AE  C$map_00_init.c$34$1_0$176         map_00_init
     000021B1  A$lcc1887667$120                   map_00_init
     000021B3  A$lcc1887667$121                   map_00_init
     000021B4  A$lcc1887667$122                   map_00_init
     000021B6  A$lcc1887667$126                   map_00_init
     000021B6  C$map_00_init.c$35$1_0$176         map_00_init
     000021B9  A$lcc1887667$127                   map_00_init
     000021BB  A$lcc1887667$131                   map_00_init
ASxxxx Linker V03.00/V05.40 + sdld,  page 95.
Hexadecimal  [32-Bits]

Area                                    Addr        Size        Decimal Bytes (Attributes)
--------------------------------        ----        ----        ------- ----- ------------
_CODE                               00000200    00002BB8 =       11192. bytes (REL,CON)

      Value  Global                              Global Defined In Module
      -----  --------------------------------   ------------------------
     000021BB  C$map_00_init.c$36$1_0$176         map_00_init
     000021BC  A$lcc1887667$132                   map_00_init
     000021BD  A$lcc1887667$133                   map_00_init
     000021BF  A$lcc1887667$137                   map_00_init
     000021BF  C$map_00_init.c$38$1_0$176         map_00_init
     000021C2  A$lcc1887667$138                   map_00_init
     000021C4  A$lcc1887667$142                   map_00_init
     000021C4  C$map_00_init.c$39$1_0$176         map_00_init
     000021C7  A$lcc1887667$143                   map_00_init
     000021C9  A$lcc1887667$144                   map_00_init
     000021CA  A$lcc1887667$145                   map_00_init
     000021CC  A$lcc1887667$149                   map_00_init
     000021CC  C$map_00_init.c$40$1_0$176         map_00_init
     000021CF  A$lcc1887667$150                   map_00_init
     000021D1  A$lcc1887667$154                   map_00_init
     000021D1  C$map_00_init.c$42$1_0$176         map_00_init
     000021D4  A$lcc1887667$155                   map_00_init
     000021D5  A$lcc1887667$156                   map_00_init
     000021D7  A$lcc1887667$157                   map_00_init
     000021D8  A$lcc1887667$158                   map_00_init
     000021DA  A$lcc1887667$162                   map_00_init
     000021DA  C$map_00_init.c$44$1_0$176         map_00_init
     000021DB  A$lcc1887667$163                   map_00_init
     000021DC  A$lcc1887667$164                   map_00_init
     000021DF  A$lcc1887667$168                   map_00_init
     000021DF  C$map_00_init.c$45$1_0$176         map_00_init
     000021E2  A$lcc1887667$172                   map_00_init
     000021E2  C$map_00_init.c$47$1_0$176         map_00_init
     000021E5  A$lcc1887667$173                   map_00_init
     000021E6  A$lcc1887667$174                   map_00_init
     000021E9  A$lcc1887667$175                   map_00_init
     000021EA  A$lcc1887667$176                   map_00_init
     000021ED  A$lcc1887667$177                   map_00_init
     000021EF  A$lcc1887667$181                   map_00_init
     000021EF  C$map_00_init.c$48$1_0$176         map_00_init
     000021F2  A$lcc1887667$182                   map_00_init
     000021F3  A$lcc1887667$183                   map_00_init
     000021F6  A$lcc1887667$184                   map_00_init
     000021F7  A$lcc1887667$185                   map_00_init
     000021F8  A$lcc1887667$186                   map_00_init
     000021F9  A$lcc1887667$187                   map_00_init
     000021FA  A$lcc1887667$188                   map_00_init
     000021FD  A$lcc1887667$189                   map_00_init
     000021FF  A$lcc1887667$193                   map_00_init
     000021FF  C$map_00_init.c$50$1_0$176         map_00_init
     00002202  A$lcc1887667$194                   map_00_init
     00002205  A$lcc1887667$198                   map_00_init
     00002205  C$map_00_init.c$51$1_0$176         map_00_init
     00002208  A$lcc1887667$206                   map_00_init
     00002208  C$map_00_init.c$52$1_0$176         map_00_init
     00002208  XG$Map_00_Init$0$0                 map_00_init
ASxxxx Linker V03.00/V05.40 + sdld,  page 96.
Hexadecimal  [32-Bits]

Area                                    Addr        Size        Decimal Bytes (Attributes)
--------------------------------        ----        ----        ------- ----- ------------
_CODE                               00000200    00002BB8 =       11192. bytes (REL,CON)

      Value  Global                              Global Defined In Module
      -----  --------------------------------   ------------------------
     0000220B  A$lcc1887668$56                    map_00_init_dialogues
     0000220B  C$map_00_init_dialogues.c$11$1_0   map_00_init_dialogues
     0000220B  C$map_00_init_dialogues.c$9$0_0$   map_00_init_dialogues
     0000220B  G$Map_00_InitDialogues$0$0         map_00_init_dialogues
     0000220B  _Map_00_InitDialogues              map_00_init_dialogues
     0000220E  A$lcc1887668$57                    map_00_init_dialogues
     00002210  A$lcc1887668$58                    map_00_init_dialogues
     00002211  A$lcc1887668$59                    map_00_init_dialogues
     00002213  A$lcc1887668$67                    map_00_init_dialogues
     00002213  C$map_00_init_dialogues.c$12$1_0   map_00_init_dialogues
     00002213  XG$Map_00_InitDialogues$0$0        map_00_init_dialogues
     00002214  G$dialogue_00$0_0$0                map_00_init_dialogues
     00002214  _dialogue_00                       map_00_init_dialogues
     00002358  A$lcc1887669$53                    map_00_init_npc
     00002358  C$map_00_init_npc.c$12$0_0$168     map_00_init_npc
     00002358  G$Map_00_NPC_Init$0$0              map_00_init_npc
     00002358  _Map_00_NPC_Init                   map_00_init_npc
     0000235A  A$lcc1887669$57                    map_00_init_npc
     0000235A  C$map_00_init_npc.c$14$1_0$168     map_00_init_npc
     0000235D  A$lcc1887669$58                    map_00_init_npc
     0000235E  A$lcc1887669$59                    map_00_init_npc
     00002360  A$lcc1887669$60                    map_00_init_npc
     00002363  A$lcc1887669$61                    map_00_init_npc
     00002364  A$lcc1887669$62                    map_00_init_npc
     00002366  A$lcc1887669$66                    map_00_init_npc
     00002366  C$map_00_init_npc.c$15$1_0$168     map_00_init_npc
     00002369  A$lcc1887669$67                    map_00_init_npc
     0000236A  A$lcc1887669$68                    map_00_init_npc
     0000236C  A$lcc1887669$69                    map_00_init_npc
     0000236F  A$lcc1887669$70                    map_00_init_npc
     00002370  A$lcc1887669$71                    map_00_init_npc
     00002372  A$lcc1887669$75                    map_00_init_npc
     00002372  C$map_00_init_npc.c$17$2_0$169     map_00_init_npc
     00002374  A$lcc1887669$76                    map_00_init_npc
     00002376  A$lcc1887669$77                    map_00_init_npc
     00002377  A$lcc1887669$78                    map_00_init_npc
     00002379  A$lcc1887669$79                    map_00_init_npc
     0000237A  A$lcc1887669$80                    map_00_init_npc
     0000237C  A$lcc1887669$81                    map_00_init_npc
     0000237D  A$lcc1887669$82                    map_00_init_npc
     0000237F  A$lcc1887669$83                    map_00_init_npc
     00002380  A$lcc1887669$84                    map_00_init_npc
     00002382  A$lcc1887669$85                    map_00_init_npc
     00002383  A$lcc1887669$86                    map_00_init_npc
     00002384  A$lcc1887669$87                    map_00_init_npc
     00002385  A$lcc1887669$88                    map_00_init_npc
     00002386  A$lcc1887669$89                    map_00_init_npc
     00002387  A$lcc1887669$90                    map_00_init_npc
     00002388  A$lcc1887669$91                    map_00_init_npc
     00002389  A$lcc1887669$95                    map_00_init_npc
     0000238C  A$lcc1887669$96                    map_00_init_npc
ASxxxx Linker V03.00/V05.40 + sdld,  page 97.
Hexadecimal  [32-Bits]

Area                                    Addr        Size        Decimal Bytes (Attributes)
--------------------------------        ----        ----        ------- ----- ------------
_CODE                               00000200    00002BB8 =       11192. bytes (REL,CON)

      Value  Global                              Global Defined In Module
      -----  --------------------------------   ------------------------
     0000238D  A$lcc1887669$98                    map_00_init_npc
     00002390  A$lcc1887669$99                    map_00_init_npc
     00002391  A$lcc1887669$100                   map_00_init_npc
     00002392  A$lcc1887669$101                   map_00_init_npc
     00002393  A$lcc1887669$102                   map_00_init_npc
     00002395  A$lcc1887669$103                   map_00_init_npc
     00002396  A$lcc1887669$104                   map_00_init_npc
     00002397  A$lcc1887669$105                   map_00_init_npc
     00002399  A$lcc1887669$109                   map_00_init_npc
     00002399  C$map_00_init_npc.c$19$2_1$170     map_00_init_npc
     0000239C  A$lcc1887669$110                   map_00_init_npc
     0000239D  A$lcc1887669$111                   map_00_init_npc
     0000239F  A$lcc1887669$112                   map_00_init_npc
     000023A0  A$lcc1887669$113                   map_00_init_npc
     000023A1  A$lcc1887669$114                   map_00_init_npc
     000023A2  A$lcc1887669$115                   map_00_init_npc
     000023A3  A$lcc1887669$116                   map_00_init_npc
     000023A4  A$lcc1887669$117                   map_00_init_npc
     000023A5  A$lcc1887669$118                   map_00_init_npc
     000023A6  A$lcc1887669$119                   map_00_init_npc
     000023A7  A$lcc1887669$120                   map_00_init_npc
     000023A9  A$lcc1887669$121                   map_00_init_npc
     000023AA  A$lcc1887669$122                   map_00_init_npc
     000023AB  A$lcc1887669$123                   map_00_init_npc
     000023AC  A$lcc1887669$124                   map_00_init_npc
     000023AE  A$lcc1887669$125                   map_00_init_npc
     000023AF  A$lcc1887669$126                   map_00_init_npc
     000023B0  A$lcc1887669$127                   map_00_init_npc
     000023B1  A$lcc1887669$128                   map_00_init_npc
     000023B2  A$lcc1887669$129                   map_00_init_npc
     000023B5  A$lcc1887669$130                   map_00_init_npc
     000023B6  A$lcc1887669$131                   map_00_init_npc
     000023B7  A$lcc1887669$132                   map_00_init_npc
     000023B8  A$lcc1887669$133                   map_00_init_npc
     000023BA  A$lcc1887669$134                   map_00_init_npc
     000023BB  A$lcc1887669$135                   map_00_init_npc
     000023BC  A$lcc1887669$136                   map_00_init_npc
     000023BD  A$lcc1887669$140                   map_00_init_npc
     000023BD  C$map_00_init_npc.c$18$2_1$170     map_00_init_npc
     000023BE  A$lcc1887669$141                   map_00_init_npc
     000023C0  A$lcc1887669$146                   map_00_init_npc
     000023C0  C$map_00_init_npc.c$21$1_1$169     map_00_init_npc
     000023C3  A$lcc1887669$147                   map_00_init_npc
     000023C4  A$lcc1887669$148                   map_00_init_npc
     000023C5  A$lcc1887669$149                   map_00_init_npc
     000023C7  A$lcc1887669$150                   map_00_init_npc
     000023CA  A$lcc1887669$151                   map_00_init_npc
     000023CB  A$lcc1887669$152                   map_00_init_npc
     000023CE  A$lcc1887669$153                   map_00_init_npc
     000023D0  A$lcc1887669$154                   map_00_init_npc
     000023D1  A$lcc1887669$155                   map_00_init_npc
ASxxxx Linker V03.00/V05.40 + sdld,  page 98.
Hexadecimal  [32-Bits]

Area                                    Addr        Size        Decimal Bytes (Attributes)
--------------------------------        ----        ----        ------- ----- ------------
_CODE                               00000200    00002BB8 =       11192. bytes (REL,CON)

      Value  Global                              Global Defined In Module
      -----  --------------------------------   ------------------------
     000023D3  A$lcc1887669$156                   map_00_init_npc
     000023D5  A$lcc1887669$157                   map_00_init_npc
     000023D6  A$lcc1887669$158                   map_00_init_npc
     000023D7  A$lcc1887669$159                   map_00_init_npc
     000023D8  A$lcc1887669$160                   map_00_init_npc
     000023D9  A$lcc1887669$161                   map_00_init_npc
     000023DA  A$lcc1887669$162                   map_00_init_npc
     000023DB  A$lcc1887669$166                   map_00_init_npc
     000023DB  C$map_00_init_npc.c$22$1_1$169     map_00_init_npc
     000023DE  A$lcc1887669$167                   map_00_init_npc
     000023DF  A$lcc1887669$168                   map_00_init_npc
     000023E0  A$lcc1887669$169                   map_00_init_npc
     000023E2  A$lcc1887669$170                   map_00_init_npc
     000023E5  A$lcc1887669$171                   map_00_init_npc
     000023E6  A$lcc1887669$172                   map_00_init_npc
     000023E9  A$lcc1887669$173                   map_00_init_npc
     000023EB  A$lcc1887669$174                   map_00_init_npc
     000023EC  A$lcc1887669$175                   map_00_init_npc
     000023EE  A$lcc1887669$176                   map_00_init_npc
     000023F0  A$lcc1887669$177                   map_00_init_npc
     000023F1  A$lcc1887669$178                   map_00_init_npc
     000023F2  A$lcc1887669$179                   map_00_init_npc
     000023F3  A$lcc1887669$180                   map_00_init_npc
     000023F4  A$lcc1887669$181                   map_00_init_npc
     000023F5  A$lcc1887669$182                   map_00_init_npc
     000023F6  A$lcc1887669$186                   map_00_init_npc
     000023F6  C$map_00_init_npc.c$24$1_1$169     map_00_init_npc
     000023F9  A$lcc1887669$187                   map_00_init_npc
     000023FA  A$lcc1887669$188                   map_00_init_npc
     000023FC  A$lcc1887669$189                   map_00_init_npc
     000023FF  A$lcc1887669$190                   map_00_init_npc
     00002400  A$lcc1887669$191                   map_00_init_npc
     00002402  A$lcc1887669$195                   map_00_init_npc
     00002402  C$map_00_init_npc.c$25$1_1$169     map_00_init_npc
     00002405  A$lcc1887669$196                   map_00_init_npc
     00002406  A$lcc1887669$197                   map_00_init_npc
     00002408  A$lcc1887669$198                   map_00_init_npc
     0000240B  A$lcc1887669$199                   map_00_init_npc
     0000240C  A$lcc1887669$200                   map_00_init_npc
     0000240E  A$lcc1887669$204                   map_00_init_npc
     0000240E  C$map_00_init_npc.c$26$1_1$169     map_00_init_npc
     00002411  A$lcc1887669$205                   map_00_init_npc
     00002412  A$lcc1887669$206                   map_00_init_npc
     00002414  A$lcc1887669$207                   map_00_init_npc
     00002417  A$lcc1887669$208                   map_00_init_npc
     00002418  A$lcc1887669$209                   map_00_init_npc
     0000241A  A$lcc1887669$213                   map_00_init_npc
     0000241A  C$map_00_init_npc.c$29$2_1$171     map_00_init_npc
     0000241C  A$lcc1887669$214                   map_00_init_npc
     0000241E  A$lcc1887669$215                   map_00_init_npc
     0000241F  A$lcc1887669$216                   map_00_init_npc
ASxxxx Linker V03.00/V05.40 + sdld,  page 99.
Hexadecimal  [32-Bits]

Area                                    Addr        Size        Decimal Bytes (Attributes)
--------------------------------        ----        ----        ------- ----- ------------
_CODE                               00000200    00002BB8 =       11192. bytes (REL,CON)

      Value  Global                              Global Defined In Module
      -----  --------------------------------   ------------------------
     00002421  A$lcc1887669$217                   map_00_init_npc
     00002422  A$lcc1887669$218                   map_00_init_npc
     00002424  A$lcc1887669$219                   map_00_init_npc
     00002425  A$lcc1887669$220                   map_00_init_npc
     00002427  A$lcc1887669$221                   map_00_init_npc
     00002428  A$lcc1887669$222                   map_00_init_npc
     0000242A  A$lcc1887669$223                   map_00_init_npc
     0000242B  A$lcc1887669$224                   map_00_init_npc
     0000242D  A$lcc1887669$225                   map_00_init_npc
     0000242E  A$lcc1887669$226                   map_00_init_npc
     00002430  A$lcc1887669$227                   map_00_init_npc
     00002431  A$lcc1887669$228                   map_00_init_npc
     00002433  A$lcc1887669$232                   map_00_init_npc
     00002433  C$map_00_init_npc.c$35$1_2$171     map_00_init_npc
     00002436  A$lcc1887669$233                   map_00_init_npc
     00002437  A$lcc1887669$234                   map_00_init_npc
     00002439  A$lcc1887669$235                   map_00_init_npc
     0000243A  A$lcc1887669$236                   map_00_init_npc
     0000243B  A$lcc1887669$237                   map_00_init_npc
     0000243C  A$lcc1887669$238                   map_00_init_npc
     0000243D  A$lcc1887669$239                   map_00_init_npc
     0000243E  A$lcc1887669$240                   map_00_init_npc
     0000243F  A$lcc1887669$241                   map_00_init_npc
     00002440  A$lcc1887669$242                   map_00_init_npc
     00002441  A$lcc1887669$243                   map_00_init_npc
     00002442  A$lcc1887669$244                   map_00_init_npc
     00002445  A$lcc1887669$245                   map_00_init_npc
     00002446  A$lcc1887669$246                   map_00_init_npc
     00002447  A$lcc1887669$247                   map_00_init_npc
     00002448  A$lcc1887669$248                   map_00_init_npc
     0000244B  A$lcc1887669$249                   map_00_init_npc
     0000244C  A$lcc1887669$250                   map_00_init_npc
     0000244E  A$lcc1887669$251                   map_00_init_npc
     0000244F  A$lcc1887669$252                   map_00_init_npc
     00002450  A$lcc1887669$253                   map_00_init_npc
     00002453  A$lcc1887669$254                   map_00_init_npc
     00002454  A$lcc1887669$255                   map_00_init_npc
     00002455  A$lcc1887669$256                   map_00_init_npc
     00002456  A$lcc1887669$257                   map_00_init_npc
     00002457  A$lcc1887669$258                   map_00_init_npc
     00002458  A$lcc1887669$259                   map_00_init_npc
     0000245B  A$lcc1887669$260                   map_00_init_npc
     0000245E  A$lcc1887669$264                   map_00_init_npc
     00002460  A$lcc1887669$269                   map_00_init_npc
     00002460  C$map_00_init_npc.c$36$1_2$168     map_00_init_npc
     00002460  XG$Map_00_NPC_Init$0$0             map_00_init_npc
     00002461  A$lcc1887670$59                    map_00_update
     00002461  C$map_00_update.c$18$0_0$185       map_00_update
     00002461  G$Map_00_Update$0$0                map_00_update
     00002461  _Map_00_Update                     map_00_update
     00002463  A$lcc1887670$60                    map_00_update
ASxxxx Linker V03.00/V05.40 + sdld,  page 100.
Hexadecimal  [32-Bits]

Area                                    Addr        Size        Decimal Bytes (Attributes)
--------------------------------        ----        ----        ------- ----- ------------
_CODE                               00000200    00002BB8 =       11192. bytes (REL,CON)

      Value  Global                              Global Defined In Module
      -----  --------------------------------   ------------------------
     00002465  A$lcc1887670$61                    map_00_update
     00002466  A$lcc1887670$62                    map_00_update
     00002467  A$lcc1887670$63                    map_00_update
     00002468  A$lcc1887670$67                    map_00_update
     00002468  C$map_00_update.c$19$1_0$185       map_00_update
     0000246B  A$lcc1887670$71                    map_00_update
     0000246B  C$map_00_update.c$20$1_0$185       map_00_update
     0000246E  A$lcc1887670$75                    map_00_update
     0000246E  C$map_00_update.c$22$1_1$186       map_00_update
     00002470  A$lcc1887670$76                    map_00_update
     00002471  A$lcc1887670$77                    map_00_update
     00002472  A$lcc1887670$78                    map_00_update
     00002473  A$lcc1887670$79                    map_00_update
     00002476  A$lcc1887670$80                    map_00_update
     00002477  A$lcc1887670$81                    map_00_update
     00002478  A$lcc1887670$82                    map_00_update
     00002479  A$lcc1887670$83                    map_00_update
     0000247B  A$lcc1887670$84                    map_00_update
     0000247C  A$lcc1887670$85                    map_00_update
     0000247D  A$lcc1887670$86                    map_00_update
     0000247E  A$lcc1887670$87                    map_00_update
     00002480  A$lcc1887670$88                    map_00_update
     00002481  A$lcc1887670$89                    map_00_update
     00002482  A$lcc1887670$90                    map_00_update
     00002483  A$lcc1887670$91                    map_00_update
     00002484  A$lcc1887670$92                    map_00_update
     00002485  A$lcc1887670$93                    map_00_update
     00002486  A$lcc1887670$94                    map_00_update
     00002487  A$lcc1887670$95                    map_00_update
     00002488  A$lcc1887670$96                    map_00_update
     00002489  A$lcc1887670$97                    map_00_update
     0000248A  A$lcc1887670$98                    map_00_update
     0000248B  A$lcc1887670$99                    map_00_update
     0000248C  A$lcc1887670$100                   map_00_update
     0000248D  A$lcc1887670$104                   map_00_update
     00002490  A$lcc1887670$105                   map_00_update
     00002491  A$lcc1887670$106                   map_00_update
     00002492  A$lcc1887670$107                   map_00_update
     00002493  A$lcc1887670$108                   map_00_update
     00002494  A$lcc1887670$109                   map_00_update
     00002495  A$lcc1887670$110                   map_00_update
     00002497  A$lcc1887670$111                   map_00_update
     00002498  A$lcc1887670$112                   map_00_update
     00002499  A$lcc1887670$114                   map_00_update
     0000249A  A$lcc1887670$115                   map_00_update
     0000249B  A$lcc1887670$116                   map_00_update
     0000249C  A$lcc1887670$117                   map_00_update
     0000249D  A$lcc1887670$118                   map_00_update
     0000249F  A$lcc1887670$119                   map_00_update
     000024A1  A$lcc1887670$120                   map_00_update
     000024A2  A$lcc1887670$121                   map_00_update
ASxxxx Linker V03.00/V05.40 + sdld,  page 101.
Hexadecimal  [32-Bits]

Area                                    Addr        Size        Decimal Bytes (Attributes)
--------------------------------        ----        ----        ------- ----- ------------
_CODE                               00000200    00002BB8 =       11192. bytes (REL,CON)

      Value  Global                              Global Defined In Module
      -----  --------------------------------   ------------------------
     000024A3  A$lcc1887670$122                   map_00_update
     000024A4  A$lcc1887670$123                   map_00_update
     000024A5  A$lcc1887670$124                   map_00_update
     000024A7  A$lcc1887670$128                   map_00_update
     000024A7  C$map_00_update.c$25$3_1$188       map_00_update
     000024A8  A$lcc1887670$129                   map_00_update
     000024A9  A$lcc1887670$130                   map_00_update
     000024AA  A$lcc1887670$131                   map_00_update
     000024AB  A$lcc1887670$132                   map_00_update
     000024AC  A$lcc1887670$133                   map_00_update
     000024AD  A$lcc1887670$134                   map_00_update
     000024AE  A$lcc1887670$135                   map_00_update
     000024AF  A$lcc1887670$136                   map_00_update
     000024B2  A$lcc1887670$137                   map_00_update
     000024B3  A$lcc1887670$141                   map_00_update
     000024B3  C$map_00_update.c$24$2_1$187       map_00_update
     000024B5  A$lcc1887670$142                   map_00_update
     000024B6  A$lcc1887670$143                   map_00_update
     000024B8  A$lcc1887670$144                   map_00_update
     000024B9  A$lcc1887670$145                   map_00_update
     000024BA  A$lcc1887670$146                   map_00_update
     000024BC  A$lcc1887670$151                   map_00_update
     000024BC  C$map_00_update.c$28$1_1$186       map_00_update
     000024BD  A$lcc1887670$152                   map_00_update
     000024C0  A$lcc1887670$153                   map_00_update
     000024C3  A$lcc1887670$154                   map_00_update
     000024C4  A$lcc1887670$158                   map_00_update
     000024C4  C$map_00_update.c$29$1_1$186       map_00_update
     000024C5  A$lcc1887670$159                   map_00_update
     000024C6  A$lcc1887670$160                   map_00_update
     000024C7  A$lcc1887670$161                   map_00_update
     000024C8  A$lcc1887670$162                   map_00_update
     000024C9  A$lcc1887670$163                   map_00_update
     000024CA  A$lcc1887670$164                   map_00_update
     000024CB  A$lcc1887670$165                   map_00_update
     000024CE  A$lcc1887670$169                   map_00_update
     000024CE  C$map_00_update.c$31$1_1$186       map_00_update
     000024D0  A$lcc1887670$170                   map_00_update
     000024D1  A$lcc1887670$171                   map_00_update
     000024D2  A$lcc1887670$172                   map_00_update
     000024D3  A$lcc1887670$173                   map_00_update
     000024D6  A$lcc1887670$174                   map_00_update
     000024D7  A$lcc1887670$178                   map_00_update
     000024D7  C$map_00_update.c$33$2_1$189       map_00_update
     000024DA  A$lcc1887670$179                   map_00_update
     000024DB  A$lcc1887670$180                   map_00_update
     000024DC  A$lcc1887670$181                   map_00_update
     000024DD  A$lcc1887670$182                   map_00_update
     000024DF  A$lcc1887670$183                   map_00_update
     000024E2  A$lcc1887670$184                   map_00_update
     000024E3  A$lcc1887670$188                   map_00_update
ASxxxx Linker V03.00/V05.40 + sdld,  page 102.
Hexadecimal  [32-Bits]

Area                                    Addr        Size        Decimal Bytes (Attributes)
--------------------------------        ----        ----        ------- ----- ------------
_CODE                               00000200    00002BB8 =       11192. bytes (REL,CON)

      Value  Global                              Global Defined In Module
      -----  --------------------------------   ------------------------
     000024E3  C$map_00_update.c$34$2_1$189       map_00_update
     000024E5  A$lcc1887670$192                   map_00_update
     000024E5  C$map_00_update.c$36$2_1$190       map_00_update
     000024E8  A$lcc1887670$193                   map_00_update
     000024EA  A$lcc1887670$194                   map_00_update
     000024EC  A$lcc1887670$195                   map_00_update
     000024EF  A$lcc1887670$196                   map_00_update
     000024F1  A$lcc1887670$197                   map_00_update
     000024F3  A$lcc1887670$201                   map_00_update
     000024F3  C$map_00_update.c$37$3_1$191       map_00_update
     000024F5  A$lcc1887670$202                   map_00_update
     000024F8  A$lcc1887670$203                   map_00_update
     000024F9  A$lcc1887670$204                   map_00_update
     000024FB  A$lcc1887670$208                   map_00_update
     000024FB  C$map_00_update.c$38$3_1$191       map_00_update
     000024FD  A$lcc1887670$209                   map_00_update
     000024FE  A$lcc1887670$210                   map_00_update
     000024FF  A$lcc1887670$214                   map_00_update
     000024FF  C$map_00_update.c$40$5_1$193       map_00_update
     00002502  A$lcc1887670$216                   map_00_update
     00002503  A$lcc1887670$217                   map_00_update
     00002505  A$lcc1887670$218                   map_00_update
     00002507  A$lcc1887670$222                   map_00_update
     00002507  C$map_00_update.c$41$5_1$193       map_00_update
     00002508  A$lcc1887670$223                   map_00_update
     0000250B  A$lcc1887670$224                   map_00_update
     0000250C  A$lcc1887670$225                   map_00_update
     0000250D  A$lcc1887670$226                   map_00_update
     00002510  A$lcc1887670$227                   map_00_update
     00002511  A$lcc1887670$228                   map_00_update
     00002512  A$lcc1887670$229                   map_00_update
     00002515  A$lcc1887670$230                   map_00_update
     00002516  A$lcc1887670$234                   map_00_update
     00002516  C$map_00_update.c$42$5_1$193       map_00_update
     00002517  A$lcc1887670$235                   map_00_update
     00002518  A$lcc1887670$236                   map_00_update
     00002519  A$lcc1887670$237                   map_00_update
     0000251A  A$lcc1887670$238                   map_00_update
     0000251D  A$lcc1887670$239                   map_00_update
     0000251E  A$lcc1887670$240                   map_00_update
     0000251F  A$lcc1887670$241                   map_00_update
     00002520  A$lcc1887670$242                   map_00_update
     00002522  A$lcc1887670$243                   map_00_update
     00002523  A$lcc1887670$244                   map_00_update
     00002524  A$lcc1887670$245                   map_00_update
     00002526  A$lcc1887670$246                   map_00_update
     00002527  A$lcc1887670$247                   map_00_update
     00002528  A$lcc1887670$248                   map_00_update
     00002529  A$lcc1887670$252                   map_00_update
     00002529  C$map_00_update.c$40$4_1$192       map_00_update
     0000252A  A$lcc1887670$253                   map_00_update
ASxxxx Linker V03.00/V05.40 + sdld,  page 103.
Hexadecimal  [32-Bits]

Area                                    Addr        Size        Decimal Bytes (Attributes)
--------------------------------        ----        ----        ------- ----- ------------
_CODE                               00000200    00002BB8 =       11192. bytes (REL,CON)

      Value  Global                              Global Defined In Module
      -----  --------------------------------   ------------------------
     0000252C  A$lcc1887670$258                   map_00_update
     0000252C  C$map_00_update.c$45$3_1$191       map_00_update
     0000252F  A$lcc1887670$262                   map_00_update
     0000252F  C$map_00_update.c$47$3_1$191       map_00_update
     00002532  A$lcc1887670$263                   map_00_update
     00002533  A$lcc1887670$264                   map_00_update
     00002534  A$lcc1887670$265                   map_00_update
     00002535  A$lcc1887670$266                   map_00_update
     00002538  A$lcc1887670$267                   map_00_update
     0000253A  A$lcc1887670$268                   map_00_update
     0000253B  A$lcc1887670$269                   map_00_update
     0000253C  A$lcc1887670$270                   map_00_update
     0000253F  A$lcc1887670$279                   map_00_update
     0000253F  C$map_00_update.c$50$1_1$186       map_00_update
     00002541  A$lcc1887670$284                   map_00_update
     00002541  C$map_00_update.c$51$1_1$185       map_00_update
     00002541  XG$Map_00_Update$0$0               map_00_update
     00002542  A$lcc1887671$58                    mg_instruction_set
     00002542  C$mg_instruction_set.c$11$0_0$12   mg_instruction_set
     00002542  G$Mg_InstructionSet$0$0            mg_instruction_set
     00002542  _Mg_InstructionSet                 mg_instruction_set
     00002544  A$lcc1887671$59                    mg_instruction_set
     00002546  A$lcc1887671$60                    mg_instruction_set
     00002547  A$lcc1887671$61                    mg_instruction_set
     00002548  A$lcc1887671$62                    mg_instruction_set
     00002549  A$lcc1887671$63                    mg_instruction_set
     0000254A  A$lcc1887671$64                    mg_instruction_set
     0000254B  A$lcc1887671$65                    mg_instruction_set
     0000254C  A$lcc1887671$69                    mg_instruction_set
     0000254C  C$mg_instruction_set.c$13$2_0$12   mg_instruction_set
     0000254E  A$lcc1887671$70                    mg_instruction_set
     0000254F  A$lcc1887671$74                    mg_instruction_set
     0000254F  C$mg_instruction_set.c$14$1_0$12   mg_instruction_set
     00002551  A$lcc1887671$75                    mg_instruction_set
     00002553  A$lcc1887671$76                    mg_instruction_set
     00002556  A$lcc1887671$77                    mg_instruction_set
     00002558  A$lcc1887671$81                    mg_instruction_set
     00002558  C$mg_instruction_set.c$16$1_0$12   mg_instruction_set
     0000255B  A$lcc1887671$82                    mg_instruction_set
     0000255C  A$lcc1887671$83                    mg_instruction_set
     0000255F  A$lcc1887671$84                    mg_instruction_set
     00002560  A$lcc1887671$85                    mg_instruction_set
     00002563  A$lcc1887671$86                    mg_instruction_set
     00002565  A$lcc1887671$90                    mg_instruction_set
     00002565  C$mg_instruction_set.c$17$1_0$12   mg_instruction_set
     00002568  A$lcc1887671$91                    mg_instruction_set
     00002569  A$lcc1887671$92                    mg_instruction_set
     0000256C  A$lcc1887671$93                    mg_instruction_set
     0000256D  A$lcc1887671$94                    mg_instruction_set
     0000256E  A$lcc1887671$95                    mg_instruction_set
     0000256F  A$lcc1887671$96                    mg_instruction_set
ASxxxx Linker V03.00/V05.40 + sdld,  page 104.
Hexadecimal  [32-Bits]

Area                                    Addr        Size        Decimal Bytes (Attributes)
--------------------------------        ----        ----        ------- ----- ------------
_CODE                               00000200    00002BB8 =       11192. bytes (REL,CON)

      Value  Global                              Global Defined In Module
      -----  --------------------------------   ------------------------
     00002570  A$lcc1887671$97                    mg_instruction_set
     00002573  A$lcc1887671$98                    mg_instruction_set
     00002575  A$lcc1887671$102                   mg_instruction_set
     00002575  C$mg_instruction_set.c$19$1_0$12   mg_instruction_set
     00002576  A$lcc1887671$103                   mg_instruction_set
     00002578  A$lcc1887671$104                   mg_instruction_set
     0000257B  A$lcc1887671$105                   mg_instruction_set
     0000257C  A$lcc1887671$109                   mg_instruction_set
     0000257C  C$mg_instruction_set.c$21$1_2$12   mg_instruction_set
     0000257E  A$lcc1887671$110                   mg_instruction_set
     00002580  A$lcc1887671$112                   mg_instruction_set
     00002582  A$lcc1887671$113                   mg_instruction_set
     00002583  A$lcc1887671$114                   mg_instruction_set
     00002585  A$lcc1887671$115                   mg_instruction_set
     00002586  A$lcc1887671$116                   mg_instruction_set
     00002589  A$lcc1887671$120                   mg_instruction_set
     00002589  C$mg_instruction_set.c$23$4_0$13   mg_instruction_set
     0000258B  A$lcc1887671$121                   mg_instruction_set
     0000258D  A$lcc1887671$125                   mg_instruction_set
     0000258D  C$mg_instruction_set.c$24$1_2$12   mg_instruction_set
     0000258F  A$lcc1887671$126                   mg_instruction_set
     00002590  A$lcc1887671$127                   mg_instruction_set
     00002592  A$lcc1887671$128                   mg_instruction_set
     00002593  A$lcc1887671$129                   mg_instruction_set
     00002594  A$lcc1887671$130                   mg_instruction_set
     00002595  A$lcc1887671$131                   mg_instruction_set
     00002596  A$lcc1887671$132                   mg_instruction_set
     00002597  A$lcc1887671$133                   mg_instruction_set
     00002598  A$lcc1887671$134                   mg_instruction_set
     0000259A  A$lcc1887671$135                   mg_instruction_set
     0000259B  A$lcc1887671$136                   mg_instruction_set
     0000259C  A$lcc1887671$137                   mg_instruction_set
     0000259D  A$lcc1887671$138                   mg_instruction_set
     0000259F  A$lcc1887671$139                   mg_instruction_set
     000025A0  A$lcc1887671$140                   mg_instruction_set
     000025A1  A$lcc1887671$141                   mg_instruction_set
     000025A2  A$lcc1887671$142                   mg_instruction_set
     000025A3  A$lcc1887671$143                   mg_instruction_set
     000025A5  A$lcc1887671$144                   mg_instruction_set
     000025A6  A$lcc1887671$145                   mg_instruction_set
     000025A7  A$lcc1887671$146                   mg_instruction_set
     000025A8  A$lcc1887671$147                   mg_instruction_set
     000025A9  A$lcc1887671$148                   mg_instruction_set
     000025AA  A$lcc1887671$149                   mg_instruction_set
     000025AB  A$lcc1887671$150                   mg_instruction_set
     000025AC  A$lcc1887671$151                   mg_instruction_set
     000025AD  A$lcc1887671$152                   mg_instruction_set
     000025AE  A$lcc1887671$153                   mg_instruction_set
     000025B0  A$lcc1887671$154                   mg_instruction_set
     000025B1  A$lcc1887671$155                   mg_instruction_set
     000025B2  A$lcc1887671$156                   mg_instruction_set
ASxxxx Linker V03.00/V05.40 + sdld,  page 105.
Hexadecimal  [32-Bits]

Area                                    Addr        Size        Decimal Bytes (Attributes)
--------------------------------        ----        ----        ------- ----- ------------
_CODE                               00000200    00002BB8 =       11192. bytes (REL,CON)

      Value  Global                              Global Defined In Module
      -----  --------------------------------   ------------------------
     000025B3  A$lcc1887671$157                   mg_instruction_set
     000025B4  A$lcc1887671$161                   mg_instruction_set
     000025B4  C$mg_instruction_set.c$25$1_2$12   mg_instruction_set
     000025B6  A$lcc1887671$162                   mg_instruction_set
     000025B8  A$lcc1887671$167                   mg_instruction_set
     000025B8  C$mg_instruction_set.c$28$1_2$12   mg_instruction_set
     000025BA  A$lcc1887671$168                   mg_instruction_set
     000025BB  A$lcc1887671$169                   mg_instruction_set
     000025BD  A$lcc1887671$170                   mg_instruction_set
     000025BE  A$lcc1887671$171                   mg_instruction_set
     000025BF  A$lcc1887671$172                   mg_instruction_set
     000025C0  A$lcc1887671$173                   mg_instruction_set
     000025C1  A$lcc1887671$174                   mg_instruction_set
     000025C2  A$lcc1887671$178                   mg_instruction_set
     000025C4  A$lcc1887671$179                   mg_instruction_set
     000025C5  A$lcc1887671$180                   mg_instruction_set
     000025C7  A$lcc1887671$181                   mg_instruction_set
     000025C9  A$lcc1887671$182                   mg_instruction_set
     000025CA  A$lcc1887671$183                   mg_instruction_set
     000025CC  A$lcc1887671$184                   mg_instruction_set
     000025CD  A$lcc1887671$185                   mg_instruction_set
     000025CE  A$lcc1887671$186                   mg_instruction_set
     000025CF  A$lcc1887671$187                   mg_instruction_set
     000025D1  A$lcc1887671$188                   mg_instruction_set
     000025D2  A$lcc1887671$189                   mg_instruction_set
     000025D4  A$lcc1887671$190                   mg_instruction_set
     000025D5  A$lcc1887671$191                   mg_instruction_set
     000025D6  A$lcc1887671$192                   mg_instruction_set
     000025D7  A$lcc1887671$193                   mg_instruction_set
     000025D8  A$lcc1887671$194                   mg_instruction_set
     000025D9  A$lcc1887671$195                   mg_instruction_set
     000025DA  A$lcc1887671$196                   mg_instruction_set
     000025DC  A$lcc1887671$200                   mg_instruction_set
     000025DC  C$mg_instruction_set.c$27$5_0$13   mg_instruction_set
     000025DD  A$lcc1887671$201                   mg_instruction_set
     000025E0  A$lcc1887671$202                   mg_instruction_set
     000025E1  A$lcc1887671$203                   mg_instruction_set
     000025E2  A$lcc1887671$204                   mg_instruction_set
     000025E4  A$lcc1887671$205                   mg_instruction_set
     000025E5  A$lcc1887671$209                   mg_instruction_set
     000025E5  C$mg_instruction_set.c$28$5_0$13   mg_instruction_set
     000025E7  A$lcc1887671$210                   mg_instruction_set
     000025E8  A$lcc1887671$211                   mg_instruction_set
     000025E9  A$lcc1887671$212                   mg_instruction_set
     000025EA  A$lcc1887671$213                   mg_instruction_set
     000025EB  A$lcc1887671$214                   mg_instruction_set
     000025EC  A$lcc1887671$215                   mg_instruction_set
     000025ED  A$lcc1887671$216                   mg_instruction_set
     000025F0  A$lcc1887671$217                   mg_instruction_set
     000025F1  A$lcc1887671$221                   mg_instruction_set
     000025F1  C$mg_instruction_set.c$29$5_0$13   mg_instruction_set
ASxxxx Linker V03.00/V05.40 + sdld,  page 106.
Hexadecimal  [32-Bits]

Area                                    Addr        Size        Decimal Bytes (Attributes)
--------------------------------        ----        ----        ------- ----- ------------
_CODE                               00000200    00002BB8 =       11192. bytes (REL,CON)

      Value  Global                              Global Defined In Module
      -----  --------------------------------   ------------------------
     000025F2  A$lcc1887671$222                   mg_instruction_set
     000025F4  A$lcc1887671$223                   mg_instruction_set
     000025F6  A$lcc1887671$224                   mg_instruction_set
     000025F7  A$lcc1887671$228                   mg_instruction_set
     000025F7  C$mg_instruction_set.c$25$4_0$13   mg_instruction_set
     000025F9  A$lcc1887671$229                   mg_instruction_set
     000025FA  A$lcc1887671$230                   mg_instruction_set
     000025FC  A$lcc1887671$235                   mg_instruction_set
     000025FC  C$mg_instruction_set.c$32$3_1$13   mg_instruction_set
     000025FD  A$lcc1887671$236                   mg_instruction_set
     000025FF  A$lcc1887671$237                   mg_instruction_set
     00002600  A$lcc1887671$238                   mg_instruction_set
     00002601  A$lcc1887671$239                   mg_instruction_set
     00002602  A$lcc1887671$240                   mg_instruction_set
     00002604  A$lcc1887671$241                   mg_instruction_set
     00002605  A$lcc1887671$242                   mg_instruction_set
     00002606  A$lcc1887671$243                   mg_instruction_set
     00002607  A$lcc1887671$244                   mg_instruction_set
     00002608  A$lcc1887671$245                   mg_instruction_set
     00002609  A$lcc1887671$246                   mg_instruction_set
     0000260A  A$lcc1887671$247                   mg_instruction_set
     0000260B  A$lcc1887671$248                   mg_instruction_set
     0000260C  A$lcc1887671$249                   mg_instruction_set
     0000260D  A$lcc1887671$250                   mg_instruction_set
     0000260E  A$lcc1887671$251                   mg_instruction_set
     00002610  A$lcc1887671$255                   mg_instruction_set
     00002610  C$mg_instruction_set.c$33$3_1$13   mg_instruction_set
     00002611  A$lcc1887671$256                   mg_instruction_set
     00002612  A$lcc1887671$257                   mg_instruction_set
     00002614  A$lcc1887671$258                   mg_instruction_set
     00002615  A$lcc1887671$259                   mg_instruction_set
     00002618  A$lcc1887671$263                   mg_instruction_set
     00002618  C$mg_instruction_set.c$21$2_0$13   mg_instruction_set
     0000261A  A$lcc1887671$264                   mg_instruction_set
     0000261B  A$lcc1887671$265                   mg_instruction_set
     0000261E  A$lcc1887671$270                   mg_instruction_set
     0000261E  C$mg_instruction_set.c$39$1_1$13   mg_instruction_set
     00002620  A$lcc1887671$271                   mg_instruction_set
     00002621  A$lcc1887671$272                   mg_instruction_set
     00002622  A$lcc1887671$273                   mg_instruction_set
     00002624  A$lcc1887671$274                   mg_instruction_set
     00002626  A$lcc1887671$275                   mg_instruction_set
     00002629  A$lcc1887671$279                   mg_instruction_set
     00002629  C$mg_instruction_set.c$41$1_1$13   mg_instruction_set
     0000262A  A$lcc1887671$280                   mg_instruction_set
     0000262D  A$lcc1887671$284                   mg_instruction_set
     0000262D  C$mg_instruction_set.c$42$2_1$13   mg_instruction_set
     0000262F  A$lcc1887671$288                   mg_instruction_set
     0000262F  C$mg_instruction_set.c$43$2_1$13   mg_instruction_set
     00002631  A$lcc1887671$296                   mg_instruction_set
     00002631  C$mg_instruction_set.c$45$1_2$13   mg_instruction_set
ASxxxx Linker V03.00/V05.40 + sdld,  page 107.
Hexadecimal  [32-Bits]

Area                                    Addr        Size        Decimal Bytes (Attributes)
--------------------------------        ----        ----        ------- ----- ------------
_CODE                               00000200    00002BB8 =       11192. bytes (REL,CON)

      Value  Global                              Global Defined In Module
      -----  --------------------------------   ------------------------
     00002631  C$mg_instruction_set.c$47$2_2$13   mg_instruction_set
     00002632  A$lcc1887671$300                   mg_instruction_set
     00002632  C$mg_instruction_set.c$49$3_2$13   mg_instruction_set
     00002633  A$lcc1887671$301                   mg_instruction_set
     00002635  A$lcc1887671$302                   mg_instruction_set
     00002637  A$lcc1887671$306                   mg_instruction_set
     00002637  C$mg_instruction_set.c$51$4_2$13   mg_instruction_set
     00002639  A$lcc1887671$310                   mg_instruction_set
     00002639  C$mg_instruction_set.c$53$5_2$14   mg_instruction_set
     0000263A  A$lcc1887671$311                   mg_instruction_set
     0000263C  A$lcc1887671$315                   mg_instruction_set
     0000263C  C$mg_instruction_set.c$55$6_2$14   mg_instruction_set
     0000263D  A$lcc1887671$316                   mg_instruction_set
     0000263F  A$lcc1887671$317                   mg_instruction_set
     00002640  A$lcc1887671$318                   mg_instruction_set
     00002641  A$lcc1887671$319                   mg_instruction_set
     00002643  A$lcc1887671$320                   mg_instruction_set
     00002645  A$lcc1887671$321                   mg_instruction_set
     00002648  A$lcc1887671$322                   mg_instruction_set
     00002649  A$lcc1887671$326                   mg_instruction_set
     00002649  C$mg_instruction_set.c$56$6_2$14   mg_instruction_set
     0000264B  A$lcc1887671$327                   mg_instruction_set
     0000264D  A$lcc1887671$332                   mg_instruction_set
     0000264D  C$mg_instruction_set.c$60$6_2$14   mg_instruction_set
     0000264E  A$lcc1887671$333                   mg_instruction_set
     00002650  A$lcc1887671$334                   mg_instruction_set
     00002651  A$lcc1887671$335                   mg_instruction_set
     00002652  A$lcc1887671$336                   mg_instruction_set
     00002654  A$lcc1887671$337                   mg_instruction_set
     00002656  A$lcc1887671$338                   mg_instruction_set
     00002659  A$lcc1887671$339                   mg_instruction_set
     0000265A  A$lcc1887671$343                   mg_instruction_set
     0000265A  C$mg_instruction_set.c$61$6_2$14   mg_instruction_set
     0000265C  A$lcc1887671$348                   mg_instruction_set
     0000265C  C$mg_instruction_set.c$65$2_2$13   mg_instruction_set
     0000265F  A$lcc1887671$352                   mg_instruction_set
     0000265F  C$mg_instruction_set.c$67$2_2$13   mg_instruction_set
     00002662  A$lcc1887671$353                   mg_instruction_set
     00002665  A$lcc1887671$357                   mg_instruction_set
     00002665  C$mg_instruction_set.c$69$3_2$14   mg_instruction_set
     00002668  A$lcc1887671$358                   mg_instruction_set
     0000266A  A$lcc1887671$359                   mg_instruction_set
     0000266C  A$lcc1887671$366                   mg_instruction_set
     0000266C  C$mg_instruction_set.c$70$1_2$12   mg_instruction_set
     0000266E  A$lcc1887671$371                   mg_instruction_set
     0000266E  C$mg_instruction_set.c$72$1_2$12   mg_instruction_set
     0000266E  XG$Mg_InstructionSet$0$0           mg_instruction_set
     0000266F  A$lcc1887672$76                    mg_load_screen
     0000266F  C$mg_load_screen.c$13$0_0$128      mg_load_screen
     0000266F  C$mg_load_screen.c$14$1_0$128      mg_load_screen
     0000266F  G$Mg_LoadScreenInit$0$0            mg_load_screen
ASxxxx Linker V03.00/V05.40 + sdld,  page 108.
Hexadecimal  [32-Bits]

Area                                    Addr        Size        Decimal Bytes (Attributes)
--------------------------------        ----        ----        ------- ----- ------------
_CODE                               00000200    00002BB8 =       11192. bytes (REL,CON)

      Value  Global                              Global Defined In Module
      -----  --------------------------------   ------------------------
     0000266F  _Mg_LoadScreenInit                 mg_load_screen
     00002670  A$lcc1887672$77                    mg_load_screen
     00002673  A$lcc1887672$81                    mg_load_screen
     00002673  C$mg_load_screen.c$15$1_0$128      mg_load_screen
     00002676  A$lcc1887672$82                    mg_load_screen
     00002678  A$lcc1887672$86                    mg_load_screen
     00002678  C$mg_load_screen.c$16$1_0$128      mg_load_screen
     0000267B  A$lcc1887672$87                    mg_load_screen
     0000267D  A$lcc1887672$91                    mg_load_screen
     0000267D  C$mg_load_screen.c$17$1_0$128      mg_load_screen
     00002680  A$lcc1887672$92                    mg_load_screen
     00002682  A$lcc1887672$96                    mg_load_screen
     00002682  C$mg_load_screen.c$19$2_0$129      mg_load_screen
     00002684  A$lcc1887672$97                    mg_load_screen
     00002685  A$lcc1887672$101                   mg_load_screen
     00002685  C$mg_load_screen.c$20$1_1$129      mg_load_screen
     00002687  A$lcc1887672$102                   mg_load_screen
     00002689  A$lcc1887672$103                   mg_load_screen
     0000268C  A$lcc1887672$104                   mg_load_screen
     0000268E  A$lcc1887672$108                   mg_load_screen
     0000268E  C$mg_load_screen.c$22$1_1$129      mg_load_screen
     00002691  A$lcc1887672$109                   mg_load_screen
     00002692  A$lcc1887672$110                   mg_load_screen
     00002695  A$lcc1887672$111                   mg_load_screen
     00002696  A$lcc1887672$112                   mg_load_screen
     00002699  A$lcc1887672$113                   mg_load_screen
     0000269B  A$lcc1887672$117                   mg_load_screen
     0000269B  C$mg_load_screen.c$23$1_1$129      mg_load_screen
     0000269E  A$lcc1887672$118                   mg_load_screen
     0000269F  A$lcc1887672$119                   mg_load_screen
     000026A2  A$lcc1887672$120                   mg_load_screen
     000026A3  A$lcc1887672$121                   mg_load_screen
     000026A4  A$lcc1887672$122                   mg_load_screen
     000026A5  A$lcc1887672$123                   mg_load_screen
     000026A6  A$lcc1887672$124                   mg_load_screen
     000026A9  A$lcc1887672$125                   mg_load_screen
     000026AB  A$lcc1887672$129                   mg_load_screen
     000026AB  C$mg_load_screen.c$25$1_1$129      mg_load_screen
     000026AC  A$lcc1887672$130                   mg_load_screen
     000026AE  A$lcc1887672$131                   mg_load_screen
     000026B1  A$lcc1887672$132                   mg_load_screen
     000026B2  A$lcc1887672$140                   mg_load_screen
     000026B2  C$mg_load_screen.c$26$1_1$128      mg_load_screen
     000026B2  XG$Mg_LoadScreenInit$0$0           mg_load_screen
     000026B3  A$lcc1887672$153                   mg_load_screen
     000026B3  C$mg_load_screen.c$28$1_1$130      mg_load_screen
     000026B3  C$mg_load_screen.c$29$2_0$130      mg_load_screen
     000026B3  G$Mg_LoadScreenUpdate$0$0          mg_load_screen
     000026B3  _Mg_LoadScreenUpdate               mg_load_screen
     000026B5  A$lcc1887672$158                   mg_load_screen
     000026B5  C$mg_load_screen.c$32$1_0$130      mg_load_screen
ASxxxx Linker V03.00/V05.40 + sdld,  page 109.
Hexadecimal  [32-Bits]

Area                                    Addr        Size        Decimal Bytes (Attributes)
--------------------------------        ----        ----        ------- ----- ------------
_CODE                               00000200    00002BB8 =       11192. bytes (REL,CON)

      Value  Global                              Global Defined In Module
      -----  --------------------------------   ------------------------
     000026B8  A$lcc1887672$159                   mg_load_screen
     000026B9  A$lcc1887672$160                   mg_load_screen
     000026BA  A$lcc1887672$164                   mg_load_screen
     000026BA  C$mg_load_screen.c$33$2_0$131      mg_load_screen
     000026BD  A$lcc1887672$168                   mg_load_screen
     000026BD  C$mg_load_screen.c$35$2_0$131      mg_load_screen
     000026C0  A$lcc1887672$169                   mg_load_screen
     000026C1  A$lcc1887672$173                   mg_load_screen
     000026C1  C$mg_load_screen.c$36$3_0$132      mg_load_screen
     000026C2  A$lcc1887672$174                   mg_load_screen
     000026C5  A$lcc1887672$175                   mg_load_screen
     000026C6  A$lcc1887672$176                   mg_load_screen
     000026C8  A$lcc1887672$183                   mg_load_screen
     000026C8  C$mg_load_screen.c$37$4_0$133      mg_load_screen
     000026C8  C$mg_load_screen.c$38$4_0$133      mg_load_screen
     000026C9  A$lcc1887672$184                   mg_load_screen
     000026CC  A$lcc1887672$185                   mg_load_screen
     000026CF  A$lcc1887672$190                   mg_load_screen
     000026CF  C$mg_load_screen.c$42$3_1$135      mg_load_screen
     000026D1  A$lcc1887672$191                   mg_load_screen
     000026D4  A$lcc1887672$192                   mg_load_screen
     000026D5  A$lcc1887672$193                   mg_load_screen
     000026D7  A$lcc1887672$197                   mg_load_screen
     000026D7  C$mg_load_screen.c$43$3_1$135      mg_load_screen
     000026D9  A$lcc1887672$198                   mg_load_screen
     000026DB  A$lcc1887672$203                   mg_load_screen
     000026DB  C$mg_load_screen.c$44$4_1$136      mg_load_screen
     000026DD  A$lcc1887672$204                   mg_load_screen
     000026E0  A$lcc1887672$205                   mg_load_screen
     000026E1  A$lcc1887672$206                   mg_load_screen
     000026E3  A$lcc1887672$210                   mg_load_screen
     000026E3  C$mg_load_screen.c$45$4_1$136      mg_load_screen
     000026E5  A$lcc1887672$211                   mg_load_screen
     000026E7  A$lcc1887672$216                   mg_load_screen
     000026E7  C$mg_load_screen.c$46$5_1$137      mg_load_screen
     000026E9  A$lcc1887672$217                   mg_load_screen
     000026EC  A$lcc1887672$218                   mg_load_screen
     000026ED  A$lcc1887672$219                   mg_load_screen
     000026EF  A$lcc1887672$223                   mg_load_screen
     000026EF  C$mg_load_screen.c$47$5_1$137      mg_load_screen
     000026F1  A$lcc1887672$224                   mg_load_screen
     000026F3  A$lcc1887672$229                   mg_load_screen
     000026F3  C$mg_load_screen.c$49$5_1$137      mg_load_screen
     000026F4  A$lcc1887672$234                   mg_load_screen
     000026F4  C$mg_load_screen.c$51$2_1$134      mg_load_screen
     000026F6  A$lcc1887672$238                   mg_load_screen
     000026F6  C$mg_load_screen.c$52$3_1$138      mg_load_screen
     000026F7  A$lcc1887672$239                   mg_load_screen
     000026F9  A$lcc1887672$243                   mg_load_screen
     000026F9  C$mg_load_screen.c$55$2_1$134      mg_load_screen
     000026FA  A$lcc1887672$247                   mg_load_screen
ASxxxx Linker V03.00/V05.40 + sdld,  page 110.
Hexadecimal  [32-Bits]

Area                                    Addr        Size        Decimal Bytes (Attributes)
--------------------------------        ----        ----        ------- ----- ------------
_CODE                               00000200    00002BB8 =       11192. bytes (REL,CON)

      Value  Global                              Global Defined In Module
      -----  --------------------------------   ------------------------
     000026FA  C$mg_load_screen.c$57$2_1$134      mg_load_screen
     000026FB  A$lcc1887672$248                   mg_load_screen
     000026FC  A$lcc1887672$249                   mg_load_screen
     000026FD  A$lcc1887672$250                   mg_load_screen
     000026FF  A$lcc1887672$251                   mg_load_screen
     00002701  A$lcc1887672$252                   mg_load_screen
     00002704  A$lcc1887672$253                   mg_load_screen
     00002705  A$lcc1887672$261                   mg_load_screen
     00002705  C$mg_load_screen.c$59$1_0$130      mg_load_screen
     00002705  XG$Mg_LoadScreenUpdate$0$0         mg_load_screen
     00002707  A$lcc1887673$59                    mg_mission_complete
     00002707  C$mg_mission_complete.c$11$0_0$1   mg_mission_complete
     00002707  G$Mg_SplashCompleteScreen$0$0      mg_mission_complete
     00002707  _Mg_SplashCompleteScreen           mg_mission_complete
     00002709  A$lcc1887673$63                    mg_mission_complete
     00002709  C$mg_mission_complete.c$13$2_0$1   mg_mission_complete
     0000270B  A$lcc1887673$64                    mg_mission_complete
     0000270C  A$lcc1887673$68                    mg_mission_complete
     0000270C  C$mg_mission_complete.c$14$1_0$1   mg_mission_complete
     0000270E  A$lcc1887673$69                    mg_mission_complete
     00002710  A$lcc1887673$70                    mg_mission_complete
     00002713  A$lcc1887673$71                    mg_mission_complete
     00002715  A$lcc1887673$75                    mg_mission_complete
     00002715  C$mg_mission_complete.c$16$1_0$1   mg_mission_complete
     00002718  A$lcc1887673$76                    mg_mission_complete
     00002719  A$lcc1887673$77                    mg_mission_complete
     0000271C  A$lcc1887673$78                    mg_mission_complete
     0000271D  A$lcc1887673$79                    mg_mission_complete
     00002720  A$lcc1887673$80                    mg_mission_complete
     00002722  A$lcc1887673$84                    mg_mission_complete
     00002722  C$mg_mission_complete.c$17$1_0$1   mg_mission_complete
     00002725  A$lcc1887673$85                    mg_mission_complete
     00002726  A$lcc1887673$86                    mg_mission_complete
     00002729  A$lcc1887673$87                    mg_mission_complete
     0000272A  A$lcc1887673$88                    mg_mission_complete
     0000272B  A$lcc1887673$89                    mg_mission_complete
     0000272C  A$lcc1887673$90                    mg_mission_complete
     0000272D  A$lcc1887673$91                    mg_mission_complete
     00002730  A$lcc1887673$92                    mg_mission_complete
     00002732  A$lcc1887673$96                    mg_mission_complete
     00002732  C$mg_mission_complete.c$19$1_0$1   mg_mission_complete
     00002733  A$lcc1887673$97                    mg_mission_complete
     00002735  A$lcc1887673$98                    mg_mission_complete
     00002738  A$lcc1887673$99                    mg_mission_complete
     00002739  A$lcc1887673$103                   mg_mission_complete
     00002739  C$mg_mission_complete.c$21$2_0$1   mg_mission_complete
     0000273B  A$lcc1887673$104                   mg_mission_complete
     0000273D  A$lcc1887673$105                   mg_mission_complete
     0000273E  A$lcc1887673$106                   mg_mission_complete
     00002740  A$lcc1887673$107                   mg_mission_complete
     00002741  A$lcc1887673$108                   mg_mission_complete
ASxxxx Linker V03.00/V05.40 + sdld,  page 111.
Hexadecimal  [32-Bits]

Area                                    Addr        Size        Decimal Bytes (Attributes)
--------------------------------        ----        ----        ------- ----- ------------
_CODE                               00000200    00002BB8 =       11192. bytes (REL,CON)

      Value  Global                              Global Defined In Module
      -----  --------------------------------   ------------------------
     00002743  A$lcc1887673$109                   mg_mission_complete
     00002744  A$lcc1887673$110                   mg_mission_complete
     00002745  A$lcc1887673$111                   mg_mission_complete
     00002747  A$lcc1887673$112                   mg_mission_complete
     00002748  A$lcc1887673$113                   mg_mission_complete
     0000274A  A$lcc1887673$114                   mg_mission_complete
     0000274B  A$lcc1887673$115                   mg_mission_complete
     0000274D  A$lcc1887673$116                   mg_mission_complete
     0000274E  A$lcc1887673$117                   mg_mission_complete
     00002750  A$lcc1887673$118                   mg_mission_complete
     00002751  A$lcc1887673$119                   mg_mission_complete
     00002753  A$lcc1887673$120                   mg_mission_complete
     00002754  A$lcc1887673$121                   mg_mission_complete
     00002756  A$lcc1887673$122                   mg_mission_complete
     00002757  A$lcc1887673$123                   mg_mission_complete
     00002759  A$lcc1887673$124                   mg_mission_complete
     0000275A  A$lcc1887673$125                   mg_mission_complete
     0000275C  A$lcc1887673$126                   mg_mission_complete
     0000275D  A$lcc1887673$127                   mg_mission_complete
     0000275F  A$lcc1887673$128                   mg_mission_complete
     00002760  A$lcc1887673$129                   mg_mission_complete
     00002762  A$lcc1887673$130                   mg_mission_complete
     00002763  A$lcc1887673$131                   mg_mission_complete
     00002765  A$lcc1887673$132                   mg_mission_complete
     00002766  A$lcc1887673$133                   mg_mission_complete
     00002768  A$lcc1887673$137                   mg_mission_complete
     00002768  C$mg_mission_complete.c$22$1_1$1   mg_mission_complete
     0000276A  A$lcc1887673$139                   mg_mission_complete
     0000276B  A$lcc1887673$140                   mg_mission_complete
     0000276D  A$lcc1887673$141                   mg_mission_complete
     0000276F  A$lcc1887673$145                   mg_mission_complete
     0000276F  C$mg_mission_complete.c$24$3_1$1   mg_mission_complete
     00002770  A$lcc1887673$146                   mg_mission_complete
     00002772  A$lcc1887673$147                   mg_mission_complete
     00002775  A$lcc1887673$148                   mg_mission_complete
     00002776  A$lcc1887673$149                   mg_mission_complete
     00002777  A$lcc1887673$150                   mg_mission_complete
     00002778  A$lcc1887673$151                   mg_mission_complete
     00002779  A$lcc1887673$152                   mg_mission_complete
     0000277C  A$lcc1887673$153                   mg_mission_complete
     0000277D  A$lcc1887673$154                   mg_mission_complete
     0000277E  A$lcc1887673$155                   mg_mission_complete
     0000277F  A$lcc1887673$156                   mg_mission_complete
     00002781  A$lcc1887673$160                   mg_mission_complete
     00002781  C$mg_mission_complete.c$25$3_1$1   mg_mission_complete
     00002782  A$lcc1887673$161                   mg_mission_complete
     00002783  A$lcc1887673$162                   mg_mission_complete
     00002784  A$lcc1887673$163                   mg_mission_complete
     00002785  A$lcc1887673$164                   mg_mission_complete
     00002786  A$lcc1887673$165                   mg_mission_complete
     00002787  A$lcc1887673$166                   mg_mission_complete
ASxxxx Linker V03.00/V05.40 + sdld,  page 112.
Hexadecimal  [32-Bits]

Area                                    Addr        Size        Decimal Bytes (Attributes)
--------------------------------        ----        ----        ------- ----- ------------
_CODE                               00000200    00002BB8 =       11192. bytes (REL,CON)

      Value  Global                              Global Defined In Module
      -----  --------------------------------   ------------------------
     00002789  A$lcc1887673$167                   mg_mission_complete
     0000278A  A$lcc1887673$168                   mg_mission_complete
     0000278D  A$lcc1887673$169                   mg_mission_complete
     0000278E  A$lcc1887673$173                   mg_mission_complete
     0000278E  C$mg_mission_complete.c$22$2_1$1   mg_mission_complete
     0000278F  A$lcc1887673$174                   mg_mission_complete
     00002791  A$lcc1887673$182                   mg_mission_complete
     00002791  C$mg_mission_complete.c$31$1_1$1   mg_mission_complete
     00002793  A$lcc1887673$187                   mg_mission_complete
     00002793  C$mg_mission_complete.c$32$1_1$1   mg_mission_complete
     00002793  XG$Mg_SplashCompleteScreen$0$0     mg_mission_complete
     00002794  A$lcc1887673$200                   mg_mission_complete
     00002794  C$mg_mission_complete.c$34$1_1$1   mg_mission_complete
     00002794  C$mg_mission_complete.c$36$1_0$1   mg_mission_complete
     00002794  G$Mg_CompleteScreenSleep$0$0       mg_mission_complete
     00002794  _Mg_CompleteScreenSleep            mg_mission_complete
     00002795  A$lcc1887673$201                   mg_mission_complete
     00002798  A$lcc1887673$206                   mg_mission_complete
     00002798  C$mg_mission_complete.c$38$1_0$1   mg_mission_complete
     0000279B  A$lcc1887673$207                   mg_mission_complete
     0000279C  A$lcc1887673$208                   mg_mission_complete
     0000279E  A$lcc1887673$212                   mg_mission_complete
     0000279E  C$mg_mission_complete.c$39$1_0$1   mg_mission_complete
     000027A1  A$lcc1887673$213                   mg_mission_complete
     000027A3  A$lcc1887673$221                   mg_mission_complete
     000027A3  C$mg_mission_complete.c$41$1_0$1   mg_mission_complete
     000027A3  C$mg_mission_complete.c$43$2_0$1   mg_mission_complete
     000027A6  A$lcc1887673$222                   mg_mission_complete
     000027A9  A$lcc1887673$223                   mg_mission_complete
     000027AA  A$lcc1887673$227                   mg_mission_complete
     000027AA  C$mg_mission_complete.c$44$3_0$1   mg_mission_complete
     000027AC  A$lcc1887673$228                   mg_mission_complete
     000027AE  A$lcc1887673$232                   mg_mission_complete
     000027AE  C$mg_mission_complete.c$46$4_0$1   mg_mission_complete
     000027AF  A$lcc1887673$233                   mg_mission_complete
     000027B2  A$lcc1887673$244                   mg_mission_complete
     000027B2  C$mg_mission_complete.c$51$1_0$1   mg_mission_complete
     000027B2  C$mg_mission_complete.c$52$1_0$1   mg_mission_complete
     000027B2  XG$Mg_CompleteScreenSleep$0$0      mg_mission_complete
     000027B3  A$lcc1887674$56                    mg_player_movement
     000027B3  C$mg_player_movement.c$9$0_0$153   mg_player_movement
     000027B3  G$Mg_PlayerMovement$0$0            mg_player_movement
     000027B3  _Mg_PlayerMovement                 mg_player_movement
     000027B4  A$lcc1887674$60                    mg_player_movement
     000027B4  C$mg_player_movement.c$10$2_0$15   mg_player_movement
     000027B7  A$lcc1887674$61                    mg_player_movement
     000027B8  A$lcc1887674$62                    mg_player_movement
     000027BA  A$lcc1887674$66                    mg_player_movement
     000027BD  A$lcc1887674$67                    mg_player_movement
     000027BF  A$lcc1887674$68                    mg_player_movement
     000027C1  A$lcc1887674$69                    mg_player_movement
ASxxxx Linker V03.00/V05.40 + sdld,  page 113.
Hexadecimal  [32-Bits]

Area                                    Addr        Size        Decimal Bytes (Attributes)
--------------------------------        ----        ----        ------- ----- ------------
_CODE                               00000200    00002BB8 =       11192. bytes (REL,CON)

      Value  Global                              Global Defined In Module
      -----  --------------------------------   ------------------------
     000027C2  A$lcc1887674$70                    mg_player_movement
     000027C3  A$lcc1887674$71                    mg_player_movement
     000027C5  A$lcc1887674$75                    mg_player_movement
     000027C5  C$mg_player_movement.c$12$4_0$15   mg_player_movement
     000027C8  A$lcc1887674$76                    mg_player_movement
     000027CA  A$lcc1887674$77                    mg_player_movement
     000027CC  A$lcc1887674$82                    mg_player_movement
     000027CC  C$mg_player_movement.c$13$5_0$15   mg_player_movement
     000027CE  A$lcc1887674$83                    mg_player_movement
     000027D0  A$lcc1887674$84                    mg_player_movement
     000027D1  A$lcc1887674$85                    mg_player_movement
     000027D2  A$lcc1887674$86                    mg_player_movement
     000027D4  A$lcc1887674$90                    mg_player_movement
     000027D4  C$mg_player_movement.c$14$5_0$15   mg_player_movement
     000027D7  A$lcc1887674$91                    mg_player_movement
     000027D9  A$lcc1887674$92                    mg_player_movement
     000027DB  A$lcc1887674$97                    mg_player_movement
     000027DB  C$mg_player_movement.c$15$6_0$15   mg_player_movement
     000027DD  A$lcc1887674$98                    mg_player_movement
     000027DF  A$lcc1887674$99                    mg_player_movement
     000027E0  A$lcc1887674$100                   mg_player_movement
     000027E1  A$lcc1887674$101                   mg_player_movement
     000027E3  A$lcc1887674$105                   mg_player_movement
     000027E3  C$mg_player_movement.c$16$6_0$15   mg_player_movement
     000027E6  A$lcc1887674$106                   mg_player_movement
     000027E8  A$lcc1887674$107                   mg_player_movement
     000027EA  A$lcc1887674$112                   mg_player_movement
     000027EA  C$mg_player_movement.c$17$7_0$15   mg_player_movement
     000027EB  A$lcc1887674$113                   mg_player_movement
     000027ED  A$lcc1887674$114                   mg_player_movement
     000027EE  A$lcc1887674$115                   mg_player_movement
     000027EF  A$lcc1887674$116                   mg_player_movement
     000027F1  A$lcc1887674$120                   mg_player_movement
     000027F1  C$mg_player_movement.c$18$7_0$15   mg_player_movement
     000027F4  A$lcc1887674$121                   mg_player_movement
     000027F6  A$lcc1887674$126                   mg_player_movement
     000027F6  C$mg_player_movement.c$22$2_0$16   mg_player_movement
     000027F9  A$lcc1887674$127                   mg_player_movement
     000027FA  A$lcc1887674$128                   mg_player_movement
     000027FC  A$lcc1887674$129                   mg_player_movement
     000027FF  A$lcc1887674$130                   mg_player_movement
     00002801  A$lcc1887674$131                   mg_player_movement
     00002803  A$lcc1887674$132                   mg_player_movement
     00002805  A$lcc1887674$133                   mg_player_movement
     00002807  A$lcc1887674$134                   mg_player_movement
     00002809  A$lcc1887674$135                   mg_player_movement
     0000280B  A$lcc1887674$136                   mg_player_movement
     0000280D  A$lcc1887674$144                   mg_player_movement
     0000280D  C$mg_player_movement.c$23$3_0$16   mg_player_movement
     0000280D  C$mg_player_movement.c$24$3_0$16   mg_player_movement
     00002810  A$lcc1887674$145                   mg_player_movement
ASxxxx Linker V03.00/V05.40 + sdld,  page 114.
Hexadecimal  [32-Bits]

Area                                    Addr        Size        Decimal Bytes (Attributes)
--------------------------------        ----        ----        ------- ----- ------------
_CODE                               00000200    00002BB8 =       11192. bytes (REL,CON)

      Value  Global                              Global Defined In Module
      -----  --------------------------------   ------------------------
     00002813  A$lcc1887674$149                   mg_player_movement
     00002813  C$mg_player_movement.c$25$3_0$16   mg_player_movement
     00002815  A$lcc1887674$157                   mg_player_movement
     00002815  C$mg_player_movement.c$26$3_0$16   mg_player_movement
     00002815  C$mg_player_movement.c$27$3_0$16   mg_player_movement
     00002818  A$lcc1887674$158                   mg_player_movement
     0000281B  A$lcc1887674$162                   mg_player_movement
     0000281B  C$mg_player_movement.c$28$3_0$16   mg_player_movement
     0000281D  A$lcc1887674$170                   mg_player_movement
     0000281D  C$mg_player_movement.c$29$3_0$16   mg_player_movement
     0000281D  C$mg_player_movement.c$30$3_0$16   mg_player_movement
     00002820  A$lcc1887674$171                   mg_player_movement
     00002823  A$lcc1887674$175                   mg_player_movement
     00002823  C$mg_player_movement.c$31$3_0$16   mg_player_movement
     00002825  A$lcc1887674$183                   mg_player_movement
     00002825  C$mg_player_movement.c$32$3_0$16   mg_player_movement
     00002825  C$mg_player_movement.c$33$3_0$16   mg_player_movement
     00002828  A$lcc1887674$184                   mg_player_movement
     0000282B  A$lcc1887674$192                   mg_player_movement
     0000282B  C$mg_player_movement.c$11$2_0$15   mg_player_movement
     0000282B  C$mg_player_movement.c$37$2_0$16   mg_player_movement
     0000282E  A$lcc1887674$193                   mg_player_movement
     0000282F  A$lcc1887674$197                   mg_player_movement
     0000282F  C$mg_player_movement.c$40$2_0$16   mg_player_movement
     00002832  A$lcc1887674$198                   mg_player_movement
     00002833  A$lcc1887674$199                   mg_player_movement
     00002835  A$lcc1887674$200                   mg_player_movement
     00002837  A$lcc1887674$201                   mg_player_movement
     00002839  A$lcc1887674$205                   mg_player_movement
     00002839  C$mg_player_movement.c$41$2_0$16   mg_player_movement
     0000283A  A$lcc1887674$206                   mg_player_movement
     0000283D  A$lcc1887674$211                   mg_player_movement
     0000283D  C$mg_player_movement.c$43$2_0$16   mg_player_movement
     00002840  A$lcc1887674$212                   mg_player_movement
     00002842  A$lcc1887674$213                   mg_player_movement
     00002844  A$lcc1887674$214                   mg_player_movement
     00002846  A$lcc1887674$215                   mg_player_movement
     00002848  A$lcc1887674$219                   mg_player_movement
     00002848  C$mg_player_movement.c$44$2_0$16   mg_player_movement
     00002849  A$lcc1887674$220                   mg_player_movement
     0000284C  A$lcc1887674$225                   mg_player_movement
     0000284C  C$mg_player_movement.c$46$2_0$16   mg_player_movement
     0000284F  A$lcc1887674$226                   mg_player_movement
     00002851  A$lcc1887674$227                   mg_player_movement
     00002853  A$lcc1887674$228                   mg_player_movement
     00002855  A$lcc1887674$229                   mg_player_movement
     00002857  A$lcc1887674$233                   mg_player_movement
     00002857  C$mg_player_movement.c$47$2_0$16   mg_player_movement
     00002858  A$lcc1887674$234                   mg_player_movement
     0000285B  A$lcc1887674$239                   mg_player_movement
     0000285B  C$mg_player_movement.c$49$2_0$16   mg_player_movement
ASxxxx Linker V03.00/V05.40 + sdld,  page 115.
Hexadecimal  [32-Bits]

Area                                    Addr        Size        Decimal Bytes (Attributes)
--------------------------------        ----        ----        ------- ----- ------------
_CODE                               00000200    00002BB8 =       11192. bytes (REL,CON)

      Value  Global                              Global Defined In Module
      -----  --------------------------------   ------------------------
     0000285E  A$lcc1887674$240                   mg_player_movement
     00002860  A$lcc1887674$241                   mg_player_movement
     00002861  A$lcc1887674$242                   mg_player_movement
     00002863  A$lcc1887674$243                   mg_player_movement
     00002864  A$lcc1887674$247                   mg_player_movement
     00002864  C$mg_player_movement.c$50$2_0$16   mg_player_movement
     00002865  A$lcc1887674$248                   mg_player_movement
     00002868  A$lcc1887674$256                   mg_player_movement
     00002868  C$mg_player_movement.c$51$2_0$15   mg_player_movement
     00002868  XG$Mg_PlayerMovement$0$0           mg_player_movement
     00002869  A$lcc1887675$70                    mg_timer
     00002869  C$mg_timer.c$8$0_0$3               mg_timer
     00002869  G$Mg_TimerStart$0$0                mg_timer
     00002869  _Mg_TimerStart                     mg_timer
     0000286A  A$lcc1887675$71                    mg_timer
     0000286B  A$lcc1887675$75                    mg_timer
     0000286B  C$mg_timer.c$9$1_0$3               mg_timer
     0000286C  A$lcc1887675$76                    mg_timer
     0000286D  A$lcc1887675$77                    mg_timer
     0000286E  A$lcc1887675$78                    mg_timer
     0000286F  A$lcc1887675$79                    mg_timer
     00002870  A$lcc1887675$80                    mg_timer
     00002871  A$lcc1887675$81                    mg_timer
     00002872  A$lcc1887675$82                    mg_timer
     00002873  A$lcc1887675$83                    mg_timer
     00002874  A$lcc1887675$84                    mg_timer
     00002875  A$lcc1887675$85                    mg_timer
     00002876  A$lcc1887675$86                    mg_timer
     00002877  A$lcc1887675$87                    mg_timer
     0000287A  A$lcc1887675$88                    mg_timer
     0000287B  A$lcc1887675$89                    mg_timer
     0000287C  A$lcc1887675$90                    mg_timer
     0000287D  A$lcc1887675$94                    mg_timer
     0000287D  C$mg_timer.c$10$1_0$3              mg_timer
     00002880  A$lcc1887675$95                    mg_timer
     00002882  A$lcc1887675$99                    mg_timer
     00002882  C$mg_timer.c$11$1_0$3              mg_timer
     00002883  A$lcc1887675$100                   mg_timer
     00002886  A$lcc1887675$101                   mg_timer
     00002887  A$lcc1887675$102                   mg_timer
     00002888  A$lcc1887675$106                   mg_timer
     00002888  C$mg_timer.c$12$1_0$3              mg_timer
     00002889  A$lcc1887675$107                   mg_timer
     0000288C  A$lcc1887675$115                   mg_timer
     0000288C  C$mg_timer.c$13$1_0$3              mg_timer
     0000288C  XG$Mg_TimerStart$0$0               mg_timer
     0000288D  A$lcc1887675$128                   mg_timer
     0000288D  C$mg_timer.c$15$1_0$4              mg_timer
     0000288D  C$mg_timer.c$16$2_0$5              mg_timer
     0000288D  G$Mg_TimerUpdate$0$0               mg_timer
     0000288D  _Mg_TimerUpdate                    mg_timer
ASxxxx Linker V03.00/V05.40 + sdld,  page 116.
Hexadecimal  [32-Bits]

Area                                    Addr        Size        Decimal Bytes (Attributes)
--------------------------------        ----        ----        ------- ----- ------------
_CODE                               00000200    00002BB8 =       11192. bytes (REL,CON)

      Value  Global                              Global Defined In Module
      -----  --------------------------------   ------------------------
     00002890  A$lcc1887675$129                   mg_timer
     00002891  A$lcc1887675$133                   mg_timer
     00002891  C$mg_timer.c$17$2_0$5              mg_timer
     00002892  A$lcc1887675$137                   mg_timer
     00002892  C$mg_timer.c$19$1_0$4              mg_timer
     00002895  A$lcc1887675$138                   mg_timer
     00002896  A$lcc1887675$139                   mg_timer
     00002898  A$lcc1887675$140                   mg_timer
     00002899  A$lcc1887675$141                   mg_timer
     0000289A  A$lcc1887675$146                   mg_timer
     0000289A  C$mg_timer.c$21$2_0$6              mg_timer
     0000289D  A$lcc1887675$147                   mg_timer
     000028A0  A$lcc1887675$148                   mg_timer
     000028A1  A$lcc1887675$149                   mg_timer
     000028A2  A$lcc1887675$150                   mg_timer
     000028A3  A$lcc1887675$151                   mg_timer
     000028A4  A$lcc1887675$152                   mg_timer
     000028A5  A$lcc1887675$153                   mg_timer
     000028A6  A$lcc1887675$154                   mg_timer
     000028A7  A$lcc1887675$158                   mg_timer
     000028A7  C$mg_timer.c$22$3_0$7              mg_timer
     000028A8  A$lcc1887675$159                   mg_timer
     000028AB  A$lcc1887675$163                   mg_timer
     000028AB  C$mg_timer.c$23$3_0$7              mg_timer
     000028AE  A$lcc1887675$164                   mg_timer
     000028B0  A$lcc1887675$172                   mg_timer
     000028B0  C$mg_timer.c$25$2_0$4              mg_timer
     000028B0  XG$Mg_TimerUpdate$0$0              mg_timer
     000028B1  A$lcc1887675$182                   mg_timer
     000028B1  C$mg_timer.c$27$2_0$8              mg_timer
     000028B1  G$Mg_TimerStopAlarm$0$0            mg_timer
     000028B1  _Mg_TimerStopAlarm                 mg_timer
     000028B2  A$lcc1887675$183                   mg_timer
     000028B5  A$lcc1887675$188                   mg_timer
     000028B5  C$mg_timer.c$27$1_0$8              mg_timer
     000028B5  XG$Mg_TimerStopAlarm$0$0           mg_timer
     000028B6  A$lcc1887676$54                    mini_games
     000028B6  C$mini_games.c$9$0_0$149           mini_games
     000028B6  G$Mg_SetTitle$0$0                  mini_games
     000028B6  _Mg_SetTitle                       mini_games
     000028B7  A$lcc1887676$58                    mini_games
     000028B9  A$lcc1887676$60                    mini_games
     000028BA  A$lcc1887676$61                    mini_games
     000028BC  A$lcc1887676$62                    mini_games
     000028BD  A$lcc1887676$63                    mini_games
     000028BE  A$lcc1887676$64                    mini_games
     000028BF  A$lcc1887676$65                    mini_games
     000028C1  A$lcc1887676$69                    mini_games
     000028C1  C$mini_games.c$13$3_0$150          mini_games
     000028C2  A$lcc1887676$70                    mini_games
     000028C3  A$lcc1887676$71                    mini_games
ASxxxx Linker V03.00/V05.40 + sdld,  page 117.
Hexadecimal  [32-Bits]

Area                                    Addr        Size        Decimal Bytes (Attributes)
--------------------------------        ----        ----        ------- ----- ------------
_CODE                               00000200    00002BB8 =       11192. bytes (REL,CON)

      Value  Global                              Global Defined In Module
      -----  --------------------------------   ------------------------
     000028C6  A$lcc1887676$72                    mini_games
     000028C7  A$lcc1887676$73                    mini_games
     000028C8  A$lcc1887676$74                    mini_games
     000028C9  A$lcc1887676$75                    mini_games
     000028CA  A$lcc1887676$76                    mini_games
     000028CC  A$lcc1887676$77                    mini_games
     000028CE  A$lcc1887676$78                    mini_games
     000028CF  A$lcc1887676$82                    mini_games
     000028CF  C$mini_games.c$14$3_0$150          mini_games
     000028D0  A$lcc1887676$83                    mini_games
     000028D1  A$lcc1887676$84                    mini_games
     000028D2  A$lcc1887676$85                    mini_games
     000028D5  A$lcc1887676$86                    mini_games
     000028D6  A$lcc1887676$87                    mini_games
     000028D7  A$lcc1887676$88                    mini_games
     000028D9  A$lcc1887676$89                    mini_games
     000028DA  A$lcc1887676$90                    mini_games
     000028DB  A$lcc1887676$91                    mini_games
     000028DD  A$lcc1887676$92                    mini_games
     000028DE  A$lcc1887676$93                    mini_games
     000028DF  A$lcc1887676$94                    mini_games
     000028E1  A$lcc1887676$95                    mini_games
     000028E2  A$lcc1887676$96                    mini_games
     000028E3  A$lcc1887676$97                    mini_games
     000028E4  A$lcc1887676$98                    mini_games
     000028E5  A$lcc1887676$99                    mini_games
     000028E8  A$lcc1887676$100                   mini_games
     000028EA  A$lcc1887676$101                   mini_games
     000028EB  A$lcc1887676$105                   mini_games
     000028EB  C$mini_games.c$11$2_0$149          mini_games
     000028EC  A$lcc1887676$106                   mini_games
     000028EE  A$lcc1887676$111                   mini_games
     000028EF  A$lcc1887676$116                   mini_games
     000028EF  C$mini_games.c$16$2_0$149          mini_games
     000028EF  XG$Mg_SetTitle$0$0                 mini_games
     000028F0  A$lcc1887677$61                    mg_leaves
     000028F0  C$mg_leaves.c$7$0_0$156            mg_leaves
     000028F0  C$mg_leaves.c$9$1_0$156            mg_leaves
     000028F0  G$Mg_Leaves_Create$0$0             mg_leaves
     000028F0  _Mg_Leaves_Create                  mg_leaves
     000028F3  A$lcc1887677$62                    mg_leaves
     000028F5  A$lcc1887677$63                    mg_leaves
     000028F6  A$lcc1887677$64                    mg_leaves
     000028F8  A$lcc1887677$68                    mg_leaves
     000028F8  C$mg_leaves.c$10$1_0$156           mg_leaves
     000028F9  A$lcc1887677$69                    mg_leaves
     000028FB  A$lcc1887677$70                    mg_leaves
     000028FC  A$lcc1887677$71                    mg_leaves
     000028FE  A$lcc1887677$75                    mg_leaves
     000028FE  C$mg_leaves.c$11$1_0$156           mg_leaves
     00002901  A$lcc1887677$76                    mg_leaves
ASxxxx Linker V03.00/V05.40 + sdld,  page 118.
Hexadecimal  [32-Bits]

Area                                    Addr        Size        Decimal Bytes (Attributes)
--------------------------------        ----        ----        ------- ----- ------------
_CODE                               00000200    00002BB8 =       11192. bytes (REL,CON)

      Value  Global                              Global Defined In Module
      -----  --------------------------------   ------------------------
     00002903  A$lcc1887677$80                    mg_leaves
     00002903  C$mg_leaves.c$12$1_0$156           mg_leaves
     00002906  A$lcc1887677$81                    mg_leaves
     00002907  A$lcc1887677$82                    mg_leaves
     00002908  A$lcc1887677$83                    mg_leaves
     00002909  A$lcc1887677$87                    mg_leaves
     00002909  C$mg_leaves.c$14$1_0$156           mg_leaves
     0000290C  A$lcc1887677$88                    mg_leaves
     0000290E  A$lcc1887677$96                    mg_leaves
     0000290E  C$mg_leaves.c$15$1_0$156           mg_leaves
     0000290E  XG$Mg_Leaves_Create$0$0            mg_leaves
     0000290F  A$lcc1887679$57                    mg_leaves_load_bkg
     0000290F  C$mg_leaves_load_bkg.c$5$0_0$155   mg_leaves_load_bkg
     0000290F  C$mg_leaves_load_bkg.c$7$1_0$155   mg_leaves_load_bkg
     0000290F  G$Mg_Leaves_LoadBKG$0$0            mg_leaves_load_bkg
     0000290F  _Mg_Leaves_LoadBKG                 mg_leaves_load_bkg
     00002912  A$lcc1887679$58                    mg_leaves_load_bkg
     00002913  A$lcc1887679$59                    mg_leaves_load_bkg
     00002916  A$lcc1887679$60                    mg_leaves_load_bkg
     00002917  A$lcc1887679$61                    mg_leaves_load_bkg
     0000291A  A$lcc1887679$62                    mg_leaves_load_bkg
     0000291C  A$lcc1887679$66                    mg_leaves_load_bkg
     0000291C  C$mg_leaves_load_bkg.c$8$1_0$155   mg_leaves_load_bkg
     0000291F  A$lcc1887679$67                    mg_leaves_load_bkg
     00002920  A$lcc1887679$68                    mg_leaves_load_bkg
     00002923  A$lcc1887679$69                    mg_leaves_load_bkg
     00002924  A$lcc1887679$70                    mg_leaves_load_bkg
     00002925  A$lcc1887679$71                    mg_leaves_load_bkg
     00002926  A$lcc1887679$72                    mg_leaves_load_bkg
     00002927  A$lcc1887679$73                    mg_leaves_load_bkg
     0000292A  A$lcc1887679$74                    mg_leaves_load_bkg
     0000292C  A$lcc1887679$82                    mg_leaves_load_bkg
     0000292C  C$mg_leaves_load_bkg.c$9$1_0$155   mg_leaves_load_bkg
     0000292C  XG$Mg_Leaves_LoadBKG$0$0           mg_leaves_load_bkg
     0000292D  A$lcc1887682$72                    main
     0000292D  C$main.c$27$0_0$179                main
     0000292D  C$main.c$29$1_0$179                main
     0000292D  C$main.c$30$1_0$179                main
     0000292D  G$load_number_tiles$0$0            main
     0000292D  _load_number_tiles                 main
     00002930  A$lcc1887682$73                    main
     00002931  A$lcc1887682$74                    main
     00002934  A$lcc1887682$75                    main
     00002935  A$lcc1887682$76                    main
     00002938  A$lcc1887682$77                    main
     0000293A  A$lcc1887682$84                    main
     0000293A  C$main.c$31$1_0$179                main
     0000293A  C$main.c$32$1_0$179                main
     0000293D  A$lcc1887682$85                    main
     0000293E  A$lcc1887682$86                    main
     00002941  A$lcc1887682$87                    main
ASxxxx Linker V03.00/V05.40 + sdld,  page 119.
Hexadecimal  [32-Bits]

Area                                    Addr        Size        Decimal Bytes (Attributes)
--------------------------------        ----        ----        ------- ----- ------------
_CODE                               00000200    00002BB8 =       11192. bytes (REL,CON)

      Value  Global                              Global Defined In Module
      -----  --------------------------------   ------------------------
     00002942  A$lcc1887682$88                    main
     00002945  A$lcc1887682$89                    main
     00002947  A$lcc1887682$100                   main
     00002947  C$main.c$34$1_0$179                main
     00002947  C$main.c$35$1_0$179                main
     00002947  XG$load_number_tiles$0$0           main
     0000294A  A$lcc1887682$113                   main
     0000294A  C$main.c$37$1_0$181                main
     0000294A  C$main.c$39$1_0$181                main
     0000294A  G$main$0$0                         main
     0000294A  _main                              main
     0000294C  A$lcc1887682$114                   main
     0000294E  A$lcc1887682$115                   main
     00002950  A$lcc1887682$119                   main
     00002950  C$main.c$40$1_0$181                main
     00002952  A$lcc1887682$120                   main
     00002954  A$lcc1887682$121                   main
     00002956  A$lcc1887682$125                   main
     00002956  C$main.c$49$1_1$182                main
     00002959  A$lcc1887682$126                   main
     0000295B  A$lcc1887682$127                   main
     0000295C  A$lcc1887682$128                   main
     0000295E  A$lcc1887682$132                   main
     0000295E  C$main.c$51$1_1$182                main
     00002961  A$lcc1887682$136                   main
     00002961  C$main.c$53$1_1$182                main
     00002964  A$lcc1887682$140                   main
     00002964  C$main.c$54$1_1$182                main
     00002967  A$lcc1887682$144                   main
     00002967  C$main.c$56$1_1$182                main
     0000296A  A$lcc1887682$148                   main
     0000296A  C$main.c$59$1_2$183                main
     0000296D  A$lcc1887682$149                   main
     00002970  A$lcc1887682$153                   main
     00002970  C$main.c$61$1_2$183                main
     00002973  A$lcc1887682$154                   main
     00002974  A$lcc1887682$155                   main
     00002975  A$lcc1887682$156                   main
     00002976  A$lcc1887682$157                   main
     00002979  A$lcc1887682$158                   main
     0000297B  A$lcc1887682$159                   main
     0000297C  A$lcc1887682$160                   main
     0000297D  A$lcc1887682$161                   main
     0000297E  A$lcc1887682$162                   main
     0000297F  A$lcc1887682$163                   main
     00002982  A$lcc1887682$167                   main
     00002982  C$main.c$63$1_2$183                main
     00002985  A$lcc1887682$172                   main
     00002985  C$main.c$65$1_2$183                main
     00002988  A$lcc1887682$173                   main
     00002989  A$lcc1887682$174                   main
ASxxxx Linker V03.00/V05.40 + sdld,  page 120.
Hexadecimal  [32-Bits]

Area                                    Addr        Size        Decimal Bytes (Attributes)
--------------------------------        ----        ----        ------- ----- ------------
_CODE                               00000200    00002BB8 =       11192. bytes (REL,CON)

      Value  Global                              Global Defined In Module
      -----  --------------------------------   ------------------------
     0000298A  A$lcc1887682$175                   main
     0000298B  A$lcc1887682$176                   main
     0000298C  A$lcc1887682$177                   main
     0000298D  A$lcc1887682$178                   main
     0000298E  A$lcc1887682$182                   main
     0000298E  C$main.c$67$2_2$184                main
     00002991  A$lcc1887682$183                   main
     00002994  A$lcc1887682$187                   main
     00002994  C$main.c$68$2_2$184                main
     00002997  A$lcc1887682$188                   main
     0000299A  A$lcc1887682$192                   main
     0000299A  C$main.c$70$3_2$185                main
     0000299C  A$lcc1887682$193                   main
     0000299D  A$lcc1887682$197                   main
     0000299D  C$main.c$71$3_3$186                main
     000029A0  A$lcc1887682$198                   main
     000029A1  A$lcc1887682$199                   main
     000029A2  A$lcc1887682$200                   main
     000029A3  A$lcc1887682$201                   main
     000029A6  A$lcc1887682$202                   main
     000029A7  A$lcc1887682$203                   main
     000029A8  A$lcc1887682$204                   main
     000029AA  A$lcc1887682$205                   main
     000029AB  A$lcc1887682$206                   main
     000029AD  A$lcc1887682$210                   main
     000029AD  C$main.c$72$3_3$186                main
     000029AE  A$lcc1887682$211                   main
     000029B0  A$lcc1887682$212                   main
     000029B1  A$lcc1887682$213                   main
     000029B4  A$lcc1887682$218                   main
     000029B4  C$main.c$74$2_3$185                main
     000029B7  A$lcc1887682$219                   main
     000029B8  A$lcc1887682$220                   main
     000029B9  A$lcc1887682$221                   main
     000029BA  A$lcc1887682$222                   main
     000029BB  A$lcc1887682$223                   main
     000029BC  A$lcc1887682$224                   main
     000029BD  A$lcc1887682$225                   main
     000029BE  A$lcc1887682$226                   main
     000029BF  A$lcc1887682$227                   main
     000029C0  A$lcc1887682$228                   main
     000029C1  A$lcc1887682$229                   main
     000029C2  A$lcc1887682$230                   main
     000029C3  A$lcc1887682$231                   main
     000029C4  A$lcc1887682$232                   main
     000029C5  A$lcc1887682$233                   main
     000029C6  A$lcc1887682$234                   main
     000029C9  A$lcc1887682$235                   main
     000029CA  A$lcc1887682$236                   main
     000029CB  A$lcc1887682$237                   main
     000029CC  A$lcc1887682$239                   main
ASxxxx Linker V03.00/V05.40 + sdld,  page 121.
Hexadecimal  [32-Bits]

Area                                    Addr        Size        Decimal Bytes (Attributes)
--------------------------------        ----        ----        ------- ----- ------------
_CODE                               00000200    00002BB8 =       11192. bytes (REL,CON)

      Value  Global                              Global Defined In Module
      -----  --------------------------------   ------------------------
     000029CD  A$lcc1887682$243                   main
     000029CD  C$main.c$76$3_3$187                main
     000029CF  A$lcc1887682$244                   main
     000029D0  A$lcc1887682$245                   main
     000029D2  A$lcc1887682$249                   main
     000029D2  C$main.c$77$3_3$187                main
     000029D3  A$lcc1887682$250                   main
     000029D5  A$lcc1887682$251                   main
     000029D8  A$lcc1887682$252                   main
     000029D9  A$lcc1887682$257                   main
     000029D9  C$main.c$79$2_3$185                main
     000029DC  A$lcc1887682$261                   main
     000029DC  C$main.c$80$2_3$185                main
     000029DF  A$lcc1887682$269                   main
     000029DF  C$main.c$82$1_2$181                main
     000029DF  XG$main$0$0                        main
     000029E1  __divsuchar                        divmod
     000029E7  __modsuchar                        divmod
     000029F0  __divuschar                        divmod
     000029F9  __moduschar                        divmod
     00002A05  __divschar                         divmod
     00002A0A  __modschar                         divmod
     00002A11  __divsint                          divmod
     00002A1A  __modsint                          divmod
     00002A26  __divuchar                         divmod
     00002A2B  __moduchar                         divmod
     00002A32  __divuint                          divmod
     00002A3B  __moduint                          divmod
     00002A47  .div8                              divmod
     00002A47  .mod8                              divmod
     00002A4F  .div16                             divmod
     00002A4F  .mod16                             divmod
     00002A85  .divu8                             divmod
     00002A85  .modu8                             divmod
     00002A88  .divu16                            divmod
     00002A88  .modu16                            divmod
     00002AC8  _free                              free
     00002BD8  ___sdcc_heap_init                  malloc
     00002BFA  _malloc                            malloc
     00002D00  _set_vram_byte                     
     00002D09  _set_win_tile_xy                   
     00002D12  _set_bkg_tile_xy                   
     00002D41  __mulsuchar                        mul
     00002D44  __muluschar                        mul
     00002D4D  __mulschar                         mul
     00002D55  __mulint                           mul
     00002D74  __muluchar                         mul
     00002D86  ___memcpy                          
     00002D86  _memcpy                            
ASxxxx Linker V03.00/V05.40 + sdld,  page 122.
Hexadecimal  [32-Bits]

Area                                    Addr        Size        Decimal Bytes (Attributes)
--------------------------------        ----        ----        ------- ----- ------------
_HEADER0                            00000000    00000001 =           1. bytes (ABS,CON)

      Value  Global                              Global Defined In Module
      -----  --------------------------------   ------------------------
     00000020  .call_hl                           Runtime

ASxxxx Linker V03.00/V05.40 + sdld,  page 123.
Hexadecimal  [32-Bits]

Area                                    Addr        Size        Decimal Bytes (Attributes)
--------------------------------        ----        ----        ------- ----- ------------
_HEADER1                            00000000    00000005 =           5. bytes (ABS,CON)

      Value  Global                              Global Defined In Module
      -----  --------------------------------   ------------------------
     00000028  .MemsetSmall                       Runtime

ASxxxx Linker V03.00/V05.40 + sdld,  page 124.
Hexadecimal  [32-Bits]

Area                                    Addr        Size        Decimal Bytes (Attributes)
--------------------------------        ----        ----        ------- ----- ------------
_HEADER2                            00000000    00000007 =           7. bytes (ABS,CON)

      Value  Global                              Global Defined In Module
      -----  --------------------------------   ------------------------
     00000030  .MemcpySmall                       Runtime

ASxxxx Linker V03.00/V05.40 + sdld,  page 125.
Hexadecimal  [32-Bits]

Area                                    Addr        Size        Decimal Bytes (Attributes)
--------------------------------        ----        ----        ------- ----- ------------
_HEADER3                            00000000    00000008 =           8. bytes (ABS,CON)

      Value  Global                              Global Defined In Module
      -----  --------------------------------   ------------------------
ASxxxx Linker V03.00/V05.40 + sdld,  page 126.
Hexadecimal  [32-Bits]

Area                                    Addr        Size        Decimal Bytes (Attributes)
--------------------------------        ----        ----        ------- ----- ------------
_HEADER4                            00000000    00000060 =          96. bytes (ABS,CON)

      Value  Global                              Global Defined In Module
      -----  --------------------------------   ------------------------
     00000080  .int                               Runtime
     0000008F  _wait_int_handler                  Runtime
     0000009C  __standard_VBL_handler             Runtime
     000000AB  _refresh_OAM                       Runtime
     000000CC  _set_interrupts                    Runtime

ASxxxx Linker V03.00/V05.40 + sdld,  page 127.
Hexadecimal  [32-Bits]

Area                                    Addr        Size        Decimal Bytes (Attributes)
--------------------------------        ----        ----        ------- ----- ------------
_HEADER5                            00000000    00000001 =           1. bytes (ABS,CON)

      Value  Global                              Global Defined In Module
      -----  --------------------------------   ------------------------
ASxxxx Linker V03.00/V05.40 + sdld,  page 128.
Hexadecimal  [32-Bits]

Area                                    Addr        Size        Decimal Bytes (Attributes)
--------------------------------        ----        ----        ------- ----- ------------
_HEADER6                            00000000    00000002 =           2. bytes (ABS,CON)

      Value  Global                              Global Defined In Module
      -----  --------------------------------   ------------------------
ASxxxx Linker V03.00/V05.40 + sdld,  page 129.
Hexadecimal  [32-Bits]

Area                                    Addr        Size        Decimal Bytes (Attributes)
--------------------------------        ----        ----        ------- ----- ------------
_HEADER7                            00000000    00000030 =          48. bytes (ABS,CON)

      Value  Global                              Global Defined In Module
      -----  --------------------------------   ------------------------
ASxxxx Linker V03.00/V05.40 + sdld,  page 130.
Hexadecimal  [32-Bits]

Area                                    Addr        Size        Decimal Bytes (Attributes)
--------------------------------        ----        ----        ------- ----- ------------
_HEADER8                            00000000    00000006 =           6. bytes (ABS,CON)

      Value  Global                              Global Defined In Module
      -----  --------------------------------   ------------------------
ASxxxx Linker V03.00/V05.40 + sdld,  page 131.
Hexadecimal  [32-Bits]

Area                                    Addr        Size        Decimal Bytes (Attributes)
--------------------------------        ----        ----        ------- ----- ------------
_HEADER9                            00000000    00000003 =           3. bytes (ABS,CON)

      Value  Global                              Global Defined In Module
      -----  --------------------------------   ------------------------
ASxxxx Linker V03.00/V05.40 + sdld,  page 132.
Hexadecimal  [32-Bits]

Area                                    Addr        Size        Decimal Bytes (Attributes)
--------------------------------        ----        ----        ------- ----- ------------
_HEADERa                            00000000    00000001 =           1. bytes (ABS,CON)

      Value  Global                              Global Defined In Module
      -----  --------------------------------   ------------------------
ASxxxx Linker V03.00/V05.40 + sdld,  page 133.
Hexadecimal  [32-Bits]

Area                                    Addr        Size        Decimal Bytes (Attributes)
--------------------------------        ----        ----        ------- ----- ------------
_HEADERb                            00000000    00000001 =           1. bytes (ABS,CON)

      Value  Global                              Global Defined In Module
      -----  --------------------------------   ------------------------
ASxxxx Linker V03.00/V05.40 + sdld,  page 134.
Hexadecimal  [32-Bits]

Area                                    Addr        Size        Decimal Bytes (Attributes)
--------------------------------        ----        ----        ------- ----- ------------
_HEADERc                            00000000    00000001 =           1. bytes (ABS,CON)

      Value  Global                              Global Defined In Module
      -----  --------------------------------   ------------------------
ASxxxx Linker V03.00/V05.40 + sdld,  page 135.
Hexadecimal  [32-Bits]

Area                                    Addr        Size        Decimal Bytes (Attributes)
--------------------------------        ----        ----        ------- ----- ------------
_HEADERd                            00000000    00000002 =           2. bytes (ABS,CON)

      Value  Global                              Global Defined In Module
      -----  --------------------------------   ------------------------
ASxxxx Linker V03.00/V05.40 + sdld,  page 136.
Hexadecimal  [32-Bits]

Area                                    Addr        Size        Decimal Bytes (Attributes)
--------------------------------        ----        ----        ------- ----- ------------
_HEADERe                            00000000    00000001 =           1. bytes (ABS,CON)

      Value  Global                              Global Defined In Module
      -----  --------------------------------   ------------------------
ASxxxx Linker V03.00/V05.40 + sdld,  page 137.
Hexadecimal  [32-Bits]

Area                                    Addr        Size        Decimal Bytes (Attributes)
--------------------------------        ----        ----        ------- ----- ------------
_HEADERf                            00000000    00000001 =           1. bytes (ABS,CON)

      Value  Global                              Global Defined In Module
      -----  --------------------------------   ------------------------
ASxxxx Linker V03.00/V05.40 + sdld,  page 138.
Hexadecimal  [32-Bits]

Area                                    Addr        Size        Decimal Bytes (Attributes)
--------------------------------        ----        ----        ------- ----- ------------
_HEADER10                           00000000    00000002 =           2. bytes (ABS,CON)

      Value  Global                              Global Defined In Module
      -----  --------------------------------   ------------------------
ASxxxx Linker V03.00/V05.40 + sdld,  page 139.
Hexadecimal  [32-Bits]

Area                                    Addr        Size        Decimal Bytes (Attributes)
--------------------------------        ----        ----        ------- ----- ------------
_HEADER11                           00000000    000000AB =         171. bytes (ABS,CON)

      Value  Global                              Global Defined In Module
      -----  --------------------------------   ------------------------
     00000150  .reset                             Runtime
     00000150  _reset                             Runtime
     00000157  .code_start                        Runtime
     000001B9  _exit                              Runtime
     000001BD  .wait_vbl_done                     Runtime
     000001BD  _vsync                             Runtime
     000001BD  _wait_vbl_done                     Runtime
     000001CD  .remove_VBL                        Runtime
     000001CD  _remove_VBL                        Runtime
     000001D0  .remove_int                        Runtime
     000001ED  .add_VBL                           Runtime
     000001ED  _add_VBL                           Runtime
     000001F0  .add_int                           Runtime

ASxxxx Linker V03.00/V05.40 + sdld,  page 140.
Hexadecimal  [32-Bits]

Area                                    Addr        Size        Decimal Bytes (Attributes)
--------------------------------        ----        ----        ------- ----- ------------
_HOME                               00002DB8    0000012C =         300. bytes (REL,CON)

      Value  Global                              Global Defined In Module
      -----  --------------------------------   ------------------------
     00002DB8  .memset_simple                     Runtime
     00002DC1  .memcpy_simple                     Runtime
     00002DDE  .display_off                       Runtime
     00002DDE  _display_off                       Runtime
     00002DF6  _set_tile_data                     
     00002DFB  _set_bkg_data                      
     00002DFB  _set_win_data                      
     00002E03  _set_sprite_data                   
     00002E33  .padup                             
     00002E33  _waitpadup                         
     00002E43  .jpad                              
     00002E43  _joypad                            
     00002E6B  _waitpad                           
     00002E6C  .wait_pad                          
     00002E73  ___sdcc_call_hl                    call_hl
     00002E74  _set_bkg_tiles                     
     00002E88  .set_xy_wtt                        SetTileMap
     00002E91  .set_xy_btt                        SetTileMap
     00002EA0  .set_xy_tt                         SetTileMap

ASxxxx Linker V03.00/V05.40 + sdld,  page 141.
Hexadecimal  [32-Bits]

Area                                    Addr        Size        Decimal Bytes (Attributes)
--------------------------------        ----        ----        ------- ----- ------------
_INITIALIZER                        00002EE4    00000239 =         569. bytes (REL,CON)

      Value  Global                              Global Defined In Module
      -----  --------------------------------   ------------------------
     00002EE4  Fspr_InventoryArrow_idle$__xinit   spr_InventoryArrow_idle
     00002EF4  Fbroom$__xinit_spr_broom_00$0_0$   broom
     00002F04  Fbroom$__xinit_spr_broom_01$0_0$   broom
     00002F14  Fspr_garbage$__xinit_spr_garbage   spr_garbage
     00002F24  Fleaf$__xinit_spr_leaf_00$0_0$0    leaf
     00002F34  Fexample_npc$__xinit_spr_example   example_npc
     00002F44  Fexample_npc$__xinit_spr_example   example_npc
     00002F54  Fexample_npc$__xinit_spr_example   example_npc
     00002F64  Fexample_npc$__xinit_spr_example   example_npc
     00002F74  Fspr_Player_down0$__xinit_spr_Pl   spr_Player_down0
     00002F84  Fspr_Player_down0$__xinit_spr_Pl   spr_Player_down0
     00002F94  Fspr_Player_down0$__xinit_spr_Pl   spr_Player_down0
     00002FA4  Fspr_Player_down0$__xinit_spr_Pl   spr_Player_down0
     00002FB4  Fspr_Player_down1$__xinit_spr_Pl   spr_Player_down1
     00002FC4  Fspr_Player_down1$__xinit_spr_Pl   spr_Player_down1
     00002FD4  Fspr_Player_down1$__xinit_spr_Pl   spr_Player_down1
     00002FE4  Fspr_Player_down1$__xinit_spr_Pl   spr_Player_down1
     00002FF4  Fspr_Player_down2$__xinit_spr_Pl   spr_Player_down2
     00003004  Fspr_Player_down2$__xinit_spr_Pl   spr_Player_down2
     00003014  Fspr_Player_down2$__xinit_spr_Pl   spr_Player_down2
     00003024  Fspr_Player_down2$__xinit_spr_Pl   spr_Player_down2
     00003034  Fspr_Player_up0$__xinit_spr_Play   spr_Player_up0
     00003044  Fspr_Player_up0$__xinit_spr_Play   spr_Player_up0
     00003054  Fspr_Player_up0$__xinit_spr_Play   spr_Player_up0
     00003064  Fspr_Player_up0$__xinit_spr_Play   spr_Player_up0
     00003074  Fspr_Player_up1$__xinit_spr_Play   spr_Player_up1
     00003084  Fspr_Player_up1$__xinit_spr_Play   spr_Player_up1
     00003094  Fspr_Player_up1$__xinit_spr_Play   spr_Player_up1
     000030A4  Fspr_Player_up1$__xinit_spr_Play   spr_Player_up1
     000030B4  Fspr_Player_up2$__xinit_spr_Play   spr_Player_up2
     000030C4  Fspr_Player_up2$__xinit_spr_Play   spr_Player_up2
     000030D4  Fspr_Player_up2$__xinit_spr_Play   spr_Player_up2
     000030E4  Fspr_Player_up2$__xinit_spr_Play   spr_Player_up2
     000030F4  Faction$__xinit_current_directio   action
     000030F5  Fcan_move$__xinit_can_move$0_0$0   can_move
     000030F9  Fentity$__xinit_next_entity_id$0   entity
     000030FA  Fextra_actors$__xinit_extra_acto   extra_actors
     000030FB  Fgender_selection$__xinit_GENDER   gender_selection
     000030FC  Finput$__xinit_keys$0_0$0          input
     000030FD  Finput$__xinit_prev_keys$0_0$0     input
     000030FE  Finventory$__xinit_inventory_act   inventory
     000030FF  Finventory$__xinit_active_item$0   inventory
     00003100  Finventory$__xinit_selected_item   inventory
     00003101  Finventory$__xinit_closing$0_0$0   inventory
     00003102  Fload$__xinit_vram_next_index$0_   load
     00003103  Fload$__xinit_vram_extra_start$0   load
     00003104  Fminigames$__xinit_minigame_list   minigames
     00003105  Fmoney$__xinit_money$0_0$0         money
     00003107  Frandom$__xinit_seed$0_0$0         random
     00003109  Fscene_manager$__xinit_is_transi   scene_manager
ASxxxx Linker V03.00/V05.40 + sdld,  page 142.
Hexadecimal  [32-Bits]

Area                                    Addr        Size        Decimal Bytes (Attributes)
--------------------------------        ----        ----        ------- ----- ------------
_INITIALIZER                        00002EE4    00000239 =         569. bytes (REL,CON)

      Value  Global                              Global Defined In Module
      -----  --------------------------------   ------------------------
     0000310A  Fmain_menu$__xinit_timer$0_0$0     main_menu
     0000310C  Fmain_menu$__xinit_rate$0_0$0      main_menu
     0000310D  Fmain_menu$__xinit_show_text$0_0   main_menu
     0000310E  Fmg_load_screen$__xinit_mgl_curr   mg_load_screen
     0000310F  Fmg_load_screen$__xinit_mgl_targ   mg_load_screen
     00003110  Fmg_load_screen$__xinit_mgl_acti   mg_load_screen
     00003111  Fmg_load_screen$__xinit_mgl_init   mg_load_screen
     00003112  Fmg_timer$__xinit_mgt_current_fr   mg_timer
     00003114  Fmg_timer$__xinit_mgt_target_fra   mg_timer
     00003116  Fmg_timer$__xinit_mgt_running$0_   mg_timer
     00003117  Fmg_timer$__xinit_mgt_alarm$0_0$   mg_timer
     00003118  Fmg_leaves_init$__xinit_SWEEPING   mg_leaves_init
     00003119  Fmg_leaves_init$__xinit_score$0_   mg_leaves_init
     0000311A  Fmg_leaves_init$__xinit_score_ca   mg_leaves_init
     0000311B  Fmg_leaves_init$__xinit_next_spa   mg_leaves_init

ASxxxx Linker V03.00/V05.40 + sdld,  page 143.
Hexadecimal  [32-Bits]

Area                                    Addr        Size        Decimal Bytes (Attributes)
--------------------------------        ----        ----        ------- ----- ------------
_GSINIT                             0000311D    0000000F =          15. bytes (REL,CON)

      Value  Global                              Global Defined In Module
      -----  --------------------------------   ------------------------
     0000311D  gsinit                             Runtime

ASxxxx Linker V03.00/V05.40 + sdld,  page 144.
Hexadecimal  [32-Bits]

Area                                    Addr        Size        Decimal Bytes (Attributes)
--------------------------------        ----        ----        ------- ----- ------------
_GSFINAL                            0000312C    00000001 =           1. bytes (REL,CON)

      Value  Global                              Global Defined In Module
      -----  --------------------------------   ------------------------
ASxxxx Linker V03.00/V05.40 + sdld,  page 145.
Hexadecimal  [32-Bits]

Area                                    Addr        Size        Decimal Bytes (Attributes)
--------------------------------        ----        ----        ------- ----- ------------
_DATA                               0000C0A0    00000319 =         793. bytes (REL,CON)

      Value  Global                              Global Defined In Module
      -----  --------------------------------   ------------------------
     0000C0A0  __cpu                              Runtime
     0000C0A1  __is_GBA                           Runtime
     0000C0A2  .mode                              Runtime
     0000C0A3  .sys_time                          Runtime
     0000C0A3  _sys_time                          Runtime
     0000C0A5  .int_0x40                          Runtime
     0000C0B1  G$animation$0_0$0                  animation
     0000C0B1  _animation                         animation
     0000C208  G$extra_actors$0_0$0               extra_actors
     0000C208  _extra_actors                      extra_actors
     0000C244  G$inventory$0_0$0                  inventory
     0000C244  _inventory                         inventory
     0000C24C  G$names$0_0$0                      name
     0000C24C  _names                             name
     0000C292  G$npc_1$0_0$0                      npcs
     0000C292  _npc_1                             npcs
     0000C293  G$npc_2$0_0$0                      npcs
     0000C293  _npc_2                             npcs
     0000C294  G$option_actor$0_0$0               npcs
     0000C294  _option_actor                      npcs
     0000C295  G$humor_stats$0_0$0                npcs
     0000C295  _humor_stats                       npcs
     0000C2A4  G$CurrentNPCDialogues$0_0$0        npc_lines
     0000C2A4  _CurrentNPCDialogues               npc_lines
     0000C2A8  G$player$0_0$0                     player
     0000C2A8  _player                            player
     0000C2A9  G$mg_player$0_0$0                  player
     0000C2A9  _mg_player                         player
     0000C2AA  G$player_animations$0_0$0          player
     0000C2AA  _player_animations                 player
     0000C2AE  G$player_y_cache$0_0$0             player
     0000C2AE  _player_y_cache                    player
     0000C2AF  G$position$0_0$0                   position
     0000C2AF  _position                          position
     0000C2D9  G$cache$0_0$0                      position
     0000C2D9  _cache                             position
     0000C30A  G$actual_tile$0_0$0                position
     0000C30A  _actual_tile                       position
     0000C30E  G$render$0_0$0                     render
     0000C30E  _render                            render
     0000C323  G$scene_manager$0_0$0              scene_manager
     0000C323  _scene_manager                     scene_manager
     0000C327  G$speed$0_0$0                      speed
     0000C327  _speed                             speed
     0000C335  G$GenderSelect$0_0$0               gender_select
     0000C335  _GenderSelect                      gender_select
     0000C33E  G$InventoryScene$0_0$0             inventory_scene
     0000C33E  _InventoryScene                    inventory_scene
     0000C347  G$MainMenu$0_0$0                   main_menu
     0000C347  _MainMenu                          main_menu
ASxxxx Linker V03.00/V05.40 + sdld,  page 146.
Hexadecimal  [32-Bits]

Area                                    Addr        Size        Decimal Bytes (Attributes)
--------------------------------        ----        ----        ------- ----- ------------
_DATA                               0000C0A0    00000319 =         793. bytes (REL,CON)

      Value  Global                              Global Defined In Module
      -----  --------------------------------   ------------------------
     0000C350  G$CurrentMapData$0_0$0             map_data
     0000C350  _CurrentMapData                    map_data
     0000C362  G$Map_00$0_0$0                     map_00
     0000C362  _Map_00                            map_00
     0000C36B  G$Mg_Leaves$0_0$0                  mg_leaves
     0000C36B  _Mg_Leaves                         mg_leaves
     0000C374  G$actor_ids$0_0$0                  mg_leaves_init
     0000C374  _actor_ids                         mg_leaves_init
     0000C379  G$actor_x$0_0$0                    mg_leaves_init
     0000C379  _actor_x                           mg_leaves_init
     0000C37E  G$actor_y$0_0$0                    mg_leaves_init
     0000C37E  _actor_y                           mg_leaves_init
     0000C383  G$fixed_y$0_0$0                    mg_leaves_init
     0000C383  _fixed_y                           mg_leaves_init
     0000C38D  G$actor_active$0_0$0               mg_leaves_init
     0000C38D  _actor_active                      mg_leaves_init
     0000C392  G$actor_timer$0_0$0                mg_leaves_init
     0000C392  _actor_timer                       mg_leaves_init
     0000C397  G$actor_spawner$0_0$0              mg_leaves_init
     0000C397  _actor_spawner                     mg_leaves_init
     0000C3A1  G$actor_spawn_x$0_0$0              mg_leaves_init
     0000C3A1  _actor_spawn_x                     mg_leaves_init
     0000C3A6  G$actor_state$0_0$0                mg_leaves_init
     0000C3A6  _actor_state                       mg_leaves_init
     0000C3AB  G$mg_leaves_DATA$0_0$0             mg_leaves_init
     0000C3AB  _mg_leaves_DATA                    mg_leaves_init
     0000C3AE  G$available_x$0_0$0                mg_leaves_init
     0000C3AE  _available_x                       mg_leaves_init
     0000C3B3  Lmain.main$game$1_1$182            main
     0000C3B7  ___sdcc_heap_free                  malloc

ASxxxx Linker V03.00/V05.40 + sdld,  page 147.
Hexadecimal  [32-Bits]

Area                                    Addr        Size        Decimal Bytes (Attributes)
--------------------------------        ----        ----        ------- ----- ------------
_INITIALIZED                        0000C3B9    00000239 =         569. bytes (REL,CON)

      Value  Global                              Global Defined In Module
      -----  --------------------------------   ------------------------
     0000C3B9  G$spr_InventoryArrow_idle$0_0$0    spr_InventoryArrow_idle
     0000C3B9  _spr_InventoryArrow_idle           spr_InventoryArrow_idle
     0000C3C9  G$spr_broom_00$0_0$0               broom
     0000C3C9  _spr_broom_00                      broom
     0000C3D9  G$spr_broom_01$0_0$0               broom
     0000C3D9  _spr_broom_01                      broom
     0000C3E9  G$spr_garbage_00$0_0$0             spr_garbage
     0000C3E9  _spr_garbage_00                    spr_garbage
     0000C3F9  G$spr_leaf_00$0_0$0                leaf
     0000C3F9  _spr_leaf_00                       leaf
     0000C409  G$spr_example_NPC_00$0_0$0         example_npc
     0000C409  _spr_example_NPC_00                example_npc
     0000C419  G$spr_example_NPC_01$0_0$0         example_npc
     0000C419  _spr_example_NPC_01                example_npc
     0000C429  G$spr_example_NPC_10$0_0$0         example_npc
     0000C429  _spr_example_NPC_10                example_npc
     0000C439  G$spr_example_NPC_11$0_0$0         example_npc
     0000C439  _spr_example_NPC_11                example_npc
     0000C449  G$spr_Player_down0_00$0_0$0        spr_Player_down0
     0000C449  _spr_Player_down0_00               spr_Player_down0
     0000C459  G$spr_Player_down0_10$0_0$0        spr_Player_down0
     0000C459  _spr_Player_down0_10               spr_Player_down0
     0000C469  G$spr_Player_down0_01$0_0$0        spr_Player_down0
     0000C469  _spr_Player_down0_01               spr_Player_down0
     0000C479  G$spr_Player_down0_11$0_0$0        spr_Player_down0
     0000C479  _spr_Player_down0_11               spr_Player_down0
     0000C489  G$spr_Player_down1_00$0_0$0        spr_Player_down1
     0000C489  _spr_Player_down1_00               spr_Player_down1
     0000C499  G$spr_Player_down1_10$0_0$0        spr_Player_down1
     0000C499  _spr_Player_down1_10               spr_Player_down1
     0000C4A9  G$spr_Player_down1_01$0_0$0        spr_Player_down1
     0000C4A9  _spr_Player_down1_01               spr_Player_down1
     0000C4B9  G$spr_Player_down1_11$0_0$0        spr_Player_down1
     0000C4B9  _spr_Player_down1_11               spr_Player_down1
     0000C4C9  G$spr_Player_down2_00$0_0$0        spr_Player_down2
     0000C4C9  _spr_Player_down2_00               spr_Player_down2
     0000C4D9  G$spr_Player_down2_10$0_0$0        spr_Player_down2
     0000C4D9  _spr_Player_down2_10               spr_Player_down2
     0000C4E9  G$spr_Player_down2_01$0_0$0        spr_Player_down2
     0000C4E9  _spr_Player_down2_01               spr_Player_down2
     0000C4F9  G$spr_Player_down2_11$0_0$0        spr_Player_down2
     0000C4F9  _spr_Player_down2_11               spr_Player_down2
     0000C509  G$spr_Player_up0_00$0_0$0          spr_Player_up0
     0000C509  _spr_Player_up0_00                 spr_Player_up0
     0000C519  G$spr_Player_up0_10$0_0$0          spr_Player_up0
     0000C519  _spr_Player_up0_10                 spr_Player_up0
     0000C529  G$spr_Player_up0_01$0_0$0          spr_Player_up0
     0000C529  _spr_Player_up0_01                 spr_Player_up0
     0000C539  G$spr_Player_up0_11$0_0$0          spr_Player_up0
     0000C539  _spr_Player_up0_11                 spr_Player_up0
ASxxxx Linker V03.00/V05.40 + sdld,  page 148.
Hexadecimal  [32-Bits]

Area                                    Addr        Size        Decimal Bytes (Attributes)
--------------------------------        ----        ----        ------- ----- ------------
_INITIALIZED                        0000C3B9    00000239 =         569. bytes (REL,CON)

      Value  Global                              Global Defined In Module
      -----  --------------------------------   ------------------------
     0000C549  G$spr_Player_up1_00$0_0$0          spr_Player_up1
     0000C549  _spr_Player_up1_00                 spr_Player_up1
     0000C559  G$spr_Player_up1_10$0_0$0          spr_Player_up1
     0000C559  _spr_Player_up1_10                 spr_Player_up1
     0000C569  G$spr_Player_up1_01$0_0$0          spr_Player_up1
     0000C569  _spr_Player_up1_01                 spr_Player_up1
     0000C579  G$spr_Player_up1_11$0_0$0          spr_Player_up1
     0000C579  _spr_Player_up1_11                 spr_Player_up1
     0000C589  G$spr_Player_up2_00$0_0$0          spr_Player_up2
     0000C589  _spr_Player_up2_00                 spr_Player_up2
     0000C599  G$spr_Player_up2_10$0_0$0          spr_Player_up2
     0000C599  _spr_Player_up2_10                 spr_Player_up2
     0000C5A9  G$spr_Player_up2_01$0_0$0          spr_Player_up2
     0000C5A9  _spr_Player_up2_01                 spr_Player_up2
     0000C5B9  G$spr_Player_up2_11$0_0$0          spr_Player_up2
     0000C5B9  _spr_Player_up2_11                 spr_Player_up2
     0000C5C9  G$current_direction$0_0$0          action
     0000C5C9  _current_direction                 action
     0000C5CA  G$can_move$0_0$0                   can_move
     0000C5CA  _can_move                          can_move
     0000C5CE  G$next_entity_id$0_0$0             entity
     0000C5CE  _next_entity_id                    entity
     0000C5CF  G$extra_actor_index$0_0$0          extra_actors
     0000C5CF  _extra_actor_index                 extra_actors
     0000C5D0  G$GENDER$0_0$0                     gender_selection
     0000C5D0  _GENDER                            gender_selection
     0000C5D1  G$keys$0_0$0                       input
     0000C5D1  _keys                              input
     0000C5D2  G$prev_keys$0_0$0                  input
     0000C5D2  _prev_keys                         input
     0000C5D3  G$inventory_active$0_0$0           inventory
     0000C5D3  _inventory_active                  inventory
     0000C5D4  G$active_item$0_0$0                inventory
     0000C5D4  _active_item                       inventory
     0000C5D5  G$selected_item$0_0$0              inventory
     0000C5D5  _selected_item                     inventory
     0000C5D6  G$closing$0_0$0                    inventory
     0000C5D6  _closing                           inventory
     0000C5D7  G$vram_next_index$0_0$0            load
     0000C5D7  _vram_next_index                   load
     0000C5D8  G$vram_extra_start$0_0$0           load
     0000C5D8  _vram_extra_start                  load
     0000C5D9  G$minigame_list$0_0$0              minigames
     0000C5D9  _minigame_list                     minigames
     0000C5DA  G$money$0_0$0                      money
     0000C5DA  _money                             money
     0000C5DC  G$seed$0_0$0                       random
     0000C5DC  _seed                              random
     0000C5DE  G$is_transitioning$0_0$0           scene_manager
     0000C5DE  _is_transitioning                  scene_manager
     0000C5DF  G$timer$0_0$0                      main_menu
ASxxxx Linker V03.00/V05.40 + sdld,  page 149.
Hexadecimal  [32-Bits]

Area                                    Addr        Size        Decimal Bytes (Attributes)
--------------------------------        ----        ----        ------- ----- ------------
_INITIALIZED                        0000C3B9    00000239 =         569. bytes (REL,CON)

      Value  Global                              Global Defined In Module
      -----  --------------------------------   ------------------------
     0000C5DF  _timer                             main_menu
     0000C5E1  G$rate$0_0$0                       main_menu
     0000C5E1  _rate                              main_menu
     0000C5E2  G$show_text$0_0$0                  main_menu
     0000C5E2  _show_text                         main_menu
     0000C5E3  G$mgl_current_frame$0_0$0          mg_load_screen
     0000C5E3  _mgl_current_frame                 mg_load_screen
     0000C5E4  G$mgl_target_frame$0_0$0           mg_load_screen
     0000C5E4  _mgl_target_frame                  mg_load_screen
     0000C5E5  G$mgl_active$0_0$0                 mg_load_screen
     0000C5E5  _mgl_active                        mg_load_screen
     0000C5E6  G$mgl_initialized$0_0$0            mg_load_screen
     0000C5E6  _mgl_initialized                   mg_load_screen
     0000C5E7  G$mgt_current_frame$0_0$0          mg_timer
     0000C5E7  _mgt_current_frame                 mg_timer
     0000C5E9  G$mgt_target_frame$0_0$0           mg_timer
     0000C5E9  _mgt_target_frame                  mg_timer
     0000C5EB  G$mgt_running$0_0$0                mg_timer
     0000C5EB  _mgt_running                       mg_timer
     0000C5EC  G$mgt_alarm$0_0$0                  mg_timer
     0000C5EC  _mgt_alarm                         mg_timer
     0000C5ED  G$SWEEPING_FLAG$0_0$0              mg_leaves_init
     0000C5ED  _SWEEPING_FLAG                     mg_leaves_init
     0000C5EE  G$score$0_0$0                      mg_leaves_init
     0000C5EE  _score                             mg_leaves_init
     0000C5EF  G$score_cache$0_0$0                mg_leaves_init
     0000C5EF  _score_cache                       mg_leaves_init
     0000C5F0  G$next_spawn_idx$0_0$0             mg_leaves_init
     0000C5F0  _next_spawn_idx                    mg_leaves_init
     0000C5F1  __map_tile_offset                  SetTileMap

ASxxxx Linker V03.00/V05.40 + sdld,  page 150.
Hexadecimal  [32-Bits]

Area                                    Addr        Size        Decimal Bytes (Attributes)
--------------------------------        ----        ----        ------- ----- ------------
_HEAP                               0000C5F2    000007FF =        2047. bytes (REL,CON)

      Value  Global                              Global Defined In Module
      -----  --------------------------------   ------------------------
     0000C5F2  ___sdcc_heap                       

ASxxxx Linker V03.00/V05.40 + sdld,  page 151.
Hexadecimal  [32-Bits]

Area                                    Addr        Size        Decimal Bytes (Attributes)
--------------------------------        ----        ----        ------- ----- ------------
_HEAP_END                           0000CDF1    00000001 =           1. bytes (REL,CON)

      Value  Global                              Global Defined In Module
      -----  --------------------------------   ------------------------
     0000CDF1  ___sdcc_heap_end                   

ASxxxx Linker V03.00/V05.40 + sdld,  page 152.
Hexadecimal  [32-Bits]

Area                                    Addr        Size        Decimal Bytes (Attributes)
--------------------------------        ----        ----        ------- ----- ------------
_HRAM                               0000FF80    00000013 =          19. bytes (REL,CON)

      Value  Global                              Global Defined In Module
      -----  --------------------------------   ------------------------
     0000FF80  .refresh_OAM                       Runtime
     0000FF90  __current_bank                     Runtime
     0000FF91  __vbl_done                         Runtime
     0000FF92  __shadow_OAM_base                  Runtime

ASxxxx Linker V03.00/V05.40 + sdld,  page 153.
Hexadecimal  [32-Bits]

Area                                    Addr        Size        Decimal Bytes (Attributes)
--------------------------------        ----        ----        ------- ----- ------------
_CODE_1                             00014000    00001220 =        4640. bytes (REL,CON)

      Value  Global                              Global Defined In Module
      -----  --------------------------------   ------------------------
     00014000  G$inventory_bkg_tileset$0_0$0      inventory_bkg
     00014000  _inventory_bkg_tileset             inventory_bkg
     00014340  G$inventory_bkg_tilemap$0_0$0      inventory_bkg
     00014340  _inventory_bkg_tilemap             inventory_bkg
     000144A8  G$bkg_main_menu_tileset$0_0$0      bkg_MainMenu
     000144A8  _bkg_main_menu_tileset             bkg_MainMenu
     00014768  G$bkg_main_menu_tilemap$0_0$0      bkg_MainMenu
     00014768  _bkg_main_menu_tilemap             bkg_MainMenu
     000148D0  G$example_tileset$0_0$0            map_example
     000148D0  _example_tileset                   map_example
     00014D80  G$example_tilemap$0_0$0            map_example
     00014D80  _example_tilemap                   map_example
     00014EE8  G$template_tileset$0_0$0           template_tileset
     00014EE8  _template_tileset                  template_tileset
     000150B8  G$template_tilemap$0_0$0           template_tileset
     000150B8  _template_tilemap                  template_tileset

ASxxxx Linker V03.00/V05.40 + sdld,  page 154.
Hexadecimal  [32-Bits]

Area                                    Addr        Size        Decimal Bytes (Attributes)
--------------------------------        ----        ----        ------- ----- ------------
_CODE_2                             00024000    00000E08 =        3592. bytes (REL,CON)

      Value  Global                              Global Defined In Module
      -----  --------------------------------   ------------------------
     00024000  G$bkg_leaves_example_tileset$0_0   bkg_leaves_example
     00024000  _bkg_leaves_example_tileset        bkg_leaves_example
     00024420  G$bkg_leaves_example_tilemap$0_0   bkg_leaves_example
     00024420  _bkg_leaves_example_tilemap        bkg_leaves_example
     00024588  A$lcc1887678$122                   mg_leaves_init
     00024588  C$mg_leaves_init.c$46$0_0$175      mg_leaves_init
     00024588  G$Mg_Leaves_Init$0$0               mg_leaves_init
     00024588  _Mg_Leaves_Init                    mg_leaves_init
     0002458A  A$lcc1887678$126                   mg_leaves_init
     0002458A  C$mg_leaves_init.c$48$1_0$175      mg_leaves_init
     0002458D  A$lcc1887678$127                   mg_leaves_init
     0002458F  A$lcc1887678$128                   mg_leaves_init
     00024590  A$lcc1887678$132                   mg_leaves_init
     00024590  C$mg_leaves_init.c$49$1_0$175      mg_leaves_init
     00024591  A$lcc1887678$133                   mg_leaves_init
     00024592  A$lcc1887678$134                   mg_leaves_init
     00024593  A$lcc1887678$135                   mg_leaves_init
     00024595  A$lcc1887678$139                   mg_leaves_init
     00024595  C$mg_leaves_init.c$50$1_0$175      mg_leaves_init
     00024596  A$lcc1887678$140                   mg_leaves_init
     00024597  A$lcc1887678$141                   mg_leaves_init
     00024598  A$lcc1887678$142                   mg_leaves_init
     00024599  A$lcc1887678$143                   mg_leaves_init
     0002459B  A$lcc1887678$147                   mg_leaves_init
     0002459B  C$mg_leaves_init.c$52$1_0$175      mg_leaves_init
     0002459E  A$lcc1887678$148                   mg_leaves_init
     0002459F  A$lcc1887678$149                   mg_leaves_init
     000245A0  A$lcc1887678$150                   mg_leaves_init
     000245A1  A$lcc1887678$151                   mg_leaves_init
     000245A2  A$lcc1887678$161                   mg_leaves_init
     000245A2  C$mg_leaves_init.c$54$2_0$176      mg_leaves_init
     000245A2  C$mg_leaves_init.c$55$2_0$176      mg_leaves_init
     000245A2  C$mg_leaves_init.c$58$1_1$176      mg_leaves_init
     000245A4  A$lcc1887678$162                   mg_leaves_init
     000245A5  A$lcc1887678$163                   mg_leaves_init
     000245A6  A$lcc1887678$164                   mg_leaves_init
     000245A8  A$lcc1887678$165                   mg_leaves_init
     000245A9  A$lcc1887678$166                   mg_leaves_init
     000245AB  A$lcc1887678$170                   mg_leaves_init
     000245AB  C$mg_leaves_init.c$59$1_1$176      mg_leaves_init
     000245AD  A$lcc1887678$174                   mg_leaves_init
     000245AD  C$mg_leaves_init.c$61$1_1$176      mg_leaves_init
     000245AE  A$lcc1887678$175                   mg_leaves_init
     000245AF  A$lcc1887678$176                   mg_leaves_init
     000245B1  A$lcc1887678$177                   mg_leaves_init
     000245B2  A$lcc1887678$181                   mg_leaves_init
     000245B2  C$mg_leaves_init.c$62$1_1$176      mg_leaves_init
     000245B4  A$lcc1887678$182                   mg_leaves_init
     000245B5  A$lcc1887678$183                   mg_leaves_init
     000245B7  A$lcc1887678$187                   mg_leaves_init
ASxxxx Linker V03.00/V05.40 + sdld,  page 155.
Hexadecimal  [32-Bits]

Area                                    Addr        Size        Decimal Bytes (Attributes)
--------------------------------        ----        ----        ------- ----- ------------
_CODE_2                             00024000    00000E08 =        3592. bytes (REL,CON)

      Value  Global                              Global Defined In Module
      -----  --------------------------------   ------------------------
     000245B7  C$mg_leaves_init.c$64$1_1$176      mg_leaves_init
     000245B9  A$lcc1887678$188                   mg_leaves_init
     000245BA  A$lcc1887678$189                   mg_leaves_init
     000245BB  A$lcc1887678$190                   mg_leaves_init
     000245BE  A$lcc1887678$194                   mg_leaves_init
     000245BE  C$mg_leaves_init.c$66$2_1$177      mg_leaves_init
     000245C1  A$lcc1887678$195                   mg_leaves_init
     000245C2  A$lcc1887678$196                   mg_leaves_init
     000245C4  A$lcc1887678$200                   mg_leaves_init
     000245C4  C$mg_leaves_init.c$67$2_1$177      mg_leaves_init
     000245C7  A$lcc1887678$205                   mg_leaves_init
     000245C7  C$mg_leaves_init.c$69$2_1$178      mg_leaves_init
     000245C9  A$lcc1887678$206                   mg_leaves_init
     000245CB  A$lcc1887678$207                   mg_leaves_init
     000245CC  A$lcc1887678$208                   mg_leaves_init
     000245CE  A$lcc1887678$209                   mg_leaves_init
     000245CF  A$lcc1887678$210                   mg_leaves_init
     000245D1  A$lcc1887678$211                   mg_leaves_init
     000245D2  A$lcc1887678$212                   mg_leaves_init
     000245D3  A$lcc1887678$213                   mg_leaves_init
     000245D5  A$lcc1887678$214                   mg_leaves_init
     000245D6  A$lcc1887678$215                   mg_leaves_init
     000245D8  A$lcc1887678$216                   mg_leaves_init
     000245D9  A$lcc1887678$217                   mg_leaves_init
     000245DB  A$lcc1887678$218                   mg_leaves_init
     000245DC  A$lcc1887678$219                   mg_leaves_init
     000245DE  A$lcc1887678$220                   mg_leaves_init
     000245DF  A$lcc1887678$221                   mg_leaves_init
     000245E1  A$lcc1887678$222                   mg_leaves_init
     000245E2  A$lcc1887678$223                   mg_leaves_init
     000245E3  A$lcc1887678$224                   mg_leaves_init
     000245E4  A$lcc1887678$225                   mg_leaves_init
     000245E5  A$lcc1887678$226                   mg_leaves_init
     000245E7  A$lcc1887678$230                   mg_leaves_init
     000245E7  C$mg_leaves_init.c$70$1_4$175      mg_leaves_init
     000245EA  A$lcc1887678$231                   mg_leaves_init
     000245EB  A$lcc1887678$232                   mg_leaves_init
     000245EC  A$lcc1887678$233                   mg_leaves_init
     000245ED  A$lcc1887678$234                   mg_leaves_init
     000245F0  A$lcc1887678$238                   mg_leaves_init
     000245F0  C$mg_leaves_init.c$72$1_2$178      mg_leaves_init
     000245F3  A$lcc1887678$242                   mg_leaves_init
     000245F3  C$mg_leaves_init.c$74$1_2$178      mg_leaves_init
     000245F6  A$lcc1887678$246                   mg_leaves_init
     000245F6  C$mg_leaves_init.c$75$1_2$178      mg_leaves_init
     000245F9  A$lcc1887678$247                   mg_leaves_init
     000245FA  A$lcc1887678$248                   mg_leaves_init
     000245FB  A$lcc1887678$249                   mg_leaves_init
     000245FC  A$lcc1887678$250                   mg_leaves_init
     000245FF  A$lcc1887678$254                   mg_leaves_init
     000245FF  C$mg_leaves_init.c$77$1_2$178      mg_leaves_init
ASxxxx Linker V03.00/V05.40 + sdld,  page 156.
Hexadecimal  [32-Bits]

Area                                    Addr        Size        Decimal Bytes (Attributes)
--------------------------------        ----        ----        ------- ----- ------------
_CODE_2                             00024000    00000E08 =        3592. bytes (REL,CON)

      Value  Global                              Global Defined In Module
      -----  --------------------------------   ------------------------
     00024602  A$lcc1887678$258                   mg_leaves_init
     00024602  C$mg_leaves_init.c$79$3_2$180      mg_leaves_init
     00024604  A$lcc1887678$259                   mg_leaves_init
     00024606  A$lcc1887678$261                   mg_leaves_init
     00024608  A$lcc1887678$262                   mg_leaves_init
     00024609  A$lcc1887678$263                   mg_leaves_init
     0002460B  A$lcc1887678$264                   mg_leaves_init
     0002460D  A$lcc1887678$268                   mg_leaves_init
     0002460D  C$mg_leaves_init.c$82$3_2$180      mg_leaves_init
     00024610  A$lcc1887678$269                   mg_leaves_init
     00024611  A$lcc1887678$270                   mg_leaves_init
     00024613  A$lcc1887678$271                   mg_leaves_init
     00024614  A$lcc1887678$272                   mg_leaves_init
     00024615  A$lcc1887678$273                   mg_leaves_init
     00024616  A$lcc1887678$274                   mg_leaves_init
     00024618  A$lcc1887678$275                   mg_leaves_init
     00024619  A$lcc1887678$276                   mg_leaves_init
     0002461A  A$lcc1887678$277                   mg_leaves_init
     0002461B  A$lcc1887678$278                   mg_leaves_init
     0002461D  A$lcc1887678$279                   mg_leaves_init
     0002461E  A$lcc1887678$280                   mg_leaves_init
     0002461F  A$lcc1887678$281                   mg_leaves_init
     00024620  A$lcc1887678$282                   mg_leaves_init
     00024622  A$lcc1887678$283                   mg_leaves_init
     00024624  A$lcc1887678$284                   mg_leaves_init
     00024626  A$lcc1887678$285                   mg_leaves_init
     00024627  A$lcc1887678$286                   mg_leaves_init
     00024628  A$lcc1887678$287                   mg_leaves_init
     00024629  A$lcc1887678$288                   mg_leaves_init
     0002462A  A$lcc1887678$289                   mg_leaves_init
     0002462B  A$lcc1887678$293                   mg_leaves_init
     0002462B  C$mg_leaves_init.c$85$3_2$180      mg_leaves_init
     0002462E  A$lcc1887678$294                   mg_leaves_init
     00024630  A$lcc1887678$295                   mg_leaves_init
     00024631  A$lcc1887678$296                   mg_leaves_init
     00024633  A$lcc1887678$297                   mg_leaves_init
     00024634  A$lcc1887678$298                   mg_leaves_init
     00024635  A$lcc1887678$299                   mg_leaves_init
     00024636  A$lcc1887678$300                   mg_leaves_init
     00024637  A$lcc1887678$301                   mg_leaves_init
     00024638  A$lcc1887678$305                   mg_leaves_init
     00024638  C$mg_leaves_init.c$86$3_2$180      mg_leaves_init
     0002463B  A$lcc1887678$306                   mg_leaves_init
     0002463D  A$lcc1887678$307                   mg_leaves_init
     0002463E  A$lcc1887678$308                   mg_leaves_init
     00024640  A$lcc1887678$309                   mg_leaves_init
     00024641  A$lcc1887678$310                   mg_leaves_init
     00024643  A$lcc1887678$314                   mg_leaves_init
     00024643  C$mg_leaves_init.c$87$3_2$180      mg_leaves_init
     00024646  A$lcc1887678$315                   mg_leaves_init
     00024648  A$lcc1887678$316                   mg_leaves_init
ASxxxx Linker V03.00/V05.40 + sdld,  page 157.
Hexadecimal  [32-Bits]

Area                                    Addr        Size        Decimal Bytes (Attributes)
--------------------------------        ----        ----        ------- ----- ------------
_CODE_2                             00024000    00000E08 =        3592. bytes (REL,CON)

      Value  Global                              Global Defined In Module
      -----  --------------------------------   ------------------------
     00024649  A$lcc1887678$317                   mg_leaves_init
     0002464B  A$lcc1887678$318                   mg_leaves_init
     0002464C  A$lcc1887678$319                   mg_leaves_init
     0002464D  A$lcc1887678$320                   mg_leaves_init
     0002464E  A$lcc1887678$321                   mg_leaves_init
     0002464F  A$lcc1887678$322                   mg_leaves_init
     00024650  A$lcc1887678$326                   mg_leaves_init
     00024650  C$mg_leaves_init.c$79$2_2$179      mg_leaves_init
     00024652  A$lcc1887678$327                   mg_leaves_init
     00024653  A$lcc1887678$328                   mg_leaves_init
     00024655  A$lcc1887678$333                   mg_leaves_init
     00024655  C$mg_leaves_init.c$91$3_2$182      mg_leaves_init
     00024657  A$lcc1887678$335                   mg_leaves_init
     00024659  A$lcc1887678$336                   mg_leaves_init
     0002465A  A$lcc1887678$337                   mg_leaves_init
     0002465C  A$lcc1887678$341                   mg_leaves_init
     0002465C  C$mg_leaves_init.c$93$3_2$182      mg_leaves_init
     0002465D  A$lcc1887678$342                   mg_leaves_init
     0002465F  A$lcc1887678$343                   mg_leaves_init
     00024660  A$lcc1887678$344                   mg_leaves_init
     00024661  A$lcc1887678$345                   mg_leaves_init
     00024664  A$lcc1887678$346                   mg_leaves_init
     00024665  A$lcc1887678$347                   mg_leaves_init
     00024668  A$lcc1887678$348                   mg_leaves_init
     00024669  A$lcc1887678$349                   mg_leaves_init
     0002466A  A$lcc1887678$353                   mg_leaves_init
     0002466A  C$mg_leaves_init.c$94$3_2$182      mg_leaves_init
     0002466D  A$lcc1887678$354                   mg_leaves_init
     0002466F  A$lcc1887678$355                   mg_leaves_init
     00024670  A$lcc1887678$356                   mg_leaves_init
     00024671  A$lcc1887678$360                   mg_leaves_init
     00024671  C$mg_leaves_init.c$95$3_2$182      mg_leaves_init
     00024674  A$lcc1887678$361                   mg_leaves_init
     00024676  A$lcc1887678$362                   mg_leaves_init
     00024677  A$lcc1887678$363                   mg_leaves_init
     00024679  A$lcc1887678$367                   mg_leaves_init
     00024679  C$mg_leaves_init.c$97$3_2$182      mg_leaves_init
     0002467C  A$lcc1887678$368                   mg_leaves_init
     0002467E  A$lcc1887678$369                   mg_leaves_init
     0002467F  A$lcc1887678$370                   mg_leaves_init
     00024681  A$lcc1887678$371                   mg_leaves_init
     00024682  A$lcc1887678$372                   mg_leaves_init
     00024683  A$lcc1887678$373                   mg_leaves_init
     00024685  A$lcc1887678$374                   mg_leaves_init
     00024687  A$lcc1887678$375                   mg_leaves_init
     00024688  A$lcc1887678$376                   mg_leaves_init
     00024689  A$lcc1887678$377                   mg_leaves_init
     0002468A  A$lcc1887678$381                   mg_leaves_init
     0002468A  C$mg_leaves_init.c$98$3_2$182      mg_leaves_init
     0002468D  A$lcc1887678$382                   mg_leaves_init
     0002468F  A$lcc1887678$383                   mg_leaves_init
ASxxxx Linker V03.00/V05.40 + sdld,  page 158.
Hexadecimal  [32-Bits]

Area                                    Addr        Size        Decimal Bytes (Attributes)
--------------------------------        ----        ----        ------- ----- ------------
_CODE_2                             00024000    00000E08 =        3592. bytes (REL,CON)

      Value  Global                              Global Defined In Module
      -----  --------------------------------   ------------------------
     00024690  A$lcc1887678$384                   mg_leaves_init
     00024691  A$lcc1887678$385                   mg_leaves_init
     00024692  A$lcc1887678$389                   mg_leaves_init
     00024692  C$mg_leaves_init.c$100$3_2$182     mg_leaves_init
     00024695  A$lcc1887678$390                   mg_leaves_init
     00024697  A$lcc1887678$391                   mg_leaves_init
     00024698  A$lcc1887678$392                   mg_leaves_init
     0002469A  A$lcc1887678$396                   mg_leaves_init
     0002469A  C$mg_leaves_init.c$101$3_2$182     mg_leaves_init
     0002469B  A$lcc1887678$397                   mg_leaves_init
     0002469C  A$lcc1887678$398                   mg_leaves_init
     0002469D  A$lcc1887678$399                   mg_leaves_init
     0002469E  A$lcc1887678$400                   mg_leaves_init
     000246A1  A$lcc1887678$401                   mg_leaves_init
     000246A2  A$lcc1887678$402                   mg_leaves_init
     000246A3  A$lcc1887678$403                   mg_leaves_init
     000246A4  A$lcc1887678$404                   mg_leaves_init
     000246A5  A$lcc1887678$408                   mg_leaves_init
     000246A5  C$mg_leaves_init.c$103$3_2$182     mg_leaves_init
     000246A8  A$lcc1887678$409                   mg_leaves_init
     000246AA  A$lcc1887678$410                   mg_leaves_init
     000246AB  A$lcc1887678$411                   mg_leaves_init
     000246AD  A$lcc1887678$415                   mg_leaves_init
     000246AD  C$mg_leaves_init.c$91$2_2$181      mg_leaves_init
     000246AE  A$lcc1887678$416                   mg_leaves_init
     000246B0  A$lcc1887678$421                   mg_leaves_init
     000246B0  C$mg_leaves_init.c$107$3_2$184     mg_leaves_init
     000246B2  A$lcc1887678$422                   mg_leaves_init
     000246B4  A$lcc1887678$424                   mg_leaves_init
     000246B6  A$lcc1887678$425                   mg_leaves_init
     000246B7  A$lcc1887678$426                   mg_leaves_init
     000246B9  A$lcc1887678$427                   mg_leaves_init
     000246BB  A$lcc1887678$431                   mg_leaves_init
     000246BB  C$mg_leaves_init.c$109$3_2$184     mg_leaves_init
     000246BD  A$lcc1887678$432                   mg_leaves_init
     000246BE  A$lcc1887678$433                   mg_leaves_init
     000246BF  A$lcc1887678$434                   mg_leaves_init
     000246C2  A$lcc1887678$435                   mg_leaves_init
     000246C3  A$lcc1887678$436                   mg_leaves_init
     000246C6  A$lcc1887678$437                   mg_leaves_init
     000246C7  A$lcc1887678$441                   mg_leaves_init
     000246C7  C$mg_leaves_init.c$110$3_2$184     mg_leaves_init
     000246CA  A$lcc1887678$442                   mg_leaves_init
     000246CC  A$lcc1887678$443                   mg_leaves_init
     000246CD  A$lcc1887678$444                   mg_leaves_init
     000246CF  A$lcc1887678$445                   mg_leaves_init
     000246D0  A$lcc1887678$446                   mg_leaves_init
     000246D1  A$lcc1887678$447                   mg_leaves_init
     000246D2  A$lcc1887678$448                   mg_leaves_init
     000246D3  A$lcc1887678$449                   mg_leaves_init
     000246D4  A$lcc1887678$453                   mg_leaves_init
ASxxxx Linker V03.00/V05.40 + sdld,  page 159.
Hexadecimal  [32-Bits]

Area                                    Addr        Size        Decimal Bytes (Attributes)
--------------------------------        ----        ----        ------- ----- ------------
_CODE_2                             00024000    00000E08 =        3592. bytes (REL,CON)

      Value  Global                              Global Defined In Module
      -----  --------------------------------   ------------------------
     000246D4  C$mg_leaves_init.c$111$3_2$184     mg_leaves_init
     000246D7  A$lcc1887678$454                   mg_leaves_init
     000246D9  A$lcc1887678$455                   mg_leaves_init
     000246DA  A$lcc1887678$456                   mg_leaves_init
     000246DC  A$lcc1887678$457                   mg_leaves_init
     000246DD  A$lcc1887678$458                   mg_leaves_init
     000246DE  A$lcc1887678$459                   mg_leaves_init
     000246DF  A$lcc1887678$460                   mg_leaves_init
     000246E0  A$lcc1887678$461                   mg_leaves_init
     000246E1  A$lcc1887678$465                   mg_leaves_init
     000246E1  C$mg_leaves_init.c$113$3_2$184     mg_leaves_init
     000246E4  A$lcc1887678$466                   mg_leaves_init
     000246E6  A$lcc1887678$467                   mg_leaves_init
     000246E7  A$lcc1887678$468                   mg_leaves_init
     000246E9  A$lcc1887678$469                   mg_leaves_init
     000246EA  A$lcc1887678$470                   mg_leaves_init
     000246EB  A$lcc1887678$471                   mg_leaves_init
     000246EC  A$lcc1887678$472                   mg_leaves_init
     000246EF  A$lcc1887678$473                   mg_leaves_init
     000246F1  A$lcc1887678$474                   mg_leaves_init
     000246F2  A$lcc1887678$475                   mg_leaves_init
     000246F4  A$lcc1887678$476                   mg_leaves_init
     000246F5  A$lcc1887678$477                   mg_leaves_init
     000246F6  A$lcc1887678$478                   mg_leaves_init
     000246F7  A$lcc1887678$479                   mg_leaves_init
     000246F8  A$lcc1887678$480                   mg_leaves_init
     000246F9  A$lcc1887678$484                   mg_leaves_init
     000246F9  C$mg_leaves_init.c$114$3_2$184     mg_leaves_init
     000246FA  A$lcc1887678$485                   mg_leaves_init
     000246FD  A$lcc1887678$486                   mg_leaves_init
     000246FF  A$lcc1887678$487                   mg_leaves_init
     00024700  A$lcc1887678$488                   mg_leaves_init
     00024702  A$lcc1887678$489                   mg_leaves_init
     00024703  A$lcc1887678$490                   mg_leaves_init
     00024704  A$lcc1887678$491                   mg_leaves_init
     00024705  A$lcc1887678$492                   mg_leaves_init
     00024706  A$lcc1887678$493                   mg_leaves_init
     00024707  A$lcc1887678$494                   mg_leaves_init
     00024708  A$lcc1887678$498                   mg_leaves_init
     00024708  C$mg_leaves_init.c$116$3_2$184     mg_leaves_init
     0002470B  A$lcc1887678$499                   mg_leaves_init
     0002470D  A$lcc1887678$500                   mg_leaves_init
     0002470E  A$lcc1887678$501                   mg_leaves_init
     00024710  A$lcc1887678$502                   mg_leaves_init
     00024711  A$lcc1887678$503                   mg_leaves_init
     00024712  A$lcc1887678$504                   mg_leaves_init
     00024713  A$lcc1887678$505                   mg_leaves_init
     00024714  A$lcc1887678$506                   mg_leaves_init
     00024715  A$lcc1887678$510                   mg_leaves_init
     00024715  C$mg_leaves_init.c$117$3_2$184     mg_leaves_init
     00024717  A$lcc1887678$511                   mg_leaves_init
ASxxxx Linker V03.00/V05.40 + sdld,  page 160.
Hexadecimal  [32-Bits]

Area                                    Addr        Size        Decimal Bytes (Attributes)
--------------------------------        ----        ----        ------- ----- ------------
_CODE_2                             00024000    00000E08 =        3592. bytes (REL,CON)

      Value  Global                              Global Defined In Module
      -----  --------------------------------   ------------------------
     00024718  A$lcc1887678$512                   mg_leaves_init
     00024719  A$lcc1887678$513                   mg_leaves_init
     0002471A  A$lcc1887678$514                   mg_leaves_init
     0002471B  A$lcc1887678$515                   mg_leaves_init
     0002471C  A$lcc1887678$516                   mg_leaves_init
     0002471F  A$lcc1887678$517                   mg_leaves_init
     00024720  A$lcc1887678$518                   mg_leaves_init
     00024721  A$lcc1887678$519                   mg_leaves_init
     00024722  A$lcc1887678$520                   mg_leaves_init
     00024723  A$lcc1887678$524                   mg_leaves_init
     00024723  C$mg_leaves_init.c$119$3_2$184     mg_leaves_init
     00024726  A$lcc1887678$525                   mg_leaves_init
     00024728  A$lcc1887678$526                   mg_leaves_init
     00024729  A$lcc1887678$527                   mg_leaves_init
     0002472B  A$lcc1887678$528                   mg_leaves_init
     0002472C  A$lcc1887678$529                   mg_leaves_init
     0002472D  A$lcc1887678$530                   mg_leaves_init
     0002472F  A$lcc1887678$534                   mg_leaves_init
     0002472F  C$mg_leaves_init.c$107$2_2$183     mg_leaves_init
     00024731  A$lcc1887678$535                   mg_leaves_init
     00024732  A$lcc1887678$536                   mg_leaves_init
     00024735  A$lcc1887678$541                   mg_leaves_init
     00024735  C$mg_leaves_init.c$122$2_2$185     mg_leaves_init
     00024737  A$lcc1887678$542                   mg_leaves_init
     00024739  A$lcc1887678$543                   mg_leaves_init
     0002473A  A$lcc1887678$544                   mg_leaves_init
     0002473C  A$lcc1887678$545                   mg_leaves_init
     0002473D  A$lcc1887678$546                   mg_leaves_init
     0002473F  A$lcc1887678$547                   mg_leaves_init
     00024740  A$lcc1887678$548                   mg_leaves_init
     00024742  A$lcc1887678$549                   mg_leaves_init
     00024743  A$lcc1887678$550                   mg_leaves_init
     00024745  A$lcc1887678$551                   mg_leaves_init
     00024746  A$lcc1887678$552                   mg_leaves_init
     00024748  A$lcc1887678$556                   mg_leaves_init
     00024748  C$mg_leaves_init.c$124$1_4$175     mg_leaves_init
     0002474A  A$lcc1887678$558                   mg_leaves_init
     0002474B  A$lcc1887678$559                   mg_leaves_init
     0002474D  A$lcc1887678$560                   mg_leaves_init
     0002474F  A$lcc1887678$564                   mg_leaves_init
     0002474F  C$mg_leaves_init.c$126$3_3$187     mg_leaves_init
     00024750  A$lcc1887678$565                   mg_leaves_init
     00024752  A$lcc1887678$566                   mg_leaves_init
     00024755  A$lcc1887678$567                   mg_leaves_init
     00024756  A$lcc1887678$568                   mg_leaves_init
     00024757  A$lcc1887678$569                   mg_leaves_init
     00024758  A$lcc1887678$570                   mg_leaves_init
     00024759  A$lcc1887678$571                   mg_leaves_init
     0002475C  A$lcc1887678$572                   mg_leaves_init
     0002475D  A$lcc1887678$573                   mg_leaves_init
     0002475E  A$lcc1887678$574                   mg_leaves_init
ASxxxx Linker V03.00/V05.40 + sdld,  page 161.
Hexadecimal  [32-Bits]

Area                                    Addr        Size        Decimal Bytes (Attributes)
--------------------------------        ----        ----        ------- ----- ------------
_CODE_2                             00024000    00000E08 =        3592. bytes (REL,CON)

      Value  Global                              Global Defined In Module
      -----  --------------------------------   ------------------------
     0002475F  A$lcc1887678$575                   mg_leaves_init
     00024761  A$lcc1887678$579                   mg_leaves_init
     00024761  C$mg_leaves_init.c$127$3_3$187     mg_leaves_init
     00024762  A$lcc1887678$580                   mg_leaves_init
     00024763  A$lcc1887678$581                   mg_leaves_init
     00024764  A$lcc1887678$582                   mg_leaves_init
     00024765  A$lcc1887678$583                   mg_leaves_init
     00024766  A$lcc1887678$584                   mg_leaves_init
     00024768  A$lcc1887678$585                   mg_leaves_init
     00024769  A$lcc1887678$586                   mg_leaves_init
     0002476C  A$lcc1887678$587                   mg_leaves_init
     0002476D  A$lcc1887678$591                   mg_leaves_init
     0002476D  C$mg_leaves_init.c$124$2_3$186     mg_leaves_init
     0002476E  A$lcc1887678$592                   mg_leaves_init
     00024770  A$lcc1887678$597                   mg_leaves_init
     00024770  C$mg_leaves_init.c$130$1_4$188     mg_leaves_init
     00024773  A$lcc1887678$601                   mg_leaves_init
     00024773  C$mg_leaves_init.c$131$1_4$175     mg_leaves_init
     00024775  A$lcc1887678$602                   mg_leaves_init
     00024776  A$lcc1887678$603                   mg_leaves_init
     00024778  A$lcc1887678$604                   mg_leaves_init
     0002477B  A$lcc1887678$605                   mg_leaves_init
     0002477C  A$lcc1887678$606                   mg_leaves_init
     0002477E  A$lcc1887678$607                   mg_leaves_init
     00024781  A$lcc1887678$608                   mg_leaves_init
     00024782  A$lcc1887678$609                   mg_leaves_init
     00024784  A$lcc1887678$610                   mg_leaves_init
     00024786  A$lcc1887678$614                   mg_leaves_init
     00024786  C$mg_leaves_init.c$132$1_4$175     mg_leaves_init
     00024787  A$lcc1887678$615                   mg_leaves_init
     00024788  A$lcc1887678$616                   mg_leaves_init
     0002478A  A$lcc1887678$617                   mg_leaves_init
     0002478B  A$lcc1887678$618                   mg_leaves_init
     0002478E  A$lcc1887678$619                   mg_leaves_init
     0002478F  A$lcc1887678$620                   mg_leaves_init
     00024791  A$lcc1887678$621                   mg_leaves_init
     00024794  A$lcc1887678$622                   mg_leaves_init
     00024795  A$lcc1887678$623                   mg_leaves_init
     00024797  A$lcc1887678$624                   mg_leaves_init
     00024799  A$lcc1887678$628                   mg_leaves_init
     00024799  C$mg_leaves_init.c$133$1_4$175     mg_leaves_init
     0002479A  A$lcc1887678$629                   mg_leaves_init
     0002479C  A$lcc1887678$630                   mg_leaves_init
     0002479D  A$lcc1887678$631                   mg_leaves_init
     000247A0  A$lcc1887678$632                   mg_leaves_init
     000247A1  A$lcc1887678$633                   mg_leaves_init
     000247A3  A$lcc1887678$634                   mg_leaves_init
     000247A5  A$lcc1887678$635                   mg_leaves_init
     000247A6  A$lcc1887678$639                   mg_leaves_init
     000247A6  C$mg_leaves_init.c$135$1_4$188     mg_leaves_init
     000247A8  A$lcc1887678$640                   mg_leaves_init
ASxxxx Linker V03.00/V05.40 + sdld,  page 162.
Hexadecimal  [32-Bits]

Area                                    Addr        Size        Decimal Bytes (Attributes)
--------------------------------        ----        ----        ------- ----- ------------
_CODE_2                             00024000    00000E08 =        3592. bytes (REL,CON)

      Value  Global                              Global Defined In Module
      -----  --------------------------------   ------------------------
     000247A9  A$lcc1887678$641                   mg_leaves_init
     000247AA  A$lcc1887678$642                   mg_leaves_init
     000247AC  A$lcc1887678$643                   mg_leaves_init
     000247AE  A$lcc1887678$644                   mg_leaves_init
     000247B1  A$lcc1887678$648                   mg_leaves_init
     000247B1  C$mg_leaves_init.c$136$1_4$188     mg_leaves_init
     000247B3  A$lcc1887678$649                   mg_leaves_init
     000247B4  A$lcc1887678$650                   mg_leaves_init
     000247B5  A$lcc1887678$651                   mg_leaves_init
     000247B6  A$lcc1887678$652                   mg_leaves_init
     000247B8  A$lcc1887678$653                   mg_leaves_init
     000247BA  A$lcc1887678$654                   mg_leaves_init
     000247BD  A$lcc1887678$658                   mg_leaves_init
     000247BD  C$mg_leaves_init.c$137$1_4$188     mg_leaves_init
     000247BF  A$lcc1887678$659                   mg_leaves_init
     000247C0  A$lcc1887678$660                   mg_leaves_init
     000247C1  A$lcc1887678$661                   mg_leaves_init
     000247C2  A$lcc1887678$662                   mg_leaves_init
     000247C4  A$lcc1887678$663                   mg_leaves_init
     000247C6  A$lcc1887678$664                   mg_leaves_init
     000247C9  A$lcc1887678$668                   mg_leaves_init
     000247C9  C$mg_leaves_init.c$138$1_4$188     mg_leaves_init
     000247CB  A$lcc1887678$669                   mg_leaves_init
     000247CC  A$lcc1887678$670                   mg_leaves_init
     000247CD  A$lcc1887678$671                   mg_leaves_init
     000247CE  A$lcc1887678$672                   mg_leaves_init
     000247D0  A$lcc1887678$673                   mg_leaves_init
     000247D2  A$lcc1887678$674                   mg_leaves_init
     000247D5  A$lcc1887678$678                   mg_leaves_init
     000247D5  C$mg_leaves_init.c$140$1_4$188     mg_leaves_init
     000247D8  A$lcc1887678$679                   mg_leaves_init
     000247DB  A$lcc1887678$683                   mg_leaves_init
     000247DD  A$lcc1887678$688                   mg_leaves_init
     000247DD  C$mg_leaves_init.c$141$1_4$175     mg_leaves_init
     000247DD  XG$Mg_Leaves_Init$0$0              mg_leaves_init
     000247DE  Fmg_leaves_init$__str_0$0_0$0      mg_leaves_init
     000247E3  Fmg_leaves_init$__str_1$0_0$0      mg_leaves_init
     000247E9  A$lcc1887680$53                    mg_leaves_player_init
     000247E9  C$mg_leaves_player_init.c$11$0_0   mg_leaves_player_init
     000247E9  G$Mg_Leaves_Player_Init$0$0        mg_leaves_player_init
     000247E9  _Mg_Leaves_Player_Init             mg_leaves_player_init
     000247EB  A$lcc1887680$57                    mg_leaves_player_init
     000247EB  C$mg_leaves_player_init.c$13$1_0   mg_leaves_player_init
     000247EE  A$lcc1887680$58                    mg_leaves_player_init
     000247EF  A$lcc1887680$59                    mg_leaves_player_init
     000247F1  A$lcc1887680$60                    mg_leaves_player_init
     000247F4  A$lcc1887680$61                    mg_leaves_player_init
     000247F5  A$lcc1887680$62                    mg_leaves_player_init
     000247F7  A$lcc1887680$66                    mg_leaves_player_init
     000247F7  C$mg_leaves_player_init.c$14$1_0   mg_leaves_player_init
     000247FA  A$lcc1887680$67                    mg_leaves_player_init
ASxxxx Linker V03.00/V05.40 + sdld,  page 163.
Hexadecimal  [32-Bits]

Area                                    Addr        Size        Decimal Bytes (Attributes)
--------------------------------        ----        ----        ------- ----- ------------
_CODE_2                             00024000    00000E08 =        3592. bytes (REL,CON)

      Value  Global                              Global Defined In Module
      -----  --------------------------------   ------------------------
     000247FD  A$lcc1887680$68                    mg_leaves_player_init
     000247FE  A$lcc1887680$69                    mg_leaves_player_init
     00024800  A$lcc1887680$70                    mg_leaves_player_init
     00024801  A$lcc1887680$71                    mg_leaves_player_init
     00024803  A$lcc1887680$75                    mg_leaves_player_init
     00024803  C$mg_leaves_player_init.c$15$1_0   mg_leaves_player_init
     00024806  A$lcc1887680$76                    mg_leaves_player_init
     00024809  A$lcc1887680$77                    mg_leaves_player_init
     0002480A  A$lcc1887680$78                    mg_leaves_player_init
     0002480B  A$lcc1887680$79                    mg_leaves_player_init
     0002480C  A$lcc1887680$80                    mg_leaves_player_init
     0002480D  A$lcc1887680$81                    mg_leaves_player_init
     0002480E  A$lcc1887680$82                    mg_leaves_player_init
     00024810  A$lcc1887680$83                    mg_leaves_player_init
     00024811  A$lcc1887680$84                    mg_leaves_player_init
     00024813  A$lcc1887680$88                    mg_leaves_player_init
     00024813  C$mg_leaves_player_init.c$17$1_0   mg_leaves_player_init
     00024816  A$lcc1887680$89                    mg_leaves_player_init
     00024819  A$lcc1887680$90                    mg_leaves_player_init
     0002481A  A$lcc1887680$91                    mg_leaves_player_init
     0002481B  A$lcc1887680$92                    mg_leaves_player_init
     0002481D  A$lcc1887680$93                    mg_leaves_player_init
     0002481E  A$lcc1887680$94                    mg_leaves_player_init
     00024821  A$lcc1887680$95                    mg_leaves_player_init
     00024823  A$lcc1887680$96                    mg_leaves_player_init
     00024824  A$lcc1887680$97                    mg_leaves_player_init
     00024826  A$lcc1887680$98                    mg_leaves_player_init
     00024828  A$lcc1887680$99                    mg_leaves_player_init
     00024829  A$lcc1887680$100                   mg_leaves_player_init
     0002482A  A$lcc1887680$101                   mg_leaves_player_init
     0002482B  A$lcc1887680$102                   mg_leaves_player_init
     0002482C  A$lcc1887680$103                   mg_leaves_player_init
     0002482D  A$lcc1887680$104                   mg_leaves_player_init
     0002482E  A$lcc1887680$108                   mg_leaves_player_init
     0002482E  C$mg_leaves_player_init.c$18$1_0   mg_leaves_player_init
     00024831  A$lcc1887680$109                   mg_leaves_player_init
     00024832  A$lcc1887680$110                   mg_leaves_player_init
     00024833  A$lcc1887680$111                   mg_leaves_player_init
     00024835  A$lcc1887680$112                   mg_leaves_player_init
     00024836  A$lcc1887680$113                   mg_leaves_player_init
     00024838  A$lcc1887680$114                   mg_leaves_player_init
     0002483A  A$lcc1887680$115                   mg_leaves_player_init
     0002483B  A$lcc1887680$116                   mg_leaves_player_init
     0002483C  A$lcc1887680$117                   mg_leaves_player_init
     0002483E  A$lcc1887680$118                   mg_leaves_player_init
     0002483F  A$lcc1887680$119                   mg_leaves_player_init
     00024840  A$lcc1887680$120                   mg_leaves_player_init
     00024841  A$lcc1887680$121                   mg_leaves_player_init
     00024842  A$lcc1887680$122                   mg_leaves_player_init
     00024843  A$lcc1887680$123                   mg_leaves_player_init
     00024844  A$lcc1887680$124                   mg_leaves_player_init
ASxxxx Linker V03.00/V05.40 + sdld,  page 164.
Hexadecimal  [32-Bits]

Area                                    Addr        Size        Decimal Bytes (Attributes)
--------------------------------        ----        ----        ------- ----- ------------
_CODE_2                             00024000    00000E08 =        3592. bytes (REL,CON)

      Value  Global                              Global Defined In Module
      -----  --------------------------------   ------------------------
     00024845  A$lcc1887680$128                   mg_leaves_player_init
     00024845  C$mg_leaves_player_init.c$20$1_0   mg_leaves_player_init
     00024848  A$lcc1887680$129                   mg_leaves_player_init
     00024849  A$lcc1887680$130                   mg_leaves_player_init
     0002484B  A$lcc1887680$131                   mg_leaves_player_init
     0002484E  A$lcc1887680$132                   mg_leaves_player_init
     0002484F  A$lcc1887680$133                   mg_leaves_player_init
     00024851  A$lcc1887680$137                   mg_leaves_player_init
     00024851  C$mg_leaves_player_init.c$21$1_0   mg_leaves_player_init
     00024854  A$lcc1887680$138                   mg_leaves_player_init
     00024857  A$lcc1887680$139                   mg_leaves_player_init
     00024858  A$lcc1887680$140                   mg_leaves_player_init
     0002485A  A$lcc1887680$141                   mg_leaves_player_init
     0002485B  A$lcc1887680$142                   mg_leaves_player_init
     0002485D  A$lcc1887680$146                   mg_leaves_player_init
     0002485D  C$mg_leaves_player_init.c$22$1_0   mg_leaves_player_init
     00024860  A$lcc1887680$147                   mg_leaves_player_init
     00024863  A$lcc1887680$148                   mg_leaves_player_init
     00024864  A$lcc1887680$149                   mg_leaves_player_init
     00024866  A$lcc1887680$150                   mg_leaves_player_init
     00024867  A$lcc1887680$151                   mg_leaves_player_init
     00024869  A$lcc1887680$155                   mg_leaves_player_init
     00024869  C$mg_leaves_player_init.c$24$2_0   mg_leaves_player_init
     0002486B  A$lcc1887680$156                   mg_leaves_player_init
     0002486D  A$lcc1887680$157                   mg_leaves_player_init
     0002486E  A$lcc1887680$158                   mg_leaves_player_init
     00024870  A$lcc1887680$159                   mg_leaves_player_init
     00024871  A$lcc1887680$160                   mg_leaves_player_init
     00024873  A$lcc1887680$161                   mg_leaves_player_init
     00024874  A$lcc1887680$162                   mg_leaves_player_init
     00024876  A$lcc1887680$166                   mg_leaves_player_init
     00024876  C$mg_leaves_player_init.c$28$1_1   mg_leaves_player_init
     00024879  A$lcc1887680$167                   mg_leaves_player_init
     0002487A  A$lcc1887680$168                   mg_leaves_player_init
     0002487C  A$lcc1887680$169                   mg_leaves_player_init
     0002487D  A$lcc1887680$170                   mg_leaves_player_init
     0002487E  A$lcc1887680$171                   mg_leaves_player_init
     0002487F  A$lcc1887680$172                   mg_leaves_player_init
     00024880  A$lcc1887680$173                   mg_leaves_player_init
     00024881  A$lcc1887680$174                   mg_leaves_player_init
     00024882  A$lcc1887680$175                   mg_leaves_player_init
     00024883  A$lcc1887680$176                   mg_leaves_player_init
     00024884  A$lcc1887680$177                   mg_leaves_player_init
     00024885  A$lcc1887680$178                   mg_leaves_player_init
     00024888  A$lcc1887680$179                   mg_leaves_player_init
     00024889  A$lcc1887680$180                   mg_leaves_player_init
     0002488A  A$lcc1887680$181                   mg_leaves_player_init
     0002488B  A$lcc1887680$182                   mg_leaves_player_init
     0002488E  A$lcc1887680$183                   mg_leaves_player_init
     0002488F  A$lcc1887680$184                   mg_leaves_player_init
     00024891  A$lcc1887680$185                   mg_leaves_player_init
ASxxxx Linker V03.00/V05.40 + sdld,  page 165.
Hexadecimal  [32-Bits]

Area                                    Addr        Size        Decimal Bytes (Attributes)
--------------------------------        ----        ----        ------- ----- ------------
_CODE_2                             00024000    00000E08 =        3592. bytes (REL,CON)

      Value  Global                              Global Defined In Module
      -----  --------------------------------   ------------------------
     00024892  A$lcc1887680$186                   mg_leaves_player_init
     00024893  A$lcc1887680$187                   mg_leaves_player_init
     00024896  A$lcc1887680$188                   mg_leaves_player_init
     00024897  A$lcc1887680$189                   mg_leaves_player_init
     00024898  A$lcc1887680$190                   mg_leaves_player_init
     00024899  A$lcc1887680$191                   mg_leaves_player_init
     0002489A  A$lcc1887680$192                   mg_leaves_player_init
     0002489B  A$lcc1887680$193                   mg_leaves_player_init
     0002489C  A$lcc1887680$194                   mg_leaves_player_init
     0002489F  A$lcc1887680$195                   mg_leaves_player_init
     000248A2  A$lcc1887680$199                   mg_leaves_player_init
     000248A4  A$lcc1887680$204                   mg_leaves_player_init
     000248A4  C$mg_leaves_player_init.c$29$1_1   mg_leaves_player_init
     000248A4  XG$Mg_Leaves_Player_Init$0$0       mg_leaves_player_init
     000248A5  A$lcc1887681$65                    mg_leaves_update
     000248A5  C$mg_leaves_update.c$22$0_0$177    mg_leaves_update
     000248A5  G$is_being_swept$0$0               mg_leaves_update
     000248A5  _is_being_swept                    mg_leaves_update
     000248A7  A$lcc1887681$66                    mg_leaves_update
     000248A8  A$lcc1887681$70                    mg_leaves_update
     000248A8  C$mg_leaves_update.c$24$1_0$177    mg_leaves_update
     000248AB  A$lcc1887681$71                    mg_leaves_update
     000248AE  A$lcc1887681$72                    mg_leaves_update
     000248AF  A$lcc1887681$73                    mg_leaves_update
     000248B1  A$lcc1887681$74                    mg_leaves_update
     000248B2  A$lcc1887681$75                    mg_leaves_update
     000248B3  A$lcc1887681$76                    mg_leaves_update
     000248B5  A$lcc1887681$77                    mg_leaves_update
     000248B6  A$lcc1887681$81                    mg_leaves_update
     000248B6  C$mg_leaves_update.c$26$1_0$177    mg_leaves_update
     000248B9  A$lcc1887681$82                    mg_leaves_update
     000248BB  A$lcc1887681$83                    mg_leaves_update
     000248BC  A$lcc1887681$84                    mg_leaves_update
     000248BD  A$lcc1887681$88                    mg_leaves_update
     000248BD  C$mg_leaves_update.c$28$2_0$178    mg_leaves_update
     000248BF  A$lcc1887681$89                    mg_leaves_update
     000248C0  A$lcc1887681$90                    mg_leaves_update
     000248C1  A$lcc1887681$91                    mg_leaves_update
     000248C2  A$lcc1887681$92                    mg_leaves_update
     000248C3  A$lcc1887681$93                    mg_leaves_update
     000248C4  A$lcc1887681$94                    mg_leaves_update
     000248C5  A$lcc1887681$95                    mg_leaves_update
     000248C6  A$lcc1887681$96                    mg_leaves_update
     000248C7  A$lcc1887681$97                    mg_leaves_update
     000248CA  A$lcc1887681$98                    mg_leaves_update
     000248CB  A$lcc1887681$99                    mg_leaves_update
     000248CC  A$lcc1887681$100                   mg_leaves_update
     000248CD  A$lcc1887681$101                   mg_leaves_update
     000248CF  A$lcc1887681$102                   mg_leaves_update
     000248D0  A$lcc1887681$103                   mg_leaves_update
     000248D1  A$lcc1887681$104                   mg_leaves_update
ASxxxx Linker V03.00/V05.40 + sdld,  page 166.
Hexadecimal  [32-Bits]

Area                                    Addr        Size        Decimal Bytes (Attributes)
--------------------------------        ----        ----        ------- ----- ------------
_CODE_2                             00024000    00000E08 =        3592. bytes (REL,CON)

      Value  Global                              Global Defined In Module
      -----  --------------------------------   ------------------------
     000248D2  A$lcc1887681$105                   mg_leaves_update
     000248D4  A$lcc1887681$106                   mg_leaves_update
     000248D5  A$lcc1887681$107                   mg_leaves_update
     000248D7  A$lcc1887681$108                   mg_leaves_update
     000248D8  A$lcc1887681$109                   mg_leaves_update
     000248DA  A$lcc1887681$110                   mg_leaves_update
     000248DB  A$lcc1887681$111                   mg_leaves_update
     000248DD  A$lcc1887681$112                   mg_leaves_update
     000248DF  A$lcc1887681$113                   mg_leaves_update
     000248E0  A$lcc1887681$114                   mg_leaves_update
     000248E1  A$lcc1887681$115                   mg_leaves_update
     000248E3  A$lcc1887681$116                   mg_leaves_update
     000248E4  A$lcc1887681$117                   mg_leaves_update
     000248E5  A$lcc1887681$118                   mg_leaves_update
     000248E6  A$lcc1887681$119                   mg_leaves_update
     000248E7  A$lcc1887681$120                   mg_leaves_update
     000248E8  A$lcc1887681$121                   mg_leaves_update
     000248E9  A$lcc1887681$122                   mg_leaves_update
     000248EB  A$lcc1887681$123                   mg_leaves_update
     000248ED  A$lcc1887681$124                   mg_leaves_update
     000248EE  A$lcc1887681$125                   mg_leaves_update
     000248EF  A$lcc1887681$126                   mg_leaves_update
     000248F0  A$lcc1887681$127                   mg_leaves_update
     000248F3  A$lcc1887681$128                   mg_leaves_update
     000248F4  A$lcc1887681$129                   mg_leaves_update
     000248F5  A$lcc1887681$130                   mg_leaves_update
     000248F6  A$lcc1887681$131                   mg_leaves_update
     000248F8  A$lcc1887681$132                   mg_leaves_update
     000248F9  A$lcc1887681$133                   mg_leaves_update
     000248FA  A$lcc1887681$134                   mg_leaves_update
     000248FB  A$lcc1887681$135                   mg_leaves_update
     000248FD  A$lcc1887681$136                   mg_leaves_update
     000248FE  A$lcc1887681$137                   mg_leaves_update
     00024900  A$lcc1887681$138                   mg_leaves_update
     00024901  A$lcc1887681$139                   mg_leaves_update
     00024902  A$lcc1887681$140                   mg_leaves_update
     00024904  A$lcc1887681$141                   mg_leaves_update
     00024905  A$lcc1887681$142                   mg_leaves_update
     00024906  A$lcc1887681$143                   mg_leaves_update
     00024907  A$lcc1887681$144                   mg_leaves_update
     00024908  A$lcc1887681$145                   mg_leaves_update
     00024909  A$lcc1887681$146                   mg_leaves_update
     0002490A  A$lcc1887681$147                   mg_leaves_update
     0002490C  A$lcc1887681$151                   mg_leaves_update
     0002490C  C$mg_leaves_update.c$30$4_0$180    mg_leaves_update
     0002490E  A$lcc1887681$152                   mg_leaves_update
     0002490F  A$lcc1887681$153                   mg_leaves_update
     00024910  A$lcc1887681$154                   mg_leaves_update
     00024912  A$lcc1887681$158                   mg_leaves_update
     00024912  C$mg_leaves_update.c$31$4_0$180    mg_leaves_update
     00024915  A$lcc1887681$159                   mg_leaves_update
ASxxxx Linker V03.00/V05.40 + sdld,  page 167.
Hexadecimal  [32-Bits]

Area                                    Addr        Size        Decimal Bytes (Attributes)
--------------------------------        ----        ----        ------- ----- ------------
_CODE_2                             00024000    00000E08 =        3592. bytes (REL,CON)

      Value  Global                              Global Defined In Module
      -----  --------------------------------   ------------------------
     00024916  A$lcc1887681$160                   mg_leaves_update
     00024918  A$lcc1887681$161                   mg_leaves_update
     00024919  A$lcc1887681$162                   mg_leaves_update
     0002491B  A$lcc1887681$167                   mg_leaves_update
     0002491B  C$mg_leaves_update.c$33$4_0$181    mg_leaves_update
     0002491D  A$lcc1887681$168                   mg_leaves_update
     0002491E  A$lcc1887681$169                   mg_leaves_update
     0002491F  A$lcc1887681$170                   mg_leaves_update
     00024921  A$lcc1887681$174                   mg_leaves_update
     00024921  C$mg_leaves_update.c$34$4_0$181    mg_leaves_update
     00024924  A$lcc1887681$175                   mg_leaves_update
     00024925  A$lcc1887681$176                   mg_leaves_update
     00024927  A$lcc1887681$177                   mg_leaves_update
     00024928  A$lcc1887681$178                   mg_leaves_update
     0002492A  A$lcc1887681$183                   mg_leaves_update
     0002492A  C$mg_leaves_update.c$36$3_0$179    mg_leaves_update
     0002492C  A$lcc1887681$184                   mg_leaves_update
     0002492E  A$lcc1887681$189                   mg_leaves_update
     0002492E  C$mg_leaves_update.c$39$1_0$177    mg_leaves_update
     0002492F  A$lcc1887681$194                   mg_leaves_update
     00024931  A$lcc1887681$199                   mg_leaves_update
     00024931  C$mg_leaves_update.c$40$1_0$177    mg_leaves_update
     00024931  XG$is_being_swept$0$0              mg_leaves_update
     00024932  A$lcc1887681$209                   mg_leaves_update
     00024932  C$mg_leaves_update.c$42$1_0$183    mg_leaves_update
     00024932  G$spawn$0$0                        mg_leaves_update
     00024932  _spawn                             mg_leaves_update
     00024934  A$lcc1887681$210                   mg_leaves_update
     00024936  A$lcc1887681$211                   mg_leaves_update
     00024937  A$lcc1887681$215                   mg_leaves_update
     00024937  C$mg_leaves_update.c$44$2_0$184    mg_leaves_update
     0002493A  A$lcc1887681$216                   mg_leaves_update
     0002493B  A$lcc1887681$217                   mg_leaves_update
     0002493D  A$lcc1887681$218                   mg_leaves_update
     0002493E  A$lcc1887681$219                   mg_leaves_update
     0002493F  A$lcc1887681$220                   mg_leaves_update
     00024940  A$lcc1887681$221                   mg_leaves_update
     00024941  A$lcc1887681$222                   mg_leaves_update
     00024942  A$lcc1887681$223                   mg_leaves_update
     00024943  A$lcc1887681$224                   mg_leaves_update
     00024944  A$lcc1887681$225                   mg_leaves_update
     00024946  A$lcc1887681$226                   mg_leaves_update
     00024948  A$lcc1887681$230                   mg_leaves_update
     00024948  C$mg_leaves_update.c$45$2_0$184    mg_leaves_update
     0002494B  A$lcc1887681$231                   mg_leaves_update
     0002494D  A$lcc1887681$232                   mg_leaves_update
     0002494E  A$lcc1887681$233                   mg_leaves_update
     00024950  A$lcc1887681$234                   mg_leaves_update
     00024951  A$lcc1887681$235                   mg_leaves_update
     00024952  A$lcc1887681$236                   mg_leaves_update
     00024953  A$lcc1887681$237                   mg_leaves_update
ASxxxx Linker V03.00/V05.40 + sdld,  page 168.
Hexadecimal  [32-Bits]

Area                                    Addr        Size        Decimal Bytes (Attributes)
--------------------------------        ----        ----        ------- ----- ------------
_CODE_2                             00024000    00000E08 =        3592. bytes (REL,CON)

      Value  Global                              Global Defined In Module
      -----  --------------------------------   ------------------------
     00024954  A$lcc1887681$238                   mg_leaves_update
     00024955  A$lcc1887681$239                   mg_leaves_update
     00024956  A$lcc1887681$244                   mg_leaves_update
     00024956  C$mg_leaves_update.c$47$2_0$185    mg_leaves_update
     00024957  A$lcc1887681$245                   mg_leaves_update
     00024958  A$lcc1887681$246                   mg_leaves_update
     00024959  A$lcc1887681$247                   mg_leaves_update
     0002495B  A$lcc1887681$248                   mg_leaves_update
     0002495E  A$lcc1887681$249                   mg_leaves_update
     00024961  A$lcc1887681$250                   mg_leaves_update
     00024963  A$lcc1887681$251                   mg_leaves_update
     00024964  A$lcc1887681$252                   mg_leaves_update
     00024965  A$lcc1887681$253                   mg_leaves_update
     00024966  A$lcc1887681$254                   mg_leaves_update
     00024968  A$lcc1887681$255                   mg_leaves_update
     00024969  A$lcc1887681$256                   mg_leaves_update
     0002496A  A$lcc1887681$257                   mg_leaves_update
     0002496B  A$lcc1887681$258                   mg_leaves_update
     0002496C  A$lcc1887681$259                   mg_leaves_update
     0002496D  A$lcc1887681$260                   mg_leaves_update
     0002496E  A$lcc1887681$261                   mg_leaves_update
     0002496F  A$lcc1887681$262                   mg_leaves_update
     00024970  A$lcc1887681$263                   mg_leaves_update
     00024971  A$lcc1887681$264                   mg_leaves_update
     00024972  A$lcc1887681$265                   mg_leaves_update
     00024973  A$lcc1887681$266                   mg_leaves_update
     00024974  A$lcc1887681$267                   mg_leaves_update
     00024975  A$lcc1887681$268                   mg_leaves_update
     00024976  A$lcc1887681$269                   mg_leaves_update
     00024977  A$lcc1887681$270                   mg_leaves_update
     00024978  A$lcc1887681$271                   mg_leaves_update
     0002497B  A$lcc1887681$272                   mg_leaves_update
     0002497C  A$lcc1887681$273                   mg_leaves_update
     0002497D  A$lcc1887681$274                   mg_leaves_update
     0002497E  A$lcc1887681$275                   mg_leaves_update
     00024980  A$lcc1887681$276                   mg_leaves_update
     00024981  A$lcc1887681$277                   mg_leaves_update
     00024982  A$lcc1887681$278                   mg_leaves_update
     00024983  A$lcc1887681$279                   mg_leaves_update
     00024986  A$lcc1887681$280                   mg_leaves_update
     00024987  A$lcc1887681$281                   mg_leaves_update
     00024988  A$lcc1887681$282                   mg_leaves_update
     0002498A  A$lcc1887681$286                   mg_leaves_update
     0002498A  C$mg_leaves_update.c$49$3_0$186    mg_leaves_update
     0002498D  A$lcc1887681$287                   mg_leaves_update
     0002498F  A$lcc1887681$288                   mg_leaves_update
     00024990  A$lcc1887681$289                   mg_leaves_update
     00024992  A$lcc1887681$290                   mg_leaves_update
     00024993  A$lcc1887681$291                   mg_leaves_update
     00024994  A$lcc1887681$292                   mg_leaves_update
     00024995  A$lcc1887681$293                   mg_leaves_update
ASxxxx Linker V03.00/V05.40 + sdld,  page 169.
Hexadecimal  [32-Bits]

Area                                    Addr        Size        Decimal Bytes (Attributes)
--------------------------------        ----        ----        ------- ----- ------------
_CODE_2                             00024000    00000E08 =        3592. bytes (REL,CON)

      Value  Global                              Global Defined In Module
      -----  --------------------------------   ------------------------
     00024996  A$lcc1887681$294                   mg_leaves_update
     00024997  A$lcc1887681$298                   mg_leaves_update
     00024997  C$mg_leaves_update.c$50$3_0$186    mg_leaves_update
     00024998  A$lcc1887681$299                   mg_leaves_update
     0002499A  A$lcc1887681$300                   mg_leaves_update
     0002499B  A$lcc1887681$304                   mg_leaves_update
     0002499B  C$mg_leaves_update.c$51$3_0$186    mg_leaves_update
     0002499E  A$lcc1887681$305                   mg_leaves_update
     000249A0  A$lcc1887681$306                   mg_leaves_update
     000249A1  A$lcc1887681$307                   mg_leaves_update
     000249A3  A$lcc1887681$308                   mg_leaves_update
     000249A4  A$lcc1887681$309                   mg_leaves_update
     000249A6  A$lcc1887681$313                   mg_leaves_update
     000249A6  C$mg_leaves_update.c$53$3_0$186    mg_leaves_update
     000249A9  A$lcc1887681$314                   mg_leaves_update
     000249AB  A$lcc1887681$315                   mg_leaves_update
     000249AC  A$lcc1887681$316                   mg_leaves_update
     000249AE  A$lcc1887681$317                   mg_leaves_update
     000249AF  A$lcc1887681$318                   mg_leaves_update
     000249B1  A$lcc1887681$322                   mg_leaves_update
     000249B1  C$mg_leaves_update.c$54$3_0$186    mg_leaves_update
     000249B3  A$lcc1887681$323                   mg_leaves_update
     000249B4  A$lcc1887681$324                   mg_leaves_update
     000249B6  A$lcc1887681$325                   mg_leaves_update
     000249B8  A$lcc1887681$326                   mg_leaves_update
     000249BA  A$lcc1887681$327                   mg_leaves_update
     000249BD  A$lcc1887681$328                   mg_leaves_update
     000249BE  A$lcc1887681$329                   mg_leaves_update
     000249BF  A$lcc1887681$330                   mg_leaves_update
     000249C0  A$lcc1887681$331                   mg_leaves_update
     000249C2  A$lcc1887681$335                   mg_leaves_update
     000249C2  C$mg_leaves_update.c$56$3_0$186    mg_leaves_update
     000249C5  A$lcc1887681$336                   mg_leaves_update
     000249C7  A$lcc1887681$337                   mg_leaves_update
     000249C8  A$lcc1887681$338                   mg_leaves_update
     000249CA  A$lcc1887681$339                   mg_leaves_update
     000249CB  A$lcc1887681$340                   mg_leaves_update
     000249CC  A$lcc1887681$341                   mg_leaves_update
     000249CD  A$lcc1887681$342                   mg_leaves_update
     000249CF  A$lcc1887681$343                   mg_leaves_update
     000249D2  A$lcc1887681$344                   mg_leaves_update
     000249D3  A$lcc1887681$345                   mg_leaves_update
     000249D4  A$lcc1887681$346                   mg_leaves_update
     000249D6  A$lcc1887681$347                   mg_leaves_update
     000249D8  A$lcc1887681$348                   mg_leaves_update
     000249D9  A$lcc1887681$349                   mg_leaves_update
     000249DA  A$lcc1887681$350                   mg_leaves_update
     000249DB  A$lcc1887681$354                   mg_leaves_update
     000249DB  C$mg_leaves_update.c$57$3_0$186    mg_leaves_update
     000249DC  A$lcc1887681$355                   mg_leaves_update
     000249DE  A$lcc1887681$356                   mg_leaves_update
ASxxxx Linker V03.00/V05.40 + sdld,  page 170.
Hexadecimal  [32-Bits]

Area                                    Addr        Size        Decimal Bytes (Attributes)
--------------------------------        ----        ----        ------- ----- ------------
_CODE_2                             00024000    00000E08 =        3592. bytes (REL,CON)

      Value  Global                              Global Defined In Module
      -----  --------------------------------   ------------------------
     000249DF  A$lcc1887681$357                   mg_leaves_update
     000249E0  A$lcc1887681$358                   mg_leaves_update
     000249E3  A$lcc1887681$359                   mg_leaves_update
     000249E6  A$lcc1887681$360                   mg_leaves_update
     000249E9  A$lcc1887681$361                   mg_leaves_update
     000249EA  A$lcc1887681$366                   mg_leaves_update
     000249EC  A$lcc1887681$371                   mg_leaves_update
     000249EC  C$mg_leaves_update.c$59$2_0$183    mg_leaves_update
     000249EC  XG$spawn$0$0                       mg_leaves_update
     000249ED  A$lcc1887681$381                   mg_leaves_update
     000249ED  C$mg_leaves_update.c$61$2_0$188    mg_leaves_update
     000249ED  G$check_actor_status$0$0           mg_leaves_update
     000249ED  _check_actor_status                mg_leaves_update
     000249EF  A$lcc1887681$385                   mg_leaves_update
     000249EF  C$mg_leaves_update.c$63$5_0$191    mg_leaves_update
     000249F1  A$lcc1887681$387                   mg_leaves_update
     000249F2  A$lcc1887681$388                   mg_leaves_update
     000249F4  A$lcc1887681$389                   mg_leaves_update
     000249F7  A$lcc1887681$393                   mg_leaves_update
     000249F7  C$mg_leaves_update.c$65$3_0$189    mg_leaves_update
     000249F8  A$lcc1887681$394                   mg_leaves_update
     000249FA  A$lcc1887681$395                   mg_leaves_update
     000249FC  A$lcc1887681$396                   mg_leaves_update
     000249FD  A$lcc1887681$397                   mg_leaves_update
     000249FF  A$lcc1887681$398                   mg_leaves_update
     00024A00  A$lcc1887681$402                   mg_leaves_update
     00024A00  C$mg_leaves_update.c$67$3_0$189    mg_leaves_update
     00024A01  A$lcc1887681$403                   mg_leaves_update
     00024A02  A$lcc1887681$404                   mg_leaves_update
     00024A05  A$lcc1887681$405                   mg_leaves_update
     00024A06  A$lcc1887681$409                   mg_leaves_update
     00024A06  C$mg_leaves_update.c$69$2_0$188    mg_leaves_update
     00024A09  A$lcc1887681$410                   mg_leaves_update
     00024A0A  A$lcc1887681$411                   mg_leaves_update
     00024A0C  A$lcc1887681$412                   mg_leaves_update
     00024A0D  A$lcc1887681$413                   mg_leaves_update
     00024A0E  A$lcc1887681$414                   mg_leaves_update
     00024A0F  A$lcc1887681$415                   mg_leaves_update
     00024A10  A$lcc1887681$416                   mg_leaves_update
     00024A11  A$lcc1887681$417                   mg_leaves_update
     00024A12  A$lcc1887681$418                   mg_leaves_update
     00024A13  A$lcc1887681$419                   mg_leaves_update
     00024A14  A$lcc1887681$420                   mg_leaves_update
     00024A16  A$lcc1887681$424                   mg_leaves_update
     00024A16  C$mg_leaves_update.c$71$6_0$191    mg_leaves_update
     00024A18  A$lcc1887681$428                   mg_leaves_update
     00024A18  C$mg_leaves_update.c$72$6_0$192    mg_leaves_update
     00024A1A  A$lcc1887681$429                   mg_leaves_update
     00024A1B  A$lcc1887681$430                   mg_leaves_update
     00024A1C  A$lcc1887681$431                   mg_leaves_update
     00024A1E  A$lcc1887681$435                   mg_leaves_update
ASxxxx Linker V03.00/V05.40 + sdld,  page 171.
Hexadecimal  [32-Bits]

Area                                    Addr        Size        Decimal Bytes (Attributes)
--------------------------------        ----        ----        ------- ----- ------------
_CODE_2                             00024000    00000E08 =        3592. bytes (REL,CON)

      Value  Global                              Global Defined In Module
      -----  --------------------------------   ------------------------
     00024A1E  C$mg_leaves_update.c$73$6_0$192    mg_leaves_update
     00024A20  A$lcc1887681$440                   mg_leaves_update
     00024A20  C$mg_leaves_update.c$75$5_0$191    mg_leaves_update
     00024A21  A$lcc1887681$441                   mg_leaves_update
     00024A23  A$lcc1887681$442                   mg_leaves_update
     00024A24  A$lcc1887681$443                   mg_leaves_update
     00024A25  A$lcc1887681$444                   mg_leaves_update
     00024A26  A$lcc1887681$445                   mg_leaves_update
     00024A29  A$lcc1887681$446                   mg_leaves_update
     00024A2A  A$lcc1887681$447                   mg_leaves_update
     00024A2B  A$lcc1887681$448                   mg_leaves_update
     00024A2C  A$lcc1887681$449                   mg_leaves_update
     00024A2E  A$lcc1887681$450                   mg_leaves_update
     00024A2F  A$lcc1887681$451                   mg_leaves_update
     00024A30  A$lcc1887681$452                   mg_leaves_update
     00024A31  A$lcc1887681$453                   mg_leaves_update
     00024A33  A$lcc1887681$454                   mg_leaves_update
     00024A34  A$lcc1887681$455                   mg_leaves_update
     00024A35  A$lcc1887681$456                   mg_leaves_update
     00024A36  A$lcc1887681$457                   mg_leaves_update
     00024A37  A$lcc1887681$458                   mg_leaves_update
     00024A38  A$lcc1887681$459                   mg_leaves_update
     00024A39  A$lcc1887681$460                   mg_leaves_update
     00024A3A  A$lcc1887681$461                   mg_leaves_update
     00024A3B  A$lcc1887681$462                   mg_leaves_update
     00024A3C  A$lcc1887681$463                   mg_leaves_update
     00024A3D  A$lcc1887681$464                   mg_leaves_update
     00024A3E  A$lcc1887681$465                   mg_leaves_update
     00024A40  A$lcc1887681$466                   mg_leaves_update
     00024A41  A$lcc1887681$467                   mg_leaves_update
     00024A42  A$lcc1887681$468                   mg_leaves_update
     00024A43  A$lcc1887681$469                   mg_leaves_update
     00024A45  A$lcc1887681$470                   mg_leaves_update
     00024A46  A$lcc1887681$471                   mg_leaves_update
     00024A47  A$lcc1887681$472                   mg_leaves_update
     00024A48  A$lcc1887681$473                   mg_leaves_update
     00024A4A  A$lcc1887681$474                   mg_leaves_update
     00024A4B  A$lcc1887681$475                   mg_leaves_update
     00024A4C  A$lcc1887681$476                   mg_leaves_update
     00024A4D  A$lcc1887681$477                   mg_leaves_update
     00024A4E  A$lcc1887681$478                   mg_leaves_update
     00024A4F  A$lcc1887681$479                   mg_leaves_update
     00024A50  A$lcc1887681$480                   mg_leaves_update
     00024A51  A$lcc1887681$481                   mg_leaves_update
     00024A52  A$lcc1887681$482                   mg_leaves_update
     00024A53  A$lcc1887681$486                   mg_leaves_update
     00024A53  C$mg_leaves_update.c$76$5_0$191    mg_leaves_update
     00024A56  A$lcc1887681$487                   mg_leaves_update
     00024A58  A$lcc1887681$488                   mg_leaves_update
     00024A59  A$lcc1887681$489                   mg_leaves_update
     00024A5A  A$lcc1887681$490                   mg_leaves_update
ASxxxx Linker V03.00/V05.40 + sdld,  page 172.
Hexadecimal  [32-Bits]

Area                                    Addr        Size        Decimal Bytes (Attributes)
--------------------------------        ----        ----        ------- ----- ------------
_CODE_2                             00024000    00000E08 =        3592. bytes (REL,CON)

      Value  Global                              Global Defined In Module
      -----  --------------------------------   ------------------------
     00024A5C  A$lcc1887681$491                   mg_leaves_update
     00024A5D  A$lcc1887681$492                   mg_leaves_update
     00024A5E  A$lcc1887681$493                   mg_leaves_update
     00024A5F  A$lcc1887681$498                   mg_leaves_update
     00024A5F  C$mg_leaves_update.c$79$4_0$193    mg_leaves_update
     00024A62  A$lcc1887681$499                   mg_leaves_update
     00024A63  A$lcc1887681$500                   mg_leaves_update
     00024A65  A$lcc1887681$504                   mg_leaves_update
     00024A66  A$lcc1887681$505                   mg_leaves_update
     00024A67  A$lcc1887681$506                   mg_leaves_update
     00024A68  A$lcc1887681$510                   mg_leaves_update
     00024A68  C$mg_leaves_update.c$82$2_0$188    mg_leaves_update
     00024A6B  A$lcc1887681$511                   mg_leaves_update
     00024A6C  A$lcc1887681$515                   mg_leaves_update
     00024A6C  C$mg_leaves_update.c$81$6_0$195    mg_leaves_update
     00024A6E  A$lcc1887681$516                   mg_leaves_update
     00024A70  A$lcc1887681$520                   mg_leaves_update
     00024A70  C$mg_leaves_update.c$82$6_0$195    mg_leaves_update
     00024A73  A$lcc1887681$521                   mg_leaves_update
     00024A75  A$lcc1887681$522                   mg_leaves_update
     00024A76  A$lcc1887681$523                   mg_leaves_update
     00024A78  A$lcc1887681$524                   mg_leaves_update
     00024A79  A$lcc1887681$525                   mg_leaves_update
     00024A7A  A$lcc1887681$526                   mg_leaves_update
     00024A7C  A$lcc1887681$527                   mg_leaves_update
     00024A7E  A$lcc1887681$528                   mg_leaves_update
     00024A7F  A$lcc1887681$529                   mg_leaves_update
     00024A80  A$lcc1887681$530                   mg_leaves_update
     00024A82  A$lcc1887681$531                   mg_leaves_update
     00024A83  A$lcc1887681$532                   mg_leaves_update
     00024A85  A$lcc1887681$537                   mg_leaves_update
     00024A85  C$mg_leaves_update.c$83$7_0$196    mg_leaves_update
     00024A87  A$lcc1887681$538                   mg_leaves_update
     00024A89  A$lcc1887681$542                   mg_leaves_update
     00024A89  C$mg_leaves_update.c$84$7_0$196    mg_leaves_update
     00024A8C  A$lcc1887681$543                   mg_leaves_update
     00024A8E  A$lcc1887681$544                   mg_leaves_update
     00024A8F  A$lcc1887681$545                   mg_leaves_update
     00024A91  A$lcc1887681$546                   mg_leaves_update
     00024A92  A$lcc1887681$547                   mg_leaves_update
     00024A93  A$lcc1887681$548                   mg_leaves_update
     00024A95  A$lcc1887681$549                   mg_leaves_update
     00024A97  A$lcc1887681$550                   mg_leaves_update
     00024A98  A$lcc1887681$551                   mg_leaves_update
     00024A99  A$lcc1887681$552                   mg_leaves_update
     00024A9B  A$lcc1887681$553                   mg_leaves_update
     00024A9C  A$lcc1887681$558                   mg_leaves_update
     00024A9C  C$mg_leaves_update.c$87$3_0$189    mg_leaves_update
     00024A9F  A$lcc1887681$559                   mg_leaves_update
     00024AA1  A$lcc1887681$560                   mg_leaves_update
     00024AA2  A$lcc1887681$561                   mg_leaves_update
ASxxxx Linker V03.00/V05.40 + sdld,  page 173.
Hexadecimal  [32-Bits]

Area                                    Addr        Size        Decimal Bytes (Attributes)
--------------------------------        ----        ----        ------- ----- ------------
_CODE_2                             00024000    00000E08 =        3592. bytes (REL,CON)

      Value  Global                              Global Defined In Module
      -----  --------------------------------   ------------------------
     00024AA3  A$lcc1887681$562                   mg_leaves_update
     00024AA6  A$lcc1887681$563                   mg_leaves_update
     00024AA8  A$lcc1887681$564                   mg_leaves_update
     00024AA9  A$lcc1887681$565                   mg_leaves_update
     00024AAA  A$lcc1887681$566                   mg_leaves_update
     00024AAD  A$lcc1887681$567                   mg_leaves_update
     00024AAF  A$lcc1887681$568                   mg_leaves_update
     00024AB0  A$lcc1887681$569                   mg_leaves_update
     00024AB1  A$lcc1887681$570                   mg_leaves_update
     00024AB2  A$lcc1887681$571                   mg_leaves_update
     00024AB4  A$lcc1887681$572                   mg_leaves_update
     00024AB5  A$lcc1887681$573                   mg_leaves_update
     00024AB6  A$lcc1887681$574                   mg_leaves_update
     00024AB8  A$lcc1887681$575                   mg_leaves_update
     00024AB9  A$lcc1887681$576                   mg_leaves_update
     00024ABA  A$lcc1887681$577                   mg_leaves_update
     00024ABD  A$lcc1887681$578                   mg_leaves_update
     00024ABE  A$lcc1887681$582                   mg_leaves_update
     00024ABE  C$mg_leaves_update.c$63$2_0$188    mg_leaves_update
     00024ABF  A$lcc1887681$583                   mg_leaves_update
     00024AC2  A$lcc1887681$588                   mg_leaves_update
     00024AC4  A$lcc1887681$593                   mg_leaves_update
     00024AC4  C$mg_leaves_update.c$89$2_0$188    mg_leaves_update
     00024AC4  XG$check_actor_status$0$0          mg_leaves_update
     00024AC5  A$lcc1887681$603                   mg_leaves_update
     00024AC5  C$mg_leaves_update.c$91$2_0$198    mg_leaves_update
     00024AC5  G$check_actor_collision$0$0        mg_leaves_update
     00024AC5  _check_actor_collision             mg_leaves_update
     00024AC7  A$lcc1887681$607                   mg_leaves_update
     00024AC7  C$mg_leaves_update.c$93$5_1$208    mg_leaves_update
     00024AC9  A$lcc1887681$608                   mg_leaves_update
     00024ACB  A$lcc1887681$610                   mg_leaves_update
     00024ACD  A$lcc1887681$611                   mg_leaves_update
     00024ACE  A$lcc1887681$612                   mg_leaves_update
     00024AD0  A$lcc1887681$613                   mg_leaves_update
     00024AD3  A$lcc1887681$617                   mg_leaves_update
     00024AD3  C$mg_leaves_update.c$95$2_0$198    mg_leaves_update
     00024AD6  A$lcc1887681$618                   mg_leaves_update
     00024AD7  A$lcc1887681$619                   mg_leaves_update
     00024AD9  A$lcc1887681$620                   mg_leaves_update
     00024ADA  A$lcc1887681$621                   mg_leaves_update
     00024ADB  A$lcc1887681$622                   mg_leaves_update
     00024ADC  A$lcc1887681$623                   mg_leaves_update
     00024ADD  A$lcc1887681$624                   mg_leaves_update
     00024ADE  A$lcc1887681$625                   mg_leaves_update
     00024ADF  A$lcc1887681$626                   mg_leaves_update
     00024AE0  A$lcc1887681$627                   mg_leaves_update
     00024AE2  A$lcc1887681$628                   mg_leaves_update
     00024AE3  A$lcc1887681$629                   mg_leaves_update
     00024AE4  A$lcc1887681$630                   mg_leaves_update
     00024AE7  A$lcc1887681$631                   mg_leaves_update
ASxxxx Linker V03.00/V05.40 + sdld,  page 174.
Hexadecimal  [32-Bits]

Area                                    Addr        Size        Decimal Bytes (Attributes)
--------------------------------        ----        ----        ------- ----- ------------
_CODE_2                             00024000    00000E08 =        3592. bytes (REL,CON)

      Value  Global                              Global Defined In Module
      -----  --------------------------------   ------------------------
     00024AE8  A$lcc1887681$632                   mg_leaves_update
     00024AEB  A$lcc1887681$633                   mg_leaves_update
     00024AEC  A$lcc1887681$634                   mg_leaves_update
     00024AEE  A$lcc1887681$635                   mg_leaves_update
     00024AEF  A$lcc1887681$636                   mg_leaves_update
     00024AF0  A$lcc1887681$637                   mg_leaves_update
     00024AF1  A$lcc1887681$638                   mg_leaves_update
     00024AF3  A$lcc1887681$639                   mg_leaves_update
     00024AF4  A$lcc1887681$640                   mg_leaves_update
     00024AF5  A$lcc1887681$641                   mg_leaves_update
     00024AF6  A$lcc1887681$642                   mg_leaves_update
     00024AF8  A$lcc1887681$643                   mg_leaves_update
     00024AF9  A$lcc1887681$644                   mg_leaves_update
     00024AFA  A$lcc1887681$645                   mg_leaves_update
     00024AFB  A$lcc1887681$646                   mg_leaves_update
     00024AFC  A$lcc1887681$647                   mg_leaves_update
     00024AFD  A$lcc1887681$648                   mg_leaves_update
     00024AFF  A$lcc1887681$649                   mg_leaves_update
     00024B02  A$lcc1887681$653                   mg_leaves_update
     00024B02  C$mg_leaves_update.c$98$4_0$201    mg_leaves_update
     00024B03  A$lcc1887681$654                   mg_leaves_update
     00024B05  A$lcc1887681$658                   mg_leaves_update
     00024B05  C$mg_leaves_update.c$100$6_0$203   mg_leaves_update
     00024B08  A$lcc1887681$659                   mg_leaves_update
     00024B0A  A$lcc1887681$660                   mg_leaves_update
     00024B0B  A$lcc1887681$661                   mg_leaves_update
     00024B0D  A$lcc1887681$662                   mg_leaves_update
     00024B0E  A$lcc1887681$663                   mg_leaves_update
     00024B0F  A$lcc1887681$664                   mg_leaves_update
     00024B10  A$lcc1887681$665                   mg_leaves_update
     00024B12  A$lcc1887681$666                   mg_leaves_update
     00024B13  A$lcc1887681$667                   mg_leaves_update
     00024B14  A$lcc1887681$668                   mg_leaves_update
     00024B15  A$lcc1887681$669                   mg_leaves_update
     00024B17  A$lcc1887681$670                   mg_leaves_update
     00024B18  A$lcc1887681$671                   mg_leaves_update
     00024B19  A$lcc1887681$672                   mg_leaves_update
     00024B1A  A$lcc1887681$673                   mg_leaves_update
     00024B1B  A$lcc1887681$674                   mg_leaves_update
     00024B1C  A$lcc1887681$675                   mg_leaves_update
     00024B1D  A$lcc1887681$676                   mg_leaves_update
     00024B1E  A$lcc1887681$677                   mg_leaves_update
     00024B21  A$lcc1887681$678                   mg_leaves_update
     00024B22  A$lcc1887681$679                   mg_leaves_update
     00024B24  A$lcc1887681$680                   mg_leaves_update
     00024B25  A$lcc1887681$681                   mg_leaves_update
     00024B26  A$lcc1887681$682                   mg_leaves_update
     00024B29  A$lcc1887681$686                   mg_leaves_update
     00024B29  C$mg_leaves_update.c$102$7_0$204   mg_leaves_update
     00024B2B  A$lcc1887681$687                   mg_leaves_update
     00024B2C  A$lcc1887681$688                   mg_leaves_update
ASxxxx Linker V03.00/V05.40 + sdld,  page 175.
Hexadecimal  [32-Bits]

Area                                    Addr        Size        Decimal Bytes (Attributes)
--------------------------------        ----        ----        ------- ----- ------------
_CODE_2                             00024000    00000E08 =        3592. bytes (REL,CON)

      Value  Global                              Global Defined In Module
      -----  --------------------------------   ------------------------
     00024B2D  A$lcc1887681$689                   mg_leaves_update
     00024B2E  A$lcc1887681$690                   mg_leaves_update
     00024B30  A$lcc1887681$694                   mg_leaves_update
     00024B30  C$mg_leaves_update.c$103$7_0$204   mg_leaves_update
     00024B33  A$lcc1887681$695                   mg_leaves_update
     00024B35  A$lcc1887681$696                   mg_leaves_update
     00024B36  A$lcc1887681$697                   mg_leaves_update
     00024B37  A$lcc1887681$698                   mg_leaves_update
     00024B38  A$lcc1887681$699                   mg_leaves_update
     00024B39  A$lcc1887681$700                   mg_leaves_update
     00024B3A  A$lcc1887681$708                   mg_leaves_update
     00024B3A  C$mg_leaves_update.c$106$4_0$201   mg_leaves_update
     00024B3A  C$mg_leaves_update.c$109$4_0$205   mg_leaves_update
     00024B3C  A$lcc1887681$709                   mg_leaves_update
     00024B3D  A$lcc1887681$710                   mg_leaves_update
     00024B40  A$lcc1887681$711                   mg_leaves_update
     00024B41  A$lcc1887681$712                   mg_leaves_update
     00024B43  A$lcc1887681$716                   mg_leaves_update
     00024B43  C$mg_leaves_update.c$110$4_0$205   mg_leaves_update
     00024B45  A$lcc1887681$717                   mg_leaves_update
     00024B46  A$lcc1887681$718                   mg_leaves_update
     00024B47  A$lcc1887681$719                   mg_leaves_update
     00024B48  A$lcc1887681$720                   mg_leaves_update
     00024B4A  A$lcc1887681$725                   mg_leaves_update
     00024B4A  C$mg_leaves_update.c$112$3_1$206   mg_leaves_update
     00024B4C  A$lcc1887681$726                   mg_leaves_update
     00024B4D  A$lcc1887681$727                   mg_leaves_update
     00024B4F  A$lcc1887681$728                   mg_leaves_update
     00024B51  A$lcc1887681$729                   mg_leaves_update
     00024B52  A$lcc1887681$730                   mg_leaves_update
     00024B54  A$lcc1887681$734                   mg_leaves_update
     00024B55  A$lcc1887681$735                   mg_leaves_update
     00024B56  A$lcc1887681$736                   mg_leaves_update
     00024B57  A$lcc1887681$737                   mg_leaves_update
     00024B58  A$lcc1887681$738                   mg_leaves_update
     00024B59  A$lcc1887681$739                   mg_leaves_update
     00024B5A  A$lcc1887681$743                   mg_leaves_update
     00024B5A  C$mg_leaves_update.c$120$2_0$198   mg_leaves_update
     00024B5C  A$lcc1887681$744                   mg_leaves_update
     00024B5D  A$lcc1887681$745                   mg_leaves_update
     00024B5E  A$lcc1887681$746                   mg_leaves_update
     00024B5F  A$lcc1887681$747                   mg_leaves_update
     00024B61  A$lcc1887681$748                   mg_leaves_update
     00024B63  A$lcc1887681$749                   mg_leaves_update
     00024B65  A$lcc1887681$750                   mg_leaves_update
     00024B66  A$lcc1887681$751                   mg_leaves_update
     00024B67  A$lcc1887681$752                   mg_leaves_update
     00024B68  A$lcc1887681$756                   mg_leaves_update
     00024B68  C$mg_leaves_update.c$114$4_1$207   mg_leaves_update
     00024B6A  A$lcc1887681$757                   mg_leaves_update
     00024B6C  A$lcc1887681$758                   mg_leaves_update
ASxxxx Linker V03.00/V05.40 + sdld,  page 176.
Hexadecimal  [32-Bits]

Area                                    Addr        Size        Decimal Bytes (Attributes)
--------------------------------        ----        ----        ------- ----- ------------
_CODE_2                             00024000    00000E08 =        3592. bytes (REL,CON)

      Value  Global                              Global Defined In Module
      -----  --------------------------------   ------------------------
     00024B6D  A$lcc1887681$759                   mg_leaves_update
     00024B70  A$lcc1887681$760                   mg_leaves_update
     00024B71  A$lcc1887681$761                   mg_leaves_update
     00024B73  A$lcc1887681$762                   mg_leaves_update
     00024B74  A$lcc1887681$763                   mg_leaves_update
     00024B75  A$lcc1887681$764                   mg_leaves_update
     00024B76  A$lcc1887681$765                   mg_leaves_update
     00024B77  A$lcc1887681$766                   mg_leaves_update
     00024B78  A$lcc1887681$767                   mg_leaves_update
     00024B7B  A$lcc1887681$768                   mg_leaves_update
     00024B7C  A$lcc1887681$769                   mg_leaves_update
     00024B7E  A$lcc1887681$773                   mg_leaves_update
     00024B7E  C$mg_leaves_update.c$116$5_1$208   mg_leaves_update
     00024B80  A$lcc1887681$774                   mg_leaves_update
     00024B81  A$lcc1887681$775                   mg_leaves_update
     00024B82  A$lcc1887681$776                   mg_leaves_update
     00024B83  A$lcc1887681$777                   mg_leaves_update
     00024B85  A$lcc1887681$781                   mg_leaves_update
     00024B85  C$mg_leaves_update.c$117$5_1$208   mg_leaves_update
     00024B86  A$lcc1887681$782                   mg_leaves_update
     00024B88  A$lcc1887681$783                   mg_leaves_update
     00024B89  A$lcc1887681$787                   mg_leaves_update
     00024B89  C$mg_leaves_update.c$119$5_1$208   mg_leaves_update
     00024B8C  A$lcc1887681$788                   mg_leaves_update
     00024B8E  A$lcc1887681$789                   mg_leaves_update
     00024B8F  A$lcc1887681$790                   mg_leaves_update
     00024B91  A$lcc1887681$791                   mg_leaves_update
     00024B92  A$lcc1887681$792                   mg_leaves_update
     00024B93  A$lcc1887681$793                   mg_leaves_update
     00024B94  A$lcc1887681$794                   mg_leaves_update
     00024B95  A$lcc1887681$795                   mg_leaves_update
     00024B96  A$lcc1887681$799                   mg_leaves_update
     00024B96  C$mg_leaves_update.c$120$5_1$208   mg_leaves_update
     00024B99  A$lcc1887681$800                   mg_leaves_update
     00024B9B  A$lcc1887681$801                   mg_leaves_update
     00024B9C  A$lcc1887681$802                   mg_leaves_update
     00024B9D  A$lcc1887681$803                   mg_leaves_update
     00024B9E  A$lcc1887681$804                   mg_leaves_update
     00024B9F  A$lcc1887681$805                   mg_leaves_update
     00024BA0  A$lcc1887681$806                   mg_leaves_update
     00024BA1  A$lcc1887681$807                   mg_leaves_update
     00024BA2  A$lcc1887681$808                   mg_leaves_update
     00024BA3  A$lcc1887681$809                   mg_leaves_update
     00024BA4  A$lcc1887681$810                   mg_leaves_update
     00024BA5  A$lcc1887681$814                   mg_leaves_update
     00024BA8  A$lcc1887681$815                   mg_leaves_update
     00024BA9  A$lcc1887681$819                   mg_leaves_update
     00024BA9  C$mg_leaves_update.c$122$6_1$209   mg_leaves_update
     00024BAB  A$lcc1887681$820                   mg_leaves_update
     00024BAC  A$lcc1887681$821                   mg_leaves_update
     00024BAD  A$lcc1887681$822                   mg_leaves_update
ASxxxx Linker V03.00/V05.40 + sdld,  page 177.
Hexadecimal  [32-Bits]

Area                                    Addr        Size        Decimal Bytes (Attributes)
--------------------------------        ----        ----        ------- ----- ------------
_CODE_2                             00024000    00000E08 =        3592. bytes (REL,CON)

      Value  Global                              Global Defined In Module
      -----  --------------------------------   ------------------------
     00024BAF  A$lcc1887681$826                   mg_leaves_update
     00024BAF  C$mg_leaves_update.c$123$6_1$209   mg_leaves_update
     00024BB0  A$lcc1887681$827                   mg_leaves_update
     00024BB2  A$lcc1887681$828                   mg_leaves_update
     00024BB5  A$lcc1887681$829                   mg_leaves_update
     00024BB7  A$lcc1887681$834                   mg_leaves_update
     00024BB7  C$mg_leaves_update.c$125$6_1$209   mg_leaves_update
     00024BB8  A$lcc1887681$835                   mg_leaves_update
     00024BBA  A$lcc1887681$836                   mg_leaves_update
     00024BBD  A$lcc1887681$841                   mg_leaves_update
     00024BBD  C$mg_leaves_update.c$128$4_1$210   mg_leaves_update
     00024BBF  A$lcc1887681$842                   mg_leaves_update
     00024BC0  A$lcc1887681$843                   mg_leaves_update
     00024BC1  A$lcc1887681$844                   mg_leaves_update
     00024BC2  A$lcc1887681$845                   mg_leaves_update
     00024BC3  A$lcc1887681$846                   mg_leaves_update
     00024BC5  A$lcc1887681$847                   mg_leaves_update
     00024BC7  A$lcc1887681$848                   mg_leaves_update
     00024BCA  A$lcc1887681$849                   mg_leaves_update
     00024BCC  A$lcc1887681$850                   mg_leaves_update
     00024BCD  A$lcc1887681$851                   mg_leaves_update
     00024BCF  A$lcc1887681$852                   mg_leaves_update
     00024BD0  A$lcc1887681$853                   mg_leaves_update
     00024BD1  A$lcc1887681$854                   mg_leaves_update
     00024BD2  A$lcc1887681$855                   mg_leaves_update
     00024BD3  A$lcc1887681$856                   mg_leaves_update
     00024BD6  A$lcc1887681$857                   mg_leaves_update
     00024BD7  A$lcc1887681$858                   mg_leaves_update
     00024BD8  A$lcc1887681$859                   mg_leaves_update
     00024BDA  A$lcc1887681$863                   mg_leaves_update
     00024BDA  C$mg_leaves_update.c$130$5_1$211   mg_leaves_update
     00024BDC  A$lcc1887681$864                   mg_leaves_update
     00024BDD  A$lcc1887681$865                   mg_leaves_update
     00024BDE  A$lcc1887681$866                   mg_leaves_update
     00024BDF  A$lcc1887681$867                   mg_leaves_update
     00024BE1  A$lcc1887681$871                   mg_leaves_update
     00024BE1  C$mg_leaves_update.c$131$5_1$211   mg_leaves_update
     00024BE2  A$lcc1887681$872                   mg_leaves_update
     00024BE4  A$lcc1887681$873                   mg_leaves_update
     00024BE5  A$lcc1887681$877                   mg_leaves_update
     00024BE5  C$mg_leaves_update.c$133$5_1$211   mg_leaves_update
     00024BE8  A$lcc1887681$878                   mg_leaves_update
     00024BEA  A$lcc1887681$879                   mg_leaves_update
     00024BEB  A$lcc1887681$880                   mg_leaves_update
     00024BED  A$lcc1887681$881                   mg_leaves_update
     00024BEE  A$lcc1887681$882                   mg_leaves_update
     00024BEF  A$lcc1887681$883                   mg_leaves_update
     00024BF0  A$lcc1887681$884                   mg_leaves_update
     00024BF2  A$lcc1887681$885                   mg_leaves_update
     00024BF3  A$lcc1887681$886                   mg_leaves_update
     00024BF4  A$lcc1887681$887                   mg_leaves_update
ASxxxx Linker V03.00/V05.40 + sdld,  page 178.
Hexadecimal  [32-Bits]

Area                                    Addr        Size        Decimal Bytes (Attributes)
--------------------------------        ----        ----        ------- ----- ------------
_CODE_2                             00024000    00000E08 =        3592. bytes (REL,CON)

      Value  Global                              Global Defined In Module
      -----  --------------------------------   ------------------------
     00024BF5  A$lcc1887681$888                   mg_leaves_update
     00024BF7  A$lcc1887681$889                   mg_leaves_update
     00024BF8  A$lcc1887681$890                   mg_leaves_update
     00024BF9  A$lcc1887681$891                   mg_leaves_update
     00024BFA  A$lcc1887681$892                   mg_leaves_update
     00024BFB  A$lcc1887681$893                   mg_leaves_update
     00024BFD  A$lcc1887681$897                   mg_leaves_update
     00024BFD  C$mg_leaves_update.c$134$5_1$211   mg_leaves_update
     00024BFF  A$lcc1887681$898                   mg_leaves_update
     00024C00  A$lcc1887681$899                   mg_leaves_update
     00024C01  A$lcc1887681$900                   mg_leaves_update
     00024C02  A$lcc1887681$901                   mg_leaves_update
     00024C05  A$lcc1887681$902                   mg_leaves_update
     00024C06  A$lcc1887681$903                   mg_leaves_update
     00024C07  A$lcc1887681$904                   mg_leaves_update
     00024C08  A$lcc1887681$905                   mg_leaves_update
     00024C0A  A$lcc1887681$906                   mg_leaves_update
     00024C0B  A$lcc1887681$907                   mg_leaves_update
     00024C0C  A$lcc1887681$908                   mg_leaves_update
     00024C0D  A$lcc1887681$909                   mg_leaves_update
     00024C0F  A$lcc1887681$910                   mg_leaves_update
     00024C10  A$lcc1887681$911                   mg_leaves_update
     00024C11  A$lcc1887681$912                   mg_leaves_update
     00024C12  A$lcc1887681$913                   mg_leaves_update
     00024C13  A$lcc1887681$914                   mg_leaves_update
     00024C14  A$lcc1887681$915                   mg_leaves_update
     00024C15  A$lcc1887681$916                   mg_leaves_update
     00024C16  A$lcc1887681$920                   mg_leaves_update
     00024C16  C$mg_leaves_update.c$123$2_0$198   mg_leaves_update
     00024C19  A$lcc1887681$921                   mg_leaves_update
     00024C1B  A$lcc1887681$925                   mg_leaves_update
     00024C1B  C$mg_leaves_update.c$136$6_1$212   mg_leaves_update
     00024C1C  A$lcc1887681$926                   mg_leaves_update
     00024C1D  A$lcc1887681$927                   mg_leaves_update
     00024C1E  A$lcc1887681$928                   mg_leaves_update
     00024C1F  A$lcc1887681$929                   mg_leaves_update
     00024C21  A$lcc1887681$933                   mg_leaves_update
     00024C21  C$mg_leaves_update.c$137$6_1$212   mg_leaves_update
     00024C22  A$lcc1887681$934                   mg_leaves_update
     00024C23  A$lcc1887681$935                   mg_leaves_update
     00024C24  A$lcc1887681$936                   mg_leaves_update
     00024C26  A$lcc1887681$937                   mg_leaves_update
     00024C29  A$lcc1887681$938                   mg_leaves_update
     00024C2B  A$lcc1887681$943                   mg_leaves_update
     00024C2B  C$mg_leaves_update.c$139$6_1$212   mg_leaves_update
     00024C2D  A$lcc1887681$944                   mg_leaves_update
     00024C2E  A$lcc1887681$945                   mg_leaves_update
     00024C30  A$lcc1887681$946                   mg_leaves_update
     00024C33  A$lcc1887681$951                   mg_leaves_update
     00024C33  C$mg_leaves_update.c$93$2_0$198    mg_leaves_update
     00024C35  A$lcc1887681$952                   mg_leaves_update
ASxxxx Linker V03.00/V05.40 + sdld,  page 179.
Hexadecimal  [32-Bits]

Area                                    Addr        Size        Decimal Bytes (Attributes)
--------------------------------        ----        ----        ------- ----- ------------
_CODE_2                             00024000    00000E08 =        3592. bytes (REL,CON)

      Value  Global                              Global Defined In Module
      -----  --------------------------------   ------------------------
     00024C36  A$lcc1887681$953                   mg_leaves_update
     00024C39  A$lcc1887681$958                   mg_leaves_update
     00024C3B  A$lcc1887681$963                   mg_leaves_update
     00024C3B  C$mg_leaves_update.c$142$2_0$198   mg_leaves_update
     00024C3B  XG$check_actor_collision$0$0       mg_leaves_update
     00024C3C  A$lcc1887681$973                   mg_leaves_update
     00024C3C  C$mg_leaves_update.c$144$2_0$214   mg_leaves_update
     00024C3C  G$Mg_Leaves_Update$0$0             mg_leaves_update
     00024C3C  _Mg_Leaves_Update                  mg_leaves_update
     00024C3E  A$lcc1887681$977                   mg_leaves_update
     00024C3E  C$mg_leaves_update.c$146$1_0$214   mg_leaves_update
     00024C41  A$lcc1887681$981                   mg_leaves_update
     00024C41  C$mg_leaves_update.c$148$2_0$215   mg_leaves_update
     00024C44  A$lcc1887681$982                   mg_leaves_update
     00024C45  A$lcc1887681$983                   mg_leaves_update
     00024C47  A$lcc1887681$987                   mg_leaves_update
     00024C47  C$mg_leaves_update.c$150$3_0$216   mg_leaves_update
     00024C4A  A$lcc1887681$991                   mg_leaves_update
     00024C4A  C$mg_leaves_update.c$152$1_1$214   mg_leaves_update
     00024C4C  A$lcc1887681$992                   mg_leaves_update
     00024C4E  A$lcc1887681$994                   mg_leaves_update
     00024C50  A$lcc1887681$995                   mg_leaves_update
     00024C51  A$lcc1887681$996                   mg_leaves_update
     00024C52  A$lcc1887681$997                   mg_leaves_update
     00024C53  A$lcc1887681$998                   mg_leaves_update
     00024C54  A$lcc1887681$999                   mg_leaves_update
     00024C55  A$lcc1887681$1000                  mg_leaves_update
     00024C58  A$lcc1887681$1001                  mg_leaves_update
     00024C59  A$lcc1887681$1002                  mg_leaves_update
     00024C5B  A$lcc1887681$1003                  mg_leaves_update
     00024C5C  A$lcc1887681$1004                  mg_leaves_update
     00024C5D  A$lcc1887681$1005                  mg_leaves_update
     00024C5E  A$lcc1887681$1006                  mg_leaves_update
     00024C5F  A$lcc1887681$1007                  mg_leaves_update
     00024C60  A$lcc1887681$1008                  mg_leaves_update
     00024C61  A$lcc1887681$1009                  mg_leaves_update
     00024C63  A$lcc1887681$1010                  mg_leaves_update
     00024C65  A$lcc1887681$1011                  mg_leaves_update
     00024C67  A$lcc1887681$1012                  mg_leaves_update
     00024C69  A$lcc1887681$1013                  mg_leaves_update
     00024C6A  A$lcc1887681$1014                  mg_leaves_update
     00024C6C  A$lcc1887681$1016                  mg_leaves_update
     00024C6E  A$lcc1887681$1017                  mg_leaves_update
     00024C70  A$lcc1887681$1018                  mg_leaves_update
     00024C71  A$lcc1887681$1020                  mg_leaves_update
     00024C73  A$lcc1887681$1024                  mg_leaves_update
     00024C73  C$mg_leaves_update.c$153$4_0$217   mg_leaves_update
     00024C76  A$lcc1887681$1025                  mg_leaves_update
     00024C77  A$lcc1887681$1026                  mg_leaves_update
     00024C79  A$lcc1887681$1027                  mg_leaves_update
     00024C7A  A$lcc1887681$1028                  mg_leaves_update
ASxxxx Linker V03.00/V05.40 + sdld,  page 180.
Hexadecimal  [32-Bits]

Area                                    Addr        Size        Decimal Bytes (Attributes)
--------------------------------        ----        ----        ------- ----- ------------
_CODE_2                             00024000    00000E08 =        3592. bytes (REL,CON)

      Value  Global                              Global Defined In Module
      -----  --------------------------------   ------------------------
     00024C7B  A$lcc1887681$1029                  mg_leaves_update
     00024C7D  A$lcc1887681$1030                  mg_leaves_update
     00024C7F  A$lcc1887681$1031                  mg_leaves_update
     00024C80  A$lcc1887681$1032                  mg_leaves_update
     00024C83  A$lcc1887681$1036                  mg_leaves_update
     00024C83  C$mg_leaves_update.c$152$4_0$217   mg_leaves_update
     00024C85  A$lcc1887681$1037                  mg_leaves_update
     00024C86  A$lcc1887681$1038                  mg_leaves_update
     00024C88  A$lcc1887681$1043                  mg_leaves_update
     00024C88  C$mg_leaves_update.c$155$3_0$216   mg_leaves_update
     00024C8B  A$lcc1887681$1044                  mg_leaves_update
     00024C8E  A$lcc1887681$1045                  mg_leaves_update
     00024C8F  A$lcc1887681$1046                  mg_leaves_update
     00024C91  A$lcc1887681$1047                  mg_leaves_update
     00024C92  A$lcc1887681$1048                  mg_leaves_update
     00024C94  A$lcc1887681$1052                  mg_leaves_update
     00024C94  C$mg_leaves_update.c$156$3_0$216   mg_leaves_update
     00024C97  A$lcc1887681$1053                  mg_leaves_update
     00024C9A  A$lcc1887681$1057                  mg_leaves_update
     00024C9A  C$mg_leaves_update.c$158$3_0$216   mg_leaves_update
     00024C9D  A$lcc1887681$1061                  mg_leaves_update
     00024C9D  C$mg_leaves_update.c$159$3_0$216   mg_leaves_update
     00024CA0  A$lcc1887681$1065                  mg_leaves_update
     00024CA0  C$mg_leaves_update.c$161$3_0$216   mg_leaves_update
     00024CA3  A$lcc1887681$1066                  mg_leaves_update
     00024CA4  A$lcc1887681$1067                  mg_leaves_update
     00024CA5  A$lcc1887681$1068                  mg_leaves_update
     00024CA6  A$lcc1887681$1069                  mg_leaves_update
     00024CA9  A$lcc1887681$1070                  mg_leaves_update
     00024CAB  A$lcc1887681$1071                  mg_leaves_update
     00024CAC  A$lcc1887681$1072                  mg_leaves_update
     00024CAD  A$lcc1887681$1073                  mg_leaves_update
     00024CB0  A$lcc1887681$1077                  mg_leaves_update
     00024CB0  C$mg_leaves_update.c$162$3_0$216   mg_leaves_update
     00024CB3  A$lcc1887681$1082                  mg_leaves_update
     00024CB3  C$mg_leaves_update.c$165$2_0$218   mg_leaves_update
     00024CB6  A$lcc1887681$1083                  mg_leaves_update
     00024CB8  A$lcc1887681$1084                  mg_leaves_update
     00024CBA  A$lcc1887681$1088                  mg_leaves_update
     00024CBA  C$mg_leaves_update.c$166$2_0$218   mg_leaves_update
     00024CBD  A$lcc1887681$1089                  mg_leaves_update
     00024CBF  A$lcc1887681$1090                  mg_leaves_update
     00024CC1  A$lcc1887681$1095                  mg_leaves_update
     00024CC1  C$mg_leaves_update.c$168$2_0$218   mg_leaves_update
     00024CC2  A$lcc1887681$1096                  mg_leaves_update
     00024CC5  A$lcc1887681$1101                  mg_leaves_update
     00024CC5  C$mg_leaves_update.c$170$2_0$219   mg_leaves_update
     00024CC8  A$lcc1887681$1102                  mg_leaves_update
     00024CCB  A$lcc1887681$1103                  mg_leaves_update
     00024CCC  A$lcc1887681$1104                  mg_leaves_update
     00024CCE  A$lcc1887681$1105                  mg_leaves_update
ASxxxx Linker V03.00/V05.40 + sdld,  page 181.
Hexadecimal  [32-Bits]

Area                                    Addr        Size        Decimal Bytes (Attributes)
--------------------------------        ----        ----        ------- ----- ------------
_CODE_2                             00024000    00000E08 =        3592. bytes (REL,CON)

      Value  Global                              Global Defined In Module
      -----  --------------------------------   ------------------------
     00024CCF  A$lcc1887681$1106                  mg_leaves_update
     00024CD0  A$lcc1887681$1107                  mg_leaves_update
     00024CD1  A$lcc1887681$1108                  mg_leaves_update
     00024CD2  A$lcc1887681$1109                  mg_leaves_update
     00024CD5  A$lcc1887681$1110                  mg_leaves_update
     00024CD7  A$lcc1887681$1111                  mg_leaves_update
     00024CD8  A$lcc1887681$1112                  mg_leaves_update
     00024CD9  A$lcc1887681$1113                  mg_leaves_update
     00024CDA  A$lcc1887681$1114                  mg_leaves_update
     00024CDB  A$lcc1887681$1115                  mg_leaves_update
     00024CDC  A$lcc1887681$1116                  mg_leaves_update
     00024CDD  A$lcc1887681$1117                  mg_leaves_update
     00024CE0  A$lcc1887681$1118                  mg_leaves_update
     00024CE1  A$lcc1887681$1119                  mg_leaves_update
     00024CE2  A$lcc1887681$1120                  mg_leaves_update
     00024CE3  A$lcc1887681$1121                  mg_leaves_update
     00024CE4  A$lcc1887681$1122                  mg_leaves_update
     00024CE5  A$lcc1887681$1123                  mg_leaves_update
     00024CE7  A$lcc1887681$1124                  mg_leaves_update
     00024CE8  A$lcc1887681$1125                  mg_leaves_update
     00024CE9  A$lcc1887681$1126                  mg_leaves_update
     00024CEA  A$lcc1887681$1127                  mg_leaves_update
     00024CEB  A$lcc1887681$1128                  mg_leaves_update
     00024CEC  A$lcc1887681$1129                  mg_leaves_update
     00024CED  A$lcc1887681$1130                  mg_leaves_update
     00024CEE  A$lcc1887681$1131                  mg_leaves_update
     00024CEF  A$lcc1887681$1132                  mg_leaves_update
     00024CF1  A$lcc1887681$1133                  mg_leaves_update
     00024CF3  A$lcc1887681$1134                  mg_leaves_update
     00024CF4  A$lcc1887681$1135                  mg_leaves_update
     00024CF5  A$lcc1887681$1136                  mg_leaves_update
     00024CF7  A$lcc1887681$1137                  mg_leaves_update
     00024CF8  A$lcc1887681$1138                  mg_leaves_update
     00024CF9  A$lcc1887681$1139                  mg_leaves_update
     00024CFA  A$lcc1887681$1140                  mg_leaves_update
     00024CFB  A$lcc1887681$1141                  mg_leaves_update
     00024CFC  A$lcc1887681$1142                  mg_leaves_update
     00024CFD  A$lcc1887681$1143                  mg_leaves_update
     00024CFE  A$lcc1887681$1144                  mg_leaves_update
     00024CFF  A$lcc1887681$1145                  mg_leaves_update
     00024D01  A$lcc1887681$1146                  mg_leaves_update
     00024D03  A$lcc1887681$1147                  mg_leaves_update
     00024D05  A$lcc1887681$1148                  mg_leaves_update
     00024D07  A$lcc1887681$1149                  mg_leaves_update
     00024D08  A$lcc1887681$1150                  mg_leaves_update
     00024D0A  A$lcc1887681$1152                  mg_leaves_update
     00024D0C  A$lcc1887681$1153                  mg_leaves_update
     00024D0E  A$lcc1887681$1154                  mg_leaves_update
     00024D0F  A$lcc1887681$1156                  mg_leaves_update
     00024D11  A$lcc1887681$1160                  mg_leaves_update
     00024D11  C$mg_leaves_update.c$171$2_0$219   mg_leaves_update
ASxxxx Linker V03.00/V05.40 + sdld,  page 182.
Hexadecimal  [32-Bits]

Area                                    Addr        Size        Decimal Bytes (Attributes)
--------------------------------        ----        ----        ------- ----- ------------
_CODE_2                             00024000    00000E08 =        3592. bytes (REL,CON)

      Value  Global                              Global Defined In Module
      -----  --------------------------------   ------------------------
     00024D14  A$lcc1887681$1161                  mg_leaves_update
     00024D16  A$lcc1887681$1162                  mg_leaves_update
     00024D18  A$lcc1887681$1167                  mg_leaves_update
     00024D18  C$mg_leaves_update.c$173$2_0$219   mg_leaves_update
     00024D1B  A$lcc1887681$1168                  mg_leaves_update
     00024D1D  A$lcc1887681$1173                  mg_leaves_update
     00024D1D  C$mg_leaves_update.c$175$2_0$220   mg_leaves_update
     00024D20  A$lcc1887681$1174                  mg_leaves_update
     00024D21  A$lcc1887681$1175                  mg_leaves_update
     00024D23  A$lcc1887681$1176                  mg_leaves_update
     00024D24  A$lcc1887681$1177                  mg_leaves_update
     00024D27  A$lcc1887681$1178                  mg_leaves_update
     00024D28  A$lcc1887681$1179                  mg_leaves_update
     00024D29  A$lcc1887681$1180                  mg_leaves_update
     00024D2B  A$lcc1887681$1181                  mg_leaves_update
     00024D2C  A$lcc1887681$1182                  mg_leaves_update
     00024D2D  A$lcc1887681$1183                  mg_leaves_update
     00024D2E  A$lcc1887681$1184                  mg_leaves_update
     00024D2F  A$lcc1887681$1185                  mg_leaves_update
     00024D30  A$lcc1887681$1186                  mg_leaves_update
     00024D32  A$lcc1887681$1187                  mg_leaves_update
     00024D33  A$lcc1887681$1188                  mg_leaves_update
     00024D34  A$lcc1887681$1189                  mg_leaves_update
     00024D35  A$lcc1887681$1190                  mg_leaves_update
     00024D36  A$lcc1887681$1191                  mg_leaves_update
     00024D38  A$lcc1887681$1195                  mg_leaves_update
     00024D38  C$mg_leaves_update.c$176$2_0$220   mg_leaves_update
     00024D3B  A$lcc1887681$1196                  mg_leaves_update
     00024D3D  A$lcc1887681$1197                  mg_leaves_update
     00024D3F  A$lcc1887681$1202                  mg_leaves_update
     00024D3F  C$mg_leaves_update.c$178$2_0$220   mg_leaves_update
     00024D42  A$lcc1887681$1203                  mg_leaves_update
     00024D44  A$lcc1887681$1208                  mg_leaves_update
     00024D44  C$mg_leaves_update.c$180$1_0$214   mg_leaves_update
     00024D46  A$lcc1887681$1209                  mg_leaves_update
     00024D48  A$lcc1887681$1210                  mg_leaves_update
     00024D4B  A$lcc1887681$1214                  mg_leaves_update
     00024D4B  C$mg_leaves_update.c$182$1_0$214   mg_leaves_update
     00024D4E  A$lcc1887681$1218                  mg_leaves_update
     00024D4E  C$mg_leaves_update.c$183$1_0$214   mg_leaves_update
     00024D51  A$lcc1887681$1222                  mg_leaves_update
     00024D51  C$mg_leaves_update.c$185$1_0$214   mg_leaves_update
     00024D54  A$lcc1887681$1223                  mg_leaves_update
     00024D57  A$lcc1887681$1227                  mg_leaves_update
     00024D57  C$mg_leaves_update.c$187$2_0$221   mg_leaves_update
     00024D5A  A$lcc1887681$1228                  mg_leaves_update
     00024D5D  A$lcc1887681$1229                  mg_leaves_update
     00024D5E  A$lcc1887681$1230                  mg_leaves_update
     00024D60  A$lcc1887681$1234                  mg_leaves_update
     00024D60  C$mg_leaves_update.c$189$3_0$222   mg_leaves_update
     00024D63  A$lcc1887681$1235                  mg_leaves_update
ASxxxx Linker V03.00/V05.40 + sdld,  page 183.
Hexadecimal  [32-Bits]

Area                                    Addr        Size        Decimal Bytes (Attributes)
--------------------------------        ----        ----        ------- ----- ------------
_CODE_2                             00024000    00000E08 =        3592. bytes (REL,CON)

      Value  Global                              Global Defined In Module
      -----  --------------------------------   ------------------------
     00024D66  A$lcc1887681$1239                  mg_leaves_update
     00024D66  C$mg_leaves_update.c$191$3_1$223   mg_leaves_update
     00024D69  A$lcc1887681$1243                  mg_leaves_update
     00024D69  C$mg_leaves_update.c$192$1_1$214   mg_leaves_update
     00024D6B  A$lcc1887681$1244                  mg_leaves_update
     00024D6C  A$lcc1887681$1245                  mg_leaves_update
     00024D6E  A$lcc1887681$1246                  mg_leaves_update
     00024D71  A$lcc1887681$1247                  mg_leaves_update
     00024D72  A$lcc1887681$1248                  mg_leaves_update
     00024D74  A$lcc1887681$1249                  mg_leaves_update
     00024D77  A$lcc1887681$1250                  mg_leaves_update
     00024D78  A$lcc1887681$1251                  mg_leaves_update
     00024D7A  A$lcc1887681$1252                  mg_leaves_update
     00024D7C  A$lcc1887681$1256                  mg_leaves_update
     00024D7C  C$mg_leaves_update.c$193$1_1$214   mg_leaves_update
     00024D7D  A$lcc1887681$1257                  mg_leaves_update
     00024D7E  A$lcc1887681$1258                  mg_leaves_update
     00024D80  A$lcc1887681$1259                  mg_leaves_update
     00024D81  A$lcc1887681$1260                  mg_leaves_update
     00024D84  A$lcc1887681$1261                  mg_leaves_update
     00024D85  A$lcc1887681$1262                  mg_leaves_update
     00024D87  A$lcc1887681$1263                  mg_leaves_update
     00024D8A  A$lcc1887681$1264                  mg_leaves_update
     00024D8B  A$lcc1887681$1265                  mg_leaves_update
     00024D8D  A$lcc1887681$1266                  mg_leaves_update
     00024D8F  A$lcc1887681$1270                  mg_leaves_update
     00024D8F  C$mg_leaves_update.c$194$1_1$214   mg_leaves_update
     00024D90  A$lcc1887681$1271                  mg_leaves_update
     00024D92  A$lcc1887681$1272                  mg_leaves_update
     00024D93  A$lcc1887681$1273                  mg_leaves_update
     00024D96  A$lcc1887681$1274                  mg_leaves_update
     00024D97  A$lcc1887681$1275                  mg_leaves_update
     00024D99  A$lcc1887681$1276                  mg_leaves_update
     00024D9B  A$lcc1887681$1277                  mg_leaves_update
     00024D9C  A$lcc1887681$1281                  mg_leaves_update
     00024D9C  C$mg_leaves_update.c$196$3_1$223   mg_leaves_update
     00024D9E  A$lcc1887681$1282                  mg_leaves_update
     00024D9F  A$lcc1887681$1283                  mg_leaves_update
     00024DA0  A$lcc1887681$1284                  mg_leaves_update
     00024DA2  A$lcc1887681$1285                  mg_leaves_update
     00024DA4  A$lcc1887681$1286                  mg_leaves_update
     00024DA7  A$lcc1887681$1290                  mg_leaves_update
     00024DA7  C$mg_leaves_update.c$197$3_1$223   mg_leaves_update
     00024DA9  A$lcc1887681$1291                  mg_leaves_update
     00024DAA  A$lcc1887681$1292                  mg_leaves_update
     00024DAB  A$lcc1887681$1293                  mg_leaves_update
     00024DAC  A$lcc1887681$1294                  mg_leaves_update
     00024DAE  A$lcc1887681$1295                  mg_leaves_update
     00024DB0  A$lcc1887681$1296                  mg_leaves_update
     00024DB3  A$lcc1887681$1300                  mg_leaves_update
     00024DB3  C$mg_leaves_update.c$198$3_1$223   mg_leaves_update
ASxxxx Linker V03.00/V05.40 + sdld,  page 184.
Hexadecimal  [32-Bits]

Area                                    Addr        Size        Decimal Bytes (Attributes)
--------------------------------        ----        ----        ------- ----- ------------
_CODE_2                             00024000    00000E08 =        3592. bytes (REL,CON)

      Value  Global                              Global Defined In Module
      -----  --------------------------------   ------------------------
     00024DB5  A$lcc1887681$1301                  mg_leaves_update
     00024DB6  A$lcc1887681$1302                  mg_leaves_update
     00024DB7  A$lcc1887681$1303                  mg_leaves_update
     00024DB8  A$lcc1887681$1304                  mg_leaves_update
     00024DBA  A$lcc1887681$1305                  mg_leaves_update
     00024DBC  A$lcc1887681$1306                  mg_leaves_update
     00024DBF  A$lcc1887681$1310                  mg_leaves_update
     00024DBF  C$mg_leaves_update.c$199$3_1$223   mg_leaves_update
     00024DC1  A$lcc1887681$1311                  mg_leaves_update
     00024DC2  A$lcc1887681$1312                  mg_leaves_update
     00024DC3  A$lcc1887681$1313                  mg_leaves_update
     00024DC4  A$lcc1887681$1314                  mg_leaves_update
     00024DC6  A$lcc1887681$1315                  mg_leaves_update
     00024DC8  A$lcc1887681$1316                  mg_leaves_update
     00024DCB  A$lcc1887681$1321                  mg_leaves_update
     00024DCB  C$mg_leaves_update.c$202$1_1$224   mg_leaves_update
     00024DCE  A$lcc1887681$1322                  mg_leaves_update
     00024DD1  A$lcc1887681$1323                  mg_leaves_update
     00024DD2  A$lcc1887681$1324                  mg_leaves_update
     00024DD5  A$lcc1887681$1325                  mg_leaves_update
     00024DD6  A$lcc1887681$1329                  mg_leaves_update
     00024DD6  C$mg_leaves_update.c$204$1_1$214   mg_leaves_update
     00024DD9  A$lcc1887681$1330                  mg_leaves_update
     00024DDA  A$lcc1887681$1331                  mg_leaves_update
     00024DDB  A$lcc1887681$1332                  mg_leaves_update
     00024DDC  A$lcc1887681$1333                  mg_leaves_update
     00024DDF  A$lcc1887681$1334                  mg_leaves_update
     00024DE2  A$lcc1887681$1335                  mg_leaves_update
     00024DE3  A$lcc1887681$1336                  mg_leaves_update
     00024DE4  A$lcc1887681$1337                  mg_leaves_update
     00024DE6  A$lcc1887681$1338                  mg_leaves_update
     00024DE7  A$lcc1887681$1342                  mg_leaves_update
     00024DE7  C$mg_leaves_update.c$205$1_1$214   mg_leaves_update
     00024DE8  A$lcc1887681$1343                  mg_leaves_update
     00024DEB  A$lcc1887681$1344                  mg_leaves_update
     00024DEE  A$lcc1887681$1345                  mg_leaves_update
     00024DEF  A$lcc1887681$1346                  mg_leaves_update
     00024DF0  A$lcc1887681$1347                  mg_leaves_update
     00024DF2  A$lcc1887681$1348                  mg_leaves_update
     00024DF3  A$lcc1887681$1352                  mg_leaves_update
     00024DF3  C$mg_leaves_update.c$207$1_1$224   mg_leaves_update
     00024DF4  A$lcc1887681$1353                  mg_leaves_update
     00024DF5  A$lcc1887681$1354                  mg_leaves_update
     00024DF6  A$lcc1887681$1355                  mg_leaves_update
     00024DF8  A$lcc1887681$1356                  mg_leaves_update
     00024DFA  A$lcc1887681$1357                  mg_leaves_update
     00024DFD  A$lcc1887681$1361                  mg_leaves_update
     00024DFD  C$mg_leaves_update.c$208$1_1$224   mg_leaves_update
     00024DFE  A$lcc1887681$1362                  mg_leaves_update
     00024E00  A$lcc1887681$1363                  mg_leaves_update
     00024E02  A$lcc1887681$1364                  mg_leaves_update
ASxxxx Linker V03.00/V05.40 + sdld,  page 185.
Hexadecimal  [32-Bits]

Area                                    Addr        Size        Decimal Bytes (Attributes)
--------------------------------        ----        ----        ------- ----- ------------
_CODE_2                             00024000    00000E08 =        3592. bytes (REL,CON)

      Value  Global                              Global Defined In Module
      -----  --------------------------------   ------------------------
     00024E05  A$lcc1887681$1372                  mg_leaves_update
     00024E05  C$mg_leaves_update.c$210$1_1$224   mg_leaves_update
     00024E07  A$lcc1887681$1377                  mg_leaves_update
     00024E07  C$mg_leaves_update.c$211$1_1$214   mg_leaves_update
     00024E07  XG$Mg_Leaves_Update$0$0            mg_leaves_update

ASxxxx Linker V03.00/V05.40 + sdld,  page 186.

Files Linked                              [ module(s) ]

C:\Program Files\GBDK\lib/gb/crt0.o       [ Runtime ]
C:\Users\Bau_M\AppData\Local\Temp/lcc188760.o
                                          [ buttons ]
C:\Users\Bau_M\AppData\Local\Temp/lcc188761.o
                                          [ chars ]
C:\Users\Bau_M\AppData\Local\Temp/lcc188762.o
                                          [ numbers ]
C:\Users\Bau_M\AppData\Local\Temp/lcc188763.o
                                          [ gender_select_tilemap ]
C:\Users\Bau_M\AppData\Local\Temp/lcc188764.o
                                          [ gender_select_tileset ]
C:\Users\Bau_M\AppData\Local\Temp/lcc188765.o
                                          [ inventory_bkg ]
C:\Users\Bau_M\AppData\Local\Temp/lcc188766.o
                                          [ bkg_MainMenu ]
C:\Users\Bau_M\AppData\Local\Temp/lcc188767.o
                                          [ map_example ]
C:\Users\Bau_M\AppData\Local\Temp/lcc188768.o
                                          [ bkg_leaves_example ]
C:\Users\Bau_M\AppData\Local\Temp/lcc188769.o
                                          [ npc_icons ]
C:\Users\Bau_M\AppData\Local\Temp/lcc1887610.o
                                          [ template_tileset ]
C:\Users\Bau_M\AppData\Local\Temp/lcc1887611.o
                                          [ spr_InventoryArrow_idle ]
C:\Users\Bau_M\AppData\Local\Temp/lcc1887612.o
                                          [ spr_Branch ]
C:\Users\Bau_M\AppData\Local\Temp/lcc1887613.o
                                          [ broom ]
C:\Users\Bau_M\AppData\Local\Temp/lcc1887614.o
                                          [ spr_garbage ]
C:\Users\Bau_M\AppData\Local\Temp/lcc1887615.o
                                          [ leaf ]
C:\Users\Bau_M\AppData\Local\Temp/lcc1887616.o
                                          [ example_npc ]
C:\Users\Bau_M\AppData\Local\Temp/lcc1887617.o
                                          [ spr_Player_down0 ]
C:\Users\Bau_M\AppData\Local\Temp/lcc1887618.o
                                          [ spr_Player_down1 ]
C:\Users\Bau_M\AppData\Local\Temp/lcc1887619.o
                                          [ spr_Player_down2 ]
C:\Users\Bau_M\AppData\Local\Temp/lcc1887620.o
                                          [ spr_Player_up0 ]
C:\Users\Bau_M\AppData\Local\Temp/lcc1887621.o
                                          [ spr_Player_up1 ]
C:\Users\Bau_M\AppData\Local\Temp/lcc1887622.o
                                          [ spr_Player_up2 ]
C:\Users\Bau_M\AppData\Local\Temp/lcc1887623.o
                                          [ action ]
C:\Users\Bau_M\AppData\Local\Temp/lcc1887624.o
                                          [ animation ]
C:\Users\Bau_M\AppData\Local\Temp/lcc1887625.o
                                          [ can_move ]
C:\Users\Bau_M\AppData\Local\Temp/lcc1887626.o
                                          [ char_to_tile ]
C:\Users\Bau_M\AppData\Local\Temp/lcc1887627.o
                                          [ collision ]
C:\Users\Bau_M\AppData\Local\Temp/lcc1887628.o
                                          [ draw ]
C:\Users\Bau_M\AppData\Local\Temp/lcc1887629.o
                                          [ entity ]
C:\Users\Bau_M\AppData\Local\Temp/lcc1887630.o
                                          [ extra_actors ]
C:\Users\Bau_M\AppData\Local\Temp/lcc1887631.o
                                          [ gender_selection ]
C:\Users\Bau_M\AppData\Local\Temp/lcc1887632.o
                                          [ input ]
C:\Users\Bau_M\AppData\Local\Temp/lcc1887633.o
                                          [ inventory ]
C:\Users\Bau_M\AppData\Local\Temp/lcc1887634.o
                                          [ inventory_input ]
C:\Users\Bau_M\AppData\Local\Temp/lcc1887635.o
                                          [ load ]
C:\Users\Bau_M\AppData\Local\Temp/lcc1887636.o
                                          [ map_scenes ]
C:\Users\Bau_M\AppData\Local\Temp/lcc1887637.o
                                          [ minigames ]
C:\Users\Bau_M\AppData\Local\Temp/lcc1887638.o
                                          [ money ]
C:\Users\Bau_M\AppData\Local\Temp/lcc1887639.o
                                          [ name ]
C:\Users\Bau_M\AppData\Local\Temp/lcc1887640.o
                                          [ npcs ]
C:\Users\Bau_M\AppData\Local\Temp/lcc1887641.o
                                          [ npc_lines ]
C:\Users\Bau_M\AppData\Local\Temp/lcc1887642.o
                                          [ player ]
C:\Users\Bau_M\AppData\Local\Temp/lcc1887643.o
                                          [ position ]
C:\Users\Bau_M\AppData\Local\Temp/lcc1887644.o
                                          [ random ]
C:\Users\Bau_M\AppData\Local\Temp/lcc1887645.o
                                          [ render ]
C:\Users\Bau_M\AppData\Local\Temp/lcc1887646.o
                                          [ scene ]
C:\Users\Bau_M\AppData\Local\Temp/lcc1887647.o
                                          [ scene_manager ]
C:\Users\Bau_M\AppData\Local\Temp/lcc1887648.o
                                          [ speed ]
C:\Users\Bau_M\AppData\Local\Temp/lcc1887649.o
                                          [ gender_select ]
C:\Users\Bau_M\AppData\Local\Temp/lcc1887650.o
                                          [ gender_select_init ]
C:\Users\Bau_M\AppData\Local\Temp/lcc1887651.o
                                          [ gender_select_update ]
C:\Users\Bau_M\AppData\Local\Temp/lcc1887652.o
                                          [ inventory_scene ]
C:\Users\Bau_M\AppData\Local\Temp/lcc1887653.o
                                          [ inventory_scene_init ]
C:\Users\Bau_M\AppData\Local\Temp/lcc1887654.o
                                          [ inventory_scene_update ]
C:\Users\Bau_M\AppData\Local\Temp/lcc1887655.o
                                          [ main_menu ]
C:\Users\Bau_M\AppData\Local\Temp/lcc1887656.o
                                          [ main_menu_init ]
C:\Users\Bau_M\AppData\Local\Temp/lcc1887657.o
                                          [ main_menu_init_stats ]
C:\Users\Bau_M\AppData\Local\Temp/lcc1887658.o
                                          [ main_menu_input ]
C:\Users\Bau_M\AppData\Local\Temp/lcc1887659.o
                                          [ main_menu_update ]
C:\Users\Bau_M\AppData\Local\Temp/lcc1887660.o
                                          [ clean_text ]
C:\Users\Bau_M\AppData\Local\Temp/lcc1887661.o
                                          [ map_collision ]
C:\Users\Bau_M\AppData\Local\Temp/lcc1887662.o
                                          [ map_data ]
C:\Users\Bau_M\AppData\Local\Temp/lcc1887663.o
                                          [ map_player_movement ]
C:\Users\Bau_M\AppData\Local\Temp/lcc1887664.o
                                          [ map_00 ]
C:\Users\Bau_M\AppData\Local\Temp/lcc1887665.o
                                          [ map_00_check_items ]
C:\Users\Bau_M\AppData\Local\Temp/lcc1887666.o
                                          [ map_00_collision ]
C:\Users\Bau_M\AppData\Local\Temp/lcc1887667.o
                                          [ map_00_init ]
C:\Users\Bau_M\AppData\Local\Temp/lcc1887668.o
                                          [ map_00_init_dialogues ]
C:\Users\Bau_M\AppData\Local\Temp/lcc1887669.o
                                          [ map_00_init_npc ]
C:\Users\Bau_M\AppData\Local\Temp/lcc1887670.o
                                          [ map_00_update ]
C:\Users\Bau_M\AppData\Local\Temp/lcc1887671.o
                                          [ mg_instruction_set ]
C:\Users\Bau_M\AppData\Local\Temp/lcc1887672.o
                                          [ mg_load_screen ]
C:\Users\Bau_M\AppData\Local\Temp/lcc1887673.o
                                          [ mg_mission_complete ]
C:\Users\Bau_M\AppData\Local\Temp/lcc1887674.o
                                          [ mg_player_movement ]
C:\Users\Bau_M\AppData\Local\Temp/lcc1887675.o
                                          [ mg_timer ]
C:\Users\Bau_M\AppData\Local\Temp/lcc1887676.o
                                          [ mini_games ]
C:\Users\Bau_M\AppData\Local\Temp/lcc1887677.o
                                          [ mg_leaves ]
C:\Users\Bau_M\AppData\Local\Temp/lcc1887678.o
                                          [ mg_leaves_init ]
C:\Users\Bau_M\AppData\Local\Temp/lcc1887679.o
                                          [ mg_leaves_load_bkg ]
C:\Users\Bau_M\AppData\Local\Temp/lcc1887680.o
                                          [ mg_leaves_player_init ]
C:\Users\Bau_M\AppData\Local\Temp/lcc1887681.o
                                          [ mg_leaves_update ]
C:\Users\Bau_M\AppData\Local\Temp/lcc1887682.o
                                          [ main ]


Libraries Linked                          [ object file ]

C:\Program Files\GBDK\lib/gb/gb.lib       [ sfr.o ]
C:\Program Files\GBDK\lib/sm83/sm83.lib   [ div.o ]
C:\Program Files\GBDK\lib/sm83/sm83.lib   [ free.o ]
C:\Program Files\GBDK\lib/sm83/sm83.lib   [ malloc.o ]
C:\Program Files\GBDK\lib/gb/gb.lib       [ set_data.o ]
C:\Program Files\GBDK\lib/gb/gb.lib       [ set_tile.o ]
C:\Program Files\GBDK\lib/sm83/sm83.lib   [ mul.o ]
C:\Program Files\GBDK\lib/gb/gb.lib       [ pad.o ]
C:\Program Files\GBDK\lib/sm83/sm83.lib   [ __sdcc_call_hl.o ]
C:\Program Files\GBDK\lib/sm83/sm83.lib   [ memcpy.o ]
C:\Program Files\GBDK\lib/gb/gb.lib       [ heap.o ]
C:\Program Files\GBDK\lib/gb/gb.lib       [ set_bk_t.o ]
C:\Program Files\GBDK\lib/gb/gb.lib       [ set_xy_t.o ]

ASxxxx Linker V03.00/V05.40 + sdld,  page 187.

User Base Address Definitions

_DATA=0xC0A0
_CODE=0x0200
_HRAM=0xFF80
ASxxxx Linker V03.00/V05.40 + sdld,  page 188.

User Global Definitions

_shadow_OAM=0xC000
.STACK=0xE000

