ASxxxx Linker V03.00/V05.40 + sdld,  page 1.
Hexadecimal  [32-Bits]

Area                                    Addr        Size        Decimal Bytes (Attributes)
--------------------------------        ----        ----        ------- ----- ------------
.  .ABS.                            00000000    00000000 =           0. bytes (ABS,CON)

      Value  Global                              Global Defined In Module
      -----  --------------------------------   ------------------------
     00000000  .__.ABS.                           SetTileMap
     00000000  _rMBC7_SRAM_ENABLE_1               
     00000000  _rRAMG                             
     00000000  l__BASE                         
     00000000  l__BSS                          
     00000000  l__CABS                         
     00000000  l__CODE_0                       
     00000000  l__DABS                         
     00000000  l__HEADER                       
     00000000  l__LIT                          
     00000000  s__CABS                         
     00000000  s__DABS                         
     00000000  s__HEADER                       
     00000000  s__HEADER0                      
     00000000  s__HEADER1                      
     00000000  s__HEADER10                     
     00000000  s__HEADER11                     
     00000000  s__HEADER2                      
     00000000  s__HEADER3                      
     00000000  s__HEADER4                      
     00000000  s__HEADER5                      
     00000000  s__HEADER6                      
     00000000  s__HEADER7                      
     00000000  s__HEADER8                      
     00000000  s__HEADER9                      
     00000000  s__HEADERa                      
     00000000  s__HEADERb                      
     00000000  s__HEADERc                      
     00000000  s__HEADERd                      
     00000000  s__HEADERe                      
     00000000  s__HEADERf                      
     00000001  l__GSFINAL                      
     00000001  l__HEADER0                      
     00000001  l__HEADER5                      
     00000001  l__HEADERa                      
     00000001  l__HEADERb                      
     00000001  l__HEADERc                      
     00000001  l__HEADERe                      
     00000001  l__HEADERf                      
     00000001  l__HEAP_END                     
     00000002  l__HEADER10                     
     00000002  l__HEADER6                      
     00000002  l__HEADERd                      
     00000003  l__HEADER9                      
     00000005  l__HEADER1                      
     00000006  l__HEADER8                      
     00000007  l__HEADER2                      
     00000008  l__HEADER3                      
     0000000F  l__GSINIT                       
     00000013  l__HRAM                         
ASxxxx Linker V03.00/V05.40 + sdld,  page 2.
Hexadecimal  [32-Bits]

Area                                    Addr        Size        Decimal Bytes (Attributes)
--------------------------------        ----        ----        ------- ----- ------------
.  .ABS.                            00000000    00000000 =           0. bytes (ABS,CON)

      Value  Global                              Global Defined In Module
      -----  --------------------------------   ------------------------
     00000030  l__HEADER7                      
     00000060  l__HEADER4                      
     000000AB  l__HEADER11                     
     0000012C  l__HOME                         
     000001BB  l__DATA                         
     000001E5  l__INITIALIZED                  
     000001E5  l__INITIALIZER                  
     00000200  s__CODE                         
     000007FF  l__HEAP                         
     00000EE8  l__CODE_1                       
     00002000  _rROMB0                            
     000024E6  l__CODE                         
     000026E6  s__HOME                         
     00002812  s__BASE                         
     00002812  s__CODE_0                       
     00002812  s__INITIALIZER                  
     00002812  s__LIT                          
     000029F7  s__GSINIT                       
     00002A06  s__GSFINAL                      
     00003000  _rROMB1                            
     00004000  _rMBC7_SRAM_ENABLE_2               
     00004000  _rRAMB                             
     00008000  __VRAM                             
     00008000  __VRAM8000                         
     00008800  __VRAM8800                         
     00009000  __VRAM9000                         
     00009800  __SCRN0                            
     00009C00  __SCRN1                            
     0000A000  __SRAM                             
     0000A000  _rMBC7_LATCH_1                     
     0000A010  _rMBC7_LATCH_2                     
     0000A020  _rMBC7_ACCEL_X_LO                  
     0000A030  _rMBC7_ACCEL_X_HI                  
     0000A040  _rMBC7_ACCEL_Y_LO                  
     0000A050  _rMBC7_ACCEL_Y_HI                  
     0000C000  __RAM                              
     0000C000  _shadow_OAM                     
     0000C0A0  s__DATA                         
     0000C25B  s__BSS                          
     0000C25B  s__INITIALIZED                  
     0000C440  s__HEAP                         
     0000CC3F  s__HEAP_END                     
     0000D000  __RAMBANK                          
     0000E000  .STACK                          
     0000FE00  __OAMRAM                           
     0000FF00  _P1_REG                            
     0000FF00  __IO                               
     0000FF01  _SB_REG                            
     0000FF02  _SC_REG                            
     0000FF04  _DIV_REG                           
     0000FF05  _TIMA_REG                          
ASxxxx Linker V03.00/V05.40 + sdld,  page 3.
Hexadecimal  [32-Bits]

Area                                    Addr        Size        Decimal Bytes (Attributes)
--------------------------------        ----        ----        ------- ----- ------------
.  .ABS.                            00000000    00000000 =           0. bytes (ABS,CON)

      Value  Global                              Global Defined In Module
      -----  --------------------------------   ------------------------
     0000FF06  _TMA_REG                           
     0000FF07  _TAC_REG                           
     0000FF0F  _IF_REG                            
     0000FF10  _NR10_REG                          
     0000FF11  _NR11_REG                          
     0000FF12  _NR12_REG                          
     0000FF13  _NR13_REG                          
     0000FF14  _NR14_REG                          
     0000FF16  _NR21_REG                          
     0000FF17  _NR22_REG                          
     0000FF18  _NR23_REG                          
     0000FF19  _NR24_REG                          
     0000FF1A  _NR30_REG                          
     0000FF1B  _NR31_REG                          
     0000FF1C  _NR32_REG                          
     0000FF1D  _NR33_REG                          
     0000FF1E  _NR34_REG                          
     0000FF20  _NR41_REG                          
     0000FF21  _NR42_REG                          
     0000FF22  _NR43_REG                          
     0000FF23  _NR44_REG                          
     0000FF24  _NR50_REG                          
     0000FF25  _NR51_REG                          
     0000FF26  _NR52_REG                          
     0000FF30  _AUD3WAVE                          
     0000FF30  _PCM_SAMPLE                        
     0000FF30  __AUD3WAVERAM                      
     0000FF40  _LCDC_REG                          
     0000FF41  _STAT_REG                          
     0000FF42  _SCY_REG                           
     0000FF43  _SCX_REG                           
     0000FF44  _LY_REG                            
     0000FF45  _LYC_REG                           
     0000FF46  _DMA_REG                           
     0000FF47  _BGP_REG                           
     0000FF48  _OBP0_REG                          
     0000FF49  _OBP1_REG                          
     0000FF4A  _WY_REG                            
     0000FF4B  _WX_REG                            
     0000FF4D  _KEY1_REG                          
     0000FF4F  _VBK_REG                           
     0000FF51  _HDMA1_REG                         
     0000FF52  _HDMA2_REG                         
     0000FF53  _HDMA3_REG                         
     0000FF54  _HDMA4_REG                         
     0000FF55  _HDMA5_REG                         
     0000FF56  _RP_REG                            
     0000FF68  _BCPS_REG                          
     0000FF69  _BCPD_REG                          
     0000FF6A  _OCPS_REG                          
     0000FF6B  _OCPD_REG                          
ASxxxx Linker V03.00/V05.40 + sdld,  page 4.
Hexadecimal  [32-Bits]

Area                                    Addr        Size        Decimal Bytes (Attributes)
--------------------------------        ----        ----        ------- ----- ------------
.  .ABS.                            00000000    00000000 =           0. bytes (ABS,CON)

      Value  Global                              Global Defined In Module
      -----  --------------------------------   ------------------------
     0000FF70  _SVBK_REG                          
     0000FF76  _PCM12_REG                         
     0000FF77  _PCM34_REG                         
     0000FF80  __HRAM                             
     0000FF80  s__HRAM                         
     0000FFFF  _IE_REG                            
     00014000  s__CODE_1                       
ASxxxx Linker V03.00/V05.40 + sdld,  page 5.
Hexadecimal  [32-Bits]

Area                                    Addr        Size        Decimal Bytes (Attributes)
--------------------------------        ----        ----        ------- ----- ------------
_CODE                               00000200    000024E6 =        9446. bytes (REL,CON)

      Value  Global                              Global Defined In Module
      -----  --------------------------------   ------------------------
     00000200  G$chars_tileset$0_0$0              chars
     00000200  _chars_tileset                     chars
     000003F0  G$chars_tilemap$0_0$0              chars
     000003F0  _chars_tilemap                     chars
     0000040E  G$numbers_tileset$0_0$0            numbers
     0000040E  _numbers_tileset                   numbers
     000004AE  G$numbers_tilemap$0_0$0            numbers
     000004AE  _numbers_tilemap                   numbers
     000004B8  G$gender_select_tilemap$0_0$0      gender_select_tilemap
     000004B8  _gender_select_tilemap             gender_select_tilemap
     00000620  G$gender_select_tileset$0_0$0      gender_select_tileset
     00000620  _gender_select_tileset             gender_select_tileset
     00000910  G$template_tilemap$0_0$0           template_tilemap
     00000910  _template_tilemap                  template_tilemap
     00000A78  G$template_tileset$0_0$0           template_tileset
     00000A78  _template_tileset                  template_tileset
     00000C48  G$spr_Branch$0_0$0                 spr_Branch
     00000C48  _spr_Branch                        spr_Branch
     00000C58  A$lcc1484018$66                    action
     00000C58  C$action.c$12$0_0$150              action
     00000C58  G$move_up$0$0                      action
     00000C58  _move_up                           action
     00000C5A  A$lcc1484018$67                    action
     00000C5C  A$lcc1484018$68                    action
     00000C5D  A$lcc1484018$72                    action
     00000C5D  C$action.c$14$2_0$151              action
     00000C60  A$lcc1484018$73                    action
     00000C62  A$lcc1484018$77                    action
     00000C62  C$action.c$15$2_0$151              action
     00000C64  A$lcc1484018$81                    action
     00000C64  C$action.c$17$1_0$150              action
     00000C66  A$lcc1484018$82                    action
     00000C67  A$lcc1484018$83                    action
     00000C68  A$lcc1484018$84                    action
     00000C6A  A$lcc1484018$85                    action
     00000C6B  A$lcc1484018$86                    action
     00000C6D  A$lcc1484018$87                    action
     00000C6F  A$lcc1484018$88                    action
     00000C70  A$lcc1484018$89                    action
     00000C73  A$lcc1484018$90                    action
     00000C75  A$lcc1484018$91                    action
     00000C76  A$lcc1484018$92                    action
     00000C77  A$lcc1484018$93                    action
     00000C78  A$lcc1484018$94                    action
     00000C79  A$lcc1484018$95                    action
     00000C7A  A$lcc1484018$96                    action
     00000C7B  A$lcc1484018$97                    action
     00000C7C  A$lcc1484018$98                    action
     00000C7D  A$lcc1484018$99                    action
     00000C7E  A$lcc1484018$100                   action
ASxxxx Linker V03.00/V05.40 + sdld,  page 6.
Hexadecimal  [32-Bits]

Area                                    Addr        Size        Decimal Bytes (Attributes)
--------------------------------        ----        ----        ------- ----- ------------
_CODE                               00000200    000024E6 =        9446. bytes (REL,CON)

      Value  Global                              Global Defined In Module
      -----  --------------------------------   ------------------------
     00000C7F  A$lcc1484018$101                   action
     00000C81  A$lcc1484018$102                   action
     00000C82  A$lcc1484018$103                   action
     00000C84  A$lcc1484018$104                   action
     00000C85  A$lcc1484018$105                   action
     00000C87  A$lcc1484018$106                   action
     00000C88  A$lcc1484018$107                   action
     00000C8A  A$lcc1484018$108                   action
     00000C8B  A$lcc1484018$109                   action
     00000C8D  A$lcc1484018$110                   action
     00000C8E  A$lcc1484018$111                   action
     00000C90  A$lcc1484018$112                   action
     00000C91  A$lcc1484018$113                   action
     00000C92  A$lcc1484018$114                   action
     00000C93  A$lcc1484018$115                   action
     00000C94  A$lcc1484018$116                   action
     00000C95  A$lcc1484018$117                   action
     00000C96  A$lcc1484018$118                   action
     00000C97  A$lcc1484018$119                   action
     00000C98  A$lcc1484018$120                   action
     00000C99  A$lcc1484018$121                   action
     00000C9A  A$lcc1484018$122                   action
     00000C9C  A$lcc1484018$123                   action
     00000C9D  A$lcc1484018$124                   action
     00000C9E  A$lcc1484018$125                   action
     00000C9F  A$lcc1484018$126                   action
     00000CA0  A$lcc1484018$127                   action
     00000CA1  A$lcc1484018$128                   action
     00000CA2  A$lcc1484018$129                   action
     00000CA3  A$lcc1484018$130                   action
     00000CA4  A$lcc1484018$131                   action
     00000CA5  A$lcc1484018$132                   action
     00000CA6  A$lcc1484018$136                   action
     00000CA6  C$action.c$18$1_0$150              action
     00000CA9  A$lcc1484018$137                   action
     00000CAA  A$lcc1484018$138                   action
     00000CAB  A$lcc1484018$139                   action
     00000CAD  A$lcc1484018$140                   action
     00000CAE  A$lcc1484018$141                   action
     00000CAF  A$lcc1484018$142                   action
     00000CB0  A$lcc1484018$143                   action
     00000CB1  A$lcc1484018$144                   action
     00000CB2  A$lcc1484018$149                   action
     00000CB4  A$lcc1484018$154                   action
     00000CB4  C$action.c$19$1_0$150              action
     00000CB4  XG$move_up$0$0                     action
     00000CB5  A$lcc1484018$164                   action
     00000CB5  C$action.c$21$1_0$153              action
     00000CB5  G$move_down$0$0                    action
     00000CB5  _move_down                         action
     00000CB7  A$lcc1484018$165                   action
ASxxxx Linker V03.00/V05.40 + sdld,  page 7.
Hexadecimal  [32-Bits]

Area                                    Addr        Size        Decimal Bytes (Attributes)
--------------------------------        ----        ----        ------- ----- ------------
_CODE                               00000200    000024E6 =        9446. bytes (REL,CON)

      Value  Global                              Global Defined In Module
      -----  --------------------------------   ------------------------
     00000CB9  A$lcc1484018$166                   action
     00000CBA  A$lcc1484018$170                   action
     00000CBA  C$action.c$23$2_0$154              action
     00000CBD  A$lcc1484018$171                   action
     00000CBF  A$lcc1484018$175                   action
     00000CBF  C$action.c$24$2_0$154              action
     00000CC1  A$lcc1484018$179                   action
     00000CC1  C$action.c$26$1_0$153              action
     00000CC3  A$lcc1484018$180                   action
     00000CC4  A$lcc1484018$181                   action
     00000CC5  A$lcc1484018$182                   action
     00000CC7  A$lcc1484018$183                   action
     00000CC8  A$lcc1484018$184                   action
     00000CCA  A$lcc1484018$185                   action
     00000CCC  A$lcc1484018$186                   action
     00000CCD  A$lcc1484018$187                   action
     00000CD0  A$lcc1484018$188                   action
     00000CD2  A$lcc1484018$189                   action
     00000CD3  A$lcc1484018$190                   action
     00000CD4  A$lcc1484018$191                   action
     00000CD5  A$lcc1484018$192                   action
     00000CD6  A$lcc1484018$193                   action
     00000CD7  A$lcc1484018$194                   action
     00000CD8  A$lcc1484018$195                   action
     00000CD9  A$lcc1484018$196                   action
     00000CDB  A$lcc1484018$197                   action
     00000CDC  A$lcc1484018$198                   action
     00000CDD  A$lcc1484018$199                   action
     00000CDF  A$lcc1484018$200                   action
     00000CE0  A$lcc1484018$201                   action
     00000CE1  A$lcc1484018$202                   action
     00000CE2  A$lcc1484018$203                   action
     00000CE3  A$lcc1484018$204                   action
     00000CE4  A$lcc1484018$205                   action
     00000CE5  A$lcc1484018$206                   action
     00000CE6  A$lcc1484018$207                   action
     00000CE7  A$lcc1484018$208                   action
     00000CE8  A$lcc1484018$209                   action
     00000CE9  A$lcc1484018$213                   action
     00000CE9  C$action.c$27$1_0$153              action
     00000CEC  A$lcc1484018$214                   action
     00000CEE  A$lcc1484018$215                   action
     00000CEF  A$lcc1484018$216                   action
     00000CF1  A$lcc1484018$217                   action
     00000CF2  A$lcc1484018$218                   action
     00000CF3  A$lcc1484018$219                   action
     00000CF4  A$lcc1484018$220                   action
     00000CF5  A$lcc1484018$221                   action
     00000CF6  A$lcc1484018$226                   action
     00000CF8  A$lcc1484018$231                   action
     00000CF8  C$action.c$28$1_0$153              action
ASxxxx Linker V03.00/V05.40 + sdld,  page 8.
Hexadecimal  [32-Bits]

Area                                    Addr        Size        Decimal Bytes (Attributes)
--------------------------------        ----        ----        ------- ----- ------------
_CODE                               00000200    000024E6 =        9446. bytes (REL,CON)

      Value  Global                              Global Defined In Module
      -----  --------------------------------   ------------------------
     00000CF8  XG$move_down$0$0                   action
     00000CF9  A$lcc1484018$241                   action
     00000CF9  C$action.c$30$1_0$156              action
     00000CF9  G$move_left$0$0                    action
     00000CF9  _move_left                         action
     00000CFB  A$lcc1484018$242                   action
     00000CFD  A$lcc1484018$243                   action
     00000CFE  A$lcc1484018$247                   action
     00000CFE  C$action.c$32$2_0$157              action
     00000D01  A$lcc1484018$248                   action
     00000D03  A$lcc1484018$252                   action
     00000D03  C$action.c$33$2_0$157              action
     00000D05  A$lcc1484018$256                   action
     00000D05  C$action.c$35$1_0$156              action
     00000D07  A$lcc1484018$257                   action
     00000D08  A$lcc1484018$258                   action
     00000D09  A$lcc1484018$259                   action
     00000D0B  A$lcc1484018$260                   action
     00000D0C  A$lcc1484018$261                   action
     00000D0E  A$lcc1484018$262                   action
     00000D10  A$lcc1484018$263                   action
     00000D11  A$lcc1484018$264                   action
     00000D14  A$lcc1484018$265                   action
     00000D16  A$lcc1484018$266                   action
     00000D17  A$lcc1484018$267                   action
     00000D18  A$lcc1484018$268                   action
     00000D19  A$lcc1484018$269                   action
     00000D1A  A$lcc1484018$270                   action
     00000D1B  A$lcc1484018$271                   action
     00000D1C  A$lcc1484018$272                   action
     00000D1D  A$lcc1484018$273                   action
     00000D1E  A$lcc1484018$274                   action
     00000D1F  A$lcc1484018$275                   action
     00000D20  A$lcc1484018$276                   action
     00000D22  A$lcc1484018$277                   action
     00000D23  A$lcc1484018$278                   action
     00000D25  A$lcc1484018$279                   action
     00000D26  A$lcc1484018$280                   action
     00000D28  A$lcc1484018$281                   action
     00000D29  A$lcc1484018$282                   action
     00000D2B  A$lcc1484018$283                   action
     00000D2C  A$lcc1484018$284                   action
     00000D2E  A$lcc1484018$285                   action
     00000D2F  A$lcc1484018$286                   action
     00000D31  A$lcc1484018$287                   action
     00000D32  A$lcc1484018$288                   action
     00000D33  A$lcc1484018$289                   action
     00000D34  A$lcc1484018$290                   action
     00000D35  A$lcc1484018$291                   action
     00000D36  A$lcc1484018$292                   action
     00000D37  A$lcc1484018$293                   action
ASxxxx Linker V03.00/V05.40 + sdld,  page 9.
Hexadecimal  [32-Bits]

Area                                    Addr        Size        Decimal Bytes (Attributes)
--------------------------------        ----        ----        ------- ----- ------------
_CODE                               00000200    000024E6 =        9446. bytes (REL,CON)

      Value  Global                              Global Defined In Module
      -----  --------------------------------   ------------------------
     00000D38  A$lcc1484018$294                   action
     00000D39  A$lcc1484018$295                   action
     00000D3A  A$lcc1484018$296                   action
     00000D3B  A$lcc1484018$297                   action
     00000D3D  A$lcc1484018$298                   action
     00000D3E  A$lcc1484018$299                   action
     00000D3F  A$lcc1484018$300                   action
     00000D40  A$lcc1484018$301                   action
     00000D41  A$lcc1484018$305                   action
     00000D41  C$action.c$36$1_0$156              action
     00000D42  A$lcc1484018$306                   action
     00000D43  A$lcc1484018$307                   action
     00000D44  A$lcc1484018$308                   action
     00000D45  A$lcc1484018$309                   action
     00000D46  A$lcc1484018$310                   action
     00000D47  A$lcc1484018$311                   action
     00000D48  A$lcc1484018$312                   action
     00000D49  A$lcc1484018$313                   action
     00000D4C  A$lcc1484018$314                   action
     00000D4D  A$lcc1484018$315                   action
     00000D4F  A$lcc1484018$316                   action
     00000D50  A$lcc1484018$317                   action
     00000D51  A$lcc1484018$318                   action
     00000D52  A$lcc1484018$319                   action
     00000D53  A$lcc1484018$320                   action
     00000D54  A$lcc1484018$321                   action
     00000D55  A$lcc1484018$326                   action
     00000D57  A$lcc1484018$331                   action
     00000D57  C$action.c$37$1_0$156              action
     00000D57  XG$move_left$0$0                   action
     00000D58  A$lcc1484018$341                   action
     00000D58  C$action.c$39$1_0$159              action
     00000D58  G$move_right$0$0                   action
     00000D58  _move_right                        action
     00000D5A  A$lcc1484018$342                   action
     00000D5C  A$lcc1484018$343                   action
     00000D5D  A$lcc1484018$347                   action
     00000D5D  C$action.c$41$2_0$160              action
     00000D60  A$lcc1484018$348                   action
     00000D62  A$lcc1484018$352                   action
     00000D62  C$action.c$42$2_0$160              action
     00000D64  A$lcc1484018$356                   action
     00000D64  C$action.c$44$1_0$159              action
     00000D66  A$lcc1484018$357                   action
     00000D67  A$lcc1484018$358                   action
     00000D68  A$lcc1484018$359                   action
     00000D6A  A$lcc1484018$360                   action
     00000D6B  A$lcc1484018$361                   action
     00000D6D  A$lcc1484018$362                   action
     00000D6F  A$lcc1484018$363                   action
     00000D70  A$lcc1484018$364                   action
ASxxxx Linker V03.00/V05.40 + sdld,  page 10.
Hexadecimal  [32-Bits]

Area                                    Addr        Size        Decimal Bytes (Attributes)
--------------------------------        ----        ----        ------- ----- ------------
_CODE                               00000200    000024E6 =        9446. bytes (REL,CON)

      Value  Global                              Global Defined In Module
      -----  --------------------------------   ------------------------
     00000D73  A$lcc1484018$365                   action
     00000D75  A$lcc1484018$366                   action
     00000D76  A$lcc1484018$367                   action
     00000D77  A$lcc1484018$368                   action
     00000D78  A$lcc1484018$369                   action
     00000D79  A$lcc1484018$370                   action
     00000D7A  A$lcc1484018$371                   action
     00000D7B  A$lcc1484018$372                   action
     00000D7C  A$lcc1484018$373                   action
     00000D7E  A$lcc1484018$374                   action
     00000D7F  A$lcc1484018$375                   action
     00000D80  A$lcc1484018$376                   action
     00000D82  A$lcc1484018$377                   action
     00000D83  A$lcc1484018$378                   action
     00000D84  A$lcc1484018$379                   action
     00000D85  A$lcc1484018$380                   action
     00000D86  A$lcc1484018$381                   action
     00000D87  A$lcc1484018$382                   action
     00000D88  A$lcc1484018$383                   action
     00000D89  A$lcc1484018$384                   action
     00000D8A  A$lcc1484018$385                   action
     00000D8B  A$lcc1484018$386                   action
     00000D8C  A$lcc1484018$390                   action
     00000D8C  C$action.c$45$1_0$159              action
     00000D8D  A$lcc1484018$391                   action
     00000D90  A$lcc1484018$392                   action
     00000D92  A$lcc1484018$393                   action
     00000D93  A$lcc1484018$394                   action
     00000D95  A$lcc1484018$395                   action
     00000D96  A$lcc1484018$396                   action
     00000D97  A$lcc1484018$397                   action
     00000D98  A$lcc1484018$398                   action
     00000D99  A$lcc1484018$399                   action
     00000D9A  A$lcc1484018$400                   action
     00000D9B  A$lcc1484018$405                   action
     00000D9D  A$lcc1484018$410                   action
     00000D9D  C$action.c$46$1_0$159              action
     00000D9D  XG$move_right$0$0                  action
     00000D9E  A$lcc1484018$420                   action
     00000D9E  C$action.c$48$1_0$162              action
     00000D9E  G$check_input$0$0                  action
     00000D9E  _check_input                       action
     00000D9F  A$lcc1484018$424                   action
     00000D9F  C$action.c$50$1_0$162              action
     00000DA2  A$lcc1484018$425                   action
     00000DA5  A$lcc1484018$426                   action
     00000DA6  A$lcc1484018$430                   action
     00000DA6  C$action.c$52$2_0$163              action
     00000DA8  A$lcc1484018$431                   action
     00000DAA  A$lcc1484018$432                   action
     00000DAD  A$lcc1484018$433                   action
ASxxxx Linker V03.00/V05.40 + sdld,  page 11.
Hexadecimal  [32-Bits]

Area                                    Addr        Size        Decimal Bytes (Attributes)
--------------------------------        ----        ----        ------- ----- ------------
_CODE                               00000200    000024E6 =        9446. bytes (REL,CON)

      Value  Global                              Global Defined In Module
      -----  --------------------------------   ------------------------
     00000DAF  A$lcc1484018$434                   action
     00000DB1  A$lcc1484018$438                   action
     00000DB1  C$action.c$54$3_0$164              action
     00000DB4  A$lcc1484018$439                   action
     00000DB7  A$lcc1484018$440                   action
     00000DB8  A$lcc1484018$441                   action
     00000DB9  A$lcc1484018$442                   action
     00000DBA  A$lcc1484018$443                   action
     00000DBB  A$lcc1484018$444                   action
     00000DBC  A$lcc1484018$445                   action
     00000DBD  A$lcc1484018$446                   action
     00000DBE  A$lcc1484018$447                   action
     00000DC1  A$lcc1484018$448                   action
     00000DC3  A$lcc1484018$449                   action
     00000DC4  A$lcc1484018$450                   action
     00000DC6  A$lcc1484018$451                   action
     00000DC7  A$lcc1484018$452                   action
     00000DC8  A$lcc1484018$453                   action
     00000DCB  A$lcc1484018$458                   action
     00000DCB  C$action.c$58$2_0$165              action
     00000DCE  A$lcc1484018$459                   action
     00000DCF  A$lcc1484018$460                   action
     00000DD1  A$lcc1484018$464                   action
     00000DD4  A$lcc1484018$468                   action
     00000DD4  C$action.c$60$4_0$167              action
     00000DD6  A$lcc1484018$469                   action
     00000DD8  A$lcc1484018$473                   action
     00000DD8  C$action.c$61$4_0$167              action
     00000DDB  A$lcc1484018$474                   action
     00000DDD  A$lcc1484018$475                   action
     00000DDF  A$lcc1484018$480                   action
     00000DDF  C$action.c$62$5_0$168              action
     00000DE1  A$lcc1484018$481                   action
     00000DE3  A$lcc1484018$485                   action
     00000DE3  C$action.c$63$5_0$168              action
     00000DE6  A$lcc1484018$486                   action
     00000DE8  A$lcc1484018$487                   action
     00000DEA  A$lcc1484018$492                   action
     00000DEA  C$action.c$64$6_0$169              action
     00000DEC  A$lcc1484018$493                   action
     00000DEE  A$lcc1484018$497                   action
     00000DEE  C$action.c$65$6_0$169              action
     00000DF1  A$lcc1484018$498                   action
     00000DF3  A$lcc1484018$499                   action
     00000DF5  A$lcc1484018$504                   action
     00000DF5  C$action.c$66$7_0$170              action
     00000DF6  A$lcc1484018$505                   action
     00000DF8  A$lcc1484018$509                   action
     00000DF8  C$action.c$67$7_0$170              action
     00000DFB  A$lcc1484018$510                   action
     00000DFD  A$lcc1484018$515                   action
ASxxxx Linker V03.00/V05.40 + sdld,  page 12.
Hexadecimal  [32-Bits]

Area                                    Addr        Size        Decimal Bytes (Attributes)
--------------------------------        ----        ----        ------- ----- ------------
_CODE                               00000200    000024E6 =        9446. bytes (REL,CON)

      Value  Global                              Global Defined In Module
      -----  --------------------------------   ------------------------
     00000DFD  C$action.c$71$2_0$171              action
     00000E00  A$lcc1484018$516                   action
     00000E01  A$lcc1484018$517                   action
     00000E03  A$lcc1484018$518                   action
     00000E06  A$lcc1484018$519                   action
     00000E08  A$lcc1484018$520                   action
     00000E0A  A$lcc1484018$521                   action
     00000E0C  A$lcc1484018$522                   action
     00000E0E  A$lcc1484018$523                   action
     00000E10  A$lcc1484018$524                   action
     00000E12  A$lcc1484018$525                   action
     00000E14  A$lcc1484018$533                   action
     00000E14  C$action.c$73$3_0$172              action
     00000E14  C$action.c$74$3_0$172              action
     00000E17  A$lcc1484018$534                   action
     00000E1A  A$lcc1484018$538                   action
     00000E1A  C$action.c$75$3_0$172              action
     00000E1D  A$lcc1484018$539                   action
     00000E1F  A$lcc1484018$540                   action
     00000E20  A$lcc1484018$541                   action
     00000E23  A$lcc1484018$542                   action
     00000E24  A$lcc1484018$543                   action
     00000E26  A$lcc1484018$544                   action
     00000E27  A$lcc1484018$545                   action
     00000E28  A$lcc1484018$546                   action
     00000E29  A$lcc1484018$547                   action
     00000E2A  A$lcc1484018$548                   action
     00000E2B  A$lcc1484018$549                   action
     00000E2C  A$lcc1484018$550                   action
     00000E2D  A$lcc1484018$551                   action
     00000E2E  A$lcc1484018$552                   action
     00000E2F  A$lcc1484018$553                   action
     00000E32  A$lcc1484018$554                   action
     00000E33  A$lcc1484018$555                   action
     00000E34  A$lcc1484018$556                   action
     00000E35  A$lcc1484018$557                   action
     00000E37  A$lcc1484018$558                   action
     00000E38  A$lcc1484018$559                   action
     00000E3B  A$lcc1484018$563                   action
     00000E3B  C$action.c$76$3_0$172              action
     00000E3D  A$lcc1484018$571                   action
     00000E3D  C$action.c$77$3_0$172              action
     00000E3D  C$action.c$78$3_0$172              action
     00000E40  A$lcc1484018$572                   action
     00000E43  A$lcc1484018$576                   action
     00000E43  C$action.c$79$3_0$172              action
     00000E46  A$lcc1484018$577                   action
     00000E48  A$lcc1484018$578                   action
     00000E49  A$lcc1484018$579                   action
     00000E4C  A$lcc1484018$580                   action
     00000E4D  A$lcc1484018$581                   action
ASxxxx Linker V03.00/V05.40 + sdld,  page 13.
Hexadecimal  [32-Bits]

Area                                    Addr        Size        Decimal Bytes (Attributes)
--------------------------------        ----        ----        ------- ----- ------------
_CODE                               00000200    000024E6 =        9446. bytes (REL,CON)

      Value  Global                              Global Defined In Module
      -----  --------------------------------   ------------------------
     00000E4F  A$lcc1484018$582                   action
     00000E50  A$lcc1484018$583                   action
     00000E51  A$lcc1484018$584                   action
     00000E52  A$lcc1484018$585                   action
     00000E53  A$lcc1484018$586                   action
     00000E54  A$lcc1484018$587                   action
     00000E55  A$lcc1484018$588                   action
     00000E56  A$lcc1484018$589                   action
     00000E57  A$lcc1484018$590                   action
     00000E58  A$lcc1484018$591                   action
     00000E5B  A$lcc1484018$592                   action
     00000E5C  A$lcc1484018$593                   action
     00000E5D  A$lcc1484018$594                   action
     00000E5E  A$lcc1484018$595                   action
     00000E60  A$lcc1484018$596                   action
     00000E61  A$lcc1484018$597                   action
     00000E64  A$lcc1484018$601                   action
     00000E64  C$action.c$80$3_0$172              action
     00000E66  A$lcc1484018$609                   action
     00000E66  C$action.c$81$3_0$172              action
     00000E66  C$action.c$82$3_0$172              action
     00000E69  A$lcc1484018$610                   action
     00000E6C  A$lcc1484018$614                   action
     00000E6C  C$action.c$83$3_0$172              action
     00000E6E  A$lcc1484018$622                   action
     00000E6E  C$action.c$84$3_0$172              action
     00000E6E  C$action.c$85$3_0$172              action
     00000E71  A$lcc1484018$623                   action
     00000E74  A$lcc1484018$631                   action
     00000E74  C$action.c$89$2_0$171              action
     00000E74  C$action.c$92$2_0$173              action
     00000E77  A$lcc1484018$632                   action
     00000E78  A$lcc1484018$633                   action
     00000E7A  A$lcc1484018$634                   action
     00000E7D  A$lcc1484018$635                   action
     00000E7F  A$lcc1484018$636                   action
     00000E81  A$lcc1484018$640                   action
     00000E81  C$action.c$94$3_0$174              action
     00000E82  A$lcc1484018$641                   action
     00000E85  A$lcc1484018$645                   action
     00000E85  C$action.c$95$3_0$174              action
     00000E88  A$lcc1484018$646                   action
     00000E8A  A$lcc1484018$647                   action
     00000E8B  A$lcc1484018$648                   action
     00000E8E  A$lcc1484018$649                   action
     00000E8F  A$lcc1484018$650                   action
     00000E91  A$lcc1484018$651                   action
     00000E92  A$lcc1484018$652                   action
     00000E93  A$lcc1484018$653                   action
     00000E94  A$lcc1484018$654                   action
     00000E95  A$lcc1484018$655                   action
ASxxxx Linker V03.00/V05.40 + sdld,  page 14.
Hexadecimal  [32-Bits]

Area                                    Addr        Size        Decimal Bytes (Attributes)
--------------------------------        ----        ----        ------- ----- ------------
_CODE                               00000200    000024E6 =        9446. bytes (REL,CON)

      Value  Global                              Global Defined In Module
      -----  --------------------------------   ------------------------
     00000E96  A$lcc1484018$656                   action
     00000E97  A$lcc1484018$657                   action
     00000E98  A$lcc1484018$658                   action
     00000E99  A$lcc1484018$659                   action
     00000E9A  A$lcc1484018$660                   action
     00000E9D  A$lcc1484018$661                   action
     00000E9E  A$lcc1484018$662                   action
     00000E9F  A$lcc1484018$663                   action
     00000EA0  A$lcc1484018$664                   action
     00000EA2  A$lcc1484018$665                   action
     00000EA3  A$lcc1484018$666                   action
     00000EA6  A$lcc1484018$671                   action
     00000EA6  C$action.c$98$2_0$175              action
     00000EA9  A$lcc1484018$672                   action
     00000EAB  A$lcc1484018$673                   action
     00000EAD  A$lcc1484018$674                   action
     00000EB0  A$lcc1484018$675                   action
     00000EB2  A$lcc1484018$676                   action
     00000EB4  A$lcc1484018$680                   action
     00000EB4  C$action.c$100$3_0$176             action
     00000EB5  A$lcc1484018$681                   action
     00000EB8  A$lcc1484018$685                   action
     00000EB8  C$action.c$101$3_0$176             action
     00000EBB  A$lcc1484018$686                   action
     00000EBD  A$lcc1484018$687                   action
     00000EBE  A$lcc1484018$688                   action
     00000EC1  A$lcc1484018$689                   action
     00000EC2  A$lcc1484018$690                   action
     00000EC4  A$lcc1484018$691                   action
     00000EC5  A$lcc1484018$692                   action
     00000EC6  A$lcc1484018$693                   action
     00000EC7  A$lcc1484018$694                   action
     00000EC8  A$lcc1484018$695                   action
     00000EC9  A$lcc1484018$696                   action
     00000ECA  A$lcc1484018$697                   action
     00000ECB  A$lcc1484018$698                   action
     00000ECC  A$lcc1484018$699                   action
     00000ECD  A$lcc1484018$700                   action
     00000ED0  A$lcc1484018$701                   action
     00000ED1  A$lcc1484018$702                   action
     00000ED2  A$lcc1484018$703                   action
     00000ED3  A$lcc1484018$704                   action
     00000ED5  A$lcc1484018$705                   action
     00000ED6  A$lcc1484018$706                   action
     00000ED9  A$lcc1484018$711                   action
     00000ED9  C$action.c$52$1_0$162              action
     00000EDC  A$lcc1484018$712                   action
     00000EDD  A$lcc1484018$716                   action
     00000EDD  C$action.c$104$2_0$177             action
     00000EE0  A$lcc1484018$717                   action
     00000EE2  A$lcc1484018$718                   action
ASxxxx Linker V03.00/V05.40 + sdld,  page 15.
Hexadecimal  [32-Bits]

Area                                    Addr        Size        Decimal Bytes (Attributes)
--------------------------------        ----        ----        ------- ----- ------------
_CODE                               00000200    000024E6 =        9446. bytes (REL,CON)

      Value  Global                              Global Defined In Module
      -----  --------------------------------   ------------------------
     00000EE4  A$lcc1484018$719                   action
     00000EE6  A$lcc1484018$720                   action
     00000EE8  A$lcc1484018$724                   action
     00000EE8  C$action.c$105$2_0$177             action
     00000EE9  A$lcc1484018$725                   action
     00000EEC  A$lcc1484018$730                   action
     00000EEC  C$action.c$106$2_0$178             action
     00000EEF  A$lcc1484018$731                   action
     00000EF1  A$lcc1484018$732                   action
     00000EF3  A$lcc1484018$733                   action
     00000EF5  A$lcc1484018$734                   action
     00000EF7  A$lcc1484018$738                   action
     00000EF7  C$action.c$107$2_0$178             action
     00000EF8  A$lcc1484018$739                   action
     00000EFB  A$lcc1484018$744                   action
     00000EFB  C$action.c$109$1_0$162             action
     00000EFE  A$lcc1484018$745                   action
     00000F01  A$lcc1484018$749                   action
     00000F02  A$lcc1484018$754                   action
     00000F02  C$action.c$110$1_0$162             action
     00000F02  XG$check_input$0$0                 action
     00000F03  A$lcc1484019$59                    animation
     00000F03  C$animation.c$7$0_0$135            animation
     00000F03  G$init_animation$0$0               animation
     00000F03  _init_animation                    animation
     00000F05  A$lcc1484019$60                    animation
     00000F07  A$lcc1484019$61                    animation
     00000F08  A$lcc1484019$62                    animation
     00000F09  A$lcc1484019$63                    animation
     00000F0A  A$lcc1484019$64                    animation
     00000F0B  A$lcc1484019$65                    animation
     00000F0C  A$lcc1484019$69                    animation
     00000F0C  C$animation.c$12$1_0$135           animation
     00000F0E  A$lcc1484019$70                    animation
     00000F0F  A$lcc1484019$71                    animation
     00000F10  A$lcc1484019$72                    animation
     00000F11  A$lcc1484019$73                    animation
     00000F12  A$lcc1484019$74                    animation
     00000F13  A$lcc1484019$75                    animation
     00000F14  A$lcc1484019$76                    animation
     00000F16  A$lcc1484019$77                    animation
     00000F18  A$lcc1484019$78                    animation
     00000F19  A$lcc1484019$79                    animation
     00000F1A  A$lcc1484019$80                    animation
     00000F1B  A$lcc1484019$81                    animation
     00000F1C  A$lcc1484019$82                    animation
     00000F1D  A$lcc1484019$83                    animation
     00000F1E  A$lcc1484019$87                    animation
     00000F1E  C$animation.c$14$1_0$135           animation
     00000F1F  A$lcc1484019$88                    animation
     00000F20  A$lcc1484019$89                    animation
ASxxxx Linker V03.00/V05.40 + sdld,  page 16.
Hexadecimal  [32-Bits]

Area                                    Addr        Size        Decimal Bytes (Attributes)
--------------------------------        ----        ----        ------- ----- ------------
_CODE                               00000200    000024E6 =        9446. bytes (REL,CON)

      Value  Global                              Global Defined In Module
      -----  --------------------------------   ------------------------
     00000F21  A$lcc1484019$90                    animation
     00000F23  A$lcc1484019$91                    animation
     00000F24  A$lcc1484019$92                    animation
     00000F25  A$lcc1484019$96                    animation
     00000F25  C$animation.c$15$1_0$135           animation
     00000F26  A$lcc1484019$97                    animation
     00000F27  A$lcc1484019$98                    animation
     00000F28  A$lcc1484019$99                    animation
     00000F29  A$lcc1484019$100                   animation
     00000F2A  A$lcc1484019$101                   animation
     00000F2B  A$lcc1484019$102                   animation
     00000F2D  A$lcc1484019$103                   animation
     00000F2E  A$lcc1484019$104                   animation
     00000F2F  A$lcc1484019$105                   animation
     00000F30  A$lcc1484019$109                   animation
     00000F30  C$animation.c$16$1_0$135           animation
     00000F33  A$lcc1484019$110                   animation
     00000F34  A$lcc1484019$111                   animation
     00000F36  A$lcc1484019$115                   animation
     00000F36  C$animation.c$17$1_0$135           animation
     00000F37  A$lcc1484019$116                   animation
     00000F38  A$lcc1484019$117                   animation
     00000F39  A$lcc1484019$118                   animation
     00000F3A  A$lcc1484019$119                   animation
     00000F3C  A$lcc1484019$123                   animation
     00000F3C  C$animation.c$18$1_0$135           animation
     00000F3F  A$lcc1484019$124                   animation
     00000F40  A$lcc1484019$125                   animation
     00000F41  A$lcc1484019$126                   animation
     00000F43  A$lcc1484019$127                   animation
     00000F44  A$lcc1484019$128                   animation
     00000F45  A$lcc1484019$129                   animation
     00000F46  A$lcc1484019$133                   animation
     00000F46  C$animation.c$21$1_0$135           animation
     00000F47  A$lcc1484019$134                   animation
     00000F48  A$lcc1484019$135                   animation
     00000F49  A$lcc1484019$136                   animation
     00000F4A  A$lcc1484019$137                   animation
     00000F4C  A$lcc1484019$138                   animation
     00000F4D  A$lcc1484019$139                   animation
     00000F4E  A$lcc1484019$140                   animation
     00000F4F  A$lcc1484019$141                   animation
     00000F50  A$lcc1484019$142                   animation
     00000F53  A$lcc1484019$143                   animation
     00000F54  A$lcc1484019$144                   animation
     00000F55  A$lcc1484019$145                   animation
     00000F56  A$lcc1484019$146                   animation
     00000F58  A$lcc1484019$147                   animation
     00000F59  A$lcc1484019$148                   animation
     00000F5A  A$lcc1484019$149                   animation
     00000F5B  A$lcc1484019$150                   animation
ASxxxx Linker V03.00/V05.40 + sdld,  page 17.
Hexadecimal  [32-Bits]

Area                                    Addr        Size        Decimal Bytes (Attributes)
--------------------------------        ----        ----        ------- ----- ------------
_CODE                               00000200    000024E6 =        9446. bytes (REL,CON)

      Value  Global                              Global Defined In Module
      -----  --------------------------------   ------------------------
     00000F5D  A$lcc1484019$151                   animation
     00000F5E  A$lcc1484019$152                   animation
     00000F61  A$lcc1484019$153                   animation
     00000F62  A$lcc1484019$154                   animation
     00000F63  A$lcc1484019$155                   animation
     00000F64  A$lcc1484019$156                   animation
     00000F65  A$lcc1484019$160                   animation
     00000F65  C$animation.c$24$2_0$135           animation
     00000F67  A$lcc1484019$162                   animation
     00000F68  A$lcc1484019$163                   animation
     00000F69  A$lcc1484019$164                   animation
     00000F6A  A$lcc1484019$165                   animation
     00000F6B  A$lcc1484019$166                   animation
     00000F6D  A$lcc1484019$167                   animation
     00000F6E  A$lcc1484019$168                   animation
     00000F70  A$lcc1484019$173                   animation
     00000F70  C$animation.c$32$2_0$138           animation
     00000F72  A$lcc1484019$174                   animation
     00000F73  A$lcc1484019$175                   animation
     00000F74  A$lcc1484019$176                   animation
     00000F75  A$lcc1484019$177                   animation
     00000F78  A$lcc1484019$178                   animation
     00000F79  A$lcc1484019$179                   animation
     00000F7A  A$lcc1484019$180                   animation
     00000F7B  A$lcc1484019$181                   animation
     00000F7C  A$lcc1484019$182                   animation
     00000F7D  A$lcc1484019$183                   animation
     00000F7F  A$lcc1484019$187                   animation
     00000F7F  C$animation.c$33$2_0$138           animation
     00000F81  A$lcc1484019$188                   animation
     00000F82  A$lcc1484019$189                   animation
     00000F83  A$lcc1484019$194                   animation
     00000F83  C$animation.c$34$2_0$135           animation
     00000F85  A$lcc1484019$195                   animation
     00000F86  A$lcc1484019$196                   animation
     00000F88  A$lcc1484019$197                   animation
     00000F89  A$lcc1484019$207                   animation
     00000F89  C$animation.c$36$2_0$140           animation
     00000F89  G$update_animation$0$0             animation
     00000F89  _update_animation                  animation
     00000F8A  A$lcc1484019$208                   animation
     00000F8B  A$lcc1484019$209                   animation
     00000F8C  A$lcc1484019$210                   animation
     00000F8D  A$lcc1484019$214                   animation
     00000F8D  C$animation.c$38$1_0$140           animation
     00000F90  A$lcc1484019$215                   animation
     00000F91  A$lcc1484019$216                   animation
     00000F92  A$lcc1484019$217                   animation
     00000F93  A$lcc1484019$218                   animation
     00000F94  A$lcc1484019$219                   animation
     00000F95  A$lcc1484019$220                   animation
ASxxxx Linker V03.00/V05.40 + sdld,  page 18.
Hexadecimal  [32-Bits]

Area                                    Addr        Size        Decimal Bytes (Attributes)
--------------------------------        ----        ----        ------- ----- ------------
_CODE                               00000200    000024E6 =        9446. bytes (REL,CON)

      Value  Global                              Global Defined In Module
      -----  --------------------------------   ------------------------
     00000F96  A$lcc1484019$221                   animation
     00000F97  A$lcc1484019$222                   animation
     00000F98  A$lcc1484019$223                   animation
     00000F9A  A$lcc1484019$224                   animation
     00000F9B  A$lcc1484019$225                   animation
     00000F9C  A$lcc1484019$229                   animation
     00000F9C  C$animation.c$40$1_0$140           animation
     00000F9F  A$lcc1484019$230                   animation
     00000FA0  A$lcc1484019$231                   animation
     00000FA1  A$lcc1484019$232                   animation
     00000FA2  A$lcc1484019$233                   animation
     00000FA3  A$lcc1484019$234                   animation
     00000FA4  A$lcc1484019$235                   animation
     00000FA6  A$lcc1484019$236                   animation
     00000FA7  A$lcc1484019$237                   animation
     00000FA8  A$lcc1484019$241                   animation
     00000FA8  C$animation.c$41$2_0$141           animation
     00000FA9  A$lcc1484019$242                   animation
     00000FAA  A$lcc1484019$243                   animation
     00000FAB  A$lcc1484019$244                   animation
     00000FAC  A$lcc1484019$245                   animation
     00000FAD  A$lcc1484019$246                   animation
     00000FAE  A$lcc1484019$247                   animation
     00000FB0  A$lcc1484019$248                   animation
     00000FB1  A$lcc1484019$249                   animation
     00000FB3  A$lcc1484019$250                   animation
     00000FB4  A$lcc1484019$251                   animation
     00000FB5  A$lcc1484019$252                   animation
     00000FB7  A$lcc1484019$256                   animation
     00000FB7  C$animation.c$43$3_0$142           animation
     00000FB8  A$lcc1484019$257                   animation
     00000FB9  A$lcc1484019$261                   animation
     00000FB9  C$animation.c$44$3_0$142           animation
     00000FBA  A$lcc1484019$262                   animation
     00000FBB  A$lcc1484019$263                   animation
     00000FBC  A$lcc1484019$264                   animation
     00000FBD  A$lcc1484019$265                   animation
     00000FBE  A$lcc1484019$266                   animation
     00000FBF  A$lcc1484019$270                   animation
     00000FBF  C$animation.c$45$4_0$143           animation
     00000FC0  A$lcc1484019$271                   animation
     00000FC1  A$lcc1484019$272                   animation
     00000FC2  A$lcc1484019$273                   animation
     00000FC3  A$lcc1484019$274                   animation
     00000FC4  A$lcc1484019$275                   animation
     00000FC6  A$lcc1484019$279                   animation
     00000FC6  C$animation.c$46$4_0$143           animation
     00000FC8  A$lcc1484019$284                   animation
     00000FC9  A$lcc1484019$285                   animation
     00000FCA  A$lcc1484019$290                   animation
     00000FCA  C$animation.c$48$2_0$140           animation
ASxxxx Linker V03.00/V05.40 + sdld,  page 19.
Hexadecimal  [32-Bits]

Area                                    Addr        Size        Decimal Bytes (Attributes)
--------------------------------        ----        ----        ------- ----- ------------
_CODE                               00000200    000024E6 =        9446. bytes (REL,CON)

      Value  Global                              Global Defined In Module
      -----  --------------------------------   ------------------------
     00000FCA  XG$update_animation$0$0            animation
     00000FCB  A$lcc1484019$300                   animation
     00000FCB  C$animation.c$50$2_0$145           animation
     00000FCB  G$set_animation$0$0                animation
     00000FCB  _set_animation                     animation
     00000FCC  A$lcc1484019$301                   animation
     00000FCD  A$lcc1484019$302                   animation
     00000FCE  A$lcc1484019$306                   animation
     00000FCE  C$animation.c$52$2_0$146           animation
     00000FCF  A$lcc1484019$307                   animation
     00000FD1  A$lcc1484019$308                   animation
     00000FD2  A$lcc1484019$309                   animation
     00000FD3  A$lcc1484019$310                   animation
     00000FD5  A$lcc1484019$311                   animation
     00000FD6  A$lcc1484019$312                   animation
     00000FD7  A$lcc1484019$313                   animation
     00000FD8  A$lcc1484019$314                   animation
     00000FD9  A$lcc1484019$321                   animation
     00000FD9  C$animation.c$53$2_0$146           animation
     00000FD9  C$animation.c$55$1_0$145           animation
     00000FDA  A$lcc1484019$322                   animation
     00000FDB  A$lcc1484019$326                   animation
     00000FDB  C$animation.c$56$1_1$147           animation
     00000FDC  A$lcc1484019$327                   animation
     00000FDD  A$lcc1484019$328                   animation
     00000FDE  A$lcc1484019$329                   animation
     00000FDF  A$lcc1484019$330                   animation
     00000FE1  A$lcc1484019$331                   animation
     00000FE2  A$lcc1484019$335                   animation
     00000FE2  C$animation.c$57$1_1$147           animation
     00000FE3  A$lcc1484019$336                   animation
     00000FE4  A$lcc1484019$337                   animation
     00000FE5  A$lcc1484019$338                   animation
     00000FE6  A$lcc1484019$339                   animation
     00000FE7  A$lcc1484019$340                   animation
     00000FE8  A$lcc1484019$344                   animation
     00000FE8  C$animation.c$58$1_1$147           animation
     00000FEB  A$lcc1484019$345                   animation
     00000FEC  A$lcc1484019$346                   animation
     00000FEE  A$lcc1484019$354                   animation
     00000FEE  C$animation.c$59$1_1$145           animation
     00000FEE  XG$set_animation$0$0               animation
     00000FEF  A$lcc1484021$52                    char_to_tile
     00000FEF  C$char_to_tile.c$3$0_0$3           char_to_tile
     00000FEF  G$char_to_tile$0$0                 char_to_tile
     00000FEF  _char_to_tile                      char_to_tile
     00000FF1  A$lcc1484021$53                    char_to_tile
     00000FF3  A$lcc1484021$54                    char_to_tile
     00000FF4  A$lcc1484021$58                    char_to_tile
     00000FF4  C$char_to_tile.c$4$2_0$3           char_to_tile
     00000FF6  A$lcc1484021$59                    char_to_tile
ASxxxx Linker V03.00/V05.40 + sdld,  page 20.
Hexadecimal  [32-Bits]

Area                                    Addr        Size        Decimal Bytes (Attributes)
--------------------------------        ----        ----        ------- ----- ------------
_CODE                               00000200    000024E6 =        9446. bytes (REL,CON)

      Value  Global                              Global Defined In Module
      -----  --------------------------------   ------------------------
     00000FF8  A$lcc1484021$60                    char_to_tile
     00000FF9  A$lcc1484021$61                    char_to_tile
     00000FFB  A$lcc1484021$62                    char_to_tile
     00000FFC  A$lcc1484021$63                    char_to_tile
     00000FFE  A$lcc1484021$64                    char_to_tile
     00000FFF  A$lcc1484021$65                    char_to_tile
     00001001  A$lcc1484021$66                    char_to_tile
     00001002  A$lcc1484021$67                    char_to_tile
     00001004  A$lcc1484021$68                    char_to_tile
     00001005  A$lcc1484021$69                    char_to_tile
     00001007  A$lcc1484021$70                    char_to_tile
     00001008  A$lcc1484021$71                    char_to_tile
     0000100A  A$lcc1484021$72                    char_to_tile
     0000100B  A$lcc1484021$73                    char_to_tile
     0000100D  A$lcc1484021$74                    char_to_tile
     0000100E  A$lcc1484021$75                    char_to_tile
     00001010  A$lcc1484021$76                    char_to_tile
     00001011  A$lcc1484021$77                    char_to_tile
     00001013  A$lcc1484021$78                    char_to_tile
     00001014  A$lcc1484021$79                    char_to_tile
     00001016  A$lcc1484021$80                    char_to_tile
     00001017  A$lcc1484021$81                    char_to_tile
     00001019  A$lcc1484021$82                    char_to_tile
     0000101A  A$lcc1484021$83                    char_to_tile
     0000101C  A$lcc1484021$84                    char_to_tile
     0000101D  A$lcc1484021$85                    char_to_tile
     0000101F  A$lcc1484021$86                    char_to_tile
     00001020  A$lcc1484021$87                    char_to_tile
     00001022  A$lcc1484021$88                    char_to_tile
     00001023  A$lcc1484021$89                    char_to_tile
     00001025  A$lcc1484021$90                    char_to_tile
     00001026  A$lcc1484021$91                    char_to_tile
     00001028  A$lcc1484021$92                    char_to_tile
     00001029  A$lcc1484021$93                    char_to_tile
     0000102B  A$lcc1484021$94                    char_to_tile
     0000102C  A$lcc1484021$95                    char_to_tile
     0000102E  A$lcc1484021$96                    char_to_tile
     0000102F  A$lcc1484021$97                    char_to_tile
     00001031  A$lcc1484021$98                    char_to_tile
     00001032  A$lcc1484021$99                    char_to_tile
     00001034  A$lcc1484021$100                   char_to_tile
     00001035  A$lcc1484021$101                   char_to_tile
     00001037  A$lcc1484021$102                   char_to_tile
     00001038  A$lcc1484021$103                   char_to_tile
     0000103A  A$lcc1484021$104                   char_to_tile
     0000103B  A$lcc1484021$105                   char_to_tile
     0000103D  A$lcc1484021$106                   char_to_tile
     0000103E  A$lcc1484021$107                   char_to_tile
     00001040  A$lcc1484021$108                   char_to_tile
     00001041  A$lcc1484021$109                   char_to_tile
     00001043  A$lcc1484021$110                   char_to_tile
ASxxxx Linker V03.00/V05.40 + sdld,  page 21.
Hexadecimal  [32-Bits]

Area                                    Addr        Size        Decimal Bytes (Attributes)
--------------------------------        ----        ----        ------- ----- ------------
_CODE                               00000200    000024E6 =        9446. bytes (REL,CON)

      Value  Global                              Global Defined In Module
      -----  --------------------------------   ------------------------
     00001044  A$lcc1484021$111                   char_to_tile
     00001046  A$lcc1484021$112                   char_to_tile
     00001047  A$lcc1484021$113                   char_to_tile
     00001049  A$lcc1484021$114                   char_to_tile
     0000104A  A$lcc1484021$115                   char_to_tile
     0000104C  A$lcc1484021$116                   char_to_tile
     0000104D  A$lcc1484021$117                   char_to_tile
     0000104F  A$lcc1484021$118                   char_to_tile
     00001050  A$lcc1484021$122                   char_to_tile
     00001050  C$char_to_tile.c$5$3_0$4           char_to_tile
     00001051  A$lcc1484021$123                   char_to_tile
     00001052  A$lcc1484021$124                   char_to_tile
     00001053  A$lcc1484021$125                   char_to_tile
     00001054  A$lcc1484021$126                   char_to_tile
     00001057  A$lcc1484021$128                   char_to_tile
     00001058  A$lcc1484021$129                   char_to_tile
     0000105A  A$lcc1484021$130                   char_to_tile
     0000105C  A$lcc1484021$134                   char_to_tile
     0000105C  C$char_to_tile.c$6$4_0$6           char_to_tile
     0000105F  A$lcc1484021$135                   char_to_tile
     00001060  A$lcc1484021$136                   char_to_tile
     00001061  A$lcc1484021$137                   char_to_tile
     00001062  A$lcc1484021$138                   char_to_tile
     00001064  A$lcc1484021$139                   char_to_tile
     00001065  A$lcc1484021$140                   char_to_tile
     00001066  A$lcc1484021$141                   char_to_tile
     00001068  A$lcc1484021$145                   char_to_tile
     00001068  C$char_to_tile.c$7$5_0$7           char_to_tile
     0000106A  A$lcc1484021$146                   char_to_tile
     0000106B  A$lcc1484021$147                   char_to_tile
     0000106D  A$lcc1484021$148                   char_to_tile
     0000106E  A$lcc1484021$149                   char_to_tile
     00001070  A$lcc1484021$154                   char_to_tile
     00001070  C$char_to_tile.c$5$2_0$4           char_to_tile
     00001071  A$lcc1484021$155                   char_to_tile
     00001073  A$lcc1484021$156                   char_to_tile
     00001074  A$lcc1484021$157                   char_to_tile
     00001075  A$lcc1484021$158                   char_to_tile
     00001076  A$lcc1484021$159                   char_to_tile
     00001078  A$lcc1484021$164                   char_to_tile
     00001078  C$char_to_tile.c$11$1_0$3          char_to_tile
     0000107B  A$lcc1484021$169                   char_to_tile
     0000107D  A$lcc1484021$174                   char_to_tile
     0000107D  C$char_to_tile.c$12$1_0$3          char_to_tile
     0000107D  XG$char_to_tile$0$0                char_to_tile
     0000107E  A$lcc1484022$52                    draw
     0000107E  C$draw.c$6$0_0$136                 draw
     0000107E  G$draw_actor$0$0                   draw
     0000107E  _draw_actor                        draw
     00001080  A$lcc1484022$53                    draw
     00001082  A$lcc1484022$54                    draw
ASxxxx Linker V03.00/V05.40 + sdld,  page 22.
Hexadecimal  [32-Bits]

Area                                    Addr        Size        Decimal Bytes (Attributes)
--------------------------------        ----        ----        ------- ----- ------------
_CODE                               00000200    000024E6 =        9446. bytes (REL,CON)

      Value  Global                              Global Defined In Module
      -----  --------------------------------   ------------------------
     00001083  A$lcc1484022$58                    draw
     00001083  C$draw.c$8$1_0$136                 draw
     00001086  A$lcc1484022$59                    draw
     00001087  A$lcc1484022$60                    draw
     00001089  A$lcc1484022$61                    draw
     0000108A  A$lcc1484022$62                    draw
     0000108B  A$lcc1484022$63                    draw
     0000108C  A$lcc1484022$64                    draw
     0000108D  A$lcc1484022$65                    draw
     0000108F  A$lcc1484022$66                    draw
     00001090  A$lcc1484022$70                    draw
     00001090  C$draw.c$9$1_0$136                 draw
     00001093  A$lcc1484022$71                    draw
     00001095  A$lcc1484022$72                    draw
     00001096  A$lcc1484022$73                    draw
     00001098  A$lcc1484022$74                    draw
     00001099  A$lcc1484022$75                    draw
     0000109A  A$lcc1484022$76                    draw
     0000109B  A$lcc1484022$77                    draw
     0000109C  A$lcc1484022$78                    draw
     0000109E  A$lcc1484022$79                    draw
     0000109F  A$lcc1484022$83                    draw
     0000109F  C$draw.c$11$1_0$136                draw
     000010A2  A$lcc1484022$84                    draw
     000010A4  A$lcc1484022$85                    draw
     000010A5  A$lcc1484022$86                    draw
     000010A7  A$lcc1484022$87                    draw
     000010A8  A$lcc1484022$88                    draw
     000010A9  A$lcc1484022$89                    draw
     000010AA  A$lcc1484022$90                    draw
     000010AB  A$lcc1484022$91                    draw
     000010AC  A$lcc1484022$92                    draw
     000010AD  A$lcc1484022$93                    draw
     000010AE  A$lcc1484022$94                    draw
     000010AF  A$lcc1484022$95                    draw
     000010B0  A$lcc1484022$96                    draw
     000010B1  A$lcc1484022$97                    draw
     000010B2  A$lcc1484022$98                    draw
     000010B3  A$lcc1484022$102                   draw
     000010B3  C$draw.c$12$1_0$136                draw
     000010B6  A$lcc1484022$103                   draw
     000010B7  A$lcc1484022$104                   draw
     000010B8  A$lcc1484022$105                   draw
     000010B9  A$lcc1484022$106                   draw
     000010BA  A$lcc1484022$107                   draw
     000010BB  A$lcc1484022$108                   draw
     000010BC  A$lcc1484022$109                   draw
     000010BD  A$lcc1484022$110                   draw
     000010BE  A$lcc1484022$111                   draw
     000010C0  A$lcc1484022$112                   draw
     000010C1  A$lcc1484022$113                   draw
ASxxxx Linker V03.00/V05.40 + sdld,  page 23.
Hexadecimal  [32-Bits]

Area                                    Addr        Size        Decimal Bytes (Attributes)
--------------------------------        ----        ----        ------- ----- ------------
_CODE                               00000200    000024E6 =        9446. bytes (REL,CON)

      Value  Global                              Global Defined In Module
      -----  --------------------------------   ------------------------
     000010C2  A$lcc1484022$117                   draw
     000010C2  C$draw.c$14$1_0$136                draw
     000010C5  A$lcc1484022$118                   draw
     000010C6  A$lcc1484022$119                   draw
     000010C7  A$lcc1484022$120                   draw
     000010C9  A$lcc1484022$121                   draw
     000010CA  A$lcc1484022$125                   draw
     000010CA  C$draw.c$15$1_0$136                draw
     000010CB  A$lcc1484022$126                   draw
     000010CC  A$lcc1484022$127                   draw
     000010CD  A$lcc1484022$128                   draw
     000010CE  A$lcc1484022$129                   draw
     000010CF  A$lcc1484022$130                   draw
     000010D0  A$lcc1484022$131                   draw
     000010D3  A$lcc1484022$132                   draw
     000010D4  A$lcc1484022$133                   draw
     000010D5  A$lcc1484022$134                   draw
     000010D6  A$lcc1484022$135                   draw
     000010D8  A$lcc1484022$139                   draw
     000010D8  C$draw.c$17$1_0$136                draw
     000010D9  A$lcc1484022$140                   draw
     000010DA  A$lcc1484022$141                   draw
     000010DB  A$lcc1484022$142                   draw
     000010DC  A$lcc1484022$143                   draw
     000010DD  A$lcc1484022$147                   draw
     000010DD  C$draw.c$18$1_0$136                draw
     000010DF  A$lcc1484022$148                   draw
     000010E0  A$lcc1484022$149                   draw
     000010E1  A$lcc1484022$150                   draw
     000010E2  A$lcc1484022$151                   draw
     000010E3  A$lcc1484022$152                   draw
     000010E4  A$lcc1484022$153                   draw
     000010E5  A$lcc1484022$154                   draw
     000010E6  A$lcc1484022$155                   draw
     000010E7  A$lcc1484022$156                   draw
     000010E8  A$lcc1484022$157                   draw
     000010E9  A$lcc1484022$158                   draw
     000010EA  A$lcc1484022$159                   draw
     000010EB  A$lcc1484022$160                   draw
     000010EC  A$lcc1484022$161                   draw
     000010ED  A$lcc1484022$165                   draw
     000010ED  C$draw.c$20$2_0$137                draw
     000010EF  A$lcc1484022$166                   draw
     000010F0  A$lcc1484022$173                   draw
     000010F0  C$draw.c$21$2_0$137                draw
     000010F0  C$draw.c$24$2_0$136                draw
     000010F3  A$lcc1484022$174                   draw
     000010F5  A$lcc1484022$176                   draw
     000010F6  A$lcc1484022$177                   draw
     000010F8  A$lcc1484022$178                   draw
     000010F9  A$lcc1484022$179                   draw
ASxxxx Linker V03.00/V05.40 + sdld,  page 24.
Hexadecimal  [32-Bits]

Area                                    Addr        Size        Decimal Bytes (Attributes)
--------------------------------        ----        ----        ------- ----- ------------
_CODE                               00000200    000024E6 =        9446. bytes (REL,CON)

      Value  Global                              Global Defined In Module
      -----  --------------------------------   ------------------------
     000010FB  A$lcc1484022$181                   draw
     000010FC  A$lcc1484022$182                   draw
     000010FD  A$lcc1484022$183                   draw
     000010FE  A$lcc1484022$184                   draw
     000010FF  A$lcc1484022$185                   draw
     00001100  A$lcc1484022$186                   draw
     00001102  A$lcc1484022$187                   draw
     00001105  A$lcc1484022$188                   draw
     00001106  A$lcc1484022$189                   draw
     00001107  A$lcc1484022$190                   draw
     00001108  A$lcc1484022$191                   draw
     00001109  A$lcc1484022$193                   draw
     0000110A  A$lcc1484022$194                   draw
     0000110B  A$lcc1484022$195                   draw
     0000110C  A$lcc1484022$196                   draw
     0000110D  A$lcc1484022$197                   draw
     0000110E  A$lcc1484022$198                   draw
     0000110F  A$lcc1484022$199                   draw
     00001112  A$lcc1484022$200                   draw
     00001113  A$lcc1484022$201                   draw
     00001114  A$lcc1484022$202                   draw
     00001115  A$lcc1484022$203                   draw
     00001116  A$lcc1484022$204                   draw
     00001117  A$lcc1484022$208                   draw
     00001117  C$draw.c$24$2_0$138                draw
     00001118  A$lcc1484022$209                   draw
     0000111A  A$lcc1484022$214                   draw
     0000111A  C$draw.c$28$2_0$139                draw
     0000111C  A$lcc1484022$215                   draw
     0000111D  A$lcc1484022$216                   draw
     0000111E  A$lcc1484022$217                   draw
     00001120  A$lcc1484022$219                   draw
     00001122  A$lcc1484022$220                   draw
     00001123  A$lcc1484022$222                   draw
     00001124  A$lcc1484022$223                   draw
     00001125  A$lcc1484022$224                   draw
     00001126  A$lcc1484022$225                   draw
     00001127  A$lcc1484022$226                   draw
     00001128  A$lcc1484022$227                   draw
     0000112B  A$lcc1484022$228                   draw
     0000112C  A$lcc1484022$229                   draw
     0000112D  A$lcc1484022$230                   draw
     0000112E  A$lcc1484022$232                   draw
     00001130  A$lcc1484022$233                   draw
     00001131  A$lcc1484022$234                   draw
     00001132  A$lcc1484022$235                   draw
     00001133  A$lcc1484022$236                   draw
     00001134  A$lcc1484022$237                   draw
     00001135  A$lcc1484022$241                   draw
     00001135  C$draw.c$30$2_0$139                draw
     00001138  A$lcc1484022$246                   draw
ASxxxx Linker V03.00/V05.40 + sdld,  page 25.
Hexadecimal  [32-Bits]

Area                                    Addr        Size        Decimal Bytes (Attributes)
--------------------------------        ----        ----        ------- ----- ------------
_CODE                               00000200    000024E6 =        9446. bytes (REL,CON)

      Value  Global                              Global Defined In Module
      -----  --------------------------------   ------------------------
     00001138  C$draw.c$32$3_0$141                draw
     0000113A  A$lcc1484022$247                   draw
     0000113B  A$lcc1484022$248                   draw
     0000113D  A$lcc1484022$249                   draw
     0000113F  A$lcc1484022$253                   draw
     00001142  A$lcc1484022$254                   draw
     00001144  A$lcc1484022$255                   draw
     00001145  A$lcc1484022$256                   draw
     00001147  A$lcc1484022$257                   draw
     00001148  A$lcc1484022$258                   draw
     00001149  A$lcc1484022$259                   draw
     0000114A  A$lcc1484022$260                   draw
     0000114B  A$lcc1484022$261                   draw
     0000114C  A$lcc1484022$265                   draw
     0000114C  C$draw.c$30$2_0$136                draw
     0000114E  A$lcc1484022$266                   draw
     0000114F  A$lcc1484022$270                   draw
     0000114F  C$draw.c$34$5_0$143                draw
     00001151  A$lcc1484022$271                   draw
     00001153  A$lcc1484022$274                   draw
     00001154  A$lcc1484022$275                   draw
     00001155  A$lcc1484022$276                   draw
     00001156  A$lcc1484022$277                   draw
     00001157  A$lcc1484022$278                   draw
     00001158  A$lcc1484022$279                   draw
     0000115B  A$lcc1484022$280                   draw
     0000115C  A$lcc1484022$281                   draw
     0000115D  A$lcc1484022$282                   draw
     0000115E  A$lcc1484022$284                   draw
     00001160  A$lcc1484022$285                   draw
     00001161  A$lcc1484022$286                   draw
     00001162  A$lcc1484022$287                   draw
     00001163  A$lcc1484022$289                   draw
     00001164  A$lcc1484022$290                   draw
     00001165  A$lcc1484022$291                   draw
     00001166  A$lcc1484022$292                   draw
     00001168  A$lcc1484022$293                   draw
     00001169  A$lcc1484022$294                   draw
     0000116B  A$lcc1484022$296                   draw
     0000116C  A$lcc1484022$297                   draw
     0000116F  A$lcc1484022$298                   draw
     00001170  A$lcc1484022$299                   draw
     00001171  A$lcc1484022$300                   draw
     00001172  A$lcc1484022$301                   draw
     00001173  A$lcc1484022$302                   draw
     00001174  A$lcc1484022$303                   draw
     00001175  A$lcc1484022$304                   draw
     00001176  A$lcc1484022$306                   draw
     00001177  A$lcc1484022$307                   draw
     00001178  A$lcc1484022$308                   draw
     00001179  A$lcc1484022$309                   draw
ASxxxx Linker V03.00/V05.40 + sdld,  page 26.
Hexadecimal  [32-Bits]

Area                                    Addr        Size        Decimal Bytes (Attributes)
--------------------------------        ----        ----        ------- ----- ------------
_CODE                               00000200    000024E6 =        9446. bytes (REL,CON)

      Value  Global                              Global Defined In Module
      -----  --------------------------------   ------------------------
     0000117B  A$lcc1484022$310                   draw
     0000117C  A$lcc1484022$311                   draw
     0000117D  A$lcc1484022$315                   draw
     0000117D  C$draw.c$37$5_0$143                draw
     00001180  A$lcc1484022$319                   draw
     00001181  A$lcc1484022$320                   draw
     00001182  A$lcc1484022$321                   draw
     00001183  A$lcc1484022$322                   draw
     00001184  A$lcc1484022$323                   draw
     00001185  A$lcc1484022$324                   draw
     00001188  A$lcc1484022$325                   draw
     00001189  A$lcc1484022$326                   draw
     0000118A  A$lcc1484022$327                   draw
     0000118B  A$lcc1484022$329                   draw
     0000118D  A$lcc1484022$330                   draw
     0000118E  A$lcc1484022$331                   draw
     0000118F  A$lcc1484022$332                   draw
     00001190  A$lcc1484022$333                   draw
     00001191  A$lcc1484022$334                   draw
     00001192  A$lcc1484022$336                   draw
     00001193  A$lcc1484022$337                   draw
     00001195  A$lcc1484022$338                   draw
     00001196  A$lcc1484022$339                   draw
     00001198  A$lcc1484022$341                   draw
     00001199  A$lcc1484022$342                   draw
     0000119A  A$lcc1484022$343                   draw
     0000119B  A$lcc1484022$344                   draw
     0000119C  A$lcc1484022$345                   draw
     0000119D  A$lcc1484022$346                   draw
     000011A0  A$lcc1484022$347                   draw
     000011A1  A$lcc1484022$349                   draw
     000011A2  A$lcc1484022$350                   draw
     000011A4  A$lcc1484022$351                   draw
     000011A5  A$lcc1484022$352                   draw
     000011A6  A$lcc1484022$353                   draw
     000011A7  A$lcc1484022$354                   draw
     000011A8  A$lcc1484022$358                   draw
     000011A8  C$draw.c$42$3_0$141                draw
     000011AA  A$lcc1484022$363                   draw
     000011AA  C$draw.c$45$4_0$146                draw
     000011AC  A$lcc1484022$364                   draw
     000011AD  A$lcc1484022$365                   draw
     000011AF  A$lcc1484022$366                   draw
     000011B1  A$lcc1484022$368                   draw
     000011B3  A$lcc1484022$369                   draw
     000011B4  A$lcc1484022$371                   draw
     000011B5  A$lcc1484022$372                   draw
     000011B6  A$lcc1484022$373                   draw
     000011B7  A$lcc1484022$374                   draw
     000011B8  A$lcc1484022$375                   draw
     000011B9  A$lcc1484022$376                   draw
ASxxxx Linker V03.00/V05.40 + sdld,  page 27.
Hexadecimal  [32-Bits]

Area                                    Addr        Size        Decimal Bytes (Attributes)
--------------------------------        ----        ----        ------- ----- ------------
_CODE                               00000200    000024E6 =        9446. bytes (REL,CON)

      Value  Global                              Global Defined In Module
      -----  --------------------------------   ------------------------
     000011BC  A$lcc1484022$377                   draw
     000011BD  A$lcc1484022$378                   draw
     000011BE  A$lcc1484022$379                   draw
     000011BF  A$lcc1484022$381                   draw
     000011C1  A$lcc1484022$382                   draw
     000011C2  A$lcc1484022$383                   draw
     000011C3  A$lcc1484022$384                   draw
     000011C4  A$lcc1484022$385                   draw
     000011C5  A$lcc1484022$386                   draw
     000011C6  A$lcc1484022$388                   draw
     000011C7  A$lcc1484022$389                   draw
     000011C9  A$lcc1484022$390                   draw
     000011CB  A$lcc1484022$391                   draw
     000011CC  A$lcc1484022$392                   draw
     000011CD  A$lcc1484022$393                   draw
     000011CF  A$lcc1484022$395                   draw
     000011D0  A$lcc1484022$396                   draw
     000011D1  A$lcc1484022$397                   draw
     000011D2  A$lcc1484022$398                   draw
     000011D3  A$lcc1484022$399                   draw
     000011D4  A$lcc1484022$400                   draw
     000011D7  A$lcc1484022$401                   draw
     000011D8  A$lcc1484022$403                   draw
     000011D9  A$lcc1484022$404                   draw
     000011DB  A$lcc1484022$405                   draw
     000011DC  A$lcc1484022$406                   draw
     000011DD  A$lcc1484022$407                   draw
     000011DE  A$lcc1484022$408                   draw
     000011DF  A$lcc1484022$410                   draw
     000011E1  A$lcc1484022$411                   draw
     000011E2  A$lcc1484022$412                   draw
     000011E4  A$lcc1484022$413                   draw
     000011E5  A$lcc1484022$414                   draw
     000011E6  A$lcc1484022$415                   draw
     000011E8  A$lcc1484022$417                   draw
     000011E9  A$lcc1484022$418                   draw
     000011EA  A$lcc1484022$419                   draw
     000011EB  A$lcc1484022$420                   draw
     000011EC  A$lcc1484022$421                   draw
     000011ED  A$lcc1484022$422                   draw
     000011F0  A$lcc1484022$423                   draw
     000011F1  A$lcc1484022$424                   draw
     000011F2  A$lcc1484022$425                   draw
     000011F3  A$lcc1484022$427                   draw
     000011F5  A$lcc1484022$428                   draw
     000011F6  A$lcc1484022$429                   draw
     000011F7  A$lcc1484022$430                   draw
     000011F8  A$lcc1484022$431                   draw
     000011F9  A$lcc1484022$433                   draw
     000011FA  A$lcc1484022$434                   draw
     000011FB  A$lcc1484022$436                   draw
ASxxxx Linker V03.00/V05.40 + sdld,  page 28.
Hexadecimal  [32-Bits]

Area                                    Addr        Size        Decimal Bytes (Attributes)
--------------------------------        ----        ----        ------- ----- ------------
_CODE                               00000200    000024E6 =        9446. bytes (REL,CON)

      Value  Global                              Global Defined In Module
      -----  --------------------------------   ------------------------
     000011FC  A$lcc1484022$437                   draw
     000011FF  A$lcc1484022$438                   draw
     00001200  A$lcc1484022$439                   draw
     00001201  A$lcc1484022$440                   draw
     00001202  A$lcc1484022$441                   draw
     00001203  A$lcc1484022$442                   draw
     00001204  A$lcc1484022$443                   draw
     00001205  A$lcc1484022$444                   draw
     00001206  A$lcc1484022$446                   draw
     00001207  A$lcc1484022$447                   draw
     00001208  A$lcc1484022$448                   draw
     00001209  A$lcc1484022$449                   draw
     0000120B  A$lcc1484022$450                   draw
     0000120C  A$lcc1484022$451                   draw
     0000120D  A$lcc1484022$459                   draw
     0000120D  C$draw.c$50$2_0$136                draw
     0000120F  A$lcc1484022$464                   draw
     0000120F  C$draw.c$52$2_0$136                draw
     0000120F  XG$draw_actor$0$0                  draw
     00001210  A$lcc1484023$60                    entity
     00001210  C$entity.c$7$0_0$3                 entity
     00001210  C$entity.c$9$2_0$4                 entity
     00001210  G$create_entity$0$0                entity
     00001210  _create_entity                     entity
     00001213  A$lcc1484023$61                    entity
     00001215  A$lcc1484023$62                    entity
     00001217  A$lcc1484023$66                    entity
     00001217  C$entity.c$10$3_0$5                entity
     00001218  A$lcc1484023$67                    entity
     00001219  A$lcc1484023$72                    entity
     00001219  C$entity.c$13$1_0$3                entity
     0000121C  A$lcc1484023$73                    entity
     0000121D  A$lcc1484023$74                    entity
     00001220  A$lcc1484023$75                    entity
     00001221  A$lcc1484023$76                    entity
     00001222  A$lcc1484023$84                    entity
     00001222  C$entity.c$14$1_0$3                entity
     00001222  XG$create_entity$0$0               entity
     00001223  A$lcc1484023$97                    entity
     00001223  C$entity.c$16$1_0$6                entity
     00001223  C$entity.c$18$1_0$6                entity
     00001223  G$reset_entities$0$0               entity
     00001223  _reset_entities                    entity
     00001226  A$lcc1484023$98                    entity
     00001228  A$lcc1484023$106                   entity
     00001228  C$entity.c$19$1_0$6                entity
     00001228  XG$reset_entities$0$0              entity
     00001229  A$lcc1484025$56                    global_action
     00001229  C$global_action.c$4$0_0$142        global_action
     00001229  C$global_action.c$6$1_0$142        global_action
     00001229  G$check_global_input$0$0           global_action
ASxxxx Linker V03.00/V05.40 + sdld,  page 29.
Hexadecimal  [32-Bits]

Area                                    Addr        Size        Decimal Bytes (Attributes)
--------------------------------        ----        ----        ------- ----- ------------
_CODE                               00000200    000024E6 =        9446. bytes (REL,CON)

      Value  Global                              Global Defined In Module
      -----  --------------------------------   ------------------------
     00001229  _check_global_input                global_action
     0000122C  A$lcc1484025$60                    global_action
     0000122C  C$global_action.c$9$1_0$142        global_action
     0000122F  A$lcc1484025$61                    global_action
     00001232  A$lcc1484025$69                    global_action
     00001232  C$global_action.c$10$1_0$142       global_action
     00001232  XG$check_global_input$0$0          global_action
     00001233  A$lcc1484027$57                    inventory
     00001233  C$inventory.c$11$0_0$141           inventory
     00001233  G$init_arrow$0$0                   inventory
     00001233  _init_arrow                        inventory
     00001234  A$lcc1484027$58                    inventory
     00001235  A$lcc1484027$62                    inventory
     00001235  C$inventory.c$13$1_0$141           inventory
     00001238  A$lcc1484027$63                    inventory
     00001239  A$lcc1484027$64                    inventory
     0000123B  A$lcc1484027$65                    inventory
     0000123E  A$lcc1484027$66                    inventory
     0000123F  A$lcc1484027$67                    inventory
     00001241  A$lcc1484027$71                    inventory
     00001241  C$inventory.c$14$1_0$141           inventory
     00001244  A$lcc1484027$72                    inventory
     00001247  A$lcc1484027$73                    inventory
     00001248  A$lcc1484027$74                    inventory
     0000124A  A$lcc1484027$75                    inventory
     0000124B  A$lcc1484027$76                    inventory
     0000124D  A$lcc1484027$80                    inventory
     0000124D  C$inventory.c$16$1_0$141           inventory
     00001250  A$lcc1484027$81                    inventory
     00001253  A$lcc1484027$82                    inventory
     00001254  A$lcc1484027$83                    inventory
     00001255  A$lcc1484027$84                    inventory
     00001257  A$lcc1484027$85                    inventory
     00001258  A$lcc1484027$86                    inventory
     0000125B  A$lcc1484027$87                    inventory
     0000125D  A$lcc1484027$88                    inventory
     0000125E  A$lcc1484027$89                    inventory
     00001260  A$lcc1484027$90                    inventory
     00001262  A$lcc1484027$91                    inventory
     00001263  A$lcc1484027$92                    inventory
     00001264  A$lcc1484027$93                    inventory
     00001265  A$lcc1484027$94                    inventory
     00001266  A$lcc1484027$95                    inventory
     00001267  A$lcc1484027$96                    inventory
     00001268  A$lcc1484027$100                   inventory
     00001268  C$inventory.c$17$1_0$141           inventory
     0000126B  A$lcc1484027$101                   inventory
     0000126C  A$lcc1484027$102                   inventory
     0000126D  A$lcc1484027$103                   inventory
     0000126F  A$lcc1484027$104                   inventory
     00001270  A$lcc1484027$105                   inventory
ASxxxx Linker V03.00/V05.40 + sdld,  page 30.
Hexadecimal  [32-Bits]

Area                                    Addr        Size        Decimal Bytes (Attributes)
--------------------------------        ----        ----        ------- ----- ------------
_CODE                               00000200    000024E6 =        9446. bytes (REL,CON)

      Value  Global                              Global Defined In Module
      -----  --------------------------------   ------------------------
     00001272  A$lcc1484027$106                   inventory
     00001274  A$lcc1484027$107                   inventory
     00001275  A$lcc1484027$108                   inventory
     00001276  A$lcc1484027$109                   inventory
     00001278  A$lcc1484027$110                   inventory
     00001279  A$lcc1484027$111                   inventory
     0000127A  A$lcc1484027$112                   inventory
     0000127B  A$lcc1484027$113                   inventory
     0000127C  A$lcc1484027$114                   inventory
     0000127D  A$lcc1484027$115                   inventory
     0000127E  A$lcc1484027$116                   inventory
     0000127F  A$lcc1484027$120                   inventory
     0000127F  C$inventory.c$19$1_0$141           inventory
     00001282  A$lcc1484027$121                   inventory
     00001283  A$lcc1484027$122                   inventory
     00001285  A$lcc1484027$123                   inventory
     00001288  A$lcc1484027$124                   inventory
     00001289  A$lcc1484027$125                   inventory
     0000128B  A$lcc1484027$129                   inventory
     0000128B  C$inventory.c$20$1_0$141           inventory
     0000128E  A$lcc1484027$130                   inventory
     00001291  A$lcc1484027$131                   inventory
     00001292  A$lcc1484027$132                   inventory
     00001294  A$lcc1484027$133                   inventory
     00001295  A$lcc1484027$134                   inventory
     00001297  A$lcc1484027$138                   inventory
     00001297  C$inventory.c$21$1_0$141           inventory
     0000129A  A$lcc1484027$139                   inventory
     0000129D  A$lcc1484027$140                   inventory
     0000129E  A$lcc1484027$141                   inventory
     000012A0  A$lcc1484027$142                   inventory
     000012A1  A$lcc1484027$143                   inventory
     000012A3  A$lcc1484027$147                   inventory
     000012A3  C$inventory.c$23$2_0$142           inventory
     000012A5  A$lcc1484027$148                   inventory
     000012A7  A$lcc1484027$149                   inventory
     000012A8  A$lcc1484027$150                   inventory
     000012AA  A$lcc1484027$154                   inventory
     000012AA  C$inventory.c$25$1_1$142           inventory
     000012AD  A$lcc1484027$155                   inventory
     000012AE  A$lcc1484027$156                   inventory
     000012B0  A$lcc1484027$157                   inventory
     000012B1  A$lcc1484027$158                   inventory
     000012B2  A$lcc1484027$159                   inventory
     000012B3  A$lcc1484027$160                   inventory
     000012B4  A$lcc1484027$161                   inventory
     000012B5  A$lcc1484027$162                   inventory
     000012B6  A$lcc1484027$163                   inventory
     000012B7  A$lcc1484027$164                   inventory
     000012B8  A$lcc1484027$165                   inventory
     000012B9  A$lcc1484027$166                   inventory
ASxxxx Linker V03.00/V05.40 + sdld,  page 31.
Hexadecimal  [32-Bits]

Area                                    Addr        Size        Decimal Bytes (Attributes)
--------------------------------        ----        ----        ------- ----- ------------
_CODE                               00000200    000024E6 =        9446. bytes (REL,CON)

      Value  Global                              Global Defined In Module
      -----  --------------------------------   ------------------------
     000012BC  A$lcc1484027$167                   inventory
     000012BD  A$lcc1484027$168                   inventory
     000012BE  A$lcc1484027$169                   inventory
     000012BF  A$lcc1484027$170                   inventory
     000012C2  A$lcc1484027$171                   inventory
     000012C3  A$lcc1484027$172                   inventory
     000012C5  A$lcc1484027$173                   inventory
     000012C6  A$lcc1484027$174                   inventory
     000012C7  A$lcc1484027$175                   inventory
     000012CA  A$lcc1484027$176                   inventory
     000012CB  A$lcc1484027$177                   inventory
     000012CC  A$lcc1484027$178                   inventory
     000012CD  A$lcc1484027$179                   inventory
     000012CE  A$lcc1484027$180                   inventory
     000012CF  A$lcc1484027$181                   inventory
     000012D0  A$lcc1484027$182                   inventory
     000012D3  A$lcc1484027$186                   inventory
     000012D6  A$lcc1484027$187                   inventory
     000012D7  A$lcc1484027$192                   inventory
     000012D7  C$inventory.c$26$1_1$141           inventory
     000012D7  XG$init_arrow$0$0                  inventory
     000012D8  A$lcc1484028$63                    inventory_input
     000012D8  C$inventory_input.c$19$0_0$146     inventory_input
     000012D8  C$inventory_input.c$21$1_0$146     inventory_input
     000012D8  G$inventory_input$0$0              inventory_input
     000012D8  _inventory_input                   inventory_input
     000012DB  A$lcc1484028$64                    inventory_input
     000012DE  A$lcc1484028$65                    inventory_input
     000012DF  A$lcc1484028$69                    inventory_input
     000012DF  C$inventory_input.c$23$2_0$147     inventory_input
     000012E1  A$lcc1484028$70                    inventory_input
     000012E3  A$lcc1484028$71                    inventory_input
     000012E6  A$lcc1484028$72                    inventory_input
     000012E8  A$lcc1484028$73                    inventory_input
     000012EA  A$lcc1484028$77                    inventory_input
     000012EA  C$inventory_input.c$25$3_0$148     inventory_input
     000012ED  A$lcc1484028$78                    inventory_input
     000012F0  A$lcc1484028$79                    inventory_input
     000012F1  A$lcc1484028$80                    inventory_input
     000012F2  A$lcc1484028$81                    inventory_input
     000012F3  A$lcc1484028$82                    inventory_input
     000012F4  A$lcc1484028$83                    inventory_input
     000012F5  A$lcc1484028$84                    inventory_input
     000012F6  A$lcc1484028$85                    inventory_input
     000012F7  A$lcc1484028$86                    inventory_input
     000012FA  A$lcc1484028$87                    inventory_input
     000012FC  A$lcc1484028$88                    inventory_input
     000012FD  A$lcc1484028$89                    inventory_input
     000012FF  A$lcc1484028$90                    inventory_input
     00001300  A$lcc1484028$91                    inventory_input
     00001301  A$lcc1484028$92                    inventory_input
ASxxxx Linker V03.00/V05.40 + sdld,  page 32.
Hexadecimal  [32-Bits]

Area                                    Addr        Size        Decimal Bytes (Attributes)
--------------------------------        ----        ----        ------- ----- ------------
_CODE                               00000200    000024E6 =        9446. bytes (REL,CON)

      Value  Global                              Global Defined In Module
      -----  --------------------------------   ------------------------
     00001304  A$lcc1484028$96                    inventory_input
     00001304  C$inventory_input.c$26$3_0$148     inventory_input
     00001307  A$lcc1484028$97                    inventory_input
     0000130A  A$lcc1484028$98                    inventory_input
     0000130B  A$lcc1484028$99                    inventory_input
     0000130D  A$lcc1484028$100                   inventory_input
     0000130E  A$lcc1484028$101                   inventory_input
     00001310  A$lcc1484028$105                   inventory_input
     00001310  C$inventory_input.c$27$3_0$148     inventory_input
     00001313  A$lcc1484028$106                   inventory_input
     00001316  A$lcc1484028$114                   inventory_input
     00001316  C$inventory_input.c$26$1_1$146     inventory_input
     00001319  A$lcc1484028$115                   inventory_input
     0000131A  A$lcc1484028$119                   inventory_input
     0000131A  C$inventory_input.c$30$1_1$149     inventory_input
     0000131D  A$lcc1484028$120                   inventory_input
     0000131F  A$lcc1484028$121                   inventory_input
     00001320  A$lcc1484028$122                   inventory_input
     00001321  A$lcc1484028$126                   inventory_input
     00001321  C$inventory_input.c$31$1_1$149     inventory_input
     00001324  A$lcc1484028$127                   inventory_input
     00001326  A$lcc1484028$128                   inventory_input
     00001327  A$lcc1484028$129                   inventory_input
     00001328  A$lcc1484028$133                   inventory_input
     00001328  C$inventory_input.c$23$1_1$146     inventory_input
     0000132B  A$lcc1484028$134                   inventory_input
     0000132C  A$lcc1484028$135                   inventory_input
     0000132F  A$lcc1484028$139                   inventory_input
     0000132F  C$inventory_input.c$33$2_1$150     inventory_input
     00001331  A$lcc1484028$140                   inventory_input
     00001333  A$lcc1484028$141                   inventory_input
     00001335  A$lcc1484028$142                   inventory_input
     00001337  A$lcc1484028$146                   inventory_input
     00001337  C$inventory_input.c$35$3_1$151     inventory_input
     00001338  A$lcc1484028$147                   inventory_input
     0000133A  A$lcc1484028$148                   inventory_input
     0000133B  A$lcc1484028$149                   inventory_input
     0000133D  A$lcc1484028$154                   inventory_input
     0000133D  C$inventory_input.c$37$3_1$152     inventory_input
     0000133F  A$lcc1484028$155                   inventory_input
     00001341  A$lcc1484028$156                   inventory_input
     00001343  A$lcc1484028$157                   inventory_input
     00001345  A$lcc1484028$161                   inventory_input
     00001345  C$inventory_input.c$39$4_1$153     inventory_input
     00001346  A$lcc1484028$162                   inventory_input
     00001348  A$lcc1484028$163                   inventory_input
     00001349  A$lcc1484028$164                   inventory_input
     0000134B  A$lcc1484028$169                   inventory_input
     0000134B  C$inventory_input.c$41$4_1$154     inventory_input
     0000134D  A$lcc1484028$170                   inventory_input
     0000134F  A$lcc1484028$171                   inventory_input
ASxxxx Linker V03.00/V05.40 + sdld,  page 33.
Hexadecimal  [32-Bits]

Area                                    Addr        Size        Decimal Bytes (Attributes)
--------------------------------        ----        ----        ------- ----- ------------
_CODE                               00000200    000024E6 =        9446. bytes (REL,CON)

      Value  Global                              Global Defined In Module
      -----  --------------------------------   ------------------------
     00001351  A$lcc1484028$172                   inventory_input
     00001353  A$lcc1484028$176                   inventory_input
     00001353  C$inventory_input.c$43$5_1$155     inventory_input
     00001354  A$lcc1484028$177                   inventory_input
     00001356  A$lcc1484028$178                   inventory_input
     00001357  A$lcc1484028$179                   inventory_input
     00001359  A$lcc1484028$184                   inventory_input
     00001359  C$inventory_input.c$45$5_1$156     inventory_input
     0000135B  A$lcc1484028$185                   inventory_input
     0000135D  A$lcc1484028$186                   inventory_input
     0000135F  A$lcc1484028$187                   inventory_input
     00001361  A$lcc1484028$191                   inventory_input
     00001361  C$inventory_input.c$47$6_1$157     inventory_input
     00001362  A$lcc1484028$192                   inventory_input
     00001364  A$lcc1484028$193                   inventory_input
     00001365  A$lcc1484028$198                   inventory_input
     00001365  C$inventory_input.c$50$2_1$158     inventory_input
     00001367  A$lcc1484028$199                   inventory_input
     00001368  A$lcc1484028$200                   inventory_input
     0000136A  A$lcc1484028$204                   inventory_input
     0000136A  C$inventory_input.c$51$2_1$158     inventory_input
     0000136C  A$lcc1484028$209                   inventory_input
     0000136C  C$inventory_input.c$52$2_1$159     inventory_input
     0000136D  A$lcc1484028$210                   inventory_input
     0000136F  A$lcc1484028$211                   inventory_input
     00001371  A$lcc1484028$215                   inventory_input
     00001371  C$inventory_input.c$53$2_1$159     inventory_input
     00001373  A$lcc1484028$220                   inventory_input
     00001373  C$inventory_input.c$55$2_1$160     inventory_input
     00001375  A$lcc1484028$221                   inventory_input
     00001376  A$lcc1484028$222                   inventory_input
     00001378  A$lcc1484028$226                   inventory_input
     00001378  C$inventory_input.c$56$2_1$160     inventory_input
     0000137A  A$lcc1484028$231                   inventory_input
     0000137A  C$inventory_input.c$57$2_1$161     inventory_input
     0000137B  A$lcc1484028$232                   inventory_input
     0000137D  A$lcc1484028$233                   inventory_input
     0000137F  A$lcc1484028$237                   inventory_input
     0000137F  C$inventory_input.c$58$2_1$161     inventory_input
     00001381  A$lcc1484028$242                   inventory_input
     00001381  C$inventory_input.c$60$1_1$149     inventory_input
     00001382  A$lcc1484028$246                   inventory_input
     00001382  C$inventory_input.c$61$1_1$149     inventory_input
     00001385  A$lcc1484028$247                   inventory_input
     00001386  A$lcc1484028$248                   inventory_input
     00001388  A$lcc1484028$249                   inventory_input
     0000138B  A$lcc1484028$250                   inventory_input
     0000138C  A$lcc1484028$251                   inventory_input
     0000138D  A$lcc1484028$255                   inventory_input
     0000138D  C$inventory_input.c$63$1_1$149     inventory_input
     00001390  A$lcc1484028$256                   inventory_input
ASxxxx Linker V03.00/V05.40 + sdld,  page 34.
Hexadecimal  [32-Bits]

Area                                    Addr        Size        Decimal Bytes (Attributes)
--------------------------------        ----        ----        ------- ----- ------------
_CODE                               00000200    000024E6 =        9446. bytes (REL,CON)

      Value  Global                              Global Defined In Module
      -----  --------------------------------   ------------------------
     00001393  A$lcc1484028$264                   inventory_input
     00001393  C$inventory_input.c$64$1_1$146     inventory_input
     00001393  XG$inventory_input$0$0             inventory_input
     00001394  G$top_limit$0_0$0                  inventory_input
     00001394  _top_limit                         inventory_input
     00001395  G$bottom_limit$0_0$0               inventory_input
     00001395  _bottom_limit                      inventory_input
     00001396  G$left_limit$0_0$0                 inventory_input
     00001396  _left_limit                        inventory_input
     00001397  G$right_limit$0_0$0                inventory_input
     00001397  _right_limit                       inventory_input
     00001398  G$VERTICAL_MOVEMENT$0_0$0          inventory_input
     00001398  _VERTICAL_MOVEMENT                 inventory_input
     00001399  G$HORIZONTAL_MOVEMENT$0_0$0        inventory_input
     00001399  _HORIZONTAL_MOVEMENT               inventory_input
     0000139A  A$lcc1484029$58                    load
     0000139A  C$load.c$8$0_0$132                 load
     0000139A  G$load_actor_tiles$0$0             load
     0000139A  _load_actor_tiles                  load
     0000139C  A$lcc1484029$59                    load
     0000139E  A$lcc1484029$60                    load
     0000139F  A$lcc1484029$61                    load
     000013A0  A$lcc1484029$62                    load
     000013A1  A$lcc1484029$63                    load
     000013A2  A$lcc1484029$64                    load
     000013A3  A$lcc1484029$68                    load
     000013A3  C$load.c$9$2_0$132                 load
     000013A6  A$lcc1484029$69                    load
     000013A7  A$lcc1484029$73                    load
     000013A7  C$load.c$12$1_0$132                load
     000013A9  A$lcc1484029$75                    load
     000013AA  A$lcc1484029$76                    load
     000013AC  A$lcc1484029$77                    load
     000013AD  A$lcc1484029$78                    load
     000013AF  A$lcc1484029$82                    load
     000013AF  C$load.c$13$3_0$134                load
     000013B0  A$lcc1484029$83                    load
     000013B2  A$lcc1484029$84                    load
     000013B3  A$lcc1484029$85                    load
     000013B4  A$lcc1484029$86                    load
     000013B5  A$lcc1484029$87                    load
     000013B7  A$lcc1484029$88                    load
     000013B8  A$lcc1484029$89                    load
     000013B9  A$lcc1484029$90                    load
     000013BA  A$lcc1484029$91                    load
     000013BB  A$lcc1484029$92                    load
     000013BC  A$lcc1484029$93                    load
     000013BD  A$lcc1484029$94                    load
     000013BE  A$lcc1484029$95                    load
     000013BF  A$lcc1484029$96                    load
     000013C0  A$lcc1484029$97                    load
ASxxxx Linker V03.00/V05.40 + sdld,  page 35.
Hexadecimal  [32-Bits]

Area                                    Addr        Size        Decimal Bytes (Attributes)
--------------------------------        ----        ----        ------- ----- ------------
_CODE                               00000200    000024E6 =        9446. bytes (REL,CON)

      Value  Global                              Global Defined In Module
      -----  --------------------------------   ------------------------
     000013C1  A$lcc1484029$98                    load
     000013C2  A$lcc1484029$99                    load
     000013C3  A$lcc1484029$100                   load
     000013C4  A$lcc1484029$101                   load
     000013C5  A$lcc1484029$102                   load
     000013C6  A$lcc1484029$103                   load
     000013C7  A$lcc1484029$104                   load
     000013C8  A$lcc1484029$105                   load
     000013CA  A$lcc1484029$106                   load
     000013CB  A$lcc1484029$107                   load
     000013CC  A$lcc1484029$108                   load
     000013CD  A$lcc1484029$109                   load
     000013CE  A$lcc1484029$110                   load
     000013D1  A$lcc1484029$111                   load
     000013D3  A$lcc1484029$115                   load
     000013D3  C$load.c$12$2_0$133                load
     000013D4  A$lcc1484029$116                   load
     000013D6  A$lcc1484029$121                   load
     000013D6  C$load.c$17$1_0$132                load
     000013D9  A$lcc1484029$122                   load
     000013DB  A$lcc1484029$123                   load
     000013DC  A$lcc1484029$124                   load
     000013DE  A$lcc1484029$125                   load
     000013DF  A$lcc1484029$126                   load
     000013E0  A$lcc1484029$127                   load
     000013E1  A$lcc1484029$128                   load
     000013E2  A$lcc1484029$129                   load
     000013E3  A$lcc1484029$133                   load
     000013E3  C$load.c$18$1_0$132                load
     000013E6  A$lcc1484029$134                   load
     000013E8  A$lcc1484029$135                   load
     000013E9  A$lcc1484029$136                   load
     000013EB  A$lcc1484029$137                   load
     000013EC  A$lcc1484029$138                   load
     000013ED  A$lcc1484029$139                   load
     000013EE  A$lcc1484029$140                   load
     000013F0  A$lcc1484029$141                   load
     000013F1  A$lcc1484029$142                   load
     000013F2  A$lcc1484029$146                   load
     000013F2  C$load.c$21$1_0$132                load
     000013F5  A$lcc1484029$147                   load
     000013F7  A$lcc1484029$148                   load
     000013F8  A$lcc1484029$149                   load
     000013FB  A$lcc1484029$153                   load
     000013FB  C$load.c$23$1_0$132                load
     000013FC  A$lcc1484029$157                   load
     000013FC  C$load.c$24$1_0$132                load
     000013FE  A$lcc1484029$158                   load
     000013FF  A$lcc1484029$159                   load
     00001400  A$lcc1484029$160                   load
     00001401  A$lcc1484029$173                   load
ASxxxx Linker V03.00/V05.40 + sdld,  page 36.
Hexadecimal  [32-Bits]

Area                                    Addr        Size        Decimal Bytes (Attributes)
--------------------------------        ----        ----        ------- ----- ------------
_CODE                               00000200    000024E6 =        9446. bytes (REL,CON)

      Value  Global                              Global Defined In Module
      -----  --------------------------------   ------------------------
     00001401  C$load.c$26$1_0$136                load
     00001401  C$load.c$27$3_0$138                load
     00001401  G$reset_render_component$0$0       load
     00001401  _reset_render_component            load
     00001403  A$lcc1484029$175                   load
     00001404  A$lcc1484029$176                   load
     00001407  A$lcc1484029$177                   load
     00001408  A$lcc1484029$178                   load
     0000140A  A$lcc1484029$182                   load
     0000140A  C$load.c$28$3_0$138                load
     0000140D  A$lcc1484029$183                   load
     0000140F  A$lcc1484029$184                   load
     00001410  A$lcc1484029$185                   load
     00001412  A$lcc1484029$189                   load
     00001412  C$load.c$29$3_0$138                load
     00001415  A$lcc1484029$190                   load
     00001417  A$lcc1484029$191                   load
     00001418  A$lcc1484029$192                   load
     0000141A  A$lcc1484029$196                   load
     0000141A  C$load.c$27$2_0$137                load
     0000141B  A$lcc1484029$197                   load
     0000141D  A$lcc1484029$202                   load
     0000141D  C$load.c$32$1_0$136                load
     0000141E  A$lcc1484029$203                   load
     00001421  A$lcc1484029$211                   load
     00001421  C$load.c$33$1_0$136                load
     00001421  XG$reset_render_component$0$0      load
     00001422  A$lcc1484030$56                    map_scenes
     00001422  C$map_scenes.c$10$0_0$46           map_scenes
     00001422  G$scene_manager_MapScene$0$0       map_scenes
     00001422  _scene_manager_MapScene            map_scenes
     00001423  A$lcc1484030$60                    map_scenes
     00001423  C$map_scenes.c$12$2_0$46           map_scenes
     00001425  A$lcc1484030$61                    map_scenes
     00001426  A$lcc1484030$62                    map_scenes
     00001428  A$lcc1484030$63                    map_scenes
     0000142A  A$lcc1484030$64                    map_scenes
     0000142D  A$lcc1484030$65                    map_scenes
     0000142E  A$lcc1484030$66                    map_scenes
     0000142F  A$lcc1484030$67                    map_scenes
     00001430  A$lcc1484030$68                    map_scenes
     00001431  A$lcc1484030$69                    map_scenes
     00001432  A$lcc1484030$70                    map_scenes
     00001433  A$lcc1484030$71                    map_scenes
     0000143C  A$lcc1484030$84                    map_scenes
     0000143C  C$map_scenes.c$14$3_0$47           map_scenes
     0000143C  C$map_scenes.c$15$3_0$47           map_scenes
     0000143F  A$lcc1484030$88                    map_scenes
     0000143F  C$map_scenes.c$16$3_0$47           map_scenes
     00001442  A$lcc1484030$89                    map_scenes
     00001443  A$lcc1484030$97                    map_scenes
ASxxxx Linker V03.00/V05.40 + sdld,  page 37.
Hexadecimal  [32-Bits]

Area                                    Addr        Size        Decimal Bytes (Attributes)
--------------------------------        ----        ----        ------- ----- ------------
_CODE                               00000200    000024E6 =        9446. bytes (REL,CON)

      Value  Global                              Global Defined In Module
      -----  --------------------------------   ------------------------
     00001443  C$map_scenes.c$17$3_0$47           map_scenes
     00001443  C$map_scenes.c$18$3_0$47           map_scenes
     00001446  A$lcc1484030$101                   map_scenes
     00001446  C$map_scenes.c$19$3_0$47           map_scenes
     00001449  A$lcc1484030$102                   map_scenes
     0000144A  A$lcc1484030$110                   map_scenes
     0000144A  C$map_scenes.c$20$3_0$47           map_scenes
     0000144A  C$map_scenes.c$21$3_0$47           map_scenes
     0000144D  A$lcc1484030$114                   map_scenes
     0000144D  C$map_scenes.c$22$3_0$47           map_scenes
     00001450  A$lcc1484030$115                   map_scenes
     00001451  A$lcc1484030$123                   map_scenes
     00001451  C$map_scenes.c$23$3_0$47           map_scenes
     00001451  C$map_scenes.c$24$3_0$47           map_scenes
     00001454  A$lcc1484030$127                   map_scenes
     00001454  C$map_scenes.c$25$3_0$47           map_scenes
     00001457  A$lcc1484030$128                   map_scenes
     00001458  A$lcc1484030$136                   map_scenes
     00001458  C$map_scenes.c$26$3_0$47           map_scenes
     00001458  C$map_scenes.c$27$3_0$47           map_scenes
     0000145B  A$lcc1484030$147                   map_scenes
     0000145B  C$map_scenes.c$28$2_0$46           map_scenes
     0000145B  C$map_scenes.c$29$2_0$46           map_scenes
     0000145B  XG$scene_manager_MapScene$0$0      map_scenes
     0000145C  A$lcc1484031$56                    money
     0000145C  C$money.c$5$0_0$3                  money
     0000145C  G$add_money$0$0                    money
     0000145C  _add_money                         money
     0000145D  A$lcc1484031$60                    money
     0000145D  C$money.c$6$1_0$3                  money
     0000145E  A$lcc1484031$61                    money
     00001460  A$lcc1484031$62                    money
     00001461  A$lcc1484031$63                    money
     00001462  A$lcc1484031$64                    money
     00001463  A$lcc1484031$65                    money
     00001464  A$lcc1484031$66                    money
     00001465  A$lcc1484031$67                    money
     00001466  A$lcc1484031$68                    money
     00001467  A$lcc1484031$69                    money
     00001468  A$lcc1484031$70                    money
     00001469  A$lcc1484031$71                    money
     0000146C  A$lcc1484031$72                    money
     0000146D  A$lcc1484031$73                    money
     00001470  A$lcc1484031$74                    money
     00001471  A$lcc1484031$75                    money
     00001472  A$lcc1484031$76                    money
     00001473  A$lcc1484031$77                    money
     00001474  A$lcc1484031$78                    money
     00001475  A$lcc1484031$79                    money
     00001476  A$lcc1484031$80                    money
     00001479  A$lcc1484031$81                    money
ASxxxx Linker V03.00/V05.40 + sdld,  page 38.
Hexadecimal  [32-Bits]

Area                                    Addr        Size        Decimal Bytes (Attributes)
--------------------------------        ----        ----        ------- ----- ------------
_CODE                               00000200    000024E6 =        9446. bytes (REL,CON)

      Value  Global                              Global Defined In Module
      -----  --------------------------------   ------------------------
     0000147A  A$lcc1484031$82                    money
     0000147B  A$lcc1484031$83                    money
     0000147C  A$lcc1484031$87                    money
     0000147C  C$money.c$7$1_0$3                  money
     0000147E  A$lcc1484031$88                    money
     0000147F  A$lcc1484031$89                    money
     00001480  A$lcc1484031$90                    money
     00001481  A$lcc1484031$91                    money
     00001482  A$lcc1484031$92                    money
     00001483  A$lcc1484031$93                    money
     00001484  A$lcc1484031$94                    money
     00001485  A$lcc1484031$95                    money
     00001486  A$lcc1484031$96                    money
     00001487  A$lcc1484031$97                    money
     00001488  A$lcc1484031$98                    money
     00001489  A$lcc1484031$99                    money
     0000148A  A$lcc1484031$100                   money
     0000148D  A$lcc1484031$101                   money
     00001490  A$lcc1484031$102                   money
     00001491  A$lcc1484031$103                   money
     00001492  A$lcc1484031$104                   money
     00001493  A$lcc1484031$105                   money
     00001494  A$lcc1484031$106                   money
     00001495  A$lcc1484031$107                   money
     00001496  A$lcc1484031$108                   money
     00001497  A$lcc1484031$109                   money
     00001498  A$lcc1484031$110                   money
     00001499  A$lcc1484031$118                   money
     00001499  C$money.c$8$1_0$3                  money
     00001499  XG$add_money$0$0                   money
     0000149A  A$lcc1484033$75                    npcs
     0000149A  C$npcs.c$20$0_0$134                npcs
     0000149A  C$npcs.c$22$1_0$134                npcs
     0000149A  G$init_NPCs$0$0                    npcs
     0000149A  _init_NPCs                         npcs
     0000149D  A$lcc1484033$76                    npcs
     000014A0  A$lcc1484033$80                    npcs
     000014A0  C$npcs.c$23$1_0$134                npcs
     000014A3  A$lcc1484033$81                    npcs
     000014A6  A$lcc1484033$85                    npcs
     000014A6  C$npcs.c$24$1_0$134                npcs
     000014A9  A$lcc1484033$86                    npcs
     000014AC  A$lcc1484033$94                    npcs
     000014AC  C$npcs.c$25$1_0$134                npcs
     000014AC  XG$init_NPCs$0$0                   npcs
     000014AD  A$lcc1484033$104                   npcs
     000014AD  C$npcs.c$27$1_0$136                npcs
     000014AD  G$Scene_DrawNPCLine$0$0            npcs
     000014AD  _Scene_DrawNPCLine                 npcs
     000014AF  A$lcc1484033$105                   npcs
     000014B1  A$lcc1484033$106                   npcs
ASxxxx Linker V03.00/V05.40 + sdld,  page 39.
Hexadecimal  [32-Bits]

Area                                    Addr        Size        Decimal Bytes (Attributes)
--------------------------------        ----        ----        ------- ----- ------------
_CODE                               00000200    000024E6 =        9446. bytes (REL,CON)

      Value  Global                              Global Defined In Module
      -----  --------------------------------   ------------------------
     000014B2  A$lcc1484033$110                   npcs
     000014B2  C$npcs.c$35$1_0$136                npcs
     000014B4  A$lcc1484033$111                   npcs
     000014B7  A$lcc1484033$112                   npcs
     000014B8  A$lcc1484033$113                   npcs
     000014B9  A$lcc1484033$114                   npcs
     000014BA  A$lcc1484033$115                   npcs
     000014BC  A$lcc1484033$116                   npcs
     000014BD  A$lcc1484033$117                   npcs
     000014BE  A$lcc1484033$118                   npcs
     000014BF  A$lcc1484033$119                   npcs
     000014C1  A$lcc1484033$120                   npcs
     000014C2  A$lcc1484033$121                   npcs
     000014C3  A$lcc1484033$122                   npcs
     000014C4  A$lcc1484033$123                   npcs
     000014C5  A$lcc1484033$124                   npcs
     000014C6  A$lcc1484033$125                   npcs
     000014C8  A$lcc1484033$126                   npcs
     000014C9  A$lcc1484033$130                   npcs
     000014C9  C$npcs.c$37$1_0$136                npcs
     000014CC  A$lcc1484033$131                   npcs
     000014CE  A$lcc1484033$132                   npcs
     000014CF  A$lcc1484033$133                   npcs
     000014D0  A$lcc1484033$134                   npcs
     000014D1  A$lcc1484033$135                   npcs
     000014D2  A$lcc1484033$136                   npcs
     000014D3  A$lcc1484033$137                   npcs
     000014D4  A$lcc1484033$138                   npcs
     000014D5  A$lcc1484033$139                   npcs
     000014D6  A$lcc1484033$140                   npcs
     000014D7  A$lcc1484033$144                   npcs
     000014D7  C$npcs.c$39$1_0$136                npcs
     000014DA  A$lcc1484033$145                   npcs
     000014DB  A$lcc1484033$146                   npcs
     000014DC  A$lcc1484033$147                   npcs
     000014DD  A$lcc1484033$148                   npcs
     000014DF  A$lcc1484033$149                   npcs
     000014E0  A$lcc1484033$150                   npcs
     000014E1  A$lcc1484033$151                   npcs
     000014E2  A$lcc1484033$152                   npcs
     000014E3  A$lcc1484033$153                   npcs
     000014E4  A$lcc1484033$154                   npcs
     000014E5  A$lcc1484033$155                   npcs
     000014E6  A$lcc1484033$156                   npcs
     000014E7  A$lcc1484033$157                   npcs
     000014E8  A$lcc1484033$158                   npcs
     000014E9  A$lcc1484033$159                   npcs
     000014EB  A$lcc1484033$160                   npcs
     000014EC  A$lcc1484033$161                   npcs
     000014ED  A$lcc1484033$162                   npcs
     000014EE  A$lcc1484033$163                   npcs
ASxxxx Linker V03.00/V05.40 + sdld,  page 40.
Hexadecimal  [32-Bits]

Area                                    Addr        Size        Decimal Bytes (Attributes)
--------------------------------        ----        ----        ------- ----- ------------
_CODE                               00000200    000024E6 =        9446. bytes (REL,CON)

      Value  Global                              Global Defined In Module
      -----  --------------------------------   ------------------------
     000014EF  A$lcc1484033$164                   npcs
     000014F0  A$lcc1484033$168                   npcs
     000014F0  C$npcs.c$40$1_0$136                npcs
     000014F3  A$lcc1484033$169                   npcs
     000014F4  A$lcc1484033$170                   npcs
     000014F5  A$lcc1484033$171                   npcs
     000014F6  A$lcc1484033$175                   npcs
     000014F6  C$npcs.c$43$1_1$136                npcs
     000014F7  A$lcc1484033$176                   npcs
     000014F9  A$lcc1484033$177                   npcs
     000014FA  A$lcc1484033$178                   npcs
     000014FB  A$lcc1484033$180                   npcs
     000014FC  A$lcc1484033$181                   npcs
     000014FE  A$lcc1484033$182                   npcs
     000014FF  A$lcc1484033$183                   npcs
     00001500  A$lcc1484033$184                   npcs
     00001501  A$lcc1484033$185                   npcs
     00001503  A$lcc1484033$186                   npcs
     00001504  A$lcc1484033$187                   npcs
     00001505  A$lcc1484033$188                   npcs
     00001506  A$lcc1484033$189                   npcs
     00001507  A$lcc1484033$190                   npcs
     00001508  A$lcc1484033$191                   npcs
     00001509  A$lcc1484033$192                   npcs
     0000150A  A$lcc1484033$193                   npcs
     0000150B  A$lcc1484033$194                   npcs
     0000150C  A$lcc1484033$195                   npcs
     0000150E  A$lcc1484033$199                   npcs
     0000150E  C$npcs.c$45$3_0$138                npcs
     0000150F  A$lcc1484033$200                   npcs
     00001512  A$lcc1484033$201                   npcs
     00001513  A$lcc1484033$202                   npcs
     00001514  A$lcc1484033$203                   npcs
     00001516  A$lcc1484033$204                   npcs
     00001518  A$lcc1484033$205                   npcs
     00001519  A$lcc1484033$209                   npcs
     00001519  C$npcs.c$46$3_0$138                npcs
     0000151B  A$lcc1484033$210                   npcs
     0000151C  A$lcc1484033$211                   npcs
     0000151D  A$lcc1484033$212                   npcs
     0000151E  A$lcc1484033$213                   npcs
     00001521  A$lcc1484033$214                   npcs
     00001522  A$lcc1484033$215                   npcs
     00001523  A$lcc1484033$216                   npcs
     00001526  A$lcc1484033$217                   npcs
     00001527  A$lcc1484033$218                   npcs
     00001529  A$lcc1484033$219                   npcs
     0000152A  A$lcc1484033$220                   npcs
     0000152B  A$lcc1484033$221                   npcs
     0000152C  A$lcc1484033$222                   npcs
     0000152D  A$lcc1484033$223                   npcs
ASxxxx Linker V03.00/V05.40 + sdld,  page 41.
Hexadecimal  [32-Bits]

Area                                    Addr        Size        Decimal Bytes (Attributes)
--------------------------------        ----        ----        ------- ----- ------------
_CODE                               00000200    000024E6 =        9446. bytes (REL,CON)

      Value  Global                              Global Defined In Module
      -----  --------------------------------   ------------------------
     00001530  A$lcc1484033$224                   npcs
     00001532  A$lcc1484033$225                   npcs
     00001533  A$lcc1484033$229                   npcs
     00001533  C$npcs.c$43$2_0$137                npcs
     00001535  A$lcc1484033$230                   npcs
     00001536  A$lcc1484033$231                   npcs
     00001538  A$lcc1484033$232                   npcs
     00001539  A$lcc1484033$233                   npcs
     0000153A  A$lcc1484033$234                   npcs
     0000153C  A$lcc1484033$239                   npcs
     0000153C  C$npcs.c$50$1_1$136                npcs
     0000153D  A$lcc1484033$240                   npcs
     0000153F  A$lcc1484033$241                   npcs
     00001540  A$lcc1484033$242                   npcs
     00001541  A$lcc1484033$244                   npcs
     00001542  A$lcc1484033$245                   npcs
     00001544  A$lcc1484033$246                   npcs
     00001545  A$lcc1484033$247                   npcs
     00001546  A$lcc1484033$248                   npcs
     00001547  A$lcc1484033$249                   npcs
     00001548  A$lcc1484033$250                   npcs
     00001549  A$lcc1484033$251                   npcs
     0000154A  A$lcc1484033$252                   npcs
     0000154B  A$lcc1484033$253                   npcs
     0000154C  A$lcc1484033$254                   npcs
     0000154D  A$lcc1484033$255                   npcs
     0000154F  A$lcc1484033$259                   npcs
     0000154F  C$npcs.c$52$3_0$140                npcs
     00001550  A$lcc1484033$260                   npcs
     00001553  A$lcc1484033$261                   npcs
     00001554  A$lcc1484033$262                   npcs
     00001555  A$lcc1484033$263                   npcs
     00001557  A$lcc1484033$267                   npcs
     00001557  C$npcs.c$53$3_0$140                npcs
     00001559  A$lcc1484033$268                   npcs
     0000155A  A$lcc1484033$269                   npcs
     0000155B  A$lcc1484033$270                   npcs
     0000155C  A$lcc1484033$271                   npcs
     0000155E  A$lcc1484033$272                   npcs
     0000155F  A$lcc1484033$273                   npcs
     00001560  A$lcc1484033$274                   npcs
     00001561  A$lcc1484033$275                   npcs
     00001562  A$lcc1484033$276                   npcs
     00001564  A$lcc1484033$277                   npcs
     00001565  A$lcc1484033$278                   npcs
     00001566  A$lcc1484033$279                   npcs
     00001568  A$lcc1484033$280                   npcs
     00001569  A$lcc1484033$281                   npcs
     0000156A  A$lcc1484033$282                   npcs
     0000156C  A$lcc1484033$283                   npcs
     0000156D  A$lcc1484033$284                   npcs
ASxxxx Linker V03.00/V05.40 + sdld,  page 42.
Hexadecimal  [32-Bits]

Area                                    Addr        Size        Decimal Bytes (Attributes)
--------------------------------        ----        ----        ------- ----- ------------
_CODE                               00000200    000024E6 =        9446. bytes (REL,CON)

      Value  Global                              Global Defined In Module
      -----  --------------------------------   ------------------------
     0000156E  A$lcc1484033$285                   npcs
     0000156F  A$lcc1484033$286                   npcs
     00001570  A$lcc1484033$287                   npcs
     00001573  A$lcc1484033$288                   npcs
     00001575  A$lcc1484033$289                   npcs
     00001576  A$lcc1484033$293                   npcs
     00001576  C$npcs.c$50$2_0$139                npcs
     00001578  A$lcc1484033$294                   npcs
     00001579  A$lcc1484033$295                   npcs
     0000157B  A$lcc1484033$296                   npcs
     0000157C  A$lcc1484033$297                   npcs
     0000157D  A$lcc1484033$298                   npcs
     0000157F  A$lcc1484033$303                   npcs
     00001581  A$lcc1484033$304                   npcs
     00001582  A$lcc1484033$305                   npcs
     00001584  A$lcc1484033$306                   npcs
     00001585  A$lcc1484033$307                   npcs
     00001586  A$lcc1484033$308                   npcs
     00001587  A$lcc1484033$309                   npcs
     00001588  A$lcc1484033$310                   npcs
     00001589  A$lcc1484033$311                   npcs
     0000158A  A$lcc1484033$312                   npcs
     0000158D  A$lcc1484033$313                   npcs
     0000158E  A$lcc1484033$314                   npcs
     0000158F  A$lcc1484033$315                   npcs
     00001590  A$lcc1484033$316                   npcs
     00001592  A$lcc1484033$317                   npcs
     00001593  A$lcc1484033$318                   npcs
     00001594  A$lcc1484033$319                   npcs
     00001595  A$lcc1484033$320                   npcs
     00001597  A$lcc1484033$321                   npcs
     00001598  A$lcc1484033$322                   npcs
     0000159B  A$lcc1484033$324                   npcs
     0000159D  A$lcc1484033$325                   npcs
     0000159E  A$lcc1484033$326                   npcs
     0000159F  A$lcc1484033$327                   npcs
     000015A0  A$lcc1484033$328                   npcs
     000015A1  A$lcc1484033$329                   npcs
     000015A2  A$lcc1484033$330                   npcs
     000015A3  A$lcc1484033$331                   npcs
     000015A4  A$lcc1484033$332                   npcs
     000015A5  A$lcc1484033$333                   npcs
     000015A7  A$lcc1484033$337                   npcs
     000015A7  C$npcs.c$59$3_0$142                npcs
     000015A8  A$lcc1484033$338                   npcs
     000015AB  A$lcc1484033$339                   npcs
     000015AC  A$lcc1484033$340                   npcs
     000015AD  A$lcc1484033$341                   npcs
     000015AE  A$lcc1484033$342                   npcs
     000015B0  A$lcc1484033$343                   npcs
     000015B2  A$lcc1484033$344                   npcs
ASxxxx Linker V03.00/V05.40 + sdld,  page 43.
Hexadecimal  [32-Bits]

Area                                    Addr        Size        Decimal Bytes (Attributes)
--------------------------------        ----        ----        ------- ----- ------------
_CODE                               00000200    000024E6 =        9446. bytes (REL,CON)

      Value  Global                              Global Defined In Module
      -----  --------------------------------   ------------------------
     000015B3  A$lcc1484033$348                   npcs
     000015B3  C$npcs.c$60$3_0$142                npcs
     000015B4  A$lcc1484033$349                   npcs
     000015B5  A$lcc1484033$350                   npcs
     000015B8  A$lcc1484033$351                   npcs
     000015B9  A$lcc1484033$352                   npcs
     000015BA  A$lcc1484033$353                   npcs
     000015BD  A$lcc1484033$354                   npcs
     000015BE  A$lcc1484033$355                   npcs
     000015C0  A$lcc1484033$356                   npcs
     000015C1  A$lcc1484033$357                   npcs
     000015C4  A$lcc1484033$358                   npcs
     000015C6  A$lcc1484033$362                   npcs
     000015C6  C$npcs.c$57$2_0$141                npcs
     000015C7  A$lcc1484033$363                   npcs
     000015C9  A$lcc1484033$368                   npcs
     000015C9  C$npcs.c$64$1_1$143                npcs
     000015CB  A$lcc1484033$369                   npcs
     000015CC  A$lcc1484033$370                   npcs
     000015CD  A$lcc1484033$371                   npcs
     000015CE  A$lcc1484033$372                   npcs
     000015CF  A$lcc1484033$373                   npcs
     000015D0  A$lcc1484033$374                   npcs
     000015D1  A$lcc1484033$375                   npcs
     000015D3  A$lcc1484033$376                   npcs
     000015D4  A$lcc1484033$380                   npcs
     000015D4  C$npcs.c$65$1_1$143                npcs
     000015D7  A$lcc1484033$381                   npcs
     000015D8  A$lcc1484033$382                   npcs
     000015D9  A$lcc1484033$383                   npcs
     000015DC  A$lcc1484033$384                   npcs
     000015DD  A$lcc1484033$385                   npcs
     000015E0  A$lcc1484033$386                   npcs
     000015E1  A$lcc1484033$387                   npcs
     000015E4  A$lcc1484033$391                   npcs
     000015E4  C$npcs.c$66$1_1$136                npcs
     000015E6  A$lcc1484033$392                   npcs
     000015E7  A$lcc1484033$393                   npcs
     000015E9  A$lcc1484033$394                   npcs
     000015EA  A$lcc1484035$66                    player
     000015EA  C$player.c$7$0_0$136               player
     000015EA  G$init_player$0$0                  player
     000015EA  _init_player                       player
     000015EC  A$lcc1484035$70                    player
     000015EC  C$player.c$9$1_0$136               player
     000015EF  A$lcc1484035$71                    player
     000015F2  A$lcc1484035$72                    player
     000015F3  A$lcc1484035$76                    player
     000015F3  C$player.c$11$1_0$136              player
     000015F4  A$lcc1484035$77                    player
     000015F6  A$lcc1484035$78                    player
ASxxxx Linker V03.00/V05.40 + sdld,  page 44.
Hexadecimal  [32-Bits]

Area                                    Addr        Size        Decimal Bytes (Attributes)
--------------------------------        ----        ----        ------- ----- ------------
_CODE                               00000200    000024E6 =        9446. bytes (REL,CON)

      Value  Global                              Global Defined In Module
      -----  --------------------------------   ------------------------
     000015F9  A$lcc1484035$79                    player
     000015FA  A$lcc1484035$80                    player
     000015FC  A$lcc1484035$84                    player
     000015FC  C$player.c$12$1_0$136              player
     000015FF  A$lcc1484035$85                    player
     00001602  A$lcc1484035$86                    player
     00001603  A$lcc1484035$87                    player
     00001605  A$lcc1484035$88                    player
     00001606  A$lcc1484035$89                    player
     00001608  A$lcc1484035$93                    player
     00001608  C$player.c$11$1_1$136              player
     0000160B  A$lcc1484035$94                    player
     0000160C  A$lcc1484035$98                    player
     0000160C  C$player.c$14$1_0$136              player
     0000160D  A$lcc1484035$99                    player
     0000160F  A$lcc1484035$100                   player
     00001610  A$lcc1484035$101                   player
     00001611  A$lcc1484035$102                   player
     00001614  A$lcc1484035$106                   player
     00001614  C$player.c$16$1_0$136              player
     00001617  A$lcc1484035$107                   player
     00001618  A$lcc1484035$108                   player
     0000161A  A$lcc1484035$109                   player
     0000161B  A$lcc1484035$110                   player
     0000161D  A$lcc1484035$111                   player
     0000161F  A$lcc1484035$112                   player
     00001620  A$lcc1484035$113                   player
     00001622  A$lcc1484035$114                   player
     00001623  A$lcc1484035$115                   player
     00001624  A$lcc1484035$116                   player
     00001626  A$lcc1484035$117                   player
     00001628  A$lcc1484035$118                   player
     00001629  A$lcc1484035$119                   player
     0000162A  A$lcc1484035$120                   player
     0000162B  A$lcc1484035$121                   player
     0000162C  A$lcc1484035$122                   player
     0000162D  A$lcc1484035$123                   player
     0000162E  A$lcc1484035$127                   player
     0000162E  C$player.c$17$1_0$136              player
     00001631  A$lcc1484035$128                   player
     00001632  A$lcc1484035$129                   player
     00001633  A$lcc1484035$130                   player
     00001635  A$lcc1484035$131                   player
     00001636  A$lcc1484035$132                   player
     00001638  A$lcc1484035$133                   player
     0000163A  A$lcc1484035$134                   player
     0000163B  A$lcc1484035$135                   player
     0000163C  A$lcc1484035$136                   player
     0000163E  A$lcc1484035$137                   player
     0000163F  A$lcc1484035$138                   player
     00001640  A$lcc1484035$139                   player
ASxxxx Linker V03.00/V05.40 + sdld,  page 45.
Hexadecimal  [32-Bits]

Area                                    Addr        Size        Decimal Bytes (Attributes)
--------------------------------        ----        ----        ------- ----- ------------
_CODE                               00000200    000024E6 =        9446. bytes (REL,CON)

      Value  Global                              Global Defined In Module
      -----  --------------------------------   ------------------------
     00001641  A$lcc1484035$140                   player
     00001642  A$lcc1484035$141                   player
     00001643  A$lcc1484035$142                   player
     00001644  A$lcc1484035$143                   player
     00001645  A$lcc1484035$147                   player
     00001645  C$player.c$19$1_0$136              player
     00001648  A$lcc1484035$148                   player
     00001649  A$lcc1484035$149                   player
     0000164B  A$lcc1484035$150                   player
     0000164E  A$lcc1484035$151                   player
     0000164F  A$lcc1484035$152                   player
     00001651  A$lcc1484035$156                   player
     00001651  C$player.c$20$1_0$136              player
     00001654  A$lcc1484035$157                   player
     00001657  A$lcc1484035$158                   player
     00001658  A$lcc1484035$159                   player
     0000165A  A$lcc1484035$160                   player
     0000165B  A$lcc1484035$161                   player
     0000165D  A$lcc1484035$165                   player
     0000165D  C$player.c$21$1_0$136              player
     00001660  A$lcc1484035$166                   player
     00001663  A$lcc1484035$167                   player
     00001664  A$lcc1484035$168                   player
     00001666  A$lcc1484035$169                   player
     00001667  A$lcc1484035$170                   player
     00001669  A$lcc1484035$174                   player
     00001669  C$player.c$24$2_0$137              player
     0000166C  A$lcc1484035$175                   player
     0000166D  A$lcc1484035$176                   player
     0000166E  A$lcc1484035$177                   player
     0000166F  A$lcc1484035$178                   player
     00001671  A$lcc1484035$179                   player
     00001673  A$lcc1484035$180                   player
     00001674  A$lcc1484035$181                   player
     00001676  A$lcc1484035$182                   player
     00001677  A$lcc1484035$183                   player
     00001679  A$lcc1484035$184                   player
     0000167A  A$lcc1484035$185                   player
     0000167C  A$lcc1484035$186                   player
     0000167D  A$lcc1484035$187                   player
     0000167F  A$lcc1484035$188                   player
     00001680  A$lcc1484035$189                   player
     00001682  A$lcc1484035$193                   player
     00001682  C$player.c$30$2_0$137              player
     00001683  A$lcc1484035$194                   player
     00001685  A$lcc1484035$195                   player
     00001686  A$lcc1484035$196                   player
     00001688  A$lcc1484035$197                   player
     00001689  A$lcc1484035$198                   player
     0000168B  A$lcc1484035$199                   player
     0000168C  A$lcc1484035$200                   player
ASxxxx Linker V03.00/V05.40 + sdld,  page 46.
Hexadecimal  [32-Bits]

Area                                    Addr        Size        Decimal Bytes (Attributes)
--------------------------------        ----        ----        ------- ----- ------------
_CODE                               00000200    000024E6 =        9446. bytes (REL,CON)

      Value  Global                              Global Defined In Module
      -----  --------------------------------   ------------------------
     0000168E  A$lcc1484035$201                   player
     0000168F  A$lcc1484035$202                   player
     00001691  A$lcc1484035$203                   player
     00001692  A$lcc1484035$204                   player
     00001694  A$lcc1484035$205                   player
     00001695  A$lcc1484035$206                   player
     00001697  A$lcc1484035$207                   player
     00001698  A$lcc1484035$208                   player
     0000169A  A$lcc1484035$209                   player
     0000169B  A$lcc1484035$210                   player
     0000169C  A$lcc1484035$211                   player
     0000169D  A$lcc1484035$212                   player
     0000169E  A$lcc1484035$213                   player
     0000169F  A$lcc1484035$214                   player
     000016A1  A$lcc1484035$215                   player
     000016A2  A$lcc1484035$216                   player
     000016A4  A$lcc1484035$217                   player
     000016A5  A$lcc1484035$218                   player
     000016A7  A$lcc1484035$219                   player
     000016A8  A$lcc1484035$220                   player
     000016AA  A$lcc1484035$221                   player
     000016AB  A$lcc1484035$222                   player
     000016AD  A$lcc1484035$223                   player
     000016AE  A$lcc1484035$224                   player
     000016B0  A$lcc1484035$225                   player
     000016B1  A$lcc1484035$226                   player
     000016B3  A$lcc1484035$227                   player
     000016B4  A$lcc1484035$228                   player
     000016B6  A$lcc1484035$229                   player
     000016B7  A$lcc1484035$230                   player
     000016B9  A$lcc1484035$231                   player
     000016BA  A$lcc1484035$232                   player
     000016BC  A$lcc1484035$233                   player
     000016BD  A$lcc1484035$234                   player
     000016BF  A$lcc1484035$235                   player
     000016C0  A$lcc1484035$236                   player
     000016C2  A$lcc1484035$237                   player
     000016C3  A$lcc1484035$238                   player
     000016C5  A$lcc1484035$239                   player
     000016C6  A$lcc1484035$240                   player
     000016C8  A$lcc1484035$241                   player
     000016C9  A$lcc1484035$242                   player
     000016CA  A$lcc1484035$243                   player
     000016CB  A$lcc1484035$244                   player
     000016CC  A$lcc1484035$245                   player
     000016CD  A$lcc1484035$246                   player
     000016CF  A$lcc1484035$247                   player
     000016D0  A$lcc1484035$248                   player
     000016D2  A$lcc1484035$249                   player
     000016D3  A$lcc1484035$250                   player
     000016D5  A$lcc1484035$251                   player
ASxxxx Linker V03.00/V05.40 + sdld,  page 47.
Hexadecimal  [32-Bits]

Area                                    Addr        Size        Decimal Bytes (Attributes)
--------------------------------        ----        ----        ------- ----- ------------
_CODE                               00000200    000024E6 =        9446. bytes (REL,CON)

      Value  Global                              Global Defined In Module
      -----  --------------------------------   ------------------------
     000016D6  A$lcc1484035$252                   player
     000016D8  A$lcc1484035$253                   player
     000016D9  A$lcc1484035$254                   player
     000016DB  A$lcc1484035$255                   player
     000016DC  A$lcc1484035$256                   player
     000016DE  A$lcc1484035$260                   player
     000016DE  C$player.c$53$2_0$137              player
     000016DF  A$lcc1484035$261                   player
     000016E2  A$lcc1484035$262                   player
     000016E3  A$lcc1484035$263                   player
     000016E4  A$lcc1484035$264                   player
     000016E5  A$lcc1484035$265                   player
     000016E6  A$lcc1484035$266                   player
     000016E8  A$lcc1484035$267                   player
     000016E9  A$lcc1484035$268                   player
     000016EB  A$lcc1484035$269                   player
     000016EC  A$lcc1484035$270                   player
     000016EE  A$lcc1484035$271                   player
     000016EF  A$lcc1484035$272                   player
     000016F1  A$lcc1484035$273                   player
     000016F2  A$lcc1484035$274                   player
     000016F4  A$lcc1484035$275                   player
     000016F5  A$lcc1484035$276                   player
     000016F7  A$lcc1484035$280                   player
     000016F7  C$player.c$59$2_0$137              player
     000016F8  A$lcc1484035$281                   player
     000016FA  A$lcc1484035$282                   player
     000016FB  A$lcc1484035$283                   player
     000016FD  A$lcc1484035$284                   player
     000016FE  A$lcc1484035$285                   player
     00001700  A$lcc1484035$286                   player
     00001701  A$lcc1484035$287                   player
     00001703  A$lcc1484035$288                   player
     00001704  A$lcc1484035$289                   player
     00001706  A$lcc1484035$290                   player
     00001707  A$lcc1484035$291                   player
     00001709  A$lcc1484035$292                   player
     0000170A  A$lcc1484035$293                   player
     0000170C  A$lcc1484035$294                   player
     0000170D  A$lcc1484035$295                   player
     0000170F  A$lcc1484035$296                   player
     00001710  A$lcc1484035$297                   player
     00001711  A$lcc1484035$298                   player
     00001712  A$lcc1484035$299                   player
     00001713  A$lcc1484035$300                   player
     00001714  A$lcc1484035$301                   player
     00001716  A$lcc1484035$302                   player
     00001717  A$lcc1484035$303                   player
     00001719  A$lcc1484035$304                   player
     0000171A  A$lcc1484035$305                   player
     0000171C  A$lcc1484035$306                   player
ASxxxx Linker V03.00/V05.40 + sdld,  page 48.
Hexadecimal  [32-Bits]

Area                                    Addr        Size        Decimal Bytes (Attributes)
--------------------------------        ----        ----        ------- ----- ------------
_CODE                               00000200    000024E6 =        9446. bytes (REL,CON)

      Value  Global                              Global Defined In Module
      -----  --------------------------------   ------------------------
     0000171D  A$lcc1484035$307                   player
     0000171F  A$lcc1484035$308                   player
     00001720  A$lcc1484035$309                   player
     00001722  A$lcc1484035$310                   player
     00001723  A$lcc1484035$311                   player
     00001725  A$lcc1484035$312                   player
     00001726  A$lcc1484035$313                   player
     00001728  A$lcc1484035$314                   player
     00001729  A$lcc1484035$315                   player
     0000172B  A$lcc1484035$316                   player
     0000172C  A$lcc1484035$317                   player
     0000172E  A$lcc1484035$318                   player
     0000172F  A$lcc1484035$319                   player
     00001731  A$lcc1484035$320                   player
     00001732  A$lcc1484035$321                   player
     00001734  A$lcc1484035$322                   player
     00001735  A$lcc1484035$323                   player
     00001737  A$lcc1484035$324                   player
     00001738  A$lcc1484035$325                   player
     0000173A  A$lcc1484035$326                   player
     0000173B  A$lcc1484035$327                   player
     0000173D  A$lcc1484035$328                   player
     0000173E  A$lcc1484035$329                   player
     0000173F  A$lcc1484035$330                   player
     00001740  A$lcc1484035$331                   player
     00001741  A$lcc1484035$332                   player
     00001742  A$lcc1484035$333                   player
     00001744  A$lcc1484035$334                   player
     00001745  A$lcc1484035$335                   player
     00001747  A$lcc1484035$336                   player
     00001748  A$lcc1484035$337                   player
     0000174A  A$lcc1484035$338                   player
     0000174B  A$lcc1484035$339                   player
     0000174D  A$lcc1484035$340                   player
     0000174E  A$lcc1484035$341                   player
     00001750  A$lcc1484035$342                   player
     00001751  A$lcc1484035$343                   player
     00001753  A$lcc1484035$347                   player
     00001753  C$player.c$81$1_1$137              player
     00001756  A$lcc1484035$348                   player
     00001757  A$lcc1484035$349                   player
     00001759  A$lcc1484035$350                   player
     0000175A  A$lcc1484035$351                   player
     0000175B  A$lcc1484035$352                   player
     0000175C  A$lcc1484035$353                   player
     0000175D  A$lcc1484035$354                   player
     0000175E  A$lcc1484035$355                   player
     0000175F  A$lcc1484035$356                   player
     00001760  A$lcc1484035$357                   player
     00001761  A$lcc1484035$358                   player
     00001762  A$lcc1484035$359                   player
ASxxxx Linker V03.00/V05.40 + sdld,  page 49.
Hexadecimal  [32-Bits]

Area                                    Addr        Size        Decimal Bytes (Attributes)
--------------------------------        ----        ----        ------- ----- ------------
_CODE                               00000200    000024E6 =        9446. bytes (REL,CON)

      Value  Global                              Global Defined In Module
      -----  --------------------------------   ------------------------
     00001765  A$lcc1484035$360                   player
     00001766  A$lcc1484035$361                   player
     00001767  A$lcc1484035$362                   player
     00001768  A$lcc1484035$363                   player
     0000176B  A$lcc1484035$364                   player
     0000176C  A$lcc1484035$365                   player
     0000176E  A$lcc1484035$366                   player
     0000176F  A$lcc1484035$367                   player
     00001770  A$lcc1484035$368                   player
     00001773  A$lcc1484035$369                   player
     00001774  A$lcc1484035$370                   player
     00001775  A$lcc1484035$371                   player
     00001776  A$lcc1484035$372                   player
     00001777  A$lcc1484035$373                   player
     00001778  A$lcc1484035$374                   player
     00001779  A$lcc1484035$375                   player
     0000177C  A$lcc1484035$376                   player
     0000177F  A$lcc1484035$380                   player
     0000177F  C$player.c$82$1_1$137              player
     00001782  A$lcc1484035$381                   player
     00001783  A$lcc1484035$382                   player
     00001785  A$lcc1484035$383                   player
     00001786  A$lcc1484035$384                   player
     00001787  A$lcc1484035$385                   player
     00001788  A$lcc1484035$386                   player
     00001789  A$lcc1484035$387                   player
     0000178A  A$lcc1484035$388                   player
     0000178B  A$lcc1484035$389                   player
     0000178C  A$lcc1484035$390                   player
     0000178D  A$lcc1484035$391                   player
     0000178E  A$lcc1484035$392                   player
     00001791  A$lcc1484035$393                   player
     00001792  A$lcc1484035$394                   player
     00001793  A$lcc1484035$395                   player
     00001794  A$lcc1484035$396                   player
     00001797  A$lcc1484035$397                   player
     00001798  A$lcc1484035$398                   player
     0000179A  A$lcc1484035$399                   player
     0000179B  A$lcc1484035$400                   player
     0000179C  A$lcc1484035$401                   player
     0000179F  A$lcc1484035$402                   player
     000017A0  A$lcc1484035$403                   player
     000017A1  A$lcc1484035$404                   player
     000017A3  A$lcc1484035$405                   player
     000017A4  A$lcc1484035$406                   player
     000017A5  A$lcc1484035$407                   player
     000017A6  A$lcc1484035$408                   player
     000017A9  A$lcc1484035$409                   player
     000017AC  A$lcc1484035$413                   player
     000017AC  C$player.c$83$1_1$137              player
     000017AF  A$lcc1484035$414                   player
ASxxxx Linker V03.00/V05.40 + sdld,  page 50.
Hexadecimal  [32-Bits]

Area                                    Addr        Size        Decimal Bytes (Attributes)
--------------------------------        ----        ----        ------- ----- ------------
_CODE                               00000200    000024E6 =        9446. bytes (REL,CON)

      Value  Global                              Global Defined In Module
      -----  --------------------------------   ------------------------
     000017B0  A$lcc1484035$415                   player
     000017B2  A$lcc1484035$416                   player
     000017B3  A$lcc1484035$417                   player
     000017B4  A$lcc1484035$418                   player
     000017B5  A$lcc1484035$419                   player
     000017B6  A$lcc1484035$420                   player
     000017B7  A$lcc1484035$421                   player
     000017B8  A$lcc1484035$422                   player
     000017B9  A$lcc1484035$423                   player
     000017BA  A$lcc1484035$424                   player
     000017BB  A$lcc1484035$425                   player
     000017BE  A$lcc1484035$426                   player
     000017BF  A$lcc1484035$427                   player
     000017C0  A$lcc1484035$428                   player
     000017C1  A$lcc1484035$429                   player
     000017C4  A$lcc1484035$430                   player
     000017C5  A$lcc1484035$431                   player
     000017C7  A$lcc1484035$432                   player
     000017C8  A$lcc1484035$433                   player
     000017C9  A$lcc1484035$434                   player
     000017CC  A$lcc1484035$435                   player
     000017CD  A$lcc1484035$436                   player
     000017CE  A$lcc1484035$437                   player
     000017D0  A$lcc1484035$438                   player
     000017D1  A$lcc1484035$439                   player
     000017D2  A$lcc1484035$440                   player
     000017D3  A$lcc1484035$441                   player
     000017D6  A$lcc1484035$442                   player
     000017D9  A$lcc1484035$446                   player
     000017D9  C$player.c$84$1_1$137              player
     000017DC  A$lcc1484035$447                   player
     000017DD  A$lcc1484035$448                   player
     000017DF  A$lcc1484035$449                   player
     000017E0  A$lcc1484035$450                   player
     000017E1  A$lcc1484035$451                   player
     000017E2  A$lcc1484035$452                   player
     000017E3  A$lcc1484035$453                   player
     000017E4  A$lcc1484035$454                   player
     000017E5  A$lcc1484035$455                   player
     000017E6  A$lcc1484035$456                   player
     000017E7  A$lcc1484035$457                   player
     000017E8  A$lcc1484035$458                   player
     000017EB  A$lcc1484035$459                   player
     000017EC  A$lcc1484035$460                   player
     000017ED  A$lcc1484035$461                   player
     000017EE  A$lcc1484035$462                   player
     000017F1  A$lcc1484035$463                   player
     000017F2  A$lcc1484035$464                   player
     000017F4  A$lcc1484035$465                   player
     000017F5  A$lcc1484035$466                   player
     000017F6  A$lcc1484035$467                   player
ASxxxx Linker V03.00/V05.40 + sdld,  page 51.
Hexadecimal  [32-Bits]

Area                                    Addr        Size        Decimal Bytes (Attributes)
--------------------------------        ----        ----        ------- ----- ------------
_CODE                               00000200    000024E6 =        9446. bytes (REL,CON)

      Value  Global                              Global Defined In Module
      -----  --------------------------------   ------------------------
     000017F9  A$lcc1484035$468                   player
     000017FA  A$lcc1484035$469                   player
     000017FB  A$lcc1484035$470                   player
     000017FD  A$lcc1484035$471                   player
     000017FE  A$lcc1484035$472                   player
     000017FF  A$lcc1484035$473                   player
     00001800  A$lcc1484035$474                   player
     00001803  A$lcc1484035$475                   player
     00001806  A$lcc1484035$479                   player
     00001806  C$player.c$86$1_1$137              player
     00001809  A$lcc1484035$483                   player
     00001809  C$player.c$87$1_1$137              player
     0000180A  A$lcc1484035$484                   player
     0000180B  A$lcc1484035$485                   player
     0000180D  A$lcc1484035$489                   player
     0000180D  C$player.c$88$1_1$137              player
     00001810  A$lcc1484035$490                   player
     00001812  A$lcc1484035$494                   player
     00001812  C$player.c$89$1_1$137              player
     00001815  A$lcc1484035$495                   player
     00001817  A$lcc1484035$499                   player
     00001817  C$player.c$91$1_1$137              player
     0000181A  A$lcc1484035$503                   player
     0000181C  A$lcc1484035$508                   player
     0000181C  C$player.c$92$1_1$136              player
     0000181C  XG$init_player$0$0                 player
     0000181D  A$lcc1484037$56                    render
     0000181D  C$render.c$5$0_0$130               render
     0000181D  G$render_reset$0$0                 render
     0000181D  _render_reset                      render
     0000181E  A$lcc1484037$60                    render
     0000181E  C$render.c$6$1_0$130               render
     00001821  A$lcc1484037$61                    render
     00001823  A$lcc1484037$62                    render
     00001824  A$lcc1484037$63                    render
     00001826  A$lcc1484037$67                    render
     00001826  C$render.c$7$1_0$130               render
     00001829  A$lcc1484037$68                    render
     0000182B  A$lcc1484037$69                    render
     0000182C  A$lcc1484037$70                    render
     0000182E  A$lcc1484037$78                    render
     0000182E  C$render.c$8$1_0$130               render
     0000182E  XG$render_reset$0$0                render
     0000182F  A$lcc1484038$56                    scene
     0000182F  C$scene.c$6$0_0$27                 scene
     0000182F  C$scene.c$8$2_0$28                 scene
     0000182F  G$Scene_Destroy$0$0                scene
     0000182F  _Scene_Destroy                     scene
     00001832  A$lcc1484038$57                    scene
     00001833  A$lcc1484038$58                    scene
     00001834  A$lcc1484038$59                    scene
ASxxxx Linker V03.00/V05.40 + sdld,  page 52.
Hexadecimal  [32-Bits]

Area                                    Addr        Size        Decimal Bytes (Attributes)
--------------------------------        ----        ----        ------- ----- ------------
_CODE                               00000200    000024E6 =        9446. bytes (REL,CON)

      Value  Global                              Global Defined In Module
      -----  --------------------------------   ------------------------
     00001835  A$lcc1484038$60                    scene
     00001836  A$lcc1484038$61                    scene
     00001837  A$lcc1484038$62                    scene
     00001838  A$lcc1484038$63                    scene
     00001839  A$lcc1484038$67                    scene
     00001839  C$scene.c$9$2_0$28                 scene
     0000183A  A$lcc1484038$71                    scene
     0000183A  C$scene.c$11$1_0$27                scene
     0000183B  A$lcc1484038$72                    scene
     0000183C  A$lcc1484038$73                    scene
     0000183D  A$lcc1484038$74                    scene
     00001840  A$lcc1484038$75                    scene
     00001841  A$lcc1484038$79                    scene
     00001841  C$scene.c$12$1_0$27                scene
     00001842  A$lcc1484038$80                    scene
     00001843  A$lcc1484038$81                    scene
     00001844  A$lcc1484038$82                    scene
     00001845  A$lcc1484038$90                    scene
     00001845  C$scene.c$13$1_0$27                scene
     00001845  XG$Scene_Destroy$0$0               scene
     00001846  A$lcc1484039$63                    scene_manager
     00001846  C$scene_manager.c$14$0_0$164       scene_manager
     00001846  C$scene_manager.c$17$1_0$164       scene_manager
     00001846  G$SceneManager_CleanScreen$0$0     scene_manager
     00001846  _SceneManager_CleanScreen          scene_manager
     00001849  A$lcc1484039$64                    scene_manager
     0000184C  A$lcc1484039$65                    scene_manager
     0000184D  A$lcc1484039$66                    scene_manager
     0000184F  A$lcc1484039$67                    scene_manager
     00001850  A$lcc1484039$68                    scene_manager
     00001852  A$lcc1484039$72                    scene_manager
     00001852  C$scene_manager.c$18$1_0$164       scene_manager
     00001855  A$lcc1484039$73                    scene_manager
     00001856  A$lcc1484039$74                    scene_manager
     00001858  A$lcc1484039$75                    scene_manager
     00001859  A$lcc1484039$76                    scene_manager
     0000185B  A$lcc1484039$80                    scene_manager
     0000185B  C$scene_manager.c$19$1_0$164       scene_manager
     0000185E  A$lcc1484039$81                    scene_manager
     0000185F  A$lcc1484039$82                    scene_manager
     00001861  A$lcc1484039$83                    scene_manager
     00001862  A$lcc1484039$84                    scene_manager
     00001864  A$lcc1484039$88                    scene_manager
     00001864  C$scene_manager.c$20$1_0$164       scene_manager
     00001867  A$lcc1484039$89                    scene_manager
     00001868  A$lcc1484039$90                    scene_manager
     0000186A  A$lcc1484039$91                    scene_manager
     0000186B  A$lcc1484039$92                    scene_manager
     0000186D  A$lcc1484039$100                   scene_manager
     0000186D  C$scene_manager.c$21$1_0$164       scene_manager
     0000186D  XG$SceneManager_CleanScreen$0$0    scene_manager
ASxxxx Linker V03.00/V05.40 + sdld,  page 53.
Hexadecimal  [32-Bits]

Area                                    Addr        Size        Decimal Bytes (Attributes)
--------------------------------        ----        ----        ------- ----- ------------
_CODE                               00000200    000024E6 =        9446. bytes (REL,CON)

      Value  Global                              Global Defined In Module
      -----  --------------------------------   ------------------------
     0000186E  A$lcc1484039$113                   scene_manager
     0000186E  C$scene_manager.c$23$1_0$166       scene_manager
     0000186E  C$scene_manager.c$25$1_0$166       scene_manager
     0000186E  G$SceneManager_Create$0$0          scene_manager
     0000186E  _SceneManager_Create               scene_manager
     0000186F  A$lcc1484039$114                   scene_manager
     00001872  A$lcc1484039$115                   scene_manager
     00001875  A$lcc1484039$116                   scene_manager
     00001876  A$lcc1484039$117                   scene_manager
     00001879  A$lcc1484039$118                   scene_manager
     0000187A  A$lcc1484039$119                   scene_manager
     0000187B  A$lcc1484039$123                   scene_manager
     0000187B  C$scene_manager.c$27$1_0$166       scene_manager
     0000187C  A$lcc1484039$124                   scene_manager
     0000187D  A$lcc1484039$125                   scene_manager
     0000187E  A$lcc1484039$126                   scene_manager
     00001881  A$lcc1484039$127                   scene_manager
     00001882  A$lcc1484039$128                   scene_manager
     00001883  A$lcc1484039$129                   scene_manager
     00001884  A$lcc1484039$130                   scene_manager
     00001885  A$lcc1484039$134                   scene_manager
     00001885  C$scene_manager.c$28$1_0$166       scene_manager
     00001888  A$lcc1484039$135                   scene_manager
     0000188B  A$lcc1484039$136                   scene_manager
     0000188C  A$lcc1484039$137                   scene_manager
     0000188D  A$lcc1484039$138                   scene_manager
     0000188E  A$lcc1484039$139                   scene_manager
     0000188F  A$lcc1484039$140                   scene_manager
     00001891  A$lcc1484039$141                   scene_manager
     00001892  A$lcc1484039$142                   scene_manager
     00001894  A$lcc1484039$150                   scene_manager
     00001894  C$scene_manager.c$29$1_0$166       scene_manager
     00001894  XG$SceneManager_Create$0$0         scene_manager
     00001895  A$lcc1484039$160                   scene_manager
     00001895  C$scene_manager.c$31$1_0$168       scene_manager
     00001895  G$SceneManager_ChangeScene$0$0     scene_manager
     00001895  _SceneManager_ChangeScene          scene_manager
     00001897  A$lcc1484039$161                   scene_manager
     00001899  A$lcc1484039$162                   scene_manager
     0000189A  A$lcc1484039$163                   scene_manager
     0000189B  A$lcc1484039$164                   scene_manager
     0000189C  A$lcc1484039$165                   scene_manager
     0000189D  A$lcc1484039$166                   scene_manager
     0000189E  A$lcc1484039$170                   scene_manager
     000018A1  A$lcc1484039$171                   scene_manager
     000018A2  A$lcc1484039$172                   scene_manager
     000018A3  A$lcc1484039$173                   scene_manager
     000018A4  A$lcc1484039$174                   scene_manager
     000018A5  A$lcc1484039$175                   scene_manager
     000018A6  A$lcc1484039$176                   scene_manager
     000018A7  A$lcc1484039$177                   scene_manager
ASxxxx Linker V03.00/V05.40 + sdld,  page 54.
Hexadecimal  [32-Bits]

Area                                    Addr        Size        Decimal Bytes (Attributes)
--------------------------------        ----        ----        ------- ----- ------------
_CODE                               00000200    000024E6 =        9446. bytes (REL,CON)

      Value  Global                              Global Defined In Module
      -----  --------------------------------   ------------------------
     000018A8  A$lcc1484039$178                   scene_manager
     000018A9  A$lcc1484039$182                   scene_manager
     000018A9  C$scene_manager.c$34$2_0$169       scene_manager
     000018AB  A$lcc1484039$186                   scene_manager
     000018AC  A$lcc1484039$187                   scene_manager
     000018AD  A$lcc1484039$188                   scene_manager
     000018AE  A$lcc1484039$189                   scene_manager
     000018AF  A$lcc1484039$190                   scene_manager
     000018B0  A$lcc1484039$191                   scene_manager
     000018B1  A$lcc1484039$192                   scene_manager
     000018B2  A$lcc1484039$193                   scene_manager
     000018B4  A$lcc1484039$194                   scene_manager
     000018B7  A$lcc1484039$195                   scene_manager
     000018B8  A$lcc1484039$196                   scene_manager
     000018B9  A$lcc1484039$197                   scene_manager
     000018BA  A$lcc1484039$198                   scene_manager
     000018BB  A$lcc1484039$199                   scene_manager
     000018BC  A$lcc1484039$200                   scene_manager
     000018BE  A$lcc1484039$204                   scene_manager
     000018BE  C$scene_manager.c$37$2_0$170       scene_manager
     000018BF  A$lcc1484039$205                   scene_manager
     000018C0  A$lcc1484039$206                   scene_manager
     000018C3  A$lcc1484039$207                   scene_manager
     000018C4  A$lcc1484039$208                   scene_manager
     000018C5  A$lcc1484039$209                   scene_manager
     000018C6  A$lcc1484039$215                   scene_manager
     000018C6  C$scene_manager.c$39$1_0$168       scene_manager
     000018C9  A$lcc1484039$216                   scene_manager
     000018CA  A$lcc1484039$217                   scene_manager
     000018CB  A$lcc1484039$218                   scene_manager
     000018CC  A$lcc1484039$219                   scene_manager
     000018CD  A$lcc1484039$220                   scene_manager
     000018CE  A$lcc1484039$221                   scene_manager
     000018CF  A$lcc1484039$222                   scene_manager
     000018D0  A$lcc1484039$223                   scene_manager
     000018D2  A$lcc1484039$224                   scene_manager
     000018D3  A$lcc1484039$225                   scene_manager
     000018D6  A$lcc1484039$226                   scene_manager
     000018D7  A$lcc1484039$227                   scene_manager
     000018D8  A$lcc1484039$228                   scene_manager
     000018D9  A$lcc1484039$229                   scene_manager
     000018DA  A$lcc1484039$230                   scene_manager
     000018DB  A$lcc1484039$231                   scene_manager
     000018DC  A$lcc1484039$232                   scene_manager
     000018DD  A$lcc1484039$233                   scene_manager
     000018DE  A$lcc1484039$237                   scene_manager
     000018DE  C$scene_manager.c$41$1_0$168       scene_manager
     000018E1  A$lcc1484039$241                   scene_manager
     000018E1  C$scene_manager.c$33$1_0$168       scene_manager
     000018E4  A$lcc1484039$242                   scene_manager
     000018E5  A$lcc1484039$243                   scene_manager
ASxxxx Linker V03.00/V05.40 + sdld,  page 55.
Hexadecimal  [32-Bits]

Area                                    Addr        Size        Decimal Bytes (Attributes)
--------------------------------        ----        ----        ------- ----- ------------
_CODE                               00000200    000024E6 =        9446. bytes (REL,CON)

      Value  Global                              Global Defined In Module
      -----  --------------------------------   ------------------------
     000018E6  A$lcc1484039$244                   scene_manager
     000018E7  A$lcc1484039$245                   scene_manager
     000018E8  A$lcc1484039$246                   scene_manager
     000018E9  A$lcc1484039$247                   scene_manager
     000018EA  A$lcc1484039$251                   scene_manager
     000018EA  C$scene_manager.c$36$1_0$168       scene_manager
     000018EB  A$lcc1484039$252                   scene_manager
     000018EC  A$lcc1484039$253                   scene_manager
     000018ED  A$lcc1484039$254                   scene_manager
     000018EE  A$lcc1484039$255                   scene_manager
     000018EF  A$lcc1484039$259                   scene_manager
     000018EF  C$scene_manager.c$42$1_0$168       scene_manager
     000018F0  A$lcc1484039$260                   scene_manager
     000018F1  A$lcc1484039$261                   scene_manager
     000018F2  A$lcc1484039$262                   scene_manager
     000018F4  A$lcc1484039$263                   scene_manager
     000018F5  A$lcc1484039$264                   scene_manager
     000018F6  A$lcc1484039$265                   scene_manager
     000018F7  A$lcc1484039$266                   scene_manager
     000018F8  A$lcc1484039$267                   scene_manager
     000018F9  A$lcc1484039$268                   scene_manager
     000018FA  A$lcc1484039$269                   scene_manager
     000018FB  A$lcc1484039$270                   scene_manager
     000018FC  A$lcc1484039$271                   scene_manager
     000018FD  A$lcc1484039$272                   scene_manager
     00001900  A$lcc1484039$276                   scene_manager
     00001900  C$scene_manager.c$44$1_0$168       scene_manager
     00001902  A$lcc1484039$277                   scene_manager
     00001904  A$lcc1484039$278                   scene_manager
     00001906  A$lcc1484039$283                   scene_manager
     00001908  A$lcc1484039$288                   scene_manager
     00001908  C$scene_manager.c$45$1_0$168       scene_manager
     00001908  XG$SceneManager_ChangeScene$0$0    scene_manager
     00001909  A$lcc1484040$61                    gender_select
     00001909  C$gender_select.c$6$0_0$30         gender_select
     00001909  C$gender_select.c$8$1_0$30         gender_select
     00001909  G$GenderSelect_Create$0$0          gender_select
     00001909  _GenderSelect_Create               gender_select
     0000190C  A$lcc1484040$62                    gender_select
     0000190E  A$lcc1484040$63                    gender_select
     0000190F  A$lcc1484040$64                    gender_select
     00001911  A$lcc1484040$68                    gender_select
     00001911  C$gender_select.c$9$1_0$30         gender_select
     00001912  A$lcc1484040$69                    gender_select
     00001914  A$lcc1484040$70                    gender_select
     00001915  A$lcc1484040$71                    gender_select
     00001917  A$lcc1484040$75                    gender_select
     00001917  C$gender_select.c$11$1_0$30        gender_select
     0000191A  A$lcc1484040$76                    gender_select
     0000191B  A$lcc1484040$77                    gender_select
     0000191C  A$lcc1484040$78                    gender_select
ASxxxx Linker V03.00/V05.40 + sdld,  page 56.
Hexadecimal  [32-Bits]

Area                                    Addr        Size        Decimal Bytes (Attributes)
--------------------------------        ----        ----        ------- ----- ------------
_CODE                               00000200    000024E6 =        9446. bytes (REL,CON)

      Value  Global                              Global Defined In Module
      -----  --------------------------------   ------------------------
     0000191D  A$lcc1484040$86                    gender_select
     0000191D  C$gender_select.c$12$1_0$30        gender_select
     0000191D  XG$GenderSelect_Create$0$0         gender_select
     0000191E  A$lcc1484041$58                    gender_select_init
     0000191E  C$gender_select_init.c$11$1_0$15   gender_select_init
     0000191E  C$gender_select_init.c$9$0_0$155   gender_select_init
     0000191E  G$GenderSelect_Init$0$0            gender_select_init
     0000191E  _GenderSelect_Init                 gender_select_init
     0000191F  A$lcc1484041$59                    gender_select_init
     00001922  A$lcc1484041$60                    gender_select_init
     00001925  A$lcc1484041$61                    gender_select_init
     00001926  A$lcc1484041$62                    gender_select_init
     00001927  A$lcc1484041$63                    gender_select_init
     00001928  A$lcc1484041$67                    gender_select_init
     00001928  C$gender_select_init.c$12$2_0$15   gender_select_init
     00001929  A$lcc1484041$68                    gender_select_init
     0000192A  A$lcc1484041$72                    gender_select_init
     0000192A  C$gender_select_init.c$13$2_0$15   gender_select_init
     0000192B  A$lcc1484041$76                    gender_select_init
     0000192B  C$gender_select_init.c$15$1_0$15   gender_select_init
     0000192C  A$lcc1484041$77                    gender_select_init
     0000192D  A$lcc1484041$81                    gender_select_init
     0000192D  C$gender_select_init.c$16$1_0$15   gender_select_init
     00001930  A$lcc1484041$82                    gender_select_init
     00001931  A$lcc1484041$83                    gender_select_init
     00001932  A$lcc1484041$84                    gender_select_init
     00001933  A$lcc1484041$85                    gender_select_init
     00001934  A$lcc1484041$89                    gender_select_init
     00001934  C$gender_select_init.c$18$1_0$15   gender_select_init
     00001937  A$lcc1484041$90                    gender_select_init
     00001938  A$lcc1484041$91                    gender_select_init
     0000193B  A$lcc1484041$92                    gender_select_init
     0000193C  A$lcc1484041$93                    gender_select_init
     0000193F  A$lcc1484041$94                    gender_select_init
     00001941  A$lcc1484041$98                    gender_select_init
     00001941  C$gender_select_init.c$19$1_0$15   gender_select_init
     00001944  A$lcc1484041$99                    gender_select_init
     00001945  A$lcc1484041$100                   gender_select_init
     00001948  A$lcc1484041$101                   gender_select_init
     00001949  A$lcc1484041$102                   gender_select_init
     0000194A  A$lcc1484041$103                   gender_select_init
     0000194B  A$lcc1484041$104                   gender_select_init
     0000194C  A$lcc1484041$105                   gender_select_init
     0000194F  A$lcc1484041$106                   gender_select_init
     00001951  A$lcc1484041$114                   gender_select_init
     00001951  C$gender_select_init.c$20$1_0$15   gender_select_init
     00001951  XG$GenderSelect_Init$0$0           gender_select_init
     00001952  A$lcc1484042$62                    gender_select_update
     00001952  C$gender_select_update.c$6$0_0$1   gender_select_update
     00001952  C$gender_select_update.c$8$1_0$1   gender_select_update
     00001952  C$gender_select_update.c$9$1_0$1   gender_select_update
ASxxxx Linker V03.00/V05.40 + sdld,  page 57.
Hexadecimal  [32-Bits]

Area                                    Addr        Size        Decimal Bytes (Attributes)
--------------------------------        ----        ----        ------- ----- ------------
_CODE                               00000200    000024E6 =        9446. bytes (REL,CON)

      Value  Global                              Global Defined In Module
      -----  --------------------------------   ------------------------
     00001952  G$GenderSelect_Update$0$0          gender_select_update
     00001952  XG$GenderSelect_Update$0$0         gender_select_update
     00001952  _GenderSelect_Update               gender_select_update
     00001953  A$lcc1484043$61                    inventory_scene
     00001953  C$inventory_scene.c$6$0_0$30       inventory_scene
     00001953  C$inventory_scene.c$8$1_0$30       inventory_scene
     00001953  G$InventoryScene_Create$0$0        inventory_scene
     00001953  _InventoryScene_Create             inventory_scene
     00001956  A$lcc1484043$62                    inventory_scene
     00001958  A$lcc1484043$63                    inventory_scene
     00001959  A$lcc1484043$64                    inventory_scene
     0000195B  A$lcc1484043$68                    inventory_scene
     0000195B  C$inventory_scene.c$9$1_0$30       inventory_scene
     0000195C  A$lcc1484043$69                    inventory_scene
     0000195E  A$lcc1484043$70                    inventory_scene
     0000195F  A$lcc1484043$71                    inventory_scene
     00001961  A$lcc1484043$75                    inventory_scene
     00001961  C$inventory_scene.c$11$1_0$30      inventory_scene
     00001964  A$lcc1484043$76                    inventory_scene
     00001965  A$lcc1484043$77                    inventory_scene
     00001966  A$lcc1484043$78                    inventory_scene
     00001967  A$lcc1484043$86                    inventory_scene
     00001967  C$inventory_scene.c$12$1_0$30      inventory_scene
     00001967  XG$InventoryScene_Create$0$0       inventory_scene
     00001968  A$lcc1484044$56                    inventory_scene_init
     00001968  C$inventory_scene_init.c$13$0_0$   inventory_scene_init
     00001968  G$InventoryScene_DrawCoins$0$0     inventory_scene_init
     00001968  _InventoryScene_DrawCoins          inventory_scene_init
     0000196A  A$lcc1484044$60                    inventory_scene_init
     0000196A  C$inventory_scene_init.c$15$1_0$   inventory_scene_init
     0000196D  A$lcc1484044$61                    inventory_scene_init
     0000196F  A$lcc1484044$62                    inventory_scene_init
     00001970  A$lcc1484044$63                    inventory_scene_init
     00001973  A$lcc1484044$64                    inventory_scene_init
     00001975  A$lcc1484044$65                    inventory_scene_init
     00001976  A$lcc1484044$66                    inventory_scene_init
     00001979  A$lcc1484044$67                    inventory_scene_init
     0000197A  A$lcc1484044$68                    inventory_scene_init
     0000197B  A$lcc1484044$69                    inventory_scene_init
     0000197C  A$lcc1484044$70                    inventory_scene_init
     0000197F  A$lcc1484044$71                    inventory_scene_init
     00001980  A$lcc1484044$72                    inventory_scene_init
     00001982  A$lcc1484044$73                    inventory_scene_init
     00001985  A$lcc1484044$74                    inventory_scene_init
     00001986  A$lcc1484044$75                    inventory_scene_init
     00001988  A$lcc1484044$76                    inventory_scene_init
     0000198A  A$lcc1484044$77                    inventory_scene_init
     0000198B  A$lcc1484044$81                    inventory_scene_init
     0000198B  C$inventory_scene_init.c$16$1_0$   inventory_scene_init
     0000198E  A$lcc1484044$82                    inventory_scene_init
     00001990  A$lcc1484044$83                    inventory_scene_init
ASxxxx Linker V03.00/V05.40 + sdld,  page 58.
Hexadecimal  [32-Bits]

Area                                    Addr        Size        Decimal Bytes (Attributes)
--------------------------------        ----        ----        ------- ----- ------------
_CODE                               00000200    000024E6 =        9446. bytes (REL,CON)

      Value  Global                              Global Defined In Module
      -----  --------------------------------   ------------------------
     00001991  A$lcc1484044$84                    inventory_scene_init
     00001992  A$lcc1484044$85                    inventory_scene_init
     00001993  A$lcc1484044$86                    inventory_scene_init
     00001996  A$lcc1484044$87                    inventory_scene_init
     00001997  A$lcc1484044$88                    inventory_scene_init
     00001998  A$lcc1484044$89                    inventory_scene_init
     0000199B  A$lcc1484044$90                    inventory_scene_init
     0000199E  A$lcc1484044$91                    inventory_scene_init
     0000199F  A$lcc1484044$92                    inventory_scene_init
     000019A1  A$lcc1484044$93                    inventory_scene_init
     000019A3  A$lcc1484044$94                    inventory_scene_init
     000019A4  A$lcc1484044$98                    inventory_scene_init
     000019A4  C$inventory_scene_init.c$17$1_0$   inventory_scene_init
     000019A7  A$lcc1484044$99                    inventory_scene_init
     000019A9  A$lcc1484044$100                   inventory_scene_init
     000019AA  A$lcc1484044$101                   inventory_scene_init
     000019AB  A$lcc1484044$102                   inventory_scene_init
     000019AC  A$lcc1484044$103                   inventory_scene_init
     000019AF  A$lcc1484044$104                   inventory_scene_init
     000019B0  A$lcc1484044$105                   inventory_scene_init
     000019B1  A$lcc1484044$106                   inventory_scene_init
     000019B4  A$lcc1484044$107                   inventory_scene_init
     000019B7  A$lcc1484044$108                   inventory_scene_init
     000019B8  A$lcc1484044$109                   inventory_scene_init
     000019BA  A$lcc1484044$110                   inventory_scene_init
     000019BC  A$lcc1484044$114                   inventory_scene_init
     000019BC  C$inventory_scene_init.c$18$1_0$   inventory_scene_init
     000019BD  A$lcc1484044$115                   inventory_scene_init
     000019BE  A$lcc1484044$116                   inventory_scene_init
     000019C1  A$lcc1484044$117                   inventory_scene_init
     000019C2  A$lcc1484044$118                   inventory_scene_init
     000019C3  A$lcc1484044$119                   inventory_scene_init
     000019C4  A$lcc1484044$120                   inventory_scene_init
     000019C7  A$lcc1484044$121                   inventory_scene_init
     000019C8  A$lcc1484044$122                   inventory_scene_init
     000019CA  A$lcc1484044$123                   inventory_scene_init
     000019CC  A$lcc1484044$124                   inventory_scene_init
     000019CD  A$lcc1484044$128                   inventory_scene_init
     000019CD  C$inventory_scene_init.c$20$1_0$   inventory_scene_init
     000019CF  A$lcc1484044$129                   inventory_scene_init
     000019D0  A$lcc1484044$130                   inventory_scene_init
     000019D3  A$lcc1484044$131                   inventory_scene_init
     000019D4  A$lcc1484044$132                   inventory_scene_init
     000019D7  A$lcc1484044$133                   inventory_scene_init
     000019D8  A$lcc1484044$134                   inventory_scene_init
     000019DB  A$lcc1484044$135                   inventory_scene_init
     000019DD  A$lcc1484044$139                   inventory_scene_init
     000019DD  C$inventory_scene_init.c$21$1_0$   inventory_scene_init
     000019DF  A$lcc1484044$140                   inventory_scene_init
     000019E0  A$lcc1484044$141                   inventory_scene_init
     000019E3  A$lcc1484044$142                   inventory_scene_init
ASxxxx Linker V03.00/V05.40 + sdld,  page 59.
Hexadecimal  [32-Bits]

Area                                    Addr        Size        Decimal Bytes (Attributes)
--------------------------------        ----        ----        ------- ----- ------------
_CODE                               00000200    000024E6 =        9446. bytes (REL,CON)

      Value  Global                              Global Defined In Module
      -----  --------------------------------   ------------------------
     000019E4  A$lcc1484044$143                   inventory_scene_init
     000019E7  A$lcc1484044$144                   inventory_scene_init
     000019E8  A$lcc1484044$145                   inventory_scene_init
     000019EB  A$lcc1484044$146                   inventory_scene_init
     000019ED  A$lcc1484044$150                   inventory_scene_init
     000019ED  C$inventory_scene_init.c$22$1_0$   inventory_scene_init
     000019EF  A$lcc1484044$151                   inventory_scene_init
     000019F0  A$lcc1484044$152                   inventory_scene_init
     000019F3  A$lcc1484044$153                   inventory_scene_init
     000019F4  A$lcc1484044$154                   inventory_scene_init
     000019F7  A$lcc1484044$155                   inventory_scene_init
     000019F8  A$lcc1484044$156                   inventory_scene_init
     000019FB  A$lcc1484044$157                   inventory_scene_init
     000019FD  A$lcc1484044$161                   inventory_scene_init
     000019FD  C$inventory_scene_init.c$23$1_0$   inventory_scene_init
     000019FF  A$lcc1484044$162                   inventory_scene_init
     00001A00  A$lcc1484044$163                   inventory_scene_init
     00001A01  A$lcc1484044$164                   inventory_scene_init
     00001A02  A$lcc1484044$165                   inventory_scene_init
     00001A05  A$lcc1484044$166                   inventory_scene_init
     00001A06  A$lcc1484044$167                   inventory_scene_init
     00001A09  A$lcc1484044$168                   inventory_scene_init
     00001A0A  A$lcc1484044$169                   inventory_scene_init
     00001A0D  A$lcc1484044$173                   inventory_scene_init
     00001A0F  A$lcc1484044$178                   inventory_scene_init
     00001A0F  C$inventory_scene_init.c$24$1_0$   inventory_scene_init
     00001A0F  XG$InventoryScene_DrawCoins$0$0    inventory_scene_init
     00001A10  A$lcc1484044$188                   inventory_scene_init
     00001A10  C$inventory_scene_init.c$26$1_0$   inventory_scene_init
     00001A10  G$InventoryScene_Init$0$0          inventory_scene_init
     00001A10  _InventoryScene_Init               inventory_scene_init
     00001A11  A$lcc1484044$192                   inventory_scene_init
     00001A11  C$inventory_scene_init.c$28$1_0$   inventory_scene_init
     00001A14  A$lcc1484044$193                   inventory_scene_init
     00001A15  A$lcc1484044$194                   inventory_scene_init
     00001A16  A$lcc1484044$195                   inventory_scene_init
     00001A17  A$lcc1484044$196                   inventory_scene_init
     00001A18  A$lcc1484044$200                   inventory_scene_init
     00001A18  C$inventory_scene_init.c$29$1_0$   inventory_scene_init
     00001A1B  A$lcc1484044$204                   inventory_scene_init
     00001A1B  C$inventory_scene_init.c$31$2_0$   inventory_scene_init
     00001A1D  A$lcc1484044$205                   inventory_scene_init
     00001A1F  A$lcc1484044$209                   inventory_scene_init
     00001A1F  C$inventory_scene_init.c$33$2_0$   inventory_scene_init
     00001A21  A$lcc1484044$210                   inventory_scene_init
     00001A22  A$lcc1484044$214                   inventory_scene_init
     00001A22  C$inventory_scene_init.c$34$1_1$   inventory_scene_init
     00001A24  A$lcc1484044$215                   inventory_scene_init
     00001A26  A$lcc1484044$216                   inventory_scene_init
     00001A29  A$lcc1484044$217                   inventory_scene_init
     00001A2B  A$lcc1484044$221                   inventory_scene_init
ASxxxx Linker V03.00/V05.40 + sdld,  page 60.
Hexadecimal  [32-Bits]

Area                                    Addr        Size        Decimal Bytes (Attributes)
--------------------------------        ----        ----        ------- ----- ------------
_CODE                               00000200    000024E6 =        9446. bytes (REL,CON)

      Value  Global                              Global Defined In Module
      -----  --------------------------------   ------------------------
     00001A2B  C$inventory_scene_init.c$36$1_1$   inventory_scene_init
     00001A2E  A$lcc1484044$222                   inventory_scene_init
     00001A2F  A$lcc1484044$223                   inventory_scene_init
     00001A32  A$lcc1484044$224                   inventory_scene_init
     00001A33  A$lcc1484044$225                   inventory_scene_init
     00001A36  A$lcc1484044$226                   inventory_scene_init
     00001A38  A$lcc1484044$230                   inventory_scene_init
     00001A38  C$inventory_scene_init.c$37$1_1$   inventory_scene_init
     00001A3B  A$lcc1484044$231                   inventory_scene_init
     00001A3C  A$lcc1484044$232                   inventory_scene_init
     00001A3F  A$lcc1484044$233                   inventory_scene_init
     00001A40  A$lcc1484044$234                   inventory_scene_init
     00001A41  A$lcc1484044$235                   inventory_scene_init
     00001A42  A$lcc1484044$236                   inventory_scene_init
     00001A43  A$lcc1484044$237                   inventory_scene_init
     00001A46  A$lcc1484044$238                   inventory_scene_init
     00001A48  A$lcc1484044$242                   inventory_scene_init
     00001A48  C$inventory_scene_init.c$39$1_1$   inventory_scene_init
     00001A4B  A$lcc1484044$243                   inventory_scene_init
     00001A4C  A$lcc1484044$244                   inventory_scene_init
     00001A4F  A$lcc1484044$245                   inventory_scene_init
     00001A50  A$lcc1484044$246                   inventory_scene_init
     00001A53  A$lcc1484044$247                   inventory_scene_init
     00001A55  A$lcc1484044$251                   inventory_scene_init
     00001A55  C$inventory_scene_init.c$40$1_1$   inventory_scene_init
     00001A58  A$lcc1484044$252                   inventory_scene_init
     00001A59  A$lcc1484044$253                   inventory_scene_init
     00001A5A  A$lcc1484044$254                   inventory_scene_init
     00001A5D  A$lcc1484044$255                   inventory_scene_init
     00001A5E  A$lcc1484044$256                   inventory_scene_init
     00001A61  A$lcc1484044$257                   inventory_scene_init
     00001A62  A$lcc1484044$258                   inventory_scene_init
     00001A65  A$lcc1484044$259                   inventory_scene_init
     00001A67  A$lcc1484044$263                   inventory_scene_init
     00001A67  C$inventory_scene_init.c$42$1_1$   inventory_scene_init
     00001A68  A$lcc1484044$264                   inventory_scene_init
     00001A6B  A$lcc1484044$265                   inventory_scene_init
     00001A6C  A$lcc1484044$269                   inventory_scene_init
     00001A6C  C$inventory_scene_init.c$44$1_1$   inventory_scene_init
     00001A6D  A$lcc1484044$270                   inventory_scene_init
     00001A6F  A$lcc1484044$271                   inventory_scene_init
     00001A72  A$lcc1484044$272                   inventory_scene_init
     00001A73  A$lcc1484044$276                   inventory_scene_init
     00001A74  A$lcc1484044$281                   inventory_scene_init
     00001A74  C$inventory_scene_init.c$45$1_1$   inventory_scene_init
     00001A74  XG$InventoryScene_Init$0$0         inventory_scene_init
     00001A75  A$lcc1484045$57                    inventory_scene_update
     00001A75  C$inventory_scene_update.c$8$0_0   inventory_scene_update
     00001A75  C$inventory_scene_update.c$9$1_0   inventory_scene_update
     00001A75  G$InventoryScene_Update$0$0        inventory_scene_update
     00001A75  _InventoryScene_Update             inventory_scene_update
ASxxxx Linker V03.00/V05.40 + sdld,  page 61.
Hexadecimal  [32-Bits]

Area                                    Addr        Size        Decimal Bytes (Attributes)
--------------------------------        ----        ----        ------- ----- ------------
_CODE                               00000200    000024E6 =        9446. bytes (REL,CON)

      Value  Global                              Global Defined In Module
      -----  --------------------------------   ------------------------
     00001A78  A$lcc1484045$58                    inventory_scene_update
     00001A7B  A$lcc1484045$69                    inventory_scene_update
     00001A7B  C$inventory_scene_update.c$10$1_   inventory_scene_update
     00001A7B  C$inventory_scene_update.c$11$1_   inventory_scene_update
     00001A7B  XG$InventoryScene_Update$0$0       inventory_scene_update
     00001A7E  A$lcc1484046$77                    main_menu
     00001A7E  C$main_menu.c$10$0_0$32            main_menu
     00001A7E  C$main_menu.c$11$1_0$32            main_menu
     00001A7E  G$MainMenu_Create$0$0              main_menu
     00001A7E  _MainMenu_Create                   main_menu
     00001A81  A$lcc1484046$78                    main_menu
     00001A83  A$lcc1484046$79                    main_menu
     00001A84  A$lcc1484046$80                    main_menu
     00001A86  A$lcc1484046$84                    main_menu
     00001A86  C$main_menu.c$12$1_0$32            main_menu
     00001A87  A$lcc1484046$85                    main_menu
     00001A89  A$lcc1484046$86                    main_menu
     00001A8A  A$lcc1484046$87                    main_menu
     00001A8C  A$lcc1484046$91                    main_menu
     00001A8C  C$main_menu.c$14$1_0$32            main_menu
     00001A8F  A$lcc1484046$92                    main_menu
     00001A90  A$lcc1484046$93                    main_menu
     00001A91  A$lcc1484046$94                    main_menu
     00001A92  A$lcc1484046$102                   main_menu
     00001A92  C$main_menu.c$15$1_0$32            main_menu
     00001A92  XG$MainMenu_Create$0$0             main_menu
     00001A93  A$lcc1484047$57                    main_menu_init
     00001A93  C$main_menu_init.c$10$1_0$164      main_menu_init
     00001A93  C$main_menu_init.c$8$0_0$164       main_menu_init
     00001A93  G$MainMenu_Init$0$0                main_menu_init
     00001A93  _MainMenu_Init                     main_menu_init
     00001A96  A$lcc1484047$58                    main_menu_init
     00001A97  A$lcc1484047$59                    main_menu_init
     00001A98  A$lcc1484047$60                    main_menu_init
     00001A99  A$lcc1484047$61                    main_menu_init
     00001A9A  A$lcc1484047$65                    main_menu_init
     00001A9A  C$main_menu_init.c$12$2_0$165      main_menu_init
     00001A9C  A$lcc1484047$66                    main_menu_init
     00001A9D  A$lcc1484047$70                    main_menu_init
     00001A9D  C$main_menu_init.c$13$1_1$165      main_menu_init
     00001A9F  A$lcc1484047$71                    main_menu_init
     00001AA1  A$lcc1484047$72                    main_menu_init
     00001AA4  A$lcc1484047$73                    main_menu_init
     00001AA6  A$lcc1484047$77                    main_menu_init
     00001AA6  C$main_menu_init.c$15$1_1$165      main_menu_init
     00001AA9  A$lcc1484047$78                    main_menu_init
     00001AAA  A$lcc1484047$79                    main_menu_init
     00001AAD  A$lcc1484047$80                    main_menu_init
     00001AAE  A$lcc1484047$81                    main_menu_init
     00001AB1  A$lcc1484047$82                    main_menu_init
     00001AB3  A$lcc1484047$86                    main_menu_init
ASxxxx Linker V03.00/V05.40 + sdld,  page 62.
Hexadecimal  [32-Bits]

Area                                    Addr        Size        Decimal Bytes (Attributes)
--------------------------------        ----        ----        ------- ----- ------------
_CODE                               00000200    000024E6 =        9446. bytes (REL,CON)

      Value  Global                              Global Defined In Module
      -----  --------------------------------   ------------------------
     00001AB3  C$main_menu_init.c$16$1_1$165      main_menu_init
     00001AB6  A$lcc1484047$87                    main_menu_init
     00001AB7  A$lcc1484047$88                    main_menu_init
     00001ABA  A$lcc1484047$89                    main_menu_init
     00001ABB  A$lcc1484047$90                    main_menu_init
     00001ABC  A$lcc1484047$91                    main_menu_init
     00001ABD  A$lcc1484047$92                    main_menu_init
     00001ABE  A$lcc1484047$93                    main_menu_init
     00001AC1  A$lcc1484047$94                    main_menu_init
     00001AC3  A$lcc1484047$98                    main_menu_init
     00001AC3  C$main_menu_init.c$18$1_1$165      main_menu_init
     00001AC4  A$lcc1484047$99                    main_menu_init
     00001AC6  A$lcc1484047$100                   main_menu_init
     00001AC9  A$lcc1484047$101                   main_menu_init
     00001ACA  A$lcc1484047$109                   main_menu_init
     00001ACA  C$main_menu_init.c$19$1_1$164      main_menu_init
     00001ACA  XG$MainMenu_Init$0$0               main_menu_init
     00001ACB  A$lcc1484048$59                    main_menu_init_stats
     00001ACB  C$main_menu_init_stats.c$3$0_0$3   main_menu_init_stats
     00001ACB  C$main_menu_init_stats.c$5$0_0$3   main_menu_init_stats
     00001ACB  G$MainMenu_InitRandomStats$0$0     main_menu_init_stats
     00001ACB  XG$MainMenu_InitRandomStats$0$0    main_menu_init_stats
     00001ACB  _MainMenu_InitRandomStats          main_menu_init_stats
     00001ACC  A$lcc1484049$53                    main_menu_input
     00001ACC  C$main_menu_input.c$9$0_0$169      main_menu_input
     00001ACC  G$MainMenu_CheckInput$0$0          main_menu_input
     00001ACC  _MainMenu_CheckInput               main_menu_input
     00001ACE  A$lcc1484049$57                    main_menu_input
     00001ACE  C$main_menu_input.c$11$1_0$169     main_menu_input
     00001AD1  A$lcc1484049$58                    main_menu_input
     00001AD4  A$lcc1484049$59                    main_menu_input
     00001AD5  A$lcc1484049$63                    main_menu_input
     00001AD5  C$main_menu_input.c$13$2_0$170     main_menu_input
     00001AD6  A$lcc1484049$64                    main_menu_input
     00001AD7  A$lcc1484049$65                    main_menu_input
     00001AD9  A$lcc1484049$66                    main_menu_input
     00001ADC  A$lcc1484049$67                    main_menu_input
     00001ADD  A$lcc1484049$68                    main_menu_input
     00001ADF  A$lcc1484049$72                    main_menu_input
     00001ADF  C$main_menu_input.c$15$3_0$171     main_menu_input
     00001AE1  A$lcc1484049$73                    main_menu_input
     00001AE4  A$lcc1484049$74                    main_menu_input
     00001AE5  A$lcc1484049$75                    main_menu_input
     00001AE7  A$lcc1484049$79                    main_menu_input
     00001AE7  C$main_menu_input.c$16$3_0$171     main_menu_input
     00001AE9  A$lcc1484049$80                    main_menu_input
     00001AEA  A$lcc1484049$81                    main_menu_input
     00001AEB  A$lcc1484049$85                    main_menu_input
     00001AEB  C$main_menu_input.c$18$5_0$173     main_menu_input
     00001AED  A$lcc1484049$86                    main_menu_input
     00001AEF  A$lcc1484049$88                    main_menu_input
ASxxxx Linker V03.00/V05.40 + sdld,  page 63.
Hexadecimal  [32-Bits]

Area                                    Addr        Size        Decimal Bytes (Attributes)
--------------------------------        ----        ----        ------- ----- ------------
_CODE                               00000200    000024E6 =        9446. bytes (REL,CON)

      Value  Global                              Global Defined In Module
      -----  --------------------------------   ------------------------
     00001AF1  A$lcc1484049$89                    main_menu_input
     00001AF2  A$lcc1484049$90                    main_menu_input
     00001AF4  A$lcc1484049$91                    main_menu_input
     00001AF6  A$lcc1484049$95                    main_menu_input
     00001AF6  C$main_menu_input.c$20$5_0$173     main_menu_input
     00001AF9  A$lcc1484049$96                    main_menu_input
     00001AFA  A$lcc1484049$97                    main_menu_input
     00001AFC  A$lcc1484049$98                    main_menu_input
     00001AFD  A$lcc1484049$99                    main_menu_input
     00001AFE  A$lcc1484049$100                   main_menu_input
     00001AFF  A$lcc1484049$101                   main_menu_input
     00001B00  A$lcc1484049$103                   main_menu_input
     00001B03  A$lcc1484049$104                   main_menu_input
     00001B04  A$lcc1484049$105                   main_menu_input
     00001B05  A$lcc1484049$106                   main_menu_input
     00001B06  A$lcc1484049$107                   main_menu_input
     00001B07  A$lcc1484049$108                   main_menu_input
     00001B08  A$lcc1484049$109                   main_menu_input
     00001B09  A$lcc1484049$110                   main_menu_input
     00001B0A  A$lcc1484049$111                   main_menu_input
     00001B0B  A$lcc1484049$112                   main_menu_input
     00001B0C  A$lcc1484049$113                   main_menu_input
     00001B0D  A$lcc1484049$114                   main_menu_input
     00001B0E  A$lcc1484049$115                   main_menu_input
     00001B0F  A$lcc1484049$116                   main_menu_input
     00001B10  A$lcc1484049$117                   main_menu_input
     00001B11  A$lcc1484049$118                   main_menu_input
     00001B12  A$lcc1484049$119                   main_menu_input
     00001B13  A$lcc1484049$120                   main_menu_input
     00001B14  A$lcc1484049$121                   main_menu_input
     00001B15  A$lcc1484049$122                   main_menu_input
     00001B16  A$lcc1484049$123                   main_menu_input
     00001B17  A$lcc1484049$124                   main_menu_input
     00001B18  A$lcc1484049$125                   main_menu_input
     00001B19  A$lcc1484049$126                   main_menu_input
     00001B1A  A$lcc1484049$127                   main_menu_input
     00001B1B  A$lcc1484049$128                   main_menu_input
     00001B1C  A$lcc1484049$129                   main_menu_input
     00001B1D  A$lcc1484049$130                   main_menu_input
     00001B1E  A$lcc1484049$131                   main_menu_input
     00001B1F  A$lcc1484049$132                   main_menu_input
     00001B21  A$lcc1484049$133                   main_menu_input
     00001B24  A$lcc1484049$134                   main_menu_input
     00001B25  A$lcc1484049$135                   main_menu_input
     00001B26  A$lcc1484049$136                   main_menu_input
     00001B28  A$lcc1484049$138                   main_menu_input
     00001B29  A$lcc1484049$139                   main_menu_input
     00001B2A  A$lcc1484049$140                   main_menu_input
     00001B2B  A$lcc1484049$144                   main_menu_input
     00001B2B  C$main_menu_input.c$20$1_0$169     main_menu_input
     00001B2E  A$lcc1484049$145                   main_menu_input
ASxxxx Linker V03.00/V05.40 + sdld,  page 64.
Hexadecimal  [32-Bits]

Area                                    Addr        Size        Decimal Bytes (Attributes)
--------------------------------        ----        ----        ------- ----- ------------
_CODE                               00000200    000024E6 =        9446. bytes (REL,CON)

      Value  Global                              Global Defined In Module
      -----  --------------------------------   ------------------------
     00001B2F  A$lcc1484049$146                   main_menu_input
     00001B32  A$lcc1484049$147                   main_menu_input
     00001B33  A$lcc1484049$148                   main_menu_input
     00001B34  A$lcc1484049$149                   main_menu_input
     00001B35  A$lcc1484049$153                   main_menu_input
     00001B35  C$main_menu_input.c$18$4_0$172     main_menu_input
     00001B37  A$lcc1484049$154                   main_menu_input
     00001B38  A$lcc1484049$155                   main_menu_input
     00001B3A  A$lcc1484049$160                   main_menu_input
     00001B3A  C$main_menu_input.c$23$3_0$171     main_menu_input
     00001B3D  A$lcc1484049$161                   main_menu_input
     00001B3E  A$lcc1484049$162                   main_menu_input
     00001B41  A$lcc1484049$163                   main_menu_input
     00001B42  A$lcc1484049$164                   main_menu_input
     00001B43  A$lcc1484049$165                   main_menu_input
     00001B44  A$lcc1484049$166                   main_menu_input
     00001B45  A$lcc1484049$167                   main_menu_input
     00001B46  A$lcc1484049$168                   main_menu_input
     00001B47  A$lcc1484049$169                   main_menu_input
     00001B4A  A$lcc1484049$170                   main_menu_input
     00001B4C  A$lcc1484049$171                   main_menu_input
     00001B4D  A$lcc1484049$172                   main_menu_input
     00001B4F  A$lcc1484049$173                   main_menu_input
     00001B50  A$lcc1484049$174                   main_menu_input
     00001B51  A$lcc1484049$175                   main_menu_input
     00001B54  A$lcc1484049$180                   main_menu_input
     00001B54  C$main_menu_input.c$26$1_0$169     main_menu_input
     00001B57  A$lcc1484049$181                   main_menu_input
     00001B5A  A$lcc1484049$185                   main_menu_input
     00001B5C  A$lcc1484049$190                   main_menu_input
     00001B5C  C$main_menu_input.c$27$1_0$169     main_menu_input
     00001B5C  XG$MainMenu_CheckInput$0$0         main_menu_input
     00001B5D  A$lcc1484050$55                    main_menu_update
     00001B5D  C$main_menu_update.c$7$0_0$158     main_menu_update
     00001B5D  G$MainMenu_Update$0$0              main_menu_update
     00001B5D  _MainMenu_Update                   main_menu_update
     00001B5F  A$lcc1484050$59                    main_menu_update
     00001B5F  C$main_menu_update.c$9$1_0$158     main_menu_update
     00001B62  A$lcc1484050$60                    main_menu_update
     00001B63  A$lcc1484050$61                    main_menu_update
     00001B65  A$lcc1484050$62                    main_menu_update
     00001B66  A$lcc1484050$63                    main_menu_update
     00001B67  A$lcc1484050$68                    main_menu_update
     00001B67  C$main_menu_update.c$10$1_0$158    main_menu_update
     00001B6A  A$lcc1484050$72                    main_menu_update
     00001B6A  C$main_menu_update.c$12$2_0$159    main_menu_update
     00001B6D  A$lcc1484050$73                    main_menu_update
     00001B6E  A$lcc1484050$74                    main_menu_update
     00001B70  A$lcc1484050$75                    main_menu_update
     00001B73  A$lcc1484050$76                    main_menu_update
     00001B74  A$lcc1484050$77                    main_menu_update
ASxxxx Linker V03.00/V05.40 + sdld,  page 65.
Hexadecimal  [32-Bits]

Area                                    Addr        Size        Decimal Bytes (Attributes)
--------------------------------        ----        ----        ------- ----- ------------
_CODE                               00000200    000024E6 =        9446. bytes (REL,CON)

      Value  Global                              Global Defined In Module
      -----  --------------------------------   ------------------------
     00001B75  A$lcc1484050$78                    main_menu_update
     00001B76  A$lcc1484050$79                    main_menu_update
     00001B77  A$lcc1484050$80                    main_menu_update
     00001B7A  A$lcc1484050$84                    main_menu_update
     00001B7A  C$main_menu_update.c$14$3_0$160    main_menu_update
     00001B7B  A$lcc1484050$85                    main_menu_update
     00001B7C  A$lcc1484050$86                    main_menu_update
     00001B7D  A$lcc1484050$87                    main_menu_update
     00001B7E  A$lcc1484050$91                    main_menu_update
     00001B7E  C$main_menu_update.c$16$4_0$161    main_menu_update
     00001B81  A$lcc1484050$95                    main_menu_update
     00001B81  C$main_menu_update.c$18$5_0$162    main_menu_update
     00001B82  A$lcc1484050$96                    main_menu_update
     00001B84  A$lcc1484050$97                    main_menu_update
     00001B87  A$lcc1484050$101                   main_menu_update
     00001B87  C$main_menu_update.c$20$6_0$164    main_menu_update
     00001B89  A$lcc1484050$102                   main_menu_update
     00001B8B  A$lcc1484050$106                   main_menu_update
     00001B8B  C$main_menu_update.c$21$2_0$158    main_menu_update
     00001B8D  A$lcc1484050$108                   main_menu_update
     00001B8E  A$lcc1484050$109                   main_menu_update
     00001B90  A$lcc1484050$110                   main_menu_update
     00001B92  A$lcc1484050$114                   main_menu_update
     00001B92  C$main_menu_update.c$23$7_1$165    main_menu_update
     00001B93  A$lcc1484050$115                   main_menu_update
     00001B96  A$lcc1484050$116                   main_menu_update
     00001B97  A$lcc1484050$117                   main_menu_update
     00001B98  A$lcc1484050$118                   main_menu_update
     00001B9B  A$lcc1484050$119                   main_menu_update
     00001B9C  A$lcc1484050$120                   main_menu_update
     00001B9E  A$lcc1484050$121                   main_menu_update
     00001B9F  A$lcc1484050$122                   main_menu_update
     00001BA0  A$lcc1484050$123                   main_menu_update
     00001BA1  A$lcc1484050$124                   main_menu_update
     00001BA2  A$lcc1484050$125                   main_menu_update
     00001BA5  A$lcc1484050$126                   main_menu_update
     00001BA7  A$lcc1484050$130                   main_menu_update
     00001BA7  C$main_menu_update.c$21$6_1$164    main_menu_update
     00001BA8  A$lcc1484050$131                   main_menu_update
     00001BAA  A$lcc1484050$136                   main_menu_update
     00001BAA  C$main_menu_update.c$28$5_0$166    main_menu_update
     00001BAD  A$lcc1484050$137                   main_menu_update
     00001BAF  A$lcc1484050$141                   main_menu_update
     00001BAF  C$main_menu_update.c$30$6_0$168    main_menu_update
     00001BB1  A$lcc1484050$142                   main_menu_update
     00001BB3  A$lcc1484050$143                   main_menu_update
     00001BB4  A$lcc1484050$144                   main_menu_update
     00001BB6  A$lcc1484050$145                   main_menu_update
     00001BB7  A$lcc1484050$146                   main_menu_update
     00001BB9  A$lcc1484050$147                   main_menu_update
     00001BBA  A$lcc1484050$148                   main_menu_update
ASxxxx Linker V03.00/V05.40 + sdld,  page 66.
Hexadecimal  [32-Bits]

Area                                    Addr        Size        Decimal Bytes (Attributes)
--------------------------------        ----        ----        ------- ----- ------------
_CODE                               00000200    000024E6 =        9446. bytes (REL,CON)

      Value  Global                              Global Defined In Module
      -----  --------------------------------   ------------------------
     00001BBC  A$lcc1484050$149                   main_menu_update
     00001BBD  A$lcc1484050$150                   main_menu_update
     00001BBE  A$lcc1484050$151                   main_menu_update
     00001BC0  A$lcc1484050$152                   main_menu_update
     00001BC1  A$lcc1484050$153                   main_menu_update
     00001BC2  A$lcc1484050$154                   main_menu_update
     00001BC4  A$lcc1484050$155                   main_menu_update
     00001BC5  A$lcc1484050$156                   main_menu_update
     00001BC7  A$lcc1484050$157                   main_menu_update
     00001BC8  A$lcc1484050$158                   main_menu_update
     00001BCA  A$lcc1484050$159                   main_menu_update
     00001BCB  A$lcc1484050$160                   main_menu_update
     00001BCD  A$lcc1484050$161                   main_menu_update
     00001BCE  A$lcc1484050$162                   main_menu_update
     00001BD0  A$lcc1484050$163                   main_menu_update
     00001BD1  A$lcc1484050$167                   main_menu_update
     00001BD1  C$main_menu_update.c$33$2_0$158    main_menu_update
     00001BD4  A$lcc1484050$168                   main_menu_update
     00001BD5  A$lcc1484050$170                   main_menu_update
     00001BD6  A$lcc1484050$171                   main_menu_update
     00001BD8  A$lcc1484050$172                   main_menu_update
     00001BDA  A$lcc1484050$176                   main_menu_update
     00001BDA  C$main_menu_update.c$35$7_1$169    main_menu_update
     00001BDB  A$lcc1484050$177                   main_menu_update
     00001BDD  A$lcc1484050$178                   main_menu_update
     00001BE0  A$lcc1484050$179                   main_menu_update
     00001BE1  A$lcc1484050$180                   main_menu_update
     00001BE2  A$lcc1484050$181                   main_menu_update
     00001BE3  A$lcc1484050$182                   main_menu_update
     00001BE4  A$lcc1484050$183                   main_menu_update
     00001BE7  A$lcc1484050$184                   main_menu_update
     00001BE8  A$lcc1484050$185                   main_menu_update
     00001BE9  A$lcc1484050$186                   main_menu_update
     00001BEA  A$lcc1484050$187                   main_menu_update
     00001BEC  A$lcc1484050$191                   main_menu_update
     00001BEC  C$main_menu_update.c$36$7_1$169    main_menu_update
     00001BEE  A$lcc1484050$192                   main_menu_update
     00001BEF  A$lcc1484050$193                   main_menu_update
     00001BF0  A$lcc1484050$194                   main_menu_update
     00001BF3  A$lcc1484050$195                   main_menu_update
     00001BF4  A$lcc1484050$196                   main_menu_update
     00001BF6  A$lcc1484050$197                   main_menu_update
     00001BF7  A$lcc1484050$198                   main_menu_update
     00001BF8  A$lcc1484050$199                   main_menu_update
     00001BF9  A$lcc1484050$200                   main_menu_update
     00001BFA  A$lcc1484050$201                   main_menu_update
     00001BFD  A$lcc1484050$202                   main_menu_update
     00001BFF  A$lcc1484050$206                   main_menu_update
     00001BFF  C$main_menu_update.c$37$7_1$169    main_menu_update
     00001C00  A$lcc1484050$210                   main_menu_update
     00001C00  C$main_menu_update.c$33$6_1$168    main_menu_update
ASxxxx Linker V03.00/V05.40 + sdld,  page 67.
Hexadecimal  [32-Bits]

Area                                    Addr        Size        Decimal Bytes (Attributes)
--------------------------------        ----        ----        ------- ----- ------------
_CODE                               00000200    000024E6 =        9446. bytes (REL,CON)

      Value  Global                              Global Defined In Module
      -----  --------------------------------   ------------------------
     00001C01  A$lcc1484050$211                   main_menu_update
     00001C03  A$lcc1484050$216                   main_menu_update
     00001C05  A$lcc1484050$221                   main_menu_update
     00001C05  C$main_menu_update.c$41$2_0$158    main_menu_update
     00001C05  XG$MainMenu_Update$0$0             main_menu_update
     00001C06  A$lcc1484051$57                    clean_text
     00001C06  C$clean_text.c$7$0_0$133           clean_text
     00001C06  C$clean_text.c$9$1_0$133           clean_text
     00001C06  G$clean$0$0                        clean_text
     00001C06  _clean                             clean_text
     00001C09  A$lcc1484051$58                    clean_text
     00001C0B  A$lcc1484051$62                    clean_text
     00001C0B  C$clean_text.c$11$1_0$133          clean_text
     00001C0D  A$lcc1484051$64                    clean_text
     00001C0F  A$lcc1484051$65                    clean_text
     00001C10  A$lcc1484051$66                    clean_text
     00001C12  A$lcc1484051$70                    clean_text
     00001C12  C$clean_text.c$13$3_0$135          clean_text
     00001C15  A$lcc1484051$71                    clean_text
     00001C16  A$lcc1484051$72                    clean_text
     00001C17  A$lcc1484051$73                    clean_text
     00001C18  A$lcc1484051$74                    clean_text
     00001C1B  A$lcc1484051$75                    clean_text
     00001C1C  A$lcc1484051$76                    clean_text
     00001C1E  A$lcc1484051$77                    clean_text
     00001C1F  A$lcc1484051$78                    clean_text
     00001C20  A$lcc1484051$79                    clean_text
     00001C21  A$lcc1484051$80                    clean_text
     00001C22  A$lcc1484051$81                    clean_text
     00001C25  A$lcc1484051$82                    clean_text
     00001C27  A$lcc1484051$86                    clean_text
     00001C27  C$clean_text.c$14$3_0$135          clean_text
     00001C2A  A$lcc1484051$87                    clean_text
     00001C2B  A$lcc1484051$88                    clean_text
     00001C2D  A$lcc1484051$89                    clean_text
     00001C2E  A$lcc1484051$90                    clean_text
     00001C2F  A$lcc1484051$91                    clean_text
     00001C30  A$lcc1484051$92                    clean_text
     00001C31  A$lcc1484051$93                    clean_text
     00001C34  A$lcc1484051$94                    clean_text
     00001C36  A$lcc1484051$98                    clean_text
     00001C36  C$clean_text.c$11$2_0$134          clean_text
     00001C37  A$lcc1484051$99                    clean_text
     00001C39  A$lcc1484051$104                   clean_text
     00001C39  C$clean_text.c$17$1_0$133          clean_text
     00001C3B  A$lcc1484051$109                   clean_text
     00001C3B  C$clean_text.c$19$3_0$137          clean_text
     00001C3C  A$lcc1484051$110                   clean_text
     00001C3E  A$lcc1484051$111                   clean_text
     00001C40  A$lcc1484051$112                   clean_text
     00001C43  A$lcc1484051$113                   clean_text
ASxxxx Linker V03.00/V05.40 + sdld,  page 68.
Hexadecimal  [32-Bits]

Area                                    Addr        Size        Decimal Bytes (Attributes)
--------------------------------        ----        ----        ------- ----- ------------
_CODE                               00000200    000024E6 =        9446. bytes (REL,CON)

      Value  Global                              Global Defined In Module
      -----  --------------------------------   ------------------------
     00001C44  A$lcc1484051$114                   clean_text
     00001C46  A$lcc1484051$115                   clean_text
     00001C47  A$lcc1484051$116                   clean_text
     00001C48  A$lcc1484051$117                   clean_text
     00001C4A  A$lcc1484051$118                   clean_text
     00001C4B  A$lcc1484051$119                   clean_text
     00001C4C  A$lcc1484051$120                   clean_text
     00001C4E  A$lcc1484051$121                   clean_text
     00001C4F  A$lcc1484051$122                   clean_text
     00001C50  A$lcc1484051$123                   clean_text
     00001C51  A$lcc1484051$124                   clean_text
     00001C52  A$lcc1484051$125                   clean_text
     00001C55  A$lcc1484051$126                   clean_text
     00001C57  A$lcc1484051$130                   clean_text
     00001C57  C$clean_text.c$17$2_0$136          clean_text
     00001C58  A$lcc1484051$131                   clean_text
     00001C5A  A$lcc1484051$136                   clean_text
     00001C5A  C$clean_text.c$22$1_0$133          clean_text
     00001C5D  A$lcc1484051$137                   clean_text
     00001C5E  A$lcc1484051$138                   clean_text
     00001C61  A$lcc1484051$139                   clean_text
     00001C62  A$lcc1484051$140                   clean_text
     00001C65  A$lcc1484051$141                   clean_text
     00001C66  A$lcc1484051$142                   clean_text
     00001C69  A$lcc1484051$143                   clean_text
     00001C6B  A$lcc1484051$147                   clean_text
     00001C6B  C$clean_text.c$23$1_0$133          clean_text
     00001C6C  A$lcc1484051$148                   clean_text
     00001C6F  A$lcc1484051$149                   clean_text
     00001C70  A$lcc1484051$150                   clean_text
     00001C73  A$lcc1484051$151                   clean_text
     00001C74  A$lcc1484051$152                   clean_text
     00001C77  A$lcc1484051$153                   clean_text
     00001C79  A$lcc1484051$161                   clean_text
     00001C79  C$clean_text.c$24$1_0$133          clean_text
     00001C79  XG$clean$0$0                       clean_text
     00001C7A  G$empty_tile$0_0$0                 clean_text
     00001C7A  _empty_tile                        clean_text
     00001C7B  A$lcc1484052$53                    map_collision
     00001C7B  C$map_collision.c$12$0_0$135       map_collision
     00001C7B  Fmap_collision$get_tile$0$0        map_collision
     00001C7D  A$lcc1484052$54                    map_collision
     00001C7F  A$lcc1484052$55                    map_collision
     00001C80  A$lcc1484052$56                    map_collision
     00001C81  A$lcc1484052$57                    map_collision
     00001C82  A$lcc1484052$61                    map_collision
     00001C82  C$map_collision.c$14$1_0$135       map_collision
     00001C85  A$lcc1484052$62                    map_collision
     00001C86  A$lcc1484052$63                    map_collision
     00001C87  A$lcc1484052$64                    map_collision
     00001C88  A$lcc1484052$65                    map_collision
ASxxxx Linker V03.00/V05.40 + sdld,  page 69.
Hexadecimal  [32-Bits]

Area                                    Addr        Size        Decimal Bytes (Attributes)
--------------------------------        ----        ----        ------- ----- ------------
_CODE                               00000200    000024E6 =        9446. bytes (REL,CON)

      Value  Global                              Global Defined In Module
      -----  --------------------------------   ------------------------
     00001C89  A$lcc1484052$66                    map_collision
     00001C8B  A$lcc1484052$67                    map_collision
     00001C8C  A$lcc1484052$68                    map_collision
     00001C8D  A$lcc1484052$69                    map_collision
     00001C8E  A$lcc1484052$70                    map_collision
     00001C8F  A$lcc1484052$71                    map_collision
     00001C91  A$lcc1484052$72                    map_collision
     00001C92  A$lcc1484052$73                    map_collision
     00001C93  A$lcc1484052$74                    map_collision
     00001C94  A$lcc1484052$75                    map_collision
     00001C95  A$lcc1484052$76                    map_collision
     00001C96  A$lcc1484052$77                    map_collision
     00001C97  A$lcc1484052$78                    map_collision
     00001C98  A$lcc1484052$79                    map_collision
     00001C99  A$lcc1484052$80                    map_collision
     00001C9A  A$lcc1484052$81                    map_collision
     00001C9B  A$lcc1484052$82                    map_collision
     00001C9C  A$lcc1484052$83                    map_collision
     00001C9D  A$lcc1484052$84                    map_collision
     00001C9F  A$lcc1484052$85                    map_collision
     00001CA0  A$lcc1484052$86                    map_collision
     00001CA1  A$lcc1484052$87                    map_collision
     00001CA2  A$lcc1484052$88                    map_collision
     00001CA3  A$lcc1484052$89                    map_collision
     00001CA4  A$lcc1484052$90                    map_collision
     00001CA5  A$lcc1484052$91                    map_collision
     00001CA6  A$lcc1484052$92                    map_collision
     00001CA7  A$lcc1484052$93                    map_collision
     00001CA8  A$lcc1484052$94                    map_collision
     00001CA9  A$lcc1484052$95                    map_collision
     00001CAA  A$lcc1484052$96                    map_collision
     00001CAB  A$lcc1484052$97                    map_collision
     00001CAC  A$lcc1484052$98                    map_collision
     00001CAD  A$lcc1484052$99                    map_collision
     00001CAE  A$lcc1484052$100                   map_collision
     00001CAF  A$lcc1484052$101                   map_collision
     00001CB0  A$lcc1484052$105                   map_collision
     00001CB0  C$map_collision.c$15$1_0$135       map_collision
     00001CB2  A$lcc1484052$106                   map_collision
     00001CB3  A$lcc1484052$107                   map_collision
     00001CB4  A$lcc1484052$108                   map_collision
     00001CB5  A$lcc1484052$118                   map_collision
     00001CB5  C$map_collision.c$18$1_0$137       map_collision
     00001CB5  G$Map_Collision$0$0                map_collision
     00001CB5  _Map_Collision                     map_collision
     00001CB7  A$lcc1484052$122                   map_collision
     00001CB7  C$map_collision.c$20$1_0$137       map_collision
     00001CBA  A$lcc1484052$123                   map_collision
     00001CBB  A$lcc1484052$124                   map_collision
     00001CBC  A$lcc1484052$125                   map_collision
     00001CBD  A$lcc1484052$126                   map_collision
ASxxxx Linker V03.00/V05.40 + sdld,  page 70.
Hexadecimal  [32-Bits]

Area                                    Addr        Size        Decimal Bytes (Attributes)
--------------------------------        ----        ----        ------- ----- ------------
_CODE                               00000200    000024E6 =        9446. bytes (REL,CON)

      Value  Global                              Global Defined In Module
      -----  --------------------------------   ------------------------
     00001CBF  A$lcc1484052$127                   map_collision
     00001CC0  A$lcc1484052$128                   map_collision
     00001CC1  A$lcc1484052$132                   map_collision
     00001CC1  C$map_collision.c$21$1_0$137       map_collision
     00001CC2  A$lcc1484052$133                   map_collision
     00001CC3  A$lcc1484052$134                   map_collision
     00001CC4  A$lcc1484052$135                   map_collision
     00001CC5  A$lcc1484052$136                   map_collision
     00001CC6  A$lcc1484052$137                   map_collision
     00001CC7  A$lcc1484052$141                   map_collision
     00001CC7  C$map_collision.c$29$1_0$137       map_collision
     00001CCA  A$lcc1484052$142                   map_collision
     00001CCC  A$lcc1484052$143                   map_collision
     00001CCD  A$lcc1484052$144                   map_collision
     00001CCE  A$lcc1484052$145                   map_collision
     00001CD0  A$lcc1484052$146                   map_collision
     00001CD1  A$lcc1484052$147                   map_collision
     00001CD3  A$lcc1484052$148                   map_collision
     00001CD5  A$lcc1484052$149                   map_collision
     00001CD6  A$lcc1484052$153                   map_collision
     00001CD6  C$map_collision.c$30$1_0$137       map_collision
     00001CD9  A$lcc1484052$154                   map_collision
     00001CDB  A$lcc1484052$155                   map_collision
     00001CDC  A$lcc1484052$156                   map_collision
     00001CDD  A$lcc1484052$157                   map_collision
     00001CDF  A$lcc1484052$158                   map_collision
     00001CE0  A$lcc1484052$159                   map_collision
     00001CE2  A$lcc1484052$160                   map_collision
     00001CE3  A$lcc1484052$164                   map_collision
     00001CE3  C$map_collision.c$35$1_0$137       map_collision
     00001CE4  A$lcc1484052$165                   map_collision
     00001CE5  A$lcc1484052$166                   map_collision
     00001CE8  A$lcc1484052$167                   map_collision
     00001CE9  A$lcc1484052$168                   map_collision
     00001CEA  A$lcc1484052$169                   map_collision
     00001CEB  A$lcc1484052$170                   map_collision
     00001CED  A$lcc1484052$171                   map_collision
     00001CEE  A$lcc1484052$172                   map_collision
     00001CEF  A$lcc1484052$173                   map_collision
     00001CF0  A$lcc1484052$174                   map_collision
     00001CF2  A$lcc1484052$175                   map_collision
     00001CF3  A$lcc1484052$176                   map_collision
     00001CF4  A$lcc1484052$177                   map_collision
     00001CF5  A$lcc1484052$178                   map_collision
     00001CF6  A$lcc1484052$179                   map_collision
     00001CF7  A$lcc1484052$180                   map_collision
     00001CF9  A$lcc1484052$181                   map_collision
     00001CFA  A$lcc1484052$182                   map_collision
     00001CFB  A$lcc1484052$183                   map_collision
     00001CFC  A$lcc1484052$184                   map_collision
     00001CFD  A$lcc1484052$185                   map_collision
ASxxxx Linker V03.00/V05.40 + sdld,  page 71.
Hexadecimal  [32-Bits]

Area                                    Addr        Size        Decimal Bytes (Attributes)
--------------------------------        ----        ----        ------- ----- ------------
_CODE                               00000200    000024E6 =        9446. bytes (REL,CON)

      Value  Global                              Global Defined In Module
      -----  --------------------------------   ------------------------
     00001CFF  A$lcc1484052$186                   map_collision
     00001D00  A$lcc1484052$187                   map_collision
     00001D01  A$lcc1484052$188                   map_collision
     00001D02  A$lcc1484052$189                   map_collision
     00001D03  A$lcc1484052$190                   map_collision
     00001D04  A$lcc1484052$191                   map_collision
     00001D05  A$lcc1484052$192                   map_collision
     00001D06  A$lcc1484052$193                   map_collision
     00001D07  A$lcc1484052$194                   map_collision
     00001D08  A$lcc1484052$195                   map_collision
     00001D0A  A$lcc1484052$196                   map_collision
     00001D0B  A$lcc1484052$197                   map_collision
     00001D0C  A$lcc1484052$198                   map_collision
     00001D0D  A$lcc1484052$199                   map_collision
     00001D0F  A$lcc1484052$200                   map_collision
     00001D10  A$lcc1484052$201                   map_collision
     00001D11  A$lcc1484052$202                   map_collision
     00001D12  A$lcc1484052$203                   map_collision
     00001D13  A$lcc1484052$204                   map_collision
     00001D15  A$lcc1484052$205                   map_collision
     00001D16  A$lcc1484052$206                   map_collision
     00001D17  A$lcc1484052$207                   map_collision
     00001D18  A$lcc1484052$208                   map_collision
     00001D19  A$lcc1484052$209                   map_collision
     00001D1A  A$lcc1484052$210                   map_collision
     00001D1B  A$lcc1484052$211                   map_collision
     00001D1D  A$lcc1484052$212                   map_collision
     00001D1E  A$lcc1484052$213                   map_collision
     00001D1F  A$lcc1484052$214                   map_collision
     00001D20  A$lcc1484052$215                   map_collision
     00001D22  A$lcc1484052$216                   map_collision
     00001D23  A$lcc1484052$217                   map_collision
     00001D24  A$lcc1484052$218                   map_collision
     00001D25  A$lcc1484052$219                   map_collision
     00001D27  A$lcc1484052$220                   map_collision
     00001D29  A$lcc1484052$221                   map_collision
     00001D2A  A$lcc1484052$223                   map_collision
     00001D2C  A$lcc1484052$224                   map_collision
     00001D2F  A$lcc1484052$228                   map_collision
     00001D2F  C$map_collision.c$36$1_0$137       map_collision
     00001D31  A$lcc1484052$229                   map_collision
     00001D32  A$lcc1484052$230                   map_collision
     00001D33  A$lcc1484052$231                   map_collision
     00001D34  A$lcc1484052$232                   map_collision
     00001D35  A$lcc1484052$233                   map_collision
     00001D37  A$lcc1484052$234                   map_collision
     00001D38  A$lcc1484052$235                   map_collision
     00001D39  A$lcc1484052$236                   map_collision
     00001D3A  A$lcc1484052$237                   map_collision
     00001D3B  A$lcc1484052$238                   map_collision
     00001D3C  A$lcc1484052$239                   map_collision
ASxxxx Linker V03.00/V05.40 + sdld,  page 72.
Hexadecimal  [32-Bits]

Area                                    Addr        Size        Decimal Bytes (Attributes)
--------------------------------        ----        ----        ------- ----- ------------
_CODE                               00000200    000024E6 =        9446. bytes (REL,CON)

      Value  Global                              Global Defined In Module
      -----  --------------------------------   ------------------------
     00001D3D  A$lcc1484052$240                   map_collision
     00001D3E  A$lcc1484052$241                   map_collision
     00001D40  A$lcc1484052$242                   map_collision
     00001D41  A$lcc1484052$243                   map_collision
     00001D42  A$lcc1484052$244                   map_collision
     00001D43  A$lcc1484052$245                   map_collision
     00001D44  A$lcc1484052$246                   map_collision
     00001D45  A$lcc1484052$247                   map_collision
     00001D46  A$lcc1484052$248                   map_collision
     00001D47  A$lcc1484052$249                   map_collision
     00001D48  A$lcc1484052$250                   map_collision
     00001D4A  A$lcc1484052$251                   map_collision
     00001D4B  A$lcc1484052$252                   map_collision
     00001D4C  A$lcc1484052$253                   map_collision
     00001D4D  A$lcc1484052$254                   map_collision
     00001D4F  A$lcc1484052$255                   map_collision
     00001D51  A$lcc1484052$256                   map_collision
     00001D52  A$lcc1484052$258                   map_collision
     00001D54  A$lcc1484052$259                   map_collision
     00001D57  A$lcc1484052$263                   map_collision
     00001D57  C$map_collision.c$37$1_0$137       map_collision
     00001D59  A$lcc1484052$264                   map_collision
     00001D5A  A$lcc1484052$265                   map_collision
     00001D5B  A$lcc1484052$266                   map_collision
     00001D5C  A$lcc1484052$267                   map_collision
     00001D5D  A$lcc1484052$268                   map_collision
     00001D5F  A$lcc1484052$269                   map_collision
     00001D60  A$lcc1484052$270                   map_collision
     00001D61  A$lcc1484052$271                   map_collision
     00001D62  A$lcc1484052$272                   map_collision
     00001D63  A$lcc1484052$273                   map_collision
     00001D64  A$lcc1484052$274                   map_collision
     00001D65  A$lcc1484052$275                   map_collision
     00001D66  A$lcc1484052$276                   map_collision
     00001D67  A$lcc1484052$277                   map_collision
     00001D68  A$lcc1484052$278                   map_collision
     00001D69  A$lcc1484052$279                   map_collision
     00001D6A  A$lcc1484052$280                   map_collision
     00001D6B  A$lcc1484052$281                   map_collision
     00001D6C  A$lcc1484052$282                   map_collision
     00001D6D  A$lcc1484052$283                   map_collision
     00001D6E  A$lcc1484052$284                   map_collision
     00001D6F  A$lcc1484052$285                   map_collision
     00001D70  A$lcc1484052$286                   map_collision
     00001D71  A$lcc1484052$287                   map_collision
     00001D72  A$lcc1484052$288                   map_collision
     00001D73  A$lcc1484052$289                   map_collision
     00001D74  A$lcc1484052$290                   map_collision
     00001D76  A$lcc1484052$291                   map_collision
     00001D77  A$lcc1484052$292                   map_collision
     00001D78  A$lcc1484052$293                   map_collision
ASxxxx Linker V03.00/V05.40 + sdld,  page 73.
Hexadecimal  [32-Bits]

Area                                    Addr        Size        Decimal Bytes (Attributes)
--------------------------------        ----        ----        ------- ----- ------------
_CODE                               00000200    000024E6 =        9446. bytes (REL,CON)

      Value  Global                              Global Defined In Module
      -----  --------------------------------   ------------------------
     00001D79  A$lcc1484052$294                   map_collision
     00001D7A  A$lcc1484052$295                   map_collision
     00001D7B  A$lcc1484052$296                   map_collision
     00001D7C  A$lcc1484052$297                   map_collision
     00001D7E  A$lcc1484052$298                   map_collision
     00001D7F  A$lcc1484052$299                   map_collision
     00001D81  A$lcc1484052$300                   map_collision
     00001D82  A$lcc1484052$301                   map_collision
     00001D83  A$lcc1484052$302                   map_collision
     00001D84  A$lcc1484052$303                   map_collision
     00001D85  A$lcc1484052$304                   map_collision
     00001D86  A$lcc1484052$305                   map_collision
     00001D88  A$lcc1484052$306                   map_collision
     00001D8A  A$lcc1484052$307                   map_collision
     00001D8B  A$lcc1484052$309                   map_collision
     00001D8D  A$lcc1484052$310                   map_collision
     00001D90  A$lcc1484052$314                   map_collision
     00001D90  C$map_collision.c$38$1_0$137       map_collision
     00001D92  A$lcc1484052$315                   map_collision
     00001D93  A$lcc1484052$316                   map_collision
     00001D94  A$lcc1484052$317                   map_collision
     00001D95  A$lcc1484052$318                   map_collision
     00001D96  A$lcc1484052$319                   map_collision
     00001D97  A$lcc1484052$320                   map_collision
     00001D98  A$lcc1484052$321                   map_collision
     00001D99  A$lcc1484052$322                   map_collision
     00001D9A  A$lcc1484052$323                   map_collision
     00001D9C  A$lcc1484052$324                   map_collision
     00001D9D  A$lcc1484052$325                   map_collision
     00001D9F  A$lcc1484052$326                   map_collision
     00001DA0  A$lcc1484052$327                   map_collision
     00001DA1  A$lcc1484052$328                   map_collision
     00001DA2  A$lcc1484052$329                   map_collision
     00001DA3  A$lcc1484052$330                   map_collision
     00001DA4  A$lcc1484052$331                   map_collision
     00001DA5  A$lcc1484052$332                   map_collision
     00001DA6  A$lcc1484052$333                   map_collision
     00001DA7  A$lcc1484052$334                   map_collision
     00001DA8  A$lcc1484052$335                   map_collision
     00001DA9  A$lcc1484052$336                   map_collision
     00001DAA  A$lcc1484052$337                   map_collision
     00001DAB  A$lcc1484052$338                   map_collision
     00001DAD  A$lcc1484052$339                   map_collision
     00001DAE  A$lcc1484052$340                   map_collision
     00001DB0  A$lcc1484052$341                   map_collision
     00001DB1  A$lcc1484052$342                   map_collision
     00001DB2  A$lcc1484052$343                   map_collision
     00001DB3  A$lcc1484052$344                   map_collision
     00001DB4  A$lcc1484052$345                   map_collision
     00001DB5  A$lcc1484052$346                   map_collision
     00001DB7  A$lcc1484052$347                   map_collision
ASxxxx Linker V03.00/V05.40 + sdld,  page 74.
Hexadecimal  [32-Bits]

Area                                    Addr        Size        Decimal Bytes (Attributes)
--------------------------------        ----        ----        ------- ----- ------------
_CODE                               00000200    000024E6 =        9446. bytes (REL,CON)

      Value  Global                              Global Defined In Module
      -----  --------------------------------   ------------------------
     00001DB9  A$lcc1484052$348                   map_collision
     00001DBA  A$lcc1484052$350                   map_collision
     00001DBC  A$lcc1484052$351                   map_collision
     00001DBF  A$lcc1484052$355                   map_collision
     00001DBF  C$map_collision.c$44$2_0$138       map_collision
     00001DC1  A$lcc1484052$356                   map_collision
     00001DC2  A$lcc1484052$357                   map_collision
     00001DC3  A$lcc1484052$358                   map_collision
     00001DC4  A$lcc1484052$359                   map_collision
     00001DC5  A$lcc1484052$360                   map_collision
     00001DC6  A$lcc1484052$361                   map_collision
     00001DC7  A$lcc1484052$362                   map_collision
     00001DC8  A$lcc1484052$363                   map_collision
     00001DC9  A$lcc1484052$364                   map_collision
     00001DCA  A$lcc1484052$365                   map_collision
     00001DCB  A$lcc1484052$366                   map_collision
     00001DCC  A$lcc1484052$367                   map_collision
     00001DCD  A$lcc1484052$368                   map_collision
     00001DCE  A$lcc1484052$369                   map_collision
     00001DCF  A$lcc1484052$370                   map_collision
     00001DD0  A$lcc1484052$371                   map_collision
     00001DD2  A$lcc1484052$372                   map_collision
     00001DD3  A$lcc1484052$373                   map_collision
     00001DD5  A$lcc1484052$374                   map_collision
     00001DD6  A$lcc1484052$375                   map_collision
     00001DD7  A$lcc1484052$376                   map_collision
     00001DD8  A$lcc1484052$377                   map_collision
     00001DD9  A$lcc1484052$378                   map_collision
     00001DDA  A$lcc1484052$379                   map_collision
     00001DDC  A$lcc1484052$380                   map_collision
     00001DDE  A$lcc1484052$381                   map_collision
     00001DDF  A$lcc1484052$383                   map_collision
     00001DE0  A$lcc1484052$384                   map_collision
     00001DE3  A$lcc1484052$385                   map_collision
     00001DE4  A$lcc1484052$386                   map_collision
     00001DE6  A$lcc1484052$387                   map_collision
     00001DE8  A$lcc1484052$388                   map_collision
     00001DE9  A$lcc1484052$390                   map_collision
     00001DEA  A$lcc1484052$391                   map_collision
     00001DEC  A$lcc1484052$395                   map_collision
     00001DEC  C$map_collision.c$46$3_0$139       map_collision
     00001DEF  A$lcc1484052$400                   map_collision
     00001DEF  C$map_collision.c$49$2_0$140       map_collision
     00001DF1  A$lcc1484052$401                   map_collision
     00001DF2  A$lcc1484052$402                   map_collision
     00001DF3  A$lcc1484052$403                   map_collision
     00001DF4  A$lcc1484052$404                   map_collision
     00001DF5  A$lcc1484052$405                   map_collision
     00001DF6  A$lcc1484052$406                   map_collision
     00001DF7  A$lcc1484052$407                   map_collision
     00001DF8  A$lcc1484052$408                   map_collision
ASxxxx Linker V03.00/V05.40 + sdld,  page 75.
Hexadecimal  [32-Bits]

Area                                    Addr        Size        Decimal Bytes (Attributes)
--------------------------------        ----        ----        ------- ----- ------------
_CODE                               00000200    000024E6 =        9446. bytes (REL,CON)

      Value  Global                              Global Defined In Module
      -----  --------------------------------   ------------------------
     00001DF9  A$lcc1484052$409                   map_collision
     00001DFA  A$lcc1484052$410                   map_collision
     00001DFB  A$lcc1484052$411                   map_collision
     00001DFC  A$lcc1484052$412                   map_collision
     00001DFD  A$lcc1484052$413                   map_collision
     00001DFE  A$lcc1484052$414                   map_collision
     00001DFF  A$lcc1484052$415                   map_collision
     00001E00  A$lcc1484052$416                   map_collision
     00001E02  A$lcc1484052$417                   map_collision
     00001E03  A$lcc1484052$418                   map_collision
     00001E05  A$lcc1484052$419                   map_collision
     00001E06  A$lcc1484052$420                   map_collision
     00001E07  A$lcc1484052$421                   map_collision
     00001E08  A$lcc1484052$422                   map_collision
     00001E09  A$lcc1484052$423                   map_collision
     00001E0A  A$lcc1484052$424                   map_collision
     00001E0C  A$lcc1484052$431                   map_collision
     00001E0C  C$map_collision.c$51$3_0$141       map_collision
     00001E0C  C$map_collision.c$52$3_0$141       map_collision
     00001E0D  A$lcc1484052$432                   map_collision
     00001E0E  A$lcc1484052$433                   map_collision
     00001E0F  A$lcc1484052$437                   map_collision
     00001E0F  C$map_collision.c$54$4_0$142       map_collision
     00001E10  A$lcc1484052$438                   map_collision
     00001E11  A$lcc1484052$439                   map_collision
     00001E14  A$lcc1484052$440                   map_collision
     00001E15  A$lcc1484052$441                   map_collision
     00001E16  A$lcc1484052$442                   map_collision
     00001E17  A$lcc1484052$443                   map_collision
     00001E18  A$lcc1484052$444                   map_collision
     00001E19  A$lcc1484052$445                   map_collision
     00001E1A  A$lcc1484052$446                   map_collision
     00001E1B  A$lcc1484052$447                   map_collision
     00001E1D  A$lcc1484052$448                   map_collision
     00001E1F  A$lcc1484052$452                   map_collision
     00001E1F  C$map_collision.c$55$4_0$142       map_collision
     00001E21  A$lcc1484052$456                   map_collision
     00001E21  C$map_collision.c$57$4_0$143       map_collision
     00001E22  A$lcc1484052$457                   map_collision
     00001E23  A$lcc1484052$458                   map_collision
     00001E26  A$lcc1484052$459                   map_collision
     00001E27  A$lcc1484052$460                   map_collision
     00001E28  A$lcc1484052$461                   map_collision
     00001E29  A$lcc1484052$462                   map_collision
     00001E2A  A$lcc1484052$463                   map_collision
     00001E2B  A$lcc1484052$464                   map_collision
     00001E2C  A$lcc1484052$465                   map_collision
     00001E2E  A$lcc1484052$466                   map_collision
     00001E2F  A$lcc1484052$467                   map_collision
     00001E30  A$lcc1484052$468                   map_collision
     00001E31  A$lcc1484052$469                   map_collision
ASxxxx Linker V03.00/V05.40 + sdld,  page 76.
Hexadecimal  [32-Bits]

Area                                    Addr        Size        Decimal Bytes (Attributes)
--------------------------------        ----        ----        ------- ----- ------------
_CODE                               00000200    000024E6 =        9446. bytes (REL,CON)

      Value  Global                              Global Defined In Module
      -----  --------------------------------   ------------------------
     00001E32  A$lcc1484052$470                   map_collision
     00001E33  A$lcc1484052$471                   map_collision
     00001E34  A$lcc1484052$475                   map_collision
     00001E34  C$map_collision.c$58$4_0$143       map_collision
     00001E36  A$lcc1484052$479                   map_collision
     00001E36  C$map_collision.c$60$3_0$141       map_collision
     00001E37  A$lcc1484052$480                   map_collision
     00001E38  A$lcc1484052$481                   map_collision
     00001E3B  A$lcc1484052$486                   map_collision
     00001E3D  A$lcc1484052$491                   map_collision
     00001E3D  C$map_collision.c$62$2_0$137       map_collision
     00001E3D  XG$Map_Collision$0$0               map_collision
     00001E3E  A$lcc1484054$61                    map_00
     00001E3E  C$map_00.c$6$0_0$34                map_00
     00001E3E  C$map_00.c$7$1_0$34                map_00
     00001E3E  G$Map_00_Create$0$0                map_00
     00001E3E  _Map_00_Create                     map_00
     00001E41  A$lcc1484054$62                    map_00
     00001E43  A$lcc1484054$63                    map_00
     00001E44  A$lcc1484054$64                    map_00
     00001E46  A$lcc1484054$68                    map_00
     00001E46  C$map_00.c$8$1_0$34                map_00
     00001E47  A$lcc1484054$69                    map_00
     00001E49  A$lcc1484054$70                    map_00
     00001E4A  A$lcc1484054$71                    map_00
     00001E4C  A$lcc1484054$75                    map_00
     00001E4C  C$map_00.c$10$1_0$34               map_00
     00001E4F  A$lcc1484054$76                    map_00
     00001E50  A$lcc1484054$77                    map_00
     00001E51  A$lcc1484054$78                    map_00
     00001E52  A$lcc1484054$86                    map_00
     00001E52  C$map_00.c$11$1_0$34               map_00
     00001E52  XG$Map_00_Create$0$0               map_00
     00001E53  G$map_00_example_collision$0_0$0   map_00_collision
     00001E53  _map_00_example_collision          map_00_collision
     00001FBB  A$lcc1484056$61                    map_00_init
     00001FBB  C$map_00_init.c$20$0_0$166         map_00_init
     00001FBB  C$map_00_init.c$22$2_0$167         map_00_init
     00001FBB  G$hello_event$0$0                  map_00_init
     00001FBB  _hello_event                       map_00_init
     00001FBE  A$lcc1484056$62                    map_00_init
     00001FBF  A$lcc1484056$63                    map_00_init
     00001FC0  A$lcc1484056$64                    map_00_init
     00001FC1  A$lcc1484056$71                    map_00_init
     00001FC1  C$map_00_init.c$23$2_0$167         map_00_init
     00001FC1  C$map_00_init.c$25$1_0$166         map_00_init
     00001FC3  A$lcc1484056$72                    map_00_init
     00001FC4  A$lcc1484056$76                    map_00_init
     00001FC4  C$map_00_init.c$26$1_0$166         map_00_init
     00001FC6  A$lcc1484056$77                    map_00_init
     00001FC7  A$lcc1484056$78                    map_00_init
ASxxxx Linker V03.00/V05.40 + sdld,  page 77.
Hexadecimal  [32-Bits]

Area                                    Addr        Size        Decimal Bytes (Attributes)
--------------------------------        ----        ----        ------- ----- ------------
_CODE                               00000200    000024E6 =        9446. bytes (REL,CON)

      Value  Global                              Global Defined In Module
      -----  --------------------------------   ------------------------
     00001FC8  A$lcc1484056$79                    map_00_init
     00001FC9  A$lcc1484056$80                    map_00_init
     00001FCA  A$lcc1484056$81                    map_00_init
     00001FCB  A$lcc1484056$82                    map_00_init
     00001FCD  A$lcc1484056$83                    map_00_init
     00001FD0  A$lcc1484056$84                    map_00_init
     00001FD3  A$lcc1484056$92                    map_00_init
     00001FD3  C$map_00_init.c$27$1_0$166         map_00_init
     00001FD3  XG$hello_event$0$0                 map_00_init
     00001FD4  A$lcc1484056$102                   map_00_init
     00001FD4  C$map_00_init.c$29$1_0$169         map_00_init
     00001FD4  G$Map_00_Init$0$0                  map_00_init
     00001FD4  _Map_00_Init                       map_00_init
     00001FD5  A$lcc1484056$103                   map_00_init
     00001FD6  A$lcc1484056$104                   map_00_init
     00001FD7  A$lcc1484056$108                   map_00_init
     00001FD7  C$map_00_init.c$31$1_0$169         map_00_init
     00001FDA  A$lcc1484056$109                   map_00_init
     00001FDC  A$lcc1484056$110                   map_00_init
     00001FDD  A$lcc1484056$111                   map_00_init
     00001FDF  A$lcc1484056$112                   map_00_init
     00001FE1  A$lcc1484056$113                   map_00_init
     00001FE2  A$lcc1484056$114                   map_00_init
     00001FE5  A$lcc1484056$115                   map_00_init
     00001FE6  A$lcc1484056$119                   map_00_init
     00001FE6  C$map_00_init.c$32$1_0$169         map_00_init
     00001FE9  A$lcc1484056$120                   map_00_init
     00001FEA  A$lcc1484056$124                   map_00_init
     00001FEA  C$map_00_init.c$33$1_0$169         map_00_init
     00001FED  A$lcc1484056$125                   map_00_init
     00001FEF  A$lcc1484056$126                   map_00_init
     00001FF0  A$lcc1484056$127                   map_00_init
     00001FF2  A$lcc1484056$131                   map_00_init
     00001FF2  C$map_00_init.c$34$1_0$169         map_00_init
     00001FF5  A$lcc1484056$132                   map_00_init
     00001FF7  A$lcc1484056$136                   map_00_init
     00001FF7  C$map_00_init.c$35$1_0$169         map_00_init
     00001FF8  A$lcc1484056$137                   map_00_init
     00001FF9  A$lcc1484056$138                   map_00_init
     00001FFB  A$lcc1484056$142                   map_00_init
     00001FFB  C$map_00_init.c$37$1_0$169         map_00_init
     00001FFE  A$lcc1484056$143                   map_00_init
     00002000  A$lcc1484056$147                   map_00_init
     00002000  C$map_00_init.c$38$1_0$169         map_00_init
     00002003  A$lcc1484056$148                   map_00_init
     00002005  A$lcc1484056$149                   map_00_init
     00002006  A$lcc1484056$150                   map_00_init
     00002008  A$lcc1484056$154                   map_00_init
     00002008  C$map_00_init.c$39$1_0$169         map_00_init
     0000200B  A$lcc1484056$155                   map_00_init
     0000200D  A$lcc1484056$159                   map_00_init
ASxxxx Linker V03.00/V05.40 + sdld,  page 78.
Hexadecimal  [32-Bits]

Area                                    Addr        Size        Decimal Bytes (Attributes)
--------------------------------        ----        ----        ------- ----- ------------
_CODE                               00000200    000024E6 =        9446. bytes (REL,CON)

      Value  Global                              Global Defined In Module
      -----  --------------------------------   ------------------------
     0000200D  C$map_00_init.c$41$1_0$169         map_00_init
     00002010  A$lcc1484056$160                   map_00_init
     00002011  A$lcc1484056$161                   map_00_init
     00002013  A$lcc1484056$162                   map_00_init
     00002014  A$lcc1484056$163                   map_00_init
     00002016  A$lcc1484056$167                   map_00_init
     00002016  C$map_00_init.c$42$1_0$169         map_00_init
     00002017  A$lcc1484056$168                   map_00_init
     00002018  A$lcc1484056$169                   map_00_init
     0000201B  A$lcc1484056$173                   map_00_init
     0000201B  C$map_00_init.c$43$1_0$169         map_00_init
     0000201E  A$lcc1484056$177                   map_00_init
     0000201E  C$map_00_init.c$45$2_0$170         map_00_init
     00002020  A$lcc1484056$178                   map_00_init
     00002021  A$lcc1484056$182                   map_00_init
     00002021  C$map_00_init.c$46$1_1$170         map_00_init
     00002023  A$lcc1484056$183                   map_00_init
     00002025  A$lcc1484056$184                   map_00_init
     00002028  A$lcc1484056$185                   map_00_init
     0000202A  A$lcc1484056$189                   map_00_init
     0000202A  C$map_00_init.c$48$1_1$170         map_00_init
     0000202D  A$lcc1484056$190                   map_00_init
     0000202E  A$lcc1484056$191                   map_00_init
     00002031  A$lcc1484056$192                   map_00_init
     00002032  A$lcc1484056$193                   map_00_init
     00002035  A$lcc1484056$194                   map_00_init
     00002037  A$lcc1484056$198                   map_00_init
     00002037  C$map_00_init.c$49$1_1$170         map_00_init
     0000203A  A$lcc1484056$199                   map_00_init
     0000203B  A$lcc1484056$200                   map_00_init
     0000203E  A$lcc1484056$201                   map_00_init
     0000203F  A$lcc1484056$202                   map_00_init
     00002040  A$lcc1484056$203                   map_00_init
     00002041  A$lcc1484056$204                   map_00_init
     00002042  A$lcc1484056$205                   map_00_init
     00002045  A$lcc1484056$206                   map_00_init
     00002047  A$lcc1484056$210                   map_00_init
     00002047  C$map_00_init.c$51$1_1$170         map_00_init
     00002048  A$lcc1484056$211                   map_00_init
     0000204A  A$lcc1484056$212                   map_00_init
     0000204D  A$lcc1484056$213                   map_00_init
     0000204E  A$lcc1484056$221                   map_00_init
     0000204E  C$map_00_init.c$52$1_1$169         map_00_init
     0000204E  XG$Map_00_Init$0$0                 map_00_init
     0000204F  A$lcc1484057$56                    map_00_init_dialogues
     0000204F  C$map_00_init_dialogues.c$11$1_0   map_00_init_dialogues
     0000204F  C$map_00_init_dialogues.c$9$0_0$   map_00_init_dialogues
     0000204F  G$Map_00_InitDialogues$0$0         map_00_init_dialogues
     0000204F  _Map_00_InitDialogues              map_00_init_dialogues
     00002052  A$lcc1484057$57                    map_00_init_dialogues
     00002054  A$lcc1484057$58                    map_00_init_dialogues
ASxxxx Linker V03.00/V05.40 + sdld,  page 79.
Hexadecimal  [32-Bits]

Area                                    Addr        Size        Decimal Bytes (Attributes)
--------------------------------        ----        ----        ------- ----- ------------
_CODE                               00000200    000024E6 =        9446. bytes (REL,CON)

      Value  Global                              Global Defined In Module
      -----  --------------------------------   ------------------------
     00002055  A$lcc1484057$59                    map_00_init_dialogues
     00002057  A$lcc1484057$67                    map_00_init_dialogues
     00002057  C$map_00_init_dialogues.c$12$1_0   map_00_init_dialogues
     00002057  XG$Map_00_InitDialogues$0$0        map_00_init_dialogues
     00002058  G$dialogue_00$0_0$0                map_00_init_dialogues
     00002058  _dialogue_00                       map_00_init_dialogues
     0000219C  A$lcc1484058$53                    map_00_init_npc
     0000219C  C$map_00_init_npc.c$12$0_0$165     map_00_init_npc
     0000219C  G$Map_00_NPC_Init$0$0              map_00_init_npc
     0000219C  _Map_00_NPC_Init                   map_00_init_npc
     0000219E  A$lcc1484058$57                    map_00_init_npc
     0000219E  C$map_00_init_npc.c$14$1_0$165     map_00_init_npc
     000021A1  A$lcc1484058$58                    map_00_init_npc
     000021A2  A$lcc1484058$59                    map_00_init_npc
     000021A4  A$lcc1484058$60                    map_00_init_npc
     000021A7  A$lcc1484058$61                    map_00_init_npc
     000021A8  A$lcc1484058$62                    map_00_init_npc
     000021AA  A$lcc1484058$66                    map_00_init_npc
     000021AA  C$map_00_init_npc.c$15$1_0$165     map_00_init_npc
     000021AD  A$lcc1484058$67                    map_00_init_npc
     000021AE  A$lcc1484058$68                    map_00_init_npc
     000021B0  A$lcc1484058$69                    map_00_init_npc
     000021B3  A$lcc1484058$70                    map_00_init_npc
     000021B4  A$lcc1484058$71                    map_00_init_npc
     000021B6  A$lcc1484058$75                    map_00_init_npc
     000021B6  C$map_00_init_npc.c$17$2_0$166     map_00_init_npc
     000021B8  A$lcc1484058$76                    map_00_init_npc
     000021BA  A$lcc1484058$77                    map_00_init_npc
     000021BB  A$lcc1484058$78                    map_00_init_npc
     000021BD  A$lcc1484058$79                    map_00_init_npc
     000021BE  A$lcc1484058$80                    map_00_init_npc
     000021C0  A$lcc1484058$81                    map_00_init_npc
     000021C1  A$lcc1484058$82                    map_00_init_npc
     000021C3  A$lcc1484058$83                    map_00_init_npc
     000021C4  A$lcc1484058$84                    map_00_init_npc
     000021C6  A$lcc1484058$85                    map_00_init_npc
     000021C7  A$lcc1484058$86                    map_00_init_npc
     000021C8  A$lcc1484058$87                    map_00_init_npc
     000021C9  A$lcc1484058$88                    map_00_init_npc
     000021CA  A$lcc1484058$89                    map_00_init_npc
     000021CB  A$lcc1484058$90                    map_00_init_npc
     000021CC  A$lcc1484058$91                    map_00_init_npc
     000021CD  A$lcc1484058$95                    map_00_init_npc
     000021D0  A$lcc1484058$96                    map_00_init_npc
     000021D1  A$lcc1484058$98                    map_00_init_npc
     000021D4  A$lcc1484058$99                    map_00_init_npc
     000021D5  A$lcc1484058$100                   map_00_init_npc
     000021D6  A$lcc1484058$101                   map_00_init_npc
     000021D7  A$lcc1484058$102                   map_00_init_npc
     000021D9  A$lcc1484058$103                   map_00_init_npc
     000021DA  A$lcc1484058$104                   map_00_init_npc
ASxxxx Linker V03.00/V05.40 + sdld,  page 80.
Hexadecimal  [32-Bits]

Area                                    Addr        Size        Decimal Bytes (Attributes)
--------------------------------        ----        ----        ------- ----- ------------
_CODE                               00000200    000024E6 =        9446. bytes (REL,CON)

      Value  Global                              Global Defined In Module
      -----  --------------------------------   ------------------------
     000021DC  A$lcc1484058$105                   map_00_init_npc
     000021DE  A$lcc1484058$109                   map_00_init_npc
     000021DE  C$map_00_init_npc.c$19$2_1$167     map_00_init_npc
     000021E1  A$lcc1484058$110                   map_00_init_npc
     000021E2  A$lcc1484058$111                   map_00_init_npc
     000021E4  A$lcc1484058$112                   map_00_init_npc
     000021E5  A$lcc1484058$113                   map_00_init_npc
     000021E6  A$lcc1484058$114                   map_00_init_npc
     000021E7  A$lcc1484058$115                   map_00_init_npc
     000021E8  A$lcc1484058$116                   map_00_init_npc
     000021E9  A$lcc1484058$117                   map_00_init_npc
     000021EA  A$lcc1484058$118                   map_00_init_npc
     000021EB  A$lcc1484058$119                   map_00_init_npc
     000021EC  A$lcc1484058$120                   map_00_init_npc
     000021EE  A$lcc1484058$121                   map_00_init_npc
     000021EF  A$lcc1484058$122                   map_00_init_npc
     000021F0  A$lcc1484058$123                   map_00_init_npc
     000021F1  A$lcc1484058$124                   map_00_init_npc
     000021F3  A$lcc1484058$125                   map_00_init_npc
     000021F4  A$lcc1484058$126                   map_00_init_npc
     000021F5  A$lcc1484058$127                   map_00_init_npc
     000021F6  A$lcc1484058$128                   map_00_init_npc
     000021F7  A$lcc1484058$129                   map_00_init_npc
     000021FA  A$lcc1484058$130                   map_00_init_npc
     000021FB  A$lcc1484058$131                   map_00_init_npc
     000021FC  A$lcc1484058$132                   map_00_init_npc
     000021FD  A$lcc1484058$133                   map_00_init_npc
     000021FF  A$lcc1484058$134                   map_00_init_npc
     00002200  A$lcc1484058$135                   map_00_init_npc
     00002201  A$lcc1484058$136                   map_00_init_npc
     00002202  A$lcc1484058$140                   map_00_init_npc
     00002202  C$map_00_init_npc.c$18$2_1$167     map_00_init_npc
     00002203  A$lcc1484058$141                   map_00_init_npc
     00002205  A$lcc1484058$146                   map_00_init_npc
     00002205  C$map_00_init_npc.c$21$1_1$166     map_00_init_npc
     00002208  A$lcc1484058$147                   map_00_init_npc
     00002209  A$lcc1484058$148                   map_00_init_npc
     0000220A  A$lcc1484058$149                   map_00_init_npc
     0000220C  A$lcc1484058$150                   map_00_init_npc
     0000220F  A$lcc1484058$151                   map_00_init_npc
     00002210  A$lcc1484058$152                   map_00_init_npc
     00002213  A$lcc1484058$153                   map_00_init_npc
     00002215  A$lcc1484058$154                   map_00_init_npc
     00002216  A$lcc1484058$155                   map_00_init_npc
     00002218  A$lcc1484058$156                   map_00_init_npc
     0000221A  A$lcc1484058$157                   map_00_init_npc
     0000221B  A$lcc1484058$158                   map_00_init_npc
     0000221C  A$lcc1484058$159                   map_00_init_npc
     0000221D  A$lcc1484058$160                   map_00_init_npc
     0000221E  A$lcc1484058$161                   map_00_init_npc
     0000221F  A$lcc1484058$162                   map_00_init_npc
ASxxxx Linker V03.00/V05.40 + sdld,  page 81.
Hexadecimal  [32-Bits]

Area                                    Addr        Size        Decimal Bytes (Attributes)
--------------------------------        ----        ----        ------- ----- ------------
_CODE                               00000200    000024E6 =        9446. bytes (REL,CON)

      Value  Global                              Global Defined In Module
      -----  --------------------------------   ------------------------
     00002220  A$lcc1484058$166                   map_00_init_npc
     00002220  C$map_00_init_npc.c$22$1_1$166     map_00_init_npc
     00002223  A$lcc1484058$167                   map_00_init_npc
     00002224  A$lcc1484058$168                   map_00_init_npc
     00002225  A$lcc1484058$169                   map_00_init_npc
     00002227  A$lcc1484058$170                   map_00_init_npc
     0000222A  A$lcc1484058$171                   map_00_init_npc
     0000222B  A$lcc1484058$172                   map_00_init_npc
     0000222E  A$lcc1484058$173                   map_00_init_npc
     00002230  A$lcc1484058$174                   map_00_init_npc
     00002231  A$lcc1484058$175                   map_00_init_npc
     00002233  A$lcc1484058$176                   map_00_init_npc
     00002235  A$lcc1484058$177                   map_00_init_npc
     00002236  A$lcc1484058$178                   map_00_init_npc
     00002237  A$lcc1484058$179                   map_00_init_npc
     00002238  A$lcc1484058$180                   map_00_init_npc
     00002239  A$lcc1484058$181                   map_00_init_npc
     0000223A  A$lcc1484058$182                   map_00_init_npc
     0000223B  A$lcc1484058$186                   map_00_init_npc
     0000223B  C$map_00_init_npc.c$24$1_1$166     map_00_init_npc
     0000223E  A$lcc1484058$187                   map_00_init_npc
     0000223F  A$lcc1484058$188                   map_00_init_npc
     00002241  A$lcc1484058$189                   map_00_init_npc
     00002244  A$lcc1484058$190                   map_00_init_npc
     00002245  A$lcc1484058$191                   map_00_init_npc
     00002247  A$lcc1484058$195                   map_00_init_npc
     00002247  C$map_00_init_npc.c$25$1_1$166     map_00_init_npc
     0000224A  A$lcc1484058$196                   map_00_init_npc
     0000224B  A$lcc1484058$197                   map_00_init_npc
     0000224D  A$lcc1484058$198                   map_00_init_npc
     00002250  A$lcc1484058$199                   map_00_init_npc
     00002251  A$lcc1484058$200                   map_00_init_npc
     00002253  A$lcc1484058$204                   map_00_init_npc
     00002253  C$map_00_init_npc.c$26$1_1$166     map_00_init_npc
     00002256  A$lcc1484058$205                   map_00_init_npc
     00002257  A$lcc1484058$206                   map_00_init_npc
     00002259  A$lcc1484058$207                   map_00_init_npc
     0000225C  A$lcc1484058$208                   map_00_init_npc
     0000225D  A$lcc1484058$209                   map_00_init_npc
     0000225F  A$lcc1484058$213                   map_00_init_npc
     0000225F  C$map_00_init_npc.c$29$2_1$168     map_00_init_npc
     00002261  A$lcc1484058$214                   map_00_init_npc
     00002263  A$lcc1484058$215                   map_00_init_npc
     00002264  A$lcc1484058$216                   map_00_init_npc
     00002266  A$lcc1484058$217                   map_00_init_npc
     00002267  A$lcc1484058$218                   map_00_init_npc
     00002269  A$lcc1484058$219                   map_00_init_npc
     0000226A  A$lcc1484058$220                   map_00_init_npc
     0000226C  A$lcc1484058$221                   map_00_init_npc
     0000226D  A$lcc1484058$222                   map_00_init_npc
     0000226F  A$lcc1484058$223                   map_00_init_npc
ASxxxx Linker V03.00/V05.40 + sdld,  page 82.
Hexadecimal  [32-Bits]

Area                                    Addr        Size        Decimal Bytes (Attributes)
--------------------------------        ----        ----        ------- ----- ------------
_CODE                               00000200    000024E6 =        9446. bytes (REL,CON)

      Value  Global                              Global Defined In Module
      -----  --------------------------------   ------------------------
     00002270  A$lcc1484058$224                   map_00_init_npc
     00002272  A$lcc1484058$225                   map_00_init_npc
     00002273  A$lcc1484058$226                   map_00_init_npc
     00002275  A$lcc1484058$227                   map_00_init_npc
     00002276  A$lcc1484058$228                   map_00_init_npc
     00002278  A$lcc1484058$232                   map_00_init_npc
     00002278  C$map_00_init_npc.c$35$1_2$168     map_00_init_npc
     0000227B  A$lcc1484058$233                   map_00_init_npc
     0000227C  A$lcc1484058$234                   map_00_init_npc
     0000227E  A$lcc1484058$235                   map_00_init_npc
     0000227F  A$lcc1484058$236                   map_00_init_npc
     00002280  A$lcc1484058$237                   map_00_init_npc
     00002281  A$lcc1484058$238                   map_00_init_npc
     00002282  A$lcc1484058$239                   map_00_init_npc
     00002283  A$lcc1484058$240                   map_00_init_npc
     00002284  A$lcc1484058$241                   map_00_init_npc
     00002285  A$lcc1484058$242                   map_00_init_npc
     00002286  A$lcc1484058$243                   map_00_init_npc
     00002287  A$lcc1484058$244                   map_00_init_npc
     0000228A  A$lcc1484058$245                   map_00_init_npc
     0000228B  A$lcc1484058$246                   map_00_init_npc
     0000228C  A$lcc1484058$247                   map_00_init_npc
     0000228D  A$lcc1484058$248                   map_00_init_npc
     00002290  A$lcc1484058$249                   map_00_init_npc
     00002291  A$lcc1484058$250                   map_00_init_npc
     00002293  A$lcc1484058$251                   map_00_init_npc
     00002294  A$lcc1484058$252                   map_00_init_npc
     00002295  A$lcc1484058$253                   map_00_init_npc
     00002298  A$lcc1484058$254                   map_00_init_npc
     00002299  A$lcc1484058$255                   map_00_init_npc
     0000229A  A$lcc1484058$256                   map_00_init_npc
     0000229B  A$lcc1484058$257                   map_00_init_npc
     0000229C  A$lcc1484058$258                   map_00_init_npc
     0000229D  A$lcc1484058$259                   map_00_init_npc
     000022A0  A$lcc1484058$260                   map_00_init_npc
     000022A3  A$lcc1484058$264                   map_00_init_npc
     000022A5  A$lcc1484058$269                   map_00_init_npc
     000022A5  C$map_00_init_npc.c$36$1_2$165     map_00_init_npc
     000022A5  XG$Map_00_NPC_Init$0$0             map_00_init_npc
     000022A6  A$lcc1484059$56                    map_00_update
     000022A6  C$map_00_update.c$11$0_0$173       map_00_update
     000022A6  G$Map_00_Update$0$0                map_00_update
     000022A6  _Map_00_Update                     map_00_update
     000022A8  A$lcc1484059$57                    map_00_update
     000022AA  A$lcc1484059$58                    map_00_update
     000022AB  A$lcc1484059$59                    map_00_update
     000022AC  A$lcc1484059$60                    map_00_update
     000022AD  A$lcc1484059$64                    map_00_update
     000022AD  C$map_00_update.c$13$1_0$173       map_00_update
     000022B0  A$lcc1484059$68                    map_00_update
     000022B0  C$map_00_update.c$15$1_1$174       map_00_update
ASxxxx Linker V03.00/V05.40 + sdld,  page 83.
Hexadecimal  [32-Bits]

Area                                    Addr        Size        Decimal Bytes (Attributes)
--------------------------------        ----        ----        ------- ----- ------------
_CODE                               00000200    000024E6 =        9446. bytes (REL,CON)

      Value  Global                              Global Defined In Module
      -----  --------------------------------   ------------------------
     000022B2  A$lcc1484059$69                    map_00_update
     000022B3  A$lcc1484059$70                    map_00_update
     000022B4  A$lcc1484059$71                    map_00_update
     000022B5  A$lcc1484059$72                    map_00_update
     000022B8  A$lcc1484059$73                    map_00_update
     000022B9  A$lcc1484059$74                    map_00_update
     000022BA  A$lcc1484059$75                    map_00_update
     000022BB  A$lcc1484059$76                    map_00_update
     000022BC  A$lcc1484059$77                    map_00_update
     000022BE  A$lcc1484059$78                    map_00_update
     000022BF  A$lcc1484059$79                    map_00_update
     000022C0  A$lcc1484059$80                    map_00_update
     000022C1  A$lcc1484059$84                    map_00_update
     000022C2  A$lcc1484059$85                    map_00_update
     000022C3  A$lcc1484059$86                    map_00_update
     000022C6  A$lcc1484059$87                    map_00_update
     000022C7  A$lcc1484059$88                    map_00_update
     000022C8  A$lcc1484059$89                    map_00_update
     000022C9  A$lcc1484059$90                    map_00_update
     000022CB  A$lcc1484059$91                    map_00_update
     000022CC  A$lcc1484059$92                    map_00_update
     000022CD  A$lcc1484059$93                    map_00_update
     000022CE  A$lcc1484059$94                    map_00_update
     000022D0  A$lcc1484059$95                    map_00_update
     000022D1  A$lcc1484059$96                    map_00_update
     000022D4  A$lcc1484059$98                    map_00_update
     000022D6  A$lcc1484059$99                    map_00_update
     000022D7  A$lcc1484059$100                   map_00_update
     000022D8  A$lcc1484059$101                   map_00_update
     000022D9  A$lcc1484059$102                   map_00_update
     000022DA  A$lcc1484059$103                   map_00_update
     000022DB  A$lcc1484059$104                   map_00_update
     000022DD  A$lcc1484059$105                   map_00_update
     000022DE  A$lcc1484059$106                   map_00_update
     000022DF  A$lcc1484059$107                   map_00_update
     000022E0  A$lcc1484059$108                   map_00_update
     000022E1  A$lcc1484059$109                   map_00_update
     000022E3  A$lcc1484059$113                   map_00_update
     000022E3  C$map_00_update.c$18$3_1$176       map_00_update
     000022E4  A$lcc1484059$114                   map_00_update
     000022E5  A$lcc1484059$115                   map_00_update
     000022E6  A$lcc1484059$116                   map_00_update
     000022E7  A$lcc1484059$117                   map_00_update
     000022E8  A$lcc1484059$118                   map_00_update
     000022E9  A$lcc1484059$119                   map_00_update
     000022EA  A$lcc1484059$120                   map_00_update
     000022ED  A$lcc1484059$121                   map_00_update
     000022EE  A$lcc1484059$125                   map_00_update
     000022EE  C$map_00_update.c$17$2_1$175       map_00_update
     000022EF  A$lcc1484059$126                   map_00_update
     000022F1  A$lcc1484059$131                   map_00_update
ASxxxx Linker V03.00/V05.40 + sdld,  page 84.
Hexadecimal  [32-Bits]

Area                                    Addr        Size        Decimal Bytes (Attributes)
--------------------------------        ----        ----        ------- ----- ------------
_CODE                               00000200    000024E6 =        9446. bytes (REL,CON)

      Value  Global                              Global Defined In Module
      -----  --------------------------------   ------------------------
     000022F1  C$map_00_update.c$21$1_1$174       map_00_update
     000022F4  A$lcc1484059$132                   map_00_update
     000022F7  A$lcc1484059$136                   map_00_update
     000022F7  C$map_00_update.c$22$1_1$174       map_00_update
     000022F8  A$lcc1484059$137                   map_00_update
     000022F9  A$lcc1484059$138                   map_00_update
     000022FA  A$lcc1484059$139                   map_00_update
     000022FB  A$lcc1484059$140                   map_00_update
     000022FC  A$lcc1484059$141                   map_00_update
     000022FD  A$lcc1484059$142                   map_00_update
     00002300  A$lcc1484059$146                   map_00_update
     00002300  C$map_00_update.c$24$1_1$174       map_00_update
     00002302  A$lcc1484059$147                   map_00_update
     00002303  A$lcc1484059$148                   map_00_update
     00002304  A$lcc1484059$149                   map_00_update
     00002305  A$lcc1484059$150                   map_00_update
     00002308  A$lcc1484059$157                   map_00_update
     00002308  C$map_00_update.c$26$1_1$174       map_00_update
     0000230A  A$lcc1484059$162                   map_00_update
     0000230A  C$map_00_update.c$27$1_1$173       map_00_update
     0000230A  XG$Map_00_Update$0$0               map_00_update
     0000230B  A$lcc1484060$64                    main
     0000230B  C$main.c$29$0_0$174                main
     0000230B  C$main.c$31$1_0$174                main
     0000230B  G$load_number_tiles$0$0            main
     0000230B  _load_number_tiles                 main
     0000230E  A$lcc1484060$65                    main
     0000230F  A$lcc1484060$66                    main
     00002312  A$lcc1484060$67                    main
     00002313  A$lcc1484060$68                    main
     00002316  A$lcc1484060$69                    main
     00002318  A$lcc1484060$73                    main
     00002318  C$main.c$32$1_0$174                main
     0000231B  A$lcc1484060$74                    main
     0000231C  A$lcc1484060$75                    main
     0000231F  A$lcc1484060$76                    main
     00002320  A$lcc1484060$77                    main
     00002323  A$lcc1484060$78                    main
     00002325  A$lcc1484060$86                    main
     00002325  C$main.c$33$1_0$174                main
     00002325  XG$load_number_tiles$0$0           main
     00002326  A$lcc1484060$99                    main
     00002326  C$main.c$35$1_0$176                main
     00002326  C$main.c$37$1_0$176                main
     00002326  G$main$0$0                         main
     00002326  _main                              main
     00002328  A$lcc1484060$100                   main
     0000232A  A$lcc1484060$101                   main
     0000232C  A$lcc1484060$105                   main
     0000232C  C$main.c$38$1_0$176                main
     0000232E  A$lcc1484060$106                   main
ASxxxx Linker V03.00/V05.40 + sdld,  page 85.
Hexadecimal  [32-Bits]

Area                                    Addr        Size        Decimal Bytes (Attributes)
--------------------------------        ----        ----        ------- ----- ------------
_CODE                               00000200    000024E6 =        9446. bytes (REL,CON)

      Value  Global                              Global Defined In Module
      -----  --------------------------------   ------------------------
     00002330  A$lcc1484060$107                   main
     00002332  A$lcc1484060$111                   main
     00002332  C$main.c$47$1_1$177                main
     00002335  A$lcc1484060$112                   main
     00002337  A$lcc1484060$113                   main
     00002338  A$lcc1484060$114                   main
     0000233A  A$lcc1484060$118                   main
     0000233A  C$main.c$49$1_1$177                main
     0000233D  A$lcc1484060$122                   main
     0000233D  C$main.c$50$1_1$177                main
     00002340  A$lcc1484060$126                   main
     00002340  C$main.c$53$1_2$178                main
     00002343  A$lcc1484060$127                   main
     00002346  A$lcc1484060$131                   main
     00002346  C$main.c$55$1_2$178                main
     00002349  A$lcc1484060$132                   main
     0000234C  A$lcc1484060$133                   main
     0000234D  A$lcc1484060$134                   main
     0000234E  A$lcc1484060$135                   main
     0000234F  A$lcc1484060$136                   main
     00002350  A$lcc1484060$137                   main
     00002351  A$lcc1484060$138                   main
     00002352  A$lcc1484060$139                   main
     00002353  A$lcc1484060$140                   main
     00002356  A$lcc1484060$141                   main
     00002358  A$lcc1484060$142                   main
     00002359  A$lcc1484060$143                   main
     0000235A  A$lcc1484060$144                   main
     0000235B  A$lcc1484060$145                   main
     0000235C  A$lcc1484060$146                   main
     0000235F  A$lcc1484060$150                   main
     0000235F  C$main.c$57$1_2$178                main
     00002362  A$lcc1484060$155                   main
     00002362  C$main.c$59$1_2$178                main
     00002365  A$lcc1484060$156                   main
     00002366  A$lcc1484060$157                   main
     00002367  A$lcc1484060$158                   main
     00002368  A$lcc1484060$162                   main
     00002368  C$main.c$61$2_2$179                main
     0000236B  A$lcc1484060$163                   main
     0000236C  A$lcc1484060$164                   main
     0000236D  A$lcc1484060$165                   main
     0000236E  A$lcc1484060$166                   main
     0000236F  A$lcc1484060$167                   main
     00002370  A$lcc1484060$168                   main
     00002371  A$lcc1484060$169                   main
     00002372  A$lcc1484060$170                   main
     00002373  A$lcc1484060$171                   main
     00002374  A$lcc1484060$172                   main
     00002375  A$lcc1484060$173                   main
     00002376  A$lcc1484060$174                   main
ASxxxx Linker V03.00/V05.40 + sdld,  page 86.
Hexadecimal  [32-Bits]

Area                                    Addr        Size        Decimal Bytes (Attributes)
--------------------------------        ----        ----        ------- ----- ------------
_CODE                               00000200    000024E6 =        9446. bytes (REL,CON)

      Value  Global                              Global Defined In Module
      -----  --------------------------------   ------------------------
     00002377  A$lcc1484060$175                   main
     0000237A  A$lcc1484060$176                   main
     0000237B  A$lcc1484060$177                   main
     0000237C  A$lcc1484060$178                   main
     0000237D  A$lcc1484060$183                   main
     0000237D  C$main.c$63$2_2$179                main
     00002380  A$lcc1484060$191                   main
     00002380  C$main.c$65$1_2$176                main
     00002380  XG$main$0$0                        main
     00002382  __divsuchar                        divmod
     00002388  __modsuchar                        divmod
     00002391  __divuschar                        divmod
     0000239A  __moduschar                        divmod
     000023A6  __divschar                         divmod
     000023AB  __modschar                         divmod
     000023B2  __divsint                          divmod
     000023BB  __modsint                          divmod
     000023C7  __divuchar                         divmod
     000023CC  __moduchar                         divmod
     000023D3  __divuint                          divmod
     000023DC  __moduint                          divmod
     000023E8  .div8                              divmod
     000023E8  .mod8                              divmod
     000023F0  .div16                             divmod
     000023F0  .mod16                             divmod
     00002426  .divu8                             divmod
     00002426  .modu8                             divmod
     00002429  .divu16                            divmod
     00002429  .modu16                            divmod
     00002469  _free                              free
     00002579  ___sdcc_heap_init                  malloc
     0000259B  _malloc                            malloc
     000026A1  __mulsuchar                        mul
     000026A4  __muluschar                        mul
     000026AD  __mulschar                         mul
     000026B5  __mulint                           mul
     000026D4  __muluchar                         mul
ASxxxx Linker V03.00/V05.40 + sdld,  page 87.
Hexadecimal  [32-Bits]

Area                                    Addr        Size        Decimal Bytes (Attributes)
--------------------------------        ----        ----        ------- ----- ------------
_HEADER0                            00000000    00000001 =           1. bytes (ABS,CON)

      Value  Global                              Global Defined In Module
      -----  --------------------------------   ------------------------
     00000020  .call_hl                           Runtime

ASxxxx Linker V03.00/V05.40 + sdld,  page 88.
Hexadecimal  [32-Bits]

Area                                    Addr        Size        Decimal Bytes (Attributes)
--------------------------------        ----        ----        ------- ----- ------------
_HEADER1                            00000000    00000005 =           5. bytes (ABS,CON)

      Value  Global                              Global Defined In Module
      -----  --------------------------------   ------------------------
     00000028  .MemsetSmall                       Runtime

ASxxxx Linker V03.00/V05.40 + sdld,  page 89.
Hexadecimal  [32-Bits]

Area                                    Addr        Size        Decimal Bytes (Attributes)
--------------------------------        ----        ----        ------- ----- ------------
_HEADER2                            00000000    00000007 =           7. bytes (ABS,CON)

      Value  Global                              Global Defined In Module
      -----  --------------------------------   ------------------------
     00000030  .MemcpySmall                       Runtime

ASxxxx Linker V03.00/V05.40 + sdld,  page 90.
Hexadecimal  [32-Bits]

Area                                    Addr        Size        Decimal Bytes (Attributes)
--------------------------------        ----        ----        ------- ----- ------------
_HEADER3                            00000000    00000008 =           8. bytes (ABS,CON)

      Value  Global                              Global Defined In Module
      -----  --------------------------------   ------------------------
ASxxxx Linker V03.00/V05.40 + sdld,  page 91.
Hexadecimal  [32-Bits]

Area                                    Addr        Size        Decimal Bytes (Attributes)
--------------------------------        ----        ----        ------- ----- ------------
_HEADER4                            00000000    00000060 =          96. bytes (ABS,CON)

      Value  Global                              Global Defined In Module
      -----  --------------------------------   ------------------------
     00000080  .int                               Runtime
     0000008F  _wait_int_handler                  Runtime
     0000009C  __standard_VBL_handler             Runtime
     000000AB  _refresh_OAM                       Runtime
     000000CC  _set_interrupts                    Runtime

ASxxxx Linker V03.00/V05.40 + sdld,  page 92.
Hexadecimal  [32-Bits]

Area                                    Addr        Size        Decimal Bytes (Attributes)
--------------------------------        ----        ----        ------- ----- ------------
_HEADER5                            00000000    00000001 =           1. bytes (ABS,CON)

      Value  Global                              Global Defined In Module
      -----  --------------------------------   ------------------------
ASxxxx Linker V03.00/V05.40 + sdld,  page 93.
Hexadecimal  [32-Bits]

Area                                    Addr        Size        Decimal Bytes (Attributes)
--------------------------------        ----        ----        ------- ----- ------------
_HEADER6                            00000000    00000002 =           2. bytes (ABS,CON)

      Value  Global                              Global Defined In Module
      -----  --------------------------------   ------------------------
ASxxxx Linker V03.00/V05.40 + sdld,  page 94.
Hexadecimal  [32-Bits]

Area                                    Addr        Size        Decimal Bytes (Attributes)
--------------------------------        ----        ----        ------- ----- ------------
_HEADER7                            00000000    00000030 =          48. bytes (ABS,CON)

      Value  Global                              Global Defined In Module
      -----  --------------------------------   ------------------------
ASxxxx Linker V03.00/V05.40 + sdld,  page 95.
Hexadecimal  [32-Bits]

Area                                    Addr        Size        Decimal Bytes (Attributes)
--------------------------------        ----        ----        ------- ----- ------------
_HEADER8                            00000000    00000006 =           6. bytes (ABS,CON)

      Value  Global                              Global Defined In Module
      -----  --------------------------------   ------------------------
ASxxxx Linker V03.00/V05.40 + sdld,  page 96.
Hexadecimal  [32-Bits]

Area                                    Addr        Size        Decimal Bytes (Attributes)
--------------------------------        ----        ----        ------- ----- ------------
_HEADER9                            00000000    00000003 =           3. bytes (ABS,CON)

      Value  Global                              Global Defined In Module
      -----  --------------------------------   ------------------------
ASxxxx Linker V03.00/V05.40 + sdld,  page 97.
Hexadecimal  [32-Bits]

Area                                    Addr        Size        Decimal Bytes (Attributes)
--------------------------------        ----        ----        ------- ----- ------------
_HEADERa                            00000000    00000001 =           1. bytes (ABS,CON)

      Value  Global                              Global Defined In Module
      -----  --------------------------------   ------------------------
ASxxxx Linker V03.00/V05.40 + sdld,  page 98.
Hexadecimal  [32-Bits]

Area                                    Addr        Size        Decimal Bytes (Attributes)
--------------------------------        ----        ----        ------- ----- ------------
_HEADERb                            00000000    00000001 =           1. bytes (ABS,CON)

      Value  Global                              Global Defined In Module
      -----  --------------------------------   ------------------------
ASxxxx Linker V03.00/V05.40 + sdld,  page 99.
Hexadecimal  [32-Bits]

Area                                    Addr        Size        Decimal Bytes (Attributes)
--------------------------------        ----        ----        ------- ----- ------------
_HEADERc                            00000000    00000001 =           1. bytes (ABS,CON)

      Value  Global                              Global Defined In Module
      -----  --------------------------------   ------------------------
ASxxxx Linker V03.00/V05.40 + sdld,  page 100.
Hexadecimal  [32-Bits]

Area                                    Addr        Size        Decimal Bytes (Attributes)
--------------------------------        ----        ----        ------- ----- ------------
_HEADERd                            00000000    00000002 =           2. bytes (ABS,CON)

      Value  Global                              Global Defined In Module
      -----  --------------------------------   ------------------------
ASxxxx Linker V03.00/V05.40 + sdld,  page 101.
Hexadecimal  [32-Bits]

Area                                    Addr        Size        Decimal Bytes (Attributes)
--------------------------------        ----        ----        ------- ----- ------------
_HEADERe                            00000000    00000001 =           1. bytes (ABS,CON)

      Value  Global                              Global Defined In Module
      -----  --------------------------------   ------------------------
ASxxxx Linker V03.00/V05.40 + sdld,  page 102.
Hexadecimal  [32-Bits]

Area                                    Addr        Size        Decimal Bytes (Attributes)
--------------------------------        ----        ----        ------- ----- ------------
_HEADERf                            00000000    00000001 =           1. bytes (ABS,CON)

      Value  Global                              Global Defined In Module
      -----  --------------------------------   ------------------------
ASxxxx Linker V03.00/V05.40 + sdld,  page 103.
Hexadecimal  [32-Bits]

Area                                    Addr        Size        Decimal Bytes (Attributes)
--------------------------------        ----        ----        ------- ----- ------------
_HEADER10                           00000000    00000002 =           2. bytes (ABS,CON)

      Value  Global                              Global Defined In Module
      -----  --------------------------------   ------------------------
ASxxxx Linker V03.00/V05.40 + sdld,  page 104.
Hexadecimal  [32-Bits]

Area                                    Addr        Size        Decimal Bytes (Attributes)
--------------------------------        ----        ----        ------- ----- ------------
_HEADER11                           00000000    000000AB =         171. bytes (ABS,CON)

      Value  Global                              Global Defined In Module
      -----  --------------------------------   ------------------------
     00000150  .reset                             Runtime
     00000150  _reset                             Runtime
     00000157  .code_start                        Runtime
     000001B9  _exit                              Runtime
     000001BD  .wait_vbl_done                     Runtime
     000001BD  _vsync                             Runtime
     000001BD  _wait_vbl_done                     Runtime
     000001CD  .remove_VBL                        Runtime
     000001CD  _remove_VBL                        Runtime
     000001D0  .remove_int                        Runtime
     000001ED  .add_VBL                           Runtime
     000001ED  _add_VBL                           Runtime
     000001F0  .add_int                           Runtime

ASxxxx Linker V03.00/V05.40 + sdld,  page 105.
Hexadecimal  [32-Bits]

Area                                    Addr        Size        Decimal Bytes (Attributes)
--------------------------------        ----        ----        ------- ----- ------------
_HOME                               000026E6    0000012C =         300. bytes (REL,CON)

      Value  Global                              Global Defined In Module
      -----  --------------------------------   ------------------------
     000026E6  .memset_simple                     Runtime
     000026EF  .memcpy_simple                     Runtime
     0000270C  .display_off                       Runtime
     0000270C  _display_off                       Runtime
     00002724  _set_tile_data                     
     00002729  _set_bkg_data                      
     00002729  _set_win_data                      
     00002731  _set_sprite_data                   
     00002761  .padup                             
     00002761  _waitpadup                         
     00002771  .jpad                              
     00002771  _joypad                            
     00002799  _waitpad                           
     0000279A  .wait_pad                          
     000027A1  ___sdcc_call_hl                    call_hl
     000027A2  _set_bkg_tiles                     
     000027B6  .set_xy_wtt                        SetTileMap
     000027BF  .set_xy_btt                        SetTileMap
     000027CE  .set_xy_tt                         SetTileMap

ASxxxx Linker V03.00/V05.40 + sdld,  page 106.
Hexadecimal  [32-Bits]

Area                                    Addr        Size        Decimal Bytes (Attributes)
--------------------------------        ----        ----        ------- ----- ------------
_INITIALIZER                        00002812    000001E5 =         485. bytes (REL,CON)

      Value  Global                              Global Defined In Module
      -----  --------------------------------   ------------------------
     00002812  Fspr_InventoryArrow_idle$__xinit   spr_InventoryArrow_idle
     00002822  Fexample_npc$__xinit_spr_example   example_npc
     00002832  Fexample_npc$__xinit_spr_example   example_npc
     00002842  Fexample_npc$__xinit_spr_example   example_npc
     00002852  Fexample_npc$__xinit_spr_example   example_npc
     00002862  Fspr_Player_down0$__xinit_spr_Pl   spr_Player_down0
     00002872  Fspr_Player_down0$__xinit_spr_Pl   spr_Player_down0
     00002882  Fspr_Player_down0$__xinit_spr_Pl   spr_Player_down0
     00002892  Fspr_Player_down0$__xinit_spr_Pl   spr_Player_down0
     000028A2  Fspr_Player_down1$__xinit_spr_Pl   spr_Player_down1
     000028B2  Fspr_Player_down1$__xinit_spr_Pl   spr_Player_down1
     000028C2  Fspr_Player_down1$__xinit_spr_Pl   spr_Player_down1
     000028D2  Fspr_Player_down1$__xinit_spr_Pl   spr_Player_down1
     000028E2  Fspr_Player_down2$__xinit_spr_Pl   spr_Player_down2
     000028F2  Fspr_Player_down2$__xinit_spr_Pl   spr_Player_down2
     00002902  Fspr_Player_down2$__xinit_spr_Pl   spr_Player_down2
     00002912  Fspr_Player_down2$__xinit_spr_Pl   spr_Player_down2
     00002922  Fspr_Player_up0$__xinit_spr_Play   spr_Player_up0
     00002932  Fspr_Player_up0$__xinit_spr_Play   spr_Player_up0
     00002942  Fspr_Player_up0$__xinit_spr_Play   spr_Player_up0
     00002952  Fspr_Player_up0$__xinit_spr_Play   spr_Player_up0
     00002962  Fspr_Player_up1$__xinit_spr_Play   spr_Player_up1
     00002972  Fspr_Player_up1$__xinit_spr_Play   spr_Player_up1
     00002982  Fspr_Player_up1$__xinit_spr_Play   spr_Player_up1
     00002992  Fspr_Player_up1$__xinit_spr_Play   spr_Player_up1
     000029A2  Fspr_Player_up2$__xinit_spr_Play   spr_Player_up2
     000029B2  Fspr_Player_up2$__xinit_spr_Play   spr_Player_up2
     000029C2  Fspr_Player_up2$__xinit_spr_Play   spr_Player_up2
     000029D2  Fspr_Player_up2$__xinit_spr_Play   spr_Player_up2
     000029E2  Faction$__xinit_MOVE_SPEED$0_0$0   action
     000029E3  Faction$__xinit_current_directio   action
     000029E4  Fcan_move$__xinit_can_move$0_0$0   can_move
     000029E8  Fentity$__xinit_next_entity_id$0   entity
     000029E9  Fgender_selection$__xinit_GENDER   gender_selection
     000029EA  Finput$__xinit_keys$0_0$0          input
     000029EB  Finput$__xinit_prev_keys$0_0$0     input
     000029EC  Finventory$__xinit_inventory_act   inventory
     000029ED  Fload$__xinit_vram_next_index$0_   load
     000029EE  Fmoney$__xinit_money$0_0$0         money
     000029F0  Fmain_menu$__xinit_timer$0_0$0     main_menu
     000029F2  Fmain_menu$__xinit_rate$0_0$0      main_menu
     000029F3  Fmain_menu$__xinit_show_text$0_0   main_menu
     000029F4  Fmain_menu$__xinit_seed$0_0$0      main_menu

ASxxxx Linker V03.00/V05.40 + sdld,  page 107.
Hexadecimal  [32-Bits]

Area                                    Addr        Size        Decimal Bytes (Attributes)
--------------------------------        ----        ----        ------- ----- ------------
_GSINIT                             000029F7    0000000F =          15. bytes (REL,CON)

      Value  Global                              Global Defined In Module
      -----  --------------------------------   ------------------------
     000029F7  gsinit                             Runtime

ASxxxx Linker V03.00/V05.40 + sdld,  page 108.
Hexadecimal  [32-Bits]

Area                                    Addr        Size        Decimal Bytes (Attributes)
--------------------------------        ----        ----        ------- ----- ------------
_GSFINAL                            00002A06    00000001 =           1. bytes (REL,CON)

      Value  Global                              Global Defined In Module
      -----  --------------------------------   ------------------------
ASxxxx Linker V03.00/V05.40 + sdld,  page 109.
Hexadecimal  [32-Bits]

Area                                    Addr        Size        Decimal Bytes (Attributes)
--------------------------------        ----        ----        ------- ----- ------------
_DATA                               0000C0A0    000001BB =         443. bytes (REL,CON)

      Value  Global                              Global Defined In Module
      -----  --------------------------------   ------------------------
     0000C0A0  __cpu                              Runtime
     0000C0A1  __is_GBA                           Runtime
     0000C0A2  .mode                              Runtime
     0000C0A3  .sys_time                          Runtime
     0000C0A3  _sys_time                          Runtime
     0000C0A5  .int_0x40                          Runtime
     0000C0B1  G$animation$0_0$0                  animation
     0000C0B1  _animation                         animation
     0000C1A6  G$names$0_0$0                      name
     0000C1A6  _names                             name
     0000C1D8  G$npc_1$0_0$0                      npcs
     0000C1D8  _npc_1                             npcs
     0000C1D9  G$npc_2$0_0$0                      npcs
     0000C1D9  _npc_2                             npcs
     0000C1DA  G$option_actor$0_0$0               npcs
     0000C1DA  _option_actor                      npcs
     0000C1DB  G$humor_stats$0_0$0                npcs
     0000C1DB  _humor_stats                       npcs
     0000C1EA  G$CurrentNPCDialogues$0_0$0        npc_lines
     0000C1EA  _CurrentNPCDialogues               npc_lines
     0000C1EE  G$player$0_0$0                     player
     0000C1EE  _player                            player
     0000C1EF  G$player_animations$0_0$0          player
     0000C1EF  _player_animations                 player
     0000C1F3  G$player_y_cache$0_0$0             player
     0000C1F3  _player_y_cache                    player
     0000C1F4  G$position$0_0$0                   position
     0000C1F4  _position                          position
     0000C212  G$render$0_0$0                     render
     0000C212  _render                            render
     0000C221  G$scene_manager$0_0$0              scene_manager
     0000C221  _scene_manager                     scene_manager
     0000C223  G$GenderSelect$0_0$0               gender_select
     0000C223  _GenderSelect                      gender_select
     0000C22B  G$InventoryScene$0_0$0             inventory_scene
     0000C22B  _InventoryScene                    inventory_scene
     0000C233  G$MainMenu$0_0$0                   main_menu
     0000C233  _MainMenu                          main_menu
     0000C23B  G$CurrentMapData$0_0$0             map_data
     0000C23B  _CurrentMapData                    map_data
     0000C24D  G$Map_00$0_0$0                     map_00
     0000C24D  _Map_00                            map_00
     0000C255  Lmain.main$game$1_1$177            main
     0000C259  ___sdcc_heap_free                  malloc

ASxxxx Linker V03.00/V05.40 + sdld,  page 110.
Hexadecimal  [32-Bits]

Area                                    Addr        Size        Decimal Bytes (Attributes)
--------------------------------        ----        ----        ------- ----- ------------
_INITIALIZED                        0000C25B    000001E5 =         485. bytes (REL,CON)

      Value  Global                              Global Defined In Module
      -----  --------------------------------   ------------------------
     0000C25B  G$spr_InventoryArrow_idle$0_0$0    spr_InventoryArrow_idle
     0000C25B  _spr_InventoryArrow_idle           spr_InventoryArrow_idle
     0000C26B  G$spr_example_NPC_00$0_0$0         example_npc
     0000C26B  _spr_example_NPC_00                example_npc
     0000C27B  G$spr_example_NPC_01$0_0$0         example_npc
     0000C27B  _spr_example_NPC_01                example_npc
     0000C28B  G$spr_example_NPC_10$0_0$0         example_npc
     0000C28B  _spr_example_NPC_10                example_npc
     0000C29B  G$spr_example_NPC_11$0_0$0         example_npc
     0000C29B  _spr_example_NPC_11                example_npc
     0000C2AB  G$spr_Player_down0_00$0_0$0        spr_Player_down0
     0000C2AB  _spr_Player_down0_00               spr_Player_down0
     0000C2BB  G$spr_Player_down0_10$0_0$0        spr_Player_down0
     0000C2BB  _spr_Player_down0_10               spr_Player_down0
     0000C2CB  G$spr_Player_down0_01$0_0$0        spr_Player_down0
     0000C2CB  _spr_Player_down0_01               spr_Player_down0
     0000C2DB  G$spr_Player_down0_11$0_0$0        spr_Player_down0
     0000C2DB  _spr_Player_down0_11               spr_Player_down0
     0000C2EB  G$spr_Player_down1_00$0_0$0        spr_Player_down1
     0000C2EB  _spr_Player_down1_00               spr_Player_down1
     0000C2FB  G$spr_Player_down1_10$0_0$0        spr_Player_down1
     0000C2FB  _spr_Player_down1_10               spr_Player_down1
     0000C30B  G$spr_Player_down1_01$0_0$0        spr_Player_down1
     0000C30B  _spr_Player_down1_01               spr_Player_down1
     0000C31B  G$spr_Player_down1_11$0_0$0        spr_Player_down1
     0000C31B  _spr_Player_down1_11               spr_Player_down1
     0000C32B  G$spr_Player_down2_00$0_0$0        spr_Player_down2
     0000C32B  _spr_Player_down2_00               spr_Player_down2
     0000C33B  G$spr_Player_down2_10$0_0$0        spr_Player_down2
     0000C33B  _spr_Player_down2_10               spr_Player_down2
     0000C34B  G$spr_Player_down2_01$0_0$0        spr_Player_down2
     0000C34B  _spr_Player_down2_01               spr_Player_down2
     0000C35B  G$spr_Player_down2_11$0_0$0        spr_Player_down2
     0000C35B  _spr_Player_down2_11               spr_Player_down2
     0000C36B  G$spr_Player_up0_00$0_0$0          spr_Player_up0
     0000C36B  _spr_Player_up0_00                 spr_Player_up0
     0000C37B  G$spr_Player_up0_10$0_0$0          spr_Player_up0
     0000C37B  _spr_Player_up0_10                 spr_Player_up0
     0000C38B  G$spr_Player_up0_01$0_0$0          spr_Player_up0
     0000C38B  _spr_Player_up0_01                 spr_Player_up0
     0000C39B  G$spr_Player_up0_11$0_0$0          spr_Player_up0
     0000C39B  _spr_Player_up0_11                 spr_Player_up0
     0000C3AB  G$spr_Player_up1_00$0_0$0          spr_Player_up1
     0000C3AB  _spr_Player_up1_00                 spr_Player_up1
     0000C3BB  G$spr_Player_up1_10$0_0$0          spr_Player_up1
     0000C3BB  _spr_Player_up1_10                 spr_Player_up1
     0000C3CB  G$spr_Player_up1_01$0_0$0          spr_Player_up1
     0000C3CB  _spr_Player_up1_01                 spr_Player_up1
     0000C3DB  G$spr_Player_up1_11$0_0$0          spr_Player_up1
     0000C3DB  _spr_Player_up1_11                 spr_Player_up1
ASxxxx Linker V03.00/V05.40 + sdld,  page 111.
Hexadecimal  [32-Bits]

Area                                    Addr        Size        Decimal Bytes (Attributes)
--------------------------------        ----        ----        ------- ----- ------------
_INITIALIZED                        0000C25B    000001E5 =         485. bytes (REL,CON)

      Value  Global                              Global Defined In Module
      -----  --------------------------------   ------------------------
     0000C3EB  G$spr_Player_up2_00$0_0$0          spr_Player_up2
     0000C3EB  _spr_Player_up2_00                 spr_Player_up2
     0000C3FB  G$spr_Player_up2_10$0_0$0          spr_Player_up2
     0000C3FB  _spr_Player_up2_10                 spr_Player_up2
     0000C40B  G$spr_Player_up2_01$0_0$0          spr_Player_up2
     0000C40B  _spr_Player_up2_01                 spr_Player_up2
     0000C41B  G$spr_Player_up2_11$0_0$0          spr_Player_up2
     0000C41B  _spr_Player_up2_11                 spr_Player_up2
     0000C42B  G$MOVE_SPEED$0_0$0                 action
     0000C42B  _MOVE_SPEED                        action
     0000C42C  G$current_direction$0_0$0          action
     0000C42C  _current_direction                 action
     0000C42D  G$can_move$0_0$0                   can_move
     0000C42D  _can_move                          can_move
     0000C431  G$next_entity_id$0_0$0             entity
     0000C431  _next_entity_id                    entity
     0000C432  G$GENDER$0_0$0                     gender_selection
     0000C432  _GENDER                            gender_selection
     0000C433  G$keys$0_0$0                       input
     0000C433  _keys                              input
     0000C434  G$prev_keys$0_0$0                  input
     0000C434  _prev_keys                         input
     0000C435  G$inventory_active$0_0$0           inventory
     0000C435  _inventory_active                  inventory
     0000C436  G$vram_next_index$0_0$0            load
     0000C436  _vram_next_index                   load
     0000C437  G$money$0_0$0                      money
     0000C437  _money                             money
     0000C439  G$timer$0_0$0                      main_menu
     0000C439  _timer                             main_menu
     0000C43B  G$rate$0_0$0                       main_menu
     0000C43B  _rate                              main_menu
     0000C43C  G$show_text$0_0$0                  main_menu
     0000C43C  _show_text                         main_menu
     0000C43D  G$seed$0_0$0                       main_menu
     0000C43D  _seed                              main_menu
     0000C43F  __map_tile_offset                  SetTileMap
ASxxxx Linker V03.00/V05.40 + sdld,  page 112.
Hexadecimal  [32-Bits]

Area                                    Addr        Size        Decimal Bytes (Attributes)
--------------------------------        ----        ----        ------- ----- ------------
_HEAP                               0000C440    000007FF =        2047. bytes (REL,CON)

      Value  Global                              Global Defined In Module
      -----  --------------------------------   ------------------------
     0000C440  ___sdcc_heap                       

ASxxxx Linker V03.00/V05.40 + sdld,  page 113.
Hexadecimal  [32-Bits]

Area                                    Addr        Size        Decimal Bytes (Attributes)
--------------------------------        ----        ----        ------- ----- ------------
_HEAP_END                           0000CC3F    00000001 =           1. bytes (REL,CON)

      Value  Global                              Global Defined In Module
      -----  --------------------------------   ------------------------
     0000CC3F  ___sdcc_heap_end                   

ASxxxx Linker V03.00/V05.40 + sdld,  page 114.
Hexadecimal  [32-Bits]

Area                                    Addr        Size        Decimal Bytes (Attributes)
--------------------------------        ----        ----        ------- ----- ------------
_HRAM                               0000FF80    00000013 =          19. bytes (REL,CON)

      Value  Global                              Global Defined In Module
      -----  --------------------------------   ------------------------
     0000FF80  .refresh_OAM                       Runtime
     0000FF90  __current_bank                     Runtime
     0000FF91  __vbl_done                         Runtime
     0000FF92  __shadow_OAM_base                  Runtime

ASxxxx Linker V03.00/V05.40 + sdld,  page 115.
Hexadecimal  [32-Bits]

Area                                    Addr        Size        Decimal Bytes (Attributes)
--------------------------------        ----        ----        ------- ----- ------------
_CODE_1                             00014000    00000EE8 =        3816. bytes (REL,CON)

      Value  Global                              Global Defined In Module
      -----  --------------------------------   ------------------------
     00014000  G$inventory_bkg_tileset$0_0$0      inventory_bkg
     00014000  _inventory_bkg_tileset             inventory_bkg
     00014340  G$inventory_bkg_tilemap$0_0$0      inventory_bkg
     00014340  _inventory_bkg_tilemap             inventory_bkg
     000144A8  G$bkg_main_menu_tileset$0_0$0      bkg_MainMenu
     000144A8  _bkg_main_menu_tileset             bkg_MainMenu
     00014768  G$bkg_main_menu_tilemap$0_0$0      bkg_MainMenu
     00014768  _bkg_main_menu_tilemap             bkg_MainMenu
     000148D0  G$example_tileset$0_0$0            map_example
     000148D0  _example_tileset                   map_example
     00014D80  G$example_tilemap$0_0$0            map_example
     00014D80  _example_tilemap                   map_example
ASxxxx Linker V03.00/V05.40 + sdld,  page 116.

Files Linked                              [ module(s) ]

C:\Program Files\GBDK\lib/gb/crt0.o       [ Runtime ]
C:\Users\Bau_M\AppData\Local\Temp/lcc148400.o
                                          [ chars ]
C:\Users\Bau_M\AppData\Local\Temp/lcc148401.o
                                          [ numbers ]
C:\Users\Bau_M\AppData\Local\Temp/lcc148402.o
                                          [ gender_select_tilemap ]
C:\Users\Bau_M\AppData\Local\Temp/lcc148403.o
                                          [ gender_select_tileset ]
C:\Users\Bau_M\AppData\Local\Temp/lcc148404.o
                                          [ inventory_bkg ]
C:\Users\Bau_M\AppData\Local\Temp/lcc148405.o
                                          [ bkg_MainMenu ]
C:\Users\Bau_M\AppData\Local\Temp/lcc148406.o
                                          [ map_example ]
C:\Users\Bau_M\AppData\Local\Temp/lcc148407.o
                                          [ template_tilemap ]
C:\Users\Bau_M\AppData\Local\Temp/lcc148408.o
                                          [ template_tileset ]
C:\Users\Bau_M\AppData\Local\Temp/lcc148409.o
                                          [ spr_InventoryArrow_idle ]
C:\Users\Bau_M\AppData\Local\Temp/lcc1484010.o
                                          [ spr_Branch ]
C:\Users\Bau_M\AppData\Local\Temp/lcc1484011.o
                                          [ example_npc ]
C:\Users\Bau_M\AppData\Local\Temp/lcc1484012.o
                                          [ spr_Player_down0 ]
C:\Users\Bau_M\AppData\Local\Temp/lcc1484013.o
                                          [ spr_Player_down1 ]
C:\Users\Bau_M\AppData\Local\Temp/lcc1484014.o
                                          [ spr_Player_down2 ]
C:\Users\Bau_M\AppData\Local\Temp/lcc1484015.o
                                          [ spr_Player_up0 ]
C:\Users\Bau_M\AppData\Local\Temp/lcc1484016.o
                                          [ spr_Player_up1 ]
C:\Users\Bau_M\AppData\Local\Temp/lcc1484017.o
                                          [ spr_Player_up2 ]
C:\Users\Bau_M\AppData\Local\Temp/lcc1484018.o
                                          [ action ]
C:\Users\Bau_M\AppData\Local\Temp/lcc1484019.o
                                          [ animation ]
C:\Users\Bau_M\AppData\Local\Temp/lcc1484020.o
                                          [ can_move ]
C:\Users\Bau_M\AppData\Local\Temp/lcc1484021.o
                                          [ char_to_tile ]
C:\Users\Bau_M\AppData\Local\Temp/lcc1484022.o
                                          [ draw ]
C:\Users\Bau_M\AppData\Local\Temp/lcc1484023.o
                                          [ entity ]
C:\Users\Bau_M\AppData\Local\Temp/lcc1484024.o
                                          [ gender_selection ]
C:\Users\Bau_M\AppData\Local\Temp/lcc1484025.o
                                          [ global_action ]
C:\Users\Bau_M\AppData\Local\Temp/lcc1484026.o
                                          [ input ]
C:\Users\Bau_M\AppData\Local\Temp/lcc1484027.o
                                          [ inventory ]
C:\Users\Bau_M\AppData\Local\Temp/lcc1484028.o
                                          [ inventory_input ]
C:\Users\Bau_M\AppData\Local\Temp/lcc1484029.o
                                          [ load ]
C:\Users\Bau_M\AppData\Local\Temp/lcc1484030.o
                                          [ map_scenes ]
C:\Users\Bau_M\AppData\Local\Temp/lcc1484031.o
                                          [ money ]
C:\Users\Bau_M\AppData\Local\Temp/lcc1484032.o
                                          [ name ]
C:\Users\Bau_M\AppData\Local\Temp/lcc1484033.o
                                          [ npcs ]
C:\Users\Bau_M\AppData\Local\Temp/lcc1484034.o
                                          [ npc_lines ]
C:\Users\Bau_M\AppData\Local\Temp/lcc1484035.o
                                          [ player ]
C:\Users\Bau_M\AppData\Local\Temp/lcc1484036.o
                                          [ position ]
C:\Users\Bau_M\AppData\Local\Temp/lcc1484037.o
                                          [ render ]
C:\Users\Bau_M\AppData\Local\Temp/lcc1484038.o
                                          [ scene ]
C:\Users\Bau_M\AppData\Local\Temp/lcc1484039.o
                                          [ scene_manager ]
C:\Users\Bau_M\AppData\Local\Temp/lcc1484040.o
                                          [ gender_select ]
C:\Users\Bau_M\AppData\Local\Temp/lcc1484041.o
                                          [ gender_select_init ]
C:\Users\Bau_M\AppData\Local\Temp/lcc1484042.o
                                          [ gender_select_update ]
C:\Users\Bau_M\AppData\Local\Temp/lcc1484043.o
                                          [ inventory_scene ]
C:\Users\Bau_M\AppData\Local\Temp/lcc1484044.o
                                          [ inventory_scene_init ]
C:\Users\Bau_M\AppData\Local\Temp/lcc1484045.o
                                          [ inventory_scene_update ]
C:\Users\Bau_M\AppData\Local\Temp/lcc1484046.o
                                          [ main_menu ]
C:\Users\Bau_M\AppData\Local\Temp/lcc1484047.o
                                          [ main_menu_init ]
C:\Users\Bau_M\AppData\Local\Temp/lcc1484048.o
                                          [ main_menu_init_stats ]
C:\Users\Bau_M\AppData\Local\Temp/lcc1484049.o
                                          [ main_menu_input ]
C:\Users\Bau_M\AppData\Local\Temp/lcc1484050.o
                                          [ main_menu_update ]
C:\Users\Bau_M\AppData\Local\Temp/lcc1484051.o
                                          [ clean_text ]
C:\Users\Bau_M\AppData\Local\Temp/lcc1484052.o
                                          [ map_collision ]
C:\Users\Bau_M\AppData\Local\Temp/lcc1484053.o
                                          [ map_data ]
C:\Users\Bau_M\AppData\Local\Temp/lcc1484054.o
                                          [ map_00 ]
C:\Users\Bau_M\AppData\Local\Temp/lcc1484055.o
                                          [ map_00_collision ]
C:\Users\Bau_M\AppData\Local\Temp/lcc1484056.o
                                          [ map_00_init ]
C:\Users\Bau_M\AppData\Local\Temp/lcc1484057.o
                                          [ map_00_init_dialogues ]
C:\Users\Bau_M\AppData\Local\Temp/lcc1484058.o
                                          [ map_00_init_npc ]
C:\Users\Bau_M\AppData\Local\Temp/lcc1484059.o
                                          [ map_00_update ]
C:\Users\Bau_M\AppData\Local\Temp/lcc1484060.o
                                          [ main ]


Libraries Linked                          [ object file ]

C:\Program Files\GBDK\lib/gb/gb.lib       [ sfr.o ]
C:\Program Files\GBDK\lib/sm83/sm83.lib   [ div.o ]
C:\Program Files\GBDK\lib/sm83/sm83.lib   [ free.o ]
C:\Program Files\GBDK\lib/sm83/sm83.lib   [ malloc.o ]
C:\Program Files\GBDK\lib/gb/gb.lib       [ set_data.o ]
C:\Program Files\GBDK\lib/sm83/sm83.lib   [ mul.o ]
C:\Program Files\GBDK\lib/gb/gb.lib       [ pad.o ]
C:\Program Files\GBDK\lib/sm83/sm83.lib   [ __sdcc_call_hl.o ]
C:\Program Files\GBDK\lib/gb/gb.lib       [ heap.o ]
C:\Program Files\GBDK\lib/gb/gb.lib       [ set_bk_t.o ]
C:\Program Files\GBDK\lib/gb/gb.lib       [ set_xy_t.o ]

ASxxxx Linker V03.00/V05.40 + sdld,  page 117.

User Base Address Definitions

_DATA=0xC0A0
_CODE=0x0200
_HRAM=0xFF80
ASxxxx Linker V03.00/V05.40 + sdld,  page 118.

User Global Definitions

_shadow_OAM=0xC000
.STACK=0xE000

