ASxxxx Linker V03.00/V05.40 + sdld,  page 1.
Hexadecimal  [32-Bits]

Area                                    Addr        Size        Decimal Bytes (Attributes)
--------------------------------        ----        ----        ------- ----- ------------
.  .ABS.                            00000000    00000000 =           0. bytes (ABS,CON)

      Value  Global                              Global Defined In Module
      -----  --------------------------------   ------------------------
     00000000  .__.ABS.                           SetTileMap
     00000000  _rMBC7_SRAM_ENABLE_1               
     00000000  _rRAMG                             
     00000000  l__BASE                         
     00000000  l__BSS                          
     00000000  l__CABS                         
     00000000  l__CODE_0                       
     00000000  l__DABS                         
     00000000  l__HEADER                       
     00000000  l__LIT                          
     00000000  s__CABS                         
     00000000  s__DABS                         
     00000000  s__HEADER                       
     00000000  s__HEADER0                      
     00000000  s__HEADER1                      
     00000000  s__HEADER10                     
     00000000  s__HEADER11                     
     00000000  s__HEADER2                      
     00000000  s__HEADER3                      
     00000000  s__HEADER4                      
     00000000  s__HEADER5                      
     00000000  s__HEADER6                      
     00000000  s__HEADER7                      
     00000000  s__HEADER8                      
     00000000  s__HEADER9                      
     00000000  s__HEADERa                      
     00000000  s__HEADERb                      
     00000000  s__HEADERc                      
     00000000  s__HEADERd                      
     00000000  s__HEADERe                      
     00000000  s__HEADERf                      
     00000001  l__GSFINAL                      
     00000001  l__HEADER0                      
     00000001  l__HEADER5                      
     00000001  l__HEADERa                      
     00000001  l__HEADERb                      
     00000001  l__HEADERc                      
     00000001  l__HEADERe                      
     00000001  l__HEADERf                      
     00000001  l__HEAP_END                     
     00000002  l__HEADER10                     
     00000002  l__HEADER6                      
     00000002  l__HEADERd                      
     00000003  l__HEADER9                      
     00000005  l__HEADER1                      
     00000006  l__HEADER8                      
     00000007  l__HEADER2                      
     00000008  l__HEADER3                      
     0000000F  l__GSINIT                       
     00000013  l__HRAM                         
ASxxxx Linker V03.00/V05.40 + sdld,  page 2.
Hexadecimal  [32-Bits]

Area                                    Addr        Size        Decimal Bytes (Attributes)
--------------------------------        ----        ----        ------- ----- ------------
.  .ABS.                            00000000    00000000 =           0. bytes (ABS,CON)

      Value  Global                              Global Defined In Module
      -----  --------------------------------   ------------------------
     00000030  l__HEADER7                      
     00000060  l__HEADER4                      
     000000AB  l__HEADER11                     
     0000012C  l__HOME                         
     000001B7  l__DATA                         
     000001E5  l__INITIALIZED                  
     000001E5  l__INITIALIZER                  
     00000200  s__CODE                         
     000007FF  l__HEAP                         
     00002000  _rROMB0                            
     00003000  _rROMB1                            
     0000321D  l__CODE                         
     0000341D  s__HOME                         
     00003549  s__BASE                         
     00003549  s__CODE_0                       
     00003549  s__INITIALIZER                  
     00003549  s__LIT                          
     0000372E  s__GSINIT                       
     0000373D  s__GSFINAL                      
     00004000  _rMBC7_SRAM_ENABLE_2               
     00004000  _rRAMB                             
     00008000  __VRAM                             
     00008000  __VRAM8000                         
     00008800  __VRAM8800                         
     00009000  __VRAM9000                         
     00009800  __SCRN0                            
     00009C00  __SCRN1                            
     0000A000  __SRAM                             
     0000A000  _rMBC7_LATCH_1                     
     0000A010  _rMBC7_LATCH_2                     
     0000A020  _rMBC7_ACCEL_X_LO                  
     0000A030  _rMBC7_ACCEL_X_HI                  
     0000A040  _rMBC7_ACCEL_Y_LO                  
     0000A050  _rMBC7_ACCEL_Y_HI                  
     0000C000  __RAM                              
     0000C000  _shadow_OAM                     
     0000C0A0  s__DATA                         
     0000C257  s__BSS                          
     0000C257  s__INITIALIZED                  
     0000C43C  s__HEAP                         
     0000CC3B  s__HEAP_END                     
     0000D000  __RAMBANK                          
     0000E000  .STACK                          
     0000FE00  __OAMRAM                           
     0000FF00  _P1_REG                            
     0000FF00  __IO                               
     0000FF01  _SB_REG                            
     0000FF02  _SC_REG                            
     0000FF04  _DIV_REG                           
     0000FF05  _TIMA_REG                          
     0000FF06  _TMA_REG                           
ASxxxx Linker V03.00/V05.40 + sdld,  page 3.
Hexadecimal  [32-Bits]

Area                                    Addr        Size        Decimal Bytes (Attributes)
--------------------------------        ----        ----        ------- ----- ------------
.  .ABS.                            00000000    00000000 =           0. bytes (ABS,CON)

      Value  Global                              Global Defined In Module
      -----  --------------------------------   ------------------------
     0000FF07  _TAC_REG                           
     0000FF0F  _IF_REG                            
     0000FF10  _NR10_REG                          
     0000FF11  _NR11_REG                          
     0000FF12  _NR12_REG                          
     0000FF13  _NR13_REG                          
     0000FF14  _NR14_REG                          
     0000FF16  _NR21_REG                          
     0000FF17  _NR22_REG                          
     0000FF18  _NR23_REG                          
     0000FF19  _NR24_REG                          
     0000FF1A  _NR30_REG                          
     0000FF1B  _NR31_REG                          
     0000FF1C  _NR32_REG                          
     0000FF1D  _NR33_REG                          
     0000FF1E  _NR34_REG                          
     0000FF20  _NR41_REG                          
     0000FF21  _NR42_REG                          
     0000FF22  _NR43_REG                          
     0000FF23  _NR44_REG                          
     0000FF24  _NR50_REG                          
     0000FF25  _NR51_REG                          
     0000FF26  _NR52_REG                          
     0000FF30  _AUD3WAVE                          
     0000FF30  _PCM_SAMPLE                        
     0000FF30  __AUD3WAVERAM                      
     0000FF40  _LCDC_REG                          
     0000FF41  _STAT_REG                          
     0000FF42  _SCY_REG                           
     0000FF43  _SCX_REG                           
     0000FF44  _LY_REG                            
     0000FF45  _LYC_REG                           
     0000FF46  _DMA_REG                           
     0000FF47  _BGP_REG                           
     0000FF48  _OBP0_REG                          
     0000FF49  _OBP1_REG                          
     0000FF4A  _WY_REG                            
     0000FF4B  _WX_REG                            
     0000FF4D  _KEY1_REG                          
     0000FF4F  _VBK_REG                           
     0000FF51  _HDMA1_REG                         
     0000FF52  _HDMA2_REG                         
     0000FF53  _HDMA3_REG                         
     0000FF54  _HDMA4_REG                         
     0000FF55  _HDMA5_REG                         
     0000FF56  _RP_REG                            
     0000FF68  _BCPS_REG                          
     0000FF69  _BCPD_REG                          
     0000FF6A  _OCPS_REG                          
     0000FF6B  _OCPD_REG                          
     0000FF70  _SVBK_REG                          
ASxxxx Linker V03.00/V05.40 + sdld,  page 4.
Hexadecimal  [32-Bits]

Area                                    Addr        Size        Decimal Bytes (Attributes)
--------------------------------        ----        ----        ------- ----- ------------
.  .ABS.                            00000000    00000000 =           0. bytes (ABS,CON)

      Value  Global                              Global Defined In Module
      -----  --------------------------------   ------------------------
     0000FF76  _PCM12_REG                         
     0000FF77  _PCM34_REG                         
     0000FF80  __HRAM                             
     0000FF80  s__HRAM                         
     0000FFFF  _IE_REG                            

ASxxxx Linker V03.00/V05.40 + sdld,  page 5.
Hexadecimal  [32-Bits]

Area                                    Addr        Size        Decimal Bytes (Attributes)
--------------------------------        ----        ----        ------- ----- ------------
_CODE                               00000200    0000321D =       12829. bytes (REL,CON)

      Value  Global                              Global Defined In Module
      -----  --------------------------------   ------------------------
     00000200  G$chars_tileset$0_0$0              chars
     00000200  _chars_tileset                     chars
     000003F0  G$chars_tilemap$0_0$0              chars
     000003F0  _chars_tilemap                     chars
     0000040E  G$numbers_tileset$0_0$0            numbers
     0000040E  _numbers_tileset                   numbers
     000004AE  G$numbers_tilemap$0_0$0            numbers
     000004AE  _numbers_tilemap                   numbers
     000004B8  G$gender_select_tilemap$0_0$0      gender_select_tilemap
     000004B8  _gender_select_tilemap             gender_select_tilemap
     00000620  G$gender_select_tileset$0_0$0      gender_select_tileset
     00000620  _gender_select_tileset             gender_select_tileset
     00000910  G$inventory_bkg_tileset$0_0$0      inventory_bkg
     00000910  _inventory_bkg_tileset             inventory_bkg
     00000C50  G$inventory_bkg_tilemap$0_0$0      inventory_bkg
     00000C50  _inventory_bkg_tilemap             inventory_bkg
     00000DB8  G$bkg_main_menu_tileset$0_0$0      bkg_MainMenu
     00000DB8  _bkg_main_menu_tileset             bkg_MainMenu
     00001078  G$bkg_main_menu_tilemap$0_0$0      bkg_MainMenu
     00001078  _bkg_main_menu_tilemap             bkg_MainMenu
     000011E0  G$example_tileset$0_0$0            map_example
     000011E0  _example_tileset                   map_example
     00001690  G$example_tilemap$0_0$0            map_example
     00001690  _example_tilemap                   map_example
     000017F8  G$template_tilemap$0_0$0           template_tilemap
     000017F8  _template_tilemap                  template_tilemap
     00001960  G$template_tileset$0_0$0           template_tileset
     00001960  _template_tileset                  template_tileset
     00001B30  G$spr_Branch$0_0$0                 spr_Branch
     00001B30  _spr_Branch                        spr_Branch
     00001B40  A$lcc1754018$66                    action
     00001B40  C$action.c$12$0_0$150              action
     00001B40  G$move_up$0$0                      action
     00001B40  _move_up                           action
     00001B42  A$lcc1754018$67                    action
     00001B44  A$lcc1754018$68                    action
     00001B45  A$lcc1754018$72                    action
     00001B45  C$action.c$14$2_0$151              action
     00001B48  A$lcc1754018$73                    action
     00001B4A  A$lcc1754018$77                    action
     00001B4A  C$action.c$15$2_0$151              action
     00001B4C  A$lcc1754018$81                    action
     00001B4C  C$action.c$17$1_0$150              action
     00001B4E  A$lcc1754018$82                    action
     00001B4F  A$lcc1754018$83                    action
     00001B50  A$lcc1754018$84                    action
     00001B52  A$lcc1754018$85                    action
     00001B53  A$lcc1754018$86                    action
     00001B55  A$lcc1754018$87                    action
     00001B57  A$lcc1754018$88                    action
ASxxxx Linker V03.00/V05.40 + sdld,  page 6.
Hexadecimal  [32-Bits]

Area                                    Addr        Size        Decimal Bytes (Attributes)
--------------------------------        ----        ----        ------- ----- ------------
_CODE                               00000200    0000321D =       12829. bytes (REL,CON)

      Value  Global                              Global Defined In Module
      -----  --------------------------------   ------------------------
     00001B58  A$lcc1754018$89                    action
     00001B5B  A$lcc1754018$90                    action
     00001B5D  A$lcc1754018$91                    action
     00001B5E  A$lcc1754018$92                    action
     00001B5F  A$lcc1754018$93                    action
     00001B60  A$lcc1754018$94                    action
     00001B61  A$lcc1754018$95                    action
     00001B62  A$lcc1754018$96                    action
     00001B63  A$lcc1754018$97                    action
     00001B64  A$lcc1754018$98                    action
     00001B65  A$lcc1754018$99                    action
     00001B66  A$lcc1754018$100                   action
     00001B67  A$lcc1754018$101                   action
     00001B69  A$lcc1754018$102                   action
     00001B6A  A$lcc1754018$103                   action
     00001B6C  A$lcc1754018$104                   action
     00001B6D  A$lcc1754018$105                   action
     00001B6F  A$lcc1754018$106                   action
     00001B70  A$lcc1754018$107                   action
     00001B72  A$lcc1754018$108                   action
     00001B73  A$lcc1754018$109                   action
     00001B75  A$lcc1754018$110                   action
     00001B76  A$lcc1754018$111                   action
     00001B78  A$lcc1754018$112                   action
     00001B79  A$lcc1754018$113                   action
     00001B7A  A$lcc1754018$114                   action
     00001B7B  A$lcc1754018$115                   action
     00001B7C  A$lcc1754018$116                   action
     00001B7D  A$lcc1754018$117                   action
     00001B7E  A$lcc1754018$118                   action
     00001B7F  A$lcc1754018$119                   action
     00001B80  A$lcc1754018$120                   action
     00001B81  A$lcc1754018$121                   action
     00001B82  A$lcc1754018$122                   action
     00001B84  A$lcc1754018$123                   action
     00001B85  A$lcc1754018$124                   action
     00001B86  A$lcc1754018$125                   action
     00001B87  A$lcc1754018$126                   action
     00001B88  A$lcc1754018$127                   action
     00001B89  A$lcc1754018$128                   action
     00001B8A  A$lcc1754018$129                   action
     00001B8B  A$lcc1754018$130                   action
     00001B8C  A$lcc1754018$131                   action
     00001B8D  A$lcc1754018$132                   action
     00001B8E  A$lcc1754018$136                   action
     00001B8E  C$action.c$18$1_0$150              action
     00001B91  A$lcc1754018$137                   action
     00001B92  A$lcc1754018$138                   action
     00001B93  A$lcc1754018$139                   action
     00001B95  A$lcc1754018$140                   action
     00001B96  A$lcc1754018$141                   action
ASxxxx Linker V03.00/V05.40 + sdld,  page 7.
Hexadecimal  [32-Bits]

Area                                    Addr        Size        Decimal Bytes (Attributes)
--------------------------------        ----        ----        ------- ----- ------------
_CODE                               00000200    0000321D =       12829. bytes (REL,CON)

      Value  Global                              Global Defined In Module
      -----  --------------------------------   ------------------------
     00001B97  A$lcc1754018$142                   action
     00001B98  A$lcc1754018$143                   action
     00001B99  A$lcc1754018$144                   action
     00001B9A  A$lcc1754018$149                   action
     00001B9C  A$lcc1754018$154                   action
     00001B9C  C$action.c$19$1_0$150              action
     00001B9C  XG$move_up$0$0                     action
     00001B9D  A$lcc1754018$164                   action
     00001B9D  C$action.c$21$1_0$153              action
     00001B9D  G$move_down$0$0                    action
     00001B9D  _move_down                         action
     00001B9F  A$lcc1754018$165                   action
     00001BA1  A$lcc1754018$166                   action
     00001BA2  A$lcc1754018$170                   action
     00001BA2  C$action.c$23$2_0$154              action
     00001BA5  A$lcc1754018$171                   action
     00001BA7  A$lcc1754018$175                   action
     00001BA7  C$action.c$24$2_0$154              action
     00001BA9  A$lcc1754018$179                   action
     00001BA9  C$action.c$26$1_0$153              action
     00001BAB  A$lcc1754018$180                   action
     00001BAC  A$lcc1754018$181                   action
     00001BAD  A$lcc1754018$182                   action
     00001BAF  A$lcc1754018$183                   action
     00001BB0  A$lcc1754018$184                   action
     00001BB2  A$lcc1754018$185                   action
     00001BB4  A$lcc1754018$186                   action
     00001BB5  A$lcc1754018$187                   action
     00001BB8  A$lcc1754018$188                   action
     00001BBA  A$lcc1754018$189                   action
     00001BBB  A$lcc1754018$190                   action
     00001BBC  A$lcc1754018$191                   action
     00001BBD  A$lcc1754018$192                   action
     00001BBE  A$lcc1754018$193                   action
     00001BBF  A$lcc1754018$194                   action
     00001BC0  A$lcc1754018$195                   action
     00001BC1  A$lcc1754018$196                   action
     00001BC3  A$lcc1754018$197                   action
     00001BC4  A$lcc1754018$198                   action
     00001BC5  A$lcc1754018$199                   action
     00001BC7  A$lcc1754018$200                   action
     00001BC8  A$lcc1754018$201                   action
     00001BC9  A$lcc1754018$202                   action
     00001BCA  A$lcc1754018$203                   action
     00001BCB  A$lcc1754018$204                   action
     00001BCC  A$lcc1754018$205                   action
     00001BCD  A$lcc1754018$206                   action
     00001BCE  A$lcc1754018$207                   action
     00001BCF  A$lcc1754018$208                   action
     00001BD0  A$lcc1754018$209                   action
     00001BD1  A$lcc1754018$213                   action
ASxxxx Linker V03.00/V05.40 + sdld,  page 8.
Hexadecimal  [32-Bits]

Area                                    Addr        Size        Decimal Bytes (Attributes)
--------------------------------        ----        ----        ------- ----- ------------
_CODE                               00000200    0000321D =       12829. bytes (REL,CON)

      Value  Global                              Global Defined In Module
      -----  --------------------------------   ------------------------
     00001BD1  C$action.c$27$1_0$153              action
     00001BD4  A$lcc1754018$214                   action
     00001BD6  A$lcc1754018$215                   action
     00001BD7  A$lcc1754018$216                   action
     00001BD9  A$lcc1754018$217                   action
     00001BDA  A$lcc1754018$218                   action
     00001BDB  A$lcc1754018$219                   action
     00001BDC  A$lcc1754018$220                   action
     00001BDD  A$lcc1754018$221                   action
     00001BDE  A$lcc1754018$226                   action
     00001BE0  A$lcc1754018$231                   action
     00001BE0  C$action.c$28$1_0$153              action
     00001BE0  XG$move_down$0$0                   action
     00001BE1  A$lcc1754018$241                   action
     00001BE1  C$action.c$30$1_0$156              action
     00001BE1  G$move_left$0$0                    action
     00001BE1  _move_left                         action
     00001BE3  A$lcc1754018$242                   action
     00001BE5  A$lcc1754018$243                   action
     00001BE6  A$lcc1754018$247                   action
     00001BE6  C$action.c$32$2_0$157              action
     00001BE9  A$lcc1754018$248                   action
     00001BEB  A$lcc1754018$252                   action
     00001BEB  C$action.c$33$2_0$157              action
     00001BED  A$lcc1754018$256                   action
     00001BED  C$action.c$35$1_0$156              action
     00001BEF  A$lcc1754018$257                   action
     00001BF0  A$lcc1754018$258                   action
     00001BF1  A$lcc1754018$259                   action
     00001BF3  A$lcc1754018$260                   action
     00001BF4  A$lcc1754018$261                   action
     00001BF6  A$lcc1754018$262                   action
     00001BF8  A$lcc1754018$263                   action
     00001BF9  A$lcc1754018$264                   action
     00001BFC  A$lcc1754018$265                   action
     00001BFE  A$lcc1754018$266                   action
     00001BFF  A$lcc1754018$267                   action
     00001C00  A$lcc1754018$268                   action
     00001C01  A$lcc1754018$269                   action
     00001C02  A$lcc1754018$270                   action
     00001C03  A$lcc1754018$271                   action
     00001C04  A$lcc1754018$272                   action
     00001C05  A$lcc1754018$273                   action
     00001C06  A$lcc1754018$274                   action
     00001C07  A$lcc1754018$275                   action
     00001C08  A$lcc1754018$276                   action
     00001C0A  A$lcc1754018$277                   action
     00001C0B  A$lcc1754018$278                   action
     00001C0D  A$lcc1754018$279                   action
     00001C0E  A$lcc1754018$280                   action
     00001C10  A$lcc1754018$281                   action
ASxxxx Linker V03.00/V05.40 + sdld,  page 9.
Hexadecimal  [32-Bits]

Area                                    Addr        Size        Decimal Bytes (Attributes)
--------------------------------        ----        ----        ------- ----- ------------
_CODE                               00000200    0000321D =       12829. bytes (REL,CON)

      Value  Global                              Global Defined In Module
      -----  --------------------------------   ------------------------
     00001C11  A$lcc1754018$282                   action
     00001C13  A$lcc1754018$283                   action
     00001C14  A$lcc1754018$284                   action
     00001C16  A$lcc1754018$285                   action
     00001C17  A$lcc1754018$286                   action
     00001C19  A$lcc1754018$287                   action
     00001C1A  A$lcc1754018$288                   action
     00001C1B  A$lcc1754018$289                   action
     00001C1C  A$lcc1754018$290                   action
     00001C1D  A$lcc1754018$291                   action
     00001C1E  A$lcc1754018$292                   action
     00001C1F  A$lcc1754018$293                   action
     00001C20  A$lcc1754018$294                   action
     00001C21  A$lcc1754018$295                   action
     00001C22  A$lcc1754018$296                   action
     00001C23  A$lcc1754018$297                   action
     00001C25  A$lcc1754018$298                   action
     00001C26  A$lcc1754018$299                   action
     00001C27  A$lcc1754018$300                   action
     00001C28  A$lcc1754018$301                   action
     00001C29  A$lcc1754018$305                   action
     00001C29  C$action.c$36$1_0$156              action
     00001C2A  A$lcc1754018$306                   action
     00001C2B  A$lcc1754018$307                   action
     00001C2C  A$lcc1754018$308                   action
     00001C2D  A$lcc1754018$309                   action
     00001C2E  A$lcc1754018$310                   action
     00001C2F  A$lcc1754018$311                   action
     00001C30  A$lcc1754018$312                   action
     00001C31  A$lcc1754018$313                   action
     00001C34  A$lcc1754018$314                   action
     00001C35  A$lcc1754018$315                   action
     00001C37  A$lcc1754018$316                   action
     00001C38  A$lcc1754018$317                   action
     00001C39  A$lcc1754018$318                   action
     00001C3A  A$lcc1754018$319                   action
     00001C3B  A$lcc1754018$320                   action
     00001C3C  A$lcc1754018$321                   action
     00001C3D  A$lcc1754018$326                   action
     00001C3F  A$lcc1754018$331                   action
     00001C3F  C$action.c$37$1_0$156              action
     00001C3F  XG$move_left$0$0                   action
     00001C40  A$lcc1754018$341                   action
     00001C40  C$action.c$39$1_0$159              action
     00001C40  G$move_right$0$0                   action
     00001C40  _move_right                        action
     00001C42  A$lcc1754018$342                   action
     00001C44  A$lcc1754018$343                   action
     00001C45  A$lcc1754018$347                   action
     00001C45  C$action.c$41$2_0$160              action
     00001C48  A$lcc1754018$348                   action
ASxxxx Linker V03.00/V05.40 + sdld,  page 10.
Hexadecimal  [32-Bits]

Area                                    Addr        Size        Decimal Bytes (Attributes)
--------------------------------        ----        ----        ------- ----- ------------
_CODE                               00000200    0000321D =       12829. bytes (REL,CON)

      Value  Global                              Global Defined In Module
      -----  --------------------------------   ------------------------
     00001C4A  A$lcc1754018$352                   action
     00001C4A  C$action.c$42$2_0$160              action
     00001C4C  A$lcc1754018$356                   action
     00001C4C  C$action.c$44$1_0$159              action
     00001C4E  A$lcc1754018$357                   action
     00001C4F  A$lcc1754018$358                   action
     00001C50  A$lcc1754018$359                   action
     00001C52  A$lcc1754018$360                   action
     00001C53  A$lcc1754018$361                   action
     00001C55  A$lcc1754018$362                   action
     00001C57  A$lcc1754018$363                   action
     00001C58  A$lcc1754018$364                   action
     00001C5B  A$lcc1754018$365                   action
     00001C5D  A$lcc1754018$366                   action
     00001C5E  A$lcc1754018$367                   action
     00001C5F  A$lcc1754018$368                   action
     00001C60  A$lcc1754018$369                   action
     00001C61  A$lcc1754018$370                   action
     00001C62  A$lcc1754018$371                   action
     00001C63  A$lcc1754018$372                   action
     00001C64  A$lcc1754018$373                   action
     00001C66  A$lcc1754018$374                   action
     00001C67  A$lcc1754018$375                   action
     00001C68  A$lcc1754018$376                   action
     00001C6A  A$lcc1754018$377                   action
     00001C6B  A$lcc1754018$378                   action
     00001C6C  A$lcc1754018$379                   action
     00001C6D  A$lcc1754018$380                   action
     00001C6E  A$lcc1754018$381                   action
     00001C6F  A$lcc1754018$382                   action
     00001C70  A$lcc1754018$383                   action
     00001C71  A$lcc1754018$384                   action
     00001C72  A$lcc1754018$385                   action
     00001C73  A$lcc1754018$386                   action
     00001C74  A$lcc1754018$390                   action
     00001C74  C$action.c$45$1_0$159              action
     00001C75  A$lcc1754018$391                   action
     00001C78  A$lcc1754018$392                   action
     00001C7A  A$lcc1754018$393                   action
     00001C7B  A$lcc1754018$394                   action
     00001C7D  A$lcc1754018$395                   action
     00001C7E  A$lcc1754018$396                   action
     00001C7F  A$lcc1754018$397                   action
     00001C80  A$lcc1754018$398                   action
     00001C81  A$lcc1754018$399                   action
     00001C82  A$lcc1754018$400                   action
     00001C83  A$lcc1754018$405                   action
     00001C85  A$lcc1754018$410                   action
     00001C85  C$action.c$46$1_0$159              action
     00001C85  XG$move_right$0$0                  action
     00001C86  A$lcc1754018$420                   action
ASxxxx Linker V03.00/V05.40 + sdld,  page 11.
Hexadecimal  [32-Bits]

Area                                    Addr        Size        Decimal Bytes (Attributes)
--------------------------------        ----        ----        ------- ----- ------------
_CODE                               00000200    0000321D =       12829. bytes (REL,CON)

      Value  Global                              Global Defined In Module
      -----  --------------------------------   ------------------------
     00001C86  C$action.c$48$1_0$162              action
     00001C86  G$check_input$0$0                  action
     00001C86  _check_input                       action
     00001C87  A$lcc1754018$424                   action
     00001C87  C$action.c$50$1_0$162              action
     00001C8A  A$lcc1754018$425                   action
     00001C8D  A$lcc1754018$426                   action
     00001C8E  A$lcc1754018$430                   action
     00001C8E  C$action.c$52$2_0$163              action
     00001C90  A$lcc1754018$431                   action
     00001C92  A$lcc1754018$432                   action
     00001C95  A$lcc1754018$433                   action
     00001C97  A$lcc1754018$434                   action
     00001C99  A$lcc1754018$438                   action
     00001C99  C$action.c$54$3_0$164              action
     00001C9C  A$lcc1754018$439                   action
     00001C9F  A$lcc1754018$440                   action
     00001CA0  A$lcc1754018$441                   action
     00001CA1  A$lcc1754018$442                   action
     00001CA2  A$lcc1754018$443                   action
     00001CA3  A$lcc1754018$444                   action
     00001CA4  A$lcc1754018$445                   action
     00001CA5  A$lcc1754018$446                   action
     00001CA6  A$lcc1754018$447                   action
     00001CA9  A$lcc1754018$448                   action
     00001CAB  A$lcc1754018$449                   action
     00001CAC  A$lcc1754018$450                   action
     00001CAE  A$lcc1754018$451                   action
     00001CAF  A$lcc1754018$452                   action
     00001CB0  A$lcc1754018$453                   action
     00001CB3  A$lcc1754018$458                   action
     00001CB3  C$action.c$58$2_0$165              action
     00001CB6  A$lcc1754018$459                   action
     00001CB7  A$lcc1754018$460                   action
     00001CB9  A$lcc1754018$464                   action
     00001CBC  A$lcc1754018$468                   action
     00001CBC  C$action.c$60$4_0$167              action
     00001CBE  A$lcc1754018$469                   action
     00001CC0  A$lcc1754018$473                   action
     00001CC0  C$action.c$61$4_0$167              action
     00001CC3  A$lcc1754018$474                   action
     00001CC5  A$lcc1754018$475                   action
     00001CC7  A$lcc1754018$480                   action
     00001CC7  C$action.c$62$5_0$168              action
     00001CC9  A$lcc1754018$481                   action
     00001CCB  A$lcc1754018$485                   action
     00001CCB  C$action.c$63$5_0$168              action
     00001CCE  A$lcc1754018$486                   action
     00001CD0  A$lcc1754018$487                   action
     00001CD2  A$lcc1754018$492                   action
     00001CD2  C$action.c$64$6_0$169              action
ASxxxx Linker V03.00/V05.40 + sdld,  page 12.
Hexadecimal  [32-Bits]

Area                                    Addr        Size        Decimal Bytes (Attributes)
--------------------------------        ----        ----        ------- ----- ------------
_CODE                               00000200    0000321D =       12829. bytes (REL,CON)

      Value  Global                              Global Defined In Module
      -----  --------------------------------   ------------------------
     00001CD4  A$lcc1754018$493                   action
     00001CD6  A$lcc1754018$497                   action
     00001CD6  C$action.c$65$6_0$169              action
     00001CD9  A$lcc1754018$498                   action
     00001CDB  A$lcc1754018$499                   action
     00001CDD  A$lcc1754018$504                   action
     00001CDD  C$action.c$66$7_0$170              action
     00001CDE  A$lcc1754018$505                   action
     00001CE0  A$lcc1754018$509                   action
     00001CE0  C$action.c$67$7_0$170              action
     00001CE3  A$lcc1754018$510                   action
     00001CE5  A$lcc1754018$515                   action
     00001CE5  C$action.c$71$2_0$171              action
     00001CE8  A$lcc1754018$516                   action
     00001CE9  A$lcc1754018$517                   action
     00001CEB  A$lcc1754018$518                   action
     00001CEE  A$lcc1754018$519                   action
     00001CF0  A$lcc1754018$520                   action
     00001CF2  A$lcc1754018$521                   action
     00001CF4  A$lcc1754018$522                   action
     00001CF6  A$lcc1754018$523                   action
     00001CF8  A$lcc1754018$524                   action
     00001CFA  A$lcc1754018$525                   action
     00001CFC  A$lcc1754018$533                   action
     00001CFC  C$action.c$73$3_0$172              action
     00001CFC  C$action.c$74$3_0$172              action
     00001CFF  A$lcc1754018$534                   action
     00001D02  A$lcc1754018$538                   action
     00001D02  C$action.c$75$3_0$172              action
     00001D05  A$lcc1754018$539                   action
     00001D07  A$lcc1754018$540                   action
     00001D08  A$lcc1754018$541                   action
     00001D0B  A$lcc1754018$542                   action
     00001D0C  A$lcc1754018$543                   action
     00001D0E  A$lcc1754018$544                   action
     00001D0F  A$lcc1754018$545                   action
     00001D10  A$lcc1754018$546                   action
     00001D11  A$lcc1754018$547                   action
     00001D12  A$lcc1754018$548                   action
     00001D13  A$lcc1754018$549                   action
     00001D14  A$lcc1754018$550                   action
     00001D15  A$lcc1754018$551                   action
     00001D16  A$lcc1754018$552                   action
     00001D17  A$lcc1754018$553                   action
     00001D1A  A$lcc1754018$554                   action
     00001D1B  A$lcc1754018$555                   action
     00001D1C  A$lcc1754018$556                   action
     00001D1D  A$lcc1754018$557                   action
     00001D1F  A$lcc1754018$558                   action
     00001D20  A$lcc1754018$559                   action
     00001D23  A$lcc1754018$563                   action
ASxxxx Linker V03.00/V05.40 + sdld,  page 13.
Hexadecimal  [32-Bits]

Area                                    Addr        Size        Decimal Bytes (Attributes)
--------------------------------        ----        ----        ------- ----- ------------
_CODE                               00000200    0000321D =       12829. bytes (REL,CON)

      Value  Global                              Global Defined In Module
      -----  --------------------------------   ------------------------
     00001D23  C$action.c$76$3_0$172              action
     00001D25  A$lcc1754018$571                   action
     00001D25  C$action.c$77$3_0$172              action
     00001D25  C$action.c$78$3_0$172              action
     00001D28  A$lcc1754018$572                   action
     00001D2B  A$lcc1754018$576                   action
     00001D2B  C$action.c$79$3_0$172              action
     00001D2E  A$lcc1754018$577                   action
     00001D30  A$lcc1754018$578                   action
     00001D31  A$lcc1754018$579                   action
     00001D34  A$lcc1754018$580                   action
     00001D35  A$lcc1754018$581                   action
     00001D37  A$lcc1754018$582                   action
     00001D38  A$lcc1754018$583                   action
     00001D39  A$lcc1754018$584                   action
     00001D3A  A$lcc1754018$585                   action
     00001D3B  A$lcc1754018$586                   action
     00001D3C  A$lcc1754018$587                   action
     00001D3D  A$lcc1754018$588                   action
     00001D3E  A$lcc1754018$589                   action
     00001D3F  A$lcc1754018$590                   action
     00001D40  A$lcc1754018$591                   action
     00001D43  A$lcc1754018$592                   action
     00001D44  A$lcc1754018$593                   action
     00001D45  A$lcc1754018$594                   action
     00001D46  A$lcc1754018$595                   action
     00001D48  A$lcc1754018$596                   action
     00001D49  A$lcc1754018$597                   action
     00001D4C  A$lcc1754018$601                   action
     00001D4C  C$action.c$80$3_0$172              action
     00001D4E  A$lcc1754018$609                   action
     00001D4E  C$action.c$81$3_0$172              action
     00001D4E  C$action.c$82$3_0$172              action
     00001D51  A$lcc1754018$610                   action
     00001D54  A$lcc1754018$614                   action
     00001D54  C$action.c$83$3_0$172              action
     00001D56  A$lcc1754018$622                   action
     00001D56  C$action.c$84$3_0$172              action
     00001D56  C$action.c$85$3_0$172              action
     00001D59  A$lcc1754018$623                   action
     00001D5C  A$lcc1754018$631                   action
     00001D5C  C$action.c$89$2_0$171              action
     00001D5C  C$action.c$92$2_0$173              action
     00001D5F  A$lcc1754018$632                   action
     00001D60  A$lcc1754018$633                   action
     00001D62  A$lcc1754018$634                   action
     00001D65  A$lcc1754018$635                   action
     00001D67  A$lcc1754018$636                   action
     00001D69  A$lcc1754018$640                   action
     00001D69  C$action.c$94$3_0$174              action
     00001D6A  A$lcc1754018$641                   action
ASxxxx Linker V03.00/V05.40 + sdld,  page 14.
Hexadecimal  [32-Bits]

Area                                    Addr        Size        Decimal Bytes (Attributes)
--------------------------------        ----        ----        ------- ----- ------------
_CODE                               00000200    0000321D =       12829. bytes (REL,CON)

      Value  Global                              Global Defined In Module
      -----  --------------------------------   ------------------------
     00001D6D  A$lcc1754018$645                   action
     00001D6D  C$action.c$95$3_0$174              action
     00001D70  A$lcc1754018$646                   action
     00001D72  A$lcc1754018$647                   action
     00001D73  A$lcc1754018$648                   action
     00001D76  A$lcc1754018$649                   action
     00001D77  A$lcc1754018$650                   action
     00001D79  A$lcc1754018$651                   action
     00001D7A  A$lcc1754018$652                   action
     00001D7B  A$lcc1754018$653                   action
     00001D7C  A$lcc1754018$654                   action
     00001D7D  A$lcc1754018$655                   action
     00001D7E  A$lcc1754018$656                   action
     00001D7F  A$lcc1754018$657                   action
     00001D80  A$lcc1754018$658                   action
     00001D81  A$lcc1754018$659                   action
     00001D82  A$lcc1754018$660                   action
     00001D85  A$lcc1754018$661                   action
     00001D86  A$lcc1754018$662                   action
     00001D87  A$lcc1754018$663                   action
     00001D88  A$lcc1754018$664                   action
     00001D8A  A$lcc1754018$665                   action
     00001D8B  A$lcc1754018$666                   action
     00001D8E  A$lcc1754018$671                   action
     00001D8E  C$action.c$98$2_0$175              action
     00001D91  A$lcc1754018$672                   action
     00001D93  A$lcc1754018$673                   action
     00001D95  A$lcc1754018$674                   action
     00001D98  A$lcc1754018$675                   action
     00001D9A  A$lcc1754018$676                   action
     00001D9C  A$lcc1754018$680                   action
     00001D9C  C$action.c$100$3_0$176             action
     00001D9D  A$lcc1754018$681                   action
     00001DA0  A$lcc1754018$685                   action
     00001DA0  C$action.c$101$3_0$176             action
     00001DA3  A$lcc1754018$686                   action
     00001DA5  A$lcc1754018$687                   action
     00001DA6  A$lcc1754018$688                   action
     00001DA9  A$lcc1754018$689                   action
     00001DAA  A$lcc1754018$690                   action
     00001DAC  A$lcc1754018$691                   action
     00001DAD  A$lcc1754018$692                   action
     00001DAE  A$lcc1754018$693                   action
     00001DAF  A$lcc1754018$694                   action
     00001DB0  A$lcc1754018$695                   action
     00001DB1  A$lcc1754018$696                   action
     00001DB2  A$lcc1754018$697                   action
     00001DB3  A$lcc1754018$698                   action
     00001DB4  A$lcc1754018$699                   action
     00001DB5  A$lcc1754018$700                   action
     00001DB8  A$lcc1754018$701                   action
ASxxxx Linker V03.00/V05.40 + sdld,  page 15.
Hexadecimal  [32-Bits]

Area                                    Addr        Size        Decimal Bytes (Attributes)
--------------------------------        ----        ----        ------- ----- ------------
_CODE                               00000200    0000321D =       12829. bytes (REL,CON)

      Value  Global                              Global Defined In Module
      -----  --------------------------------   ------------------------
     00001DB9  A$lcc1754018$702                   action
     00001DBA  A$lcc1754018$703                   action
     00001DBB  A$lcc1754018$704                   action
     00001DBD  A$lcc1754018$705                   action
     00001DBE  A$lcc1754018$706                   action
     00001DC1  A$lcc1754018$711                   action
     00001DC1  C$action.c$52$1_0$162              action
     00001DC4  A$lcc1754018$712                   action
     00001DC5  A$lcc1754018$716                   action
     00001DC5  C$action.c$104$2_0$177             action
     00001DC8  A$lcc1754018$717                   action
     00001DCA  A$lcc1754018$718                   action
     00001DCC  A$lcc1754018$719                   action
     00001DCE  A$lcc1754018$720                   action
     00001DD0  A$lcc1754018$724                   action
     00001DD0  C$action.c$105$2_0$177             action
     00001DD1  A$lcc1754018$725                   action
     00001DD4  A$lcc1754018$730                   action
     00001DD4  C$action.c$106$2_0$178             action
     00001DD7  A$lcc1754018$731                   action
     00001DD9  A$lcc1754018$732                   action
     00001DDB  A$lcc1754018$733                   action
     00001DDD  A$lcc1754018$734                   action
     00001DDF  A$lcc1754018$738                   action
     00001DDF  C$action.c$107$2_0$178             action
     00001DE0  A$lcc1754018$739                   action
     00001DE3  A$lcc1754018$744                   action
     00001DE3  C$action.c$109$1_0$162             action
     00001DE6  A$lcc1754018$745                   action
     00001DE9  A$lcc1754018$749                   action
     00001DEA  A$lcc1754018$754                   action
     00001DEA  C$action.c$110$1_0$162             action
     00001DEA  XG$check_input$0$0                 action
     00001DEB  A$lcc1754019$59                    animation
     00001DEB  C$animation.c$7$0_0$135            animation
     00001DEB  G$init_animation$0$0               animation
     00001DEB  _init_animation                    animation
     00001DED  A$lcc1754019$60                    animation
     00001DEF  A$lcc1754019$61                    animation
     00001DF0  A$lcc1754019$62                    animation
     00001DF1  A$lcc1754019$63                    animation
     00001DF2  A$lcc1754019$64                    animation
     00001DF3  A$lcc1754019$65                    animation
     00001DF4  A$lcc1754019$69                    animation
     00001DF4  C$animation.c$12$1_0$135           animation
     00001DF6  A$lcc1754019$70                    animation
     00001DF7  A$lcc1754019$71                    animation
     00001DF8  A$lcc1754019$72                    animation
     00001DF9  A$lcc1754019$73                    animation
     00001DFA  A$lcc1754019$74                    animation
     00001DFB  A$lcc1754019$75                    animation
ASxxxx Linker V03.00/V05.40 + sdld,  page 16.
Hexadecimal  [32-Bits]

Area                                    Addr        Size        Decimal Bytes (Attributes)
--------------------------------        ----        ----        ------- ----- ------------
_CODE                               00000200    0000321D =       12829. bytes (REL,CON)

      Value  Global                              Global Defined In Module
      -----  --------------------------------   ------------------------
     00001DFC  A$lcc1754019$76                    animation
     00001DFE  A$lcc1754019$77                    animation
     00001E00  A$lcc1754019$78                    animation
     00001E01  A$lcc1754019$79                    animation
     00001E02  A$lcc1754019$80                    animation
     00001E03  A$lcc1754019$81                    animation
     00001E04  A$lcc1754019$82                    animation
     00001E05  A$lcc1754019$83                    animation
     00001E06  A$lcc1754019$87                    animation
     00001E06  C$animation.c$14$1_0$135           animation
     00001E07  A$lcc1754019$88                    animation
     00001E08  A$lcc1754019$89                    animation
     00001E09  A$lcc1754019$90                    animation
     00001E0B  A$lcc1754019$91                    animation
     00001E0C  A$lcc1754019$92                    animation
     00001E0D  A$lcc1754019$96                    animation
     00001E0D  C$animation.c$15$1_0$135           animation
     00001E0E  A$lcc1754019$97                    animation
     00001E0F  A$lcc1754019$98                    animation
     00001E10  A$lcc1754019$99                    animation
     00001E11  A$lcc1754019$100                   animation
     00001E12  A$lcc1754019$101                   animation
     00001E13  A$lcc1754019$102                   animation
     00001E15  A$lcc1754019$103                   animation
     00001E16  A$lcc1754019$104                   animation
     00001E17  A$lcc1754019$105                   animation
     00001E18  A$lcc1754019$109                   animation
     00001E18  C$animation.c$16$1_0$135           animation
     00001E1B  A$lcc1754019$110                   animation
     00001E1C  A$lcc1754019$111                   animation
     00001E1E  A$lcc1754019$115                   animation
     00001E1E  C$animation.c$17$1_0$135           animation
     00001E1F  A$lcc1754019$116                   animation
     00001E20  A$lcc1754019$117                   animation
     00001E21  A$lcc1754019$118                   animation
     00001E22  A$lcc1754019$119                   animation
     00001E24  A$lcc1754019$123                   animation
     00001E24  C$animation.c$18$1_0$135           animation
     00001E27  A$lcc1754019$124                   animation
     00001E28  A$lcc1754019$125                   animation
     00001E29  A$lcc1754019$126                   animation
     00001E2B  A$lcc1754019$127                   animation
     00001E2C  A$lcc1754019$128                   animation
     00001E2D  A$lcc1754019$129                   animation
     00001E2E  A$lcc1754019$133                   animation
     00001E2E  C$animation.c$21$1_0$135           animation
     00001E2F  A$lcc1754019$134                   animation
     00001E30  A$lcc1754019$135                   animation
     00001E31  A$lcc1754019$136                   animation
     00001E32  A$lcc1754019$137                   animation
     00001E34  A$lcc1754019$138                   animation
ASxxxx Linker V03.00/V05.40 + sdld,  page 17.
Hexadecimal  [32-Bits]

Area                                    Addr        Size        Decimal Bytes (Attributes)
--------------------------------        ----        ----        ------- ----- ------------
_CODE                               00000200    0000321D =       12829. bytes (REL,CON)

      Value  Global                              Global Defined In Module
      -----  --------------------------------   ------------------------
     00001E35  A$lcc1754019$139                   animation
     00001E36  A$lcc1754019$140                   animation
     00001E37  A$lcc1754019$141                   animation
     00001E38  A$lcc1754019$142                   animation
     00001E3B  A$lcc1754019$143                   animation
     00001E3C  A$lcc1754019$144                   animation
     00001E3D  A$lcc1754019$145                   animation
     00001E3E  A$lcc1754019$146                   animation
     00001E40  A$lcc1754019$147                   animation
     00001E41  A$lcc1754019$148                   animation
     00001E42  A$lcc1754019$149                   animation
     00001E43  A$lcc1754019$150                   animation
     00001E45  A$lcc1754019$151                   animation
     00001E46  A$lcc1754019$152                   animation
     00001E49  A$lcc1754019$153                   animation
     00001E4A  A$lcc1754019$154                   animation
     00001E4B  A$lcc1754019$155                   animation
     00001E4C  A$lcc1754019$156                   animation
     00001E4D  A$lcc1754019$160                   animation
     00001E4D  C$animation.c$24$2_0$135           animation
     00001E4F  A$lcc1754019$162                   animation
     00001E50  A$lcc1754019$163                   animation
     00001E51  A$lcc1754019$164                   animation
     00001E52  A$lcc1754019$165                   animation
     00001E53  A$lcc1754019$166                   animation
     00001E55  A$lcc1754019$167                   animation
     00001E56  A$lcc1754019$168                   animation
     00001E58  A$lcc1754019$173                   animation
     00001E58  C$animation.c$32$2_0$138           animation
     00001E5A  A$lcc1754019$174                   animation
     00001E5B  A$lcc1754019$175                   animation
     00001E5C  A$lcc1754019$176                   animation
     00001E5D  A$lcc1754019$177                   animation
     00001E60  A$lcc1754019$178                   animation
     00001E61  A$lcc1754019$179                   animation
     00001E62  A$lcc1754019$180                   animation
     00001E63  A$lcc1754019$181                   animation
     00001E64  A$lcc1754019$182                   animation
     00001E65  A$lcc1754019$183                   animation
     00001E67  A$lcc1754019$187                   animation
     00001E67  C$animation.c$33$2_0$138           animation
     00001E69  A$lcc1754019$188                   animation
     00001E6A  A$lcc1754019$189                   animation
     00001E6B  A$lcc1754019$194                   animation
     00001E6B  C$animation.c$34$2_0$135           animation
     00001E6D  A$lcc1754019$195                   animation
     00001E6E  A$lcc1754019$196                   animation
     00001E70  A$lcc1754019$197                   animation
     00001E71  A$lcc1754019$207                   animation
     00001E71  C$animation.c$36$2_0$140           animation
     00001E71  G$update_animation$0$0             animation
ASxxxx Linker V03.00/V05.40 + sdld,  page 18.
Hexadecimal  [32-Bits]

Area                                    Addr        Size        Decimal Bytes (Attributes)
--------------------------------        ----        ----        ------- ----- ------------
_CODE                               00000200    0000321D =       12829. bytes (REL,CON)

      Value  Global                              Global Defined In Module
      -----  --------------------------------   ------------------------
     00001E71  _update_animation                  animation
     00001E72  A$lcc1754019$208                   animation
     00001E73  A$lcc1754019$209                   animation
     00001E74  A$lcc1754019$210                   animation
     00001E75  A$lcc1754019$214                   animation
     00001E75  C$animation.c$38$1_0$140           animation
     00001E78  A$lcc1754019$215                   animation
     00001E79  A$lcc1754019$216                   animation
     00001E7A  A$lcc1754019$217                   animation
     00001E7B  A$lcc1754019$218                   animation
     00001E7C  A$lcc1754019$219                   animation
     00001E7D  A$lcc1754019$220                   animation
     00001E7E  A$lcc1754019$221                   animation
     00001E7F  A$lcc1754019$222                   animation
     00001E80  A$lcc1754019$223                   animation
     00001E82  A$lcc1754019$224                   animation
     00001E83  A$lcc1754019$225                   animation
     00001E84  A$lcc1754019$229                   animation
     00001E84  C$animation.c$40$1_0$140           animation
     00001E87  A$lcc1754019$230                   animation
     00001E88  A$lcc1754019$231                   animation
     00001E89  A$lcc1754019$232                   animation
     00001E8A  A$lcc1754019$233                   animation
     00001E8B  A$lcc1754019$234                   animation
     00001E8C  A$lcc1754019$235                   animation
     00001E8E  A$lcc1754019$236                   animation
     00001E8F  A$lcc1754019$237                   animation
     00001E90  A$lcc1754019$241                   animation
     00001E90  C$animation.c$41$2_0$141           animation
     00001E91  A$lcc1754019$242                   animation
     00001E92  A$lcc1754019$243                   animation
     00001E93  A$lcc1754019$244                   animation
     00001E94  A$lcc1754019$245                   animation
     00001E95  A$lcc1754019$246                   animation
     00001E96  A$lcc1754019$247                   animation
     00001E98  A$lcc1754019$248                   animation
     00001E99  A$lcc1754019$249                   animation
     00001E9B  A$lcc1754019$250                   animation
     00001E9C  A$lcc1754019$251                   animation
     00001E9D  A$lcc1754019$252                   animation
     00001E9F  A$lcc1754019$256                   animation
     00001E9F  C$animation.c$43$3_0$142           animation
     00001EA0  A$lcc1754019$257                   animation
     00001EA1  A$lcc1754019$261                   animation
     00001EA1  C$animation.c$44$3_0$142           animation
     00001EA2  A$lcc1754019$262                   animation
     00001EA3  A$lcc1754019$263                   animation
     00001EA4  A$lcc1754019$264                   animation
     00001EA5  A$lcc1754019$265                   animation
     00001EA6  A$lcc1754019$266                   animation
     00001EA7  A$lcc1754019$270                   animation
ASxxxx Linker V03.00/V05.40 + sdld,  page 19.
Hexadecimal  [32-Bits]

Area                                    Addr        Size        Decimal Bytes (Attributes)
--------------------------------        ----        ----        ------- ----- ------------
_CODE                               00000200    0000321D =       12829. bytes (REL,CON)

      Value  Global                              Global Defined In Module
      -----  --------------------------------   ------------------------
     00001EA7  C$animation.c$45$4_0$143           animation
     00001EA8  A$lcc1754019$271                   animation
     00001EA9  A$lcc1754019$272                   animation
     00001EAA  A$lcc1754019$273                   animation
     00001EAB  A$lcc1754019$274                   animation
     00001EAC  A$lcc1754019$275                   animation
     00001EAE  A$lcc1754019$279                   animation
     00001EAE  C$animation.c$46$4_0$143           animation
     00001EB0  A$lcc1754019$284                   animation
     00001EB1  A$lcc1754019$285                   animation
     00001EB2  A$lcc1754019$290                   animation
     00001EB2  C$animation.c$48$2_0$140           animation
     00001EB2  XG$update_animation$0$0            animation
     00001EB3  A$lcc1754019$300                   animation
     00001EB3  C$animation.c$50$2_0$145           animation
     00001EB3  G$set_animation$0$0                animation
     00001EB3  _set_animation                     animation
     00001EB4  A$lcc1754019$301                   animation
     00001EB5  A$lcc1754019$302                   animation
     00001EB6  A$lcc1754019$306                   animation
     00001EB6  C$animation.c$52$2_0$146           animation
     00001EB7  A$lcc1754019$307                   animation
     00001EB9  A$lcc1754019$308                   animation
     00001EBA  A$lcc1754019$309                   animation
     00001EBB  A$lcc1754019$310                   animation
     00001EBD  A$lcc1754019$311                   animation
     00001EBE  A$lcc1754019$312                   animation
     00001EBF  A$lcc1754019$313                   animation
     00001EC0  A$lcc1754019$314                   animation
     00001EC1  A$lcc1754019$321                   animation
     00001EC1  C$animation.c$53$2_0$146           animation
     00001EC1  C$animation.c$55$1_0$145           animation
     00001EC2  A$lcc1754019$322                   animation
     00001EC3  A$lcc1754019$326                   animation
     00001EC3  C$animation.c$56$1_1$147           animation
     00001EC4  A$lcc1754019$327                   animation
     00001EC5  A$lcc1754019$328                   animation
     00001EC6  A$lcc1754019$329                   animation
     00001EC7  A$lcc1754019$330                   animation
     00001EC9  A$lcc1754019$331                   animation
     00001ECA  A$lcc1754019$335                   animation
     00001ECA  C$animation.c$57$1_1$147           animation
     00001ECB  A$lcc1754019$336                   animation
     00001ECC  A$lcc1754019$337                   animation
     00001ECD  A$lcc1754019$338                   animation
     00001ECE  A$lcc1754019$339                   animation
     00001ECF  A$lcc1754019$340                   animation
     00001ED0  A$lcc1754019$344                   animation
     00001ED0  C$animation.c$58$1_1$147           animation
     00001ED3  A$lcc1754019$345                   animation
     00001ED4  A$lcc1754019$346                   animation
ASxxxx Linker V03.00/V05.40 + sdld,  page 20.
Hexadecimal  [32-Bits]

Area                                    Addr        Size        Decimal Bytes (Attributes)
--------------------------------        ----        ----        ------- ----- ------------
_CODE                               00000200    0000321D =       12829. bytes (REL,CON)

      Value  Global                              Global Defined In Module
      -----  --------------------------------   ------------------------
     00001ED6  A$lcc1754019$354                   animation
     00001ED6  C$animation.c$59$1_1$145           animation
     00001ED6  XG$set_animation$0$0               animation
     00001ED7  A$lcc1754021$52                    char_to_tile
     00001ED7  C$char_to_tile.c$3$0_0$3           char_to_tile
     00001ED7  G$char_to_tile$0$0                 char_to_tile
     00001ED7  _char_to_tile                      char_to_tile
     00001ED9  A$lcc1754021$53                    char_to_tile
     00001EDB  A$lcc1754021$54                    char_to_tile
     00001EDC  A$lcc1754021$58                    char_to_tile
     00001EDC  C$char_to_tile.c$4$2_0$3           char_to_tile
     00001EDE  A$lcc1754021$59                    char_to_tile
     00001EE0  A$lcc1754021$60                    char_to_tile
     00001EE1  A$lcc1754021$61                    char_to_tile
     00001EE3  A$lcc1754021$62                    char_to_tile
     00001EE4  A$lcc1754021$63                    char_to_tile
     00001EE6  A$lcc1754021$64                    char_to_tile
     00001EE7  A$lcc1754021$65                    char_to_tile
     00001EE9  A$lcc1754021$66                    char_to_tile
     00001EEA  A$lcc1754021$67                    char_to_tile
     00001EEC  A$lcc1754021$68                    char_to_tile
     00001EED  A$lcc1754021$69                    char_to_tile
     00001EEF  A$lcc1754021$70                    char_to_tile
     00001EF0  A$lcc1754021$71                    char_to_tile
     00001EF2  A$lcc1754021$72                    char_to_tile
     00001EF3  A$lcc1754021$73                    char_to_tile
     00001EF5  A$lcc1754021$74                    char_to_tile
     00001EF6  A$lcc1754021$75                    char_to_tile
     00001EF8  A$lcc1754021$76                    char_to_tile
     00001EF9  A$lcc1754021$77                    char_to_tile
     00001EFB  A$lcc1754021$78                    char_to_tile
     00001EFC  A$lcc1754021$79                    char_to_tile
     00001EFE  A$lcc1754021$80                    char_to_tile
     00001EFF  A$lcc1754021$81                    char_to_tile
     00001F01  A$lcc1754021$82                    char_to_tile
     00001F02  A$lcc1754021$83                    char_to_tile
     00001F04  A$lcc1754021$84                    char_to_tile
     00001F05  A$lcc1754021$85                    char_to_tile
     00001F07  A$lcc1754021$86                    char_to_tile
     00001F08  A$lcc1754021$87                    char_to_tile
     00001F0A  A$lcc1754021$88                    char_to_tile
     00001F0B  A$lcc1754021$89                    char_to_tile
     00001F0D  A$lcc1754021$90                    char_to_tile
     00001F0E  A$lcc1754021$91                    char_to_tile
     00001F10  A$lcc1754021$92                    char_to_tile
     00001F11  A$lcc1754021$93                    char_to_tile
     00001F13  A$lcc1754021$94                    char_to_tile
     00001F14  A$lcc1754021$95                    char_to_tile
     00001F16  A$lcc1754021$96                    char_to_tile
     00001F17  A$lcc1754021$97                    char_to_tile
     00001F19  A$lcc1754021$98                    char_to_tile
ASxxxx Linker V03.00/V05.40 + sdld,  page 21.
Hexadecimal  [32-Bits]

Area                                    Addr        Size        Decimal Bytes (Attributes)
--------------------------------        ----        ----        ------- ----- ------------
_CODE                               00000200    0000321D =       12829. bytes (REL,CON)

      Value  Global                              Global Defined In Module
      -----  --------------------------------   ------------------------
     00001F1A  A$lcc1754021$99                    char_to_tile
     00001F1C  A$lcc1754021$100                   char_to_tile
     00001F1D  A$lcc1754021$101                   char_to_tile
     00001F1F  A$lcc1754021$102                   char_to_tile
     00001F20  A$lcc1754021$103                   char_to_tile
     00001F22  A$lcc1754021$104                   char_to_tile
     00001F23  A$lcc1754021$105                   char_to_tile
     00001F25  A$lcc1754021$106                   char_to_tile
     00001F26  A$lcc1754021$107                   char_to_tile
     00001F28  A$lcc1754021$108                   char_to_tile
     00001F29  A$lcc1754021$109                   char_to_tile
     00001F2B  A$lcc1754021$110                   char_to_tile
     00001F2C  A$lcc1754021$111                   char_to_tile
     00001F2E  A$lcc1754021$112                   char_to_tile
     00001F2F  A$lcc1754021$113                   char_to_tile
     00001F31  A$lcc1754021$114                   char_to_tile
     00001F32  A$lcc1754021$115                   char_to_tile
     00001F34  A$lcc1754021$116                   char_to_tile
     00001F35  A$lcc1754021$117                   char_to_tile
     00001F37  A$lcc1754021$118                   char_to_tile
     00001F38  A$lcc1754021$122                   char_to_tile
     00001F38  C$char_to_tile.c$5$3_0$4           char_to_tile
     00001F39  A$lcc1754021$123                   char_to_tile
     00001F3A  A$lcc1754021$124                   char_to_tile
     00001F3B  A$lcc1754021$125                   char_to_tile
     00001F3C  A$lcc1754021$126                   char_to_tile
     00001F3F  A$lcc1754021$128                   char_to_tile
     00001F40  A$lcc1754021$129                   char_to_tile
     00001F42  A$lcc1754021$130                   char_to_tile
     00001F44  A$lcc1754021$134                   char_to_tile
     00001F44  C$char_to_tile.c$6$4_0$6           char_to_tile
     00001F47  A$lcc1754021$135                   char_to_tile
     00001F48  A$lcc1754021$136                   char_to_tile
     00001F49  A$lcc1754021$137                   char_to_tile
     00001F4A  A$lcc1754021$138                   char_to_tile
     00001F4C  A$lcc1754021$139                   char_to_tile
     00001F4D  A$lcc1754021$140                   char_to_tile
     00001F4E  A$lcc1754021$141                   char_to_tile
     00001F50  A$lcc1754021$145                   char_to_tile
     00001F50  C$char_to_tile.c$7$5_0$7           char_to_tile
     00001F52  A$lcc1754021$146                   char_to_tile
     00001F53  A$lcc1754021$147                   char_to_tile
     00001F55  A$lcc1754021$148                   char_to_tile
     00001F56  A$lcc1754021$149                   char_to_tile
     00001F58  A$lcc1754021$154                   char_to_tile
     00001F58  C$char_to_tile.c$5$2_0$4           char_to_tile
     00001F59  A$lcc1754021$155                   char_to_tile
     00001F5B  A$lcc1754021$156                   char_to_tile
     00001F5C  A$lcc1754021$157                   char_to_tile
     00001F5D  A$lcc1754021$158                   char_to_tile
     00001F5E  A$lcc1754021$159                   char_to_tile
ASxxxx Linker V03.00/V05.40 + sdld,  page 22.
Hexadecimal  [32-Bits]

Area                                    Addr        Size        Decimal Bytes (Attributes)
--------------------------------        ----        ----        ------- ----- ------------
_CODE                               00000200    0000321D =       12829. bytes (REL,CON)

      Value  Global                              Global Defined In Module
      -----  --------------------------------   ------------------------
     00001F60  A$lcc1754021$164                   char_to_tile
     00001F60  C$char_to_tile.c$11$1_0$3          char_to_tile
     00001F63  A$lcc1754021$169                   char_to_tile
     00001F65  A$lcc1754021$174                   char_to_tile
     00001F65  C$char_to_tile.c$12$1_0$3          char_to_tile
     00001F65  XG$char_to_tile$0$0                char_to_tile
     00001F66  A$lcc1754022$52                    draw
     00001F66  C$draw.c$6$0_0$136                 draw
     00001F66  G$draw_actor$0$0                   draw
     00001F66  _draw_actor                        draw
     00001F68  A$lcc1754022$53                    draw
     00001F6A  A$lcc1754022$54                    draw
     00001F6B  A$lcc1754022$58                    draw
     00001F6B  C$draw.c$8$1_0$136                 draw
     00001F6E  A$lcc1754022$59                    draw
     00001F6F  A$lcc1754022$60                    draw
     00001F71  A$lcc1754022$61                    draw
     00001F72  A$lcc1754022$62                    draw
     00001F73  A$lcc1754022$63                    draw
     00001F74  A$lcc1754022$64                    draw
     00001F75  A$lcc1754022$65                    draw
     00001F77  A$lcc1754022$66                    draw
     00001F78  A$lcc1754022$70                    draw
     00001F78  C$draw.c$9$1_0$136                 draw
     00001F7B  A$lcc1754022$71                    draw
     00001F7D  A$lcc1754022$72                    draw
     00001F7E  A$lcc1754022$73                    draw
     00001F80  A$lcc1754022$74                    draw
     00001F81  A$lcc1754022$75                    draw
     00001F82  A$lcc1754022$76                    draw
     00001F83  A$lcc1754022$77                    draw
     00001F84  A$lcc1754022$78                    draw
     00001F86  A$lcc1754022$79                    draw
     00001F87  A$lcc1754022$83                    draw
     00001F87  C$draw.c$11$1_0$136                draw
     00001F8A  A$lcc1754022$84                    draw
     00001F8C  A$lcc1754022$85                    draw
     00001F8D  A$lcc1754022$86                    draw
     00001F8F  A$lcc1754022$87                    draw
     00001F90  A$lcc1754022$88                    draw
     00001F91  A$lcc1754022$89                    draw
     00001F92  A$lcc1754022$90                    draw
     00001F93  A$lcc1754022$91                    draw
     00001F94  A$lcc1754022$92                    draw
     00001F95  A$lcc1754022$93                    draw
     00001F96  A$lcc1754022$94                    draw
     00001F97  A$lcc1754022$95                    draw
     00001F98  A$lcc1754022$96                    draw
     00001F99  A$lcc1754022$97                    draw
     00001F9A  A$lcc1754022$98                    draw
     00001F9B  A$lcc1754022$102                   draw
ASxxxx Linker V03.00/V05.40 + sdld,  page 23.
Hexadecimal  [32-Bits]

Area                                    Addr        Size        Decimal Bytes (Attributes)
--------------------------------        ----        ----        ------- ----- ------------
_CODE                               00000200    0000321D =       12829. bytes (REL,CON)

      Value  Global                              Global Defined In Module
      -----  --------------------------------   ------------------------
     00001F9B  C$draw.c$12$1_0$136                draw
     00001F9E  A$lcc1754022$103                   draw
     00001F9F  A$lcc1754022$104                   draw
     00001FA0  A$lcc1754022$105                   draw
     00001FA1  A$lcc1754022$106                   draw
     00001FA2  A$lcc1754022$107                   draw
     00001FA3  A$lcc1754022$108                   draw
     00001FA4  A$lcc1754022$109                   draw
     00001FA5  A$lcc1754022$110                   draw
     00001FA6  A$lcc1754022$111                   draw
     00001FA8  A$lcc1754022$112                   draw
     00001FA9  A$lcc1754022$113                   draw
     00001FAA  A$lcc1754022$117                   draw
     00001FAA  C$draw.c$14$1_0$136                draw
     00001FAD  A$lcc1754022$118                   draw
     00001FAE  A$lcc1754022$119                   draw
     00001FAF  A$lcc1754022$120                   draw
     00001FB1  A$lcc1754022$121                   draw
     00001FB2  A$lcc1754022$125                   draw
     00001FB2  C$draw.c$15$1_0$136                draw
     00001FB3  A$lcc1754022$126                   draw
     00001FB4  A$lcc1754022$127                   draw
     00001FB5  A$lcc1754022$128                   draw
     00001FB6  A$lcc1754022$129                   draw
     00001FB7  A$lcc1754022$130                   draw
     00001FB8  A$lcc1754022$131                   draw
     00001FBB  A$lcc1754022$132                   draw
     00001FBC  A$lcc1754022$133                   draw
     00001FBD  A$lcc1754022$134                   draw
     00001FBE  A$lcc1754022$135                   draw
     00001FC0  A$lcc1754022$139                   draw
     00001FC0  C$draw.c$17$1_0$136                draw
     00001FC1  A$lcc1754022$140                   draw
     00001FC2  A$lcc1754022$141                   draw
     00001FC3  A$lcc1754022$142                   draw
     00001FC4  A$lcc1754022$143                   draw
     00001FC5  A$lcc1754022$147                   draw
     00001FC5  C$draw.c$18$1_0$136                draw
     00001FC7  A$lcc1754022$148                   draw
     00001FC8  A$lcc1754022$149                   draw
     00001FC9  A$lcc1754022$150                   draw
     00001FCA  A$lcc1754022$151                   draw
     00001FCB  A$lcc1754022$152                   draw
     00001FCC  A$lcc1754022$153                   draw
     00001FCD  A$lcc1754022$154                   draw
     00001FCE  A$lcc1754022$155                   draw
     00001FCF  A$lcc1754022$156                   draw
     00001FD0  A$lcc1754022$157                   draw
     00001FD1  A$lcc1754022$158                   draw
     00001FD2  A$lcc1754022$159                   draw
     00001FD3  A$lcc1754022$160                   draw
ASxxxx Linker V03.00/V05.40 + sdld,  page 24.
Hexadecimal  [32-Bits]

Area                                    Addr        Size        Decimal Bytes (Attributes)
--------------------------------        ----        ----        ------- ----- ------------
_CODE                               00000200    0000321D =       12829. bytes (REL,CON)

      Value  Global                              Global Defined In Module
      -----  --------------------------------   ------------------------
     00001FD4  A$lcc1754022$161                   draw
     00001FD5  A$lcc1754022$165                   draw
     00001FD5  C$draw.c$20$2_0$137                draw
     00001FD7  A$lcc1754022$166                   draw
     00001FD8  A$lcc1754022$173                   draw
     00001FD8  C$draw.c$21$2_0$137                draw
     00001FD8  C$draw.c$24$2_0$136                draw
     00001FDB  A$lcc1754022$174                   draw
     00001FDD  A$lcc1754022$176                   draw
     00001FDE  A$lcc1754022$177                   draw
     00001FE0  A$lcc1754022$178                   draw
     00001FE1  A$lcc1754022$179                   draw
     00001FE3  A$lcc1754022$181                   draw
     00001FE4  A$lcc1754022$182                   draw
     00001FE5  A$lcc1754022$183                   draw
     00001FE6  A$lcc1754022$184                   draw
     00001FE7  A$lcc1754022$185                   draw
     00001FE8  A$lcc1754022$186                   draw
     00001FEA  A$lcc1754022$187                   draw
     00001FED  A$lcc1754022$188                   draw
     00001FEE  A$lcc1754022$189                   draw
     00001FEF  A$lcc1754022$190                   draw
     00001FF0  A$lcc1754022$191                   draw
     00001FF1  A$lcc1754022$193                   draw
     00001FF2  A$lcc1754022$194                   draw
     00001FF3  A$lcc1754022$195                   draw
     00001FF4  A$lcc1754022$196                   draw
     00001FF5  A$lcc1754022$197                   draw
     00001FF6  A$lcc1754022$198                   draw
     00001FF7  A$lcc1754022$199                   draw
     00001FFA  A$lcc1754022$200                   draw
     00001FFB  A$lcc1754022$201                   draw
     00001FFC  A$lcc1754022$202                   draw
     00001FFD  A$lcc1754022$203                   draw
     00001FFE  A$lcc1754022$204                   draw
     00001FFF  A$lcc1754022$208                   draw
     00001FFF  C$draw.c$24$2_0$138                draw
     00002000  A$lcc1754022$209                   draw
     00002002  A$lcc1754022$214                   draw
     00002002  C$draw.c$28$2_0$139                draw
     00002004  A$lcc1754022$215                   draw
     00002005  A$lcc1754022$216                   draw
     00002006  A$lcc1754022$217                   draw
     00002008  A$lcc1754022$219                   draw
     0000200A  A$lcc1754022$220                   draw
     0000200B  A$lcc1754022$222                   draw
     0000200C  A$lcc1754022$223                   draw
     0000200D  A$lcc1754022$224                   draw
     0000200E  A$lcc1754022$225                   draw
     0000200F  A$lcc1754022$226                   draw
     00002010  A$lcc1754022$227                   draw
ASxxxx Linker V03.00/V05.40 + sdld,  page 25.
Hexadecimal  [32-Bits]

Area                                    Addr        Size        Decimal Bytes (Attributes)
--------------------------------        ----        ----        ------- ----- ------------
_CODE                               00000200    0000321D =       12829. bytes (REL,CON)

      Value  Global                              Global Defined In Module
      -----  --------------------------------   ------------------------
     00002013  A$lcc1754022$228                   draw
     00002014  A$lcc1754022$229                   draw
     00002015  A$lcc1754022$230                   draw
     00002016  A$lcc1754022$232                   draw
     00002018  A$lcc1754022$233                   draw
     00002019  A$lcc1754022$234                   draw
     0000201A  A$lcc1754022$235                   draw
     0000201B  A$lcc1754022$236                   draw
     0000201C  A$lcc1754022$237                   draw
     0000201D  A$lcc1754022$241                   draw
     0000201D  C$draw.c$30$2_0$139                draw
     00002020  A$lcc1754022$246                   draw
     00002020  C$draw.c$32$3_0$141                draw
     00002022  A$lcc1754022$247                   draw
     00002023  A$lcc1754022$248                   draw
     00002025  A$lcc1754022$249                   draw
     00002027  A$lcc1754022$253                   draw
     0000202A  A$lcc1754022$254                   draw
     0000202C  A$lcc1754022$255                   draw
     0000202D  A$lcc1754022$256                   draw
     0000202F  A$lcc1754022$257                   draw
     00002030  A$lcc1754022$258                   draw
     00002031  A$lcc1754022$259                   draw
     00002032  A$lcc1754022$260                   draw
     00002033  A$lcc1754022$261                   draw
     00002034  A$lcc1754022$265                   draw
     00002034  C$draw.c$30$2_0$136                draw
     00002036  A$lcc1754022$266                   draw
     00002037  A$lcc1754022$270                   draw
     00002037  C$draw.c$34$5_0$143                draw
     00002039  A$lcc1754022$271                   draw
     0000203B  A$lcc1754022$274                   draw
     0000203C  A$lcc1754022$275                   draw
     0000203D  A$lcc1754022$276                   draw
     0000203E  A$lcc1754022$277                   draw
     0000203F  A$lcc1754022$278                   draw
     00002040  A$lcc1754022$279                   draw
     00002043  A$lcc1754022$280                   draw
     00002044  A$lcc1754022$281                   draw
     00002045  A$lcc1754022$282                   draw
     00002046  A$lcc1754022$284                   draw
     00002048  A$lcc1754022$285                   draw
     00002049  A$lcc1754022$286                   draw
     0000204A  A$lcc1754022$287                   draw
     0000204B  A$lcc1754022$289                   draw
     0000204C  A$lcc1754022$290                   draw
     0000204D  A$lcc1754022$291                   draw
     0000204E  A$lcc1754022$292                   draw
     00002050  A$lcc1754022$293                   draw
     00002051  A$lcc1754022$294                   draw
     00002053  A$lcc1754022$296                   draw
ASxxxx Linker V03.00/V05.40 + sdld,  page 26.
Hexadecimal  [32-Bits]

Area                                    Addr        Size        Decimal Bytes (Attributes)
--------------------------------        ----        ----        ------- ----- ------------
_CODE                               00000200    0000321D =       12829. bytes (REL,CON)

      Value  Global                              Global Defined In Module
      -----  --------------------------------   ------------------------
     00002054  A$lcc1754022$297                   draw
     00002057  A$lcc1754022$298                   draw
     00002058  A$lcc1754022$299                   draw
     00002059  A$lcc1754022$300                   draw
     0000205A  A$lcc1754022$301                   draw
     0000205B  A$lcc1754022$302                   draw
     0000205C  A$lcc1754022$303                   draw
     0000205D  A$lcc1754022$304                   draw
     0000205E  A$lcc1754022$306                   draw
     0000205F  A$lcc1754022$307                   draw
     00002060  A$lcc1754022$308                   draw
     00002061  A$lcc1754022$309                   draw
     00002063  A$lcc1754022$310                   draw
     00002064  A$lcc1754022$311                   draw
     00002065  A$lcc1754022$315                   draw
     00002065  C$draw.c$37$5_0$143                draw
     00002068  A$lcc1754022$319                   draw
     00002069  A$lcc1754022$320                   draw
     0000206A  A$lcc1754022$321                   draw
     0000206B  A$lcc1754022$322                   draw
     0000206C  A$lcc1754022$323                   draw
     0000206D  A$lcc1754022$324                   draw
     00002070  A$lcc1754022$325                   draw
     00002071  A$lcc1754022$326                   draw
     00002072  A$lcc1754022$327                   draw
     00002073  A$lcc1754022$329                   draw
     00002075  A$lcc1754022$330                   draw
     00002076  A$lcc1754022$331                   draw
     00002077  A$lcc1754022$332                   draw
     00002078  A$lcc1754022$333                   draw
     00002079  A$lcc1754022$334                   draw
     0000207A  A$lcc1754022$336                   draw
     0000207B  A$lcc1754022$337                   draw
     0000207D  A$lcc1754022$338                   draw
     0000207E  A$lcc1754022$339                   draw
     00002080  A$lcc1754022$341                   draw
     00002081  A$lcc1754022$342                   draw
     00002082  A$lcc1754022$343                   draw
     00002083  A$lcc1754022$344                   draw
     00002084  A$lcc1754022$345                   draw
     00002085  A$lcc1754022$346                   draw
     00002088  A$lcc1754022$347                   draw
     00002089  A$lcc1754022$349                   draw
     0000208A  A$lcc1754022$350                   draw
     0000208C  A$lcc1754022$351                   draw
     0000208D  A$lcc1754022$352                   draw
     0000208E  A$lcc1754022$353                   draw
     0000208F  A$lcc1754022$354                   draw
     00002090  A$lcc1754022$358                   draw
     00002090  C$draw.c$42$3_0$141                draw
     00002092  A$lcc1754022$363                   draw
ASxxxx Linker V03.00/V05.40 + sdld,  page 27.
Hexadecimal  [32-Bits]

Area                                    Addr        Size        Decimal Bytes (Attributes)
--------------------------------        ----        ----        ------- ----- ------------
_CODE                               00000200    0000321D =       12829. bytes (REL,CON)

      Value  Global                              Global Defined In Module
      -----  --------------------------------   ------------------------
     00002092  C$draw.c$45$4_0$146                draw
     00002094  A$lcc1754022$364                   draw
     00002095  A$lcc1754022$365                   draw
     00002097  A$lcc1754022$366                   draw
     00002099  A$lcc1754022$368                   draw
     0000209B  A$lcc1754022$369                   draw
     0000209C  A$lcc1754022$371                   draw
     0000209D  A$lcc1754022$372                   draw
     0000209E  A$lcc1754022$373                   draw
     0000209F  A$lcc1754022$374                   draw
     000020A0  A$lcc1754022$375                   draw
     000020A1  A$lcc1754022$376                   draw
     000020A4  A$lcc1754022$377                   draw
     000020A5  A$lcc1754022$378                   draw
     000020A6  A$lcc1754022$379                   draw
     000020A7  A$lcc1754022$381                   draw
     000020A9  A$lcc1754022$382                   draw
     000020AA  A$lcc1754022$383                   draw
     000020AB  A$lcc1754022$384                   draw
     000020AC  A$lcc1754022$385                   draw
     000020AD  A$lcc1754022$386                   draw
     000020AE  A$lcc1754022$388                   draw
     000020AF  A$lcc1754022$389                   draw
     000020B1  A$lcc1754022$390                   draw
     000020B3  A$lcc1754022$391                   draw
     000020B4  A$lcc1754022$392                   draw
     000020B5  A$lcc1754022$393                   draw
     000020B7  A$lcc1754022$395                   draw
     000020B8  A$lcc1754022$396                   draw
     000020B9  A$lcc1754022$397                   draw
     000020BA  A$lcc1754022$398                   draw
     000020BB  A$lcc1754022$399                   draw
     000020BC  A$lcc1754022$400                   draw
     000020BF  A$lcc1754022$401                   draw
     000020C0  A$lcc1754022$403                   draw
     000020C1  A$lcc1754022$404                   draw
     000020C3  A$lcc1754022$405                   draw
     000020C4  A$lcc1754022$406                   draw
     000020C5  A$lcc1754022$407                   draw
     000020C6  A$lcc1754022$408                   draw
     000020C7  A$lcc1754022$410                   draw
     000020C9  A$lcc1754022$411                   draw
     000020CA  A$lcc1754022$412                   draw
     000020CC  A$lcc1754022$413                   draw
     000020CD  A$lcc1754022$414                   draw
     000020CE  A$lcc1754022$415                   draw
     000020D0  A$lcc1754022$417                   draw
     000020D1  A$lcc1754022$418                   draw
     000020D2  A$lcc1754022$419                   draw
     000020D3  A$lcc1754022$420                   draw
     000020D4  A$lcc1754022$421                   draw
ASxxxx Linker V03.00/V05.40 + sdld,  page 28.
Hexadecimal  [32-Bits]

Area                                    Addr        Size        Decimal Bytes (Attributes)
--------------------------------        ----        ----        ------- ----- ------------
_CODE                               00000200    0000321D =       12829. bytes (REL,CON)

      Value  Global                              Global Defined In Module
      -----  --------------------------------   ------------------------
     000020D5  A$lcc1754022$422                   draw
     000020D8  A$lcc1754022$423                   draw
     000020D9  A$lcc1754022$424                   draw
     000020DA  A$lcc1754022$425                   draw
     000020DB  A$lcc1754022$427                   draw
     000020DD  A$lcc1754022$428                   draw
     000020DE  A$lcc1754022$429                   draw
     000020DF  A$lcc1754022$430                   draw
     000020E0  A$lcc1754022$431                   draw
     000020E1  A$lcc1754022$433                   draw
     000020E2  A$lcc1754022$434                   draw
     000020E3  A$lcc1754022$436                   draw
     000020E4  A$lcc1754022$437                   draw
     000020E7  A$lcc1754022$438                   draw
     000020E8  A$lcc1754022$439                   draw
     000020E9  A$lcc1754022$440                   draw
     000020EA  A$lcc1754022$441                   draw
     000020EB  A$lcc1754022$442                   draw
     000020EC  A$lcc1754022$443                   draw
     000020ED  A$lcc1754022$444                   draw
     000020EE  A$lcc1754022$446                   draw
     000020EF  A$lcc1754022$447                   draw
     000020F0  A$lcc1754022$448                   draw
     000020F1  A$lcc1754022$449                   draw
     000020F3  A$lcc1754022$450                   draw
     000020F4  A$lcc1754022$451                   draw
     000020F5  A$lcc1754022$459                   draw
     000020F5  C$draw.c$50$2_0$136                draw
     000020F7  A$lcc1754022$464                   draw
     000020F7  C$draw.c$52$2_0$136                draw
     000020F7  XG$draw_actor$0$0                  draw
     000020F8  A$lcc1754023$60                    entity
     000020F8  C$entity.c$7$0_0$3                 entity
     000020F8  C$entity.c$9$2_0$4                 entity
     000020F8  G$create_entity$0$0                entity
     000020F8  _create_entity                     entity
     000020FB  A$lcc1754023$61                    entity
     000020FD  A$lcc1754023$62                    entity
     000020FF  A$lcc1754023$66                    entity
     000020FF  C$entity.c$10$3_0$5                entity
     00002100  A$lcc1754023$67                    entity
     00002101  A$lcc1754023$72                    entity
     00002101  C$entity.c$13$1_0$3                entity
     00002104  A$lcc1754023$73                    entity
     00002105  A$lcc1754023$74                    entity
     00002108  A$lcc1754023$75                    entity
     00002109  A$lcc1754023$76                    entity
     0000210A  A$lcc1754023$84                    entity
     0000210A  C$entity.c$14$1_0$3                entity
     0000210A  XG$create_entity$0$0               entity
     0000210B  A$lcc1754023$97                    entity
ASxxxx Linker V03.00/V05.40 + sdld,  page 29.
Hexadecimal  [32-Bits]

Area                                    Addr        Size        Decimal Bytes (Attributes)
--------------------------------        ----        ----        ------- ----- ------------
_CODE                               00000200    0000321D =       12829. bytes (REL,CON)

      Value  Global                              Global Defined In Module
      -----  --------------------------------   ------------------------
     0000210B  C$entity.c$16$1_0$6                entity
     0000210B  C$entity.c$18$1_0$6                entity
     0000210B  G$reset_entities$0$0               entity
     0000210B  _reset_entities                    entity
     0000210E  A$lcc1754023$98                    entity
     00002110  A$lcc1754023$106                   entity
     00002110  C$entity.c$19$1_0$6                entity
     00002110  XG$reset_entities$0$0              entity
     00002111  A$lcc1754025$56                    global_action
     00002111  C$global_action.c$4$0_0$142        global_action
     00002111  C$global_action.c$6$1_0$142        global_action
     00002111  G$check_global_input$0$0           global_action
     00002111  _check_global_input                global_action
     00002114  A$lcc1754025$60                    global_action
     00002114  C$global_action.c$9$1_0$142        global_action
     00002117  A$lcc1754025$61                    global_action
     0000211A  A$lcc1754025$69                    global_action
     0000211A  C$global_action.c$10$1_0$142       global_action
     0000211A  XG$check_global_input$0$0          global_action
     0000211B  A$lcc1754027$57                    inventory
     0000211B  C$inventory.c$11$0_0$141           inventory
     0000211B  G$init_arrow$0$0                   inventory
     0000211B  _init_arrow                        inventory
     0000211C  A$lcc1754027$58                    inventory
     0000211D  A$lcc1754027$62                    inventory
     0000211D  C$inventory.c$13$1_0$141           inventory
     00002120  A$lcc1754027$63                    inventory
     00002121  A$lcc1754027$64                    inventory
     00002123  A$lcc1754027$65                    inventory
     00002126  A$lcc1754027$66                    inventory
     00002127  A$lcc1754027$67                    inventory
     00002129  A$lcc1754027$71                    inventory
     00002129  C$inventory.c$14$1_0$141           inventory
     0000212C  A$lcc1754027$72                    inventory
     0000212F  A$lcc1754027$73                    inventory
     00002130  A$lcc1754027$74                    inventory
     00002132  A$lcc1754027$75                    inventory
     00002133  A$lcc1754027$76                    inventory
     00002135  A$lcc1754027$80                    inventory
     00002135  C$inventory.c$16$1_0$141           inventory
     00002138  A$lcc1754027$81                    inventory
     0000213B  A$lcc1754027$82                    inventory
     0000213C  A$lcc1754027$83                    inventory
     0000213D  A$lcc1754027$84                    inventory
     0000213F  A$lcc1754027$85                    inventory
     00002140  A$lcc1754027$86                    inventory
     00002143  A$lcc1754027$87                    inventory
     00002145  A$lcc1754027$88                    inventory
     00002146  A$lcc1754027$89                    inventory
     00002148  A$lcc1754027$90                    inventory
     0000214A  A$lcc1754027$91                    inventory
ASxxxx Linker V03.00/V05.40 + sdld,  page 30.
Hexadecimal  [32-Bits]

Area                                    Addr        Size        Decimal Bytes (Attributes)
--------------------------------        ----        ----        ------- ----- ------------
_CODE                               00000200    0000321D =       12829. bytes (REL,CON)

      Value  Global                              Global Defined In Module
      -----  --------------------------------   ------------------------
     0000214B  A$lcc1754027$92                    inventory
     0000214C  A$lcc1754027$93                    inventory
     0000214D  A$lcc1754027$94                    inventory
     0000214E  A$lcc1754027$95                    inventory
     0000214F  A$lcc1754027$96                    inventory
     00002150  A$lcc1754027$100                   inventory
     00002150  C$inventory.c$17$1_0$141           inventory
     00002153  A$lcc1754027$101                   inventory
     00002154  A$lcc1754027$102                   inventory
     00002155  A$lcc1754027$103                   inventory
     00002157  A$lcc1754027$104                   inventory
     00002158  A$lcc1754027$105                   inventory
     0000215A  A$lcc1754027$106                   inventory
     0000215C  A$lcc1754027$107                   inventory
     0000215D  A$lcc1754027$108                   inventory
     0000215E  A$lcc1754027$109                   inventory
     00002160  A$lcc1754027$110                   inventory
     00002161  A$lcc1754027$111                   inventory
     00002162  A$lcc1754027$112                   inventory
     00002163  A$lcc1754027$113                   inventory
     00002164  A$lcc1754027$114                   inventory
     00002165  A$lcc1754027$115                   inventory
     00002166  A$lcc1754027$116                   inventory
     00002167  A$lcc1754027$120                   inventory
     00002167  C$inventory.c$19$1_0$141           inventory
     0000216A  A$lcc1754027$121                   inventory
     0000216B  A$lcc1754027$122                   inventory
     0000216D  A$lcc1754027$123                   inventory
     00002170  A$lcc1754027$124                   inventory
     00002171  A$lcc1754027$125                   inventory
     00002173  A$lcc1754027$129                   inventory
     00002173  C$inventory.c$20$1_0$141           inventory
     00002176  A$lcc1754027$130                   inventory
     00002179  A$lcc1754027$131                   inventory
     0000217A  A$lcc1754027$132                   inventory
     0000217C  A$lcc1754027$133                   inventory
     0000217D  A$lcc1754027$134                   inventory
     0000217F  A$lcc1754027$138                   inventory
     0000217F  C$inventory.c$21$1_0$141           inventory
     00002182  A$lcc1754027$139                   inventory
     00002185  A$lcc1754027$140                   inventory
     00002186  A$lcc1754027$141                   inventory
     00002188  A$lcc1754027$142                   inventory
     00002189  A$lcc1754027$143                   inventory
     0000218B  A$lcc1754027$147                   inventory
     0000218B  C$inventory.c$23$2_0$142           inventory
     0000218D  A$lcc1754027$148                   inventory
     0000218F  A$lcc1754027$149                   inventory
     00002190  A$lcc1754027$150                   inventory
     00002192  A$lcc1754027$154                   inventory
     00002192  C$inventory.c$25$1_1$142           inventory
ASxxxx Linker V03.00/V05.40 + sdld,  page 31.
Hexadecimal  [32-Bits]

Area                                    Addr        Size        Decimal Bytes (Attributes)
--------------------------------        ----        ----        ------- ----- ------------
_CODE                               00000200    0000321D =       12829. bytes (REL,CON)

      Value  Global                              Global Defined In Module
      -----  --------------------------------   ------------------------
     00002195  A$lcc1754027$155                   inventory
     00002196  A$lcc1754027$156                   inventory
     00002198  A$lcc1754027$157                   inventory
     00002199  A$lcc1754027$158                   inventory
     0000219A  A$lcc1754027$159                   inventory
     0000219B  A$lcc1754027$160                   inventory
     0000219C  A$lcc1754027$161                   inventory
     0000219D  A$lcc1754027$162                   inventory
     0000219E  A$lcc1754027$163                   inventory
     0000219F  A$lcc1754027$164                   inventory
     000021A0  A$lcc1754027$165                   inventory
     000021A1  A$lcc1754027$166                   inventory
     000021A4  A$lcc1754027$167                   inventory
     000021A5  A$lcc1754027$168                   inventory
     000021A6  A$lcc1754027$169                   inventory
     000021A7  A$lcc1754027$170                   inventory
     000021AA  A$lcc1754027$171                   inventory
     000021AB  A$lcc1754027$172                   inventory
     000021AD  A$lcc1754027$173                   inventory
     000021AE  A$lcc1754027$174                   inventory
     000021AF  A$lcc1754027$175                   inventory
     000021B2  A$lcc1754027$176                   inventory
     000021B3  A$lcc1754027$177                   inventory
     000021B4  A$lcc1754027$178                   inventory
     000021B5  A$lcc1754027$179                   inventory
     000021B6  A$lcc1754027$180                   inventory
     000021B7  A$lcc1754027$181                   inventory
     000021B8  A$lcc1754027$182                   inventory
     000021BB  A$lcc1754027$186                   inventory
     000021BE  A$lcc1754027$187                   inventory
     000021BF  A$lcc1754027$192                   inventory
     000021BF  C$inventory.c$26$1_1$141           inventory
     000021BF  XG$init_arrow$0$0                  inventory
     000021C0  A$lcc1754028$63                    inventory_input
     000021C0  C$inventory_input.c$19$0_0$146     inventory_input
     000021C0  C$inventory_input.c$21$1_0$146     inventory_input
     000021C0  G$inventory_input$0$0              inventory_input
     000021C0  _inventory_input                   inventory_input
     000021C3  A$lcc1754028$64                    inventory_input
     000021C6  A$lcc1754028$65                    inventory_input
     000021C7  A$lcc1754028$69                    inventory_input
     000021C7  C$inventory_input.c$23$2_0$147     inventory_input
     000021C9  A$lcc1754028$70                    inventory_input
     000021CB  A$lcc1754028$71                    inventory_input
     000021CE  A$lcc1754028$72                    inventory_input
     000021D0  A$lcc1754028$73                    inventory_input
     000021D2  A$lcc1754028$77                    inventory_input
     000021D2  C$inventory_input.c$25$3_0$148     inventory_input
     000021D5  A$lcc1754028$78                    inventory_input
     000021D8  A$lcc1754028$79                    inventory_input
     000021D9  A$lcc1754028$80                    inventory_input
ASxxxx Linker V03.00/V05.40 + sdld,  page 32.
Hexadecimal  [32-Bits]

Area                                    Addr        Size        Decimal Bytes (Attributes)
--------------------------------        ----        ----        ------- ----- ------------
_CODE                               00000200    0000321D =       12829. bytes (REL,CON)

      Value  Global                              Global Defined In Module
      -----  --------------------------------   ------------------------
     000021DA  A$lcc1754028$81                    inventory_input
     000021DB  A$lcc1754028$82                    inventory_input
     000021DC  A$lcc1754028$83                    inventory_input
     000021DD  A$lcc1754028$84                    inventory_input
     000021DE  A$lcc1754028$85                    inventory_input
     000021DF  A$lcc1754028$86                    inventory_input
     000021E2  A$lcc1754028$87                    inventory_input
     000021E4  A$lcc1754028$88                    inventory_input
     000021E5  A$lcc1754028$89                    inventory_input
     000021E7  A$lcc1754028$90                    inventory_input
     000021E8  A$lcc1754028$91                    inventory_input
     000021E9  A$lcc1754028$92                    inventory_input
     000021EC  A$lcc1754028$96                    inventory_input
     000021EC  C$inventory_input.c$26$3_0$148     inventory_input
     000021EF  A$lcc1754028$97                    inventory_input
     000021F2  A$lcc1754028$98                    inventory_input
     000021F3  A$lcc1754028$99                    inventory_input
     000021F5  A$lcc1754028$100                   inventory_input
     000021F6  A$lcc1754028$101                   inventory_input
     000021F8  A$lcc1754028$105                   inventory_input
     000021F8  C$inventory_input.c$27$3_0$148     inventory_input
     000021FB  A$lcc1754028$106                   inventory_input
     000021FE  A$lcc1754028$114                   inventory_input
     000021FE  C$inventory_input.c$26$1_1$146     inventory_input
     00002201  A$lcc1754028$115                   inventory_input
     00002202  A$lcc1754028$119                   inventory_input
     00002202  C$inventory_input.c$30$1_1$149     inventory_input
     00002205  A$lcc1754028$120                   inventory_input
     00002207  A$lcc1754028$121                   inventory_input
     00002208  A$lcc1754028$122                   inventory_input
     00002209  A$lcc1754028$126                   inventory_input
     00002209  C$inventory_input.c$31$1_1$149     inventory_input
     0000220C  A$lcc1754028$127                   inventory_input
     0000220E  A$lcc1754028$128                   inventory_input
     0000220F  A$lcc1754028$129                   inventory_input
     00002210  A$lcc1754028$133                   inventory_input
     00002210  C$inventory_input.c$23$1_1$146     inventory_input
     00002213  A$lcc1754028$134                   inventory_input
     00002214  A$lcc1754028$135                   inventory_input
     00002217  A$lcc1754028$139                   inventory_input
     00002217  C$inventory_input.c$33$2_1$150     inventory_input
     00002219  A$lcc1754028$140                   inventory_input
     0000221B  A$lcc1754028$141                   inventory_input
     0000221D  A$lcc1754028$142                   inventory_input
     0000221F  A$lcc1754028$146                   inventory_input
     0000221F  C$inventory_input.c$35$3_1$151     inventory_input
     00002220  A$lcc1754028$147                   inventory_input
     00002222  A$lcc1754028$148                   inventory_input
     00002223  A$lcc1754028$149                   inventory_input
     00002225  A$lcc1754028$154                   inventory_input
     00002225  C$inventory_input.c$37$3_1$152     inventory_input
ASxxxx Linker V03.00/V05.40 + sdld,  page 33.
Hexadecimal  [32-Bits]

Area                                    Addr        Size        Decimal Bytes (Attributes)
--------------------------------        ----        ----        ------- ----- ------------
_CODE                               00000200    0000321D =       12829. bytes (REL,CON)

      Value  Global                              Global Defined In Module
      -----  --------------------------------   ------------------------
     00002227  A$lcc1754028$155                   inventory_input
     00002229  A$lcc1754028$156                   inventory_input
     0000222B  A$lcc1754028$157                   inventory_input
     0000222D  A$lcc1754028$161                   inventory_input
     0000222D  C$inventory_input.c$39$4_1$153     inventory_input
     0000222E  A$lcc1754028$162                   inventory_input
     00002230  A$lcc1754028$163                   inventory_input
     00002231  A$lcc1754028$164                   inventory_input
     00002233  A$lcc1754028$169                   inventory_input
     00002233  C$inventory_input.c$41$4_1$154     inventory_input
     00002235  A$lcc1754028$170                   inventory_input
     00002237  A$lcc1754028$171                   inventory_input
     00002239  A$lcc1754028$172                   inventory_input
     0000223B  A$lcc1754028$176                   inventory_input
     0000223B  C$inventory_input.c$43$5_1$155     inventory_input
     0000223C  A$lcc1754028$177                   inventory_input
     0000223E  A$lcc1754028$178                   inventory_input
     0000223F  A$lcc1754028$179                   inventory_input
     00002241  A$lcc1754028$184                   inventory_input
     00002241  C$inventory_input.c$45$5_1$156     inventory_input
     00002243  A$lcc1754028$185                   inventory_input
     00002245  A$lcc1754028$186                   inventory_input
     00002247  A$lcc1754028$187                   inventory_input
     00002249  A$lcc1754028$191                   inventory_input
     00002249  C$inventory_input.c$47$6_1$157     inventory_input
     0000224A  A$lcc1754028$192                   inventory_input
     0000224C  A$lcc1754028$193                   inventory_input
     0000224D  A$lcc1754028$198                   inventory_input
     0000224D  C$inventory_input.c$50$2_1$158     inventory_input
     0000224F  A$lcc1754028$199                   inventory_input
     00002250  A$lcc1754028$200                   inventory_input
     00002252  A$lcc1754028$204                   inventory_input
     00002252  C$inventory_input.c$51$2_1$158     inventory_input
     00002254  A$lcc1754028$209                   inventory_input
     00002254  C$inventory_input.c$52$2_1$159     inventory_input
     00002255  A$lcc1754028$210                   inventory_input
     00002257  A$lcc1754028$211                   inventory_input
     00002259  A$lcc1754028$215                   inventory_input
     00002259  C$inventory_input.c$53$2_1$159     inventory_input
     0000225B  A$lcc1754028$220                   inventory_input
     0000225B  C$inventory_input.c$55$2_1$160     inventory_input
     0000225D  A$lcc1754028$221                   inventory_input
     0000225E  A$lcc1754028$222                   inventory_input
     00002260  A$lcc1754028$226                   inventory_input
     00002260  C$inventory_input.c$56$2_1$160     inventory_input
     00002262  A$lcc1754028$231                   inventory_input
     00002262  C$inventory_input.c$57$2_1$161     inventory_input
     00002263  A$lcc1754028$232                   inventory_input
     00002265  A$lcc1754028$233                   inventory_input
     00002267  A$lcc1754028$237                   inventory_input
     00002267  C$inventory_input.c$58$2_1$161     inventory_input
ASxxxx Linker V03.00/V05.40 + sdld,  page 34.
Hexadecimal  [32-Bits]

Area                                    Addr        Size        Decimal Bytes (Attributes)
--------------------------------        ----        ----        ------- ----- ------------
_CODE                               00000200    0000321D =       12829. bytes (REL,CON)

      Value  Global                              Global Defined In Module
      -----  --------------------------------   ------------------------
     00002269  A$lcc1754028$242                   inventory_input
     00002269  C$inventory_input.c$60$1_1$149     inventory_input
     0000226A  A$lcc1754028$246                   inventory_input
     0000226A  C$inventory_input.c$61$1_1$149     inventory_input
     0000226D  A$lcc1754028$247                   inventory_input
     0000226E  A$lcc1754028$248                   inventory_input
     00002270  A$lcc1754028$249                   inventory_input
     00002273  A$lcc1754028$250                   inventory_input
     00002274  A$lcc1754028$251                   inventory_input
     00002275  A$lcc1754028$255                   inventory_input
     00002275  C$inventory_input.c$63$1_1$149     inventory_input
     00002278  A$lcc1754028$256                   inventory_input
     0000227B  A$lcc1754028$264                   inventory_input
     0000227B  C$inventory_input.c$64$1_1$146     inventory_input
     0000227B  XG$inventory_input$0$0             inventory_input
     0000227C  G$top_limit$0_0$0                  inventory_input
     0000227C  _top_limit                         inventory_input
     0000227D  G$bottom_limit$0_0$0               inventory_input
     0000227D  _bottom_limit                      inventory_input
     0000227E  G$left_limit$0_0$0                 inventory_input
     0000227E  _left_limit                        inventory_input
     0000227F  G$right_limit$0_0$0                inventory_input
     0000227F  _right_limit                       inventory_input
     00002280  G$VERTICAL_MOVEMENT$0_0$0          inventory_input
     00002280  _VERTICAL_MOVEMENT                 inventory_input
     00002281  G$HORIZONTAL_MOVEMENT$0_0$0        inventory_input
     00002281  _HORIZONTAL_MOVEMENT               inventory_input
     00002282  A$lcc1754029$58                    load
     00002282  C$load.c$8$0_0$132                 load
     00002282  G$load_actor_tiles$0$0             load
     00002282  _load_actor_tiles                  load
     00002284  A$lcc1754029$59                    load
     00002286  A$lcc1754029$60                    load
     00002287  A$lcc1754029$61                    load
     00002288  A$lcc1754029$62                    load
     00002289  A$lcc1754029$63                    load
     0000228A  A$lcc1754029$64                    load
     0000228B  A$lcc1754029$68                    load
     0000228B  C$load.c$9$2_0$132                 load
     0000228E  A$lcc1754029$69                    load
     0000228F  A$lcc1754029$73                    load
     0000228F  C$load.c$12$1_0$132                load
     00002291  A$lcc1754029$75                    load
     00002292  A$lcc1754029$76                    load
     00002294  A$lcc1754029$77                    load
     00002295  A$lcc1754029$78                    load
     00002297  A$lcc1754029$82                    load
     00002297  C$load.c$13$3_0$134                load
     00002298  A$lcc1754029$83                    load
     0000229A  A$lcc1754029$84                    load
     0000229B  A$lcc1754029$85                    load
ASxxxx Linker V03.00/V05.40 + sdld,  page 35.
Hexadecimal  [32-Bits]

Area                                    Addr        Size        Decimal Bytes (Attributes)
--------------------------------        ----        ----        ------- ----- ------------
_CODE                               00000200    0000321D =       12829. bytes (REL,CON)

      Value  Global                              Global Defined In Module
      -----  --------------------------------   ------------------------
     0000229C  A$lcc1754029$86                    load
     0000229D  A$lcc1754029$87                    load
     0000229F  A$lcc1754029$88                    load
     000022A0  A$lcc1754029$89                    load
     000022A1  A$lcc1754029$90                    load
     000022A2  A$lcc1754029$91                    load
     000022A3  A$lcc1754029$92                    load
     000022A4  A$lcc1754029$93                    load
     000022A5  A$lcc1754029$94                    load
     000022A6  A$lcc1754029$95                    load
     000022A7  A$lcc1754029$96                    load
     000022A8  A$lcc1754029$97                    load
     000022A9  A$lcc1754029$98                    load
     000022AA  A$lcc1754029$99                    load
     000022AB  A$lcc1754029$100                   load
     000022AC  A$lcc1754029$101                   load
     000022AD  A$lcc1754029$102                   load
     000022AE  A$lcc1754029$103                   load
     000022AF  A$lcc1754029$104                   load
     000022B0  A$lcc1754029$105                   load
     000022B2  A$lcc1754029$106                   load
     000022B3  A$lcc1754029$107                   load
     000022B4  A$lcc1754029$108                   load
     000022B5  A$lcc1754029$109                   load
     000022B6  A$lcc1754029$110                   load
     000022B9  A$lcc1754029$111                   load
     000022BB  A$lcc1754029$115                   load
     000022BB  C$load.c$12$2_0$133                load
     000022BC  A$lcc1754029$116                   load
     000022BE  A$lcc1754029$121                   load
     000022BE  C$load.c$17$1_0$132                load
     000022C1  A$lcc1754029$122                   load
     000022C3  A$lcc1754029$123                   load
     000022C4  A$lcc1754029$124                   load
     000022C6  A$lcc1754029$125                   load
     000022C7  A$lcc1754029$126                   load
     000022C8  A$lcc1754029$127                   load
     000022C9  A$lcc1754029$128                   load
     000022CA  A$lcc1754029$129                   load
     000022CB  A$lcc1754029$133                   load
     000022CB  C$load.c$18$1_0$132                load
     000022CE  A$lcc1754029$134                   load
     000022D0  A$lcc1754029$135                   load
     000022D1  A$lcc1754029$136                   load
     000022D3  A$lcc1754029$137                   load
     000022D4  A$lcc1754029$138                   load
     000022D5  A$lcc1754029$139                   load
     000022D6  A$lcc1754029$140                   load
     000022D8  A$lcc1754029$141                   load
     000022D9  A$lcc1754029$142                   load
     000022DA  A$lcc1754029$146                   load
ASxxxx Linker V03.00/V05.40 + sdld,  page 36.
Hexadecimal  [32-Bits]

Area                                    Addr        Size        Decimal Bytes (Attributes)
--------------------------------        ----        ----        ------- ----- ------------
_CODE                               00000200    0000321D =       12829. bytes (REL,CON)

      Value  Global                              Global Defined In Module
      -----  --------------------------------   ------------------------
     000022DA  C$load.c$21$1_0$132                load
     000022DD  A$lcc1754029$147                   load
     000022DF  A$lcc1754029$148                   load
     000022E0  A$lcc1754029$149                   load
     000022E3  A$lcc1754029$153                   load
     000022E3  C$load.c$23$1_0$132                load
     000022E4  A$lcc1754029$157                   load
     000022E4  C$load.c$24$1_0$132                load
     000022E6  A$lcc1754029$158                   load
     000022E7  A$lcc1754029$159                   load
     000022E8  A$lcc1754029$160                   load
     000022E9  A$lcc1754029$173                   load
     000022E9  C$load.c$26$1_0$136                load
     000022E9  C$load.c$27$3_0$138                load
     000022E9  G$reset_render_component$0$0       load
     000022E9  _reset_render_component            load
     000022EB  A$lcc1754029$175                   load
     000022EC  A$lcc1754029$176                   load
     000022EF  A$lcc1754029$177                   load
     000022F0  A$lcc1754029$178                   load
     000022F2  A$lcc1754029$182                   load
     000022F2  C$load.c$28$3_0$138                load
     000022F5  A$lcc1754029$183                   load
     000022F7  A$lcc1754029$184                   load
     000022F8  A$lcc1754029$185                   load
     000022FA  A$lcc1754029$189                   load
     000022FA  C$load.c$29$3_0$138                load
     000022FD  A$lcc1754029$190                   load
     000022FF  A$lcc1754029$191                   load
     00002300  A$lcc1754029$192                   load
     00002302  A$lcc1754029$196                   load
     00002302  C$load.c$27$2_0$137                load
     00002303  A$lcc1754029$197                   load
     00002305  A$lcc1754029$202                   load
     00002305  C$load.c$32$1_0$136                load
     00002306  A$lcc1754029$203                   load
     00002309  A$lcc1754029$211                   load
     00002309  C$load.c$33$1_0$136                load
     00002309  XG$reset_render_component$0$0      load
     0000230A  A$lcc1754030$56                    map_scenes
     0000230A  C$map_scenes.c$10$0_0$44           map_scenes
     0000230A  G$scene_manager_MapScene$0$0       map_scenes
     0000230A  _scene_manager_MapScene            map_scenes
     0000230B  A$lcc1754030$60                    map_scenes
     0000230B  C$map_scenes.c$12$2_0$44           map_scenes
     0000230D  A$lcc1754030$61                    map_scenes
     0000230E  A$lcc1754030$62                    map_scenes
     00002310  A$lcc1754030$63                    map_scenes
     00002312  A$lcc1754030$64                    map_scenes
     00002315  A$lcc1754030$65                    map_scenes
     00002316  A$lcc1754030$66                    map_scenes
ASxxxx Linker V03.00/V05.40 + sdld,  page 37.
Hexadecimal  [32-Bits]

Area                                    Addr        Size        Decimal Bytes (Attributes)
--------------------------------        ----        ----        ------- ----- ------------
_CODE                               00000200    0000321D =       12829. bytes (REL,CON)

      Value  Global                              Global Defined In Module
      -----  --------------------------------   ------------------------
     00002317  A$lcc1754030$67                    map_scenes
     00002318  A$lcc1754030$68                    map_scenes
     00002319  A$lcc1754030$69                    map_scenes
     0000231A  A$lcc1754030$70                    map_scenes
     0000231B  A$lcc1754030$71                    map_scenes
     00002324  A$lcc1754030$84                    map_scenes
     00002324  C$map_scenes.c$14$3_0$45           map_scenes
     00002324  C$map_scenes.c$15$3_0$45           map_scenes
     00002327  A$lcc1754030$88                    map_scenes
     00002327  C$map_scenes.c$16$3_0$45           map_scenes
     0000232A  A$lcc1754030$89                    map_scenes
     0000232B  A$lcc1754030$97                    map_scenes
     0000232B  C$map_scenes.c$17$3_0$45           map_scenes
     0000232B  C$map_scenes.c$18$3_0$45           map_scenes
     0000232E  A$lcc1754030$101                   map_scenes
     0000232E  C$map_scenes.c$19$3_0$45           map_scenes
     00002331  A$lcc1754030$102                   map_scenes
     00002332  A$lcc1754030$110                   map_scenes
     00002332  C$map_scenes.c$20$3_0$45           map_scenes
     00002332  C$map_scenes.c$21$3_0$45           map_scenes
     00002335  A$lcc1754030$114                   map_scenes
     00002335  C$map_scenes.c$22$3_0$45           map_scenes
     00002338  A$lcc1754030$115                   map_scenes
     00002339  A$lcc1754030$123                   map_scenes
     00002339  C$map_scenes.c$23$3_0$45           map_scenes
     00002339  C$map_scenes.c$24$3_0$45           map_scenes
     0000233C  A$lcc1754030$127                   map_scenes
     0000233C  C$map_scenes.c$25$3_0$45           map_scenes
     0000233F  A$lcc1754030$128                   map_scenes
     00002340  A$lcc1754030$136                   map_scenes
     00002340  C$map_scenes.c$26$3_0$45           map_scenes
     00002340  C$map_scenes.c$27$3_0$45           map_scenes
     00002343  A$lcc1754030$147                   map_scenes
     00002343  C$map_scenes.c$28$2_0$44           map_scenes
     00002343  C$map_scenes.c$29$2_0$44           map_scenes
     00002343  XG$scene_manager_MapScene$0$0      map_scenes
     00002344  A$lcc1754031$56                    money
     00002344  C$money.c$5$0_0$3                  money
     00002344  G$add_money$0$0                    money
     00002344  _add_money                         money
     00002345  A$lcc1754031$60                    money
     00002345  C$money.c$6$1_0$3                  money
     00002346  A$lcc1754031$61                    money
     00002348  A$lcc1754031$62                    money
     00002349  A$lcc1754031$63                    money
     0000234A  A$lcc1754031$64                    money
     0000234B  A$lcc1754031$65                    money
     0000234C  A$lcc1754031$66                    money
     0000234D  A$lcc1754031$67                    money
     0000234E  A$lcc1754031$68                    money
     0000234F  A$lcc1754031$69                    money
ASxxxx Linker V03.00/V05.40 + sdld,  page 38.
Hexadecimal  [32-Bits]

Area                                    Addr        Size        Decimal Bytes (Attributes)
--------------------------------        ----        ----        ------- ----- ------------
_CODE                               00000200    0000321D =       12829. bytes (REL,CON)

      Value  Global                              Global Defined In Module
      -----  --------------------------------   ------------------------
     00002350  A$lcc1754031$70                    money
     00002351  A$lcc1754031$71                    money
     00002354  A$lcc1754031$72                    money
     00002355  A$lcc1754031$73                    money
     00002358  A$lcc1754031$74                    money
     00002359  A$lcc1754031$75                    money
     0000235A  A$lcc1754031$76                    money
     0000235B  A$lcc1754031$77                    money
     0000235C  A$lcc1754031$78                    money
     0000235D  A$lcc1754031$79                    money
     0000235E  A$lcc1754031$80                    money
     00002361  A$lcc1754031$81                    money
     00002362  A$lcc1754031$82                    money
     00002363  A$lcc1754031$83                    money
     00002364  A$lcc1754031$87                    money
     00002364  C$money.c$7$1_0$3                  money
     00002366  A$lcc1754031$88                    money
     00002367  A$lcc1754031$89                    money
     00002368  A$lcc1754031$90                    money
     00002369  A$lcc1754031$91                    money
     0000236A  A$lcc1754031$92                    money
     0000236B  A$lcc1754031$93                    money
     0000236C  A$lcc1754031$94                    money
     0000236D  A$lcc1754031$95                    money
     0000236E  A$lcc1754031$96                    money
     0000236F  A$lcc1754031$97                    money
     00002370  A$lcc1754031$98                    money
     00002371  A$lcc1754031$99                    money
     00002372  A$lcc1754031$100                   money
     00002375  A$lcc1754031$101                   money
     00002378  A$lcc1754031$102                   money
     00002379  A$lcc1754031$103                   money
     0000237A  A$lcc1754031$104                   money
     0000237B  A$lcc1754031$105                   money
     0000237C  A$lcc1754031$106                   money
     0000237D  A$lcc1754031$107                   money
     0000237E  A$lcc1754031$108                   money
     0000237F  A$lcc1754031$109                   money
     00002380  A$lcc1754031$110                   money
     00002381  A$lcc1754031$118                   money
     00002381  C$money.c$8$1_0$3                  money
     00002381  XG$add_money$0$0                   money
     00002382  A$lcc1754033$75                    npcs
     00002382  C$npcs.c$19$0_0$130                npcs
     00002382  C$npcs.c$21$1_0$130                npcs
     00002382  G$init_NPCs$0$0                    npcs
     00002382  _init_NPCs                         npcs
     00002385  A$lcc1754033$76                    npcs
     00002388  A$lcc1754033$80                    npcs
     00002388  C$npcs.c$22$1_0$130                npcs
     0000238B  A$lcc1754033$81                    npcs
ASxxxx Linker V03.00/V05.40 + sdld,  page 39.
Hexadecimal  [32-Bits]

Area                                    Addr        Size        Decimal Bytes (Attributes)
--------------------------------        ----        ----        ------- ----- ------------
_CODE                               00000200    0000321D =       12829. bytes (REL,CON)

      Value  Global                              Global Defined In Module
      -----  --------------------------------   ------------------------
     0000238E  A$lcc1754033$85                    npcs
     0000238E  C$npcs.c$23$1_0$130                npcs
     00002391  A$lcc1754033$86                    npcs
     00002394  A$lcc1754033$94                    npcs
     00002394  C$npcs.c$24$1_0$130                npcs
     00002394  XG$init_NPCs$0$0                   npcs
     00002395  A$lcc1754033$104                   npcs
     00002395  C$npcs.c$26$1_0$132                npcs
     00002395  G$Scene_DrawNPCLine$0$0            npcs
     00002395  _Scene_DrawNPCLine                 npcs
     00002397  A$lcc1754033$105                   npcs
     00002399  A$lcc1754033$106                   npcs
     0000239A  A$lcc1754033$107                   npcs
     0000239B  A$lcc1754033$111                   npcs
     0000239B  C$npcs.c$34$1_1$132                npcs
     0000239E  A$lcc1754033$113                   npcs
     0000239F  A$lcc1754033$114                   npcs
     000023A1  A$lcc1754033$115                   npcs
     000023A2  A$lcc1754033$116                   npcs
     000023A3  A$lcc1754033$117                   npcs
     000023A4  A$lcc1754033$118                   npcs
     000023A5  A$lcc1754033$119                   npcs
     000023A6  A$lcc1754033$120                   npcs
     000023A7  A$lcc1754033$121                   npcs
     000023A8  A$lcc1754033$122                   npcs
     000023A9  A$lcc1754033$123                   npcs
     000023AA  A$lcc1754033$124                   npcs
     000023AC  A$lcc1754033$128                   npcs
     000023AC  C$npcs.c$36$3_0$134                npcs
     000023AD  A$lcc1754033$129                   npcs
     000023B0  A$lcc1754033$130                   npcs
     000023B1  A$lcc1754033$131                   npcs
     000023B2  A$lcc1754033$132                   npcs
     000023B4  A$lcc1754033$136                   npcs
     000023B4  C$npcs.c$37$3_0$134                npcs
     000023B6  A$lcc1754033$137                   npcs
     000023B7  A$lcc1754033$138                   npcs
     000023B8  A$lcc1754033$139                   npcs
     000023B9  A$lcc1754033$140                   npcs
     000023BA  A$lcc1754033$141                   npcs
     000023BB  A$lcc1754033$142                   npcs
     000023BC  A$lcc1754033$143                   npcs
     000023BD  A$lcc1754033$144                   npcs
     000023BF  A$lcc1754033$145                   npcs
     000023C0  A$lcc1754033$146                   npcs
     000023C1  A$lcc1754033$147                   npcs
     000023C3  A$lcc1754033$148                   npcs
     000023C4  A$lcc1754033$149                   npcs
     000023C5  A$lcc1754033$150                   npcs
     000023C7  A$lcc1754033$151                   npcs
     000023C8  A$lcc1754033$152                   npcs
ASxxxx Linker V03.00/V05.40 + sdld,  page 40.
Hexadecimal  [32-Bits]

Area                                    Addr        Size        Decimal Bytes (Attributes)
--------------------------------        ----        ----        ------- ----- ------------
_CODE                               00000200    0000321D =       12829. bytes (REL,CON)

      Value  Global                              Global Defined In Module
      -----  --------------------------------   ------------------------
     000023C9  A$lcc1754033$153                   npcs
     000023CA  A$lcc1754033$154                   npcs
     000023CB  A$lcc1754033$155                   npcs
     000023CE  A$lcc1754033$156                   npcs
     000023D0  A$lcc1754033$157                   npcs
     000023D1  A$lcc1754033$161                   npcs
     000023D1  C$npcs.c$34$2_0$133                npcs
     000023D2  A$lcc1754033$162                   npcs
     000023D4  A$lcc1754033$167                   npcs
     000023D4  C$npcs.c$40$1_1$132                npcs
     000023D7  A$lcc1754033$169                   npcs
     000023D9  A$lcc1754033$170                   npcs
     000023DA  A$lcc1754033$171                   npcs
     000023DB  A$lcc1754033$172                   npcs
     000023DC  A$lcc1754033$173                   npcs
     000023DD  A$lcc1754033$174                   npcs
     000023DE  A$lcc1754033$175                   npcs
     000023DF  A$lcc1754033$176                   npcs
     000023E0  A$lcc1754033$177                   npcs
     000023E1  A$lcc1754033$178                   npcs
     000023E3  A$lcc1754033$182                   npcs
     000023E3  C$npcs.c$42$3_0$136                npcs
     000023E4  A$lcc1754033$183                   npcs
     000023E7  A$lcc1754033$184                   npcs
     000023E8  A$lcc1754033$185                   npcs
     000023E9  A$lcc1754033$186                   npcs
     000023EA  A$lcc1754033$187                   npcs
     000023EC  A$lcc1754033$191                   npcs
     000023EC  C$npcs.c$43$3_0$136                npcs
     000023EE  A$lcc1754033$192                   npcs
     000023EF  A$lcc1754033$193                   npcs
     000023F0  A$lcc1754033$194                   npcs
     000023F1  A$lcc1754033$195                   npcs
     000023F2  A$lcc1754033$196                   npcs
     000023F3  A$lcc1754033$197                   npcs
     000023F4  A$lcc1754033$198                   npcs
     000023F6  A$lcc1754033$199                   npcs
     000023F7  A$lcc1754033$200                   npcs
     000023F8  A$lcc1754033$201                   npcs
     000023FA  A$lcc1754033$202                   npcs
     000023FB  A$lcc1754033$203                   npcs
     000023FC  A$lcc1754033$204                   npcs
     000023FE  A$lcc1754033$205                   npcs
     000023FF  A$lcc1754033$206                   npcs
     00002400  A$lcc1754033$207                   npcs
     00002401  A$lcc1754033$208                   npcs
     00002402  A$lcc1754033$209                   npcs
     00002405  A$lcc1754033$210                   npcs
     00002407  A$lcc1754033$214                   npcs
     00002407  C$npcs.c$40$2_0$135                npcs
     00002408  A$lcc1754033$215                   npcs
ASxxxx Linker V03.00/V05.40 + sdld,  page 41.
Hexadecimal  [32-Bits]

Area                                    Addr        Size        Decimal Bytes (Attributes)
--------------------------------        ----        ----        ------- ----- ------------
_CODE                               00000200    0000321D =       12829. bytes (REL,CON)

      Value  Global                              Global Defined In Module
      -----  --------------------------------   ------------------------
     0000240A  A$lcc1754033$220                   npcs
     0000240D  A$lcc1754033$221                   npcs
     0000240F  A$lcc1754033$222                   npcs
     00002410  A$lcc1754033$223                   npcs
     00002412  A$lcc1754033$224                   npcs
     00002413  A$lcc1754033$225                   npcs
     00002414  A$lcc1754033$226                   npcs
     00002415  A$lcc1754033$227                   npcs
     00002416  A$lcc1754033$228                   npcs
     00002417  A$lcc1754033$229                   npcs
     00002418  A$lcc1754033$230                   npcs
     00002419  A$lcc1754033$231                   npcs
     0000241A  A$lcc1754033$232                   npcs
     0000241B  A$lcc1754033$233                   npcs
     0000241E  A$lcc1754033$235                   npcs
     0000241F  A$lcc1754033$236                   npcs
     00002420  A$lcc1754033$237                   npcs
     00002421  A$lcc1754033$238                   npcs
     00002422  A$lcc1754033$239                   npcs
     00002423  A$lcc1754033$240                   npcs
     00002425  A$lcc1754033$244                   npcs
     00002425  C$npcs.c$48$3_0$138                npcs
     00002426  A$lcc1754033$245                   npcs
     00002427  A$lcc1754033$246                   npcs
     0000242A  A$lcc1754033$247                   npcs
     0000242B  A$lcc1754033$248                   npcs
     0000242C  A$lcc1754033$249                   npcs
     0000242D  A$lcc1754033$250                   npcs
     0000242E  A$lcc1754033$251                   npcs
     00002430  A$lcc1754033$252                   npcs
     00002432  A$lcc1754033$253                   npcs
     00002433  A$lcc1754033$257                   npcs
     00002433  C$npcs.c$49$3_0$138                npcs
     00002434  A$lcc1754033$258                   npcs
     00002435  A$lcc1754033$259                   npcs
     00002436  A$lcc1754033$260                   npcs
     00002439  A$lcc1754033$261                   npcs
     0000243A  A$lcc1754033$262                   npcs
     0000243B  A$lcc1754033$263                   npcs
     0000243D  A$lcc1754033$264                   npcs
     0000243E  A$lcc1754033$265                   npcs
     0000243F  A$lcc1754033$266                   npcs
     00002441  A$lcc1754033$267                   npcs
     00002442  A$lcc1754033$268                   npcs
     00002443  A$lcc1754033$269                   npcs
     00002445  A$lcc1754033$270                   npcs
     00002446  A$lcc1754033$271                   npcs
     00002447  A$lcc1754033$272                   npcs
     00002448  A$lcc1754033$273                   npcs
     00002449  A$lcc1754033$274                   npcs
     0000244C  A$lcc1754033$275                   npcs
ASxxxx Linker V03.00/V05.40 + sdld,  page 42.
Hexadecimal  [32-Bits]

Area                                    Addr        Size        Decimal Bytes (Attributes)
--------------------------------        ----        ----        ------- ----- ------------
_CODE                               00000200    0000321D =       12829. bytes (REL,CON)

      Value  Global                              Global Defined In Module
      -----  --------------------------------   ------------------------
     0000244E  A$lcc1754033$276                   npcs
     0000244F  A$lcc1754033$280                   npcs
     0000244F  C$npcs.c$46$2_0$137                npcs
     00002450  A$lcc1754033$281                   npcs
     00002452  A$lcc1754033$286                   npcs
     00002452  C$npcs.c$52$1_1$139                npcs
     00002455  A$lcc1754033$287                   npcs
     00002457  A$lcc1754033$288                   npcs
     00002458  A$lcc1754033$289                   npcs
     0000245A  A$lcc1754033$290                   npcs
     0000245B  A$lcc1754033$291                   npcs
     0000245C  A$lcc1754033$292                   npcs
     0000245D  A$lcc1754033$293                   npcs
     0000245E  A$lcc1754033$294                   npcs
     00002460  A$lcc1754033$295                   npcs
     00002462  A$lcc1754033$296                   npcs
     00002463  A$lcc1754033$300                   npcs
     00002463  C$npcs.c$53$1_1$139                npcs
     00002466  A$lcc1754033$301                   npcs
     00002467  A$lcc1754033$302                   npcs
     00002468  A$lcc1754033$303                   npcs
     0000246B  A$lcc1754033$304                   npcs
     0000246C  A$lcc1754033$305                   npcs
     0000246F  A$lcc1754033$306                   npcs
     00002470  A$lcc1754033$307                   npcs
     00002473  A$lcc1754033$311                   npcs
     00002473  C$npcs.c$54$1_1$132                npcs
     00002475  A$lcc1754033$312                   npcs
     00002476  A$lcc1754033$313                   npcs
     00002478  A$lcc1754033$314                   npcs
     00002479  A$lcc1754034$66                    player
     00002479  C$player.c$7$0_0$136               player
     00002479  G$init_player$0$0                  player
     00002479  _init_player                       player
     0000247B  A$lcc1754034$70                    player
     0000247B  C$player.c$9$1_0$136               player
     0000247E  A$lcc1754034$71                    player
     00002481  A$lcc1754034$72                    player
     00002482  A$lcc1754034$76                    player
     00002482  C$player.c$11$1_0$136              player
     00002483  A$lcc1754034$77                    player
     00002485  A$lcc1754034$78                    player
     00002488  A$lcc1754034$79                    player
     00002489  A$lcc1754034$80                    player
     0000248B  A$lcc1754034$84                    player
     0000248B  C$player.c$12$1_0$136              player
     0000248E  A$lcc1754034$85                    player
     00002491  A$lcc1754034$86                    player
     00002492  A$lcc1754034$87                    player
     00002494  A$lcc1754034$88                    player
     00002495  A$lcc1754034$89                    player
ASxxxx Linker V03.00/V05.40 + sdld,  page 43.
Hexadecimal  [32-Bits]

Area                                    Addr        Size        Decimal Bytes (Attributes)
--------------------------------        ----        ----        ------- ----- ------------
_CODE                               00000200    0000321D =       12829. bytes (REL,CON)

      Value  Global                              Global Defined In Module
      -----  --------------------------------   ------------------------
     00002497  A$lcc1754034$93                    player
     00002497  C$player.c$11$1_1$136              player
     0000249A  A$lcc1754034$94                    player
     0000249B  A$lcc1754034$98                    player
     0000249B  C$player.c$14$1_0$136              player
     0000249C  A$lcc1754034$99                    player
     0000249E  A$lcc1754034$100                   player
     0000249F  A$lcc1754034$101                   player
     000024A0  A$lcc1754034$102                   player
     000024A3  A$lcc1754034$106                   player
     000024A3  C$player.c$16$1_0$136              player
     000024A6  A$lcc1754034$107                   player
     000024A7  A$lcc1754034$108                   player
     000024A9  A$lcc1754034$109                   player
     000024AA  A$lcc1754034$110                   player
     000024AC  A$lcc1754034$111                   player
     000024AE  A$lcc1754034$112                   player
     000024AF  A$lcc1754034$113                   player
     000024B1  A$lcc1754034$114                   player
     000024B2  A$lcc1754034$115                   player
     000024B3  A$lcc1754034$116                   player
     000024B5  A$lcc1754034$117                   player
     000024B7  A$lcc1754034$118                   player
     000024B8  A$lcc1754034$119                   player
     000024B9  A$lcc1754034$120                   player
     000024BA  A$lcc1754034$121                   player
     000024BB  A$lcc1754034$122                   player
     000024BC  A$lcc1754034$123                   player
     000024BD  A$lcc1754034$127                   player
     000024BD  C$player.c$17$1_0$136              player
     000024C0  A$lcc1754034$128                   player
     000024C1  A$lcc1754034$129                   player
     000024C2  A$lcc1754034$130                   player
     000024C4  A$lcc1754034$131                   player
     000024C5  A$lcc1754034$132                   player
     000024C7  A$lcc1754034$133                   player
     000024C9  A$lcc1754034$134                   player
     000024CA  A$lcc1754034$135                   player
     000024CB  A$lcc1754034$136                   player
     000024CD  A$lcc1754034$137                   player
     000024CE  A$lcc1754034$138                   player
     000024CF  A$lcc1754034$139                   player
     000024D0  A$lcc1754034$140                   player
     000024D1  A$lcc1754034$141                   player
     000024D2  A$lcc1754034$142                   player
     000024D3  A$lcc1754034$143                   player
     000024D4  A$lcc1754034$147                   player
     000024D4  C$player.c$19$1_0$136              player
     000024D7  A$lcc1754034$148                   player
     000024D8  A$lcc1754034$149                   player
     000024DA  A$lcc1754034$150                   player
ASxxxx Linker V03.00/V05.40 + sdld,  page 44.
Hexadecimal  [32-Bits]

Area                                    Addr        Size        Decimal Bytes (Attributes)
--------------------------------        ----        ----        ------- ----- ------------
_CODE                               00000200    0000321D =       12829. bytes (REL,CON)

      Value  Global                              Global Defined In Module
      -----  --------------------------------   ------------------------
     000024DD  A$lcc1754034$151                   player
     000024DE  A$lcc1754034$152                   player
     000024E0  A$lcc1754034$156                   player
     000024E0  C$player.c$20$1_0$136              player
     000024E3  A$lcc1754034$157                   player
     000024E6  A$lcc1754034$158                   player
     000024E7  A$lcc1754034$159                   player
     000024E9  A$lcc1754034$160                   player
     000024EA  A$lcc1754034$161                   player
     000024EC  A$lcc1754034$165                   player
     000024EC  C$player.c$21$1_0$136              player
     000024EF  A$lcc1754034$166                   player
     000024F2  A$lcc1754034$167                   player
     000024F3  A$lcc1754034$168                   player
     000024F5  A$lcc1754034$169                   player
     000024F6  A$lcc1754034$170                   player
     000024F8  A$lcc1754034$174                   player
     000024F8  C$player.c$24$2_0$137              player
     000024FB  A$lcc1754034$175                   player
     000024FC  A$lcc1754034$176                   player
     000024FD  A$lcc1754034$177                   player
     000024FE  A$lcc1754034$178                   player
     00002500  A$lcc1754034$179                   player
     00002502  A$lcc1754034$180                   player
     00002503  A$lcc1754034$181                   player
     00002505  A$lcc1754034$182                   player
     00002506  A$lcc1754034$183                   player
     00002508  A$lcc1754034$184                   player
     00002509  A$lcc1754034$185                   player
     0000250B  A$lcc1754034$186                   player
     0000250C  A$lcc1754034$187                   player
     0000250E  A$lcc1754034$188                   player
     0000250F  A$lcc1754034$189                   player
     00002511  A$lcc1754034$193                   player
     00002511  C$player.c$30$2_0$137              player
     00002512  A$lcc1754034$194                   player
     00002514  A$lcc1754034$195                   player
     00002515  A$lcc1754034$196                   player
     00002517  A$lcc1754034$197                   player
     00002518  A$lcc1754034$198                   player
     0000251A  A$lcc1754034$199                   player
     0000251B  A$lcc1754034$200                   player
     0000251D  A$lcc1754034$201                   player
     0000251E  A$lcc1754034$202                   player
     00002520  A$lcc1754034$203                   player
     00002521  A$lcc1754034$204                   player
     00002523  A$lcc1754034$205                   player
     00002524  A$lcc1754034$206                   player
     00002526  A$lcc1754034$207                   player
     00002527  A$lcc1754034$208                   player
     00002529  A$lcc1754034$209                   player
ASxxxx Linker V03.00/V05.40 + sdld,  page 45.
Hexadecimal  [32-Bits]

Area                                    Addr        Size        Decimal Bytes (Attributes)
--------------------------------        ----        ----        ------- ----- ------------
_CODE                               00000200    0000321D =       12829. bytes (REL,CON)

      Value  Global                              Global Defined In Module
      -----  --------------------------------   ------------------------
     0000252A  A$lcc1754034$210                   player
     0000252B  A$lcc1754034$211                   player
     0000252C  A$lcc1754034$212                   player
     0000252D  A$lcc1754034$213                   player
     0000252E  A$lcc1754034$214                   player
     00002530  A$lcc1754034$215                   player
     00002531  A$lcc1754034$216                   player
     00002533  A$lcc1754034$217                   player
     00002534  A$lcc1754034$218                   player
     00002536  A$lcc1754034$219                   player
     00002537  A$lcc1754034$220                   player
     00002539  A$lcc1754034$221                   player
     0000253A  A$lcc1754034$222                   player
     0000253C  A$lcc1754034$223                   player
     0000253D  A$lcc1754034$224                   player
     0000253F  A$lcc1754034$225                   player
     00002540  A$lcc1754034$226                   player
     00002542  A$lcc1754034$227                   player
     00002543  A$lcc1754034$228                   player
     00002545  A$lcc1754034$229                   player
     00002546  A$lcc1754034$230                   player
     00002548  A$lcc1754034$231                   player
     00002549  A$lcc1754034$232                   player
     0000254B  A$lcc1754034$233                   player
     0000254C  A$lcc1754034$234                   player
     0000254E  A$lcc1754034$235                   player
     0000254F  A$lcc1754034$236                   player
     00002551  A$lcc1754034$237                   player
     00002552  A$lcc1754034$238                   player
     00002554  A$lcc1754034$239                   player
     00002555  A$lcc1754034$240                   player
     00002557  A$lcc1754034$241                   player
     00002558  A$lcc1754034$242                   player
     00002559  A$lcc1754034$243                   player
     0000255A  A$lcc1754034$244                   player
     0000255B  A$lcc1754034$245                   player
     0000255C  A$lcc1754034$246                   player
     0000255E  A$lcc1754034$247                   player
     0000255F  A$lcc1754034$248                   player
     00002561  A$lcc1754034$249                   player
     00002562  A$lcc1754034$250                   player
     00002564  A$lcc1754034$251                   player
     00002565  A$lcc1754034$252                   player
     00002567  A$lcc1754034$253                   player
     00002568  A$lcc1754034$254                   player
     0000256A  A$lcc1754034$255                   player
     0000256B  A$lcc1754034$256                   player
     0000256D  A$lcc1754034$260                   player
     0000256D  C$player.c$53$2_0$137              player
     0000256E  A$lcc1754034$261                   player
     00002571  A$lcc1754034$262                   player
ASxxxx Linker V03.00/V05.40 + sdld,  page 46.
Hexadecimal  [32-Bits]

Area                                    Addr        Size        Decimal Bytes (Attributes)
--------------------------------        ----        ----        ------- ----- ------------
_CODE                               00000200    0000321D =       12829. bytes (REL,CON)

      Value  Global                              Global Defined In Module
      -----  --------------------------------   ------------------------
     00002572  A$lcc1754034$263                   player
     00002573  A$lcc1754034$264                   player
     00002574  A$lcc1754034$265                   player
     00002575  A$lcc1754034$266                   player
     00002577  A$lcc1754034$267                   player
     00002578  A$lcc1754034$268                   player
     0000257A  A$lcc1754034$269                   player
     0000257B  A$lcc1754034$270                   player
     0000257D  A$lcc1754034$271                   player
     0000257E  A$lcc1754034$272                   player
     00002580  A$lcc1754034$273                   player
     00002581  A$lcc1754034$274                   player
     00002583  A$lcc1754034$275                   player
     00002584  A$lcc1754034$276                   player
     00002586  A$lcc1754034$280                   player
     00002586  C$player.c$59$2_0$137              player
     00002587  A$lcc1754034$281                   player
     00002589  A$lcc1754034$282                   player
     0000258A  A$lcc1754034$283                   player
     0000258C  A$lcc1754034$284                   player
     0000258D  A$lcc1754034$285                   player
     0000258F  A$lcc1754034$286                   player
     00002590  A$lcc1754034$287                   player
     00002592  A$lcc1754034$288                   player
     00002593  A$lcc1754034$289                   player
     00002595  A$lcc1754034$290                   player
     00002596  A$lcc1754034$291                   player
     00002598  A$lcc1754034$292                   player
     00002599  A$lcc1754034$293                   player
     0000259B  A$lcc1754034$294                   player
     0000259C  A$lcc1754034$295                   player
     0000259E  A$lcc1754034$296                   player
     0000259F  A$lcc1754034$297                   player
     000025A0  A$lcc1754034$298                   player
     000025A1  A$lcc1754034$299                   player
     000025A2  A$lcc1754034$300                   player
     000025A3  A$lcc1754034$301                   player
     000025A5  A$lcc1754034$302                   player
     000025A6  A$lcc1754034$303                   player
     000025A8  A$lcc1754034$304                   player
     000025A9  A$lcc1754034$305                   player
     000025AB  A$lcc1754034$306                   player
     000025AC  A$lcc1754034$307                   player
     000025AE  A$lcc1754034$308                   player
     000025AF  A$lcc1754034$309                   player
     000025B1  A$lcc1754034$310                   player
     000025B2  A$lcc1754034$311                   player
     000025B4  A$lcc1754034$312                   player
     000025B5  A$lcc1754034$313                   player
     000025B7  A$lcc1754034$314                   player
     000025B8  A$lcc1754034$315                   player
ASxxxx Linker V03.00/V05.40 + sdld,  page 47.
Hexadecimal  [32-Bits]

Area                                    Addr        Size        Decimal Bytes (Attributes)
--------------------------------        ----        ----        ------- ----- ------------
_CODE                               00000200    0000321D =       12829. bytes (REL,CON)

      Value  Global                              Global Defined In Module
      -----  --------------------------------   ------------------------
     000025BA  A$lcc1754034$316                   player
     000025BB  A$lcc1754034$317                   player
     000025BD  A$lcc1754034$318                   player
     000025BE  A$lcc1754034$319                   player
     000025C0  A$lcc1754034$320                   player
     000025C1  A$lcc1754034$321                   player
     000025C3  A$lcc1754034$322                   player
     000025C4  A$lcc1754034$323                   player
     000025C6  A$lcc1754034$324                   player
     000025C7  A$lcc1754034$325                   player
     000025C9  A$lcc1754034$326                   player
     000025CA  A$lcc1754034$327                   player
     000025CC  A$lcc1754034$328                   player
     000025CD  A$lcc1754034$329                   player
     000025CE  A$lcc1754034$330                   player
     000025CF  A$lcc1754034$331                   player
     000025D0  A$lcc1754034$332                   player
     000025D1  A$lcc1754034$333                   player
     000025D3  A$lcc1754034$334                   player
     000025D4  A$lcc1754034$335                   player
     000025D6  A$lcc1754034$336                   player
     000025D7  A$lcc1754034$337                   player
     000025D9  A$lcc1754034$338                   player
     000025DA  A$lcc1754034$339                   player
     000025DC  A$lcc1754034$340                   player
     000025DD  A$lcc1754034$341                   player
     000025DF  A$lcc1754034$342                   player
     000025E0  A$lcc1754034$343                   player
     000025E2  A$lcc1754034$347                   player
     000025E2  C$player.c$81$1_1$137              player
     000025E5  A$lcc1754034$348                   player
     000025E6  A$lcc1754034$349                   player
     000025E8  A$lcc1754034$350                   player
     000025E9  A$lcc1754034$351                   player
     000025EA  A$lcc1754034$352                   player
     000025EB  A$lcc1754034$353                   player
     000025EC  A$lcc1754034$354                   player
     000025ED  A$lcc1754034$355                   player
     000025EE  A$lcc1754034$356                   player
     000025EF  A$lcc1754034$357                   player
     000025F0  A$lcc1754034$358                   player
     000025F1  A$lcc1754034$359                   player
     000025F4  A$lcc1754034$360                   player
     000025F5  A$lcc1754034$361                   player
     000025F6  A$lcc1754034$362                   player
     000025F7  A$lcc1754034$363                   player
     000025FA  A$lcc1754034$364                   player
     000025FB  A$lcc1754034$365                   player
     000025FD  A$lcc1754034$366                   player
     000025FE  A$lcc1754034$367                   player
     000025FF  A$lcc1754034$368                   player
ASxxxx Linker V03.00/V05.40 + sdld,  page 48.
Hexadecimal  [32-Bits]

Area                                    Addr        Size        Decimal Bytes (Attributes)
--------------------------------        ----        ----        ------- ----- ------------
_CODE                               00000200    0000321D =       12829. bytes (REL,CON)

      Value  Global                              Global Defined In Module
      -----  --------------------------------   ------------------------
     00002602  A$lcc1754034$369                   player
     00002603  A$lcc1754034$370                   player
     00002604  A$lcc1754034$371                   player
     00002605  A$lcc1754034$372                   player
     00002606  A$lcc1754034$373                   player
     00002607  A$lcc1754034$374                   player
     00002608  A$lcc1754034$375                   player
     0000260B  A$lcc1754034$376                   player
     0000260E  A$lcc1754034$380                   player
     0000260E  C$player.c$82$1_1$137              player
     00002611  A$lcc1754034$381                   player
     00002612  A$lcc1754034$382                   player
     00002614  A$lcc1754034$383                   player
     00002615  A$lcc1754034$384                   player
     00002616  A$lcc1754034$385                   player
     00002617  A$lcc1754034$386                   player
     00002618  A$lcc1754034$387                   player
     00002619  A$lcc1754034$388                   player
     0000261A  A$lcc1754034$389                   player
     0000261B  A$lcc1754034$390                   player
     0000261C  A$lcc1754034$391                   player
     0000261D  A$lcc1754034$392                   player
     00002620  A$lcc1754034$393                   player
     00002621  A$lcc1754034$394                   player
     00002622  A$lcc1754034$395                   player
     00002623  A$lcc1754034$396                   player
     00002626  A$lcc1754034$397                   player
     00002627  A$lcc1754034$398                   player
     00002629  A$lcc1754034$399                   player
     0000262A  A$lcc1754034$400                   player
     0000262B  A$lcc1754034$401                   player
     0000262E  A$lcc1754034$402                   player
     0000262F  A$lcc1754034$403                   player
     00002630  A$lcc1754034$404                   player
     00002632  A$lcc1754034$405                   player
     00002633  A$lcc1754034$406                   player
     00002634  A$lcc1754034$407                   player
     00002635  A$lcc1754034$408                   player
     00002638  A$lcc1754034$409                   player
     0000263B  A$lcc1754034$413                   player
     0000263B  C$player.c$83$1_1$137              player
     0000263E  A$lcc1754034$414                   player
     0000263F  A$lcc1754034$415                   player
     00002641  A$lcc1754034$416                   player
     00002642  A$lcc1754034$417                   player
     00002643  A$lcc1754034$418                   player
     00002644  A$lcc1754034$419                   player
     00002645  A$lcc1754034$420                   player
     00002646  A$lcc1754034$421                   player
     00002647  A$lcc1754034$422                   player
     00002648  A$lcc1754034$423                   player
ASxxxx Linker V03.00/V05.40 + sdld,  page 49.
Hexadecimal  [32-Bits]

Area                                    Addr        Size        Decimal Bytes (Attributes)
--------------------------------        ----        ----        ------- ----- ------------
_CODE                               00000200    0000321D =       12829. bytes (REL,CON)

      Value  Global                              Global Defined In Module
      -----  --------------------------------   ------------------------
     00002649  A$lcc1754034$424                   player
     0000264A  A$lcc1754034$425                   player
     0000264D  A$lcc1754034$426                   player
     0000264E  A$lcc1754034$427                   player
     0000264F  A$lcc1754034$428                   player
     00002650  A$lcc1754034$429                   player
     00002653  A$lcc1754034$430                   player
     00002654  A$lcc1754034$431                   player
     00002656  A$lcc1754034$432                   player
     00002657  A$lcc1754034$433                   player
     00002658  A$lcc1754034$434                   player
     0000265B  A$lcc1754034$435                   player
     0000265C  A$lcc1754034$436                   player
     0000265D  A$lcc1754034$437                   player
     0000265F  A$lcc1754034$438                   player
     00002660  A$lcc1754034$439                   player
     00002661  A$lcc1754034$440                   player
     00002662  A$lcc1754034$441                   player
     00002665  A$lcc1754034$442                   player
     00002668  A$lcc1754034$446                   player
     00002668  C$player.c$84$1_1$137              player
     0000266B  A$lcc1754034$447                   player
     0000266C  A$lcc1754034$448                   player
     0000266E  A$lcc1754034$449                   player
     0000266F  A$lcc1754034$450                   player
     00002670  A$lcc1754034$451                   player
     00002671  A$lcc1754034$452                   player
     00002672  A$lcc1754034$453                   player
     00002673  A$lcc1754034$454                   player
     00002674  A$lcc1754034$455                   player
     00002675  A$lcc1754034$456                   player
     00002676  A$lcc1754034$457                   player
     00002677  A$lcc1754034$458                   player
     0000267A  A$lcc1754034$459                   player
     0000267B  A$lcc1754034$460                   player
     0000267C  A$lcc1754034$461                   player
     0000267D  A$lcc1754034$462                   player
     00002680  A$lcc1754034$463                   player
     00002681  A$lcc1754034$464                   player
     00002683  A$lcc1754034$465                   player
     00002684  A$lcc1754034$466                   player
     00002685  A$lcc1754034$467                   player
     00002688  A$lcc1754034$468                   player
     00002689  A$lcc1754034$469                   player
     0000268A  A$lcc1754034$470                   player
     0000268C  A$lcc1754034$471                   player
     0000268D  A$lcc1754034$472                   player
     0000268E  A$lcc1754034$473                   player
     0000268F  A$lcc1754034$474                   player
     00002692  A$lcc1754034$475                   player
     00002695  A$lcc1754034$479                   player
ASxxxx Linker V03.00/V05.40 + sdld,  page 50.
Hexadecimal  [32-Bits]

Area                                    Addr        Size        Decimal Bytes (Attributes)
--------------------------------        ----        ----        ------- ----- ------------
_CODE                               00000200    0000321D =       12829. bytes (REL,CON)

      Value  Global                              Global Defined In Module
      -----  --------------------------------   ------------------------
     00002695  C$player.c$86$1_1$137              player
     00002698  A$lcc1754034$483                   player
     00002698  C$player.c$87$1_1$137              player
     00002699  A$lcc1754034$484                   player
     0000269A  A$lcc1754034$485                   player
     0000269C  A$lcc1754034$489                   player
     0000269C  C$player.c$88$1_1$137              player
     0000269F  A$lcc1754034$490                   player
     000026A1  A$lcc1754034$494                   player
     000026A1  C$player.c$89$1_1$137              player
     000026A4  A$lcc1754034$495                   player
     000026A6  A$lcc1754034$499                   player
     000026A6  C$player.c$91$1_1$137              player
     000026A9  A$lcc1754034$503                   player
     000026AB  A$lcc1754034$508                   player
     000026AB  C$player.c$92$1_1$136              player
     000026AB  XG$init_player$0$0                 player
     000026AC  A$lcc1754036$56                    render
     000026AC  C$render.c$5$0_0$130               render
     000026AC  G$render_reset$0$0                 render
     000026AC  _render_reset                      render
     000026AD  A$lcc1754036$60                    render
     000026AD  C$render.c$6$1_0$130               render
     000026B0  A$lcc1754036$61                    render
     000026B2  A$lcc1754036$62                    render
     000026B3  A$lcc1754036$63                    render
     000026B5  A$lcc1754036$67                    render
     000026B5  C$render.c$7$1_0$130               render
     000026B8  A$lcc1754036$68                    render
     000026BA  A$lcc1754036$69                    render
     000026BB  A$lcc1754036$70                    render
     000026BD  A$lcc1754036$78                    render
     000026BD  C$render.c$8$1_0$130               render
     000026BD  XG$render_reset$0$0                render
     000026BE  A$lcc1754037$56                    scene
     000026BE  C$scene.c$6$0_0$27                 scene
     000026BE  C$scene.c$8$2_0$28                 scene
     000026BE  G$Scene_Destroy$0$0                scene
     000026BE  _Scene_Destroy                     scene
     000026C1  A$lcc1754037$57                    scene
     000026C2  A$lcc1754037$58                    scene
     000026C3  A$lcc1754037$59                    scene
     000026C4  A$lcc1754037$60                    scene
     000026C5  A$lcc1754037$61                    scene
     000026C6  A$lcc1754037$62                    scene
     000026C7  A$lcc1754037$63                    scene
     000026C8  A$lcc1754037$67                    scene
     000026C8  C$scene.c$9$2_0$28                 scene
     000026C9  A$lcc1754037$71                    scene
     000026C9  C$scene.c$11$1_0$27                scene
     000026CA  A$lcc1754037$72                    scene
ASxxxx Linker V03.00/V05.40 + sdld,  page 51.
Hexadecimal  [32-Bits]

Area                                    Addr        Size        Decimal Bytes (Attributes)
--------------------------------        ----        ----        ------- ----- ------------
_CODE                               00000200    0000321D =       12829. bytes (REL,CON)

      Value  Global                              Global Defined In Module
      -----  --------------------------------   ------------------------
     000026CB  A$lcc1754037$73                    scene
     000026CC  A$lcc1754037$74                    scene
     000026CF  A$lcc1754037$75                    scene
     000026D0  A$lcc1754037$79                    scene
     000026D0  C$scene.c$12$1_0$27                scene
     000026D1  A$lcc1754037$80                    scene
     000026D2  A$lcc1754037$81                    scene
     000026D3  A$lcc1754037$82                    scene
     000026D4  A$lcc1754037$90                    scene
     000026D4  C$scene.c$13$1_0$27                scene
     000026D4  XG$Scene_Destroy$0$0               scene
     000026D5  A$lcc1754038$63                    scene_manager
     000026D5  C$scene_manager.c$14$0_0$164       scene_manager
     000026D5  C$scene_manager.c$17$1_0$164       scene_manager
     000026D5  G$SceneManager_CleanScreen$0$0     scene_manager
     000026D5  _SceneManager_CleanScreen          scene_manager
     000026D8  A$lcc1754038$64                    scene_manager
     000026DB  A$lcc1754038$65                    scene_manager
     000026DC  A$lcc1754038$66                    scene_manager
     000026DE  A$lcc1754038$67                    scene_manager
     000026DF  A$lcc1754038$68                    scene_manager
     000026E1  A$lcc1754038$72                    scene_manager
     000026E1  C$scene_manager.c$18$1_0$164       scene_manager
     000026E4  A$lcc1754038$73                    scene_manager
     000026E5  A$lcc1754038$74                    scene_manager
     000026E7  A$lcc1754038$75                    scene_manager
     000026E8  A$lcc1754038$76                    scene_manager
     000026EA  A$lcc1754038$80                    scene_manager
     000026EA  C$scene_manager.c$19$1_0$164       scene_manager
     000026ED  A$lcc1754038$81                    scene_manager
     000026EE  A$lcc1754038$82                    scene_manager
     000026F0  A$lcc1754038$83                    scene_manager
     000026F1  A$lcc1754038$84                    scene_manager
     000026F3  A$lcc1754038$88                    scene_manager
     000026F3  C$scene_manager.c$20$1_0$164       scene_manager
     000026F6  A$lcc1754038$89                    scene_manager
     000026F7  A$lcc1754038$90                    scene_manager
     000026F9  A$lcc1754038$91                    scene_manager
     000026FA  A$lcc1754038$92                    scene_manager
     000026FC  A$lcc1754038$100                   scene_manager
     000026FC  C$scene_manager.c$21$1_0$164       scene_manager
     000026FC  XG$SceneManager_CleanScreen$0$0    scene_manager
     000026FD  A$lcc1754038$113                   scene_manager
     000026FD  C$scene_manager.c$23$1_0$166       scene_manager
     000026FD  C$scene_manager.c$25$1_0$166       scene_manager
     000026FD  G$SceneManager_Create$0$0          scene_manager
     000026FD  _SceneManager_Create               scene_manager
     000026FE  A$lcc1754038$114                   scene_manager
     00002701  A$lcc1754038$115                   scene_manager
     00002704  A$lcc1754038$116                   scene_manager
     00002705  A$lcc1754038$117                   scene_manager
ASxxxx Linker V03.00/V05.40 + sdld,  page 52.
Hexadecimal  [32-Bits]

Area                                    Addr        Size        Decimal Bytes (Attributes)
--------------------------------        ----        ----        ------- ----- ------------
_CODE                               00000200    0000321D =       12829. bytes (REL,CON)

      Value  Global                              Global Defined In Module
      -----  --------------------------------   ------------------------
     00002708  A$lcc1754038$118                   scene_manager
     00002709  A$lcc1754038$119                   scene_manager
     0000270A  A$lcc1754038$123                   scene_manager
     0000270A  C$scene_manager.c$27$1_0$166       scene_manager
     0000270B  A$lcc1754038$124                   scene_manager
     0000270C  A$lcc1754038$125                   scene_manager
     0000270D  A$lcc1754038$126                   scene_manager
     00002710  A$lcc1754038$127                   scene_manager
     00002711  A$lcc1754038$128                   scene_manager
     00002712  A$lcc1754038$129                   scene_manager
     00002713  A$lcc1754038$130                   scene_manager
     00002714  A$lcc1754038$134                   scene_manager
     00002714  C$scene_manager.c$28$1_0$166       scene_manager
     00002717  A$lcc1754038$135                   scene_manager
     0000271A  A$lcc1754038$136                   scene_manager
     0000271B  A$lcc1754038$137                   scene_manager
     0000271C  A$lcc1754038$138                   scene_manager
     0000271D  A$lcc1754038$139                   scene_manager
     0000271E  A$lcc1754038$140                   scene_manager
     00002720  A$lcc1754038$141                   scene_manager
     00002721  A$lcc1754038$142                   scene_manager
     00002723  A$lcc1754038$150                   scene_manager
     00002723  C$scene_manager.c$29$1_0$166       scene_manager
     00002723  XG$SceneManager_Create$0$0         scene_manager
     00002724  A$lcc1754038$160                   scene_manager
     00002724  C$scene_manager.c$31$1_0$168       scene_manager
     00002724  G$SceneManager_ChangeScene$0$0     scene_manager
     00002724  _SceneManager_ChangeScene          scene_manager
     00002726  A$lcc1754038$161                   scene_manager
     00002728  A$lcc1754038$162                   scene_manager
     00002729  A$lcc1754038$163                   scene_manager
     0000272A  A$lcc1754038$164                   scene_manager
     0000272B  A$lcc1754038$165                   scene_manager
     0000272C  A$lcc1754038$166                   scene_manager
     0000272D  A$lcc1754038$170                   scene_manager
     00002730  A$lcc1754038$171                   scene_manager
     00002731  A$lcc1754038$172                   scene_manager
     00002732  A$lcc1754038$173                   scene_manager
     00002733  A$lcc1754038$174                   scene_manager
     00002734  A$lcc1754038$175                   scene_manager
     00002735  A$lcc1754038$176                   scene_manager
     00002736  A$lcc1754038$177                   scene_manager
     00002737  A$lcc1754038$178                   scene_manager
     00002738  A$lcc1754038$182                   scene_manager
     00002738  C$scene_manager.c$34$2_0$169       scene_manager
     0000273A  A$lcc1754038$186                   scene_manager
     0000273B  A$lcc1754038$187                   scene_manager
     0000273C  A$lcc1754038$188                   scene_manager
     0000273D  A$lcc1754038$189                   scene_manager
     0000273E  A$lcc1754038$190                   scene_manager
     0000273F  A$lcc1754038$191                   scene_manager
ASxxxx Linker V03.00/V05.40 + sdld,  page 53.
Hexadecimal  [32-Bits]

Area                                    Addr        Size        Decimal Bytes (Attributes)
--------------------------------        ----        ----        ------- ----- ------------
_CODE                               00000200    0000321D =       12829. bytes (REL,CON)

      Value  Global                              Global Defined In Module
      -----  --------------------------------   ------------------------
     00002740  A$lcc1754038$192                   scene_manager
     00002741  A$lcc1754038$193                   scene_manager
     00002743  A$lcc1754038$194                   scene_manager
     00002746  A$lcc1754038$195                   scene_manager
     00002747  A$lcc1754038$196                   scene_manager
     00002748  A$lcc1754038$197                   scene_manager
     00002749  A$lcc1754038$198                   scene_manager
     0000274A  A$lcc1754038$199                   scene_manager
     0000274B  A$lcc1754038$200                   scene_manager
     0000274D  A$lcc1754038$204                   scene_manager
     0000274D  C$scene_manager.c$37$2_0$170       scene_manager
     0000274E  A$lcc1754038$205                   scene_manager
     0000274F  A$lcc1754038$206                   scene_manager
     00002752  A$lcc1754038$207                   scene_manager
     00002753  A$lcc1754038$208                   scene_manager
     00002754  A$lcc1754038$209                   scene_manager
     00002755  A$lcc1754038$215                   scene_manager
     00002755  C$scene_manager.c$39$1_0$168       scene_manager
     00002758  A$lcc1754038$216                   scene_manager
     00002759  A$lcc1754038$217                   scene_manager
     0000275A  A$lcc1754038$218                   scene_manager
     0000275B  A$lcc1754038$219                   scene_manager
     0000275C  A$lcc1754038$220                   scene_manager
     0000275D  A$lcc1754038$221                   scene_manager
     0000275E  A$lcc1754038$222                   scene_manager
     0000275F  A$lcc1754038$223                   scene_manager
     00002761  A$lcc1754038$224                   scene_manager
     00002762  A$lcc1754038$225                   scene_manager
     00002765  A$lcc1754038$226                   scene_manager
     00002766  A$lcc1754038$227                   scene_manager
     00002767  A$lcc1754038$228                   scene_manager
     00002768  A$lcc1754038$229                   scene_manager
     00002769  A$lcc1754038$230                   scene_manager
     0000276A  A$lcc1754038$231                   scene_manager
     0000276B  A$lcc1754038$232                   scene_manager
     0000276C  A$lcc1754038$233                   scene_manager
     0000276D  A$lcc1754038$237                   scene_manager
     0000276D  C$scene_manager.c$41$1_0$168       scene_manager
     00002770  A$lcc1754038$241                   scene_manager
     00002770  C$scene_manager.c$33$1_0$168       scene_manager
     00002773  A$lcc1754038$242                   scene_manager
     00002774  A$lcc1754038$243                   scene_manager
     00002775  A$lcc1754038$244                   scene_manager
     00002776  A$lcc1754038$245                   scene_manager
     00002777  A$lcc1754038$246                   scene_manager
     00002778  A$lcc1754038$247                   scene_manager
     00002779  A$lcc1754038$251                   scene_manager
     00002779  C$scene_manager.c$36$1_0$168       scene_manager
     0000277A  A$lcc1754038$252                   scene_manager
     0000277B  A$lcc1754038$253                   scene_manager
     0000277C  A$lcc1754038$254                   scene_manager
ASxxxx Linker V03.00/V05.40 + sdld,  page 54.
Hexadecimal  [32-Bits]

Area                                    Addr        Size        Decimal Bytes (Attributes)
--------------------------------        ----        ----        ------- ----- ------------
_CODE                               00000200    0000321D =       12829. bytes (REL,CON)

      Value  Global                              Global Defined In Module
      -----  --------------------------------   ------------------------
     0000277D  A$lcc1754038$255                   scene_manager
     0000277E  A$lcc1754038$259                   scene_manager
     0000277E  C$scene_manager.c$42$1_0$168       scene_manager
     0000277F  A$lcc1754038$260                   scene_manager
     00002780  A$lcc1754038$261                   scene_manager
     00002781  A$lcc1754038$262                   scene_manager
     00002783  A$lcc1754038$263                   scene_manager
     00002784  A$lcc1754038$264                   scene_manager
     00002785  A$lcc1754038$265                   scene_manager
     00002786  A$lcc1754038$266                   scene_manager
     00002787  A$lcc1754038$267                   scene_manager
     00002788  A$lcc1754038$268                   scene_manager
     00002789  A$lcc1754038$269                   scene_manager
     0000278A  A$lcc1754038$270                   scene_manager
     0000278B  A$lcc1754038$271                   scene_manager
     0000278C  A$lcc1754038$272                   scene_manager
     0000278F  A$lcc1754038$276                   scene_manager
     0000278F  C$scene_manager.c$44$1_0$168       scene_manager
     00002791  A$lcc1754038$277                   scene_manager
     00002793  A$lcc1754038$278                   scene_manager
     00002795  A$lcc1754038$283                   scene_manager
     00002797  A$lcc1754038$288                   scene_manager
     00002797  C$scene_manager.c$45$1_0$168       scene_manager
     00002797  XG$SceneManager_ChangeScene$0$0    scene_manager
     00002798  A$lcc1754039$61                    gender_select
     00002798  C$gender_select.c$6$0_0$30         gender_select
     00002798  C$gender_select.c$8$1_0$30         gender_select
     00002798  G$GenderSelect_Create$0$0          gender_select
     00002798  _GenderSelect_Create               gender_select
     0000279B  A$lcc1754039$62                    gender_select
     0000279D  A$lcc1754039$63                    gender_select
     0000279E  A$lcc1754039$64                    gender_select
     000027A0  A$lcc1754039$68                    gender_select
     000027A0  C$gender_select.c$9$1_0$30         gender_select
     000027A1  A$lcc1754039$69                    gender_select
     000027A3  A$lcc1754039$70                    gender_select
     000027A4  A$lcc1754039$71                    gender_select
     000027A6  A$lcc1754039$75                    gender_select
     000027A6  C$gender_select.c$11$1_0$30        gender_select
     000027A9  A$lcc1754039$76                    gender_select
     000027AA  A$lcc1754039$77                    gender_select
     000027AB  A$lcc1754039$78                    gender_select
     000027AC  A$lcc1754039$86                    gender_select
     000027AC  C$gender_select.c$12$1_0$30        gender_select
     000027AC  XG$GenderSelect_Create$0$0         gender_select
     000027AD  A$lcc1754040$58                    gender_select_init
     000027AD  C$gender_select_init.c$11$1_0$15   gender_select_init
     000027AD  C$gender_select_init.c$9$0_0$155   gender_select_init
     000027AD  G$GenderSelect_Init$0$0            gender_select_init
     000027AD  _GenderSelect_Init                 gender_select_init
     000027AE  A$lcc1754040$59                    gender_select_init
ASxxxx Linker V03.00/V05.40 + sdld,  page 55.
Hexadecimal  [32-Bits]

Area                                    Addr        Size        Decimal Bytes (Attributes)
--------------------------------        ----        ----        ------- ----- ------------
_CODE                               00000200    0000321D =       12829. bytes (REL,CON)

      Value  Global                              Global Defined In Module
      -----  --------------------------------   ------------------------
     000027B1  A$lcc1754040$60                    gender_select_init
     000027B4  A$lcc1754040$61                    gender_select_init
     000027B5  A$lcc1754040$62                    gender_select_init
     000027B6  A$lcc1754040$63                    gender_select_init
     000027B7  A$lcc1754040$67                    gender_select_init
     000027B7  C$gender_select_init.c$12$2_0$15   gender_select_init
     000027B8  A$lcc1754040$68                    gender_select_init
     000027B9  A$lcc1754040$72                    gender_select_init
     000027B9  C$gender_select_init.c$13$2_0$15   gender_select_init
     000027BA  A$lcc1754040$76                    gender_select_init
     000027BA  C$gender_select_init.c$15$1_0$15   gender_select_init
     000027BB  A$lcc1754040$77                    gender_select_init
     000027BC  A$lcc1754040$81                    gender_select_init
     000027BC  C$gender_select_init.c$16$1_0$15   gender_select_init
     000027BF  A$lcc1754040$82                    gender_select_init
     000027C0  A$lcc1754040$83                    gender_select_init
     000027C1  A$lcc1754040$84                    gender_select_init
     000027C2  A$lcc1754040$85                    gender_select_init
     000027C3  A$lcc1754040$89                    gender_select_init
     000027C3  C$gender_select_init.c$18$1_0$15   gender_select_init
     000027C6  A$lcc1754040$90                    gender_select_init
     000027C7  A$lcc1754040$91                    gender_select_init
     000027CA  A$lcc1754040$92                    gender_select_init
     000027CB  A$lcc1754040$93                    gender_select_init
     000027CE  A$lcc1754040$94                    gender_select_init
     000027D0  A$lcc1754040$98                    gender_select_init
     000027D0  C$gender_select_init.c$19$1_0$15   gender_select_init
     000027D3  A$lcc1754040$99                    gender_select_init
     000027D4  A$lcc1754040$100                   gender_select_init
     000027D7  A$lcc1754040$101                   gender_select_init
     000027D8  A$lcc1754040$102                   gender_select_init
     000027D9  A$lcc1754040$103                   gender_select_init
     000027DA  A$lcc1754040$104                   gender_select_init
     000027DB  A$lcc1754040$105                   gender_select_init
     000027DE  A$lcc1754040$106                   gender_select_init
     000027E0  A$lcc1754040$114                   gender_select_init
     000027E0  C$gender_select_init.c$20$1_0$15   gender_select_init
     000027E0  XG$GenderSelect_Init$0$0           gender_select_init
     000027E1  A$lcc1754041$62                    gender_select_update
     000027E1  C$gender_select_update.c$6$0_0$1   gender_select_update
     000027E1  C$gender_select_update.c$8$1_0$1   gender_select_update
     000027E1  C$gender_select_update.c$9$1_0$1   gender_select_update
     000027E1  G$GenderSelect_Update$0$0          gender_select_update
     000027E1  XG$GenderSelect_Update$0$0         gender_select_update
     000027E1  _GenderSelect_Update               gender_select_update
     000027E2  A$lcc1754042$61                    inventory_scene
     000027E2  C$inventory_scene.c$6$0_0$30       inventory_scene
     000027E2  C$inventory_scene.c$8$1_0$30       inventory_scene
     000027E2  G$InventoryScene_Create$0$0        inventory_scene
     000027E2  _InventoryScene_Create             inventory_scene
     000027E5  A$lcc1754042$62                    inventory_scene
ASxxxx Linker V03.00/V05.40 + sdld,  page 56.
Hexadecimal  [32-Bits]

Area                                    Addr        Size        Decimal Bytes (Attributes)
--------------------------------        ----        ----        ------- ----- ------------
_CODE                               00000200    0000321D =       12829. bytes (REL,CON)

      Value  Global                              Global Defined In Module
      -----  --------------------------------   ------------------------
     000027E7  A$lcc1754042$63                    inventory_scene
     000027E8  A$lcc1754042$64                    inventory_scene
     000027EA  A$lcc1754042$68                    inventory_scene
     000027EA  C$inventory_scene.c$9$1_0$30       inventory_scene
     000027EB  A$lcc1754042$69                    inventory_scene
     000027ED  A$lcc1754042$70                    inventory_scene
     000027EE  A$lcc1754042$71                    inventory_scene
     000027F0  A$lcc1754042$75                    inventory_scene
     000027F0  C$inventory_scene.c$11$1_0$30      inventory_scene
     000027F3  A$lcc1754042$76                    inventory_scene
     000027F4  A$lcc1754042$77                    inventory_scene
     000027F5  A$lcc1754042$78                    inventory_scene
     000027F6  A$lcc1754042$86                    inventory_scene
     000027F6  C$inventory_scene.c$12$1_0$30      inventory_scene
     000027F6  XG$InventoryScene_Create$0$0       inventory_scene
     000027F7  A$lcc1754043$56                    inventory_scene_init
     000027F7  C$inventory_scene_init.c$13$0_0$   inventory_scene_init
     000027F7  G$InventoryScene_DrawCoins$0$0     inventory_scene_init
     000027F7  _InventoryScene_DrawCoins          inventory_scene_init
     000027F9  A$lcc1754043$60                    inventory_scene_init
     000027F9  C$inventory_scene_init.c$15$1_0$   inventory_scene_init
     000027FC  A$lcc1754043$61                    inventory_scene_init
     000027FE  A$lcc1754043$62                    inventory_scene_init
     000027FF  A$lcc1754043$63                    inventory_scene_init
     00002802  A$lcc1754043$64                    inventory_scene_init
     00002804  A$lcc1754043$65                    inventory_scene_init
     00002805  A$lcc1754043$66                    inventory_scene_init
     00002808  A$lcc1754043$67                    inventory_scene_init
     00002809  A$lcc1754043$68                    inventory_scene_init
     0000280A  A$lcc1754043$69                    inventory_scene_init
     0000280B  A$lcc1754043$70                    inventory_scene_init
     0000280E  A$lcc1754043$71                    inventory_scene_init
     0000280F  A$lcc1754043$72                    inventory_scene_init
     00002811  A$lcc1754043$73                    inventory_scene_init
     00002814  A$lcc1754043$74                    inventory_scene_init
     00002815  A$lcc1754043$75                    inventory_scene_init
     00002817  A$lcc1754043$76                    inventory_scene_init
     00002819  A$lcc1754043$77                    inventory_scene_init
     0000281A  A$lcc1754043$81                    inventory_scene_init
     0000281A  C$inventory_scene_init.c$16$1_0$   inventory_scene_init
     0000281D  A$lcc1754043$82                    inventory_scene_init
     0000281F  A$lcc1754043$83                    inventory_scene_init
     00002820  A$lcc1754043$84                    inventory_scene_init
     00002821  A$lcc1754043$85                    inventory_scene_init
     00002822  A$lcc1754043$86                    inventory_scene_init
     00002825  A$lcc1754043$87                    inventory_scene_init
     00002826  A$lcc1754043$88                    inventory_scene_init
     00002827  A$lcc1754043$89                    inventory_scene_init
     0000282A  A$lcc1754043$90                    inventory_scene_init
     0000282D  A$lcc1754043$91                    inventory_scene_init
     0000282E  A$lcc1754043$92                    inventory_scene_init
ASxxxx Linker V03.00/V05.40 + sdld,  page 57.
Hexadecimal  [32-Bits]

Area                                    Addr        Size        Decimal Bytes (Attributes)
--------------------------------        ----        ----        ------- ----- ------------
_CODE                               00000200    0000321D =       12829. bytes (REL,CON)

      Value  Global                              Global Defined In Module
      -----  --------------------------------   ------------------------
     00002830  A$lcc1754043$93                    inventory_scene_init
     00002832  A$lcc1754043$94                    inventory_scene_init
     00002833  A$lcc1754043$98                    inventory_scene_init
     00002833  C$inventory_scene_init.c$17$1_0$   inventory_scene_init
     00002836  A$lcc1754043$99                    inventory_scene_init
     00002838  A$lcc1754043$100                   inventory_scene_init
     00002839  A$lcc1754043$101                   inventory_scene_init
     0000283A  A$lcc1754043$102                   inventory_scene_init
     0000283B  A$lcc1754043$103                   inventory_scene_init
     0000283E  A$lcc1754043$104                   inventory_scene_init
     0000283F  A$lcc1754043$105                   inventory_scene_init
     00002840  A$lcc1754043$106                   inventory_scene_init
     00002843  A$lcc1754043$107                   inventory_scene_init
     00002846  A$lcc1754043$108                   inventory_scene_init
     00002847  A$lcc1754043$109                   inventory_scene_init
     00002849  A$lcc1754043$110                   inventory_scene_init
     0000284B  A$lcc1754043$114                   inventory_scene_init
     0000284B  C$inventory_scene_init.c$18$1_0$   inventory_scene_init
     0000284C  A$lcc1754043$115                   inventory_scene_init
     0000284D  A$lcc1754043$116                   inventory_scene_init
     00002850  A$lcc1754043$117                   inventory_scene_init
     00002851  A$lcc1754043$118                   inventory_scene_init
     00002852  A$lcc1754043$119                   inventory_scene_init
     00002853  A$lcc1754043$120                   inventory_scene_init
     00002856  A$lcc1754043$121                   inventory_scene_init
     00002857  A$lcc1754043$122                   inventory_scene_init
     00002859  A$lcc1754043$123                   inventory_scene_init
     0000285B  A$lcc1754043$124                   inventory_scene_init
     0000285C  A$lcc1754043$128                   inventory_scene_init
     0000285C  C$inventory_scene_init.c$20$1_0$   inventory_scene_init
     0000285E  A$lcc1754043$129                   inventory_scene_init
     0000285F  A$lcc1754043$130                   inventory_scene_init
     00002862  A$lcc1754043$131                   inventory_scene_init
     00002863  A$lcc1754043$132                   inventory_scene_init
     00002866  A$lcc1754043$133                   inventory_scene_init
     00002867  A$lcc1754043$134                   inventory_scene_init
     0000286A  A$lcc1754043$135                   inventory_scene_init
     0000286C  A$lcc1754043$139                   inventory_scene_init
     0000286C  C$inventory_scene_init.c$21$1_0$   inventory_scene_init
     0000286E  A$lcc1754043$140                   inventory_scene_init
     0000286F  A$lcc1754043$141                   inventory_scene_init
     00002872  A$lcc1754043$142                   inventory_scene_init
     00002873  A$lcc1754043$143                   inventory_scene_init
     00002876  A$lcc1754043$144                   inventory_scene_init
     00002877  A$lcc1754043$145                   inventory_scene_init
     0000287A  A$lcc1754043$146                   inventory_scene_init
     0000287C  A$lcc1754043$150                   inventory_scene_init
     0000287C  C$inventory_scene_init.c$22$1_0$   inventory_scene_init
     0000287E  A$lcc1754043$151                   inventory_scene_init
     0000287F  A$lcc1754043$152                   inventory_scene_init
     00002882  A$lcc1754043$153                   inventory_scene_init
ASxxxx Linker V03.00/V05.40 + sdld,  page 58.
Hexadecimal  [32-Bits]

Area                                    Addr        Size        Decimal Bytes (Attributes)
--------------------------------        ----        ----        ------- ----- ------------
_CODE                               00000200    0000321D =       12829. bytes (REL,CON)

      Value  Global                              Global Defined In Module
      -----  --------------------------------   ------------------------
     00002883  A$lcc1754043$154                   inventory_scene_init
     00002886  A$lcc1754043$155                   inventory_scene_init
     00002887  A$lcc1754043$156                   inventory_scene_init
     0000288A  A$lcc1754043$157                   inventory_scene_init
     0000288C  A$lcc1754043$161                   inventory_scene_init
     0000288C  C$inventory_scene_init.c$23$1_0$   inventory_scene_init
     0000288E  A$lcc1754043$162                   inventory_scene_init
     0000288F  A$lcc1754043$163                   inventory_scene_init
     00002890  A$lcc1754043$164                   inventory_scene_init
     00002891  A$lcc1754043$165                   inventory_scene_init
     00002894  A$lcc1754043$166                   inventory_scene_init
     00002895  A$lcc1754043$167                   inventory_scene_init
     00002898  A$lcc1754043$168                   inventory_scene_init
     00002899  A$lcc1754043$169                   inventory_scene_init
     0000289C  A$lcc1754043$173                   inventory_scene_init
     0000289E  A$lcc1754043$178                   inventory_scene_init
     0000289E  C$inventory_scene_init.c$24$1_0$   inventory_scene_init
     0000289E  XG$InventoryScene_DrawCoins$0$0    inventory_scene_init
     0000289F  A$lcc1754043$188                   inventory_scene_init
     0000289F  C$inventory_scene_init.c$26$1_0$   inventory_scene_init
     0000289F  G$InventoryScene_Init$0$0          inventory_scene_init
     0000289F  _InventoryScene_Init               inventory_scene_init
     000028A0  A$lcc1754043$192                   inventory_scene_init
     000028A0  C$inventory_scene_init.c$28$1_0$   inventory_scene_init
     000028A3  A$lcc1754043$193                   inventory_scene_init
     000028A4  A$lcc1754043$194                   inventory_scene_init
     000028A5  A$lcc1754043$195                   inventory_scene_init
     000028A6  A$lcc1754043$196                   inventory_scene_init
     000028A7  A$lcc1754043$200                   inventory_scene_init
     000028A7  C$inventory_scene_init.c$29$1_0$   inventory_scene_init
     000028AA  A$lcc1754043$204                   inventory_scene_init
     000028AA  C$inventory_scene_init.c$31$2_0$   inventory_scene_init
     000028AC  A$lcc1754043$205                   inventory_scene_init
     000028AE  A$lcc1754043$209                   inventory_scene_init
     000028AE  C$inventory_scene_init.c$33$1_1$   inventory_scene_init
     000028B1  A$lcc1754043$210                   inventory_scene_init
     000028B2  A$lcc1754043$211                   inventory_scene_init
     000028B5  A$lcc1754043$212                   inventory_scene_init
     000028B6  A$lcc1754043$213                   inventory_scene_init
     000028B9  A$lcc1754043$214                   inventory_scene_init
     000028BB  A$lcc1754043$218                   inventory_scene_init
     000028BB  C$inventory_scene_init.c$34$1_1$   inventory_scene_init
     000028BE  A$lcc1754043$219                   inventory_scene_init
     000028BF  A$lcc1754043$220                   inventory_scene_init
     000028C2  A$lcc1754043$221                   inventory_scene_init
     000028C3  A$lcc1754043$222                   inventory_scene_init
     000028C4  A$lcc1754043$223                   inventory_scene_init
     000028C5  A$lcc1754043$224                   inventory_scene_init
     000028C6  A$lcc1754043$225                   inventory_scene_init
     000028C9  A$lcc1754043$226                   inventory_scene_init
     000028CB  A$lcc1754043$230                   inventory_scene_init
ASxxxx Linker V03.00/V05.40 + sdld,  page 59.
Hexadecimal  [32-Bits]

Area                                    Addr        Size        Decimal Bytes (Attributes)
--------------------------------        ----        ----        ------- ----- ------------
_CODE                               00000200    0000321D =       12829. bytes (REL,CON)

      Value  Global                              Global Defined In Module
      -----  --------------------------------   ------------------------
     000028CB  C$inventory_scene_init.c$36$1_1$   inventory_scene_init
     000028CE  A$lcc1754043$231                   inventory_scene_init
     000028CF  A$lcc1754043$232                   inventory_scene_init
     000028D2  A$lcc1754043$233                   inventory_scene_init
     000028D3  A$lcc1754043$234                   inventory_scene_init
     000028D6  A$lcc1754043$235                   inventory_scene_init
     000028D8  A$lcc1754043$239                   inventory_scene_init
     000028D8  C$inventory_scene_init.c$37$1_1$   inventory_scene_init
     000028DA  A$lcc1754043$240                   inventory_scene_init
     000028DB  A$lcc1754043$241                   inventory_scene_init
     000028DE  A$lcc1754043$242                   inventory_scene_init
     000028DF  A$lcc1754043$243                   inventory_scene_init
     000028E2  A$lcc1754043$244                   inventory_scene_init
     000028E3  A$lcc1754043$245                   inventory_scene_init
     000028E6  A$lcc1754043$246                   inventory_scene_init
     000028E8  A$lcc1754043$250                   inventory_scene_init
     000028E8  C$inventory_scene_init.c$39$1_1$   inventory_scene_init
     000028EB  A$lcc1754043$254                   inventory_scene_init
     000028EC  A$lcc1754043$259                   inventory_scene_init
     000028EC  C$inventory_scene_init.c$40$1_1$   inventory_scene_init
     000028EC  XG$InventoryScene_Init$0$0         inventory_scene_init
     000028ED  A$lcc1754044$57                    inventory_scene_update
     000028ED  C$inventory_scene_update.c$8$0_0   inventory_scene_update
     000028ED  C$inventory_scene_update.c$9$1_0   inventory_scene_update
     000028ED  G$InventoryScene_Update$0$0        inventory_scene_update
     000028ED  _InventoryScene_Update             inventory_scene_update
     000028F0  A$lcc1754044$58                    inventory_scene_update
     000028F3  A$lcc1754044$69                    inventory_scene_update
     000028F3  C$inventory_scene_update.c$10$1_   inventory_scene_update
     000028F3  C$inventory_scene_update.c$11$1_   inventory_scene_update
     000028F3  XG$InventoryScene_Update$0$0       inventory_scene_update
     000028F6  A$lcc1754045$77                    main_menu
     000028F6  C$main_menu.c$10$0_0$32            main_menu
     000028F6  C$main_menu.c$11$1_0$32            main_menu
     000028F6  G$MainMenu_Create$0$0              main_menu
     000028F6  _MainMenu_Create                   main_menu
     000028F9  A$lcc1754045$78                    main_menu
     000028FB  A$lcc1754045$79                    main_menu
     000028FC  A$lcc1754045$80                    main_menu
     000028FE  A$lcc1754045$84                    main_menu
     000028FE  C$main_menu.c$12$1_0$32            main_menu
     000028FF  A$lcc1754045$85                    main_menu
     00002901  A$lcc1754045$86                    main_menu
     00002902  A$lcc1754045$87                    main_menu
     00002904  A$lcc1754045$91                    main_menu
     00002904  C$main_menu.c$14$1_0$32            main_menu
     00002907  A$lcc1754045$92                    main_menu
     00002908  A$lcc1754045$93                    main_menu
     00002909  A$lcc1754045$94                    main_menu
     0000290A  A$lcc1754045$102                   main_menu
     0000290A  C$main_menu.c$15$1_0$32            main_menu
ASxxxx Linker V03.00/V05.40 + sdld,  page 60.
Hexadecimal  [32-Bits]

Area                                    Addr        Size        Decimal Bytes (Attributes)
--------------------------------        ----        ----        ------- ----- ------------
_CODE                               00000200    0000321D =       12829. bytes (REL,CON)

      Value  Global                              Global Defined In Module
      -----  --------------------------------   ------------------------
     0000290A  XG$MainMenu_Create$0$0             main_menu
     0000290B  A$lcc1754046$57                    main_menu_init
     0000290B  C$main_menu_init.c$7$0_0$164       main_menu_init
     0000290B  C$main_menu_init.c$9$1_0$164       main_menu_init
     0000290B  G$MainMenu_Init$0$0                main_menu_init
     0000290B  _MainMenu_Init                     main_menu_init
     0000290E  A$lcc1754046$58                    main_menu_init
     0000290F  A$lcc1754046$59                    main_menu_init
     00002910  A$lcc1754046$60                    main_menu_init
     00002911  A$lcc1754046$61                    main_menu_init
     00002912  A$lcc1754046$65                    main_menu_init
     00002912  C$main_menu_init.c$11$1_0$164      main_menu_init
     00002915  A$lcc1754046$66                    main_menu_init
     00002916  A$lcc1754046$67                    main_menu_init
     00002919  A$lcc1754046$68                    main_menu_init
     0000291A  A$lcc1754046$69                    main_menu_init
     0000291D  A$lcc1754046$70                    main_menu_init
     0000291F  A$lcc1754046$74                    main_menu_init
     0000291F  C$main_menu_init.c$12$1_0$164      main_menu_init
     00002922  A$lcc1754046$75                    main_menu_init
     00002923  A$lcc1754046$76                    main_menu_init
     00002926  A$lcc1754046$77                    main_menu_init
     00002927  A$lcc1754046$78                    main_menu_init
     00002928  A$lcc1754046$79                    main_menu_init
     00002929  A$lcc1754046$80                    main_menu_init
     0000292A  A$lcc1754046$81                    main_menu_init
     0000292D  A$lcc1754046$82                    main_menu_init
     0000292F  A$lcc1754046$90                    main_menu_init
     0000292F  C$main_menu_init.c$13$1_0$164      main_menu_init
     0000292F  XG$MainMenu_Init$0$0               main_menu_init
     00002930  A$lcc1754047$59                    main_menu_init_stats
     00002930  C$main_menu_init_stats.c$3$0_0$3   main_menu_init_stats
     00002930  C$main_menu_init_stats.c$5$0_0$3   main_menu_init_stats
     00002930  G$MainMenu_InitRandomStats$0$0     main_menu_init_stats
     00002930  XG$MainMenu_InitRandomStats$0$0    main_menu_init_stats
     00002930  _MainMenu_InitRandomStats          main_menu_init_stats
     00002931  A$lcc1754048$53                    main_menu_input
     00002931  C$main_menu_input.c$9$0_0$169      main_menu_input
     00002931  G$MainMenu_CheckInput$0$0          main_menu_input
     00002931  _MainMenu_CheckInput               main_menu_input
     00002933  A$lcc1754048$57                    main_menu_input
     00002933  C$main_menu_input.c$11$1_0$169     main_menu_input
     00002936  A$lcc1754048$58                    main_menu_input
     00002939  A$lcc1754048$59                    main_menu_input
     0000293A  A$lcc1754048$63                    main_menu_input
     0000293A  C$main_menu_input.c$13$2_0$170     main_menu_input
     0000293B  A$lcc1754048$64                    main_menu_input
     0000293C  A$lcc1754048$65                    main_menu_input
     0000293E  A$lcc1754048$66                    main_menu_input
     00002941  A$lcc1754048$67                    main_menu_input
     00002942  A$lcc1754048$68                    main_menu_input
ASxxxx Linker V03.00/V05.40 + sdld,  page 61.
Hexadecimal  [32-Bits]

Area                                    Addr        Size        Decimal Bytes (Attributes)
--------------------------------        ----        ----        ------- ----- ------------
_CODE                               00000200    0000321D =       12829. bytes (REL,CON)

      Value  Global                              Global Defined In Module
      -----  --------------------------------   ------------------------
     00002944  A$lcc1754048$72                    main_menu_input
     00002944  C$main_menu_input.c$15$3_0$171     main_menu_input
     00002946  A$lcc1754048$73                    main_menu_input
     00002949  A$lcc1754048$74                    main_menu_input
     0000294A  A$lcc1754048$75                    main_menu_input
     0000294C  A$lcc1754048$79                    main_menu_input
     0000294C  C$main_menu_input.c$16$3_0$171     main_menu_input
     0000294E  A$lcc1754048$80                    main_menu_input
     0000294F  A$lcc1754048$81                    main_menu_input
     00002950  A$lcc1754048$85                    main_menu_input
     00002950  C$main_menu_input.c$18$5_0$173     main_menu_input
     00002952  A$lcc1754048$86                    main_menu_input
     00002954  A$lcc1754048$88                    main_menu_input
     00002956  A$lcc1754048$89                    main_menu_input
     00002957  A$lcc1754048$90                    main_menu_input
     00002959  A$lcc1754048$91                    main_menu_input
     0000295B  A$lcc1754048$95                    main_menu_input
     0000295B  C$main_menu_input.c$20$5_0$173     main_menu_input
     0000295E  A$lcc1754048$96                    main_menu_input
     0000295F  A$lcc1754048$97                    main_menu_input
     00002961  A$lcc1754048$98                    main_menu_input
     00002962  A$lcc1754048$99                    main_menu_input
     00002963  A$lcc1754048$100                   main_menu_input
     00002964  A$lcc1754048$101                   main_menu_input
     00002965  A$lcc1754048$103                   main_menu_input
     00002968  A$lcc1754048$104                   main_menu_input
     00002969  A$lcc1754048$105                   main_menu_input
     0000296A  A$lcc1754048$106                   main_menu_input
     0000296B  A$lcc1754048$107                   main_menu_input
     0000296C  A$lcc1754048$108                   main_menu_input
     0000296D  A$lcc1754048$109                   main_menu_input
     0000296E  A$lcc1754048$110                   main_menu_input
     0000296F  A$lcc1754048$111                   main_menu_input
     00002970  A$lcc1754048$112                   main_menu_input
     00002971  A$lcc1754048$113                   main_menu_input
     00002972  A$lcc1754048$114                   main_menu_input
     00002973  A$lcc1754048$115                   main_menu_input
     00002974  A$lcc1754048$116                   main_menu_input
     00002975  A$lcc1754048$117                   main_menu_input
     00002976  A$lcc1754048$118                   main_menu_input
     00002977  A$lcc1754048$119                   main_menu_input
     00002978  A$lcc1754048$120                   main_menu_input
     00002979  A$lcc1754048$121                   main_menu_input
     0000297A  A$lcc1754048$122                   main_menu_input
     0000297B  A$lcc1754048$123                   main_menu_input
     0000297C  A$lcc1754048$124                   main_menu_input
     0000297D  A$lcc1754048$125                   main_menu_input
     0000297E  A$lcc1754048$126                   main_menu_input
     0000297F  A$lcc1754048$127                   main_menu_input
     00002980  A$lcc1754048$128                   main_menu_input
     00002981  A$lcc1754048$129                   main_menu_input
ASxxxx Linker V03.00/V05.40 + sdld,  page 62.
Hexadecimal  [32-Bits]

Area                                    Addr        Size        Decimal Bytes (Attributes)
--------------------------------        ----        ----        ------- ----- ------------
_CODE                               00000200    0000321D =       12829. bytes (REL,CON)

      Value  Global                              Global Defined In Module
      -----  --------------------------------   ------------------------
     00002982  A$lcc1754048$130                   main_menu_input
     00002983  A$lcc1754048$131                   main_menu_input
     00002984  A$lcc1754048$132                   main_menu_input
     00002986  A$lcc1754048$133                   main_menu_input
     00002989  A$lcc1754048$134                   main_menu_input
     0000298A  A$lcc1754048$135                   main_menu_input
     0000298B  A$lcc1754048$136                   main_menu_input
     0000298D  A$lcc1754048$138                   main_menu_input
     0000298E  A$lcc1754048$139                   main_menu_input
     0000298F  A$lcc1754048$140                   main_menu_input
     00002990  A$lcc1754048$144                   main_menu_input
     00002990  C$main_menu_input.c$20$1_0$169     main_menu_input
     00002993  A$lcc1754048$145                   main_menu_input
     00002994  A$lcc1754048$146                   main_menu_input
     00002997  A$lcc1754048$147                   main_menu_input
     00002998  A$lcc1754048$148                   main_menu_input
     00002999  A$lcc1754048$149                   main_menu_input
     0000299A  A$lcc1754048$153                   main_menu_input
     0000299A  C$main_menu_input.c$18$4_0$172     main_menu_input
     0000299C  A$lcc1754048$154                   main_menu_input
     0000299D  A$lcc1754048$155                   main_menu_input
     0000299F  A$lcc1754048$160                   main_menu_input
     0000299F  C$main_menu_input.c$23$3_0$171     main_menu_input
     000029A2  A$lcc1754048$161                   main_menu_input
     000029A3  A$lcc1754048$162                   main_menu_input
     000029A6  A$lcc1754048$163                   main_menu_input
     000029A7  A$lcc1754048$164                   main_menu_input
     000029A8  A$lcc1754048$165                   main_menu_input
     000029A9  A$lcc1754048$166                   main_menu_input
     000029AA  A$lcc1754048$167                   main_menu_input
     000029AB  A$lcc1754048$168                   main_menu_input
     000029AC  A$lcc1754048$169                   main_menu_input
     000029AF  A$lcc1754048$170                   main_menu_input
     000029B1  A$lcc1754048$171                   main_menu_input
     000029B2  A$lcc1754048$172                   main_menu_input
     000029B4  A$lcc1754048$173                   main_menu_input
     000029B5  A$lcc1754048$174                   main_menu_input
     000029B6  A$lcc1754048$175                   main_menu_input
     000029B9  A$lcc1754048$180                   main_menu_input
     000029B9  C$main_menu_input.c$26$1_0$169     main_menu_input
     000029BC  A$lcc1754048$181                   main_menu_input
     000029BF  A$lcc1754048$185                   main_menu_input
     000029C1  A$lcc1754048$190                   main_menu_input
     000029C1  C$main_menu_input.c$27$1_0$169     main_menu_input
     000029C1  XG$MainMenu_CheckInput$0$0         main_menu_input
     000029C2  A$lcc1754049$55                    main_menu_update
     000029C2  C$main_menu_update.c$7$0_0$158     main_menu_update
     000029C2  G$MainMenu_Update$0$0              main_menu_update
     000029C2  _MainMenu_Update                   main_menu_update
     000029C4  A$lcc1754049$59                    main_menu_update
     000029C4  C$main_menu_update.c$9$1_0$158     main_menu_update
ASxxxx Linker V03.00/V05.40 + sdld,  page 63.
Hexadecimal  [32-Bits]

Area                                    Addr        Size        Decimal Bytes (Attributes)
--------------------------------        ----        ----        ------- ----- ------------
_CODE                               00000200    0000321D =       12829. bytes (REL,CON)

      Value  Global                              Global Defined In Module
      -----  --------------------------------   ------------------------
     000029C7  A$lcc1754049$60                    main_menu_update
     000029C8  A$lcc1754049$61                    main_menu_update
     000029CA  A$lcc1754049$62                    main_menu_update
     000029CB  A$lcc1754049$63                    main_menu_update
     000029CC  A$lcc1754049$68                    main_menu_update
     000029CC  C$main_menu_update.c$10$1_0$158    main_menu_update
     000029CF  A$lcc1754049$72                    main_menu_update
     000029CF  C$main_menu_update.c$12$2_0$159    main_menu_update
     000029D2  A$lcc1754049$73                    main_menu_update
     000029D3  A$lcc1754049$74                    main_menu_update
     000029D5  A$lcc1754049$75                    main_menu_update
     000029D8  A$lcc1754049$76                    main_menu_update
     000029D9  A$lcc1754049$77                    main_menu_update
     000029DA  A$lcc1754049$78                    main_menu_update
     000029DB  A$lcc1754049$79                    main_menu_update
     000029DC  A$lcc1754049$80                    main_menu_update
     000029DF  A$lcc1754049$84                    main_menu_update
     000029DF  C$main_menu_update.c$14$3_0$160    main_menu_update
     000029E0  A$lcc1754049$85                    main_menu_update
     000029E1  A$lcc1754049$86                    main_menu_update
     000029E2  A$lcc1754049$87                    main_menu_update
     000029E3  A$lcc1754049$91                    main_menu_update
     000029E3  C$main_menu_update.c$16$4_0$161    main_menu_update
     000029E6  A$lcc1754049$95                    main_menu_update
     000029E6  C$main_menu_update.c$18$5_0$162    main_menu_update
     000029E7  A$lcc1754049$96                    main_menu_update
     000029E9  A$lcc1754049$97                    main_menu_update
     000029EC  A$lcc1754049$101                   main_menu_update
     000029EC  C$main_menu_update.c$20$6_0$164    main_menu_update
     000029EE  A$lcc1754049$102                   main_menu_update
     000029F0  A$lcc1754049$106                   main_menu_update
     000029F0  C$main_menu_update.c$21$2_0$158    main_menu_update
     000029F2  A$lcc1754049$108                   main_menu_update
     000029F3  A$lcc1754049$109                   main_menu_update
     000029F5  A$lcc1754049$110                   main_menu_update
     000029F7  A$lcc1754049$114                   main_menu_update
     000029F7  C$main_menu_update.c$23$7_1$165    main_menu_update
     000029F8  A$lcc1754049$115                   main_menu_update
     000029FB  A$lcc1754049$116                   main_menu_update
     000029FC  A$lcc1754049$117                   main_menu_update
     000029FD  A$lcc1754049$118                   main_menu_update
     00002A00  A$lcc1754049$119                   main_menu_update
     00002A01  A$lcc1754049$120                   main_menu_update
     00002A03  A$lcc1754049$121                   main_menu_update
     00002A04  A$lcc1754049$122                   main_menu_update
     00002A05  A$lcc1754049$123                   main_menu_update
     00002A06  A$lcc1754049$124                   main_menu_update
     00002A07  A$lcc1754049$125                   main_menu_update
     00002A0A  A$lcc1754049$126                   main_menu_update
     00002A0C  A$lcc1754049$130                   main_menu_update
     00002A0C  C$main_menu_update.c$21$6_1$164    main_menu_update
ASxxxx Linker V03.00/V05.40 + sdld,  page 64.
Hexadecimal  [32-Bits]

Area                                    Addr        Size        Decimal Bytes (Attributes)
--------------------------------        ----        ----        ------- ----- ------------
_CODE                               00000200    0000321D =       12829. bytes (REL,CON)

      Value  Global                              Global Defined In Module
      -----  --------------------------------   ------------------------
     00002A0D  A$lcc1754049$131                   main_menu_update
     00002A0F  A$lcc1754049$136                   main_menu_update
     00002A0F  C$main_menu_update.c$28$5_0$166    main_menu_update
     00002A12  A$lcc1754049$137                   main_menu_update
     00002A14  A$lcc1754049$141                   main_menu_update
     00002A14  C$main_menu_update.c$30$6_0$168    main_menu_update
     00002A16  A$lcc1754049$142                   main_menu_update
     00002A18  A$lcc1754049$143                   main_menu_update
     00002A19  A$lcc1754049$144                   main_menu_update
     00002A1B  A$lcc1754049$145                   main_menu_update
     00002A1C  A$lcc1754049$146                   main_menu_update
     00002A1E  A$lcc1754049$147                   main_menu_update
     00002A1F  A$lcc1754049$148                   main_menu_update
     00002A21  A$lcc1754049$149                   main_menu_update
     00002A22  A$lcc1754049$150                   main_menu_update
     00002A23  A$lcc1754049$151                   main_menu_update
     00002A25  A$lcc1754049$152                   main_menu_update
     00002A26  A$lcc1754049$153                   main_menu_update
     00002A27  A$lcc1754049$154                   main_menu_update
     00002A29  A$lcc1754049$155                   main_menu_update
     00002A2A  A$lcc1754049$156                   main_menu_update
     00002A2C  A$lcc1754049$157                   main_menu_update
     00002A2D  A$lcc1754049$158                   main_menu_update
     00002A2F  A$lcc1754049$159                   main_menu_update
     00002A30  A$lcc1754049$160                   main_menu_update
     00002A32  A$lcc1754049$161                   main_menu_update
     00002A33  A$lcc1754049$162                   main_menu_update
     00002A35  A$lcc1754049$163                   main_menu_update
     00002A36  A$lcc1754049$167                   main_menu_update
     00002A36  C$main_menu_update.c$33$2_0$158    main_menu_update
     00002A39  A$lcc1754049$168                   main_menu_update
     00002A3A  A$lcc1754049$170                   main_menu_update
     00002A3B  A$lcc1754049$171                   main_menu_update
     00002A3D  A$lcc1754049$172                   main_menu_update
     00002A3F  A$lcc1754049$176                   main_menu_update
     00002A3F  C$main_menu_update.c$35$7_1$169    main_menu_update
     00002A40  A$lcc1754049$177                   main_menu_update
     00002A42  A$lcc1754049$178                   main_menu_update
     00002A45  A$lcc1754049$179                   main_menu_update
     00002A46  A$lcc1754049$180                   main_menu_update
     00002A47  A$lcc1754049$181                   main_menu_update
     00002A48  A$lcc1754049$182                   main_menu_update
     00002A49  A$lcc1754049$183                   main_menu_update
     00002A4C  A$lcc1754049$184                   main_menu_update
     00002A4D  A$lcc1754049$185                   main_menu_update
     00002A4E  A$lcc1754049$186                   main_menu_update
     00002A4F  A$lcc1754049$187                   main_menu_update
     00002A51  A$lcc1754049$191                   main_menu_update
     00002A51  C$main_menu_update.c$36$7_1$169    main_menu_update
     00002A53  A$lcc1754049$192                   main_menu_update
     00002A54  A$lcc1754049$193                   main_menu_update
ASxxxx Linker V03.00/V05.40 + sdld,  page 65.
Hexadecimal  [32-Bits]

Area                                    Addr        Size        Decimal Bytes (Attributes)
--------------------------------        ----        ----        ------- ----- ------------
_CODE                               00000200    0000321D =       12829. bytes (REL,CON)

      Value  Global                              Global Defined In Module
      -----  --------------------------------   ------------------------
     00002A55  A$lcc1754049$194                   main_menu_update
     00002A58  A$lcc1754049$195                   main_menu_update
     00002A59  A$lcc1754049$196                   main_menu_update
     00002A5B  A$lcc1754049$197                   main_menu_update
     00002A5C  A$lcc1754049$198                   main_menu_update
     00002A5D  A$lcc1754049$199                   main_menu_update
     00002A5E  A$lcc1754049$200                   main_menu_update
     00002A5F  A$lcc1754049$201                   main_menu_update
     00002A62  A$lcc1754049$202                   main_menu_update
     00002A64  A$lcc1754049$206                   main_menu_update
     00002A64  C$main_menu_update.c$37$7_1$169    main_menu_update
     00002A65  A$lcc1754049$210                   main_menu_update
     00002A65  C$main_menu_update.c$33$6_1$168    main_menu_update
     00002A66  A$lcc1754049$211                   main_menu_update
     00002A68  A$lcc1754049$216                   main_menu_update
     00002A6A  A$lcc1754049$221                   main_menu_update
     00002A6A  C$main_menu_update.c$41$2_0$158    main_menu_update
     00002A6A  XG$MainMenu_Update$0$0             main_menu_update
     00002A6B  A$lcc1754050$57                    clean_text
     00002A6B  C$clean_text.c$7$0_0$133           clean_text
     00002A6B  C$clean_text.c$9$1_0$133           clean_text
     00002A6B  G$clean$0$0                        clean_text
     00002A6B  _clean                             clean_text
     00002A6E  A$lcc1754050$58                    clean_text
     00002A70  A$lcc1754050$62                    clean_text
     00002A70  C$clean_text.c$11$1_0$133          clean_text
     00002A72  A$lcc1754050$64                    clean_text
     00002A74  A$lcc1754050$65                    clean_text
     00002A75  A$lcc1754050$66                    clean_text
     00002A77  A$lcc1754050$70                    clean_text
     00002A77  C$clean_text.c$13$3_0$135          clean_text
     00002A7A  A$lcc1754050$71                    clean_text
     00002A7B  A$lcc1754050$72                    clean_text
     00002A7C  A$lcc1754050$73                    clean_text
     00002A7D  A$lcc1754050$74                    clean_text
     00002A80  A$lcc1754050$75                    clean_text
     00002A81  A$lcc1754050$76                    clean_text
     00002A83  A$lcc1754050$77                    clean_text
     00002A84  A$lcc1754050$78                    clean_text
     00002A85  A$lcc1754050$79                    clean_text
     00002A86  A$lcc1754050$80                    clean_text
     00002A87  A$lcc1754050$81                    clean_text
     00002A8A  A$lcc1754050$82                    clean_text
     00002A8C  A$lcc1754050$86                    clean_text
     00002A8C  C$clean_text.c$14$3_0$135          clean_text
     00002A8F  A$lcc1754050$87                    clean_text
     00002A90  A$lcc1754050$88                    clean_text
     00002A92  A$lcc1754050$89                    clean_text
     00002A93  A$lcc1754050$90                    clean_text
     00002A94  A$lcc1754050$91                    clean_text
     00002A95  A$lcc1754050$92                    clean_text
ASxxxx Linker V03.00/V05.40 + sdld,  page 66.
Hexadecimal  [32-Bits]

Area                                    Addr        Size        Decimal Bytes (Attributes)
--------------------------------        ----        ----        ------- ----- ------------
_CODE                               00000200    0000321D =       12829. bytes (REL,CON)

      Value  Global                              Global Defined In Module
      -----  --------------------------------   ------------------------
     00002A96  A$lcc1754050$93                    clean_text
     00002A99  A$lcc1754050$94                    clean_text
     00002A9B  A$lcc1754050$98                    clean_text
     00002A9B  C$clean_text.c$11$2_0$134          clean_text
     00002A9C  A$lcc1754050$99                    clean_text
     00002A9E  A$lcc1754050$104                   clean_text
     00002A9E  C$clean_text.c$17$1_0$133          clean_text
     00002AA0  A$lcc1754050$109                   clean_text
     00002AA0  C$clean_text.c$19$3_0$137          clean_text
     00002AA1  A$lcc1754050$110                   clean_text
     00002AA3  A$lcc1754050$111                   clean_text
     00002AA5  A$lcc1754050$112                   clean_text
     00002AA8  A$lcc1754050$113                   clean_text
     00002AA9  A$lcc1754050$114                   clean_text
     00002AAB  A$lcc1754050$115                   clean_text
     00002AAC  A$lcc1754050$116                   clean_text
     00002AAD  A$lcc1754050$117                   clean_text
     00002AAF  A$lcc1754050$118                   clean_text
     00002AB0  A$lcc1754050$119                   clean_text
     00002AB1  A$lcc1754050$120                   clean_text
     00002AB3  A$lcc1754050$121                   clean_text
     00002AB4  A$lcc1754050$122                   clean_text
     00002AB5  A$lcc1754050$123                   clean_text
     00002AB6  A$lcc1754050$124                   clean_text
     00002AB7  A$lcc1754050$125                   clean_text
     00002ABA  A$lcc1754050$126                   clean_text
     00002ABC  A$lcc1754050$130                   clean_text
     00002ABC  C$clean_text.c$17$2_0$136          clean_text
     00002ABD  A$lcc1754050$131                   clean_text
     00002ABF  A$lcc1754050$136                   clean_text
     00002ABF  C$clean_text.c$22$1_0$133          clean_text
     00002AC2  A$lcc1754050$137                   clean_text
     00002AC3  A$lcc1754050$138                   clean_text
     00002AC6  A$lcc1754050$139                   clean_text
     00002AC7  A$lcc1754050$140                   clean_text
     00002ACA  A$lcc1754050$141                   clean_text
     00002ACB  A$lcc1754050$142                   clean_text
     00002ACE  A$lcc1754050$143                   clean_text
     00002AD0  A$lcc1754050$147                   clean_text
     00002AD0  C$clean_text.c$23$1_0$133          clean_text
     00002AD1  A$lcc1754050$148                   clean_text
     00002AD4  A$lcc1754050$149                   clean_text
     00002AD5  A$lcc1754050$150                   clean_text
     00002AD8  A$lcc1754050$151                   clean_text
     00002AD9  A$lcc1754050$152                   clean_text
     00002ADC  A$lcc1754050$153                   clean_text
     00002ADE  A$lcc1754050$161                   clean_text
     00002ADE  C$clean_text.c$24$1_0$133          clean_text
     00002ADE  XG$clean$0$0                       clean_text
     00002ADF  G$empty_tile$0_0$0                 clean_text
     00002ADF  _empty_tile                        clean_text
ASxxxx Linker V03.00/V05.40 + sdld,  page 67.
Hexadecimal  [32-Bits]

Area                                    Addr        Size        Decimal Bytes (Attributes)
--------------------------------        ----        ----        ------- ----- ------------
_CODE                               00000200    0000321D =       12829. bytes (REL,CON)

      Value  Global                              Global Defined In Module
      -----  --------------------------------   ------------------------
     00002AE0  A$lcc1754051$53                    map_collision
     00002AE0  C$map_collision.c$12$0_0$135       map_collision
     00002AE0  Fmap_collision$get_tile$0$0        map_collision
     00002AE2  A$lcc1754051$54                    map_collision
     00002AE4  A$lcc1754051$55                    map_collision
     00002AE5  A$lcc1754051$56                    map_collision
     00002AE6  A$lcc1754051$57                    map_collision
     00002AE7  A$lcc1754051$61                    map_collision
     00002AE7  C$map_collision.c$14$1_0$135       map_collision
     00002AEA  A$lcc1754051$62                    map_collision
     00002AEB  A$lcc1754051$63                    map_collision
     00002AEC  A$lcc1754051$64                    map_collision
     00002AED  A$lcc1754051$65                    map_collision
     00002AEE  A$lcc1754051$66                    map_collision
     00002AF0  A$lcc1754051$67                    map_collision
     00002AF1  A$lcc1754051$68                    map_collision
     00002AF2  A$lcc1754051$69                    map_collision
     00002AF3  A$lcc1754051$70                    map_collision
     00002AF4  A$lcc1754051$71                    map_collision
     00002AF6  A$lcc1754051$72                    map_collision
     00002AF7  A$lcc1754051$73                    map_collision
     00002AF8  A$lcc1754051$74                    map_collision
     00002AF9  A$lcc1754051$75                    map_collision
     00002AFA  A$lcc1754051$76                    map_collision
     00002AFB  A$lcc1754051$77                    map_collision
     00002AFC  A$lcc1754051$78                    map_collision
     00002AFD  A$lcc1754051$79                    map_collision
     00002AFE  A$lcc1754051$80                    map_collision
     00002AFF  A$lcc1754051$81                    map_collision
     00002B00  A$lcc1754051$82                    map_collision
     00002B01  A$lcc1754051$83                    map_collision
     00002B02  A$lcc1754051$84                    map_collision
     00002B04  A$lcc1754051$85                    map_collision
     00002B05  A$lcc1754051$86                    map_collision
     00002B06  A$lcc1754051$87                    map_collision
     00002B07  A$lcc1754051$88                    map_collision
     00002B08  A$lcc1754051$89                    map_collision
     00002B09  A$lcc1754051$90                    map_collision
     00002B0A  A$lcc1754051$91                    map_collision
     00002B0B  A$lcc1754051$92                    map_collision
     00002B0C  A$lcc1754051$93                    map_collision
     00002B0D  A$lcc1754051$94                    map_collision
     00002B0E  A$lcc1754051$95                    map_collision
     00002B0F  A$lcc1754051$96                    map_collision
     00002B10  A$lcc1754051$97                    map_collision
     00002B11  A$lcc1754051$98                    map_collision
     00002B12  A$lcc1754051$99                    map_collision
     00002B13  A$lcc1754051$100                   map_collision
     00002B14  A$lcc1754051$101                   map_collision
     00002B15  A$lcc1754051$105                   map_collision
     00002B15  C$map_collision.c$15$1_0$135       map_collision
ASxxxx Linker V03.00/V05.40 + sdld,  page 68.
Hexadecimal  [32-Bits]

Area                                    Addr        Size        Decimal Bytes (Attributes)
--------------------------------        ----        ----        ------- ----- ------------
_CODE                               00000200    0000321D =       12829. bytes (REL,CON)

      Value  Global                              Global Defined In Module
      -----  --------------------------------   ------------------------
     00002B17  A$lcc1754051$106                   map_collision
     00002B18  A$lcc1754051$107                   map_collision
     00002B19  A$lcc1754051$108                   map_collision
     00002B1A  A$lcc1754051$118                   map_collision
     00002B1A  C$map_collision.c$18$1_0$137       map_collision
     00002B1A  G$Map_Collision$0$0                map_collision
     00002B1A  _Map_Collision                     map_collision
     00002B1C  A$lcc1754051$122                   map_collision
     00002B1C  C$map_collision.c$20$1_0$137       map_collision
     00002B1F  A$lcc1754051$123                   map_collision
     00002B20  A$lcc1754051$124                   map_collision
     00002B21  A$lcc1754051$125                   map_collision
     00002B22  A$lcc1754051$126                   map_collision
     00002B24  A$lcc1754051$127                   map_collision
     00002B25  A$lcc1754051$128                   map_collision
     00002B26  A$lcc1754051$132                   map_collision
     00002B26  C$map_collision.c$21$1_0$137       map_collision
     00002B27  A$lcc1754051$133                   map_collision
     00002B28  A$lcc1754051$134                   map_collision
     00002B29  A$lcc1754051$135                   map_collision
     00002B2A  A$lcc1754051$136                   map_collision
     00002B2B  A$lcc1754051$137                   map_collision
     00002B2C  A$lcc1754051$141                   map_collision
     00002B2C  C$map_collision.c$29$1_0$137       map_collision
     00002B2F  A$lcc1754051$142                   map_collision
     00002B31  A$lcc1754051$143                   map_collision
     00002B32  A$lcc1754051$144                   map_collision
     00002B33  A$lcc1754051$145                   map_collision
     00002B35  A$lcc1754051$146                   map_collision
     00002B36  A$lcc1754051$147                   map_collision
     00002B38  A$lcc1754051$148                   map_collision
     00002B3A  A$lcc1754051$149                   map_collision
     00002B3B  A$lcc1754051$153                   map_collision
     00002B3B  C$map_collision.c$30$1_0$137       map_collision
     00002B3E  A$lcc1754051$154                   map_collision
     00002B40  A$lcc1754051$155                   map_collision
     00002B41  A$lcc1754051$156                   map_collision
     00002B42  A$lcc1754051$157                   map_collision
     00002B44  A$lcc1754051$158                   map_collision
     00002B45  A$lcc1754051$159                   map_collision
     00002B47  A$lcc1754051$160                   map_collision
     00002B48  A$lcc1754051$164                   map_collision
     00002B48  C$map_collision.c$35$1_0$137       map_collision
     00002B49  A$lcc1754051$165                   map_collision
     00002B4A  A$lcc1754051$166                   map_collision
     00002B4D  A$lcc1754051$167                   map_collision
     00002B4E  A$lcc1754051$168                   map_collision
     00002B4F  A$lcc1754051$169                   map_collision
     00002B50  A$lcc1754051$170                   map_collision
     00002B52  A$lcc1754051$171                   map_collision
     00002B53  A$lcc1754051$172                   map_collision
ASxxxx Linker V03.00/V05.40 + sdld,  page 69.
Hexadecimal  [32-Bits]

Area                                    Addr        Size        Decimal Bytes (Attributes)
--------------------------------        ----        ----        ------- ----- ------------
_CODE                               00000200    0000321D =       12829. bytes (REL,CON)

      Value  Global                              Global Defined In Module
      -----  --------------------------------   ------------------------
     00002B54  A$lcc1754051$173                   map_collision
     00002B55  A$lcc1754051$174                   map_collision
     00002B57  A$lcc1754051$175                   map_collision
     00002B58  A$lcc1754051$176                   map_collision
     00002B59  A$lcc1754051$177                   map_collision
     00002B5A  A$lcc1754051$178                   map_collision
     00002B5B  A$lcc1754051$179                   map_collision
     00002B5C  A$lcc1754051$180                   map_collision
     00002B5E  A$lcc1754051$181                   map_collision
     00002B5F  A$lcc1754051$182                   map_collision
     00002B60  A$lcc1754051$183                   map_collision
     00002B61  A$lcc1754051$184                   map_collision
     00002B62  A$lcc1754051$185                   map_collision
     00002B64  A$lcc1754051$186                   map_collision
     00002B65  A$lcc1754051$187                   map_collision
     00002B66  A$lcc1754051$188                   map_collision
     00002B67  A$lcc1754051$189                   map_collision
     00002B68  A$lcc1754051$190                   map_collision
     00002B69  A$lcc1754051$191                   map_collision
     00002B6A  A$lcc1754051$192                   map_collision
     00002B6B  A$lcc1754051$193                   map_collision
     00002B6C  A$lcc1754051$194                   map_collision
     00002B6D  A$lcc1754051$195                   map_collision
     00002B6F  A$lcc1754051$196                   map_collision
     00002B70  A$lcc1754051$197                   map_collision
     00002B71  A$lcc1754051$198                   map_collision
     00002B72  A$lcc1754051$199                   map_collision
     00002B74  A$lcc1754051$200                   map_collision
     00002B75  A$lcc1754051$201                   map_collision
     00002B76  A$lcc1754051$202                   map_collision
     00002B77  A$lcc1754051$203                   map_collision
     00002B78  A$lcc1754051$204                   map_collision
     00002B7A  A$lcc1754051$205                   map_collision
     00002B7B  A$lcc1754051$206                   map_collision
     00002B7C  A$lcc1754051$207                   map_collision
     00002B7D  A$lcc1754051$208                   map_collision
     00002B7E  A$lcc1754051$209                   map_collision
     00002B7F  A$lcc1754051$210                   map_collision
     00002B80  A$lcc1754051$211                   map_collision
     00002B82  A$lcc1754051$212                   map_collision
     00002B83  A$lcc1754051$213                   map_collision
     00002B84  A$lcc1754051$214                   map_collision
     00002B85  A$lcc1754051$215                   map_collision
     00002B87  A$lcc1754051$216                   map_collision
     00002B88  A$lcc1754051$217                   map_collision
     00002B89  A$lcc1754051$218                   map_collision
     00002B8A  A$lcc1754051$219                   map_collision
     00002B8C  A$lcc1754051$220                   map_collision
     00002B8E  A$lcc1754051$221                   map_collision
     00002B8F  A$lcc1754051$223                   map_collision
     00002B91  A$lcc1754051$224                   map_collision
ASxxxx Linker V03.00/V05.40 + sdld,  page 70.
Hexadecimal  [32-Bits]

Area                                    Addr        Size        Decimal Bytes (Attributes)
--------------------------------        ----        ----        ------- ----- ------------
_CODE                               00000200    0000321D =       12829. bytes (REL,CON)

      Value  Global                              Global Defined In Module
      -----  --------------------------------   ------------------------
     00002B94  A$lcc1754051$228                   map_collision
     00002B94  C$map_collision.c$36$1_0$137       map_collision
     00002B96  A$lcc1754051$229                   map_collision
     00002B97  A$lcc1754051$230                   map_collision
     00002B98  A$lcc1754051$231                   map_collision
     00002B99  A$lcc1754051$232                   map_collision
     00002B9A  A$lcc1754051$233                   map_collision
     00002B9C  A$lcc1754051$234                   map_collision
     00002B9D  A$lcc1754051$235                   map_collision
     00002B9E  A$lcc1754051$236                   map_collision
     00002B9F  A$lcc1754051$237                   map_collision
     00002BA0  A$lcc1754051$238                   map_collision
     00002BA1  A$lcc1754051$239                   map_collision
     00002BA2  A$lcc1754051$240                   map_collision
     00002BA3  A$lcc1754051$241                   map_collision
     00002BA5  A$lcc1754051$242                   map_collision
     00002BA6  A$lcc1754051$243                   map_collision
     00002BA7  A$lcc1754051$244                   map_collision
     00002BA8  A$lcc1754051$245                   map_collision
     00002BA9  A$lcc1754051$246                   map_collision
     00002BAA  A$lcc1754051$247                   map_collision
     00002BAB  A$lcc1754051$248                   map_collision
     00002BAC  A$lcc1754051$249                   map_collision
     00002BAD  A$lcc1754051$250                   map_collision
     00002BAF  A$lcc1754051$251                   map_collision
     00002BB0  A$lcc1754051$252                   map_collision
     00002BB1  A$lcc1754051$253                   map_collision
     00002BB2  A$lcc1754051$254                   map_collision
     00002BB4  A$lcc1754051$255                   map_collision
     00002BB6  A$lcc1754051$256                   map_collision
     00002BB7  A$lcc1754051$258                   map_collision
     00002BB9  A$lcc1754051$259                   map_collision
     00002BBC  A$lcc1754051$263                   map_collision
     00002BBC  C$map_collision.c$37$1_0$137       map_collision
     00002BBE  A$lcc1754051$264                   map_collision
     00002BBF  A$lcc1754051$265                   map_collision
     00002BC0  A$lcc1754051$266                   map_collision
     00002BC1  A$lcc1754051$267                   map_collision
     00002BC2  A$lcc1754051$268                   map_collision
     00002BC4  A$lcc1754051$269                   map_collision
     00002BC5  A$lcc1754051$270                   map_collision
     00002BC6  A$lcc1754051$271                   map_collision
     00002BC7  A$lcc1754051$272                   map_collision
     00002BC8  A$lcc1754051$273                   map_collision
     00002BC9  A$lcc1754051$274                   map_collision
     00002BCA  A$lcc1754051$275                   map_collision
     00002BCB  A$lcc1754051$276                   map_collision
     00002BCC  A$lcc1754051$277                   map_collision
     00002BCD  A$lcc1754051$278                   map_collision
     00002BCE  A$lcc1754051$279                   map_collision
     00002BCF  A$lcc1754051$280                   map_collision
ASxxxx Linker V03.00/V05.40 + sdld,  page 71.
Hexadecimal  [32-Bits]

Area                                    Addr        Size        Decimal Bytes (Attributes)
--------------------------------        ----        ----        ------- ----- ------------
_CODE                               00000200    0000321D =       12829. bytes (REL,CON)

      Value  Global                              Global Defined In Module
      -----  --------------------------------   ------------------------
     00002BD0  A$lcc1754051$281                   map_collision
     00002BD1  A$lcc1754051$282                   map_collision
     00002BD2  A$lcc1754051$283                   map_collision
     00002BD3  A$lcc1754051$284                   map_collision
     00002BD4  A$lcc1754051$285                   map_collision
     00002BD5  A$lcc1754051$286                   map_collision
     00002BD6  A$lcc1754051$287                   map_collision
     00002BD7  A$lcc1754051$288                   map_collision
     00002BD8  A$lcc1754051$289                   map_collision
     00002BD9  A$lcc1754051$290                   map_collision
     00002BDB  A$lcc1754051$291                   map_collision
     00002BDC  A$lcc1754051$292                   map_collision
     00002BDD  A$lcc1754051$293                   map_collision
     00002BDE  A$lcc1754051$294                   map_collision
     00002BDF  A$lcc1754051$295                   map_collision
     00002BE0  A$lcc1754051$296                   map_collision
     00002BE1  A$lcc1754051$297                   map_collision
     00002BE3  A$lcc1754051$298                   map_collision
     00002BE4  A$lcc1754051$299                   map_collision
     00002BE6  A$lcc1754051$300                   map_collision
     00002BE7  A$lcc1754051$301                   map_collision
     00002BE8  A$lcc1754051$302                   map_collision
     00002BE9  A$lcc1754051$303                   map_collision
     00002BEA  A$lcc1754051$304                   map_collision
     00002BEB  A$lcc1754051$305                   map_collision
     00002BED  A$lcc1754051$306                   map_collision
     00002BEF  A$lcc1754051$307                   map_collision
     00002BF0  A$lcc1754051$309                   map_collision
     00002BF2  A$lcc1754051$310                   map_collision
     00002BF5  A$lcc1754051$314                   map_collision
     00002BF5  C$map_collision.c$38$1_0$137       map_collision
     00002BF7  A$lcc1754051$315                   map_collision
     00002BF8  A$lcc1754051$316                   map_collision
     00002BF9  A$lcc1754051$317                   map_collision
     00002BFA  A$lcc1754051$318                   map_collision
     00002BFB  A$lcc1754051$319                   map_collision
     00002BFC  A$lcc1754051$320                   map_collision
     00002BFD  A$lcc1754051$321                   map_collision
     00002BFE  A$lcc1754051$322                   map_collision
     00002BFF  A$lcc1754051$323                   map_collision
     00002C01  A$lcc1754051$324                   map_collision
     00002C02  A$lcc1754051$325                   map_collision
     00002C04  A$lcc1754051$326                   map_collision
     00002C05  A$lcc1754051$327                   map_collision
     00002C06  A$lcc1754051$328                   map_collision
     00002C07  A$lcc1754051$329                   map_collision
     00002C08  A$lcc1754051$330                   map_collision
     00002C09  A$lcc1754051$331                   map_collision
     00002C0A  A$lcc1754051$332                   map_collision
     00002C0B  A$lcc1754051$333                   map_collision
     00002C0C  A$lcc1754051$334                   map_collision
ASxxxx Linker V03.00/V05.40 + sdld,  page 72.
Hexadecimal  [32-Bits]

Area                                    Addr        Size        Decimal Bytes (Attributes)
--------------------------------        ----        ----        ------- ----- ------------
_CODE                               00000200    0000321D =       12829. bytes (REL,CON)

      Value  Global                              Global Defined In Module
      -----  --------------------------------   ------------------------
     00002C0D  A$lcc1754051$335                   map_collision
     00002C0E  A$lcc1754051$336                   map_collision
     00002C0F  A$lcc1754051$337                   map_collision
     00002C10  A$lcc1754051$338                   map_collision
     00002C12  A$lcc1754051$339                   map_collision
     00002C13  A$lcc1754051$340                   map_collision
     00002C15  A$lcc1754051$341                   map_collision
     00002C16  A$lcc1754051$342                   map_collision
     00002C17  A$lcc1754051$343                   map_collision
     00002C18  A$lcc1754051$344                   map_collision
     00002C19  A$lcc1754051$345                   map_collision
     00002C1A  A$lcc1754051$346                   map_collision
     00002C1C  A$lcc1754051$347                   map_collision
     00002C1E  A$lcc1754051$348                   map_collision
     00002C1F  A$lcc1754051$350                   map_collision
     00002C21  A$lcc1754051$351                   map_collision
     00002C24  A$lcc1754051$355                   map_collision
     00002C24  C$map_collision.c$44$2_0$138       map_collision
     00002C26  A$lcc1754051$356                   map_collision
     00002C27  A$lcc1754051$357                   map_collision
     00002C28  A$lcc1754051$358                   map_collision
     00002C29  A$lcc1754051$359                   map_collision
     00002C2A  A$lcc1754051$360                   map_collision
     00002C2B  A$lcc1754051$361                   map_collision
     00002C2C  A$lcc1754051$362                   map_collision
     00002C2D  A$lcc1754051$363                   map_collision
     00002C2E  A$lcc1754051$364                   map_collision
     00002C2F  A$lcc1754051$365                   map_collision
     00002C30  A$lcc1754051$366                   map_collision
     00002C31  A$lcc1754051$367                   map_collision
     00002C32  A$lcc1754051$368                   map_collision
     00002C33  A$lcc1754051$369                   map_collision
     00002C34  A$lcc1754051$370                   map_collision
     00002C35  A$lcc1754051$371                   map_collision
     00002C37  A$lcc1754051$372                   map_collision
     00002C38  A$lcc1754051$373                   map_collision
     00002C3A  A$lcc1754051$374                   map_collision
     00002C3B  A$lcc1754051$375                   map_collision
     00002C3C  A$lcc1754051$376                   map_collision
     00002C3D  A$lcc1754051$377                   map_collision
     00002C3E  A$lcc1754051$378                   map_collision
     00002C3F  A$lcc1754051$379                   map_collision
     00002C41  A$lcc1754051$380                   map_collision
     00002C43  A$lcc1754051$381                   map_collision
     00002C44  A$lcc1754051$383                   map_collision
     00002C45  A$lcc1754051$384                   map_collision
     00002C48  A$lcc1754051$385                   map_collision
     00002C49  A$lcc1754051$386                   map_collision
     00002C4B  A$lcc1754051$387                   map_collision
     00002C4D  A$lcc1754051$388                   map_collision
     00002C4E  A$lcc1754051$390                   map_collision
ASxxxx Linker V03.00/V05.40 + sdld,  page 73.
Hexadecimal  [32-Bits]

Area                                    Addr        Size        Decimal Bytes (Attributes)
--------------------------------        ----        ----        ------- ----- ------------
_CODE                               00000200    0000321D =       12829. bytes (REL,CON)

      Value  Global                              Global Defined In Module
      -----  --------------------------------   ------------------------
     00002C4F  A$lcc1754051$391                   map_collision
     00002C51  A$lcc1754051$395                   map_collision
     00002C51  C$map_collision.c$46$3_0$139       map_collision
     00002C54  A$lcc1754051$400                   map_collision
     00002C54  C$map_collision.c$49$2_0$140       map_collision
     00002C56  A$lcc1754051$401                   map_collision
     00002C57  A$lcc1754051$402                   map_collision
     00002C58  A$lcc1754051$403                   map_collision
     00002C59  A$lcc1754051$404                   map_collision
     00002C5A  A$lcc1754051$405                   map_collision
     00002C5B  A$lcc1754051$406                   map_collision
     00002C5C  A$lcc1754051$407                   map_collision
     00002C5D  A$lcc1754051$408                   map_collision
     00002C5E  A$lcc1754051$409                   map_collision
     00002C5F  A$lcc1754051$410                   map_collision
     00002C60  A$lcc1754051$411                   map_collision
     00002C61  A$lcc1754051$412                   map_collision
     00002C62  A$lcc1754051$413                   map_collision
     00002C63  A$lcc1754051$414                   map_collision
     00002C64  A$lcc1754051$415                   map_collision
     00002C65  A$lcc1754051$416                   map_collision
     00002C67  A$lcc1754051$417                   map_collision
     00002C68  A$lcc1754051$418                   map_collision
     00002C6A  A$lcc1754051$419                   map_collision
     00002C6B  A$lcc1754051$420                   map_collision
     00002C6C  A$lcc1754051$421                   map_collision
     00002C6D  A$lcc1754051$422                   map_collision
     00002C6E  A$lcc1754051$423                   map_collision
     00002C6F  A$lcc1754051$424                   map_collision
     00002C71  A$lcc1754051$431                   map_collision
     00002C71  C$map_collision.c$51$3_0$141       map_collision
     00002C71  C$map_collision.c$52$3_0$141       map_collision
     00002C72  A$lcc1754051$432                   map_collision
     00002C73  A$lcc1754051$433                   map_collision
     00002C74  A$lcc1754051$437                   map_collision
     00002C74  C$map_collision.c$54$4_0$142       map_collision
     00002C75  A$lcc1754051$438                   map_collision
     00002C76  A$lcc1754051$439                   map_collision
     00002C79  A$lcc1754051$440                   map_collision
     00002C7A  A$lcc1754051$441                   map_collision
     00002C7B  A$lcc1754051$442                   map_collision
     00002C7C  A$lcc1754051$443                   map_collision
     00002C7D  A$lcc1754051$444                   map_collision
     00002C7E  A$lcc1754051$445                   map_collision
     00002C7F  A$lcc1754051$446                   map_collision
     00002C80  A$lcc1754051$447                   map_collision
     00002C82  A$lcc1754051$448                   map_collision
     00002C84  A$lcc1754051$452                   map_collision
     00002C84  C$map_collision.c$55$4_0$142       map_collision
     00002C86  A$lcc1754051$456                   map_collision
     00002C86  C$map_collision.c$57$4_0$143       map_collision
ASxxxx Linker V03.00/V05.40 + sdld,  page 74.
Hexadecimal  [32-Bits]

Area                                    Addr        Size        Decimal Bytes (Attributes)
--------------------------------        ----        ----        ------- ----- ------------
_CODE                               00000200    0000321D =       12829. bytes (REL,CON)

      Value  Global                              Global Defined In Module
      -----  --------------------------------   ------------------------
     00002C87  A$lcc1754051$457                   map_collision
     00002C88  A$lcc1754051$458                   map_collision
     00002C8B  A$lcc1754051$459                   map_collision
     00002C8C  A$lcc1754051$460                   map_collision
     00002C8D  A$lcc1754051$461                   map_collision
     00002C8E  A$lcc1754051$462                   map_collision
     00002C8F  A$lcc1754051$463                   map_collision
     00002C90  A$lcc1754051$464                   map_collision
     00002C91  A$lcc1754051$465                   map_collision
     00002C93  A$lcc1754051$466                   map_collision
     00002C94  A$lcc1754051$467                   map_collision
     00002C95  A$lcc1754051$468                   map_collision
     00002C96  A$lcc1754051$469                   map_collision
     00002C97  A$lcc1754051$470                   map_collision
     00002C98  A$lcc1754051$471                   map_collision
     00002C99  A$lcc1754051$475                   map_collision
     00002C99  C$map_collision.c$58$4_0$143       map_collision
     00002C9B  A$lcc1754051$479                   map_collision
     00002C9B  C$map_collision.c$60$3_0$141       map_collision
     00002C9C  A$lcc1754051$480                   map_collision
     00002C9D  A$lcc1754051$481                   map_collision
     00002CA0  A$lcc1754051$486                   map_collision
     00002CA2  A$lcc1754051$491                   map_collision
     00002CA2  C$map_collision.c$62$2_0$137       map_collision
     00002CA2  XG$Map_Collision$0$0               map_collision
     00002CA3  A$lcc1754053$61                    map_00
     00002CA3  C$map_00.c$6$0_0$32                map_00
     00002CA3  C$map_00.c$7$1_0$32                map_00
     00002CA3  G$Map_00_Create$0$0                map_00
     00002CA3  _Map_00_Create                     map_00
     00002CA6  A$lcc1754053$62                    map_00
     00002CA8  A$lcc1754053$63                    map_00
     00002CA9  A$lcc1754053$64                    map_00
     00002CAB  A$lcc1754053$68                    map_00
     00002CAB  C$map_00.c$8$1_0$32                map_00
     00002CAC  A$lcc1754053$69                    map_00
     00002CAE  A$lcc1754053$70                    map_00
     00002CAF  A$lcc1754053$71                    map_00
     00002CB1  A$lcc1754053$75                    map_00
     00002CB1  C$map_00.c$10$1_0$32               map_00
     00002CB4  A$lcc1754053$76                    map_00
     00002CB5  A$lcc1754053$77                    map_00
     00002CB6  A$lcc1754053$78                    map_00
     00002CB7  A$lcc1754053$86                    map_00
     00002CB7  C$map_00.c$11$1_0$32               map_00
     00002CB7  XG$Map_00_Create$0$0               map_00
     00002CB8  G$map_00_example_collision$0_0$0   map_00_collision
     00002CB8  _map_00_example_collision          map_00_collision
     00002E20  A$lcc1754055$57                    map_00_init
     00002E20  C$map_00_init.c$19$0_0$165         map_00_init
     00002E20  G$hello_event$0$0                  map_00_init
ASxxxx Linker V03.00/V05.40 + sdld,  page 75.
Hexadecimal  [32-Bits]

Area                                    Addr        Size        Decimal Bytes (Attributes)
--------------------------------        ----        ----        ------- ----- ------------
_CODE                               00000200    0000321D =       12829. bytes (REL,CON)

      Value  Global                              Global Defined In Module
      -----  --------------------------------   ------------------------
     00002E20  _hello_event                       map_00_init
     00002E22  A$lcc1754055$61                    map_00_init
     00002E22  C$map_00_init.c$21$2_0$166         map_00_init
     00002E25  A$lcc1754055$62                    map_00_init
     00002E26  A$lcc1754055$63                    map_00_init
     00002E27  A$lcc1754055$64                    map_00_init
     00002E29  A$lcc1754055$71                    map_00_init
     00002E29  C$map_00_init.c$22$2_0$166         map_00_init
     00002E29  C$map_00_init.c$24$1_0$165         map_00_init
     00002E2B  A$lcc1754055$72                    map_00_init
     00002E2C  A$lcc1754055$76                    map_00_init
     00002E2C  C$map_00_init.c$25$2_0$167         map_00_init
     00002E2E  A$lcc1754055$77                    map_00_init
     00002E2F  A$lcc1754055$78                    map_00_init
     00002E30  A$lcc1754055$79                    map_00_init
     00002E32  A$lcc1754055$80                    map_00_init
     00002E34  A$lcc1754055$81                    map_00_init
     00002E36  A$lcc1754055$82                    map_00_init
     00002E37  A$lcc1754055$83                    map_00_init
     00002E39  A$lcc1754055$84                    map_00_init
     00002E3A  A$lcc1754055$85                    map_00_init
     00002E3B  A$lcc1754055$86                    map_00_init
     00002E3D  A$lcc1754055$87                    map_00_init
     00002E3E  A$lcc1754055$88                    map_00_init
     00002E40  A$lcc1754055$89                    map_00_init
     00002E41  A$lcc1754055$90                    map_00_init
     00002E43  A$lcc1754055$91                    map_00_init
     00002E44  A$lcc1754055$92                    map_00_init
     00002E46  A$lcc1754055$93                    map_00_init
     00002E47  A$lcc1754055$94                    map_00_init
     00002E49  A$lcc1754055$95                    map_00_init
     00002E4A  A$lcc1754055$96                    map_00_init
     00002E4C  A$lcc1754055$97                    map_00_init
     00002E4D  A$lcc1754055$98                    map_00_init
     00002E4F  A$lcc1754055$99                    map_00_init
     00002E50  A$lcc1754055$100                   map_00_init
     00002E52  A$lcc1754055$101                   map_00_init
     00002E53  A$lcc1754055$102                   map_00_init
     00002E55  A$lcc1754055$103                   map_00_init
     00002E56  A$lcc1754055$104                   map_00_init
     00002E58  A$lcc1754055$108                   map_00_init
     00002E58  C$map_00_init.c$26$1_1$167         map_00_init
     00002E5B  A$lcc1754055$109                   map_00_init
     00002E5E  A$lcc1754055$110                   map_00_init
     00002E5F  A$lcc1754055$111                   map_00_init
     00002E60  A$lcc1754055$112                   map_00_init
     00002E61  A$lcc1754055$113                   map_00_init
     00002E63  A$lcc1754055$114                   map_00_init
     00002E66  A$lcc1754055$115                   map_00_init
     00002E69  A$lcc1754055$120                   map_00_init
     00002E6B  A$lcc1754055$125                   map_00_init
ASxxxx Linker V03.00/V05.40 + sdld,  page 76.
Hexadecimal  [32-Bits]

Area                                    Addr        Size        Decimal Bytes (Attributes)
--------------------------------        ----        ----        ------- ----- ------------
_CODE                               00000200    0000321D =       12829. bytes (REL,CON)

      Value  Global                              Global Defined In Module
      -----  --------------------------------   ------------------------
     00002E6B  C$map_00_init.c$27$1_1$165         map_00_init
     00002E6B  XG$hello_event$0$0                 map_00_init
     00002E6C  Fmap_00_init$__str_1$0_0$0         map_00_init
     00002E6E  A$lcc1754055$139                   map_00_init
     00002E6E  C$map_00_init.c$29$1_1$169         map_00_init
     00002E6E  G$Map_00_Init$0$0                  map_00_init
     00002E6E  _Map_00_Init                       map_00_init
     00002E6F  A$lcc1754055$140                   map_00_init
     00002E70  A$lcc1754055$141                   map_00_init
     00002E71  A$lcc1754055$145                   map_00_init
     00002E71  C$map_00_init.c$31$1_0$169         map_00_init
     00002E74  A$lcc1754055$146                   map_00_init
     00002E76  A$lcc1754055$147                   map_00_init
     00002E77  A$lcc1754055$148                   map_00_init
     00002E79  A$lcc1754055$149                   map_00_init
     00002E7B  A$lcc1754055$150                   map_00_init
     00002E7C  A$lcc1754055$151                   map_00_init
     00002E7F  A$lcc1754055$152                   map_00_init
     00002E80  A$lcc1754055$156                   map_00_init
     00002E80  C$map_00_init.c$32$1_0$169         map_00_init
     00002E83  A$lcc1754055$157                   map_00_init
     00002E84  A$lcc1754055$161                   map_00_init
     00002E84  C$map_00_init.c$33$1_0$169         map_00_init
     00002E87  A$lcc1754055$162                   map_00_init
     00002E89  A$lcc1754055$163                   map_00_init
     00002E8A  A$lcc1754055$164                   map_00_init
     00002E8C  A$lcc1754055$168                   map_00_init
     00002E8C  C$map_00_init.c$34$1_0$169         map_00_init
     00002E8F  A$lcc1754055$169                   map_00_init
     00002E91  A$lcc1754055$173                   map_00_init
     00002E91  C$map_00_init.c$35$1_0$169         map_00_init
     00002E92  A$lcc1754055$174                   map_00_init
     00002E93  A$lcc1754055$175                   map_00_init
     00002E95  A$lcc1754055$179                   map_00_init
     00002E95  C$map_00_init.c$37$1_0$169         map_00_init
     00002E98  A$lcc1754055$180                   map_00_init
     00002E9A  A$lcc1754055$184                   map_00_init
     00002E9A  C$map_00_init.c$38$1_0$169         map_00_init
     00002E9D  A$lcc1754055$185                   map_00_init
     00002E9F  A$lcc1754055$186                   map_00_init
     00002EA0  A$lcc1754055$187                   map_00_init
     00002EA2  A$lcc1754055$191                   map_00_init
     00002EA2  C$map_00_init.c$39$1_0$169         map_00_init
     00002EA5  A$lcc1754055$192                   map_00_init
     00002EA7  A$lcc1754055$196                   map_00_init
     00002EA7  C$map_00_init.c$41$1_0$169         map_00_init
     00002EAA  A$lcc1754055$197                   map_00_init
     00002EAB  A$lcc1754055$198                   map_00_init
     00002EAD  A$lcc1754055$199                   map_00_init
     00002EAE  A$lcc1754055$200                   map_00_init
     00002EB0  A$lcc1754055$204                   map_00_init
ASxxxx Linker V03.00/V05.40 + sdld,  page 77.
Hexadecimal  [32-Bits]

Area                                    Addr        Size        Decimal Bytes (Attributes)
--------------------------------        ----        ----        ------- ----- ------------
_CODE                               00000200    0000321D =       12829. bytes (REL,CON)

      Value  Global                              Global Defined In Module
      -----  --------------------------------   ------------------------
     00002EB0  C$map_00_init.c$42$1_0$169         map_00_init
     00002EB1  A$lcc1754055$205                   map_00_init
     00002EB2  A$lcc1754055$206                   map_00_init
     00002EB5  A$lcc1754055$210                   map_00_init
     00002EB5  C$map_00_init.c$44$1_0$169         map_00_init
     00002EB8  A$lcc1754055$211                   map_00_init
     00002EB9  A$lcc1754055$212                   map_00_init
     00002EBC  A$lcc1754055$213                   map_00_init
     00002EBD  A$lcc1754055$214                   map_00_init
     00002EC0  A$lcc1754055$215                   map_00_init
     00002EC2  A$lcc1754055$219                   map_00_init
     00002EC2  C$map_00_init.c$45$1_0$169         map_00_init
     00002EC5  A$lcc1754055$220                   map_00_init
     00002EC6  A$lcc1754055$221                   map_00_init
     00002EC9  A$lcc1754055$222                   map_00_init
     00002ECA  A$lcc1754055$223                   map_00_init
     00002ECB  A$lcc1754055$224                   map_00_init
     00002ECC  A$lcc1754055$225                   map_00_init
     00002ECD  A$lcc1754055$226                   map_00_init
     00002ED0  A$lcc1754055$227                   map_00_init
     00002ED2  A$lcc1754055$235                   map_00_init
     00002ED2  C$map_00_init.c$46$1_0$169         map_00_init
     00002ED2  XG$Map_00_Init$0$0                 map_00_init
     00002ED3  A$lcc1754056$53                    map_00_init_npc
     00002ED3  C$map_00_init_npc.c$12$0_0$164     map_00_init_npc
     00002ED3  G$Map_00_NPC_Init$0$0              map_00_init_npc
     00002ED3  _Map_00_NPC_Init                   map_00_init_npc
     00002ED5  A$lcc1754056$57                    map_00_init_npc
     00002ED5  C$map_00_init_npc.c$14$1_0$164     map_00_init_npc
     00002ED8  A$lcc1754056$58                    map_00_init_npc
     00002ED9  A$lcc1754056$59                    map_00_init_npc
     00002EDB  A$lcc1754056$60                    map_00_init_npc
     00002EDE  A$lcc1754056$61                    map_00_init_npc
     00002EDF  A$lcc1754056$62                    map_00_init_npc
     00002EE1  A$lcc1754056$66                    map_00_init_npc
     00002EE1  C$map_00_init_npc.c$15$1_0$164     map_00_init_npc
     00002EE4  A$lcc1754056$67                    map_00_init_npc
     00002EE5  A$lcc1754056$68                    map_00_init_npc
     00002EE7  A$lcc1754056$69                    map_00_init_npc
     00002EEA  A$lcc1754056$70                    map_00_init_npc
     00002EEB  A$lcc1754056$71                    map_00_init_npc
     00002EED  A$lcc1754056$75                    map_00_init_npc
     00002EED  C$map_00_init_npc.c$17$2_0$165     map_00_init_npc
     00002EEF  A$lcc1754056$76                    map_00_init_npc
     00002EF1  A$lcc1754056$77                    map_00_init_npc
     00002EF2  A$lcc1754056$78                    map_00_init_npc
     00002EF4  A$lcc1754056$79                    map_00_init_npc
     00002EF5  A$lcc1754056$80                    map_00_init_npc
     00002EF7  A$lcc1754056$81                    map_00_init_npc
     00002EF8  A$lcc1754056$82                    map_00_init_npc
     00002EFA  A$lcc1754056$83                    map_00_init_npc
ASxxxx Linker V03.00/V05.40 + sdld,  page 78.
Hexadecimal  [32-Bits]

Area                                    Addr        Size        Decimal Bytes (Attributes)
--------------------------------        ----        ----        ------- ----- ------------
_CODE                               00000200    0000321D =       12829. bytes (REL,CON)

      Value  Global                              Global Defined In Module
      -----  --------------------------------   ------------------------
     00002EFB  A$lcc1754056$84                    map_00_init_npc
     00002EFD  A$lcc1754056$85                    map_00_init_npc
     00002EFE  A$lcc1754056$86                    map_00_init_npc
     00002EFF  A$lcc1754056$87                    map_00_init_npc
     00002F00  A$lcc1754056$88                    map_00_init_npc
     00002F01  A$lcc1754056$89                    map_00_init_npc
     00002F02  A$lcc1754056$90                    map_00_init_npc
     00002F03  A$lcc1754056$91                    map_00_init_npc
     00002F04  A$lcc1754056$95                    map_00_init_npc
     00002F07  A$lcc1754056$96                    map_00_init_npc
     00002F08  A$lcc1754056$98                    map_00_init_npc
     00002F0B  A$lcc1754056$99                    map_00_init_npc
     00002F0C  A$lcc1754056$100                   map_00_init_npc
     00002F0D  A$lcc1754056$101                   map_00_init_npc
     00002F0E  A$lcc1754056$102                   map_00_init_npc
     00002F10  A$lcc1754056$103                   map_00_init_npc
     00002F11  A$lcc1754056$104                   map_00_init_npc
     00002F13  A$lcc1754056$105                   map_00_init_npc
     00002F15  A$lcc1754056$109                   map_00_init_npc
     00002F15  C$map_00_init_npc.c$19$2_1$166     map_00_init_npc
     00002F18  A$lcc1754056$110                   map_00_init_npc
     00002F19  A$lcc1754056$111                   map_00_init_npc
     00002F1B  A$lcc1754056$112                   map_00_init_npc
     00002F1C  A$lcc1754056$113                   map_00_init_npc
     00002F1D  A$lcc1754056$114                   map_00_init_npc
     00002F1E  A$lcc1754056$115                   map_00_init_npc
     00002F1F  A$lcc1754056$116                   map_00_init_npc
     00002F20  A$lcc1754056$117                   map_00_init_npc
     00002F21  A$lcc1754056$118                   map_00_init_npc
     00002F22  A$lcc1754056$119                   map_00_init_npc
     00002F23  A$lcc1754056$120                   map_00_init_npc
     00002F25  A$lcc1754056$121                   map_00_init_npc
     00002F26  A$lcc1754056$122                   map_00_init_npc
     00002F27  A$lcc1754056$123                   map_00_init_npc
     00002F28  A$lcc1754056$124                   map_00_init_npc
     00002F2A  A$lcc1754056$125                   map_00_init_npc
     00002F2B  A$lcc1754056$126                   map_00_init_npc
     00002F2C  A$lcc1754056$127                   map_00_init_npc
     00002F2D  A$lcc1754056$128                   map_00_init_npc
     00002F2E  A$lcc1754056$129                   map_00_init_npc
     00002F31  A$lcc1754056$130                   map_00_init_npc
     00002F32  A$lcc1754056$131                   map_00_init_npc
     00002F33  A$lcc1754056$132                   map_00_init_npc
     00002F34  A$lcc1754056$133                   map_00_init_npc
     00002F36  A$lcc1754056$134                   map_00_init_npc
     00002F37  A$lcc1754056$135                   map_00_init_npc
     00002F38  A$lcc1754056$136                   map_00_init_npc
     00002F39  A$lcc1754056$140                   map_00_init_npc
     00002F39  C$map_00_init_npc.c$18$2_1$166     map_00_init_npc
     00002F3A  A$lcc1754056$141                   map_00_init_npc
     00002F3C  A$lcc1754056$146                   map_00_init_npc
ASxxxx Linker V03.00/V05.40 + sdld,  page 79.
Hexadecimal  [32-Bits]

Area                                    Addr        Size        Decimal Bytes (Attributes)
--------------------------------        ----        ----        ------- ----- ------------
_CODE                               00000200    0000321D =       12829. bytes (REL,CON)

      Value  Global                              Global Defined In Module
      -----  --------------------------------   ------------------------
     00002F3C  C$map_00_init_npc.c$21$1_1$165     map_00_init_npc
     00002F3F  A$lcc1754056$147                   map_00_init_npc
     00002F40  A$lcc1754056$148                   map_00_init_npc
     00002F41  A$lcc1754056$149                   map_00_init_npc
     00002F43  A$lcc1754056$150                   map_00_init_npc
     00002F46  A$lcc1754056$151                   map_00_init_npc
     00002F47  A$lcc1754056$152                   map_00_init_npc
     00002F4A  A$lcc1754056$153                   map_00_init_npc
     00002F4C  A$lcc1754056$154                   map_00_init_npc
     00002F4D  A$lcc1754056$155                   map_00_init_npc
     00002F4F  A$lcc1754056$156                   map_00_init_npc
     00002F51  A$lcc1754056$157                   map_00_init_npc
     00002F52  A$lcc1754056$158                   map_00_init_npc
     00002F53  A$lcc1754056$159                   map_00_init_npc
     00002F54  A$lcc1754056$160                   map_00_init_npc
     00002F55  A$lcc1754056$161                   map_00_init_npc
     00002F56  A$lcc1754056$162                   map_00_init_npc
     00002F57  A$lcc1754056$166                   map_00_init_npc
     00002F57  C$map_00_init_npc.c$22$1_1$165     map_00_init_npc
     00002F5A  A$lcc1754056$167                   map_00_init_npc
     00002F5B  A$lcc1754056$168                   map_00_init_npc
     00002F5C  A$lcc1754056$169                   map_00_init_npc
     00002F5E  A$lcc1754056$170                   map_00_init_npc
     00002F61  A$lcc1754056$171                   map_00_init_npc
     00002F62  A$lcc1754056$172                   map_00_init_npc
     00002F65  A$lcc1754056$173                   map_00_init_npc
     00002F67  A$lcc1754056$174                   map_00_init_npc
     00002F68  A$lcc1754056$175                   map_00_init_npc
     00002F6A  A$lcc1754056$176                   map_00_init_npc
     00002F6C  A$lcc1754056$177                   map_00_init_npc
     00002F6D  A$lcc1754056$178                   map_00_init_npc
     00002F6E  A$lcc1754056$179                   map_00_init_npc
     00002F6F  A$lcc1754056$180                   map_00_init_npc
     00002F70  A$lcc1754056$181                   map_00_init_npc
     00002F71  A$lcc1754056$182                   map_00_init_npc
     00002F72  A$lcc1754056$186                   map_00_init_npc
     00002F72  C$map_00_init_npc.c$24$1_1$165     map_00_init_npc
     00002F75  A$lcc1754056$187                   map_00_init_npc
     00002F76  A$lcc1754056$188                   map_00_init_npc
     00002F78  A$lcc1754056$189                   map_00_init_npc
     00002F7B  A$lcc1754056$190                   map_00_init_npc
     00002F7C  A$lcc1754056$191                   map_00_init_npc
     00002F7E  A$lcc1754056$195                   map_00_init_npc
     00002F7E  C$map_00_init_npc.c$25$1_1$165     map_00_init_npc
     00002F81  A$lcc1754056$196                   map_00_init_npc
     00002F82  A$lcc1754056$197                   map_00_init_npc
     00002F84  A$lcc1754056$198                   map_00_init_npc
     00002F87  A$lcc1754056$199                   map_00_init_npc
     00002F88  A$lcc1754056$200                   map_00_init_npc
     00002F8A  A$lcc1754056$204                   map_00_init_npc
     00002F8A  C$map_00_init_npc.c$26$1_1$165     map_00_init_npc
ASxxxx Linker V03.00/V05.40 + sdld,  page 80.
Hexadecimal  [32-Bits]

Area                                    Addr        Size        Decimal Bytes (Attributes)
--------------------------------        ----        ----        ------- ----- ------------
_CODE                               00000200    0000321D =       12829. bytes (REL,CON)

      Value  Global                              Global Defined In Module
      -----  --------------------------------   ------------------------
     00002F8D  A$lcc1754056$205                   map_00_init_npc
     00002F8E  A$lcc1754056$206                   map_00_init_npc
     00002F90  A$lcc1754056$207                   map_00_init_npc
     00002F93  A$lcc1754056$208                   map_00_init_npc
     00002F94  A$lcc1754056$209                   map_00_init_npc
     00002F96  A$lcc1754056$213                   map_00_init_npc
     00002F96  C$map_00_init_npc.c$29$2_1$167     map_00_init_npc
     00002F98  A$lcc1754056$214                   map_00_init_npc
     00002F9A  A$lcc1754056$215                   map_00_init_npc
     00002F9B  A$lcc1754056$216                   map_00_init_npc
     00002F9D  A$lcc1754056$217                   map_00_init_npc
     00002F9E  A$lcc1754056$218                   map_00_init_npc
     00002FA0  A$lcc1754056$219                   map_00_init_npc
     00002FA1  A$lcc1754056$220                   map_00_init_npc
     00002FA3  A$lcc1754056$221                   map_00_init_npc
     00002FA4  A$lcc1754056$222                   map_00_init_npc
     00002FA6  A$lcc1754056$223                   map_00_init_npc
     00002FA7  A$lcc1754056$224                   map_00_init_npc
     00002FA9  A$lcc1754056$225                   map_00_init_npc
     00002FAA  A$lcc1754056$226                   map_00_init_npc
     00002FAC  A$lcc1754056$227                   map_00_init_npc
     00002FAD  A$lcc1754056$228                   map_00_init_npc
     00002FAF  A$lcc1754056$232                   map_00_init_npc
     00002FAF  C$map_00_init_npc.c$35$1_2$167     map_00_init_npc
     00002FB2  A$lcc1754056$233                   map_00_init_npc
     00002FB3  A$lcc1754056$234                   map_00_init_npc
     00002FB5  A$lcc1754056$235                   map_00_init_npc
     00002FB6  A$lcc1754056$236                   map_00_init_npc
     00002FB7  A$lcc1754056$237                   map_00_init_npc
     00002FB8  A$lcc1754056$238                   map_00_init_npc
     00002FB9  A$lcc1754056$239                   map_00_init_npc
     00002FBA  A$lcc1754056$240                   map_00_init_npc
     00002FBB  A$lcc1754056$241                   map_00_init_npc
     00002FBC  A$lcc1754056$242                   map_00_init_npc
     00002FBD  A$lcc1754056$243                   map_00_init_npc
     00002FBE  A$lcc1754056$244                   map_00_init_npc
     00002FC1  A$lcc1754056$245                   map_00_init_npc
     00002FC2  A$lcc1754056$246                   map_00_init_npc
     00002FC3  A$lcc1754056$247                   map_00_init_npc
     00002FC4  A$lcc1754056$248                   map_00_init_npc
     00002FC7  A$lcc1754056$249                   map_00_init_npc
     00002FC8  A$lcc1754056$250                   map_00_init_npc
     00002FCA  A$lcc1754056$251                   map_00_init_npc
     00002FCB  A$lcc1754056$252                   map_00_init_npc
     00002FCC  A$lcc1754056$253                   map_00_init_npc
     00002FCF  A$lcc1754056$254                   map_00_init_npc
     00002FD0  A$lcc1754056$255                   map_00_init_npc
     00002FD1  A$lcc1754056$256                   map_00_init_npc
     00002FD2  A$lcc1754056$257                   map_00_init_npc
     00002FD3  A$lcc1754056$258                   map_00_init_npc
     00002FD4  A$lcc1754056$259                   map_00_init_npc
ASxxxx Linker V03.00/V05.40 + sdld,  page 81.
Hexadecimal  [32-Bits]

Area                                    Addr        Size        Decimal Bytes (Attributes)
--------------------------------        ----        ----        ------- ----- ------------
_CODE                               00000200    0000321D =       12829. bytes (REL,CON)

      Value  Global                              Global Defined In Module
      -----  --------------------------------   ------------------------
     00002FD7  A$lcc1754056$260                   map_00_init_npc
     00002FDA  A$lcc1754056$264                   map_00_init_npc
     00002FDC  A$lcc1754056$269                   map_00_init_npc
     00002FDC  C$map_00_init_npc.c$36$1_2$164     map_00_init_npc
     00002FDC  XG$Map_00_NPC_Init$0$0             map_00_init_npc
     00002FDD  A$lcc1754057$56                    map_00_update
     00002FDD  C$map_00_update.c$11$0_0$171       map_00_update
     00002FDD  G$Map_00_Update$0$0                map_00_update
     00002FDD  _Map_00_Update                     map_00_update
     00002FDF  A$lcc1754057$57                    map_00_update
     00002FE1  A$lcc1754057$58                    map_00_update
     00002FE2  A$lcc1754057$59                    map_00_update
     00002FE3  A$lcc1754057$60                    map_00_update
     00002FE4  A$lcc1754057$64                    map_00_update
     00002FE4  C$map_00_update.c$13$1_0$171       map_00_update
     00002FE7  A$lcc1754057$68                    map_00_update
     00002FE7  C$map_00_update.c$15$1_1$172       map_00_update
     00002FE9  A$lcc1754057$69                    map_00_update
     00002FEA  A$lcc1754057$70                    map_00_update
     00002FEB  A$lcc1754057$71                    map_00_update
     00002FEC  A$lcc1754057$72                    map_00_update
     00002FEF  A$lcc1754057$73                    map_00_update
     00002FF0  A$lcc1754057$74                    map_00_update
     00002FF1  A$lcc1754057$75                    map_00_update
     00002FF2  A$lcc1754057$76                    map_00_update
     00002FF3  A$lcc1754057$77                    map_00_update
     00002FF5  A$lcc1754057$78                    map_00_update
     00002FF6  A$lcc1754057$79                    map_00_update
     00002FF7  A$lcc1754057$80                    map_00_update
     00002FF8  A$lcc1754057$84                    map_00_update
     00002FF9  A$lcc1754057$85                    map_00_update
     00002FFA  A$lcc1754057$86                    map_00_update
     00002FFD  A$lcc1754057$87                    map_00_update
     00002FFE  A$lcc1754057$88                    map_00_update
     00002FFF  A$lcc1754057$89                    map_00_update
     00003000  A$lcc1754057$90                    map_00_update
     00003002  A$lcc1754057$91                    map_00_update
     00003003  A$lcc1754057$92                    map_00_update
     00003004  A$lcc1754057$93                    map_00_update
     00003005  A$lcc1754057$94                    map_00_update
     00003007  A$lcc1754057$95                    map_00_update
     00003008  A$lcc1754057$96                    map_00_update
     0000300B  A$lcc1754057$98                    map_00_update
     0000300D  A$lcc1754057$99                    map_00_update
     0000300E  A$lcc1754057$100                   map_00_update
     0000300F  A$lcc1754057$101                   map_00_update
     00003010  A$lcc1754057$102                   map_00_update
     00003011  A$lcc1754057$103                   map_00_update
     00003012  A$lcc1754057$104                   map_00_update
     00003014  A$lcc1754057$105                   map_00_update
     00003015  A$lcc1754057$106                   map_00_update
ASxxxx Linker V03.00/V05.40 + sdld,  page 82.
Hexadecimal  [32-Bits]

Area                                    Addr        Size        Decimal Bytes (Attributes)
--------------------------------        ----        ----        ------- ----- ------------
_CODE                               00000200    0000321D =       12829. bytes (REL,CON)

      Value  Global                              Global Defined In Module
      -----  --------------------------------   ------------------------
     00003016  A$lcc1754057$107                   map_00_update
     00003017  A$lcc1754057$108                   map_00_update
     00003018  A$lcc1754057$109                   map_00_update
     0000301A  A$lcc1754057$113                   map_00_update
     0000301A  C$map_00_update.c$18$3_1$174       map_00_update
     0000301B  A$lcc1754057$114                   map_00_update
     0000301C  A$lcc1754057$115                   map_00_update
     0000301D  A$lcc1754057$116                   map_00_update
     0000301E  A$lcc1754057$117                   map_00_update
     0000301F  A$lcc1754057$118                   map_00_update
     00003020  A$lcc1754057$119                   map_00_update
     00003021  A$lcc1754057$120                   map_00_update
     00003024  A$lcc1754057$121                   map_00_update
     00003025  A$lcc1754057$125                   map_00_update
     00003025  C$map_00_update.c$17$2_1$173       map_00_update
     00003026  A$lcc1754057$126                   map_00_update
     00003028  A$lcc1754057$131                   map_00_update
     00003028  C$map_00_update.c$21$1_1$172       map_00_update
     0000302B  A$lcc1754057$132                   map_00_update
     0000302E  A$lcc1754057$136                   map_00_update
     0000302E  C$map_00_update.c$22$1_1$172       map_00_update
     0000302F  A$lcc1754057$137                   map_00_update
     00003030  A$lcc1754057$138                   map_00_update
     00003031  A$lcc1754057$139                   map_00_update
     00003032  A$lcc1754057$140                   map_00_update
     00003033  A$lcc1754057$141                   map_00_update
     00003034  A$lcc1754057$142                   map_00_update
     00003037  A$lcc1754057$146                   map_00_update
     00003037  C$map_00_update.c$24$1_1$172       map_00_update
     00003039  A$lcc1754057$147                   map_00_update
     0000303A  A$lcc1754057$148                   map_00_update
     0000303B  A$lcc1754057$149                   map_00_update
     0000303C  A$lcc1754057$150                   map_00_update
     0000303F  A$lcc1754057$157                   map_00_update
     0000303F  C$map_00_update.c$26$1_1$172       map_00_update
     00003041  A$lcc1754057$162                   map_00_update
     00003041  C$map_00_update.c$27$1_1$171       map_00_update
     00003041  XG$Map_00_Update$0$0               map_00_update
     00003042  A$lcc1754058$64                    main
     00003042  C$main.c$29$0_0$174                main
     00003042  C$main.c$31$1_0$174                main
     00003042  G$load_number_tiles$0$0            main
     00003042  _load_number_tiles                 main
     00003045  A$lcc1754058$65                    main
     00003046  A$lcc1754058$66                    main
     00003049  A$lcc1754058$67                    main
     0000304A  A$lcc1754058$68                    main
     0000304D  A$lcc1754058$69                    main
     0000304F  A$lcc1754058$73                    main
     0000304F  C$main.c$32$1_0$174                main
     00003052  A$lcc1754058$74                    main
ASxxxx Linker V03.00/V05.40 + sdld,  page 83.
Hexadecimal  [32-Bits]

Area                                    Addr        Size        Decimal Bytes (Attributes)
--------------------------------        ----        ----        ------- ----- ------------
_CODE                               00000200    0000321D =       12829. bytes (REL,CON)

      Value  Global                              Global Defined In Module
      -----  --------------------------------   ------------------------
     00003053  A$lcc1754058$75                    main
     00003056  A$lcc1754058$76                    main
     00003057  A$lcc1754058$77                    main
     0000305A  A$lcc1754058$78                    main
     0000305C  A$lcc1754058$86                    main
     0000305C  C$main.c$33$1_0$174                main
     0000305C  XG$load_number_tiles$0$0           main
     0000305D  A$lcc1754058$99                    main
     0000305D  C$main.c$35$1_0$176                main
     0000305D  C$main.c$37$1_0$176                main
     0000305D  G$main$0$0                         main
     0000305D  _main                              main
     0000305F  A$lcc1754058$100                   main
     00003061  A$lcc1754058$101                   main
     00003063  A$lcc1754058$105                   main
     00003063  C$main.c$38$1_0$176                main
     00003065  A$lcc1754058$106                   main
     00003067  A$lcc1754058$107                   main
     00003069  A$lcc1754058$111                   main
     00003069  C$main.c$47$1_1$177                main
     0000306C  A$lcc1754058$112                   main
     0000306E  A$lcc1754058$113                   main
     0000306F  A$lcc1754058$114                   main
     00003071  A$lcc1754058$118                   main
     00003071  C$main.c$49$1_1$177                main
     00003074  A$lcc1754058$122                   main
     00003074  C$main.c$50$1_1$177                main
     00003077  A$lcc1754058$126                   main
     00003077  C$main.c$53$1_2$178                main
     0000307A  A$lcc1754058$127                   main
     0000307D  A$lcc1754058$131                   main
     0000307D  C$main.c$55$1_2$178                main
     00003080  A$lcc1754058$132                   main
     00003083  A$lcc1754058$133                   main
     00003084  A$lcc1754058$134                   main
     00003085  A$lcc1754058$135                   main
     00003086  A$lcc1754058$136                   main
     00003087  A$lcc1754058$137                   main
     00003088  A$lcc1754058$138                   main
     00003089  A$lcc1754058$139                   main
     0000308A  A$lcc1754058$140                   main
     0000308D  A$lcc1754058$141                   main
     0000308F  A$lcc1754058$142                   main
     00003090  A$lcc1754058$143                   main
     00003091  A$lcc1754058$144                   main
     00003092  A$lcc1754058$145                   main
     00003093  A$lcc1754058$146                   main
     00003096  A$lcc1754058$150                   main
     00003096  C$main.c$57$1_2$178                main
     00003099  A$lcc1754058$155                   main
     00003099  C$main.c$59$1_2$178                main
ASxxxx Linker V03.00/V05.40 + sdld,  page 84.
Hexadecimal  [32-Bits]

Area                                    Addr        Size        Decimal Bytes (Attributes)
--------------------------------        ----        ----        ------- ----- ------------
_CODE                               00000200    0000321D =       12829. bytes (REL,CON)

      Value  Global                              Global Defined In Module
      -----  --------------------------------   ------------------------
     0000309C  A$lcc1754058$156                   main
     0000309D  A$lcc1754058$157                   main
     0000309E  A$lcc1754058$158                   main
     0000309F  A$lcc1754058$162                   main
     0000309F  C$main.c$61$2_2$179                main
     000030A2  A$lcc1754058$163                   main
     000030A3  A$lcc1754058$164                   main
     000030A4  A$lcc1754058$165                   main
     000030A5  A$lcc1754058$166                   main
     000030A6  A$lcc1754058$167                   main
     000030A7  A$lcc1754058$168                   main
     000030A8  A$lcc1754058$169                   main
     000030A9  A$lcc1754058$170                   main
     000030AA  A$lcc1754058$171                   main
     000030AB  A$lcc1754058$172                   main
     000030AC  A$lcc1754058$173                   main
     000030AD  A$lcc1754058$174                   main
     000030AE  A$lcc1754058$175                   main
     000030B1  A$lcc1754058$176                   main
     000030B2  A$lcc1754058$177                   main
     000030B3  A$lcc1754058$178                   main
     000030B4  A$lcc1754058$183                   main
     000030B4  C$main.c$63$2_2$179                main
     000030B7  A$lcc1754058$191                   main
     000030B7  C$main.c$65$1_2$176                main
     000030B7  XG$main$0$0                        main
     000030B9  __divsuchar                        divmod
     000030BF  __modsuchar                        divmod
     000030C8  __divuschar                        divmod
     000030D1  __moduschar                        divmod
     000030DD  __divschar                         divmod
     000030E2  __modschar                         divmod
     000030E9  __divsint                          divmod
     000030F2  __modsint                          divmod
     000030FE  __divuchar                         divmod
     00003103  __moduchar                         divmod
     0000310A  __divuint                          divmod
     00003113  __moduint                          divmod
     0000311F  .div8                              divmod
     0000311F  .mod8                              divmod
     00003127  .div16                             divmod
     00003127  .mod16                             divmod
     0000315D  .divu8                             divmod
     0000315D  .modu8                             divmod
     00003160  .divu16                            divmod
     00003160  .modu16                            divmod
     000031A0  _free                              free
     000032B0  ___sdcc_heap_init                  malloc
     000032D2  _malloc                            malloc
     000033D8  __mulsuchar                        mul
     000033DB  __muluschar                        mul
ASxxxx Linker V03.00/V05.40 + sdld,  page 85.
Hexadecimal  [32-Bits]

Area                                    Addr        Size        Decimal Bytes (Attributes)
--------------------------------        ----        ----        ------- ----- ------------
_CODE                               00000200    0000321D =       12829. bytes (REL,CON)

      Value  Global                              Global Defined In Module
      -----  --------------------------------   ------------------------
     000033E4  __mulschar                         mul
     000033EC  __mulint                           mul
     0000340B  __muluchar                         mul

ASxxxx Linker V03.00/V05.40 + sdld,  page 86.
Hexadecimal  [32-Bits]

Area                                    Addr        Size        Decimal Bytes (Attributes)
--------------------------------        ----        ----        ------- ----- ------------
_HEADER0                            00000000    00000001 =           1. bytes (ABS,CON)

      Value  Global                              Global Defined In Module
      -----  --------------------------------   ------------------------
     00000020  .call_hl                           Runtime

ASxxxx Linker V03.00/V05.40 + sdld,  page 87.
Hexadecimal  [32-Bits]

Area                                    Addr        Size        Decimal Bytes (Attributes)
--------------------------------        ----        ----        ------- ----- ------------
_HEADER1                            00000000    00000005 =           5. bytes (ABS,CON)

      Value  Global                              Global Defined In Module
      -----  --------------------------------   ------------------------
     00000028  .MemsetSmall                       Runtime

ASxxxx Linker V03.00/V05.40 + sdld,  page 88.
Hexadecimal  [32-Bits]

Area                                    Addr        Size        Decimal Bytes (Attributes)
--------------------------------        ----        ----        ------- ----- ------------
_HEADER2                            00000000    00000007 =           7. bytes (ABS,CON)

      Value  Global                              Global Defined In Module
      -----  --------------------------------   ------------------------
     00000030  .MemcpySmall                       Runtime

ASxxxx Linker V03.00/V05.40 + sdld,  page 89.
Hexadecimal  [32-Bits]

Area                                    Addr        Size        Decimal Bytes (Attributes)
--------------------------------        ----        ----        ------- ----- ------------
_HEADER3                            00000000    00000008 =           8. bytes (ABS,CON)

      Value  Global                              Global Defined In Module
      -----  --------------------------------   ------------------------
ASxxxx Linker V03.00/V05.40 + sdld,  page 90.
Hexadecimal  [32-Bits]

Area                                    Addr        Size        Decimal Bytes (Attributes)
--------------------------------        ----        ----        ------- ----- ------------
_HEADER4                            00000000    00000060 =          96. bytes (ABS,CON)

      Value  Global                              Global Defined In Module
      -----  --------------------------------   ------------------------
     00000080  .int                               Runtime
     0000008F  _wait_int_handler                  Runtime
     0000009C  __standard_VBL_handler             Runtime
     000000AB  _refresh_OAM                       Runtime
     000000CC  _set_interrupts                    Runtime

ASxxxx Linker V03.00/V05.40 + sdld,  page 91.
Hexadecimal  [32-Bits]

Area                                    Addr        Size        Decimal Bytes (Attributes)
--------------------------------        ----        ----        ------- ----- ------------
_HEADER5                            00000000    00000001 =           1. bytes (ABS,CON)

      Value  Global                              Global Defined In Module
      -----  --------------------------------   ------------------------
ASxxxx Linker V03.00/V05.40 + sdld,  page 92.
Hexadecimal  [32-Bits]

Area                                    Addr        Size        Decimal Bytes (Attributes)
--------------------------------        ----        ----        ------- ----- ------------
_HEADER6                            00000000    00000002 =           2. bytes (ABS,CON)

      Value  Global                              Global Defined In Module
      -----  --------------------------------   ------------------------
ASxxxx Linker V03.00/V05.40 + sdld,  page 93.
Hexadecimal  [32-Bits]

Area                                    Addr        Size        Decimal Bytes (Attributes)
--------------------------------        ----        ----        ------- ----- ------------
_HEADER7                            00000000    00000030 =          48. bytes (ABS,CON)

      Value  Global                              Global Defined In Module
      -----  --------------------------------   ------------------------
ASxxxx Linker V03.00/V05.40 + sdld,  page 94.
Hexadecimal  [32-Bits]

Area                                    Addr        Size        Decimal Bytes (Attributes)
--------------------------------        ----        ----        ------- ----- ------------
_HEADER8                            00000000    00000006 =           6. bytes (ABS,CON)

      Value  Global                              Global Defined In Module
      -----  --------------------------------   ------------------------
ASxxxx Linker V03.00/V05.40 + sdld,  page 95.
Hexadecimal  [32-Bits]

Area                                    Addr        Size        Decimal Bytes (Attributes)
--------------------------------        ----        ----        ------- ----- ------------
_HEADER9                            00000000    00000003 =           3. bytes (ABS,CON)

      Value  Global                              Global Defined In Module
      -----  --------------------------------   ------------------------
ASxxxx Linker V03.00/V05.40 + sdld,  page 96.
Hexadecimal  [32-Bits]

Area                                    Addr        Size        Decimal Bytes (Attributes)
--------------------------------        ----        ----        ------- ----- ------------
_HEADERa                            00000000    00000001 =           1. bytes (ABS,CON)

      Value  Global                              Global Defined In Module
      -----  --------------------------------   ------------------------
ASxxxx Linker V03.00/V05.40 + sdld,  page 97.
Hexadecimal  [32-Bits]

Area                                    Addr        Size        Decimal Bytes (Attributes)
--------------------------------        ----        ----        ------- ----- ------------
_HEADERb                            00000000    00000001 =           1. bytes (ABS,CON)

      Value  Global                              Global Defined In Module
      -----  --------------------------------   ------------------------
ASxxxx Linker V03.00/V05.40 + sdld,  page 98.
Hexadecimal  [32-Bits]

Area                                    Addr        Size        Decimal Bytes (Attributes)
--------------------------------        ----        ----        ------- ----- ------------
_HEADERc                            00000000    00000001 =           1. bytes (ABS,CON)

      Value  Global                              Global Defined In Module
      -----  --------------------------------   ------------------------
ASxxxx Linker V03.00/V05.40 + sdld,  page 99.
Hexadecimal  [32-Bits]

Area                                    Addr        Size        Decimal Bytes (Attributes)
--------------------------------        ----        ----        ------- ----- ------------
_HEADERd                            00000000    00000002 =           2. bytes (ABS,CON)

      Value  Global                              Global Defined In Module
      -----  --------------------------------   ------------------------
ASxxxx Linker V03.00/V05.40 + sdld,  page 100.
Hexadecimal  [32-Bits]

Area                                    Addr        Size        Decimal Bytes (Attributes)
--------------------------------        ----        ----        ------- ----- ------------
_HEADERe                            00000000    00000001 =           1. bytes (ABS,CON)

      Value  Global                              Global Defined In Module
      -----  --------------------------------   ------------------------
ASxxxx Linker V03.00/V05.40 + sdld,  page 101.
Hexadecimal  [32-Bits]

Area                                    Addr        Size        Decimal Bytes (Attributes)
--------------------------------        ----        ----        ------- ----- ------------
_HEADERf                            00000000    00000001 =           1. bytes (ABS,CON)

      Value  Global                              Global Defined In Module
      -----  --------------------------------   ------------------------
ASxxxx Linker V03.00/V05.40 + sdld,  page 102.
Hexadecimal  [32-Bits]

Area                                    Addr        Size        Decimal Bytes (Attributes)
--------------------------------        ----        ----        ------- ----- ------------
_HEADER10                           00000000    00000002 =           2. bytes (ABS,CON)

      Value  Global                              Global Defined In Module
      -----  --------------------------------   ------------------------
ASxxxx Linker V03.00/V05.40 + sdld,  page 103.
Hexadecimal  [32-Bits]

Area                                    Addr        Size        Decimal Bytes (Attributes)
--------------------------------        ----        ----        ------- ----- ------------
_HEADER11                           00000000    000000AB =         171. bytes (ABS,CON)

      Value  Global                              Global Defined In Module
      -----  --------------------------------   ------------------------
     00000150  .reset                             Runtime
     00000150  _reset                             Runtime
     00000157  .code_start                        Runtime
     000001B9  _exit                              Runtime
     000001BD  .wait_vbl_done                     Runtime
     000001BD  _vsync                             Runtime
     000001BD  _wait_vbl_done                     Runtime
     000001CD  .remove_VBL                        Runtime
     000001CD  _remove_VBL                        Runtime
     000001D0  .remove_int                        Runtime
     000001ED  .add_VBL                           Runtime
     000001ED  _add_VBL                           Runtime
     000001F0  .add_int                           Runtime

ASxxxx Linker V03.00/V05.40 + sdld,  page 104.
Hexadecimal  [32-Bits]

Area                                    Addr        Size        Decimal Bytes (Attributes)
--------------------------------        ----        ----        ------- ----- ------------
_HOME                               0000341D    0000012C =         300. bytes (REL,CON)

      Value  Global                              Global Defined In Module
      -----  --------------------------------   ------------------------
     0000341D  .memset_simple                     Runtime
     00003426  .memcpy_simple                     Runtime
     00003443  .display_off                       Runtime
     00003443  _display_off                       Runtime
     0000345B  _set_tile_data                     
     00003460  _set_bkg_data                      
     00003460  _set_win_data                      
     00003468  _set_sprite_data                   
     00003498  .padup                             
     00003498  _waitpadup                         
     000034A8  .jpad                              
     000034A8  _joypad                            
     000034D0  _waitpad                           
     000034D1  .wait_pad                          
     000034D8  ___sdcc_call_hl                    call_hl
     000034D9  _set_bkg_tiles                     
     000034ED  .set_xy_wtt                        SetTileMap
     000034F6  .set_xy_btt                        SetTileMap
     00003505  .set_xy_tt                         SetTileMap

ASxxxx Linker V03.00/V05.40 + sdld,  page 105.
Hexadecimal  [32-Bits]

Area                                    Addr        Size        Decimal Bytes (Attributes)
--------------------------------        ----        ----        ------- ----- ------------
_INITIALIZER                        00003549    000001E5 =         485. bytes (REL,CON)

      Value  Global                              Global Defined In Module
      -----  --------------------------------   ------------------------
     00003549  Fspr_InventoryArrow_idle$__xinit   spr_InventoryArrow_idle
     00003559  Fexample_npc$__xinit_spr_example   example_npc
     00003569  Fexample_npc$__xinit_spr_example   example_npc
     00003579  Fexample_npc$__xinit_spr_example   example_npc
     00003589  Fexample_npc$__xinit_spr_example   example_npc
     00003599  Fspr_Player_down0$__xinit_spr_Pl   spr_Player_down0
     000035A9  Fspr_Player_down0$__xinit_spr_Pl   spr_Player_down0
     000035B9  Fspr_Player_down0$__xinit_spr_Pl   spr_Player_down0
     000035C9  Fspr_Player_down0$__xinit_spr_Pl   spr_Player_down0
     000035D9  Fspr_Player_down1$__xinit_spr_Pl   spr_Player_down1
     000035E9  Fspr_Player_down1$__xinit_spr_Pl   spr_Player_down1
     000035F9  Fspr_Player_down1$__xinit_spr_Pl   spr_Player_down1
     00003609  Fspr_Player_down1$__xinit_spr_Pl   spr_Player_down1
     00003619  Fspr_Player_down2$__xinit_spr_Pl   spr_Player_down2
     00003629  Fspr_Player_down2$__xinit_spr_Pl   spr_Player_down2
     00003639  Fspr_Player_down2$__xinit_spr_Pl   spr_Player_down2
     00003649  Fspr_Player_down2$__xinit_spr_Pl   spr_Player_down2
     00003659  Fspr_Player_up0$__xinit_spr_Play   spr_Player_up0
     00003669  Fspr_Player_up0$__xinit_spr_Play   spr_Player_up0
     00003679  Fspr_Player_up0$__xinit_spr_Play   spr_Player_up0
     00003689  Fspr_Player_up0$__xinit_spr_Play   spr_Player_up0
     00003699  Fspr_Player_up1$__xinit_spr_Play   spr_Player_up1
     000036A9  Fspr_Player_up1$__xinit_spr_Play   spr_Player_up1
     000036B9  Fspr_Player_up1$__xinit_spr_Play   spr_Player_up1
     000036C9  Fspr_Player_up1$__xinit_spr_Play   spr_Player_up1
     000036D9  Fspr_Player_up2$__xinit_spr_Play   spr_Player_up2
     000036E9  Fspr_Player_up2$__xinit_spr_Play   spr_Player_up2
     000036F9  Fspr_Player_up2$__xinit_spr_Play   spr_Player_up2
     00003709  Fspr_Player_up2$__xinit_spr_Play   spr_Player_up2
     00003719  Faction$__xinit_MOVE_SPEED$0_0$0   action
     0000371A  Faction$__xinit_current_directio   action
     0000371B  Fcan_move$__xinit_can_move$0_0$0   can_move
     0000371F  Fentity$__xinit_next_entity_id$0   entity
     00003720  Fgender_selection$__xinit_GENDER   gender_selection
     00003721  Finput$__xinit_keys$0_0$0          input
     00003722  Finput$__xinit_prev_keys$0_0$0     input
     00003723  Finventory$__xinit_inventory_act   inventory
     00003724  Fload$__xinit_vram_next_index$0_   load
     00003725  Fmoney$__xinit_money$0_0$0         money
     00003727  Fmain_menu$__xinit_timer$0_0$0     main_menu
     00003729  Fmain_menu$__xinit_rate$0_0$0      main_menu
     0000372A  Fmain_menu$__xinit_show_text$0_0   main_menu
     0000372B  Fmain_menu$__xinit_seed$0_0$0      main_menu

ASxxxx Linker V03.00/V05.40 + sdld,  page 106.
Hexadecimal  [32-Bits]

Area                                    Addr        Size        Decimal Bytes (Attributes)
--------------------------------        ----        ----        ------- ----- ------------
_GSINIT                             0000372E    0000000F =          15. bytes (REL,CON)

      Value  Global                              Global Defined In Module
      -----  --------------------------------   ------------------------
     0000372E  gsinit                             Runtime

ASxxxx Linker V03.00/V05.40 + sdld,  page 107.
Hexadecimal  [32-Bits]

Area                                    Addr        Size        Decimal Bytes (Attributes)
--------------------------------        ----        ----        ------- ----- ------------
_GSFINAL                            0000373D    00000001 =           1. bytes (REL,CON)

      Value  Global                              Global Defined In Module
      -----  --------------------------------   ------------------------
ASxxxx Linker V03.00/V05.40 + sdld,  page 108.
Hexadecimal  [32-Bits]

Area                                    Addr        Size        Decimal Bytes (Attributes)
--------------------------------        ----        ----        ------- ----- ------------
_DATA                               0000C0A0    000001B7 =         439. bytes (REL,CON)

      Value  Global                              Global Defined In Module
      -----  --------------------------------   ------------------------
     0000C0A0  __cpu                              Runtime
     0000C0A1  __is_GBA                           Runtime
     0000C0A2  .mode                              Runtime
     0000C0A3  .sys_time                          Runtime
     0000C0A3  _sys_time                          Runtime
     0000C0A5  .int_0x40                          Runtime
     0000C0B1  G$animation$0_0$0                  animation
     0000C0B1  _animation                         animation
     0000C1A6  G$names$0_0$0                      name
     0000C1A6  _names                             name
     0000C1D8  G$npc_1$0_0$0                      npcs
     0000C1D8  _npc_1                             npcs
     0000C1D9  G$npc_2$0_0$0                      npcs
     0000C1D9  _npc_2                             npcs
     0000C1DA  G$option_actor$0_0$0               npcs
     0000C1DA  _option_actor                      npcs
     0000C1DB  G$humor_stats$0_0$0                npcs
     0000C1DB  _humor_stats                       npcs
     0000C1EA  G$player$0_0$0                     player
     0000C1EA  _player                            player
     0000C1EB  G$player_animations$0_0$0          player
     0000C1EB  _player_animations                 player
     0000C1EF  G$player_y_cache$0_0$0             player
     0000C1EF  _player_y_cache                    player
     0000C1F0  G$position$0_0$0                   position
     0000C1F0  _position                          position
     0000C20E  G$render$0_0$0                     render
     0000C20E  _render                            render
     0000C21D  G$scene_manager$0_0$0              scene_manager
     0000C21D  _scene_manager                     scene_manager
     0000C21F  G$GenderSelect$0_0$0               gender_select
     0000C21F  _GenderSelect                      gender_select
     0000C227  G$InventoryScene$0_0$0             inventory_scene
     0000C227  _InventoryScene                    inventory_scene
     0000C22F  G$MainMenu$0_0$0                   main_menu
     0000C22F  _MainMenu                          main_menu
     0000C237  G$CurrentMapData$0_0$0             map_data
     0000C237  _CurrentMapData                    map_data
     0000C249  G$Map_00$0_0$0                     map_00
     0000C249  _Map_00                            map_00
     0000C251  Lmain.main$game$1_1$177            main
     0000C255  ___sdcc_heap_free                  malloc
ASxxxx Linker V03.00/V05.40 + sdld,  page 109.
Hexadecimal  [32-Bits]

Area                                    Addr        Size        Decimal Bytes (Attributes)
--------------------------------        ----        ----        ------- ----- ------------
_INITIALIZED                        0000C257    000001E5 =         485. bytes (REL,CON)

      Value  Global                              Global Defined In Module
      -----  --------------------------------   ------------------------
     0000C257  G$spr_InventoryArrow_idle$0_0$0    spr_InventoryArrow_idle
     0000C257  _spr_InventoryArrow_idle           spr_InventoryArrow_idle
     0000C267  G$spr_example_NPC_00$0_0$0         example_npc
     0000C267  _spr_example_NPC_00                example_npc
     0000C277  G$spr_example_NPC_01$0_0$0         example_npc
     0000C277  _spr_example_NPC_01                example_npc
     0000C287  G$spr_example_NPC_10$0_0$0         example_npc
     0000C287  _spr_example_NPC_10                example_npc
     0000C297  G$spr_example_NPC_11$0_0$0         example_npc
     0000C297  _spr_example_NPC_11                example_npc
     0000C2A7  G$spr_Player_down0_00$0_0$0        spr_Player_down0
     0000C2A7  _spr_Player_down0_00               spr_Player_down0
     0000C2B7  G$spr_Player_down0_10$0_0$0        spr_Player_down0
     0000C2B7  _spr_Player_down0_10               spr_Player_down0
     0000C2C7  G$spr_Player_down0_01$0_0$0        spr_Player_down0
     0000C2C7  _spr_Player_down0_01               spr_Player_down0
     0000C2D7  G$spr_Player_down0_11$0_0$0        spr_Player_down0
     0000C2D7  _spr_Player_down0_11               spr_Player_down0
     0000C2E7  G$spr_Player_down1_00$0_0$0        spr_Player_down1
     0000C2E7  _spr_Player_down1_00               spr_Player_down1
     0000C2F7  G$spr_Player_down1_10$0_0$0        spr_Player_down1
     0000C2F7  _spr_Player_down1_10               spr_Player_down1
     0000C307  G$spr_Player_down1_01$0_0$0        spr_Player_down1
     0000C307  _spr_Player_down1_01               spr_Player_down1
     0000C317  G$spr_Player_down1_11$0_0$0        spr_Player_down1
     0000C317  _spr_Player_down1_11               spr_Player_down1
     0000C327  G$spr_Player_down2_00$0_0$0        spr_Player_down2
     0000C327  _spr_Player_down2_00               spr_Player_down2
     0000C337  G$spr_Player_down2_10$0_0$0        spr_Player_down2
     0000C337  _spr_Player_down2_10               spr_Player_down2
     0000C347  G$spr_Player_down2_01$0_0$0        spr_Player_down2
     0000C347  _spr_Player_down2_01               spr_Player_down2
     0000C357  G$spr_Player_down2_11$0_0$0        spr_Player_down2
     0000C357  _spr_Player_down2_11               spr_Player_down2
     0000C367  G$spr_Player_up0_00$0_0$0          spr_Player_up0
     0000C367  _spr_Player_up0_00                 spr_Player_up0
     0000C377  G$spr_Player_up0_10$0_0$0          spr_Player_up0
     0000C377  _spr_Player_up0_10                 spr_Player_up0
     0000C387  G$spr_Player_up0_01$0_0$0          spr_Player_up0
     0000C387  _spr_Player_up0_01                 spr_Player_up0
     0000C397  G$spr_Player_up0_11$0_0$0          spr_Player_up0
     0000C397  _spr_Player_up0_11                 spr_Player_up0
     0000C3A7  G$spr_Player_up1_00$0_0$0          spr_Player_up1
     0000C3A7  _spr_Player_up1_00                 spr_Player_up1
     0000C3B7  G$spr_Player_up1_10$0_0$0          spr_Player_up1
     0000C3B7  _spr_Player_up1_10                 spr_Player_up1
     0000C3C7  G$spr_Player_up1_01$0_0$0          spr_Player_up1
     0000C3C7  _spr_Player_up1_01                 spr_Player_up1
     0000C3D7  G$spr_Player_up1_11$0_0$0          spr_Player_up1
     0000C3D7  _spr_Player_up1_11                 spr_Player_up1
ASxxxx Linker V03.00/V05.40 + sdld,  page 110.
Hexadecimal  [32-Bits]

Area                                    Addr        Size        Decimal Bytes (Attributes)
--------------------------------        ----        ----        ------- ----- ------------
_INITIALIZED                        0000C257    000001E5 =         485. bytes (REL,CON)

      Value  Global                              Global Defined In Module
      -----  --------------------------------   ------------------------
     0000C3E7  G$spr_Player_up2_00$0_0$0          spr_Player_up2
     0000C3E7  _spr_Player_up2_00                 spr_Player_up2
     0000C3F7  G$spr_Player_up2_10$0_0$0          spr_Player_up2
     0000C3F7  _spr_Player_up2_10                 spr_Player_up2
     0000C407  G$spr_Player_up2_01$0_0$0          spr_Player_up2
     0000C407  _spr_Player_up2_01                 spr_Player_up2
     0000C417  G$spr_Player_up2_11$0_0$0          spr_Player_up2
     0000C417  _spr_Player_up2_11                 spr_Player_up2
     0000C427  G$MOVE_SPEED$0_0$0                 action
     0000C427  _MOVE_SPEED                        action
     0000C428  G$current_direction$0_0$0          action
     0000C428  _current_direction                 action
     0000C429  G$can_move$0_0$0                   can_move
     0000C429  _can_move                          can_move
     0000C42D  G$next_entity_id$0_0$0             entity
     0000C42D  _next_entity_id                    entity
     0000C42E  G$GENDER$0_0$0                     gender_selection
     0000C42E  _GENDER                            gender_selection
     0000C42F  G$keys$0_0$0                       input
     0000C42F  _keys                              input
     0000C430  G$prev_keys$0_0$0                  input
     0000C430  _prev_keys                         input
     0000C431  G$inventory_active$0_0$0           inventory
     0000C431  _inventory_active                  inventory
     0000C432  G$vram_next_index$0_0$0            load
     0000C432  _vram_next_index                   load
     0000C433  G$money$0_0$0                      money
     0000C433  _money                             money
     0000C435  G$timer$0_0$0                      main_menu
     0000C435  _timer                             main_menu
     0000C437  G$rate$0_0$0                       main_menu
     0000C437  _rate                              main_menu
     0000C438  G$show_text$0_0$0                  main_menu
     0000C438  _show_text                         main_menu
     0000C439  G$seed$0_0$0                       main_menu
     0000C439  _seed                              main_menu
     0000C43B  __map_tile_offset                  SetTileMap
ASxxxx Linker V03.00/V05.40 + sdld,  page 111.
Hexadecimal  [32-Bits]

Area                                    Addr        Size        Decimal Bytes (Attributes)
--------------------------------        ----        ----        ------- ----- ------------
_HEAP                               0000C43C    000007FF =        2047. bytes (REL,CON)

      Value  Global                              Global Defined In Module
      -----  --------------------------------   ------------------------
     0000C43C  ___sdcc_heap                       

ASxxxx Linker V03.00/V05.40 + sdld,  page 112.
Hexadecimal  [32-Bits]

Area                                    Addr        Size        Decimal Bytes (Attributes)
--------------------------------        ----        ----        ------- ----- ------------
_HEAP_END                           0000CC3B    00000001 =           1. bytes (REL,CON)

      Value  Global                              Global Defined In Module
      -----  --------------------------------   ------------------------
     0000CC3B  ___sdcc_heap_end                   

ASxxxx Linker V03.00/V05.40 + sdld,  page 113.
Hexadecimal  [32-Bits]

Area                                    Addr        Size        Decimal Bytes (Attributes)
--------------------------------        ----        ----        ------- ----- ------------
_HRAM                               0000FF80    00000013 =          19. bytes (REL,CON)

      Value  Global                              Global Defined In Module
      -----  --------------------------------   ------------------------
     0000FF80  .refresh_OAM                       Runtime
     0000FF90  __current_bank                     Runtime
     0000FF91  __vbl_done                         Runtime
     0000FF92  __shadow_OAM_base                  Runtime

ASxxxx Linker V03.00/V05.40 + sdld,  page 114.

Files Linked                              [ module(s) ]

C:\Program Files\GBDK\lib/gb/crt0.o       [ Runtime ]
C:\Users\Bau_M\AppData\Local\Temp/lcc175400.o
                                          [ chars ]
C:\Users\Bau_M\AppData\Local\Temp/lcc175401.o
                                          [ numbers ]
C:\Users\Bau_M\AppData\Local\Temp/lcc175402.o
                                          [ gender_select_tilemap ]
C:\Users\Bau_M\AppData\Local\Temp/lcc175403.o
                                          [ gender_select_tileset ]
C:\Users\Bau_M\AppData\Local\Temp/lcc175404.o
                                          [ inventory_bkg ]
C:\Users\Bau_M\AppData\Local\Temp/lcc175405.o
                                          [ bkg_MainMenu ]
C:\Users\Bau_M\AppData\Local\Temp/lcc175406.o
                                          [ map_example ]
C:\Users\Bau_M\AppData\Local\Temp/lcc175407.o
                                          [ template_tilemap ]
C:\Users\Bau_M\AppData\Local\Temp/lcc175408.o
                                          [ template_tileset ]
C:\Users\Bau_M\AppData\Local\Temp/lcc175409.o
                                          [ spr_InventoryArrow_idle ]
C:\Users\Bau_M\AppData\Local\Temp/lcc1754010.o
                                          [ spr_Branch ]
C:\Users\Bau_M\AppData\Local\Temp/lcc1754011.o
                                          [ example_npc ]
C:\Users\Bau_M\AppData\Local\Temp/lcc1754012.o
                                          [ spr_Player_down0 ]
C:\Users\Bau_M\AppData\Local\Temp/lcc1754013.o
                                          [ spr_Player_down1 ]
C:\Users\Bau_M\AppData\Local\Temp/lcc1754014.o
                                          [ spr_Player_down2 ]
C:\Users\Bau_M\AppData\Local\Temp/lcc1754015.o
                                          [ spr_Player_up0 ]
C:\Users\Bau_M\AppData\Local\Temp/lcc1754016.o
                                          [ spr_Player_up1 ]
C:\Users\Bau_M\AppData\Local\Temp/lcc1754017.o
                                          [ spr_Player_up2 ]
C:\Users\Bau_M\AppData\Local\Temp/lcc1754018.o
                                          [ action ]
C:\Users\Bau_M\AppData\Local\Temp/lcc1754019.o
                                          [ animation ]
C:\Users\Bau_M\AppData\Local\Temp/lcc1754020.o
                                          [ can_move ]
C:\Users\Bau_M\AppData\Local\Temp/lcc1754021.o
                                          [ char_to_tile ]
C:\Users\Bau_M\AppData\Local\Temp/lcc1754022.o
                                          [ draw ]
C:\Users\Bau_M\AppData\Local\Temp/lcc1754023.o
                                          [ entity ]
C:\Users\Bau_M\AppData\Local\Temp/lcc1754024.o
                                          [ gender_selection ]
C:\Users\Bau_M\AppData\Local\Temp/lcc1754025.o
                                          [ global_action ]
C:\Users\Bau_M\AppData\Local\Temp/lcc1754026.o
                                          [ input ]
C:\Users\Bau_M\AppData\Local\Temp/lcc1754027.o
                                          [ inventory ]
C:\Users\Bau_M\AppData\Local\Temp/lcc1754028.o
                                          [ inventory_input ]
C:\Users\Bau_M\AppData\Local\Temp/lcc1754029.o
                                          [ load ]
C:\Users\Bau_M\AppData\Local\Temp/lcc1754030.o
                                          [ map_scenes ]
C:\Users\Bau_M\AppData\Local\Temp/lcc1754031.o
                                          [ money ]
C:\Users\Bau_M\AppData\Local\Temp/lcc1754032.o
                                          [ name ]
C:\Users\Bau_M\AppData\Local\Temp/lcc1754033.o
                                          [ npcs ]
C:\Users\Bau_M\AppData\Local\Temp/lcc1754034.o
                                          [ player ]
C:\Users\Bau_M\AppData\Local\Temp/lcc1754035.o
                                          [ position ]
C:\Users\Bau_M\AppData\Local\Temp/lcc1754036.o
                                          [ render ]
C:\Users\Bau_M\AppData\Local\Temp/lcc1754037.o
                                          [ scene ]
C:\Users\Bau_M\AppData\Local\Temp/lcc1754038.o
                                          [ scene_manager ]
C:\Users\Bau_M\AppData\Local\Temp/lcc1754039.o
                                          [ gender_select ]
C:\Users\Bau_M\AppData\Local\Temp/lcc1754040.o
                                          [ gender_select_init ]
C:\Users\Bau_M\AppData\Local\Temp/lcc1754041.o
                                          [ gender_select_update ]
C:\Users\Bau_M\AppData\Local\Temp/lcc1754042.o
                                          [ inventory_scene ]
C:\Users\Bau_M\AppData\Local\Temp/lcc1754043.o
                                          [ inventory_scene_init ]
C:\Users\Bau_M\AppData\Local\Temp/lcc1754044.o
                                          [ inventory_scene_update ]
C:\Users\Bau_M\AppData\Local\Temp/lcc1754045.o
                                          [ main_menu ]
C:\Users\Bau_M\AppData\Local\Temp/lcc1754046.o
                                          [ main_menu_init ]
C:\Users\Bau_M\AppData\Local\Temp/lcc1754047.o
                                          [ main_menu_init_stats ]
C:\Users\Bau_M\AppData\Local\Temp/lcc1754048.o
                                          [ main_menu_input ]
C:\Users\Bau_M\AppData\Local\Temp/lcc1754049.o
                                          [ main_menu_update ]
C:\Users\Bau_M\AppData\Local\Temp/lcc1754050.o
                                          [ clean_text ]
C:\Users\Bau_M\AppData\Local\Temp/lcc1754051.o
                                          [ map_collision ]
C:\Users\Bau_M\AppData\Local\Temp/lcc1754052.o
                                          [ map_data ]
C:\Users\Bau_M\AppData\Local\Temp/lcc1754053.o
                                          [ map_00 ]
C:\Users\Bau_M\AppData\Local\Temp/lcc1754054.o
                                          [ map_00_collision ]
C:\Users\Bau_M\AppData\Local\Temp/lcc1754055.o
                                          [ map_00_init ]
C:\Users\Bau_M\AppData\Local\Temp/lcc1754056.o
                                          [ map_00_init_npc ]
C:\Users\Bau_M\AppData\Local\Temp/lcc1754057.o
                                          [ map_00_update ]
C:\Users\Bau_M\AppData\Local\Temp/lcc1754058.o
                                          [ main ]


Libraries Linked                          [ object file ]

C:\Program Files\GBDK\lib/gb/gb.lib       [ sfr.o ]
C:\Program Files\GBDK\lib/sm83/sm83.lib   [ div.o ]
C:\Program Files\GBDK\lib/sm83/sm83.lib   [ free.o ]
C:\Program Files\GBDK\lib/sm83/sm83.lib   [ malloc.o ]
C:\Program Files\GBDK\lib/gb/gb.lib       [ set_data.o ]
C:\Program Files\GBDK\lib/sm83/sm83.lib   [ mul.o ]
C:\Program Files\GBDK\lib/gb/gb.lib       [ pad.o ]
C:\Program Files\GBDK\lib/sm83/sm83.lib   [ __sdcc_call_hl.o ]
C:\Program Files\GBDK\lib/gb/gb.lib       [ heap.o ]
C:\Program Files\GBDK\lib/gb/gb.lib       [ set_bk_t.o ]
C:\Program Files\GBDK\lib/gb/gb.lib       [ set_xy_t.o ]

ASxxxx Linker V03.00/V05.40 + sdld,  page 115.

User Base Address Definitions

_DATA=0xC0A0
_CODE=0x0200
_HRAM=0xFF80
ASxxxx Linker V03.00/V05.40 + sdld,  page 116.

User Global Definitions

_shadow_OAM=0xC000
.STACK=0xE000

