ASxxxx Linker V03.00/V05.40 + sdld,  page 1.
Hexadecimal  [32-Bits]

Area                                    Addr        Size        Decimal Bytes (Attributes)
--------------------------------        ----        ----        ------- ----- ------------
.  .ABS.                            00000000    00000000 =           0. bytes (ABS,CON)

      Value  Global                              Global Defined In Module
      -----  --------------------------------   ------------------------
     00000000  .__.ABS.                           SetTileMap
     00000000  _rMBC7_SRAM_ENABLE_1               
     00000000  _rRAMG                             
     00000000  l__BASE                         
     00000000  l__BSS                          
     00000000  l__CABS                         
     00000000  l__CODE_0                       
     00000000  l__DABS                         
     00000000  l__HEADER                       
     00000000  l__LIT                          
     00000000  s__CABS                         
     00000000  s__DABS                         
     00000000  s__HEADER                       
     00000000  s__HEADER0                      
     00000000  s__HEADER1                      
     00000000  s__HEADER10                     
     00000000  s__HEADER11                     
     00000000  s__HEADER2                      
     00000000  s__HEADER3                      
     00000000  s__HEADER4                      
     00000000  s__HEADER5                      
     00000000  s__HEADER6                      
     00000000  s__HEADER7                      
     00000000  s__HEADER8                      
     00000000  s__HEADER9                      
     00000000  s__HEADERa                      
     00000000  s__HEADERb                      
     00000000  s__HEADERc                      
     00000000  s__HEADERd                      
     00000000  s__HEADERe                      
     00000000  s__HEADERf                      
     00000001  l__GSFINAL                      
     00000001  l__HEADER0                      
     00000001  l__HEADER5                      
     00000001  l__HEADERa                      
     00000001  l__HEADERb                      
     00000001  l__HEADERc                      
     00000001  l__HEADERe                      
     00000001  l__HEADERf                      
     00000001  l__HEAP_END                     
     00000002  l__HEADER10                     
     00000002  l__HEADER6                      
     00000002  l__HEADERd                      
     00000003  l__HEADER9                      
     00000005  l__HEADER1                      
     00000006  l__HEADER8                      
     00000007  l__HEADER2                      
     00000008  l__HEADER3                      
     0000000F  l__GSINIT                       
     00000013  l__HRAM                         
ASxxxx Linker V03.00/V05.40 + sdld,  page 2.
Hexadecimal  [32-Bits]

Area                                    Addr        Size        Decimal Bytes (Attributes)
--------------------------------        ----        ----        ------- ----- ------------
.  .ABS.                            00000000    00000000 =           0. bytes (ABS,CON)

      Value  Global                              Global Defined In Module
      -----  --------------------------------   ------------------------
     00000030  l__HEADER7                      
     00000060  l__HEADER4                      
     000000AB  l__HEADER11                     
     0000012C  l__HOME                         
     00000200  s__CODE                         
     00000436  l__INITIALIZED                  
     00000436  l__INITIALIZER                  
     0000045C  l__DATA                         
     000007FF  l__HEAP                         
     00001560  l__CODE_4                       
     00001B90  l__CODE_1                       
     00001EFB  l__CODE_2                       
     00002000  _rROMB0                            
     00003000  _rROMB1                            
     000035F9  l__CODE                         
     0000371C  l__CODE_3                       
     000037F9  s__HOME                         
     00003925  s__BASE                         
     00003925  s__CODE_0                       
     00003925  s__INITIALIZER                  
     00003925  s__LIT                          
     00003D5B  s__GSINIT                       
     00003D6A  s__GSFINAL                      
     00004000  _rMBC7_SRAM_ENABLE_2               
     00004000  _rRAMB                             
     00008000  __VRAM                             
     00008000  __VRAM8000                         
     00008800  __VRAM8800                         
     00009000  __VRAM9000                         
     00009800  __SCRN0                            
     00009C00  __SCRN1                            
     0000A000  __SRAM                             
     0000A000  _rMBC7_LATCH_1                     
     0000A010  _rMBC7_LATCH_2                     
     0000A020  _rMBC7_ACCEL_X_LO                  
     0000A030  _rMBC7_ACCEL_X_HI                  
     0000A040  _rMBC7_ACCEL_Y_LO                  
     0000A050  _rMBC7_ACCEL_Y_HI                  
     0000C000  __RAM                              
     0000C000  _shadow_OAM                     
     0000C0A0  s__DATA                         
     0000C4FC  s__BSS                          
     0000C4FC  s__INITIALIZED                  
     0000C932  s__HEAP                         
     0000D000  __RAMBANK                          
     0000D131  s__HEAP_END                     
     0000E000  .STACK                          
     0000FE00  __OAMRAM                           
     0000FF00  _P1_REG                            
     0000FF00  __IO                               
     0000FF01  _SB_REG                            
ASxxxx Linker V03.00/V05.40 + sdld,  page 3.
Hexadecimal  [32-Bits]

Area                                    Addr        Size        Decimal Bytes (Attributes)
--------------------------------        ----        ----        ------- ----- ------------
.  .ABS.                            00000000    00000000 =           0. bytes (ABS,CON)

      Value  Global                              Global Defined In Module
      -----  --------------------------------   ------------------------
     0000FF02  _SC_REG                            
     0000FF04  _DIV_REG                           
     0000FF05  _TIMA_REG                          
     0000FF06  _TMA_REG                           
     0000FF07  _TAC_REG                           
     0000FF0F  _IF_REG                            
     0000FF10  _NR10_REG                          
     0000FF11  _NR11_REG                          
     0000FF12  _NR12_REG                          
     0000FF13  _NR13_REG                          
     0000FF14  _NR14_REG                          
     0000FF16  _NR21_REG                          
     0000FF17  _NR22_REG                          
     0000FF18  _NR23_REG                          
     0000FF19  _NR24_REG                          
     0000FF1A  _NR30_REG                          
     0000FF1B  _NR31_REG                          
     0000FF1C  _NR32_REG                          
     0000FF1D  _NR33_REG                          
     0000FF1E  _NR34_REG                          
     0000FF20  _NR41_REG                          
     0000FF21  _NR42_REG                          
     0000FF22  _NR43_REG                          
     0000FF23  _NR44_REG                          
     0000FF24  _NR50_REG                          
     0000FF25  _NR51_REG                          
     0000FF26  _NR52_REG                          
     0000FF30  _AUD3WAVE                          
     0000FF30  _PCM_SAMPLE                        
     0000FF30  __AUD3WAVERAM                      
     0000FF40  _LCDC_REG                          
     0000FF41  _STAT_REG                          
     0000FF42  _SCY_REG                           
     0000FF43  _SCX_REG                           
     0000FF44  _LY_REG                            
     0000FF45  _LYC_REG                           
     0000FF46  _DMA_REG                           
     0000FF47  _BGP_REG                           
     0000FF48  _OBP0_REG                          
     0000FF49  _OBP1_REG                          
     0000FF4A  _WY_REG                            
     0000FF4B  _WX_REG                            
     0000FF4D  _KEY1_REG                          
     0000FF4F  _VBK_REG                           
     0000FF51  _HDMA1_REG                         
     0000FF52  _HDMA2_REG                         
     0000FF53  _HDMA3_REG                         
     0000FF54  _HDMA4_REG                         
     0000FF55  _HDMA5_REG                         
     0000FF56  _RP_REG                            
     0000FF68  _BCPS_REG                          
ASxxxx Linker V03.00/V05.40 + sdld,  page 4.
Hexadecimal  [32-Bits]

Area                                    Addr        Size        Decimal Bytes (Attributes)
--------------------------------        ----        ----        ------- ----- ------------
.  .ABS.                            00000000    00000000 =           0. bytes (ABS,CON)

      Value  Global                              Global Defined In Module
      -----  --------------------------------   ------------------------
     0000FF69  _BCPD_REG                          
     0000FF6A  _OCPS_REG                          
     0000FF6B  _OCPD_REG                          
     0000FF70  _SVBK_REG                          
     0000FF76  _PCM12_REG                         
     0000FF77  _PCM34_REG                         
     0000FF80  __HRAM                             
     0000FF80  s__HRAM                         
     0000FFFF  _IE_REG                            
     00014000  s__CODE_1                       
     00024000  s__CODE_2                       
     00034000  s__CODE_3                       
     00044000  s__CODE_4                       
ASxxxx Linker V03.00/V05.40 + sdld,  page 5.
Hexadecimal  [32-Bits]

Area                                    Addr        Size        Decimal Bytes (Attributes)
--------------------------------        ----        ----        ------- ----- ------------
_CODE                               00000200    000035F9 =       13817. bytes (REL,CON)

      Value  Global                              Global Defined In Module
      -----  --------------------------------   ------------------------
     00000200  A$action$59                        action
     00000200  C$action.c$11$0_0$171              action
     00000200  G$move_up$0$0                      action
     00000200  _move_up                           action
     00000202  A$action$60                        action
     00000204  A$action$61                        action
     00000205  A$action$65                        action
     00000205  C$action.c$13$2_0$172              action
     00000208  A$action$66                        action
     0000020A  A$action$70                        action
     0000020A  C$action.c$14$2_0$172              action
     0000020C  A$action$74                        action
     0000020C  C$action.c$16$1_0$171              action
     0000020E  A$action$75                        action
     0000020F  A$action$76                        action
     00000210  A$action$77                        action
     00000212  A$action$78                        action
     00000213  A$action$79                        action
     00000215  A$action$80                        action
     00000217  A$action$81                        action
     00000218  A$action$82                        action
     00000219  A$action$83                        action
     0000021A  A$action$84                        action
     0000021B  A$action$85                        action
     0000021C  A$action$86                        action
     0000021D  A$action$87                        action
     00000220  A$action$88                        action
     00000221  A$action$89                        action
     00000222  A$action$90                        action
     00000223  A$action$91                        action
     00000224  A$action$92                        action
     00000226  A$action$93                        action
     00000227  A$action$94                        action
     00000228  A$action$95                        action
     00000229  A$action$96                        action
     0000022A  A$action$97                        action
     0000022B  A$action$98                        action
     0000022C  A$action$99                        action
     0000022D  A$action$100                       action
     0000022F  A$action$101                       action
     00000230  A$action$102                       action
     00000231  A$action$103                       action
     00000232  A$action$104                       action
     00000233  A$action$105                       action
     00000234  A$action$106                       action
     00000235  A$action$107                       action
     00000236  A$action$108                       action
     00000237  A$action$109                       action
     00000238  A$action$110                       action
     00000239  A$action$111                       action
ASxxxx Linker V03.00/V05.40 + sdld,  page 6.
Hexadecimal  [32-Bits]

Area                                    Addr        Size        Decimal Bytes (Attributes)
--------------------------------        ----        ----        ------- ----- ------------
_CODE                               00000200    000035F9 =       13817. bytes (REL,CON)

      Value  Global                              Global Defined In Module
      -----  --------------------------------   ------------------------
     0000023A  A$action$112                       action
     0000023B  A$action$113                       action
     0000023C  A$action$114                       action
     0000023D  A$action$115                       action
     0000023F  A$action$116                       action
     00000240  A$action$117                       action
     00000241  A$action$118                       action
     00000242  A$action$119                       action
     00000243  A$action$120                       action
     00000244  A$action$124                       action
     00000244  C$action.c$17$1_0$171              action
     00000245  A$action$125                       action
     00000246  A$action$126                       action
     00000249  A$action$127                       action
     0000024A  A$action$128                       action
     0000024C  A$action$129                       action
     0000024D  A$action$130                       action
     0000024E  A$action$131                       action
     0000024F  A$action$132                       action
     00000251  A$action$133                       action
     00000252  A$action$134                       action
     00000253  A$action$139                       action
     00000255  A$action$144                       action
     00000255  C$action.c$18$1_0$171              action
     00000255  XG$move_up$0$0                     action
     00000256  A$action$154                       action
     00000256  C$action.c$20$1_0$174              action
     00000256  G$move_down$0$0                    action
     00000256  _move_down                         action
     00000258  A$action$155                       action
     0000025A  A$action$156                       action
     0000025B  A$action$160                       action
     0000025B  C$action.c$22$2_0$175              action
     0000025E  A$action$161                       action
     00000260  A$action$165                       action
     00000260  C$action.c$23$2_0$175              action
     00000262  A$action$169                       action
     00000262  C$action.c$25$1_0$174              action
     00000264  A$action$170                       action
     00000265  A$action$171                       action
     00000266  A$action$172                       action
     00000268  A$action$173                       action
     00000269  A$action$174                       action
     0000026B  A$action$175                       action
     0000026D  A$action$176                       action
     0000026E  A$action$177                       action
     0000026F  A$action$178                       action
     00000270  A$action$179                       action
     00000271  A$action$180                       action
     00000272  A$action$181                       action
     00000273  A$action$182                       action
ASxxxx Linker V03.00/V05.40 + sdld,  page 7.
Hexadecimal  [32-Bits]

Area                                    Addr        Size        Decimal Bytes (Attributes)
--------------------------------        ----        ----        ------- ----- ------------
_CODE                               00000200    000035F9 =       13817. bytes (REL,CON)

      Value  Global                              Global Defined In Module
      -----  --------------------------------   ------------------------
     00000276  A$action$183                       action
     00000277  A$action$184                       action
     00000278  A$action$185                       action
     00000279  A$action$186                       action
     0000027A  A$action$187                       action
     0000027C  A$action$188                       action
     0000027D  A$action$189                       action
     0000027E  A$action$190                       action
     0000027F  A$action$191                       action
     00000280  A$action$192                       action
     00000281  A$action$193                       action
     00000282  A$action$194                       action
     00000283  A$action$195                       action
     00000285  A$action$196                       action
     00000286  A$action$197                       action
     00000287  A$action$198                       action
     00000288  A$action$199                       action
     00000289  A$action$200                       action
     0000028A  A$action$201                       action
     0000028B  A$action$202                       action
     0000028C  A$action$203                       action
     0000028D  A$action$204                       action
     0000028E  A$action$205                       action
     0000028F  A$action$206                       action
     00000290  A$action$207                       action
     00000291  A$action$208                       action
     00000292  A$action$209                       action
     00000293  A$action$210                       action
     00000294  A$action$211                       action
     00000295  A$action$212                       action
     00000296  A$action$216                       action
     00000296  C$action.c$26$1_0$174              action
     00000299  A$action$217                       action
     0000029B  A$action$218                       action
     0000029C  A$action$219                       action
     0000029E  A$action$220                       action
     0000029F  A$action$221                       action
     000002A0  A$action$222                       action
     000002A1  A$action$223                       action
     000002A2  A$action$224                       action
     000002A3  A$action$229                       action
     000002A5  A$action$234                       action
     000002A5  C$action.c$27$1_0$174              action
     000002A5  XG$move_down$0$0                   action
     000002A6  A$action$244                       action
     000002A6  C$action.c$29$1_0$177              action
     000002A6  G$move_left$0$0                    action
     000002A6  _move_left                         action
     000002A8  A$action$245                       action
     000002AA  A$action$246                       action
     000002AB  A$action$250                       action
ASxxxx Linker V03.00/V05.40 + sdld,  page 8.
Hexadecimal  [32-Bits]

Area                                    Addr        Size        Decimal Bytes (Attributes)
--------------------------------        ----        ----        ------- ----- ------------
_CODE                               00000200    000035F9 =       13817. bytes (REL,CON)

      Value  Global                              Global Defined In Module
      -----  --------------------------------   ------------------------
     000002AB  C$action.c$31$2_0$178              action
     000002AE  A$action$251                       action
     000002B0  A$action$255                       action
     000002B0  C$action.c$32$2_0$178              action
     000002B2  A$action$259                       action
     000002B2  C$action.c$34$1_0$177              action
     000002B4  A$action$260                       action
     000002B5  A$action$261                       action
     000002B6  A$action$262                       action
     000002B8  A$action$263                       action
     000002B9  A$action$264                       action
     000002BB  A$action$265                       action
     000002BD  A$action$266                       action
     000002BE  A$action$267                       action
     000002BF  A$action$268                       action
     000002C0  A$action$269                       action
     000002C1  A$action$270                       action
     000002C2  A$action$271                       action
     000002C3  A$action$272                       action
     000002C6  A$action$273                       action
     000002C7  A$action$274                       action
     000002C8  A$action$275                       action
     000002C9  A$action$276                       action
     000002CA  A$action$277                       action
     000002CC  A$action$278                       action
     000002CD  A$action$279                       action
     000002CE  A$action$280                       action
     000002CF  A$action$281                       action
     000002D0  A$action$282                       action
     000002D1  A$action$283                       action
     000002D2  A$action$284                       action
     000002D3  A$action$285                       action
     000002D5  A$action$286                       action
     000002D6  A$action$287                       action
     000002D7  A$action$288                       action
     000002D8  A$action$289                       action
     000002D9  A$action$290                       action
     000002DA  A$action$291                       action
     000002DB  A$action$292                       action
     000002DC  A$action$293                       action
     000002DD  A$action$294                       action
     000002DE  A$action$295                       action
     000002DF  A$action$296                       action
     000002E0  A$action$297                       action
     000002E1  A$action$298                       action
     000002E2  A$action$299                       action
     000002E3  A$action$300                       action
     000002E5  A$action$301                       action
     000002E6  A$action$302                       action
     000002E7  A$action$303                       action
     000002E8  A$action$304                       action
ASxxxx Linker V03.00/V05.40 + sdld,  page 9.
Hexadecimal  [32-Bits]

Area                                    Addr        Size        Decimal Bytes (Attributes)
--------------------------------        ----        ----        ------- ----- ------------
_CODE                               00000200    000035F9 =       13817. bytes (REL,CON)

      Value  Global                              Global Defined In Module
      -----  --------------------------------   ------------------------
     000002E9  A$action$305                       action
     000002EA  A$action$309                       action
     000002EA  C$action.c$35$1_0$177              action
     000002EB  A$action$310                       action
     000002EC  A$action$311                       action
     000002EF  A$action$312                       action
     000002F0  A$action$313                       action
     000002F2  A$action$314                       action
     000002F3  A$action$315                       action
     000002F4  A$action$316                       action
     000002F5  A$action$317                       action
     000002F7  A$action$318                       action
     000002F8  A$action$319                       action
     000002F9  A$action$324                       action
     000002FB  A$action$329                       action
     000002FB  C$action.c$36$1_0$177              action
     000002FB  XG$move_left$0$0                   action
     000002FC  A$action$339                       action
     000002FC  C$action.c$38$1_0$180              action
     000002FC  G$move_right$0$0                   action
     000002FC  _move_right                        action
     000002FE  A$action$340                       action
     00000300  A$action$341                       action
     00000301  A$action$345                       action
     00000301  C$action.c$40$2_0$181              action
     00000304  A$action$346                       action
     00000306  A$action$350                       action
     00000306  C$action.c$41$2_0$181              action
     00000308  A$action$354                       action
     00000308  C$action.c$43$1_0$180              action
     0000030A  A$action$355                       action
     0000030B  A$action$356                       action
     0000030C  A$action$357                       action
     0000030E  A$action$358                       action
     0000030F  A$action$359                       action
     00000311  A$action$360                       action
     00000313  A$action$361                       action
     00000314  A$action$362                       action
     00000315  A$action$363                       action
     00000316  A$action$364                       action
     00000317  A$action$365                       action
     00000318  A$action$366                       action
     00000319  A$action$367                       action
     0000031C  A$action$368                       action
     0000031D  A$action$369                       action
     0000031E  A$action$370                       action
     0000031F  A$action$371                       action
     00000320  A$action$372                       action
     00000322  A$action$373                       action
     00000323  A$action$374                       action
     00000324  A$action$375                       action
ASxxxx Linker V03.00/V05.40 + sdld,  page 10.
Hexadecimal  [32-Bits]

Area                                    Addr        Size        Decimal Bytes (Attributes)
--------------------------------        ----        ----        ------- ----- ------------
_CODE                               00000200    000035F9 =       13817. bytes (REL,CON)

      Value  Global                              Global Defined In Module
      -----  --------------------------------   ------------------------
     00000325  A$action$376                       action
     00000326  A$action$377                       action
     00000327  A$action$378                       action
     00000328  A$action$379                       action
     00000329  A$action$380                       action
     0000032B  A$action$381                       action
     0000032C  A$action$382                       action
     0000032D  A$action$383                       action
     0000032E  A$action$384                       action
     0000032F  A$action$385                       action
     00000330  A$action$386                       action
     00000331  A$action$387                       action
     00000332  A$action$388                       action
     00000333  A$action$389                       action
     00000334  A$action$390                       action
     00000335  A$action$391                       action
     00000336  A$action$392                       action
     00000337  A$action$393                       action
     00000338  A$action$394                       action
     00000339  A$action$395                       action
     0000033A  A$action$396                       action
     0000033B  A$action$397                       action
     0000033C  A$action$401                       action
     0000033C  C$action.c$44$1_0$180              action
     0000033D  A$action$402                       action
     00000340  A$action$403                       action
     00000342  A$action$404                       action
     00000343  A$action$405                       action
     00000345  A$action$406                       action
     00000346  A$action$407                       action
     00000347  A$action$408                       action
     00000348  A$action$409                       action
     00000349  A$action$410                       action
     0000034A  A$action$411                       action
     0000034B  A$action$416                       action
     0000034D  A$action$421                       action
     0000034D  C$action.c$45$1_0$180              action
     0000034D  XG$move_right$0$0                  action
     0000034E  A$animation$59                     animation
     0000034E  C$animation.c$7$0_0$137            animation
     0000034E  G$init_animation$0$0               animation
     0000034E  _init_animation                    animation
     00000350  A$animation$60                     animation
     00000352  A$animation$61                     animation
     00000353  A$animation$62                     animation
     00000354  A$animation$63                     animation
     00000355  A$animation$64                     animation
     00000356  A$animation$65                     animation
     00000357  A$animation$69                     animation
     00000357  C$animation.c$12$1_0$137           animation
     00000359  A$animation$70                     animation
ASxxxx Linker V03.00/V05.40 + sdld,  page 11.
Hexadecimal  [32-Bits]

Area                                    Addr        Size        Decimal Bytes (Attributes)
--------------------------------        ----        ----        ------- ----- ------------
_CODE                               00000200    000035F9 =       13817. bytes (REL,CON)

      Value  Global                              Global Defined In Module
      -----  --------------------------------   ------------------------
     0000035A  A$animation$71                     animation
     0000035B  A$animation$72                     animation
     0000035C  A$animation$73                     animation
     0000035D  A$animation$74                     animation
     0000035E  A$animation$75                     animation
     0000035F  A$animation$76                     animation
     00000361  A$animation$77                     animation
     00000363  A$animation$78                     animation
     00000364  A$animation$79                     animation
     00000365  A$animation$80                     animation
     00000366  A$animation$81                     animation
     00000367  A$animation$82                     animation
     00000368  A$animation$83                     animation
     00000369  A$animation$87                     animation
     00000369  C$animation.c$14$1_0$137           animation
     0000036A  A$animation$88                     animation
     0000036B  A$animation$89                     animation
     0000036C  A$animation$90                     animation
     0000036E  A$animation$91                     animation
     0000036F  A$animation$92                     animation
     00000370  A$animation$96                     animation
     00000370  C$animation.c$15$1_0$137           animation
     00000371  A$animation$97                     animation
     00000372  A$animation$98                     animation
     00000373  A$animation$99                     animation
     00000374  A$animation$100                    animation
     00000375  A$animation$101                    animation
     00000376  A$animation$102                    animation
     00000378  A$animation$103                    animation
     00000379  A$animation$104                    animation
     0000037A  A$animation$105                    animation
     0000037B  A$animation$109                    animation
     0000037B  C$animation.c$16$1_0$137           animation
     0000037E  A$animation$110                    animation
     0000037F  A$animation$111                    animation
     00000381  A$animation$115                    animation
     00000381  C$animation.c$17$1_0$137           animation
     00000382  A$animation$116                    animation
     00000383  A$animation$117                    animation
     00000384  A$animation$118                    animation
     00000385  A$animation$119                    animation
     00000387  A$animation$123                    animation
     00000387  C$animation.c$18$1_0$137           animation
     0000038A  A$animation$124                    animation
     0000038B  A$animation$125                    animation
     0000038C  A$animation$126                    animation
     0000038E  A$animation$127                    animation
     0000038F  A$animation$128                    animation
     00000390  A$animation$129                    animation
     00000391  A$animation$133                    animation
     00000391  C$animation.c$21$1_0$137           animation
ASxxxx Linker V03.00/V05.40 + sdld,  page 12.
Hexadecimal  [32-Bits]

Area                                    Addr        Size        Decimal Bytes (Attributes)
--------------------------------        ----        ----        ------- ----- ------------
_CODE                               00000200    000035F9 =       13817. bytes (REL,CON)

      Value  Global                              Global Defined In Module
      -----  --------------------------------   ------------------------
     00000392  A$animation$134                    animation
     00000393  A$animation$135                    animation
     00000394  A$animation$136                    animation
     00000395  A$animation$137                    animation
     00000397  A$animation$138                    animation
     00000398  A$animation$139                    animation
     00000399  A$animation$140                    animation
     0000039A  A$animation$141                    animation
     0000039B  A$animation$142                    animation
     0000039E  A$animation$143                    animation
     0000039F  A$animation$144                    animation
     000003A0  A$animation$145                    animation
     000003A1  A$animation$146                    animation
     000003A3  A$animation$147                    animation
     000003A4  A$animation$148                    animation
     000003A5  A$animation$149                    animation
     000003A6  A$animation$150                    animation
     000003A8  A$animation$151                    animation
     000003A9  A$animation$152                    animation
     000003AC  A$animation$153                    animation
     000003AD  A$animation$154                    animation
     000003AE  A$animation$155                    animation
     000003AF  A$animation$156                    animation
     000003B0  A$animation$160                    animation
     000003B0  C$animation.c$24$2_0$137           animation
     000003B2  A$animation$162                    animation
     000003B3  A$animation$163                    animation
     000003B4  A$animation$164                    animation
     000003B5  A$animation$165                    animation
     000003B6  A$animation$166                    animation
     000003B8  A$animation$167                    animation
     000003B9  A$animation$168                    animation
     000003BB  A$animation$173                    animation
     000003BB  C$animation.c$32$2_0$140           animation
     000003BD  A$animation$174                    animation
     000003BE  A$animation$175                    animation
     000003BF  A$animation$176                    animation
     000003C0  A$animation$177                    animation
     000003C3  A$animation$178                    animation
     000003C4  A$animation$179                    animation
     000003C5  A$animation$180                    animation
     000003C6  A$animation$181                    animation
     000003C7  A$animation$182                    animation
     000003C8  A$animation$183                    animation
     000003CA  A$animation$187                    animation
     000003CA  C$animation.c$33$2_0$140           animation
     000003CC  A$animation$188                    animation
     000003CD  A$animation$189                    animation
     000003CE  A$animation$194                    animation
     000003CE  C$animation.c$34$2_0$137           animation
     000003D0  A$animation$195                    animation
ASxxxx Linker V03.00/V05.40 + sdld,  page 13.
Hexadecimal  [32-Bits]

Area                                    Addr        Size        Decimal Bytes (Attributes)
--------------------------------        ----        ----        ------- ----- ------------
_CODE                               00000200    000035F9 =       13817. bytes (REL,CON)

      Value  Global                              Global Defined In Module
      -----  --------------------------------   ------------------------
     000003D1  A$animation$196                    animation
     000003D3  A$animation$197                    animation
     000003D4  A$animation$207                    animation
     000003D4  C$animation.c$36$2_0$142           animation
     000003D4  G$update_animation$0$0             animation
     000003D4  _update_animation                  animation
     000003D5  A$animation$208                    animation
     000003D6  A$animation$209                    animation
     000003D7  A$animation$210                    animation
     000003D8  A$animation$214                    animation
     000003D8  C$animation.c$38$1_0$142           animation
     000003DB  A$animation$215                    animation
     000003DC  A$animation$216                    animation
     000003DD  A$animation$217                    animation
     000003DE  A$animation$218                    animation
     000003DF  A$animation$219                    animation
     000003E0  A$animation$220                    animation
     000003E1  A$animation$221                    animation
     000003E2  A$animation$222                    animation
     000003E3  A$animation$223                    animation
     000003E5  A$animation$224                    animation
     000003E6  A$animation$225                    animation
     000003E7  A$animation$229                    animation
     000003E7  C$animation.c$40$1_0$142           animation
     000003EA  A$animation$230                    animation
     000003EB  A$animation$231                    animation
     000003EC  A$animation$232                    animation
     000003ED  A$animation$233                    animation
     000003EE  A$animation$234                    animation
     000003EF  A$animation$235                    animation
     000003F1  A$animation$236                    animation
     000003F2  A$animation$237                    animation
     000003F3  A$animation$241                    animation
     000003F3  C$animation.c$41$2_0$143           animation
     000003F4  A$animation$242                    animation
     000003F5  A$animation$243                    animation
     000003F6  A$animation$244                    animation
     000003F7  A$animation$245                    animation
     000003F8  A$animation$246                    animation
     000003F9  A$animation$247                    animation
     000003FB  A$animation$248                    animation
     000003FC  A$animation$249                    animation
     000003FE  A$animation$250                    animation
     000003FF  A$animation$251                    animation
     00000400  A$animation$252                    animation
     00000402  A$animation$256                    animation
     00000402  C$animation.c$43$3_0$144           animation
     00000403  A$animation$257                    animation
     00000404  A$animation$261                    animation
     00000404  C$animation.c$44$3_0$144           animation
     00000405  A$animation$262                    animation
ASxxxx Linker V03.00/V05.40 + sdld,  page 14.
Hexadecimal  [32-Bits]

Area                                    Addr        Size        Decimal Bytes (Attributes)
--------------------------------        ----        ----        ------- ----- ------------
_CODE                               00000200    000035F9 =       13817. bytes (REL,CON)

      Value  Global                              Global Defined In Module
      -----  --------------------------------   ------------------------
     00000406  A$animation$263                    animation
     00000407  A$animation$264                    animation
     00000408  A$animation$265                    animation
     00000409  A$animation$266                    animation
     0000040A  A$animation$270                    animation
     0000040A  C$animation.c$45$4_0$145           animation
     0000040B  A$animation$271                    animation
     0000040C  A$animation$272                    animation
     0000040D  A$animation$273                    animation
     0000040E  A$animation$274                    animation
     0000040F  A$animation$275                    animation
     00000411  A$animation$279                    animation
     00000411  C$animation.c$46$4_0$145           animation
     00000413  A$animation$284                    animation
     00000414  A$animation$285                    animation
     00000415  A$animation$290                    animation
     00000415  C$animation.c$48$2_0$142           animation
     00000415  XG$update_animation$0$0            animation
     00000416  A$animation$300                    animation
     00000416  C$animation.c$50$2_0$147           animation
     00000416  G$set_animation$0$0                animation
     00000416  _set_animation                     animation
     00000417  A$animation$301                    animation
     00000418  A$animation$302                    animation
     00000419  A$animation$306                    animation
     00000419  C$animation.c$52$2_0$148           animation
     0000041A  A$animation$307                    animation
     0000041C  A$animation$308                    animation
     0000041D  A$animation$309                    animation
     0000041E  A$animation$310                    animation
     00000420  A$animation$311                    animation
     00000421  A$animation$312                    animation
     00000422  A$animation$313                    animation
     00000423  A$animation$314                    animation
     00000424  A$animation$321                    animation
     00000424  C$animation.c$53$2_0$148           animation
     00000424  C$animation.c$55$1_0$147           animation
     00000425  A$animation$322                    animation
     00000426  A$animation$326                    animation
     00000426  C$animation.c$56$1_1$149           animation
     00000427  A$animation$327                    animation
     00000428  A$animation$328                    animation
     00000429  A$animation$329                    animation
     0000042A  A$animation$330                    animation
     0000042C  A$animation$331                    animation
     0000042D  A$animation$335                    animation
     0000042D  C$animation.c$57$1_1$149           animation
     0000042E  A$animation$336                    animation
     0000042F  A$animation$337                    animation
     00000430  A$animation$338                    animation
     00000431  A$animation$339                    animation
ASxxxx Linker V03.00/V05.40 + sdld,  page 15.
Hexadecimal  [32-Bits]

Area                                    Addr        Size        Decimal Bytes (Attributes)
--------------------------------        ----        ----        ------- ----- ------------
_CODE                               00000200    000035F9 =       13817. bytes (REL,CON)

      Value  Global                              Global Defined In Module
      -----  --------------------------------   ------------------------
     00000432  A$animation$340                    animation
     00000433  A$animation$344                    animation
     00000433  C$animation.c$58$1_1$149           animation
     00000436  A$animation$345                    animation
     00000437  A$animation$346                    animation
     00000439  A$animation$354                    animation
     00000439  C$animation.c$59$1_1$147           animation
     00000439  XG$set_animation$0$0               animation
     0000043A  A$auto_clean$64                    auto_clean
     0000043A  C$auto_clean.c$7$0_0$9             auto_clean
     0000043A  C$auto_clean.c$9$2_0$9             auto_clean
     0000043A  G$Map_AutoClean$0$0                auto_clean
     0000043A  _Map_AutoClean                     auto_clean
     0000043D  A$auto_clean$65                    auto_clean
     0000043E  A$auto_clean$66                    auto_clean
     0000043F  A$auto_clean$67                    auto_clean
     00000442  A$auto_clean$68                    auto_clean
     00000443  A$auto_clean$69                    auto_clean
     00000444  A$auto_clean$73                    auto_clean
     00000444  C$auto_clean.c$11$3_0$10           auto_clean
     00000445  A$auto_clean$74                    auto_clean
     00000448  A$auto_clean$85                    auto_clean
     00000448  C$auto_clean.c$12$3_0$10           auto_clean
     00000448  C$auto_clean.c$14$2_0$9            auto_clean
     00000448  XG$Map_AutoClean$0$0               auto_clean
     0000044B  A$buttons$58                       buttons
     0000044B  C$buttons.c$21$0_0$126             buttons
     0000044B  C$buttons.c$22$1_0$126             buttons
     0000044B  G$init_buttons_tileset$0$0         buttons
     0000044B  _init_buttons_tileset              buttons
     0000044E  A$buttons$59                       buttons
     0000044F  A$buttons$60                       buttons
     00000452  A$buttons$61                       buttons
     00000453  A$buttons$62                       buttons
     00000456  A$buttons$63                       buttons
     00000458  A$buttons$71                       buttons
     00000458  C$buttons.c$23$1_0$126             buttons
     00000458  XG$init_buttons_tileset$0$0        buttons
     00000459  G$buttons_tileset$0_0$0            buttons
     00000459  _buttons_tileset                   buttons
     00000489  G$buttons_tilemap$0_0$0            buttons
     00000489  _buttons_tilemap                   buttons
     0000048C  G$chars_tileset$0_0$0              chars
     0000048C  _chars_tileset                     chars
     0000068C  G$chars_tilemap$0_0$0              chars
     0000068C  _chars_tilemap                     chars
     000006AB  A$char_to_tile$52                  char_to_tile
     000006AB  C$char_to_tile.c$3$0_0$3           char_to_tile
     000006AB  G$char_to_tile$0$0                 char_to_tile
     000006AB  _char_to_tile                      char_to_tile
     000006AD  A$char_to_tile$53                  char_to_tile
ASxxxx Linker V03.00/V05.40 + sdld,  page 16.
Hexadecimal  [32-Bits]

Area                                    Addr        Size        Decimal Bytes (Attributes)
--------------------------------        ----        ----        ------- ----- ------------
_CODE                               00000200    000035F9 =       13817. bytes (REL,CON)

      Value  Global                              Global Defined In Module
      -----  --------------------------------   ------------------------
     000006AF  A$char_to_tile$54                  char_to_tile
     000006B0  A$char_to_tile$58                  char_to_tile
     000006B0  C$char_to_tile.c$4$2_0$3           char_to_tile
     000006B2  A$char_to_tile$59                  char_to_tile
     000006B4  A$char_to_tile$60                  char_to_tile
     000006B5  A$char_to_tile$61                  char_to_tile
     000006B7  A$char_to_tile$62                  char_to_tile
     000006B8  A$char_to_tile$63                  char_to_tile
     000006BA  A$char_to_tile$64                  char_to_tile
     000006BB  A$char_to_tile$65                  char_to_tile
     000006BD  A$char_to_tile$66                  char_to_tile
     000006BE  A$char_to_tile$67                  char_to_tile
     000006C0  A$char_to_tile$68                  char_to_tile
     000006C1  A$char_to_tile$69                  char_to_tile
     000006C3  A$char_to_tile$70                  char_to_tile
     000006C4  A$char_to_tile$71                  char_to_tile
     000006C6  A$char_to_tile$72                  char_to_tile
     000006C7  A$char_to_tile$73                  char_to_tile
     000006C9  A$char_to_tile$74                  char_to_tile
     000006CA  A$char_to_tile$75                  char_to_tile
     000006CC  A$char_to_tile$76                  char_to_tile
     000006CD  A$char_to_tile$77                  char_to_tile
     000006CF  A$char_to_tile$78                  char_to_tile
     000006D0  A$char_to_tile$79                  char_to_tile
     000006D2  A$char_to_tile$80                  char_to_tile
     000006D3  A$char_to_tile$81                  char_to_tile
     000006D5  A$char_to_tile$82                  char_to_tile
     000006D6  A$char_to_tile$83                  char_to_tile
     000006D8  A$char_to_tile$84                  char_to_tile
     000006D9  A$char_to_tile$85                  char_to_tile
     000006DB  A$char_to_tile$86                  char_to_tile
     000006DC  A$char_to_tile$87                  char_to_tile
     000006DE  A$char_to_tile$88                  char_to_tile
     000006DF  A$char_to_tile$89                  char_to_tile
     000006E1  A$char_to_tile$90                  char_to_tile
     000006E2  A$char_to_tile$91                  char_to_tile
     000006E4  A$char_to_tile$92                  char_to_tile
     000006E5  A$char_to_tile$93                  char_to_tile
     000006E7  A$char_to_tile$94                  char_to_tile
     000006E8  A$char_to_tile$95                  char_to_tile
     000006EA  A$char_to_tile$96                  char_to_tile
     000006EB  A$char_to_tile$97                  char_to_tile
     000006ED  A$char_to_tile$98                  char_to_tile
     000006EE  A$char_to_tile$99                  char_to_tile
     000006F0  A$char_to_tile$100                 char_to_tile
     000006F1  A$char_to_tile$101                 char_to_tile
     000006F3  A$char_to_tile$102                 char_to_tile
     000006F4  A$char_to_tile$103                 char_to_tile
     000006F6  A$char_to_tile$104                 char_to_tile
     000006F7  A$char_to_tile$105                 char_to_tile
     000006F9  A$char_to_tile$106                 char_to_tile
ASxxxx Linker V03.00/V05.40 + sdld,  page 17.
Hexadecimal  [32-Bits]

Area                                    Addr        Size        Decimal Bytes (Attributes)
--------------------------------        ----        ----        ------- ----- ------------
_CODE                               00000200    000035F9 =       13817. bytes (REL,CON)

      Value  Global                              Global Defined In Module
      -----  --------------------------------   ------------------------
     000006FA  A$char_to_tile$107                 char_to_tile
     000006FC  A$char_to_tile$108                 char_to_tile
     000006FD  A$char_to_tile$109                 char_to_tile
     000006FF  A$char_to_tile$110                 char_to_tile
     00000700  A$char_to_tile$111                 char_to_tile
     00000702  A$char_to_tile$112                 char_to_tile
     00000703  A$char_to_tile$113                 char_to_tile
     00000705  A$char_to_tile$114                 char_to_tile
     00000706  A$char_to_tile$115                 char_to_tile
     00000708  A$char_to_tile$116                 char_to_tile
     00000709  A$char_to_tile$117                 char_to_tile
     0000070B  A$char_to_tile$118                 char_to_tile
     0000070C  A$char_to_tile$119                 char_to_tile
     0000070E  A$char_to_tile$120                 char_to_tile
     0000070F  A$char_to_tile$124                 char_to_tile
     0000070F  C$char_to_tile.c$5$3_0$4           char_to_tile
     00000710  A$char_to_tile$125                 char_to_tile
     00000711  A$char_to_tile$126                 char_to_tile
     00000712  A$char_to_tile$127                 char_to_tile
     00000713  A$char_to_tile$128                 char_to_tile
     00000716  A$char_to_tile$130                 char_to_tile
     00000717  A$char_to_tile$131                 char_to_tile
     00000719  A$char_to_tile$132                 char_to_tile
     0000071B  A$char_to_tile$136                 char_to_tile
     0000071B  C$char_to_tile.c$6$4_0$6           char_to_tile
     0000071E  A$char_to_tile$137                 char_to_tile
     0000071F  A$char_to_tile$138                 char_to_tile
     00000720  A$char_to_tile$139                 char_to_tile
     00000721  A$char_to_tile$140                 char_to_tile
     00000723  A$char_to_tile$141                 char_to_tile
     00000724  A$char_to_tile$142                 char_to_tile
     00000725  A$char_to_tile$143                 char_to_tile
     00000727  A$char_to_tile$147                 char_to_tile
     00000727  C$char_to_tile.c$7$5_0$7           char_to_tile
     00000729  A$char_to_tile$148                 char_to_tile
     0000072A  A$char_to_tile$149                 char_to_tile
     0000072C  A$char_to_tile$150                 char_to_tile
     0000072D  A$char_to_tile$151                 char_to_tile
     0000072F  A$char_to_tile$156                 char_to_tile
     0000072F  C$char_to_tile.c$5$2_0$4           char_to_tile
     00000730  A$char_to_tile$157                 char_to_tile
     00000732  A$char_to_tile$158                 char_to_tile
     00000733  A$char_to_tile$159                 char_to_tile
     00000734  A$char_to_tile$160                 char_to_tile
     00000735  A$char_to_tile$161                 char_to_tile
     00000737  A$char_to_tile$166                 char_to_tile
     00000737  C$char_to_tile.c$11$1_0$3          char_to_tile
     0000073A  A$char_to_tile$171                 char_to_tile
     0000073C  A$char_to_tile$176                 char_to_tile
     0000073C  C$char_to_tile.c$12$1_0$3          char_to_tile
     0000073C  XG$char_to_tile$0$0                char_to_tile
ASxxxx Linker V03.00/V05.40 + sdld,  page 18.
Hexadecimal  [32-Bits]

Area                                    Addr        Size        Decimal Bytes (Attributes)
--------------------------------        ----        ----        ------- ----- ------------
_CODE                               00000200    000035F9 =       13817. bytes (REL,CON)

      Value  Global                              Global Defined In Module
      -----  --------------------------------   ------------------------
     0000073D  A$clean_text$58                    clean_text
     0000073D  C$clean_text.c$7$0_0$133           clean_text
     0000073D  C$clean_text.c$8$1_0$133           clean_text
     0000073D  G$clean$0$0                        clean_text
     0000073D  _clean                             clean_text
     00000740  A$clean_text$59                    clean_text
     00000742  A$clean_text$63                    clean_text
     00000742  C$clean_text.c$10$1_0$133          clean_text
     00000744  A$clean_text$65                    clean_text
     00000746  A$clean_text$66                    clean_text
     00000747  A$clean_text$67                    clean_text
     00000749  A$clean_text$71                    clean_text
     00000749  C$clean_text.c$11$3_0$135          clean_text
     0000074A  A$clean_text$72                    clean_text
     0000074B  A$clean_text$73                    clean_text
     0000074C  A$clean_text$74                    clean_text
     0000074D  A$clean_text$75                    clean_text
     0000074E  A$clean_text$76                    clean_text
     00000750  A$clean_text$77                    clean_text
     00000751  A$clean_text$78                    clean_text
     00000754  A$clean_text$79                    clean_text
     00000755  A$clean_text$83                    clean_text
     00000755  C$clean_text.c$12$3_0$135          clean_text
     00000756  A$clean_text$84                    clean_text
     00000757  A$clean_text$85                    clean_text
     00000758  A$clean_text$86                    clean_text
     00000759  A$clean_text$87                    clean_text
     0000075B  A$clean_text$88                    clean_text
     0000075C  A$clean_text$89                    clean_text
     0000075F  A$clean_text$90                    clean_text
     00000760  A$clean_text$94                    clean_text
     00000760  C$clean_text.c$10$2_0$134          clean_text
     00000761  A$clean_text$95                    clean_text
     00000763  A$clean_text$100                   clean_text
     00000763  C$clean_text.c$15$1_0$133          clean_text
     00000765  A$clean_text$105                   clean_text
     00000765  C$clean_text.c$16$3_0$137          clean_text
     00000766  A$clean_text$106                   clean_text
     00000768  A$clean_text$107                   clean_text
     0000076A  A$clean_text$108                   clean_text
     0000076D  A$clean_text$109                   clean_text
     0000076E  A$clean_text$110                   clean_text
     00000770  A$clean_text$111                   clean_text
     00000771  A$clean_text$112                   clean_text
     00000772  A$clean_text$113                   clean_text
     00000774  A$clean_text$114                   clean_text
     00000775  A$clean_text$115                   clean_text
     00000776  A$clean_text$116                   clean_text
     00000778  A$clean_text$117                   clean_text
     00000779  A$clean_text$118                   clean_text
     0000077A  A$clean_text$119                   clean_text
ASxxxx Linker V03.00/V05.40 + sdld,  page 19.
Hexadecimal  [32-Bits]

Area                                    Addr        Size        Decimal Bytes (Attributes)
--------------------------------        ----        ----        ------- ----- ------------
_CODE                               00000200    000035F9 =       13817. bytes (REL,CON)

      Value  Global                              Global Defined In Module
      -----  --------------------------------   ------------------------
     0000077B  A$clean_text$120                   clean_text
     0000077C  A$clean_text$121                   clean_text
     0000077F  A$clean_text$122                   clean_text
     00000781  A$clean_text$126                   clean_text
     00000781  C$clean_text.c$15$2_0$136          clean_text
     00000782  A$clean_text$127                   clean_text
     00000784  A$clean_text$132                   clean_text
     00000784  C$clean_text.c$19$1_0$133          clean_text
     00000787  A$clean_text$133                   clean_text
     00000788  A$clean_text$134                   clean_text
     0000078B  A$clean_text$135                   clean_text
     0000078C  A$clean_text$136                   clean_text
     0000078F  A$clean_text$137                   clean_text
     00000790  A$clean_text$138                   clean_text
     00000793  A$clean_text$139                   clean_text
     00000795  A$clean_text$143                   clean_text
     00000795  C$clean_text.c$20$1_0$133          clean_text
     00000796  A$clean_text$144                   clean_text
     00000799  A$clean_text$145                   clean_text
     0000079A  A$clean_text$146                   clean_text
     0000079D  A$clean_text$147                   clean_text
     0000079E  A$clean_text$148                   clean_text
     000007A1  A$clean_text$149                   clean_text
     000007A3  A$clean_text$157                   clean_text
     000007A3  C$clean_text.c$21$1_0$133          clean_text
     000007A3  XG$clean$0$0                       clean_text
     000007A4  G$empty_tile$0_0$0                 clean_text
     000007A4  _empty_tile                        clean_text
     000007A5  A$collision$52                     collision
     000007A5  C$collision.c$3$0_0$3              collision
     000007A5  G$check_collision$0$0              collision
     000007A5  _check_collision                   collision
     000007A7  A$collision$53                     collision
     000007A8  A$collision$54                     collision
     000007AA  A$collision$55                     collision
     000007AB  A$collision$59                     collision
     000007AB  C$collision.c$8$1_0$3              collision
     000007AD  A$collision$60                     collision
     000007AE  A$collision$61                     collision
     000007B0  A$collision$62                     collision
     000007B1  A$collision$63                     collision
     000007B3  A$collision$64                     collision
     000007B5  A$collision$65                     collision
     000007B6  A$collision$66                     collision
     000007B8  A$collision$67                     collision
     000007B9  A$collision$68                     collision
     000007BA  A$collision$69                     collision
     000007BB  A$collision$70                     collision
     000007BC  A$collision$71                     collision
     000007BD  A$collision$72                     collision
     000007BE  A$collision$73                     collision
ASxxxx Linker V03.00/V05.40 + sdld,  page 20.
Hexadecimal  [32-Bits]

Area                                    Addr        Size        Decimal Bytes (Attributes)
--------------------------------        ----        ----        ------- ----- ------------
_CODE                               00000200    000035F9 =       13817. bytes (REL,CON)

      Value  Global                              Global Defined In Module
      -----  --------------------------------   ------------------------
     000007BF  A$collision$74                     collision
     000007C0  A$collision$75                     collision
     000007C1  A$collision$76                     collision
     000007C2  A$collision$77                     collision
     000007C3  A$collision$78                     collision
     000007C5  A$collision$79                     collision
     000007C6  A$collision$80                     collision
     000007C7  A$collision$81                     collision
     000007C8  A$collision$82                     collision
     000007CA  A$collision$83                     collision
     000007CB  A$collision$84                     collision
     000007CD  A$collision$85                     collision
     000007CE  A$collision$86                     collision
     000007CF  A$collision$87                     collision
     000007D0  A$collision$88                     collision
     000007D1  A$collision$89                     collision
     000007D2  A$collision$90                     collision
     000007D4  A$collision$94                     collision
     000007D4  C$collision.c$9$1_0$3              collision
     000007D5  A$collision$95                     collision
     000007D6  A$collision$96                     collision
     000007D7  A$collision$97                     collision
     000007D8  A$collision$98                     collision
     000007D9  A$collision$99                     collision
     000007DB  A$collision$100                    collision
     000007DC  A$collision$101                    collision
     000007DD  A$collision$102                    collision
     000007DE  A$collision$103                    collision
     000007DF  A$collision$104                    collision
     000007E1  A$collision$108                    collision
     000007E1  C$collision.c$10$1_0$3             collision
     000007E3  A$collision$109                    collision
     000007E4  A$collision$110                    collision
     000007E6  A$collision$111                    collision
     000007E7  A$collision$112                    collision
     000007E8  A$collision$113                    collision
     000007E9  A$collision$114                    collision
     000007EA  A$collision$115                    collision
     000007EB  A$collision$116                    collision
     000007EC  A$collision$117                    collision
     000007ED  A$collision$118                    collision
     000007EE  A$collision$119                    collision
     000007EF  A$collision$120                    collision
     000007F0  A$collision$121                    collision
     000007F1  A$collision$122                    collision
     000007F3  A$collision$123                    collision
     000007F4  A$collision$124                    collision
     000007F5  A$collision$125                    collision
     000007F6  A$collision$126                    collision
     000007F8  A$collision$127                    collision
     000007F9  A$collision$128                    collision
ASxxxx Linker V03.00/V05.40 + sdld,  page 21.
Hexadecimal  [32-Bits]

Area                                    Addr        Size        Decimal Bytes (Attributes)
--------------------------------        ----        ----        ------- ----- ------------
_CODE                               00000200    000035F9 =       13817. bytes (REL,CON)

      Value  Global                              Global Defined In Module
      -----  --------------------------------   ------------------------
     000007FA  A$collision$129                    collision
     000007FB  A$collision$130                    collision
     000007FC  A$collision$131                    collision
     000007FE  A$collision$132                    collision
     000007FF  A$collision$133                    collision
     00000800  A$collision$134                    collision
     00000801  A$collision$135                    collision
     00000802  A$collision$136                    collision
     00000803  A$collision$137                    collision
     00000805  A$collision$141                    collision
     00000805  C$collision.c$11$1_0$3             collision
     00000806  A$collision$142                    collision
     00000807  A$collision$143                    collision
     00000808  A$collision$144                    collision
     00000809  A$collision$145                    collision
     0000080A  A$collision$146                    collision
     0000080C  A$collision$147                    collision
     0000080D  A$collision$148                    collision
     0000080E  A$collision$149                    collision
     0000080F  A$collision$150                    collision
     00000810  A$collision$151                    collision
     00000812  A$collision$153                    collision
     00000813  A$collision$154                    collision
     00000815  A$collision$156                    collision
     00000817  A$collision$161                    collision
     00000817  C$collision.c$12$1_0$3             collision
     00000819  A$collision$162                    collision
     0000081A  A$collision$163                    collision
     0000081C  A$collision$164                    collision
     0000081D  A$draw$53                          draw
     0000081D  C$draw.c$7$0_0$139                 draw
     0000081D  G$draw_actor$0$0                   draw
     0000081D  _draw_actor                        draw
     0000081F  A$draw$54                          draw
     00000821  A$draw$55                          draw
     00000822  A$draw$59                          draw
     00000822  C$draw.c$9$1_0$139                 draw
     00000825  A$draw$60                          draw
     00000826  A$draw$61                          draw
     00000828  A$draw$62                          draw
     00000829  A$draw$63                          draw
     0000082A  A$draw$64                          draw
     0000082B  A$draw$65                          draw
     0000082C  A$draw$66                          draw
     0000082E  A$draw$67                          draw
     0000082F  A$draw$71                          draw
     0000082F  C$draw.c$10$1_0$139                draw
     00000832  A$draw$72                          draw
     00000834  A$draw$73                          draw
     00000835  A$draw$74                          draw
     00000837  A$draw$75                          draw
ASxxxx Linker V03.00/V05.40 + sdld,  page 22.
Hexadecimal  [32-Bits]

Area                                    Addr        Size        Decimal Bytes (Attributes)
--------------------------------        ----        ----        ------- ----- ------------
_CODE                               00000200    000035F9 =       13817. bytes (REL,CON)

      Value  Global                              Global Defined In Module
      -----  --------------------------------   ------------------------
     00000838  A$draw$76                          draw
     00000839  A$draw$77                          draw
     0000083A  A$draw$78                          draw
     0000083B  A$draw$79                          draw
     0000083D  A$draw$80                          draw
     0000083E  A$draw$84                          draw
     0000083E  C$draw.c$12$1_0$139                draw
     00000841  A$draw$85                          draw
     00000843  A$draw$86                          draw
     00000844  A$draw$87                          draw
     00000846  A$draw$88                          draw
     00000847  A$draw$89                          draw
     00000848  A$draw$90                          draw
     00000849  A$draw$91                          draw
     0000084A  A$draw$92                          draw
     0000084B  A$draw$93                          draw
     0000084C  A$draw$94                          draw
     0000084D  A$draw$95                          draw
     0000084E  A$draw$96                          draw
     0000084F  A$draw$97                          draw
     00000850  A$draw$98                          draw
     00000851  A$draw$99                          draw
     00000852  A$draw$103                         draw
     00000852  C$draw.c$13$1_0$139                draw
     00000855  A$draw$104                         draw
     00000856  A$draw$105                         draw
     00000857  A$draw$106                         draw
     00000858  A$draw$107                         draw
     00000859  A$draw$108                         draw
     0000085A  A$draw$109                         draw
     0000085B  A$draw$110                         draw
     0000085C  A$draw$111                         draw
     0000085D  A$draw$112                         draw
     0000085F  A$draw$113                         draw
     00000860  A$draw$114                         draw
     00000861  A$draw$118                         draw
     00000861  C$draw.c$15$1_0$139                draw
     00000864  A$draw$119                         draw
     00000865  A$draw$120                         draw
     00000866  A$draw$121                         draw
     00000868  A$draw$122                         draw
     00000869  A$draw$126                         draw
     00000869  C$draw.c$16$1_0$139                draw
     0000086A  A$draw$127                         draw
     0000086B  A$draw$128                         draw
     0000086C  A$draw$129                         draw
     0000086D  A$draw$130                         draw
     0000086E  A$draw$131                         draw
     0000086F  A$draw$132                         draw
     00000872  A$draw$133                         draw
     00000873  A$draw$134                         draw
ASxxxx Linker V03.00/V05.40 + sdld,  page 23.
Hexadecimal  [32-Bits]

Area                                    Addr        Size        Decimal Bytes (Attributes)
--------------------------------        ----        ----        ------- ----- ------------
_CODE                               00000200    000035F9 =       13817. bytes (REL,CON)

      Value  Global                              Global Defined In Module
      -----  --------------------------------   ------------------------
     00000874  A$draw$135                         draw
     00000875  A$draw$136                         draw
     00000877  A$draw$140                         draw
     00000877  C$draw.c$18$1_0$139                draw
     00000878  A$draw$141                         draw
     00000879  A$draw$142                         draw
     0000087A  A$draw$143                         draw
     0000087B  A$draw$144                         draw
     0000087C  A$draw$148                         draw
     0000087C  C$draw.c$19$1_0$139                draw
     0000087E  A$draw$149                         draw
     0000087F  A$draw$150                         draw
     00000880  A$draw$151                         draw
     00000881  A$draw$152                         draw
     00000882  A$draw$153                         draw
     00000883  A$draw$154                         draw
     00000884  A$draw$155                         draw
     00000885  A$draw$156                         draw
     00000886  A$draw$157                         draw
     00000887  A$draw$158                         draw
     00000888  A$draw$159                         draw
     00000889  A$draw$160                         draw
     0000088A  A$draw$161                         draw
     0000088B  A$draw$162                         draw
     0000088C  A$draw$166                         draw
     0000088C  C$draw.c$21$2_0$140                draw
     0000088E  A$draw$167                         draw
     0000088F  A$draw$174                         draw
     0000088F  C$draw.c$22$2_0$140                draw
     0000088F  C$draw.c$25$2_0$139                draw
     00000892  A$draw$175                         draw
     00000894  A$draw$177                         draw
     00000895  A$draw$178                         draw
     00000897  A$draw$179                         draw
     00000898  A$draw$180                         draw
     0000089A  A$draw$182                         draw
     0000089B  A$draw$183                         draw
     0000089C  A$draw$184                         draw
     0000089D  A$draw$185                         draw
     0000089E  A$draw$186                         draw
     0000089F  A$draw$187                         draw
     000008A1  A$draw$188                         draw
     000008A4  A$draw$189                         draw
     000008A5  A$draw$190                         draw
     000008A6  A$draw$191                         draw
     000008A7  A$draw$192                         draw
     000008A8  A$draw$194                         draw
     000008A9  A$draw$195                         draw
     000008AA  A$draw$196                         draw
     000008AB  A$draw$197                         draw
     000008AC  A$draw$198                         draw
ASxxxx Linker V03.00/V05.40 + sdld,  page 24.
Hexadecimal  [32-Bits]

Area                                    Addr        Size        Decimal Bytes (Attributes)
--------------------------------        ----        ----        ------- ----- ------------
_CODE                               00000200    000035F9 =       13817. bytes (REL,CON)

      Value  Global                              Global Defined In Module
      -----  --------------------------------   ------------------------
     000008AD  A$draw$199                         draw
     000008AE  A$draw$200                         draw
     000008B1  A$draw$201                         draw
     000008B2  A$draw$202                         draw
     000008B3  A$draw$203                         draw
     000008B4  A$draw$204                         draw
     000008B5  A$draw$205                         draw
     000008B6  A$draw$209                         draw
     000008B6  C$draw.c$25$2_0$141                draw
     000008B7  A$draw$210                         draw
     000008B9  A$draw$215                         draw
     000008B9  C$draw.c$29$2_0$142                draw
     000008BB  A$draw$216                         draw
     000008BC  A$draw$217                         draw
     000008BD  A$draw$218                         draw
     000008BF  A$draw$220                         draw
     000008C1  A$draw$221                         draw
     000008C2  A$draw$223                         draw
     000008C3  A$draw$224                         draw
     000008C4  A$draw$225                         draw
     000008C5  A$draw$226                         draw
     000008C6  A$draw$227                         draw
     000008C7  A$draw$228                         draw
     000008CA  A$draw$229                         draw
     000008CB  A$draw$230                         draw
     000008CC  A$draw$231                         draw
     000008CD  A$draw$233                         draw
     000008CF  A$draw$234                         draw
     000008D0  A$draw$235                         draw
     000008D1  A$draw$236                         draw
     000008D2  A$draw$237                         draw
     000008D3  A$draw$238                         draw
     000008D4  A$draw$242                         draw
     000008D4  C$draw.c$31$2_0$142                draw
     000008D7  A$draw$247                         draw
     000008D7  C$draw.c$33$3_0$144                draw
     000008D9  A$draw$248                         draw
     000008DA  A$draw$249                         draw
     000008DC  A$draw$250                         draw
     000008DE  A$draw$254                         draw
     000008E1  A$draw$255                         draw
     000008E3  A$draw$256                         draw
     000008E4  A$draw$257                         draw
     000008E6  A$draw$258                         draw
     000008E7  A$draw$259                         draw
     000008E8  A$draw$260                         draw
     000008E9  A$draw$261                         draw
     000008EA  A$draw$262                         draw
     000008EB  A$draw$266                         draw
     000008EB  C$draw.c$31$2_0$139                draw
     000008ED  A$draw$267                         draw
ASxxxx Linker V03.00/V05.40 + sdld,  page 25.
Hexadecimal  [32-Bits]

Area                                    Addr        Size        Decimal Bytes (Attributes)
--------------------------------        ----        ----        ------- ----- ------------
_CODE                               00000200    000035F9 =       13817. bytes (REL,CON)

      Value  Global                              Global Defined In Module
      -----  --------------------------------   ------------------------
     000008EE  A$draw$271                         draw
     000008EE  C$draw.c$35$5_0$146                draw
     000008F0  A$draw$272                         draw
     000008F2  A$draw$275                         draw
     000008F3  A$draw$276                         draw
     000008F4  A$draw$277                         draw
     000008F5  A$draw$278                         draw
     000008F6  A$draw$279                         draw
     000008F7  A$draw$280                         draw
     000008FA  A$draw$281                         draw
     000008FB  A$draw$282                         draw
     000008FC  A$draw$283                         draw
     000008FD  A$draw$285                         draw
     000008FF  A$draw$286                         draw
     00000900  A$draw$287                         draw
     00000901  A$draw$288                         draw
     00000902  A$draw$290                         draw
     00000903  A$draw$291                         draw
     00000904  A$draw$292                         draw
     00000905  A$draw$293                         draw
     00000907  A$draw$294                         draw
     00000908  A$draw$295                         draw
     0000090A  A$draw$297                         draw
     0000090B  A$draw$298                         draw
     0000090E  A$draw$299                         draw
     0000090F  A$draw$300                         draw
     00000910  A$draw$301                         draw
     00000911  A$draw$302                         draw
     00000912  A$draw$303                         draw
     00000913  A$draw$304                         draw
     00000914  A$draw$305                         draw
     00000915  A$draw$307                         draw
     00000916  A$draw$308                         draw
     00000917  A$draw$309                         draw
     00000918  A$draw$310                         draw
     0000091A  A$draw$311                         draw
     0000091B  A$draw$312                         draw
     0000091C  A$draw$316                         draw
     0000091C  C$draw.c$38$5_0$146                draw
     0000091F  A$draw$320                         draw
     00000920  A$draw$321                         draw
     00000921  A$draw$322                         draw
     00000922  A$draw$323                         draw
     00000923  A$draw$324                         draw
     00000924  A$draw$325                         draw
     00000927  A$draw$326                         draw
     00000928  A$draw$327                         draw
     00000929  A$draw$328                         draw
     0000092A  A$draw$330                         draw
     0000092C  A$draw$331                         draw
     0000092D  A$draw$332                         draw
ASxxxx Linker V03.00/V05.40 + sdld,  page 26.
Hexadecimal  [32-Bits]

Area                                    Addr        Size        Decimal Bytes (Attributes)
--------------------------------        ----        ----        ------- ----- ------------
_CODE                               00000200    000035F9 =       13817. bytes (REL,CON)

      Value  Global                              Global Defined In Module
      -----  --------------------------------   ------------------------
     0000092E  A$draw$333                         draw
     0000092F  A$draw$334                         draw
     00000930  A$draw$335                         draw
     00000931  A$draw$337                         draw
     00000932  A$draw$338                         draw
     00000934  A$draw$339                         draw
     00000935  A$draw$340                         draw
     00000937  A$draw$342                         draw
     00000938  A$draw$343                         draw
     00000939  A$draw$344                         draw
     0000093A  A$draw$345                         draw
     0000093B  A$draw$346                         draw
     0000093C  A$draw$347                         draw
     0000093F  A$draw$348                         draw
     00000940  A$draw$350                         draw
     00000941  A$draw$351                         draw
     00000943  A$draw$352                         draw
     00000944  A$draw$353                         draw
     00000945  A$draw$354                         draw
     00000946  A$draw$355                         draw
     00000947  A$draw$359                         draw
     00000947  C$draw.c$43$3_0$144                draw
     00000949  A$draw$364                         draw
     00000949  C$draw.c$46$4_0$149                draw
     0000094B  A$draw$365                         draw
     0000094C  A$draw$366                         draw
     0000094E  A$draw$367                         draw
     00000950  A$draw$369                         draw
     00000952  A$draw$370                         draw
     00000953  A$draw$372                         draw
     00000954  A$draw$373                         draw
     00000955  A$draw$374                         draw
     00000956  A$draw$375                         draw
     00000957  A$draw$376                         draw
     00000958  A$draw$377                         draw
     0000095B  A$draw$378                         draw
     0000095C  A$draw$379                         draw
     0000095D  A$draw$380                         draw
     0000095E  A$draw$382                         draw
     00000960  A$draw$383                         draw
     00000961  A$draw$384                         draw
     00000962  A$draw$385                         draw
     00000963  A$draw$386                         draw
     00000964  A$draw$387                         draw
     00000965  A$draw$389                         draw
     00000966  A$draw$390                         draw
     00000968  A$draw$391                         draw
     0000096A  A$draw$392                         draw
     0000096B  A$draw$393                         draw
     0000096C  A$draw$394                         draw
     0000096E  A$draw$396                         draw
ASxxxx Linker V03.00/V05.40 + sdld,  page 27.
Hexadecimal  [32-Bits]

Area                                    Addr        Size        Decimal Bytes (Attributes)
--------------------------------        ----        ----        ------- ----- ------------
_CODE                               00000200    000035F9 =       13817. bytes (REL,CON)

      Value  Global                              Global Defined In Module
      -----  --------------------------------   ------------------------
     0000096F  A$draw$397                         draw
     00000970  A$draw$398                         draw
     00000971  A$draw$399                         draw
     00000972  A$draw$400                         draw
     00000973  A$draw$401                         draw
     00000976  A$draw$402                         draw
     00000977  A$draw$404                         draw
     00000978  A$draw$405                         draw
     0000097A  A$draw$406                         draw
     0000097B  A$draw$407                         draw
     0000097C  A$draw$408                         draw
     0000097D  A$draw$409                         draw
     0000097E  A$draw$411                         draw
     00000980  A$draw$412                         draw
     00000981  A$draw$413                         draw
     00000983  A$draw$414                         draw
     00000984  A$draw$415                         draw
     00000985  A$draw$416                         draw
     00000987  A$draw$418                         draw
     00000988  A$draw$419                         draw
     00000989  A$draw$420                         draw
     0000098A  A$draw$421                         draw
     0000098B  A$draw$422                         draw
     0000098C  A$draw$423                         draw
     0000098F  A$draw$424                         draw
     00000990  A$draw$425                         draw
     00000991  A$draw$426                         draw
     00000992  A$draw$428                         draw
     00000994  A$draw$429                         draw
     00000995  A$draw$430                         draw
     00000996  A$draw$431                         draw
     00000997  A$draw$432                         draw
     00000998  A$draw$434                         draw
     00000999  A$draw$435                         draw
     0000099A  A$draw$437                         draw
     0000099B  A$draw$438                         draw
     0000099E  A$draw$439                         draw
     0000099F  A$draw$440                         draw
     000009A0  A$draw$441                         draw
     000009A1  A$draw$442                         draw
     000009A2  A$draw$443                         draw
     000009A3  A$draw$444                         draw
     000009A4  A$draw$445                         draw
     000009A5  A$draw$447                         draw
     000009A6  A$draw$448                         draw
     000009A7  A$draw$449                         draw
     000009A8  A$draw$450                         draw
     000009AA  A$draw$451                         draw
     000009AB  A$draw$452                         draw
     000009AC  A$draw$460                         draw
     000009AC  C$draw.c$51$2_0$139                draw
ASxxxx Linker V03.00/V05.40 + sdld,  page 28.
Hexadecimal  [32-Bits]

Area                                    Addr        Size        Decimal Bytes (Attributes)
--------------------------------        ----        ----        ------- ----- ------------
_CODE                               00000200    000035F9 =       13817. bytes (REL,CON)

      Value  Global                              Global Defined In Module
      -----  --------------------------------   ------------------------
     000009AE  A$draw$465                         draw
     000009AE  C$draw.c$53$2_0$139                draw
     000009AE  XG$draw_actor$0$0                  draw
     000009AF  A$draw$475                         draw
     000009AF  C$draw.c$55$2_0$182                draw
     000009AF  G$draw_extra$0$0                   draw
     000009AF  _draw_extra                        draw
     000009B1  A$draw$476                         draw
     000009B2  A$draw$477                         draw
     000009B4  A$draw$478                         draw
     000009B5  A$draw$482                         draw
     000009B5  C$draw.c$58$1_0$182                draw
     000009B7  A$draw$483                         draw
     000009B8  A$draw$484                         draw
     000009B9  A$draw$485                         draw
     000009BA  A$draw$486                         draw
     000009BB  A$draw$487                         draw
     000009BE  A$draw$488                         draw
     000009BF  A$draw$489                         draw
     000009C0  A$draw$490                         draw
     000009C1  A$draw$491                         draw
     000009C3  A$draw$492                         draw
     000009C4  A$draw$496                         draw
     000009C4  C$draw.c$61$2_0$182                draw
     000009C6  A$draw$497                         draw
     000009C7  A$draw$498                         draw
     000009C8  A$draw$499                         draw
     000009CB  A$draw$500                         draw
     000009CC  A$draw$501                         draw
     000009CE  A$draw$502                         draw
     000009D0  A$draw$503                         draw
     000009D1  A$draw$507                         draw
     000009D1  C$draw.c$64$2_0$183                draw
     000009D2  A$draw$508                         draw
     000009D4  A$draw$509                         draw
     000009D6  A$draw$510                         draw
     000009D7  A$draw$511                         draw
     000009D9  A$draw$512                         draw
     000009DA  A$draw$513                         draw
     000009DB  A$draw$514                         draw
     000009DD  A$draw$515                         draw
     000009DE  A$draw$516                         draw
     000009E0  A$draw$517                         draw
     000009E1  A$draw$524                         draw
     000009E1  C$draw.c$65$2_0$183                draw
     000009E1  C$draw.c$68$2_0$182                draw
     000009E4  A$draw$525                         draw
     000009E6  A$draw$527                         draw
     000009E7  A$draw$528                         draw
     000009E9  A$draw$529                         draw
     000009EA  A$draw$530                         draw
ASxxxx Linker V03.00/V05.40 + sdld,  page 29.
Hexadecimal  [32-Bits]

Area                                    Addr        Size        Decimal Bytes (Attributes)
--------------------------------        ----        ----        ------- ----- ------------
_CODE                               00000200    000035F9 =       13817. bytes (REL,CON)

      Value  Global                              Global Defined In Module
      -----  --------------------------------   ------------------------
     000009EC  A$draw$532                         draw
     000009EE  A$draw$533                         draw
     000009EF  A$draw$534                         draw
     000009F0  A$draw$535                         draw
     000009F1  A$draw$536                         draw
     000009F2  A$draw$537                         draw
     000009F3  A$draw$538                         draw
     000009F4  A$draw$540                         draw
     000009F5  A$draw$541                         draw
     000009F6  A$draw$542                         draw
     000009F7  A$draw$543                         draw
     000009F8  A$draw$544                         draw
     000009F9  A$draw$545                         draw
     000009FA  A$draw$546                         draw
     000009FD  A$draw$547                         draw
     000009FE  A$draw$548                         draw
     000009FF  A$draw$549                         draw
     00000A00  A$draw$550                         draw
     00000A01  A$draw$551                         draw
     00000A02  A$draw$552                         draw
     00000A04  A$draw$553                         draw
     00000A05  A$draw$554                         draw
     00000A06  A$draw$555                         draw
     00000A07  A$draw$559                         draw
     00000A07  C$draw.c$68$2_0$184                draw
     00000A08  A$draw$560                         draw
     00000A0A  A$draw$565                         draw
     00000A0A  C$draw.c$74$2_0$182                draw
     00000A0C  A$draw$566                         draw
     00000A0D  A$draw$567                         draw
     00000A0F  A$draw$568                         draw
     00000A10  A$draw$572                         draw
     00000A10  C$draw.c$72$2_0$185                draw
     00000A12  A$draw$573                         draw
     00000A13  A$draw$574                         draw
     00000A14  A$draw$575                         draw
     00000A16  A$draw$577                         draw
     00000A17  A$draw$578                         draw
     00000A18  A$draw$579                         draw
     00000A19  A$draw$580                         draw
     00000A1A  A$draw$581                         draw
     00000A1D  A$draw$582                         draw
     00000A1E  A$draw$583                         draw
     00000A1F  A$draw$584                         draw
     00000A20  A$draw$586                         draw
     00000A22  A$draw$587                         draw
     00000A23  A$draw$588                         draw
     00000A24  A$draw$589                         draw
     00000A25  A$draw$590                         draw
     00000A27  A$draw$591                         draw
     00000A28  A$draw$592                         draw
ASxxxx Linker V03.00/V05.40 + sdld,  page 30.
Hexadecimal  [32-Bits]

Area                                    Addr        Size        Decimal Bytes (Attributes)
--------------------------------        ----        ----        ------- ----- ------------
_CODE                               00000200    000035F9 =       13817. bytes (REL,CON)

      Value  Global                              Global Defined In Module
      -----  --------------------------------   ------------------------
     00000A29  A$draw$596                         draw
     00000A29  C$draw.c$74$2_0$185                draw
     00000A2C  A$draw$601                         draw
     00000A2C  C$draw.c$76$3_0$187                draw
     00000A2E  A$draw$602                         draw
     00000A2F  A$draw$603                         draw
     00000A31  A$draw$604                         draw
     00000A33  A$draw$608                         draw
     00000A33  C$draw.c$78$5_0$189                draw
     00000A35  A$draw$609                         draw
     00000A36  A$draw$610                         draw
     00000A37  A$draw$611                         draw
     00000A39  A$draw$613                         draw
     00000A3A  A$draw$614                         draw
     00000A3B  A$draw$615                         draw
     00000A3C  A$draw$616                         draw
     00000A3D  A$draw$617                         draw
     00000A40  A$draw$618                         draw
     00000A41  A$draw$619                         draw
     00000A42  A$draw$620                         draw
     00000A43  A$draw$622                         draw
     00000A45  A$draw$623                         draw
     00000A46  A$draw$624                         draw
     00000A47  A$draw$625                         draw
     00000A48  A$draw$626                         draw
     00000A4A  A$draw$627                         draw
     00000A4B  A$draw$628                         draw
     00000A4C  A$draw$630                         draw
     00000A4E  A$draw$631                         draw
     00000A4F  A$draw$632                         draw
     00000A50  A$draw$633                         draw
     00000A52  A$draw$634                         draw
     00000A53  A$draw$635                         draw
     00000A54  A$draw$636                         draw
     00000A55  A$draw$638                         draw
     00000A56  A$draw$639                         draw
     00000A57  A$draw$640                         draw
     00000A58  A$draw$641                         draw
     00000A59  A$draw$642                         draw
     00000A5A  A$draw$643                         draw
     00000A5D  A$draw$644                         draw
     00000A5E  A$draw$646                         draw
     00000A5F  A$draw$647                         draw
     00000A60  A$draw$648                         draw
     00000A61  A$draw$649                         draw
     00000A62  A$draw$650                         draw
     00000A64  A$draw$651                         draw
     00000A65  A$draw$652                         draw
     00000A66  A$draw$656                         draw
     00000A66  C$draw.c$81$5_0$189                draw
     00000A69  A$draw$659                         draw
ASxxxx Linker V03.00/V05.40 + sdld,  page 31.
Hexadecimal  [32-Bits]

Area                                    Addr        Size        Decimal Bytes (Attributes)
--------------------------------        ----        ----        ------- ----- ------------
_CODE                               00000200    000035F9 =       13817. bytes (REL,CON)

      Value  Global                              Global Defined In Module
      -----  --------------------------------   ------------------------
     00000A6A  A$draw$660                         draw
     00000A6B  A$draw$661                         draw
     00000A6C  A$draw$662                         draw
     00000A6D  A$draw$663                         draw
     00000A70  A$draw$664                         draw
     00000A71  A$draw$665                         draw
     00000A72  A$draw$666                         draw
     00000A73  A$draw$668                         draw
     00000A75  A$draw$669                         draw
     00000A76  A$draw$670                         draw
     00000A77  A$draw$671                         draw
     00000A78  A$draw$672                         draw
     00000A7A  A$draw$673                         draw
     00000A7B  A$draw$674                         draw
     00000A7C  A$draw$676                         draw
     00000A7D  A$draw$677                         draw
     00000A7F  A$draw$678                         draw
     00000A80  A$draw$679                         draw
     00000A81  A$draw$680                         draw
     00000A82  A$draw$682                         draw
     00000A83  A$draw$683                         draw
     00000A84  A$draw$684                         draw
     00000A85  A$draw$685                         draw
     00000A86  A$draw$686                         draw
     00000A87  A$draw$687                         draw
     00000A8A  A$draw$688                         draw
     00000A8B  A$draw$690                         draw
     00000A8C  A$draw$691                         draw
     00000A8E  A$draw$692                         draw
     00000A8F  A$draw$693                         draw
     00000A90  A$draw$694                         draw
     00000A91  A$draw$695                         draw
     00000A92  A$draw$699                         draw
     00000A92  C$draw.c$86$3_0$187                draw
     00000A94  A$draw$704                         draw
     00000A94  C$draw.c$89$4_0$192                draw
     00000A96  A$draw$705                         draw
     00000A97  A$draw$706                         draw
     00000A99  A$draw$707                         draw
     00000A9B  A$draw$709                         draw
     00000A9C  A$draw$710                         draw
     00000A9D  A$draw$711                         draw
     00000A9E  A$draw$712                         draw
     00000A9F  A$draw$713                         draw
     00000AA2  A$draw$714                         draw
     00000AA3  A$draw$715                         draw
     00000AA4  A$draw$716                         draw
     00000AA5  A$draw$718                         draw
     00000AA7  A$draw$719                         draw
     00000AA8  A$draw$720                         draw
     00000AA9  A$draw$721                         draw
ASxxxx Linker V03.00/V05.40 + sdld,  page 32.
Hexadecimal  [32-Bits]

Area                                    Addr        Size        Decimal Bytes (Attributes)
--------------------------------        ----        ----        ------- ----- ------------
_CODE                               00000200    000035F9 =       13817. bytes (REL,CON)

      Value  Global                              Global Defined In Module
      -----  --------------------------------   ------------------------
     00000AAA  A$draw$722                         draw
     00000AAC  A$draw$723                         draw
     00000AAD  A$draw$724                         draw
     00000AAE  A$draw$726                         draw
     00000AAF  A$draw$727                         draw
     00000AB0  A$draw$728                         draw
     00000AB2  A$draw$729                         draw
     00000AB3  A$draw$730                         draw
     00000AB4  A$draw$731                         draw
     00000AB5  A$draw$732                         draw
     00000AB6  A$draw$733                         draw
     00000AB7  A$draw$735                         draw
     00000AB8  A$draw$736                         draw
     00000AB9  A$draw$737                         draw
     00000ABA  A$draw$738                         draw
     00000ABB  A$draw$739                         draw
     00000ABC  A$draw$740                         draw
     00000ABF  A$draw$741                         draw
     00000AC0  A$draw$743                         draw
     00000AC1  A$draw$744                         draw
     00000AC3  A$draw$745                         draw
     00000AC4  A$draw$746                         draw
     00000AC5  A$draw$747                         draw
     00000AC6  A$draw$748                         draw
     00000AC7  A$draw$750                         draw
     00000AC9  A$draw$751                         draw
     00000ACA  A$draw$752                         draw
     00000ACC  A$draw$753                         draw
     00000ACD  A$draw$754                         draw
     00000ACE  A$draw$755                         draw
     00000ACF  A$draw$756                         draw
     00000AD0  A$draw$757                         draw
     00000AD1  A$draw$758                         draw
     00000AD2  A$draw$760                         draw
     00000AD5  A$draw$761                         draw
     00000AD6  A$draw$762                         draw
     00000AD7  A$draw$763                         draw
     00000AD8  A$draw$764                         draw
     00000AD9  A$draw$765                         draw
     00000ADA  A$draw$766                         draw
     00000ADB  A$draw$767                         draw
     00000ADC  A$draw$768                         draw
     00000ADD  A$draw$770                         draw
     00000ADF  A$draw$771                         draw
     00000AE0  A$draw$772                         draw
     00000AE1  A$draw$773                         draw
     00000AE2  A$draw$774                         draw
     00000AE4  A$draw$776                         draw
     00000AE5  A$draw$777                         draw
     00000AE6  A$draw$778                         draw
     00000AE7  A$draw$779                         draw
ASxxxx Linker V03.00/V05.40 + sdld,  page 33.
Hexadecimal  [32-Bits]

Area                                    Addr        Size        Decimal Bytes (Attributes)
--------------------------------        ----        ----        ------- ----- ------------
_CODE                               00000200    000035F9 =       13817. bytes (REL,CON)

      Value  Global                              Global Defined In Module
      -----  --------------------------------   ------------------------
     00000AE8  A$draw$780                         draw
     00000AE9  A$draw$781                         draw
     00000AEA  A$draw$783                         draw
     00000AED  A$draw$784                         draw
     00000AEE  A$draw$785                         draw
     00000AEF  A$draw$786                         draw
     00000AF0  A$draw$787                         draw
     00000AF1  A$draw$788                         draw
     00000AF2  A$draw$789                         draw
     00000AF3  A$draw$790                         draw
     00000AF4  A$draw$791                         draw
     00000AF5  A$draw$793                         draw
     00000AF6  A$draw$794                         draw
     00000AF7  A$draw$795                         draw
     00000AF8  A$draw$796                         draw
     00000AFA  A$draw$797                         draw
     00000AFB  A$draw$798                         draw
     00000AFC  A$draw$806                         draw
     00000AFC  C$draw.c$94$2_0$182                draw
     00000AFC  C$draw.c$96$2_0$182                draw
     00000AFE  A$draw$807                         draw
     00000AFF  A$draw$808                         draw
     00000B01  A$draw$809                         draw
     00000B02  A$entity$60                        entity
     00000B02  C$entity.c$7$0_0$3                 entity
     00000B02  C$entity.c$9$2_0$4                 entity
     00000B02  G$create_entity$0$0                entity
     00000B02  _create_entity                     entity
     00000B05  A$entity$61                        entity
     00000B07  A$entity$62                        entity
     00000B09  A$entity$66                        entity
     00000B09  C$entity.c$10$3_0$5                entity
     00000B0A  A$entity$67                        entity
     00000B0B  A$entity$72                        entity
     00000B0B  C$entity.c$13$1_0$3                entity
     00000B0E  A$entity$73                        entity
     00000B0F  A$entity$74                        entity
     00000B12  A$entity$75                        entity
     00000B13  A$entity$76                        entity
     00000B14  A$entity$84                        entity
     00000B14  C$entity.c$14$1_0$3                entity
     00000B14  XG$create_entity$0$0               entity
     00000B15  A$entity$97                        entity
     00000B15  C$entity.c$16$1_0$6                entity
     00000B15  C$entity.c$18$1_0$6                entity
     00000B15  G$reset_entities$0$0               entity
     00000B15  _reset_entities                    entity
     00000B18  A$entity$98                        entity
     00000B1A  A$entity$106                       entity
     00000B1A  C$entity.c$19$1_0$6                entity
     00000B1A  XG$reset_entities$0$0              entity
ASxxxx Linker V03.00/V05.40 + sdld,  page 34.
Hexadecimal  [32-Bits]

Area                                    Addr        Size        Decimal Bytes (Attributes)
--------------------------------        ----        ----        ------- ----- ------------
_CODE                               00000200    000035F9 =       13817. bytes (REL,CON)

      Value  Global                              Global Defined In Module
      -----  --------------------------------   ------------------------
     00000B1B  A$gender_select$61                 gender_select
     00000B1B  C$gender_select.c$6$0_0$30         gender_select
     00000B1B  C$gender_select.c$8$1_0$30         gender_select
     00000B1B  G$GenderSelect_Create$0$0          gender_select
     00000B1B  _GenderSelect_Create               gender_select
     00000B1E  A$gender_select$62                 gender_select
     00000B20  A$gender_select$63                 gender_select
     00000B21  A$gender_select$64                 gender_select
     00000B23  A$gender_select$68                 gender_select
     00000B23  C$gender_select.c$9$1_0$30         gender_select
     00000B24  A$gender_select$69                 gender_select
     00000B26  A$gender_select$70                 gender_select
     00000B27  A$gender_select$71                 gender_select
     00000B29  A$gender_select$75                 gender_select
     00000B29  C$gender_select.c$11$1_0$30        gender_select
     00000B2C  A$gender_select$76                 gender_select
     00000B2D  A$gender_select$77                 gender_select
     00000B2E  A$gender_select$78                 gender_select
     00000B2F  A$gender_select$86                 gender_select
     00000B2F  C$gender_select.c$12$1_0$30        gender_select
     00000B2F  XG$GenderSelect_Create$0$0         gender_select
     00000B30  A$gender_select_init$58            gender_select_init
     00000B30  C$gender_select_init.c$11$1_0$15   gender_select_init
     00000B30  C$gender_select_init.c$9$0_0$155   gender_select_init
     00000B30  G$GenderSelect_Init$0$0            gender_select_init
     00000B30  _GenderSelect_Init                 gender_select_init
     00000B31  A$gender_select_init$59            gender_select_init
     00000B34  A$gender_select_init$60            gender_select_init
     00000B37  A$gender_select_init$61            gender_select_init
     00000B38  A$gender_select_init$62            gender_select_init
     00000B39  A$gender_select_init$63            gender_select_init
     00000B3A  A$gender_select_init$67            gender_select_init
     00000B3A  C$gender_select_init.c$12$2_0$15   gender_select_init
     00000B3B  A$gender_select_init$68            gender_select_init
     00000B3C  A$gender_select_init$72            gender_select_init
     00000B3C  C$gender_select_init.c$13$2_0$15   gender_select_init
     00000B3D  A$gender_select_init$76            gender_select_init
     00000B3D  C$gender_select_init.c$15$1_0$15   gender_select_init
     00000B3E  A$gender_select_init$77            gender_select_init
     00000B3F  A$gender_select_init$81            gender_select_init
     00000B3F  C$gender_select_init.c$16$1_0$15   gender_select_init
     00000B42  A$gender_select_init$82            gender_select_init
     00000B43  A$gender_select_init$83            gender_select_init
     00000B44  A$gender_select_init$84            gender_select_init
     00000B45  A$gender_select_init$85            gender_select_init
     00000B46  A$gender_select_init$89            gender_select_init
     00000B46  C$gender_select_init.c$18$1_0$15   gender_select_init
     00000B49  A$gender_select_init$90            gender_select_init
     00000B4A  A$gender_select_init$91            gender_select_init
     00000B4D  A$gender_select_init$92            gender_select_init
     00000B4E  A$gender_select_init$93            gender_select_init
ASxxxx Linker V03.00/V05.40 + sdld,  page 35.
Hexadecimal  [32-Bits]

Area                                    Addr        Size        Decimal Bytes (Attributes)
--------------------------------        ----        ----        ------- ----- ------------
_CODE                               00000200    000035F9 =       13817. bytes (REL,CON)

      Value  Global                              Global Defined In Module
      -----  --------------------------------   ------------------------
     00000B51  A$gender_select_init$94            gender_select_init
     00000B53  A$gender_select_init$98            gender_select_init
     00000B53  C$gender_select_init.c$19$1_0$15   gender_select_init
     00000B56  A$gender_select_init$99            gender_select_init
     00000B57  A$gender_select_init$100           gender_select_init
     00000B5A  A$gender_select_init$101           gender_select_init
     00000B5B  A$gender_select_init$102           gender_select_init
     00000B5C  A$gender_select_init$103           gender_select_init
     00000B5D  A$gender_select_init$104           gender_select_init
     00000B5E  A$gender_select_init$105           gender_select_init
     00000B61  A$gender_select_init$106           gender_select_init
     00000B63  A$gender_select_init$110           gender_select_init
     00000B63  C$gender_select_init.c$20$1_0$15   gender_select_init
     00000B66  A$gender_select_init$111           gender_select_init
     00000B67  A$gender_select_init$112           gender_select_init
     00000B69  A$gender_select_init$120           gender_select_init
     00000B69  C$gender_select_init.c$21$1_0$15   gender_select_init
     00000B69  XG$GenderSelect_Init$0$0           gender_select_init
     00000B6A  A$gender_select_update$62          gender_select_update
     00000B6A  C$gender_select_update.c$6$0_0$1   gender_select_update
     00000B6A  C$gender_select_update.c$8$1_0$1   gender_select_update
     00000B6A  C$gender_select_update.c$9$1_0$1   gender_select_update
     00000B6A  G$GenderSelect_Update$0$0          gender_select_update
     00000B6A  XG$GenderSelect_Update$0$0         gender_select_update
     00000B6A  _GenderSelect_Update               gender_select_update
     00000B6B  _hUGE_init                         hUGEDriver_obj
     00000B6D  hUGE_init                          hUGEDriver_obj
     00000BC3  _hUGE_mute_channel                 hUGEDriver_obj
     00000BC5  hUGE_mute_channel                  hUGEDriver_obj
     00000E13  _hUGE_set_position                 hUGEDriver_obj
     00000E15  hUGE_set_position                  hUGEDriver_obj
     00000FDA  _hUGE_dosound                      hUGEDriver_obj
     00000FDA  hUGE_dosound                       hUGEDriver_obj
     00001306  A$intermitent_text$55              intermitent_text
     00001306  C$intermitent_text.c$6$0_0$130     intermitent_text
     00001306  G$IntermitentText_Init$0$0         intermitent_text
     00001306  _IntermitentText_Init              intermitent_text
     00001308  A$intermitent_text$56              intermitent_text
     0000130A  A$intermitent_text$57              intermitent_text
     0000130B  A$intermitent_text$58              intermitent_text
     0000130C  A$intermitent_text$62              intermitent_text
     0000130C  C$intermitent_text.c$9$2_0$130     intermitent_text
     0000130E  A$intermitent_text$63              intermitent_text
     0000130F  A$intermitent_text$67              intermitent_text
     00001311  A$intermitent_text$68              intermitent_text
     00001313  A$intermitent_text$70              intermitent_text
     00001315  A$intermitent_text$71              intermitent_text
     00001316  A$intermitent_text$72              intermitent_text
     00001317  A$intermitent_text$73              intermitent_text
     00001318  A$intermitent_text$74              intermitent_text
     0000131A  A$intermitent_text$75              intermitent_text
ASxxxx Linker V03.00/V05.40 + sdld,  page 36.
Hexadecimal  [32-Bits]

Area                                    Addr        Size        Decimal Bytes (Attributes)
--------------------------------        ----        ----        ------- ----- ------------
_CODE                               00000200    000035F9 =       13817. bytes (REL,CON)

      Value  Global                              Global Defined In Module
      -----  --------------------------------   ------------------------
     0000131B  A$intermitent_text$76              intermitent_text
     0000131D  A$intermitent_text$77              intermitent_text
     0000131E  A$intermitent_text$78              intermitent_text
     0000131F  A$intermitent_text$79              intermitent_text
     00001320  A$intermitent_text$80              intermitent_text
     00001321  A$intermitent_text$81              intermitent_text
     00001322  A$intermitent_text$82              intermitent_text
     00001324  A$intermitent_text$86              intermitent_text
     00001324  C$intermitent_text.c$13$2_0$130    intermitent_text
     00001326  A$intermitent_text$88              intermitent_text
     00001327  A$intermitent_text$89              intermitent_text
     00001328  A$intermitent_text$90              intermitent_text
     0000132A  A$intermitent_text$94              intermitent_text
     0000132A  C$intermitent_text.c$15$4_0$132    intermitent_text
     0000132D  A$intermitent_text$98              intermitent_text
     0000132D  C$intermitent_text.c$16$4_0$132    intermitent_text
     0000132E  A$intermitent_text$102             intermitent_text
     0000132E  C$intermitent_text.c$17$4_0$132    intermitent_text
     00001330  A$intermitent_text$107             intermitent_text
     00001330  C$intermitent_text.c$21$3_1$133    intermitent_text
     00001331  A$intermitent_text$108             intermitent_text
     00001332  A$intermitent_text$109             intermitent_text
     00001335  A$intermitent_text$110             intermitent_text
     00001336  A$intermitent_text$111             intermitent_text
     00001337  A$intermitent_text$112             intermitent_text
     00001338  A$intermitent_text$113             intermitent_text
     0000133A  A$intermitent_text$114             intermitent_text
     0000133B  A$intermitent_text$118             intermitent_text
     0000133B  C$intermitent_text.c$22$3_1$133    intermitent_text
     0000133D  A$intermitent_text$119             intermitent_text
     0000133E  A$intermitent_text$120             intermitent_text
     0000133F  A$intermitent_text$121             intermitent_text
     00001340  A$intermitent_text$122             intermitent_text
     00001341  A$intermitent_text$123             intermitent_text
     00001342  A$intermitent_text$124             intermitent_text
     00001343  A$intermitent_text$125             intermitent_text
     00001344  A$intermitent_text$126             intermitent_text
     00001345  A$intermitent_text$127             intermitent_text
     00001348  A$intermitent_text$128             intermitent_text
     00001349  A$intermitent_text$132             intermitent_text
     00001349  C$intermitent_text.c$11$2_0$130    intermitent_text
     0000134B  A$intermitent_text$133             intermitent_text
     0000134C  A$intermitent_text$134             intermitent_text
     0000134E  A$intermitent_text$139             intermitent_text
     0000134E  C$intermitent_text.c$24$2_0$130    intermitent_text
     00001350  A$intermitent_text$140             intermitent_text
     00001351  A$intermitent_text$141             intermitent_text
     00001353  A$intermitent_text$142             intermitent_text
     00001354  A$inventory$74                     inventory
     00001354  C$inventory.c$15$0_0$144           inventory
     00001354  G$init_arrow$0$0                   inventory
ASxxxx Linker V03.00/V05.40 + sdld,  page 37.
Hexadecimal  [32-Bits]

Area                                    Addr        Size        Decimal Bytes (Attributes)
--------------------------------        ----        ----        ------- ----- ------------
_CODE                               00000200    000035F9 =       13817. bytes (REL,CON)

      Value  Global                              Global Defined In Module
      -----  --------------------------------   ------------------------
     00001354  _init_arrow                        inventory
     00001355  A$inventory$75                     inventory
     00001356  A$inventory$79                     inventory
     00001356  C$inventory.c$16$1_0$144           inventory
     00001359  A$inventory$80                     inventory
     0000135A  A$inventory$81                     inventory
     0000135C  A$inventory$82                     inventory
     0000135F  A$inventory$83                     inventory
     00001360  A$inventory$84                     inventory
     00001362  A$inventory$88                     inventory
     00001362  C$inventory.c$17$1_0$144           inventory
     00001365  A$inventory$89                     inventory
     00001368  A$inventory$90                     inventory
     00001369  A$inventory$91                     inventory
     0000136B  A$inventory$92                     inventory
     0000136C  A$inventory$93                     inventory
     0000136E  A$inventory$97                     inventory
     0000136E  C$inventory.c$19$1_0$144           inventory
     00001371  A$inventory$98                     inventory
     00001374  A$inventory$99                     inventory
     00001375  A$inventory$100                    inventory
     00001376  A$inventory$101                    inventory
     00001378  A$inventory$102                    inventory
     00001379  A$inventory$103                    inventory
     0000137C  A$inventory$104                    inventory
     0000137E  A$inventory$105                    inventory
     0000137F  A$inventory$106                    inventory
     00001381  A$inventory$107                    inventory
     00001383  A$inventory$108                    inventory
     00001384  A$inventory$109                    inventory
     00001385  A$inventory$110                    inventory
     00001386  A$inventory$111                    inventory
     00001387  A$inventory$112                    inventory
     00001388  A$inventory$113                    inventory
     00001389  A$inventory$117                    inventory
     00001389  C$inventory.c$20$1_0$144           inventory
     0000138C  A$inventory$118                    inventory
     0000138D  A$inventory$119                    inventory
     0000138E  A$inventory$120                    inventory
     00001390  A$inventory$121                    inventory
     00001391  A$inventory$122                    inventory
     00001393  A$inventory$123                    inventory
     00001395  A$inventory$124                    inventory
     00001396  A$inventory$125                    inventory
     00001397  A$inventory$126                    inventory
     00001399  A$inventory$127                    inventory
     0000139A  A$inventory$128                    inventory
     0000139B  A$inventory$129                    inventory
     0000139C  A$inventory$130                    inventory
     0000139D  A$inventory$131                    inventory
     0000139E  A$inventory$132                    inventory
ASxxxx Linker V03.00/V05.40 + sdld,  page 38.
Hexadecimal  [32-Bits]

Area                                    Addr        Size        Decimal Bytes (Attributes)
--------------------------------        ----        ----        ------- ----- ------------
_CODE                               00000200    000035F9 =       13817. bytes (REL,CON)

      Value  Global                              Global Defined In Module
      -----  --------------------------------   ------------------------
     0000139F  A$inventory$133                    inventory
     000013A0  A$inventory$137                    inventory
     000013A0  C$inventory.c$22$1_0$144           inventory
     000013A3  A$inventory$138                    inventory
     000013A4  A$inventory$139                    inventory
     000013A6  A$inventory$140                    inventory
     000013A9  A$inventory$141                    inventory
     000013AA  A$inventory$142                    inventory
     000013AC  A$inventory$146                    inventory
     000013AC  C$inventory.c$23$1_0$144           inventory
     000013AF  A$inventory$147                    inventory
     000013B2  A$inventory$148                    inventory
     000013B3  A$inventory$149                    inventory
     000013B5  A$inventory$150                    inventory
     000013B6  A$inventory$151                    inventory
     000013B8  A$inventory$155                    inventory
     000013B8  C$inventory.c$24$1_0$144           inventory
     000013BB  A$inventory$156                    inventory
     000013BE  A$inventory$157                    inventory
     000013BF  A$inventory$158                    inventory
     000013C1  A$inventory$159                    inventory
     000013C2  A$inventory$160                    inventory
     000013C4  A$inventory$164                    inventory
     000013C4  C$inventory.c$26$2_0$145           inventory
     000013C6  A$inventory$165                    inventory
     000013C8  A$inventory$166                    inventory
     000013C9  A$inventory$167                    inventory
     000013CB  A$inventory$171                    inventory
     000013CB  C$inventory.c$28$1_1$145           inventory
     000013CE  A$inventory$172                    inventory
     000013CF  A$inventory$173                    inventory
     000013D1  A$inventory$174                    inventory
     000013D2  A$inventory$175                    inventory
     000013D3  A$inventory$176                    inventory
     000013D4  A$inventory$177                    inventory
     000013D5  A$inventory$178                    inventory
     000013D6  A$inventory$179                    inventory
     000013D7  A$inventory$180                    inventory
     000013D8  A$inventory$181                    inventory
     000013D9  A$inventory$182                    inventory
     000013DA  A$inventory$183                    inventory
     000013DD  A$inventory$184                    inventory
     000013DE  A$inventory$185                    inventory
     000013DF  A$inventory$186                    inventory
     000013E0  A$inventory$187                    inventory
     000013E3  A$inventory$188                    inventory
     000013E4  A$inventory$189                    inventory
     000013E6  A$inventory$190                    inventory
     000013E7  A$inventory$191                    inventory
     000013E8  A$inventory$192                    inventory
     000013EB  A$inventory$193                    inventory
ASxxxx Linker V03.00/V05.40 + sdld,  page 39.
Hexadecimal  [32-Bits]

Area                                    Addr        Size        Decimal Bytes (Attributes)
--------------------------------        ----        ----        ------- ----- ------------
_CODE                               00000200    000035F9 =       13817. bytes (REL,CON)

      Value  Global                              Global Defined In Module
      -----  --------------------------------   ------------------------
     000013EC  A$inventory$194                    inventory
     000013ED  A$inventory$195                    inventory
     000013EE  A$inventory$196                    inventory
     000013EF  A$inventory$197                    inventory
     000013F0  A$inventory$198                    inventory
     000013F1  A$inventory$199                    inventory
     000013F4  A$inventory$203                    inventory
     000013F7  A$inventory$204                    inventory
     000013F8  A$inventory$209                    inventory
     000013F8  C$inventory.c$30$1_1$144           inventory
     000013F8  XG$init_arrow$0$0                  inventory
     000013F9  A$inventory$219                    inventory
     000013F9  C$inventory.c$32$1_1$147           inventory
     000013F9  G$initialize_inventory$0$0         inventory
     000013F9  _initialize_inventory              inventory
     000013FB  A$inventory$223                    inventory
     000013FB  C$inventory.c$33$3_0$148           inventory
     000013FD  A$inventory$224                    inventory
     000013FF  A$inventory$226                    inventory
     00001401  A$inventory$227                    inventory
     00001402  A$inventory$228                    inventory
     00001404  A$inventory$229                    inventory
     00001406  A$inventory$233                    inventory
     00001406  C$inventory.c$35$3_0$148           inventory
     00001407  A$inventory$237                    inventory
     00001407  C$inventory.c$36$3_0$148           inventory
     00001408  A$inventory$238                    inventory
     00001409  A$inventory$239                    inventory
     0000140A  A$inventory$240                    inventory
     0000140B  A$inventory$244                    inventory
     0000140B  C$inventory.c$39$4_0$149           inventory
     0000140C  A$inventory$245                    inventory
     0000140D  A$inventory$246                    inventory
     0000140E  A$inventory$247                    inventory
     0000140F  A$inventory$248                    inventory
     00001411  A$inventory$252                    inventory
     00001411  C$inventory.c$40$4_0$149           inventory
     00001412  A$inventory$253                    inventory
     00001414  A$inventory$258                    inventory
     00001414  C$inventory.c$42$3_0$148           inventory
     00001417  A$inventory$259                    inventory
     00001418  A$inventory$260                    inventory
     00001419  A$inventory$261                    inventory
     0000141A  A$inventory$262                    inventory
     0000141C  A$inventory$263                    inventory
     0000141D  A$inventory$264                    inventory
     0000141E  A$inventory$265                    inventory
     0000141F  A$inventory$266                    inventory
     00001420  A$inventory$267                    inventory
     00001421  A$inventory$268                    inventory
     00001424  A$inventory$269                    inventory
ASxxxx Linker V03.00/V05.40 + sdld,  page 40.
Hexadecimal  [32-Bits]

Area                                    Addr        Size        Decimal Bytes (Attributes)
--------------------------------        ----        ----        ------- ----- ------------
_CODE                               00000200    000035F9 =       13817. bytes (REL,CON)

      Value  Global                              Global Defined In Module
      -----  --------------------------------   ------------------------
     00001425  A$inventory$270                    inventory
     00001426  A$inventory$271                    inventory
     00001427  A$inventory$272                    inventory
     0000142A  A$inventory$273                    inventory
     0000142B  A$inventory$274                    inventory
     0000142E  A$inventory$278                    inventory
     0000142E  C$inventory.c$33$2_0$147           inventory
     00001430  A$inventory$279                    inventory
     00001431  A$inventory$280                    inventory
     00001433  A$inventory$285                    inventory
     00001435  A$inventory$290                    inventory
     00001435  C$inventory.c$44$2_0$147           inventory
     00001435  XG$initialize_inventory$0$0        inventory
     00001436  A$inventory_input$59               inventory_input
     00001436  C$inventory_input.c$20$0_0$152     inventory_input
     00001436  G$inventory_input$0$0              inventory_input
     00001436  _inventory_input                   inventory_input
     00001438  A$inventory_input$63               inventory_input
     00001438  C$inventory_input.c$22$2_0$153     inventory_input
     0000143B  A$inventory_input$64               inventory_input
     0000143D  A$inventory_input$65               inventory_input
     0000143F  A$inventory_input$66               inventory_input
     00001442  A$inventory_input$67               inventory_input
     00001444  A$inventory_input$68               inventory_input
     00001446  A$inventory_input$72               inventory_input
     00001446  C$inventory_input.c$24$4_0$155     inventory_input
     00001449  A$inventory_input$73               inventory_input
     0000144A  A$inventory_input$74               inventory_input
     0000144D  A$inventory_input$81               inventory_input
     0000144D  C$inventory_input.c$25$4_0$155     inventory_input
     0000144D  C$inventory_input.c$27$3_0$154     inventory_input
     00001450  A$inventory_input$82               inventory_input
     00001452  A$inventory_input$86               inventory_input
     00001452  C$inventory_input.c$28$3_0$154     inventory_input
     00001455  A$inventory_input$87               inventory_input
     00001458  A$inventory_input$88               inventory_input
     00001459  A$inventory_input$89               inventory_input
     0000145B  A$inventory_input$90               inventory_input
     0000145C  A$inventory_input$91               inventory_input
     0000145E  A$inventory_input$95               inventory_input
     0000145E  C$inventory_input.c$29$3_0$154     inventory_input
     00001461  A$inventory_input$96               inventory_input
     00001464  A$inventory_input$100              inventory_input
     00001464  C$inventory_input.c$31$3_0$154     inventory_input
     00001467  A$inventory_input$101              inventory_input
     00001469  A$inventory_input$105              inventory_input
     00001469  C$inventory_input.c$33$3_0$154     inventory_input
     0000146C  A$inventory_input$106              inventory_input
     0000146D  A$inventory_input$107              inventory_input
     0000146E  A$inventory_input$108              inventory_input
     0000146F  A$inventory_input$109              inventory_input
ASxxxx Linker V03.00/V05.40 + sdld,  page 41.
Hexadecimal  [32-Bits]

Area                                    Addr        Size        Decimal Bytes (Attributes)
--------------------------------        ----        ----        ------- ----- ------------
_CODE                               00000200    000035F9 =       13817. bytes (REL,CON)

      Value  Global                              Global Defined In Module
      -----  --------------------------------   ------------------------
     00001472  A$inventory_input$110              inventory_input
     00001474  A$inventory_input$111              inventory_input
     00001475  A$inventory_input$112              inventory_input
     00001478  A$inventory_input$113              inventory_input
     00001479  A$inventory_input$114              inventory_input
     0000147A  A$inventory_input$115              inventory_input
     0000147D  A$inventory_input$119              inventory_input
     0000147D  C$inventory_input.c$34$3_0$154     inventory_input
     0000147E  A$inventory_input$120              inventory_input
     00001481  A$inventory_input$125              inventory_input
     00001481  C$inventory_input.c$37$2_0$156     inventory_input
     00001484  A$inventory_input$126              inventory_input
     00001486  A$inventory_input$127              inventory_input
     00001488  A$inventory_input$128              inventory_input
     0000148B  A$inventory_input$129              inventory_input
     0000148D  A$inventory_input$130              inventory_input
     0000148F  A$inventory_input$134              inventory_input
     0000148F  C$inventory_input.c$39$4_0$158     inventory_input
     00001492  A$inventory_input$135              inventory_input
     00001493  A$inventory_input$136              inventory_input
     00001496  A$inventory_input$143              inventory_input
     00001496  C$inventory_input.c$40$4_0$158     inventory_input
     00001496  C$inventory_input.c$41$3_0$157     inventory_input
     00001499  A$inventory_input$144              inventory_input
     0000149B  A$inventory_input$148              inventory_input
     0000149B  C$inventory_input.c$42$3_0$157     inventory_input
     0000149E  A$inventory_input$149              inventory_input
     000014A1  A$inventory_input$150              inventory_input
     000014A2  A$inventory_input$151              inventory_input
     000014A4  A$inventory_input$152              inventory_input
     000014A5  A$inventory_input$153              inventory_input
     000014A7  A$inventory_input$157              inventory_input
     000014A7  C$inventory_input.c$43$3_0$157     inventory_input
     000014AA  A$inventory_input$158              inventory_input
     000014AD  A$inventory_input$162              inventory_input
     000014AD  C$inventory_input.c$45$3_0$157     inventory_input
     000014B0  A$inventory_input$163              inventory_input
     000014B3  A$inventory_input$167              inventory_input
     000014B3  C$inventory_input.c$46$3_0$157     inventory_input
     000014B6  A$inventory_input$168              inventory_input
     000014B8  A$inventory_input$172              inventory_input
     000014B8  C$inventory_input.c$48$3_0$157     inventory_input
     000014BB  A$inventory_input$173              inventory_input
     000014BC  A$inventory_input$174              inventory_input
     000014BD  A$inventory_input$175              inventory_input
     000014BE  A$inventory_input$176              inventory_input
     000014C1  A$inventory_input$177              inventory_input
     000014C3  A$inventory_input$178              inventory_input
     000014C4  A$inventory_input$179              inventory_input
     000014C6  A$inventory_input$180              inventory_input
     000014C7  A$inventory_input$181              inventory_input
ASxxxx Linker V03.00/V05.40 + sdld,  page 42.
Hexadecimal  [32-Bits]

Area                                    Addr        Size        Decimal Bytes (Attributes)
--------------------------------        ----        ----        ------- ----- ------------
_CODE                               00000200    000035F9 =       13817. bytes (REL,CON)

      Value  Global                              Global Defined In Module
      -----  --------------------------------   ------------------------
     000014C8  A$inventory_input$182              inventory_input
     000014CB  A$inventory_input$186              inventory_input
     000014CB  C$inventory_input.c$49$3_0$157     inventory_input
     000014CC  A$inventory_input$187              inventory_input
     000014CF  A$inventory_input$192              inventory_input
     000014D2  A$inventory_input$196              inventory_input
     000014D2  C$inventory_input.c$28$1_1$152     inventory_input
     000014D5  A$inventory_input$197              inventory_input
     000014D6  A$inventory_input$201              inventory_input
     000014D6  C$inventory_input.c$52$1_1$159     inventory_input
     000014D7  A$inventory_input$202              inventory_input
     000014D9  A$inventory_input$203              inventory_input
     000014DA  A$inventory_input$204              inventory_input
     000014DB  A$inventory_input$205              inventory_input
     000014DD  A$inventory_input$206              inventory_input
     000014DE  A$inventory_input$210              inventory_input
     000014DE  C$inventory_input.c$53$1_1$159     inventory_input
     000014E0  A$inventory_input$211              inventory_input
     000014E3  A$inventory_input$212              inventory_input
     000014E4  A$inventory_input$213              inventory_input
     000014E5  A$inventory_input$214              inventory_input
     000014E6  A$inventory_input$215              inventory_input
     000014E7  A$inventory_input$216              inventory_input
     000014E8  A$inventory_input$217              inventory_input
     000014E9  A$inventory_input$218              inventory_input
     000014EA  A$inventory_input$219              inventory_input
     000014EC  A$inventory_input$220              inventory_input
     000014ED  A$inventory_input$224              inventory_input
     000014ED  C$inventory_input.c$22$1_1$152     inventory_input
     000014F0  A$inventory_input$225              inventory_input
     000014F3  A$inventory_input$226              inventory_input
     000014F4  A$inventory_input$230              inventory_input
     000014F4  C$inventory_input.c$58$1_1$152     inventory_input
     000014F7  A$inventory_input$231              inventory_input
     000014F8  A$inventory_input$232              inventory_input
     000014F9  A$inventory_input$233              inventory_input
     000014FA  A$inventory_input$237              inventory_input
     000014FA  C$inventory_input.c$55$2_1$160     inventory_input
     000014FC  A$inventory_input$238              inventory_input
     000014FE  A$inventory_input$239              inventory_input
     00001500  A$inventory_input$240              inventory_input
     00001502  A$inventory_input$244              inventory_input
     00001502  C$inventory_input.c$57$3_1$161     inventory_input
     00001504  A$inventory_input$245              inventory_input
     00001505  A$inventory_input$246              inventory_input
     00001507  A$inventory_input$247              inventory_input
     00001508  A$inventory_input$251              inventory_input
     00001508  C$inventory_input.c$58$3_1$161     inventory_input
     0000150B  A$inventory_input$252              inventory_input
     0000150C  A$inventory_input$253              inventory_input
     0000150E  A$inventory_input$258              inventory_input
ASxxxx Linker V03.00/V05.40 + sdld,  page 43.
Hexadecimal  [32-Bits]

Area                                    Addr        Size        Decimal Bytes (Attributes)
--------------------------------        ----        ----        ------- ----- ------------
_CODE                               00000200    000035F9 =       13817. bytes (REL,CON)

      Value  Global                              Global Defined In Module
      -----  --------------------------------   ------------------------
     0000150E  C$inventory_input.c$60$3_1$162     inventory_input
     00001510  A$inventory_input$259              inventory_input
     00001512  A$inventory_input$260              inventory_input
     00001514  A$inventory_input$261              inventory_input
     00001516  A$inventory_input$265              inventory_input
     00001516  C$inventory_input.c$62$4_1$163     inventory_input
     00001518  A$inventory_input$266              inventory_input
     00001519  A$inventory_input$267              inventory_input
     0000151B  A$inventory_input$268              inventory_input
     0000151C  A$inventory_input$272              inventory_input
     0000151C  C$inventory_input.c$63$4_1$163     inventory_input
     0000151F  A$inventory_input$273              inventory_input
     00001520  A$inventory_input$274              inventory_input
     00001522  A$inventory_input$279              inventory_input
     00001522  C$inventory_input.c$65$4_1$164     inventory_input
     00001524  A$inventory_input$280              inventory_input
     00001526  A$inventory_input$281              inventory_input
     00001528  A$inventory_input$282              inventory_input
     0000152A  A$inventory_input$286              inventory_input
     0000152A  C$inventory_input.c$67$5_1$165     inventory_input
     0000152C  A$inventory_input$287              inventory_input
     0000152D  A$inventory_input$288              inventory_input
     0000152F  A$inventory_input$289              inventory_input
     00001530  A$inventory_input$293              inventory_input
     00001530  C$inventory_input.c$68$5_1$165     inventory_input
     00001533  A$inventory_input$294              inventory_input
     00001534  A$inventory_input$295              inventory_input
     00001536  A$inventory_input$300              inventory_input
     00001536  C$inventory_input.c$70$5_1$166     inventory_input
     00001538  A$inventory_input$301              inventory_input
     0000153A  A$inventory_input$302              inventory_input
     0000153C  A$inventory_input$303              inventory_input
     0000153E  A$inventory_input$307              inventory_input
     0000153E  C$inventory_input.c$72$6_1$167     inventory_input
     00001540  A$inventory_input$308              inventory_input
     00001541  A$inventory_input$309              inventory_input
     00001543  A$inventory_input$310              inventory_input
     00001544  A$inventory_input$314              inventory_input
     00001544  C$inventory_input.c$73$6_1$167     inventory_input
     00001547  A$inventory_input$315              inventory_input
     00001548  A$inventory_input$320              inventory_input
     00001548  C$inventory_input.c$76$2_1$168     inventory_input
     0000154A  A$inventory_input$321              inventory_input
     0000154C  A$inventory_input$322              inventory_input
     0000154D  A$inventory_input$323              inventory_input
     0000154F  A$inventory_input$327              inventory_input
     0000154F  C$inventory_input.c$78$3_1$169     inventory_input
     00001551  A$inventory_input$331              inventory_input
     00001551  C$inventory_input.c$79$3_1$169     inventory_input
     00001554  A$inventory_input$332              inventory_input
     00001555  A$inventory_input$333              inventory_input
ASxxxx Linker V03.00/V05.40 + sdld,  page 44.
Hexadecimal  [32-Bits]

Area                                    Addr        Size        Decimal Bytes (Attributes)
--------------------------------        ----        ----        ------- ----- ------------
_CODE                               00000200    000035F9 =       13817. bytes (REL,CON)

      Value  Global                              Global Defined In Module
      -----  --------------------------------   ------------------------
     00001556  A$inventory_input$338              inventory_input
     00001556  C$inventory_input.c$81$2_1$170     inventory_input
     00001558  A$inventory_input$339              inventory_input
     00001559  A$inventory_input$340              inventory_input
     0000155B  A$inventory_input$341              inventory_input
     0000155D  A$inventory_input$345              inventory_input
     0000155D  C$inventory_input.c$83$3_1$171     inventory_input
     0000155F  A$inventory_input$349              inventory_input
     0000155F  C$inventory_input.c$84$3_1$171     inventory_input
     00001562  A$inventory_input$350              inventory_input
     00001563  A$inventory_input$351              inventory_input
     00001564  A$inventory_input$356              inventory_input
     00001564  C$inventory_input.c$87$2_1$172     inventory_input
     00001566  A$inventory_input$357              inventory_input
     00001568  A$inventory_input$358              inventory_input
     00001569  A$inventory_input$359              inventory_input
     0000156B  A$inventory_input$363              inventory_input
     0000156B  C$inventory_input.c$89$3_1$173     inventory_input
     0000156D  A$inventory_input$367              inventory_input
     0000156D  C$inventory_input.c$90$3_1$173     inventory_input
     00001570  A$inventory_input$368              inventory_input
     00001571  A$inventory_input$373              inventory_input
     00001571  C$inventory_input.c$92$2_1$174     inventory_input
     00001573  A$inventory_input$374              inventory_input
     00001574  A$inventory_input$375              inventory_input
     00001576  A$inventory_input$376              inventory_input
     00001578  A$inventory_input$380              inventory_input
     00001578  C$inventory_input.c$94$3_1$175     inventory_input
     0000157A  A$inventory_input$384              inventory_input
     0000157A  C$inventory_input.c$95$3_1$175     inventory_input
     0000157D  A$inventory_input$385              inventory_input
     0000157E  A$inventory_input$390              inventory_input
     0000157E  C$inventory_input.c$98$1_1$159     inventory_input
     0000157F  A$inventory_input$391              inventory_input
     00001580  A$inventory_input$392              inventory_input
     00001582  A$inventory_input$396              inventory_input
     00001582  C$inventory_input.c$99$1_1$159     inventory_input
     00001583  A$inventory_input$397              inventory_input
     00001584  A$inventory_input$398              inventory_input
     00001587  A$inventory_input$399              inventory_input
     00001588  A$inventory_input$400              inventory_input
     00001589  A$inventory_input$401              inventory_input
     0000158B  A$inventory_input$402              inventory_input
     0000158C  A$inventory_input$403              inventory_input
     0000158D  A$inventory_input$404              inventory_input
     0000158E  A$inventory_input$405              inventory_input
     0000158F  A$inventory_input$410              inventory_input
     00001591  A$inventory_input$415              inventory_input
     00001591  C$inventory_input.c$100$1_1$152    inventory_input
     00001591  XG$inventory_input$0$0             inventory_input
     00001592  G$top_limit$0_0$0                  inventory_input
ASxxxx Linker V03.00/V05.40 + sdld,  page 45.
Hexadecimal  [32-Bits]

Area                                    Addr        Size        Decimal Bytes (Attributes)
--------------------------------        ----        ----        ------- ----- ------------
_CODE                               00000200    000035F9 =       13817. bytes (REL,CON)

      Value  Global                              Global Defined In Module
      -----  --------------------------------   ------------------------
     00001592  _top_limit                         inventory_input
     00001593  G$bottom_limit$0_0$0               inventory_input
     00001593  _bottom_limit                      inventory_input
     00001594  G$left_limit$0_0$0                 inventory_input
     00001594  _left_limit                        inventory_input
     00001595  G$right_limit$0_0$0                inventory_input
     00001595  _right_limit                       inventory_input
     00001596  G$VERTICAL_MOVEMENT$0_0$0          inventory_input
     00001596  _VERTICAL_MOVEMENT                 inventory_input
     00001597  G$HORIZONTAL_MOVEMENT$0_0$0        inventory_input
     00001597  _HORIZONTAL_MOVEMENT               inventory_input
     00001598  A$inventory_scene$61               inventory_scene
     00001598  C$inventory_scene.c$6$0_0$11       inventory_scene
     00001598  C$inventory_scene.c$7$1_0$11       inventory_scene
     00001598  G$InventoryScene_Create$0$0        inventory_scene
     00001598  _InventoryScene_Create             inventory_scene
     0000159B  A$inventory_scene$62               inventory_scene
     0000159D  A$inventory_scene$63               inventory_scene
     0000159E  A$inventory_scene$64               inventory_scene
     000015A0  A$inventory_scene$68               inventory_scene
     000015A0  C$inventory_scene.c$8$1_0$11       inventory_scene
     000015A1  A$inventory_scene$69               inventory_scene
     000015A3  A$inventory_scene$70               inventory_scene
     000015A4  A$inventory_scene$71               inventory_scene
     000015A6  A$inventory_scene$75               inventory_scene
     000015A6  C$inventory_scene.c$9$1_0$11       inventory_scene
     000015A9  A$inventory_scene$76               inventory_scene
     000015AB  A$inventory_scene$84               inventory_scene
     000015AB  C$inventory_scene.c$10$1_0$11      inventory_scene
     000015AB  XG$InventoryScene_Create$0$0       inventory_scene
     000015AC  A$inventory_scene_init$56          inventory_scene_init
     000015AC  C$inventory_scene_init.c$12$0_0$   inventory_scene_init
     000015AC  G$InventoryScene_DrawCoins$0$0     inventory_scene_init
     000015AC  _InventoryScene_DrawCoins          inventory_scene_init
     000015AE  A$inventory_scene_init$60          inventory_scene_init
     000015AE  C$inventory_scene_init.c$14$1_0$   inventory_scene_init
     000015B1  A$inventory_scene_init$61          inventory_scene_init
     000015B3  A$inventory_scene_init$62          inventory_scene_init
     000015B4  A$inventory_scene_init$63          inventory_scene_init
     000015B7  A$inventory_scene_init$64          inventory_scene_init
     000015B9  A$inventory_scene_init$65          inventory_scene_init
     000015BA  A$inventory_scene_init$66          inventory_scene_init
     000015BD  A$inventory_scene_init$67          inventory_scene_init
     000015BE  A$inventory_scene_init$68          inventory_scene_init
     000015BF  A$inventory_scene_init$69          inventory_scene_init
     000015C0  A$inventory_scene_init$70          inventory_scene_init
     000015C3  A$inventory_scene_init$71          inventory_scene_init
     000015C4  A$inventory_scene_init$72          inventory_scene_init
     000015C6  A$inventory_scene_init$73          inventory_scene_init
     000015C9  A$inventory_scene_init$74          inventory_scene_init
     000015CA  A$inventory_scene_init$75          inventory_scene_init
ASxxxx Linker V03.00/V05.40 + sdld,  page 46.
Hexadecimal  [32-Bits]

Area                                    Addr        Size        Decimal Bytes (Attributes)
--------------------------------        ----        ----        ------- ----- ------------
_CODE                               00000200    000035F9 =       13817. bytes (REL,CON)

      Value  Global                              Global Defined In Module
      -----  --------------------------------   ------------------------
     000015CC  A$inventory_scene_init$76          inventory_scene_init
     000015CE  A$inventory_scene_init$77          inventory_scene_init
     000015CF  A$inventory_scene_init$81          inventory_scene_init
     000015CF  C$inventory_scene_init.c$15$1_0$   inventory_scene_init
     000015D2  A$inventory_scene_init$82          inventory_scene_init
     000015D4  A$inventory_scene_init$83          inventory_scene_init
     000015D5  A$inventory_scene_init$84          inventory_scene_init
     000015D6  A$inventory_scene_init$85          inventory_scene_init
     000015D7  A$inventory_scene_init$86          inventory_scene_init
     000015DA  A$inventory_scene_init$87          inventory_scene_init
     000015DB  A$inventory_scene_init$88          inventory_scene_init
     000015DC  A$inventory_scene_init$89          inventory_scene_init
     000015DF  A$inventory_scene_init$90          inventory_scene_init
     000015E2  A$inventory_scene_init$91          inventory_scene_init
     000015E3  A$inventory_scene_init$92          inventory_scene_init
     000015E5  A$inventory_scene_init$93          inventory_scene_init
     000015E7  A$inventory_scene_init$94          inventory_scene_init
     000015E8  A$inventory_scene_init$98          inventory_scene_init
     000015E8  C$inventory_scene_init.c$16$1_0$   inventory_scene_init
     000015EB  A$inventory_scene_init$99          inventory_scene_init
     000015ED  A$inventory_scene_init$100         inventory_scene_init
     000015EE  A$inventory_scene_init$101         inventory_scene_init
     000015EF  A$inventory_scene_init$102         inventory_scene_init
     000015F0  A$inventory_scene_init$103         inventory_scene_init
     000015F3  A$inventory_scene_init$104         inventory_scene_init
     000015F4  A$inventory_scene_init$105         inventory_scene_init
     000015F5  A$inventory_scene_init$106         inventory_scene_init
     000015F8  A$inventory_scene_init$107         inventory_scene_init
     000015FB  A$inventory_scene_init$108         inventory_scene_init
     000015FC  A$inventory_scene_init$109         inventory_scene_init
     000015FE  A$inventory_scene_init$110         inventory_scene_init
     00001600  A$inventory_scene_init$114         inventory_scene_init
     00001600  C$inventory_scene_init.c$17$1_0$   inventory_scene_init
     00001601  A$inventory_scene_init$115         inventory_scene_init
     00001602  A$inventory_scene_init$116         inventory_scene_init
     00001605  A$inventory_scene_init$117         inventory_scene_init
     00001606  A$inventory_scene_init$118         inventory_scene_init
     00001607  A$inventory_scene_init$119         inventory_scene_init
     00001608  A$inventory_scene_init$120         inventory_scene_init
     0000160B  A$inventory_scene_init$121         inventory_scene_init
     0000160C  A$inventory_scene_init$122         inventory_scene_init
     0000160E  A$inventory_scene_init$123         inventory_scene_init
     00001610  A$inventory_scene_init$124         inventory_scene_init
     00001611  A$inventory_scene_init$128         inventory_scene_init
     00001611  C$inventory_scene_init.c$20$1_0$   inventory_scene_init
     00001613  A$inventory_scene_init$132         inventory_scene_init
     00001613  C$inventory_scene_init.c$19$1_0$   inventory_scene_init
     00001614  A$inventory_scene_init$133         inventory_scene_init
     00001617  A$inventory_scene_init$134         inventory_scene_init
     00001618  A$inventory_scene_init$135         inventory_scene_init
     0000161B  A$inventory_scene_init$136         inventory_scene_init
ASxxxx Linker V03.00/V05.40 + sdld,  page 47.
Hexadecimal  [32-Bits]

Area                                    Addr        Size        Decimal Bytes (Attributes)
--------------------------------        ----        ----        ------- ----- ------------
_CODE                               00000200    000035F9 =       13817. bytes (REL,CON)

      Value  Global                              Global Defined In Module
      -----  --------------------------------   ------------------------
     0000161C  A$inventory_scene_init$137         inventory_scene_init
     0000161F  A$inventory_scene_init$138         inventory_scene_init
     00001621  A$inventory_scene_init$142         inventory_scene_init
     00001621  C$inventory_scene_init.c$22$1_0$   inventory_scene_init
     00001623  A$inventory_scene_init$146         inventory_scene_init
     00001623  C$inventory_scene_init.c$21$1_0$   inventory_scene_init
     00001624  A$inventory_scene_init$147         inventory_scene_init
     00001627  A$inventory_scene_init$148         inventory_scene_init
     00001628  A$inventory_scene_init$149         inventory_scene_init
     0000162B  A$inventory_scene_init$150         inventory_scene_init
     0000162C  A$inventory_scene_init$151         inventory_scene_init
     0000162F  A$inventory_scene_init$152         inventory_scene_init
     00001631  A$inventory_scene_init$156         inventory_scene_init
     00001631  C$inventory_scene_init.c$24$1_0$   inventory_scene_init
     00001633  A$inventory_scene_init$160         inventory_scene_init
     00001633  C$inventory_scene_init.c$23$1_0$   inventory_scene_init
     00001634  A$inventory_scene_init$161         inventory_scene_init
     00001637  A$inventory_scene_init$162         inventory_scene_init
     00001638  A$inventory_scene_init$163         inventory_scene_init
     0000163B  A$inventory_scene_init$164         inventory_scene_init
     0000163C  A$inventory_scene_init$165         inventory_scene_init
     0000163F  A$inventory_scene_init$166         inventory_scene_init
     00001641  A$inventory_scene_init$170         inventory_scene_init
     00001641  C$inventory_scene_init.c$26$1_0$   inventory_scene_init
     00001643  A$inventory_scene_init$171         inventory_scene_init
     00001644  A$inventory_scene_init$172         inventory_scene_init
     00001645  A$inventory_scene_init$176         inventory_scene_init
     00001645  C$inventory_scene_init.c$25$1_0$   inventory_scene_init
     00001646  A$inventory_scene_init$177         inventory_scene_init
     00001649  A$inventory_scene_init$178         inventory_scene_init
     0000164A  A$inventory_scene_init$179         inventory_scene_init
     0000164D  A$inventory_scene_init$180         inventory_scene_init
     0000164E  A$inventory_scene_init$181         inventory_scene_init
     00001651  A$inventory_scene_init$185         inventory_scene_init
     00001653  A$inventory_scene_init$190         inventory_scene_init
     00001653  C$inventory_scene_init.c$27$1_0$   inventory_scene_init
     00001653  XG$InventoryScene_DrawCoins$0$0    inventory_scene_init
     00001654  A$inventory_scene_init$200         inventory_scene_init
     00001654  C$inventory_scene_init.c$29$1_0$   inventory_scene_init
     00001654  G$InventoryScene_Init$0$0          inventory_scene_init
     00001654  _InventoryScene_Init               inventory_scene_init
     00001655  A$inventory_scene_init$204         inventory_scene_init
     00001655  C$inventory_scene_init.c$31$1_0$   inventory_scene_init
     00001658  A$inventory_scene_init$205         inventory_scene_init
     00001659  A$inventory_scene_init$206         inventory_scene_init
     0000165A  A$inventory_scene_init$207         inventory_scene_init
     0000165B  A$inventory_scene_init$208         inventory_scene_init
     0000165C  A$inventory_scene_init$212         inventory_scene_init
     0000165C  C$inventory_scene_init.c$32$1_0$   inventory_scene_init
     0000165F  A$inventory_scene_init$216         inventory_scene_init
     0000165F  C$inventory_scene_init.c$34$1_0$   inventory_scene_init
ASxxxx Linker V03.00/V05.40 + sdld,  page 48.
Hexadecimal  [32-Bits]

Area                                    Addr        Size        Decimal Bytes (Attributes)
--------------------------------        ----        ----        ------- ----- ------------
_CODE                               00000200    000035F9 =       13817. bytes (REL,CON)

      Value  Global                              Global Defined In Module
      -----  --------------------------------   ------------------------
     00001660  A$inventory_scene_init$217         inventory_scene_init
     00001663  A$inventory_scene_init$221         inventory_scene_init
     00001663  C$inventory_scene_init.c$36$2_0$   inventory_scene_init
     00001665  A$inventory_scene_init$222         inventory_scene_init
     00001667  A$inventory_scene_init$226         inventory_scene_init
     00001667  C$inventory_scene_init.c$38$1_1$   inventory_scene_init
     0000166A  A$inventory_scene_init$227         inventory_scene_init
     0000166B  A$inventory_scene_init$228         inventory_scene_init
     0000166E  A$inventory_scene_init$229         inventory_scene_init
     0000166F  A$inventory_scene_init$230         inventory_scene_init
     00001672  A$inventory_scene_init$231         inventory_scene_init
     00001674  A$inventory_scene_init$235         inventory_scene_init
     00001674  C$inventory_scene_init.c$39$1_1$   inventory_scene_init
     00001677  A$inventory_scene_init$236         inventory_scene_init
     00001678  A$inventory_scene_init$237         inventory_scene_init
     0000167B  A$inventory_scene_init$238         inventory_scene_init
     0000167C  A$inventory_scene_init$239         inventory_scene_init
     0000167D  A$inventory_scene_init$240         inventory_scene_init
     0000167E  A$inventory_scene_init$241         inventory_scene_init
     0000167F  A$inventory_scene_init$242         inventory_scene_init
     00001682  A$inventory_scene_init$243         inventory_scene_init
     00001684  A$inventory_scene_init$247         inventory_scene_init
     00001684  C$inventory_scene_init.c$41$3_1$   inventory_scene_init
     00001686  A$inventory_scene_init$249         inventory_scene_init
     00001687  A$inventory_scene_init$250         inventory_scene_init
     00001689  A$inventory_scene_init$251         inventory_scene_init
     0000168B  A$inventory_scene_init$255         inventory_scene_init
     0000168B  C$inventory_scene_init.c$43$4_1$   inventory_scene_init
     0000168C  A$inventory_scene_init$256         inventory_scene_init
     0000168D  A$inventory_scene_init$257         inventory_scene_init
     0000168E  A$inventory_scene_init$258         inventory_scene_init
     0000168F  A$inventory_scene_init$259         inventory_scene_init
     00001692  A$inventory_scene_init$260         inventory_scene_init
     00001693  A$inventory_scene_init$261         inventory_scene_init
     00001694  A$inventory_scene_init$262         inventory_scene_init
     00001695  A$inventory_scene_init$263         inventory_scene_init
     00001696  A$inventory_scene_init$264         inventory_scene_init
     00001698  A$inventory_scene_init$268         inventory_scene_init
     00001698  C$inventory_scene_init.c$46$3_1$   inventory_scene_init
     0000169B  A$inventory_scene_init$269         inventory_scene_init
     0000169C  A$inventory_scene_init$270         inventory_scene_init
     0000169F  A$inventory_scene_init$271         inventory_scene_init
     000016A0  A$inventory_scene_init$272         inventory_scene_init
     000016A3  A$inventory_scene_init$273         inventory_scene_init
     000016A5  A$inventory_scene_init$277         inventory_scene_init
     000016A5  C$inventory_scene_init.c$47$3_1$   inventory_scene_init
     000016A7  A$inventory_scene_init$278         inventory_scene_init
     000016A8  A$inventory_scene_init$279         inventory_scene_init
     000016AB  A$inventory_scene_init$280         inventory_scene_init
     000016AC  A$inventory_scene_init$281         inventory_scene_init
     000016AF  A$inventory_scene_init$282         inventory_scene_init
ASxxxx Linker V03.00/V05.40 + sdld,  page 49.
Hexadecimal  [32-Bits]

Area                                    Addr        Size        Decimal Bytes (Attributes)
--------------------------------        ----        ----        ------- ----- ------------
_CODE                               00000200    000035F9 =       13817. bytes (REL,CON)

      Value  Global                              Global Defined In Module
      -----  --------------------------------   ------------------------
     000016B0  A$inventory_scene_init$283         inventory_scene_init
     000016B3  A$inventory_scene_init$284         inventory_scene_init
     000016B5  A$inventory_scene_init$289         inventory_scene_init
     000016B5  C$inventory_scene_init.c$41$2_1$   inventory_scene_init
     000016B6  A$inventory_scene_init$290         inventory_scene_init
     000016B8  A$inventory_scene_init$295         inventory_scene_init
     000016B8  C$inventory_scene_init.c$50$1_1$   inventory_scene_init
     000016BB  A$inventory_scene_init$299         inventory_scene_init
     000016BC  A$inventory_scene_init$304         inventory_scene_init
     000016BC  C$inventory_scene_init.c$51$1_1$   inventory_scene_init
     000016BC  XG$InventoryScene_Init$0$0         inventory_scene_init
     000016BD  A$inventory_scene_update$57        inventory_scene_update
     000016BD  C$inventory_scene_update.c$8$0_0   inventory_scene_update
     000016BD  C$inventory_scene_update.c$9$1_0   inventory_scene_update
     000016BD  G$InventoryScene_Update$0$0        inventory_scene_update
     000016BD  _InventoryScene_Update             inventory_scene_update
     000016C0  A$inventory_scene_update$58        inventory_scene_update
     000016C3  A$inventory_scene_update$69        inventory_scene_update
     000016C3  C$inventory_scene_update.c$10$1_   inventory_scene_update
     000016C3  C$inventory_scene_update.c$11$1_   inventory_scene_update
     000016C3  XG$InventoryScene_Update$0$0       inventory_scene_update
     000016C6  A$load$64                          load
     000016C6  C$load.c$10$0_0$134                load
     000016C6  G$load_actor_tiles$0$0             load
     000016C6  _load_actor_tiles                  load
     000016C8  A$load$65                          load
     000016CA  A$load$66                          load
     000016CB  A$load$67                          load
     000016CC  A$load$68                          load
     000016CD  A$load$69                          load
     000016CE  A$load$70                          load
     000016CF  A$load$74                          load
     000016CF  C$load.c$12$2_0$134                load
     000016D2  A$load$75                          load
     000016D3  A$load$79                          load
     000016D3  C$load.c$15$1_0$134                load
     000016D5  A$load$81                          load
     000016D6  A$load$82                          load
     000016D8  A$load$83                          load
     000016D9  A$load$84                          load
     000016DB  A$load$88                          load
     000016DB  C$load.c$17$3_0$136                load
     000016DC  A$load$89                          load
     000016DE  A$load$90                          load
     000016DF  A$load$91                          load
     000016E0  A$load$92                          load
     000016E1  A$load$93                          load
     000016E3  A$load$94                          load
     000016E4  A$load$95                          load
     000016E5  A$load$96                          load
     000016E6  A$load$97                          load
ASxxxx Linker V03.00/V05.40 + sdld,  page 50.
Hexadecimal  [32-Bits]

Area                                    Addr        Size        Decimal Bytes (Attributes)
--------------------------------        ----        ----        ------- ----- ------------
_CODE                               00000200    000035F9 =       13817. bytes (REL,CON)

      Value  Global                              Global Defined In Module
      -----  --------------------------------   ------------------------
     000016E7  A$load$98                          load
     000016E8  A$load$99                          load
     000016E9  A$load$100                         load
     000016EA  A$load$101                         load
     000016EB  A$load$102                         load
     000016EC  A$load$103                         load
     000016ED  A$load$104                         load
     000016EE  A$load$105                         load
     000016EF  A$load$106                         load
     000016F0  A$load$107                         load
     000016F1  A$load$108                         load
     000016F2  A$load$109                         load
     000016F3  A$load$110                         load
     000016F4  A$load$111                         load
     000016F6  A$load$112                         load
     000016F7  A$load$113                         load
     000016F8  A$load$114                         load
     000016F9  A$load$115                         load
     000016FA  A$load$116                         load
     000016FD  A$load$117                         load
     000016FF  A$load$121                         load
     000016FF  C$load.c$15$2_0$135                load
     00001700  A$load$122                         load
     00001702  A$load$127                         load
     00001702  C$load.c$21$1_0$134                load
     00001705  A$load$128                         load
     00001707  A$load$129                         load
     00001708  A$load$130                         load
     0000170A  A$load$131                         load
     0000170B  A$load$132                         load
     0000170C  A$load$133                         load
     0000170D  A$load$134                         load
     0000170E  A$load$135                         load
     0000170F  A$load$139                         load
     0000170F  C$load.c$22$1_0$134                load
     00001712  A$load$140                         load
     00001714  A$load$141                         load
     00001715  A$load$142                         load
     00001717  A$load$143                         load
     00001718  A$load$144                         load
     00001719  A$load$145                         load
     0000171A  A$load$146                         load
     0000171C  A$load$147                         load
     0000171D  A$load$148                         load
     0000171E  A$load$152                         load
     0000171E  C$load.c$25$1_0$134                load
     00001721  A$load$153                         load
     00001723  A$load$154                         load
     00001724  A$load$155                         load
     00001727  A$load$159                         load
     00001727  C$load.c$27$1_0$134                load
ASxxxx Linker V03.00/V05.40 + sdld,  page 51.
Hexadecimal  [32-Bits]

Area                                    Addr        Size        Decimal Bytes (Attributes)
--------------------------------        ----        ----        ------- ----- ------------
_CODE                               00000200    000035F9 =       13817. bytes (REL,CON)

      Value  Global                              Global Defined In Module
      -----  --------------------------------   ------------------------
     00001728  A$load$163                         load
     00001728  C$load.c$28$1_0$134                load
     0000172A  A$load$164                         load
     0000172B  A$load$165                         load
     0000172C  A$load$166                         load
     0000172D  A$load$176                         load
     0000172D  C$load.c$30$1_0$138                load
     0000172D  G$load_extra_tiles$0$0             load
     0000172D  _load_extra_tiles                  load
     0000172F  A$load$177                         load
     00001730  A$load$181                         load
     00001730  C$load.c$32$2_0$139                load
     00001733  A$load$182                         load
     00001734  A$load$183                         load
     00001736  A$load$184                         load
     00001738  A$load$188                         load
     00001738  C$load.c$33$2_0$139                load
     0000173A  A$load$193                         load
     0000173A  C$load.c$35$2_0$140                load
     0000173D  A$load$194                         load
     0000173E  A$load$198                         load
     0000173E  C$load.c$37$1_1$140                load
     0000173F  A$load$199                         load
     00001741  A$load$200                         load
     00001742  A$load$201                         load
     00001743  A$load$202                         load
     00001744  A$load$203                         load
     00001745  A$load$204                         load
     00001746  A$load$205                         load
     00001749  A$load$206                         load
     0000174B  A$load$210                         load
     0000174B  C$load.c$39$1_1$140                load
     0000174E  A$load$211                         load
     00001750  A$load$212                         load
     00001751  A$load$213                         load
     00001754  A$load$217                         load
     00001754  C$load.c$42$1_2$141                load
     00001756  A$load$218                         load
     00001757  A$load$222                         load
     00001757  C$load.c$43$1_2$141                load
     00001759  A$load$223                         load
     0000175A  A$load$224                         load
     0000175C  A$load$228                         load
     0000175C  C$load.c$44$1_2$141                load
     0000175D  A$load$229                         load
     0000175E  A$load$233                         load
     0000175E  C$load.c$46$1_2$141                load
     00001761  A$load$234                         load
     00001762  A$load$235                         load
     00001764  A$load$236                         load
     00001765  A$load$237                         load
ASxxxx Linker V03.00/V05.40 + sdld,  page 52.
Hexadecimal  [32-Bits]

Area                                    Addr        Size        Decimal Bytes (Attributes)
--------------------------------        ----        ----        ------- ----- ------------
_CODE                               00000200    000035F9 =       13817. bytes (REL,CON)

      Value  Global                              Global Defined In Module
      -----  --------------------------------   ------------------------
     00001766  A$load$238                         load
     00001767  A$load$239                         load
     00001768  A$load$240                         load
     0000176B  A$load$241                         load
     0000176C  A$load$242                         load
     0000176D  A$load$243                         load
     0000176E  A$load$244                         load
     00001771  A$load$245                         load
     00001772  A$load$246                         load
     00001775  A$load$247                         load
     00001776  A$load$248                         load
     00001777  A$load$249                         load
     00001778  A$load$250                         load
     0000177B  A$load$254                         load
     0000177B  C$load.c$48$1_2$141                load
     0000177E  A$load$255                         load
     0000177F  A$load$256                         load
     00001782  A$load$257                         load
     00001783  A$load$258                         load
     00001784  A$load$262                         load
     00001784  C$load.c$49$1_2$138                load
     00001786  A$load$263                         load
     00001787  A$load$264                         load
     00001788  A$load$265                         load
     00001789  A$load$278                         load
     00001789  C$load.c$51$1_2$142                load
     00001789  C$load.c$53$1_0$142                load
     00001789  G$reset_extra_tiles$0$0            load
     00001789  _reset_extra_tiles                 load
     0000178C  A$load$279                         load
     0000178E  A$load$287                         load
     0000178E  C$load.c$54$1_0$142                load
     0000178E  XG$reset_extra_tiles$0$0           load
     0000178F  A$load$300                         load
     0000178F  C$load.c$56$1_0$144                load
     0000178F  C$load.c$58$3_0$146                load
     0000178F  G$reset_render_component$0$0       load
     0000178F  _reset_render_component            load
     00001791  A$load$302                         load
     00001792  A$load$303                         load
     00001795  A$load$304                         load
     00001796  A$load$305                         load
     00001798  A$load$309                         load
     00001798  C$load.c$60$3_0$146                load
     0000179B  A$load$310                         load
     0000179D  A$load$311                         load
     0000179E  A$load$312                         load
     000017A0  A$load$316                         load
     000017A0  C$load.c$61$3_0$146                load
     000017A3  A$load$317                         load
     000017A5  A$load$318                         load
ASxxxx Linker V03.00/V05.40 + sdld,  page 53.
Hexadecimal  [32-Bits]

Area                                    Addr        Size        Decimal Bytes (Attributes)
--------------------------------        ----        ----        ------- ----- ------------
_CODE                               00000200    000035F9 =       13817. bytes (REL,CON)

      Value  Global                              Global Defined In Module
      -----  --------------------------------   ------------------------
     000017A6  A$load$319                         load
     000017A8  A$load$323                         load
     000017A8  C$load.c$58$2_0$145                load
     000017A9  A$load$324                         load
     000017AB  A$load$329                         load
     000017AB  C$load.c$64$1_0$144                load
     000017AC  A$load$330                         load
     000017AF  A$load$338                         load
     000017AF  C$load.c$65$1_0$144                load
     000017AF  XG$reset_render_component$0$0      load
     000017B0  A$main$72                          main
     000017B0  C$main.c$27$0_0$179                main
     000017B0  C$main.c$29$1_0$179                main
     000017B0  C$main.c$30$1_0$179                main
     000017B0  G$load_number_tiles$0$0            main
     000017B0  _load_number_tiles                 main
     000017B3  A$main$73                          main
     000017B4  A$main$74                          main
     000017B7  A$main$75                          main
     000017B8  A$main$76                          main
     000017BB  A$main$77                          main
     000017BD  A$main$84                          main
     000017BD  C$main.c$31$1_0$179                main
     000017BD  C$main.c$32$1_0$179                main
     000017C0  A$main$85                          main
     000017C1  A$main$86                          main
     000017C4  A$main$87                          main
     000017C5  A$main$88                          main
     000017C8  A$main$89                          main
     000017CA  A$main$100                         main
     000017CA  C$main.c$34$1_0$179                main
     000017CA  C$main.c$35$1_0$179                main
     000017CA  XG$load_number_tiles$0$0           main
     000017CD  A$main$113                         main
     000017CD  C$main.c$37$1_0$181                main
     000017CD  C$main.c$39$1_0$181                main
     000017CD  G$main$0$0                         main
     000017CD  _main                              main
     000017CF  A$main$114                         main
     000017D1  A$main$115                         main
     000017D3  A$main$119                         main
     000017D3  C$main.c$40$1_0$181                main
     000017D5  A$main$120                         main
     000017D7  A$main$121                         main
     000017D9  A$main$125                         main
     000017D9  C$main.c$43$1_0$181                main
     000017DB  A$main$126                         main
     000017DD  A$main$130                         main
     000017DD  C$main.c$47$1_0$181                main
     000017DF  A$main$131                         main
     000017E1  A$main$135                         main
ASxxxx Linker V03.00/V05.40 + sdld,  page 54.
Hexadecimal  [32-Bits]

Area                                    Addr        Size        Decimal Bytes (Attributes)
--------------------------------        ----        ----        ------- ----- ------------
_CODE                               00000200    000035F9 =       13817. bytes (REL,CON)

      Value  Global                              Global Defined In Module
      -----  --------------------------------   ------------------------
     000017E1  C$main.c$51$1_0$181                main
     000017E3  A$main$136                         main
     000017E5  A$main$140                         main
     000017E5  C$main.c$60$1_1$182                main
     000017E8  A$main$141                         main
     000017EA  A$main$142                         main
     000017EB  A$main$143                         main
     000017ED  A$main$147                         main
     000017ED  C$main.c$62$1_1$182                main
     000017F0  A$main$151                         main
     000017F0  C$main.c$64$1_1$182                main
     000017F3  A$main$155                         main
     000017F3  C$main.c$65$1_1$182                main
     000017F6  A$main$159                         main
     000017F6  C$main.c$67$1_1$182                main
     000017F9  A$main$163                         main
     000017F9  C$main.c$70$1_2$183                main
     000017FC  A$main$164                         main
     000017FF  A$main$168                         main
     000017FF  C$main.c$72$1_2$183                main
     00001802  A$main$169                         main
     00001803  A$main$170                         main
     00001804  A$main$171                         main
     00001805  A$main$172                         main
     00001808  A$main$173                         main
     0000180A  A$main$174                         main
     0000180B  A$main$175                         main
     0000180C  A$main$176                         main
     0000180D  A$main$177                         main
     0000180E  A$main$178                         main
     00001811  A$main$182                         main
     00001811  C$main.c$74$1_2$183                main
     00001814  A$main$187                         main
     00001814  C$main.c$76$1_2$183                main
     00001817  A$main$188                         main
     00001818  A$main$189                         main
     00001819  A$main$190                         main
     0000181A  A$main$191                         main
     0000181B  A$main$192                         main
     0000181C  A$main$193                         main
     0000181D  A$main$197                         main
     0000181D  C$main.c$78$2_2$184                main
     00001820  A$main$198                         main
     00001823  A$main$202                         main
     00001823  C$main.c$79$2_2$184                main
     00001826  A$main$203                         main
     00001829  A$main$207                         main
     00001829  C$main.c$81$3_2$185                main
     0000182B  A$main$208                         main
     0000182C  A$main$212                         main
     0000182C  C$main.c$82$3_3$186                main
ASxxxx Linker V03.00/V05.40 + sdld,  page 55.
Hexadecimal  [32-Bits]

Area                                    Addr        Size        Decimal Bytes (Attributes)
--------------------------------        ----        ----        ------- ----- ------------
_CODE                               00000200    000035F9 =       13817. bytes (REL,CON)

      Value  Global                              Global Defined In Module
      -----  --------------------------------   ------------------------
     0000182F  A$main$213                         main
     00001830  A$main$214                         main
     00001831  A$main$215                         main
     00001832  A$main$216                         main
     00001835  A$main$217                         main
     00001836  A$main$218                         main
     00001837  A$main$219                         main
     00001839  A$main$220                         main
     0000183A  A$main$221                         main
     0000183C  A$main$225                         main
     0000183C  C$main.c$83$3_3$186                main
     0000183D  A$main$226                         main
     0000183F  A$main$227                         main
     00001840  A$main$228                         main
     00001843  A$main$233                         main
     00001843  C$main.c$85$2_3$185                main
     00001846  A$main$234                         main
     00001847  A$main$235                         main
     00001848  A$main$236                         main
     00001849  A$main$237                         main
     0000184A  A$main$238                         main
     0000184B  A$main$239                         main
     0000184C  A$main$240                         main
     0000184D  A$main$241                         main
     0000184E  A$main$242                         main
     0000184F  A$main$243                         main
     00001850  A$main$244                         main
     00001851  A$main$245                         main
     00001852  A$main$246                         main
     00001853  A$main$247                         main
     00001854  A$main$248                         main
     00001855  A$main$249                         main
     00001858  A$main$250                         main
     00001859  A$main$251                         main
     0000185A  A$main$252                         main
     0000185B  A$main$254                         main
     0000185C  A$main$258                         main
     0000185C  C$main.c$87$3_3$187                main
     0000185E  A$main$259                         main
     0000185F  A$main$260                         main
     00001861  A$main$264                         main
     00001861  C$main.c$88$3_3$187                main
     00001862  A$main$265                         main
     00001864  A$main$266                         main
     00001867  A$main$267                         main
     00001868  A$main$272                         main
     00001868  C$main.c$90$2_3$185                main
     0000186B  A$main$276                         main
     0000186B  C$main.c$91$2_3$185                main
     0000186E  A$main$284                         main
     0000186E  C$main.c$93$1_2$181                main
ASxxxx Linker V03.00/V05.40 + sdld,  page 56.
Hexadecimal  [32-Bits]

Area                                    Addr        Size        Decimal Bytes (Attributes)
--------------------------------        ----        ----        ------- ----- ------------
_CODE                               00000200    000035F9 =       13817. bytes (REL,CON)

      Value  Global                              Global Defined In Module
      -----  --------------------------------   ------------------------
     0000186E  XG$main$0$0                        main
     00001870  A$main_menu$73                     main_menu
     00001870  C$main_menu.c$11$1_0$173           main_menu
     00001870  C$main_menu.c$9$0_0$173            main_menu
     00001870  G$MainMenu_Create$0$0              main_menu
     00001870  _MainMenu_Create                   main_menu
     00001873  A$main_menu$74                     main_menu
     00001875  A$main_menu$75                     main_menu
     00001876  A$main_menu$76                     main_menu
     00001878  A$main_menu$80                     main_menu
     00001878  C$main_menu.c$12$1_0$173           main_menu
     00001879  A$main_menu$81                     main_menu
     0000187B  A$main_menu$82                     main_menu
     0000187C  A$main_menu$86                     main_menu
     0000187C  C$main_menu.c$13$1_0$173           main_menu
     0000187E  A$main_menu$87                     main_menu
     0000187F  A$main_menu$88                     main_menu
     00001880  A$main_menu$89                     main_menu
     00001881  A$main_menu$90                     main_menu
     00001882  A$main_menu$94                     main_menu
     00001882  C$main_menu.c$14$1_0$173           main_menu
     00001885  A$main_menu$95                     main_menu
     00001887  A$main_menu$99                     main_menu
     00001887  C$main_menu.c$16$1_0$173           main_menu
     0000188A  A$main_menu$100                    main_menu
     0000188B  A$main_menu$101                    main_menu
     0000188C  A$main_menu$102                    main_menu
     0000188D  A$main_menu$110                    main_menu
     0000188D  C$main_menu.c$17$1_0$173           main_menu
     0000188D  XG$MainMenu_Create$0$0             main_menu
     0000188E  A$main_menu_init$58                main_menu_init
     0000188E  C$main_menu_init.c$10$0_0$184      main_menu_init
     0000188E  C$main_menu_init.c$12$1_0$184      main_menu_init
     0000188E  G$MainMenu_Init$0$0                main_menu_init
     0000188E  _MainMenu_Init                     main_menu_init
     00001891  A$main_menu_init$59                main_menu_init
     00001892  A$main_menu_init$60                main_menu_init
     00001893  A$main_menu_init$61                main_menu_init
     00001894  A$main_menu_init$62                main_menu_init
     00001895  A$main_menu_init$66                main_menu_init
     00001895  C$main_menu_init.c$14$1_0$184      main_menu_init
     00001898  A$main_menu_init$67                main_menu_init
     00001899  A$main_menu_init$68                main_menu_init
     0000189C  A$main_menu_init$69                main_menu_init
     0000189D  A$main_menu_init$70                main_menu_init
     000018A0  A$main_menu_init$71                main_menu_init
     000018A2  A$main_menu_init$75                main_menu_init
     000018A2  C$main_menu_init.c$15$1_0$184      main_menu_init
     000018A5  A$main_menu_init$76                main_menu_init
     000018A6  A$main_menu_init$77                main_menu_init
     000018A9  A$main_menu_init$78                main_menu_init
ASxxxx Linker V03.00/V05.40 + sdld,  page 57.
Hexadecimal  [32-Bits]

Area                                    Addr        Size        Decimal Bytes (Attributes)
--------------------------------        ----        ----        ------- ----- ------------
_CODE                               00000200    000035F9 =       13817. bytes (REL,CON)

      Value  Global                              Global Defined In Module
      -----  --------------------------------   ------------------------
     000018AA  A$main_menu_init$79                main_menu_init
     000018AB  A$main_menu_init$80                main_menu_init
     000018AC  A$main_menu_init$81                main_menu_init
     000018AD  A$main_menu_init$82                main_menu_init
     000018B0  A$main_menu_init$83                main_menu_init
     000018B2  A$main_menu_init$87                main_menu_init
     000018B2  C$main_menu_init.c$17$1_0$184      main_menu_init
     000018B5  A$main_menu_init$95                main_menu_init
     000018B5  C$main_menu_init.c$18$1_0$184      main_menu_init
     000018B5  XG$MainMenu_Init$0$0               main_menu_init
     000018B8  A$main_menu_init_stats$59          main_menu_init_stats
     000018B8  C$main_menu_init_stats.c$3$0_0$1   main_menu_init_stats
     000018B8  C$main_menu_init_stats.c$5$0_0$1   main_menu_init_stats
     000018B8  G$MainMenu_InitRandomStats$0$0     main_menu_init_stats
     000018B8  XG$MainMenu_InitRandomStats$0$0    main_menu_init_stats
     000018B8  _MainMenu_InitRandomStats          main_menu_init_stats
     000018B9  A$main_menu_input$53               main_menu_input
     000018B9  C$main_menu_input.c$12$0_0$190     main_menu_input
     000018B9  G$MainMenu_CheckInput$0$0          main_menu_input
     000018B9  _MainMenu_CheckInput               main_menu_input
     000018BA  A$main_menu_input$57               main_menu_input
     000018BA  C$main_menu_input.c$14$2_0$190     main_menu_input
     000018BD  A$main_menu_input$58               main_menu_input
     000018BE  A$main_menu_input$59               main_menu_input
     000018C0  A$main_menu_input$60               main_menu_input
     000018C3  A$main_menu_input$61               main_menu_input
     000018C4  A$main_menu_input$62               main_menu_input
     000018C6  A$main_menu_input$66               main_menu_input
     000018C6  C$main_menu_input.c$16$3_0$191     main_menu_input
     000018C8  A$main_menu_input$67               main_menu_input
     000018CB  A$main_menu_input$68               main_menu_input
     000018CC  A$main_menu_input$69               main_menu_input
     000018CE  A$main_menu_input$73               main_menu_input
     000018CE  C$main_menu_input.c$17$3_0$191     main_menu_input
     000018D0  A$main_menu_input$74               main_menu_input
     000018D1  A$main_menu_input$75               main_menu_input
     000018D2  A$main_menu_input$79               main_menu_input
     000018D2  C$main_menu_input.c$19$5_0$193     main_menu_input
     000018D4  A$main_menu_input$80               main_menu_input
     000018D6  A$main_menu_input$82               main_menu_input
     000018D8  A$main_menu_input$83               main_menu_input
     000018D9  A$main_menu_input$84               main_menu_input
     000018DB  A$main_menu_input$85               main_menu_input
     000018DD  A$main_menu_input$89               main_menu_input
     000018DD  C$main_menu_input.c$21$5_0$193     main_menu_input
     000018E0  A$main_menu_input$90               main_menu_input
     000018E1  A$main_menu_input$91               main_menu_input
     000018E3  A$main_menu_input$92               main_menu_input
     000018E4  A$main_menu_input$93               main_menu_input
     000018E5  A$main_menu_input$94               main_menu_input
     000018E8  A$main_menu_input$95               main_menu_input
ASxxxx Linker V03.00/V05.40 + sdld,  page 58.
Hexadecimal  [32-Bits]

Area                                    Addr        Size        Decimal Bytes (Attributes)
--------------------------------        ----        ----        ------- ----- ------------
_CODE                               00000200    000035F9 =       13817. bytes (REL,CON)

      Value  Global                              Global Defined In Module
      -----  --------------------------------   ------------------------
     000018E9  A$main_menu_input$96               main_menu_input
     000018EA  A$main_menu_input$97               main_menu_input
     000018ED  A$main_menu_input$98               main_menu_input
     000018EE  A$main_menu_input$99               main_menu_input
     000018EF  A$main_menu_input$100              main_menu_input
     000018F2  A$main_menu_input$101              main_menu_input
     000018F3  A$main_menu_input$102              main_menu_input
     000018F4  A$main_menu_input$103              main_menu_input
     000018F5  A$main_menu_input$107              main_menu_input
     000018F5  C$main_menu_input.c$19$4_0$192     main_menu_input
     000018F7  A$main_menu_input$108              main_menu_input
     000018F8  A$main_menu_input$109              main_menu_input
     000018FA  A$main_menu_input$114              main_menu_input
     000018FA  C$main_menu_input.c$25$3_0$191     main_menu_input
     000018FD  A$main_menu_input$115              main_menu_input
     000018FE  A$main_menu_input$116              main_menu_input
     000018FF  A$main_menu_input$117              main_menu_input
     00001900  A$main_menu_input$118              main_menu_input
     00001903  A$main_menu_input$119              main_menu_input
     00001905  A$main_menu_input$120              main_menu_input
     00001906  A$main_menu_input$121              main_menu_input
     00001907  A$main_menu_input$122              main_menu_input
     00001908  A$main_menu_input$123              main_menu_input
     00001909  A$main_menu_input$128              main_menu_input
     0000190A  A$main_menu_input$133              main_menu_input
     0000190A  C$main_menu_input.c$27$2_0$190     main_menu_input
     0000190A  XG$MainMenu_CheckInput$0$0         main_menu_input
     0000190B  A$main_menu_update$56              main_menu_update
     0000190B  C$main_menu_update.c$9$0_0$174     main_menu_update
     0000190B  G$MainMenu_Update$0$0              main_menu_update
     0000190B  _MainMenu_Update                   main_menu_update
     0000190D  A$main_menu_update$60              main_menu_update
     0000190D  C$main_menu_update.c$11$1_0$174    main_menu_update
     00001910  A$main_menu_update$61              main_menu_update
     00001911  A$main_menu_update$62              main_menu_update
     00001913  A$main_menu_update$63              main_menu_update
     00001914  A$main_menu_update$64              main_menu_update
     00001915  A$main_menu_update$69              main_menu_update
     00001915  C$main_menu_update.c$12$1_0$174    main_menu_update
     00001918  A$main_menu_update$73              main_menu_update
     00001918  C$main_menu_update.c$14$1_0$174    main_menu_update
     0000191B  A$main_menu_update$77              main_menu_update
     0000191B  C$main_menu_update.c$16$2_0$175    main_menu_update
     0000191E  A$main_menu_update$78              main_menu_update
     0000191F  A$main_menu_update$79              main_menu_update
     00001921  A$main_menu_update$80              main_menu_update
     00001924  A$main_menu_update$81              main_menu_update
     00001925  A$main_menu_update$82              main_menu_update
     00001926  A$main_menu_update$83              main_menu_update
     00001927  A$main_menu_update$84              main_menu_update
     00001928  A$main_menu_update$85              main_menu_update
ASxxxx Linker V03.00/V05.40 + sdld,  page 59.
Hexadecimal  [32-Bits]

Area                                    Addr        Size        Decimal Bytes (Attributes)
--------------------------------        ----        ----        ------- ----- ------------
_CODE                               00000200    000035F9 =       13817. bytes (REL,CON)

      Value  Global                              Global Defined In Module
      -----  --------------------------------   ------------------------
     0000192B  A$main_menu_update$89              main_menu_update
     0000192B  C$main_menu_update.c$18$3_0$176    main_menu_update
     0000192C  A$main_menu_update$90              main_menu_update
     0000192D  A$main_menu_update$91              main_menu_update
     0000192E  A$main_menu_update$92              main_menu_update
     0000192F  A$main_menu_update$96              main_menu_update
     0000192F  C$main_menu_update.c$20$4_0$177    main_menu_update
     00001932  A$main_menu_update$100             main_menu_update
     00001932  C$main_menu_update.c$22$5_0$178    main_menu_update
     00001933  A$main_menu_update$101             main_menu_update
     00001935  A$main_menu_update$102             main_menu_update
     00001938  A$main_menu_update$106             main_menu_update
     00001938  C$main_menu_update.c$24$6_0$180    main_menu_update
     0000193A  A$main_menu_update$107             main_menu_update
     0000193C  A$main_menu_update$111             main_menu_update
     0000193C  C$main_menu_update.c$25$2_0$174    main_menu_update
     0000193E  A$main_menu_update$113             main_menu_update
     0000193F  A$main_menu_update$114             main_menu_update
     00001941  A$main_menu_update$115             main_menu_update
     00001943  A$main_menu_update$119             main_menu_update
     00001943  C$main_menu_update.c$27$7_1$181    main_menu_update
     00001944  A$main_menu_update$120             main_menu_update
     00001947  A$main_menu_update$121             main_menu_update
     00001948  A$main_menu_update$122             main_menu_update
     00001949  A$main_menu_update$123             main_menu_update
     0000194C  A$main_menu_update$124             main_menu_update
     0000194D  A$main_menu_update$125             main_menu_update
     0000194F  A$main_menu_update$126             main_menu_update
     00001950  A$main_menu_update$127             main_menu_update
     00001951  A$main_menu_update$128             main_menu_update
     00001952  A$main_menu_update$129             main_menu_update
     00001953  A$main_menu_update$130             main_menu_update
     00001956  A$main_menu_update$131             main_menu_update
     00001958  A$main_menu_update$135             main_menu_update
     00001958  C$main_menu_update.c$25$6_1$180    main_menu_update
     00001959  A$main_menu_update$136             main_menu_update
     0000195B  A$main_menu_update$141             main_menu_update
     0000195B  C$main_menu_update.c$32$5_0$182    main_menu_update
     0000195E  A$main_menu_update$142             main_menu_update
     00001960  A$main_menu_update$146             main_menu_update
     00001960  C$main_menu_update.c$34$6_0$184    main_menu_update
     00001962  A$main_menu_update$147             main_menu_update
     00001964  A$main_menu_update$148             main_menu_update
     00001965  A$main_menu_update$149             main_menu_update
     00001967  A$main_menu_update$150             main_menu_update
     00001968  A$main_menu_update$151             main_menu_update
     0000196A  A$main_menu_update$152             main_menu_update
     0000196B  A$main_menu_update$153             main_menu_update
     0000196D  A$main_menu_update$154             main_menu_update
     0000196E  A$main_menu_update$155             main_menu_update
     0000196F  A$main_menu_update$156             main_menu_update
ASxxxx Linker V03.00/V05.40 + sdld,  page 60.
Hexadecimal  [32-Bits]

Area                                    Addr        Size        Decimal Bytes (Attributes)
--------------------------------        ----        ----        ------- ----- ------------
_CODE                               00000200    000035F9 =       13817. bytes (REL,CON)

      Value  Global                              Global Defined In Module
      -----  --------------------------------   ------------------------
     00001971  A$main_menu_update$157             main_menu_update
     00001972  A$main_menu_update$158             main_menu_update
     00001973  A$main_menu_update$159             main_menu_update
     00001975  A$main_menu_update$160             main_menu_update
     00001976  A$main_menu_update$161             main_menu_update
     00001978  A$main_menu_update$162             main_menu_update
     00001979  A$main_menu_update$163             main_menu_update
     0000197B  A$main_menu_update$164             main_menu_update
     0000197C  A$main_menu_update$165             main_menu_update
     0000197E  A$main_menu_update$166             main_menu_update
     0000197F  A$main_menu_update$167             main_menu_update
     00001981  A$main_menu_update$168             main_menu_update
     00001982  A$main_menu_update$172             main_menu_update
     00001982  C$main_menu_update.c$37$2_0$174    main_menu_update
     00001985  A$main_menu_update$173             main_menu_update
     00001986  A$main_menu_update$175             main_menu_update
     00001987  A$main_menu_update$176             main_menu_update
     00001989  A$main_menu_update$177             main_menu_update
     0000198B  A$main_menu_update$181             main_menu_update
     0000198B  C$main_menu_update.c$39$7_1$185    main_menu_update
     0000198C  A$main_menu_update$182             main_menu_update
     0000198E  A$main_menu_update$183             main_menu_update
     00001991  A$main_menu_update$184             main_menu_update
     00001992  A$main_menu_update$185             main_menu_update
     00001993  A$main_menu_update$186             main_menu_update
     00001994  A$main_menu_update$187             main_menu_update
     00001995  A$main_menu_update$188             main_menu_update
     00001998  A$main_menu_update$189             main_menu_update
     00001999  A$main_menu_update$190             main_menu_update
     0000199A  A$main_menu_update$191             main_menu_update
     0000199B  A$main_menu_update$192             main_menu_update
     0000199D  A$main_menu_update$196             main_menu_update
     0000199D  C$main_menu_update.c$40$7_1$185    main_menu_update
     0000199F  A$main_menu_update$197             main_menu_update
     000019A0  A$main_menu_update$198             main_menu_update
     000019A1  A$main_menu_update$199             main_menu_update
     000019A4  A$main_menu_update$200             main_menu_update
     000019A5  A$main_menu_update$201             main_menu_update
     000019A7  A$main_menu_update$202             main_menu_update
     000019A8  A$main_menu_update$203             main_menu_update
     000019A9  A$main_menu_update$204             main_menu_update
     000019AA  A$main_menu_update$205             main_menu_update
     000019AB  A$main_menu_update$206             main_menu_update
     000019AE  A$main_menu_update$207             main_menu_update
     000019B0  A$main_menu_update$211             main_menu_update
     000019B0  C$main_menu_update.c$41$7_1$185    main_menu_update
     000019B1  A$main_menu_update$215             main_menu_update
     000019B1  C$main_menu_update.c$37$6_1$184    main_menu_update
     000019B2  A$main_menu_update$216             main_menu_update
     000019B4  A$main_menu_update$221             main_menu_update
     000019B6  A$main_menu_update$226             main_menu_update
ASxxxx Linker V03.00/V05.40 + sdld,  page 61.
Hexadecimal  [32-Bits]

Area                                    Addr        Size        Decimal Bytes (Attributes)
--------------------------------        ----        ----        ------- ----- ------------
_CODE                               00000200    000035F9 =       13817. bytes (REL,CON)

      Value  Global                              Global Defined In Module
      -----  --------------------------------   ------------------------
     000019B6  C$main_menu_update.c$45$2_0$174    main_menu_update
     000019B6  XG$MainMenu_Update$0$0             main_menu_update
     000019B7  A$map_collision$54                 map_collision
     000019B7  C$map_collision.c$14$0_0$149       map_collision
     000019B7  Fmap_collision$get_tile$0$0        map_collision
     000019B9  A$map_collision$55                 map_collision
     000019BB  A$map_collision$56                 map_collision
     000019BC  A$map_collision$57                 map_collision
     000019BD  A$map_collision$58                 map_collision
     000019BE  A$map_collision$62                 map_collision
     000019BE  C$map_collision.c$16$1_0$149       map_collision
     000019C1  A$map_collision$63                 map_collision
     000019C2  A$map_collision$64                 map_collision
     000019C3  A$map_collision$65                 map_collision
     000019C4  A$map_collision$66                 map_collision
     000019C5  A$map_collision$67                 map_collision
     000019C7  A$map_collision$68                 map_collision
     000019C8  A$map_collision$69                 map_collision
     000019C9  A$map_collision$70                 map_collision
     000019CA  A$map_collision$71                 map_collision
     000019CB  A$map_collision$72                 map_collision
     000019CD  A$map_collision$73                 map_collision
     000019CE  A$map_collision$74                 map_collision
     000019CF  A$map_collision$75                 map_collision
     000019D0  A$map_collision$76                 map_collision
     000019D1  A$map_collision$77                 map_collision
     000019D2  A$map_collision$78                 map_collision
     000019D3  A$map_collision$79                 map_collision
     000019D4  A$map_collision$80                 map_collision
     000019D5  A$map_collision$81                 map_collision
     000019D6  A$map_collision$82                 map_collision
     000019D7  A$map_collision$83                 map_collision
     000019D8  A$map_collision$84                 map_collision
     000019D9  A$map_collision$85                 map_collision
     000019DB  A$map_collision$86                 map_collision
     000019DC  A$map_collision$87                 map_collision
     000019DD  A$map_collision$88                 map_collision
     000019DE  A$map_collision$89                 map_collision
     000019DF  A$map_collision$90                 map_collision
     000019E0  A$map_collision$91                 map_collision
     000019E1  A$map_collision$92                 map_collision
     000019E2  A$map_collision$93                 map_collision
     000019E3  A$map_collision$94                 map_collision
     000019E4  A$map_collision$95                 map_collision
     000019E5  A$map_collision$96                 map_collision
     000019E6  A$map_collision$97                 map_collision
     000019E7  A$map_collision$98                 map_collision
     000019E8  A$map_collision$99                 map_collision
     000019E9  A$map_collision$100                map_collision
     000019EA  A$map_collision$101                map_collision
     000019EB  A$map_collision$102                map_collision
ASxxxx Linker V03.00/V05.40 + sdld,  page 62.
Hexadecimal  [32-Bits]

Area                                    Addr        Size        Decimal Bytes (Attributes)
--------------------------------        ----        ----        ------- ----- ------------
_CODE                               00000200    000035F9 =       13817. bytes (REL,CON)

      Value  Global                              Global Defined In Module
      -----  --------------------------------   ------------------------
     000019EC  A$map_collision$106                map_collision
     000019EC  C$map_collision.c$17$1_0$149       map_collision
     000019EE  A$map_collision$107                map_collision
     000019EF  A$map_collision$108                map_collision
     000019F0  A$map_collision$109                map_collision
     000019F1  A$map_collision$119                map_collision
     000019F1  C$map_collision.c$20$1_0$151       map_collision
     000019F1  G$Map_Collision$0$0                map_collision
     000019F1  _Map_Collision                     map_collision
     000019F3  A$map_collision$123                map_collision
     000019F3  C$map_collision.c$22$1_0$151       map_collision
     000019F6  A$map_collision$124                map_collision
     000019F7  A$map_collision$125                map_collision
     000019FA  A$map_collision$126                map_collision
     000019FC  A$map_collision$127                map_collision
     000019FD  A$map_collision$128                map_collision
     000019FE  A$map_collision$129                map_collision
     00001A00  A$map_collision$130                map_collision
     00001A01  A$map_collision$131                map_collision
     00001A03  A$map_collision$132                map_collision
     00001A05  A$map_collision$133                map_collision
     00001A06  A$map_collision$137                map_collision
     00001A06  C$map_collision.c$23$1_0$151       map_collision
     00001A09  A$map_collision$138                map_collision
     00001A0B  A$map_collision$139                map_collision
     00001A0C  A$map_collision$140                map_collision
     00001A0D  A$map_collision$141                map_collision
     00001A0F  A$map_collision$142                map_collision
     00001A10  A$map_collision$143                map_collision
     00001A12  A$map_collision$144                map_collision
     00001A14  A$map_collision$145                map_collision
     00001A15  A$map_collision$149                map_collision
     00001A15  C$map_collision.c$25$1_0$151       map_collision
     00001A18  A$map_collision$150                map_collision
     00001A1B  A$map_collision$151                map_collision
     00001A1E  A$map_collision$155                map_collision
     00001A1E  C$map_collision.c$26$1_0$151       map_collision
     00001A20  A$map_collision$156                map_collision
     00001A21  A$map_collision$157                map_collision
     00001A22  A$map_collision$161                map_collision
     00001A22  C$map_collision.c$27$1_0$151       map_collision
     00001A23  A$map_collision$162                map_collision
     00001A25  A$map_collision$163                map_collision
     00001A26  A$map_collision$164                map_collision
     00001A27  A$map_collision$168                map_collision
     00001A27  C$map_collision.c$28$1_0$151       map_collision
     00001A2A  A$map_collision$169                map_collision
     00001A2B  A$map_collision$170                map_collision
     00001A2C  A$map_collision$171                map_collision
     00001A2D  A$map_collision$172                map_collision
     00001A2F  A$map_collision$173                map_collision
ASxxxx Linker V03.00/V05.40 + sdld,  page 63.
Hexadecimal  [32-Bits]

Area                                    Addr        Size        Decimal Bytes (Attributes)
--------------------------------        ----        ----        ------- ----- ------------
_CODE                               00000200    000035F9 =       13817. bytes (REL,CON)

      Value  Global                              Global Defined In Module
      -----  --------------------------------   ------------------------
     00001A30  A$map_collision$174                map_collision
     00001A32  A$map_collision$175                map_collision
     00001A33  A$map_collision$176                map_collision
     00001A34  A$map_collision$177                map_collision
     00001A35  A$map_collision$178                map_collision
     00001A36  A$map_collision$179                map_collision
     00001A37  A$map_collision$180                map_collision
     00001A38  A$map_collision$181                map_collision
     00001A39  A$map_collision$182                map_collision
     00001A3A  A$map_collision$183                map_collision
     00001A3B  A$map_collision$184                map_collision
     00001A3D  A$map_collision$185                map_collision
     00001A3E  A$map_collision$186                map_collision
     00001A3F  A$map_collision$187                map_collision
     00001A40  A$map_collision$188                map_collision
     00001A42  A$map_collision$189                map_collision
     00001A43  A$map_collision$190                map_collision
     00001A44  A$map_collision$191                map_collision
     00001A45  A$map_collision$192                map_collision
     00001A46  A$map_collision$193                map_collision
     00001A47  A$map_collision$194                map_collision
     00001A48  A$map_collision$195                map_collision
     00001A49  A$map_collision$196                map_collision
     00001A4B  A$map_collision$197                map_collision
     00001A4C  A$map_collision$198                map_collision
     00001A4E  A$map_collision$199                map_collision
     00001A4F  A$map_collision$200                map_collision
     00001A50  A$map_collision$201                map_collision
     00001A51  A$map_collision$202                map_collision
     00001A52  A$map_collision$203                map_collision
     00001A55  A$map_collision$207                map_collision
     00001A55  C$map_collision.c$30$1_0$151       map_collision
     00001A58  A$map_collision$208                map_collision
     00001A59  A$map_collision$209                map_collision
     00001A5A  A$map_collision$210                map_collision
     00001A5B  A$map_collision$211                map_collision
     00001A5D  A$map_collision$212                map_collision
     00001A5E  A$map_collision$213                map_collision
     00001A5F  A$map_collision$214                map_collision
     00001A60  A$map_collision$215                map_collision
     00001A61  A$map_collision$216                map_collision
     00001A62  A$map_collision$217                map_collision
     00001A63  A$map_collision$218                map_collision
     00001A65  A$map_collision$219                map_collision
     00001A66  A$map_collision$220                map_collision
     00001A68  A$map_collision$221                map_collision
     00001A69  A$map_collision$222                map_collision
     00001A6A  A$map_collision$223                map_collision
     00001A6B  A$map_collision$224                map_collision
     00001A6D  A$map_collision$225                map_collision
     00001A6E  A$map_collision$226                map_collision
ASxxxx Linker V03.00/V05.40 + sdld,  page 64.
Hexadecimal  [32-Bits]

Area                                    Addr        Size        Decimal Bytes (Attributes)
--------------------------------        ----        ----        ------- ----- ------------
_CODE                               00000200    000035F9 =       13817. bytes (REL,CON)

      Value  Global                              Global Defined In Module
      -----  --------------------------------   ------------------------
     00001A6F  A$map_collision$227                map_collision
     00001A70  A$map_collision$228                map_collision
     00001A72  A$map_collision$229                map_collision
     00001A74  A$map_collision$230                map_collision
     00001A75  A$map_collision$232                map_collision
     00001A77  A$map_collision$233                map_collision
     00001A7A  A$map_collision$237                map_collision
     00001A7A  C$map_collision.c$31$1_0$151       map_collision
     00001A7D  A$map_collision$238                map_collision
     00001A7E  A$map_collision$239                map_collision
     00001A7F  A$map_collision$240                map_collision
     00001A80  A$map_collision$241                map_collision
     00001A82  A$map_collision$242                map_collision
     00001A83  A$map_collision$243                map_collision
     00001A84  A$map_collision$244                map_collision
     00001A85  A$map_collision$245                map_collision
     00001A86  A$map_collision$246                map_collision
     00001A87  A$map_collision$247                map_collision
     00001A88  A$map_collision$248                map_collision
     00001A8A  A$map_collision$249                map_collision
     00001A8B  A$map_collision$250                map_collision
     00001A8C  A$map_collision$251                map_collision
     00001A8D  A$map_collision$252                map_collision
     00001A8F  A$map_collision$253                map_collision
     00001A90  A$map_collision$254                map_collision
     00001A91  A$map_collision$255                map_collision
     00001A92  A$map_collision$256                map_collision
     00001A94  A$map_collision$257                map_collision
     00001A96  A$map_collision$258                map_collision
     00001A97  A$map_collision$260                map_collision
     00001A99  A$map_collision$261                map_collision
     00001A9C  A$map_collision$265                map_collision
     00001A9C  C$map_collision.c$32$1_0$151       map_collision
     00001A9F  A$map_collision$266                map_collision
     00001AA0  A$map_collision$267                map_collision
     00001AA2  A$map_collision$268                map_collision
     00001AA3  A$map_collision$269                map_collision
     00001AA4  A$map_collision$270                map_collision
     00001AA5  A$map_collision$271                map_collision
     00001AA6  A$map_collision$272                map_collision
     00001AA7  A$map_collision$273                map_collision
     00001AA8  A$map_collision$274                map_collision
     00001AA9  A$map_collision$275                map_collision
     00001AAA  A$map_collision$276                map_collision
     00001AAB  A$map_collision$277                map_collision
     00001AAC  A$map_collision$278                map_collision
     00001AAD  A$map_collision$279                map_collision
     00001AAE  A$map_collision$280                map_collision
     00001AAF  A$map_collision$281                map_collision
     00001AB0  A$map_collision$282                map_collision
     00001AB1  A$map_collision$283                map_collision
ASxxxx Linker V03.00/V05.40 + sdld,  page 65.
Hexadecimal  [32-Bits]

Area                                    Addr        Size        Decimal Bytes (Attributes)
--------------------------------        ----        ----        ------- ----- ------------
_CODE                               00000200    000035F9 =       13817. bytes (REL,CON)

      Value  Global                              Global Defined In Module
      -----  --------------------------------   ------------------------
     00001AB2  A$map_collision$284                map_collision
     00001AB3  A$map_collision$285                map_collision
     00001AB4  A$map_collision$286                map_collision
     00001AB5  A$map_collision$287                map_collision
     00001AB6  A$map_collision$288                map_collision
     00001AB7  A$map_collision$289                map_collision
     00001AB8  A$map_collision$290                map_collision
     00001ABA  A$map_collision$291                map_collision
     00001ABB  A$map_collision$292                map_collision
     00001ABC  A$map_collision$293                map_collision
     00001ABD  A$map_collision$294                map_collision
     00001ABE  A$map_collision$295                map_collision
     00001ABF  A$map_collision$296                map_collision
     00001AC0  A$map_collision$297                map_collision
     00001AC2  A$map_collision$298                map_collision
     00001AC3  A$map_collision$299                map_collision
     00001AC5  A$map_collision$300                map_collision
     00001AC6  A$map_collision$301                map_collision
     00001AC7  A$map_collision$302                map_collision
     00001AC8  A$map_collision$303                map_collision
     00001AC9  A$map_collision$304                map_collision
     00001ACA  A$map_collision$305                map_collision
     00001ACC  A$map_collision$306                map_collision
     00001ACE  A$map_collision$307                map_collision
     00001ACF  A$map_collision$309                map_collision
     00001AD1  A$map_collision$310                map_collision
     00001AD4  A$map_collision$314                map_collision
     00001AD4  C$map_collision.c$33$1_0$151       map_collision
     00001AD7  A$map_collision$315                map_collision
     00001AD8  A$map_collision$316                map_collision
     00001AD9  A$map_collision$317                map_collision
     00001ADA  A$map_collision$318                map_collision
     00001ADC  A$map_collision$319                map_collision
     00001ADD  A$map_collision$320                map_collision
     00001ADF  A$map_collision$321                map_collision
     00001AE0  A$map_collision$322                map_collision
     00001AE1  A$map_collision$323                map_collision
     00001AE2  A$map_collision$324                map_collision
     00001AE3  A$map_collision$325                map_collision
     00001AE4  A$map_collision$326                map_collision
     00001AE5  A$map_collision$327                map_collision
     00001AE6  A$map_collision$328                map_collision
     00001AE7  A$map_collision$329                map_collision
     00001AE8  A$map_collision$330                map_collision
     00001AE9  A$map_collision$331                map_collision
     00001AEA  A$map_collision$332                map_collision
     00001AEB  A$map_collision$333                map_collision
     00001AED  A$map_collision$334                map_collision
     00001AEE  A$map_collision$335                map_collision
     00001AF0  A$map_collision$336                map_collision
     00001AF1  A$map_collision$337                map_collision
ASxxxx Linker V03.00/V05.40 + sdld,  page 66.
Hexadecimal  [32-Bits]

Area                                    Addr        Size        Decimal Bytes (Attributes)
--------------------------------        ----        ----        ------- ----- ------------
_CODE                               00000200    000035F9 =       13817. bytes (REL,CON)

      Value  Global                              Global Defined In Module
      -----  --------------------------------   ------------------------
     00001AF2  A$map_collision$338                map_collision
     00001AF3  A$map_collision$339                map_collision
     00001AF4  A$map_collision$340                map_collision
     00001AF5  A$map_collision$341                map_collision
     00001AF7  A$map_collision$342                map_collision
     00001AF9  A$map_collision$343                map_collision
     00001AFA  A$map_collision$345                map_collision
     00001AFC  A$map_collision$346                map_collision
     00001AFF  A$map_collision$350                map_collision
     00001AFF  C$map_collision.c$36$2_0$152       map_collision
     00001B02  A$map_collision$351                map_collision
     00001B05  A$map_collision$352                map_collision
     00001B06  A$map_collision$353                map_collision
     00001B07  A$map_collision$354                map_collision
     00001B09  A$map_collision$358                map_collision
     00001B09  C$map_collision.c$38$3_0$153       map_collision
     00001B0C  A$map_collision$363                map_collision
     00001B0C  C$map_collision.c$41$2_0$154       map_collision
     00001B0F  A$map_collision$364                map_collision
     00001B10  A$map_collision$365                map_collision
     00001B11  A$map_collision$366                map_collision
     00001B12  A$map_collision$367                map_collision
     00001B14  A$map_collision$368                map_collision
     00001B15  A$map_collision$369                map_collision
     00001B16  A$map_collision$370                map_collision
     00001B17  A$map_collision$371                map_collision
     00001B18  A$map_collision$372                map_collision
     00001B19  A$map_collision$373                map_collision
     00001B1A  A$map_collision$374                map_collision
     00001B1C  A$map_collision$375                map_collision
     00001B1D  A$map_collision$376                map_collision
     00001B1F  A$map_collision$377                map_collision
     00001B20  A$map_collision$378                map_collision
     00001B21  A$map_collision$379                map_collision
     00001B22  A$map_collision$380                map_collision
     00001B23  A$map_collision$381                map_collision
     00001B25  A$map_collision$382                map_collision
     00001B27  A$map_collision$383                map_collision
     00001B29  A$map_collision$384                map_collision
     00001B2B  A$map_collision$391                map_collision
     00001B2B  C$map_collision.c$43$3_0$155       map_collision
     00001B2B  C$map_collision.c$44$3_0$155       map_collision
     00001B2C  A$map_collision$392                map_collision
     00001B2D  A$map_collision$393                map_collision
     00001B2E  A$map_collision$397                map_collision
     00001B2E  C$map_collision.c$46$4_0$156       map_collision
     00001B31  A$map_collision$398                map_collision
     00001B32  A$map_collision$399                map_collision
     00001B33  A$map_collision$403                map_collision
     00001B33  C$map_collision.c$47$4_0$156       map_collision
     00001B36  A$map_collision$407                map_collision
ASxxxx Linker V03.00/V05.40 + sdld,  page 67.
Hexadecimal  [32-Bits]

Area                                    Addr        Size        Decimal Bytes (Attributes)
--------------------------------        ----        ----        ------- ----- ------------
_CODE                               00000200    000035F9 =       13817. bytes (REL,CON)

      Value  Global                              Global Defined In Module
      -----  --------------------------------   ------------------------
     00001B36  C$map_collision.c$49$4_0$157       map_collision
     00001B39  A$map_collision$408                map_collision
     00001B3B  A$map_collision$409                map_collision
     00001B3D  A$map_collision$410                map_collision
     00001B3E  A$map_collision$411                map_collision
     00001B3F  A$map_collision$412                map_collision
     00001B40  A$map_collision$413                map_collision
     00001B41  A$map_collision$414                map_collision
     00001B42  A$map_collision$415                map_collision
     00001B43  A$map_collision$419                map_collision
     00001B43  C$map_collision.c$50$4_0$157       map_collision
     00001B46  A$map_collision$423                map_collision
     00001B46  C$map_collision.c$52$3_0$155       map_collision
     00001B47  A$map_collision$424                map_collision
     00001B48  A$map_collision$425                map_collision
     00001B4B  A$map_collision$430                map_collision
     00001B4B  C$map_collision.c$55$2_0$158       map_collision
     00001B4E  A$map_collision$431                map_collision
     00001B4F  A$map_collision$432                map_collision
     00001B50  A$map_collision$433                map_collision
     00001B51  A$map_collision$434                map_collision
     00001B53  A$map_collision$435                map_collision
     00001B54  A$map_collision$436                map_collision
     00001B55  A$map_collision$437                map_collision
     00001B56  A$map_collision$438                map_collision
     00001B57  A$map_collision$439                map_collision
     00001B58  A$map_collision$440                map_collision
     00001B59  A$map_collision$441                map_collision
     00001B5B  A$map_collision$442                map_collision
     00001B5C  A$map_collision$443                map_collision
     00001B5E  A$map_collision$444                map_collision
     00001B5F  A$map_collision$445                map_collision
     00001B60  A$map_collision$446                map_collision
     00001B61  A$map_collision$447                map_collision
     00001B62  A$map_collision$448                map_collision
     00001B63  A$map_collision$449                map_collision
     00001B65  A$map_collision$450                map_collision
     00001B66  A$map_collision$451                map_collision
     00001B69  A$map_collision$452                map_collision
     00001B6A  A$map_collision$453                map_collision
     00001B6C  A$map_collision$454                map_collision
     00001B6F  A$map_collision$458                map_collision
     00001B6F  C$map_collision.c$22$2_0$151       map_collision
     00001B72  A$map_collision$459                map_collision
     00001B73  A$map_collision$460                map_collision
     00001B75  A$map_collision$461                map_collision
     00001B76  A$map_collision$462                map_collision
     00001B78  A$map_collision$463                map_collision
     00001B7A  A$map_collision$464                map_collision
     00001B7B  A$map_collision$468                map_collision
     00001B7C  A$map_collision$469                map_collision
ASxxxx Linker V03.00/V05.40 + sdld,  page 68.
Hexadecimal  [32-Bits]

Area                                    Addr        Size        Decimal Bytes (Attributes)
--------------------------------        ----        ----        ------- ----- ------------
_CODE                               00000200    000035F9 =       13817. bytes (REL,CON)

      Value  Global                              Global Defined In Module
      -----  --------------------------------   ------------------------
     00001B7E  A$map_collision$470                map_collision
     00001B80  A$map_collision$471                map_collision
     00001B82  A$map_collision$472                map_collision
     00001B84  A$map_collision$476                map_collision
     00001B84  C$map_collision.c$23$2_0$151       map_collision
     00001B86  A$map_collision$477                map_collision
     00001B87  A$map_collision$478                map_collision
     00001B88  A$map_collision$479                map_collision
     00001B8A  A$map_collision$480                map_collision
     00001B8C  A$map_collision$481                map_collision
     00001B8D  A$map_collision$485                map_collision
     00001B8D  C$map_collision.c$57$4_0$160       map_collision
     00001B8E  A$map_collision$486                map_collision
     00001B90  A$map_collision$487                map_collision
     00001B92  A$map_collision$488                map_collision
     00001B94  A$map_collision$489                map_collision
     00001B96  A$map_collision$490                map_collision
     00001B99  A$map_collision$498                map_collision
     00001B99  C$map_collision.c$59$5_0$161       map_collision
     00001B99  C$map_collision.c$60$6_0$162       map_collision
     00001B9C  A$map_collision$499                map_collision
     00001B9E  A$map_collision$500                map_collision
     00001BA0  A$map_collision$504                map_collision
     00001BA0  C$map_collision.c$62$5_0$161       map_collision
     00001BA2  A$map_collision$505                map_collision
     00001BA3  A$map_collision$509                map_collision
     00001BA3  C$map_collision.c$63$5_0$161       map_collision
     00001BA6  A$map_collision$513                map_collision
     00001BA6  C$map_collision.c$64$5_0$161       map_collision
     00001BA9  A$map_collision$514                map_collision
     00001BAA  A$map_collision$515                map_collision
     00001BAB  A$map_collision$516                map_collision
     00001BAC  A$map_collision$517                map_collision
     00001BAF  A$map_collision$518                map_collision
     00001BB2  A$map_collision$519                map_collision
     00001BB3  A$map_collision$520                map_collision
     00001BB4  A$map_collision$521                map_collision
     00001BB7  A$map_collision$525                map_collision
     00001BB7  C$map_collision.c$65$5_0$161       map_collision
     00001BB9  A$map_collision$533                map_collision
     00001BB9  C$map_collision.c$66$5_0$161       map_collision
     00001BB9  C$map_collision.c$67$6_0$163       map_collision
     00001BBC  A$map_collision$534                map_collision
     00001BBE  A$map_collision$535                map_collision
     00001BC0  A$map_collision$539                map_collision
     00001BC0  C$map_collision.c$69$5_0$161       map_collision
     00001BC2  A$map_collision$540                map_collision
     00001BC3  A$map_collision$544                map_collision
     00001BC3  C$map_collision.c$70$5_0$161       map_collision
     00001BC6  A$map_collision$548                map_collision
     00001BC6  C$map_collision.c$71$5_0$161       map_collision
ASxxxx Linker V03.00/V05.40 + sdld,  page 69.
Hexadecimal  [32-Bits]

Area                                    Addr        Size        Decimal Bytes (Attributes)
--------------------------------        ----        ----        ------- ----- ------------
_CODE                               00000200    000035F9 =       13817. bytes (REL,CON)

      Value  Global                              Global Defined In Module
      -----  --------------------------------   ------------------------
     00001BC9  A$map_collision$549                map_collision
     00001BCA  A$map_collision$550                map_collision
     00001BCB  A$map_collision$551                map_collision
     00001BCC  A$map_collision$552                map_collision
     00001BCF  A$map_collision$553                map_collision
     00001BD2  A$map_collision$554                map_collision
     00001BD3  A$map_collision$555                map_collision
     00001BD4  A$map_collision$556                map_collision
     00001BD7  A$map_collision$560                map_collision
     00001BD7  C$map_collision.c$72$5_0$161       map_collision
     00001BD9  A$map_collision$568                map_collision
     00001BD9  C$map_collision.c$73$5_0$161       map_collision
     00001BD9  C$map_collision.c$74$6_0$164       map_collision
     00001BDC  A$map_collision$569                map_collision
     00001BDE  A$map_collision$570                map_collision
     00001BE0  A$map_collision$574                map_collision
     00001BE0  C$map_collision.c$76$5_0$161       map_collision
     00001BE2  A$map_collision$575                map_collision
     00001BE3  A$map_collision$579                map_collision
     00001BE3  C$map_collision.c$77$5_0$161       map_collision
     00001BE6  A$map_collision$583                map_collision
     00001BE6  C$map_collision.c$78$5_0$161       map_collision
     00001BE9  A$map_collision$584                map_collision
     00001BEA  A$map_collision$585                map_collision
     00001BEB  A$map_collision$586                map_collision
     00001BEC  A$map_collision$587                map_collision
     00001BEF  A$map_collision$588                map_collision
     00001BF2  A$map_collision$589                map_collision
     00001BF3  A$map_collision$590                map_collision
     00001BF4  A$map_collision$591                map_collision
     00001BF7  A$map_collision$595                map_collision
     00001BF7  C$map_collision.c$79$5_0$161       map_collision
     00001BF9  A$map_collision$603                map_collision
     00001BF9  C$map_collision.c$80$5_0$161       map_collision
     00001BF9  C$map_collision.c$81$6_0$165       map_collision
     00001BFC  A$map_collision$604                map_collision
     00001BFE  A$map_collision$605                map_collision
     00001C00  A$map_collision$609                map_collision
     00001C00  C$map_collision.c$83$5_0$161       map_collision
     00001C02  A$map_collision$610                map_collision
     00001C03  A$map_collision$614                map_collision
     00001C03  C$map_collision.c$84$5_0$161       map_collision
     00001C06  A$map_collision$618                map_collision
     00001C06  C$map_collision.c$85$5_0$161       map_collision
     00001C09  A$map_collision$619                map_collision
     00001C0A  A$map_collision$620                map_collision
     00001C0B  A$map_collision$621                map_collision
     00001C0C  A$map_collision$622                map_collision
     00001C0F  A$map_collision$623                map_collision
     00001C12  A$map_collision$624                map_collision
     00001C13  A$map_collision$625                map_collision
ASxxxx Linker V03.00/V05.40 + sdld,  page 70.
Hexadecimal  [32-Bits]

Area                                    Addr        Size        Decimal Bytes (Attributes)
--------------------------------        ----        ----        ------- ----- ------------
_CODE                               00000200    000035F9 =       13817. bytes (REL,CON)

      Value  Global                              Global Defined In Module
      -----  --------------------------------   ------------------------
     00001C14  A$map_collision$626                map_collision
     00001C17  A$map_collision$634                map_collision
     00001C17  C$map_collision.c$87$2_0$151       map_collision
     00001C19  A$map_collision$639                map_collision
     00001C19  C$map_collision.c$89$2_0$151       map_collision
     00001C19  XG$Map_Collision$0$0               map_collision
     00001C1A  A$map_player_movement$58           map_player_movement
     00001C1A  C$map_player_movement.c$10$0_0$1   map_player_movement
     00001C1A  G$Map_PlayerMovement$0$0           map_player_movement
     00001C1A  _Map_PlayerMovement                map_player_movement
     00001C1B  A$map_player_movement$62           map_player_movement
     00001C1B  C$map_player_movement.c$11$2_0$1   map_player_movement
     00001C1E  A$map_player_movement$63           map_player_movement
     00001C20  A$map_player_movement$64           map_player_movement
     00001C22  A$map_player_movement$65           map_player_movement
     00001C25  A$map_player_movement$66           map_player_movement
     00001C27  A$map_player_movement$67           map_player_movement
     00001C29  A$map_player_movement$71           map_player_movement
     00001C29  C$map_player_movement.c$12$3_0$1   map_player_movement
     00001C2C  A$map_player_movement$75           map_player_movement
     00001C2C  C$map_player_movement.c$14$3_0$1   map_player_movement
     00001C2F  A$map_player_movement$76           map_player_movement
     00001C30  A$map_player_movement$77           map_player_movement
     00001C31  A$map_player_movement$78           map_player_movement
     00001C32  A$map_player_movement$79           map_player_movement
     00001C35  A$map_player_movement$80           map_player_movement
     00001C37  A$map_player_movement$81           map_player_movement
     00001C38  A$map_player_movement$82           map_player_movement
     00001C39  A$map_player_movement$83           map_player_movement
     00001C3C  A$map_player_movement$88           map_player_movement
     00001C3C  C$map_player_movement.c$18$2_0$1   map_player_movement
     00001C3F  A$map_player_movement$89           map_player_movement
     00001C40  A$map_player_movement$90           map_player_movement
     00001C42  A$map_player_movement$94           map_player_movement
     00001C45  A$map_player_movement$98           map_player_movement
     00001C45  C$map_player_movement.c$19$4_0$1   map_player_movement
     00001C47  A$map_player_movement$99           map_player_movement
     00001C49  A$map_player_movement$103          map_player_movement
     00001C49  C$map_player_movement.c$20$4_0$1   map_player_movement
     00001C4C  A$map_player_movement$104          map_player_movement
     00001C4E  A$map_player_movement$105          map_player_movement
     00001C50  A$map_player_movement$110          map_player_movement
     00001C50  C$map_player_movement.c$21$5_0$1   map_player_movement
     00001C52  A$map_player_movement$111          map_player_movement
     00001C54  A$map_player_movement$115          map_player_movement
     00001C54  C$map_player_movement.c$22$5_0$1   map_player_movement
     00001C57  A$map_player_movement$116          map_player_movement
     00001C59  A$map_player_movement$117          map_player_movement
     00001C5B  A$map_player_movement$122          map_player_movement
     00001C5B  C$map_player_movement.c$23$6_0$1   map_player_movement
     00001C5D  A$map_player_movement$123          map_player_movement
ASxxxx Linker V03.00/V05.40 + sdld,  page 71.
Hexadecimal  [32-Bits]

Area                                    Addr        Size        Decimal Bytes (Attributes)
--------------------------------        ----        ----        ------- ----- ------------
_CODE                               00000200    000035F9 =       13817. bytes (REL,CON)

      Value  Global                              Global Defined In Module
      -----  --------------------------------   ------------------------
     00001C5F  A$map_player_movement$127          map_player_movement
     00001C5F  C$map_player_movement.c$24$6_0$1   map_player_movement
     00001C62  A$map_player_movement$128          map_player_movement
     00001C64  A$map_player_movement$129          map_player_movement
     00001C66  A$map_player_movement$134          map_player_movement
     00001C66  C$map_player_movement.c$25$7_0$1   map_player_movement
     00001C67  A$map_player_movement$135          map_player_movement
     00001C69  A$map_player_movement$139          map_player_movement
     00001C69  C$map_player_movement.c$26$7_0$1   map_player_movement
     00001C6C  A$map_player_movement$140          map_player_movement
     00001C6E  A$map_player_movement$145          map_player_movement
     00001C6E  C$map_player_movement.c$30$2_0$1   map_player_movement
     00001C71  A$map_player_movement$146          map_player_movement
     00001C72  A$map_player_movement$147          map_player_movement
     00001C74  A$map_player_movement$148          map_player_movement
     00001C77  A$map_player_movement$149          map_player_movement
     00001C79  A$map_player_movement$150          map_player_movement
     00001C7B  A$map_player_movement$151          map_player_movement
     00001C7D  A$map_player_movement$152          map_player_movement
     00001C7F  A$map_player_movement$153          map_player_movement
     00001C81  A$map_player_movement$154          map_player_movement
     00001C83  A$map_player_movement$155          map_player_movement
     00001C85  A$map_player_movement$163          map_player_movement
     00001C85  C$map_player_movement.c$31$3_0$1   map_player_movement
     00001C85  C$map_player_movement.c$32$3_0$1   map_player_movement
     00001C88  A$map_player_movement$164          map_player_movement
     00001C8B  A$map_player_movement$168          map_player_movement
     00001C8B  C$map_player_movement.c$33$3_0$1   map_player_movement
     00001C8E  A$map_player_movement$169          map_player_movement
     00001C90  A$map_player_movement$170          map_player_movement
     00001C91  A$map_player_movement$171          map_player_movement
     00001C94  A$map_player_movement$172          map_player_movement
     00001C95  A$map_player_movement$173          map_player_movement
     00001C97  A$map_player_movement$174          map_player_movement
     00001C98  A$map_player_movement$175          map_player_movement
     00001C99  A$map_player_movement$176          map_player_movement
     00001C9A  A$map_player_movement$177          map_player_movement
     00001C9B  A$map_player_movement$178          map_player_movement
     00001C9C  A$map_player_movement$179          map_player_movement
     00001C9D  A$map_player_movement$180          map_player_movement
     00001C9E  A$map_player_movement$181          map_player_movement
     00001C9F  A$map_player_movement$182          map_player_movement
     00001CA0  A$map_player_movement$183          map_player_movement
     00001CA3  A$map_player_movement$184          map_player_movement
     00001CA4  A$map_player_movement$185          map_player_movement
     00001CA5  A$map_player_movement$186          map_player_movement
     00001CA6  A$map_player_movement$187          map_player_movement
     00001CA8  A$map_player_movement$188          map_player_movement
     00001CA9  A$map_player_movement$189          map_player_movement
     00001CAC  A$map_player_movement$193          map_player_movement
     00001CAC  C$map_player_movement.c$34$3_0$1   map_player_movement
ASxxxx Linker V03.00/V05.40 + sdld,  page 72.
Hexadecimal  [32-Bits]

Area                                    Addr        Size        Decimal Bytes (Attributes)
--------------------------------        ----        ----        ------- ----- ------------
_CODE                               00000200    000035F9 =       13817. bytes (REL,CON)

      Value  Global                              Global Defined In Module
      -----  --------------------------------   ------------------------
     00001CAE  A$map_player_movement$201          map_player_movement
     00001CAE  C$map_player_movement.c$35$3_0$1   map_player_movement
     00001CAE  C$map_player_movement.c$36$3_0$1   map_player_movement
     00001CB1  A$map_player_movement$202          map_player_movement
     00001CB4  A$map_player_movement$206          map_player_movement
     00001CB4  C$map_player_movement.c$37$3_0$1   map_player_movement
     00001CB7  A$map_player_movement$207          map_player_movement
     00001CB9  A$map_player_movement$208          map_player_movement
     00001CBA  A$map_player_movement$209          map_player_movement
     00001CBD  A$map_player_movement$210          map_player_movement
     00001CBE  A$map_player_movement$211          map_player_movement
     00001CC0  A$map_player_movement$212          map_player_movement
     00001CC1  A$map_player_movement$213          map_player_movement
     00001CC2  A$map_player_movement$214          map_player_movement
     00001CC3  A$map_player_movement$215          map_player_movement
     00001CC4  A$map_player_movement$216          map_player_movement
     00001CC5  A$map_player_movement$217          map_player_movement
     00001CC6  A$map_player_movement$218          map_player_movement
     00001CC7  A$map_player_movement$219          map_player_movement
     00001CC8  A$map_player_movement$220          map_player_movement
     00001CC9  A$map_player_movement$221          map_player_movement
     00001CCC  A$map_player_movement$222          map_player_movement
     00001CCD  A$map_player_movement$223          map_player_movement
     00001CCE  A$map_player_movement$224          map_player_movement
     00001CCF  A$map_player_movement$225          map_player_movement
     00001CD1  A$map_player_movement$226          map_player_movement
     00001CD2  A$map_player_movement$227          map_player_movement
     00001CD5  A$map_player_movement$231          map_player_movement
     00001CD5  C$map_player_movement.c$38$3_0$1   map_player_movement
     00001CD7  A$map_player_movement$239          map_player_movement
     00001CD7  C$map_player_movement.c$39$3_0$1   map_player_movement
     00001CD7  C$map_player_movement.c$40$3_0$1   map_player_movement
     00001CDA  A$map_player_movement$240          map_player_movement
     00001CDD  A$map_player_movement$244          map_player_movement
     00001CDD  C$map_player_movement.c$41$3_0$1   map_player_movement
     00001CDF  A$map_player_movement$252          map_player_movement
     00001CDF  C$map_player_movement.c$42$3_0$1   map_player_movement
     00001CDF  C$map_player_movement.c$43$3_0$1   map_player_movement
     00001CE2  A$map_player_movement$253          map_player_movement
     00001CE5  A$map_player_movement$261          map_player_movement
     00001CE5  C$map_player_movement.c$47$2_0$1   map_player_movement
     00001CE5  C$map_player_movement.c$50$2_0$1   map_player_movement
     00001CE8  A$map_player_movement$262          map_player_movement
     00001CE9  A$map_player_movement$263          map_player_movement
     00001CEB  A$map_player_movement$264          map_player_movement
     00001CEE  A$map_player_movement$265          map_player_movement
     00001CF0  A$map_player_movement$266          map_player_movement
     00001CF2  A$map_player_movement$270          map_player_movement
     00001CF2  C$map_player_movement.c$51$3_0$1   map_player_movement
     00001CF3  A$map_player_movement$271          map_player_movement
     00001CF6  A$map_player_movement$275          map_player_movement
ASxxxx Linker V03.00/V05.40 + sdld,  page 73.
Hexadecimal  [32-Bits]

Area                                    Addr        Size        Decimal Bytes (Attributes)
--------------------------------        ----        ----        ------- ----- ------------
_CODE                               00000200    000035F9 =       13817. bytes (REL,CON)

      Value  Global                              Global Defined In Module
      -----  --------------------------------   ------------------------
     00001CF6  C$map_player_movement.c$52$3_0$1   map_player_movement
     00001CF9  A$map_player_movement$276          map_player_movement
     00001CFB  A$map_player_movement$277          map_player_movement
     00001CFC  A$map_player_movement$278          map_player_movement
     00001CFF  A$map_player_movement$279          map_player_movement
     00001D00  A$map_player_movement$280          map_player_movement
     00001D02  A$map_player_movement$281          map_player_movement
     00001D03  A$map_player_movement$282          map_player_movement
     00001D04  A$map_player_movement$283          map_player_movement
     00001D05  A$map_player_movement$284          map_player_movement
     00001D06  A$map_player_movement$285          map_player_movement
     00001D07  A$map_player_movement$286          map_player_movement
     00001D08  A$map_player_movement$287          map_player_movement
     00001D09  A$map_player_movement$288          map_player_movement
     00001D0A  A$map_player_movement$289          map_player_movement
     00001D0B  A$map_player_movement$290          map_player_movement
     00001D0E  A$map_player_movement$291          map_player_movement
     00001D0F  A$map_player_movement$292          map_player_movement
     00001D10  A$map_player_movement$293          map_player_movement
     00001D11  A$map_player_movement$294          map_player_movement
     00001D13  A$map_player_movement$295          map_player_movement
     00001D14  A$map_player_movement$296          map_player_movement
     00001D17  A$map_player_movement$301          map_player_movement
     00001D17  C$map_player_movement.c$55$2_0$1   map_player_movement
     00001D1A  A$map_player_movement$302          map_player_movement
     00001D1C  A$map_player_movement$303          map_player_movement
     00001D1E  A$map_player_movement$304          map_player_movement
     00001D21  A$map_player_movement$305          map_player_movement
     00001D23  A$map_player_movement$306          map_player_movement
     00001D25  A$map_player_movement$310          map_player_movement
     00001D25  C$map_player_movement.c$56$3_0$1   map_player_movement
     00001D26  A$map_player_movement$311          map_player_movement
     00001D29  A$map_player_movement$315          map_player_movement
     00001D29  C$map_player_movement.c$57$3_0$1   map_player_movement
     00001D2C  A$map_player_movement$316          map_player_movement
     00001D2E  A$map_player_movement$317          map_player_movement
     00001D2F  A$map_player_movement$318          map_player_movement
     00001D32  A$map_player_movement$319          map_player_movement
     00001D33  A$map_player_movement$320          map_player_movement
     00001D35  A$map_player_movement$321          map_player_movement
     00001D36  A$map_player_movement$322          map_player_movement
     00001D37  A$map_player_movement$323          map_player_movement
     00001D38  A$map_player_movement$324          map_player_movement
     00001D39  A$map_player_movement$325          map_player_movement
     00001D3A  A$map_player_movement$326          map_player_movement
     00001D3B  A$map_player_movement$327          map_player_movement
     00001D3C  A$map_player_movement$328          map_player_movement
     00001D3D  A$map_player_movement$329          map_player_movement
     00001D3E  A$map_player_movement$330          map_player_movement
     00001D41  A$map_player_movement$331          map_player_movement
     00001D42  A$map_player_movement$332          map_player_movement
ASxxxx Linker V03.00/V05.40 + sdld,  page 74.
Hexadecimal  [32-Bits]

Area                                    Addr        Size        Decimal Bytes (Attributes)
--------------------------------        ----        ----        ------- ----- ------------
_CODE                               00000200    000035F9 =       13817. bytes (REL,CON)

      Value  Global                              Global Defined In Module
      -----  --------------------------------   ------------------------
     00001D43  A$map_player_movement$333          map_player_movement
     00001D44  A$map_player_movement$334          map_player_movement
     00001D46  A$map_player_movement$335          map_player_movement
     00001D47  A$map_player_movement$336          map_player_movement
     00001D4A  A$map_player_movement$341          map_player_movement
     00001D4A  C$map_player_movement.c$11$2_0$1   map_player_movement
     00001D4D  A$map_player_movement$342          map_player_movement
     00001D4E  A$map_player_movement$346          map_player_movement
     00001D4E  C$map_player_movement.c$60$2_0$1   map_player_movement
     00001D51  A$map_player_movement$347          map_player_movement
     00001D53  A$map_player_movement$348          map_player_movement
     00001D55  A$map_player_movement$349          map_player_movement
     00001D57  A$map_player_movement$350          map_player_movement
     00001D59  A$map_player_movement$354          map_player_movement
     00001D59  C$map_player_movement.c$61$2_0$1   map_player_movement
     00001D5A  A$map_player_movement$355          map_player_movement
     00001D5D  A$map_player_movement$360          map_player_movement
     00001D5D  C$map_player_movement.c$62$2_0$1   map_player_movement
     00001D60  A$map_player_movement$361          map_player_movement
     00001D62  A$map_player_movement$362          map_player_movement
     00001D64  A$map_player_movement$363          map_player_movement
     00001D66  A$map_player_movement$364          map_player_movement
     00001D68  A$map_player_movement$368          map_player_movement
     00001D68  C$map_player_movement.c$63$2_0$1   map_player_movement
     00001D69  A$map_player_movement$369          map_player_movement
     00001D6C  A$map_player_movement$374          map_player_movement
     00001D6D  A$map_player_movement$379          map_player_movement
     00001D6D  C$map_player_movement.c$64$2_0$1   map_player_movement
     00001D6D  XG$Map_PlayerMovement$0$0          map_player_movement
     00001D6E  A$map_scenes$74                    map_scenes
     00001D6E  C$map_scenes.c$43$0_0$239          map_scenes
     00001D6E  G$scene_manager_MapScene$0$0       map_scenes
     00001D6E  _scene_manager_MapScene            map_scenes
     00001D6F  A$map_scenes$75                    map_scenes
     00001D71  A$map_scenes$76                    map_scenes
     00001D72  A$map_scenes$80                    map_scenes
     00001D72  C$map_scenes.c$45$2_0$239          map_scenes
     00001D74  A$map_scenes$81                    map_scenes
     00001D75  A$map_scenes$85                    map_scenes
     00001D75  C$map_scenes.c$47$1_0$239          map_scenes
     00001D78  A$map_scenes$89                    map_scenes
     00001D78  C$map_scenes.c$49$2_0$240          map_scenes
     00001D7A  A$map_scenes$90                    map_scenes
     00001D7C  A$map_scenes$91                    map_scenes
     00001D7D  A$map_scenes$92                    map_scenes
     00001D80  A$map_scenes$93                    map_scenes
     00001D81  A$map_scenes$94                    map_scenes
     00001D83  A$map_scenes$95                    map_scenes
     00001D86  A$map_scenes$96                    map_scenes
     00001D87  A$map_scenes$97                    map_scenes
     00001D88  A$map_scenes$98                    map_scenes
ASxxxx Linker V03.00/V05.40 + sdld,  page 75.
Hexadecimal  [32-Bits]

Area                                    Addr        Size        Decimal Bytes (Attributes)
--------------------------------        ----        ----        ------- ----- ------------
_CODE                               00000200    000035F9 =       13817. bytes (REL,CON)

      Value  Global                              Global Defined In Module
      -----  --------------------------------   ------------------------
     00001D89  A$map_scenes$99                    map_scenes
     00001D8A  A$map_scenes$100                   map_scenes
     00001D8B  A$map_scenes$101                   map_scenes
     00001D8C  A$map_scenes$102                   map_scenes
     00001DB7  A$map_scenes$132                   map_scenes
     00001DB7  C$map_scenes.c$51$3_0$241          map_scenes
     00001DB7  C$map_scenes.c$52$3_0$241          map_scenes
     00001DBA  A$map_scenes$136                   map_scenes
     00001DBA  C$map_scenes.c$53$3_0$241          map_scenes
     00001DBD  A$map_scenes$137                   map_scenes
     00001DC0  A$map_scenes$145                   map_scenes
     00001DC0  C$map_scenes.c$54$3_0$241          map_scenes
     00001DC0  C$map_scenes.c$55$3_0$241          map_scenes
     00001DC3  A$map_scenes$149                   map_scenes
     00001DC3  C$map_scenes.c$56$3_0$241          map_scenes
     00001DC6  A$map_scenes$150                   map_scenes
     00001DC9  A$map_scenes$158                   map_scenes
     00001DC9  C$map_scenes.c$57$3_0$241          map_scenes
     00001DC9  C$map_scenes.c$58$3_0$241          map_scenes
     00001DCC  A$map_scenes$162                   map_scenes
     00001DCC  C$map_scenes.c$59$3_0$241          map_scenes
     00001DCF  A$map_scenes$163                   map_scenes
     00001DD2  A$map_scenes$171                   map_scenes
     00001DD2  C$map_scenes.c$60$3_0$241          map_scenes
     00001DD2  C$map_scenes.c$61$3_0$241          map_scenes
     00001DD5  A$map_scenes$175                   map_scenes
     00001DD5  C$map_scenes.c$62$3_0$241          map_scenes
     00001DD8  A$map_scenes$176                   map_scenes
     00001DDB  A$map_scenes$184                   map_scenes
     00001DDB  C$map_scenes.c$65$3_0$241          map_scenes
     00001DDB  C$map_scenes.c$66$3_0$241          map_scenes
     00001DDD  A$map_scenes$185                   map_scenes
     00001DDF  A$map_scenes$186                   map_scenes
     00001DE2  A$map_scenes$187                   map_scenes
     00001DE4  A$map_scenes$191                   map_scenes
     00001DE4  C$map_scenes.c$67$3_0$241          map_scenes
     00001DE5  A$map_scenes$192                   map_scenes
     00001DE8  A$map_scenes$193                   map_scenes
     00001DE9  A$map_scenes$197                   map_scenes
     00001DE9  C$map_scenes.c$68$3_0$241          map_scenes
     00001DEA  A$map_scenes$198                   map_scenes
     00001DEC  A$map_scenes$199                   map_scenes
     00001DEF  A$map_scenes$200                   map_scenes
     00001DF0  A$map_scenes$204                   map_scenes
     00001DF0  C$map_scenes.c$70$3_0$241          map_scenes
     00001DF3  A$map_scenes$205                   map_scenes
     00001DF6  A$map_scenes$213                   map_scenes
     00001DF6  C$map_scenes.c$72$3_0$241          map_scenes
     00001DF6  C$map_scenes.c$73$3_0$241          map_scenes
     00001DF8  A$map_scenes$214                   map_scenes
     00001DFA  A$map_scenes$215                   map_scenes
ASxxxx Linker V03.00/V05.40 + sdld,  page 76.
Hexadecimal  [32-Bits]

Area                                    Addr        Size        Decimal Bytes (Attributes)
--------------------------------        ----        ----        ------- ----- ------------
_CODE                               00000200    000035F9 =       13817. bytes (REL,CON)

      Value  Global                              Global Defined In Module
      -----  --------------------------------   ------------------------
     00001DFD  A$map_scenes$216                   map_scenes
     00001DFF  A$map_scenes$220                   map_scenes
     00001DFF  C$map_scenes.c$74$3_0$241          map_scenes
     00001E00  A$map_scenes$221                   map_scenes
     00001E03  A$map_scenes$222                   map_scenes
     00001E04  A$map_scenes$226                   map_scenes
     00001E04  C$map_scenes.c$75$3_0$241          map_scenes
     00001E05  A$map_scenes$227                   map_scenes
     00001E07  A$map_scenes$228                   map_scenes
     00001E0A  A$map_scenes$229                   map_scenes
     00001E0B  A$map_scenes$233                   map_scenes
     00001E0B  C$map_scenes.c$77$3_0$241          map_scenes
     00001E0E  A$map_scenes$234                   map_scenes
     00001E11  A$map_scenes$242                   map_scenes
     00001E11  C$map_scenes.c$79$3_0$241          map_scenes
     00001E11  C$map_scenes.c$80$3_0$241          map_scenes
     00001E13  A$map_scenes$243                   map_scenes
     00001E15  A$map_scenes$244                   map_scenes
     00001E18  A$map_scenes$245                   map_scenes
     00001E1A  A$map_scenes$249                   map_scenes
     00001E1A  C$map_scenes.c$81$3_0$241          map_scenes
     00001E1B  A$map_scenes$250                   map_scenes
     00001E1E  A$map_scenes$251                   map_scenes
     00001E1F  A$map_scenes$255                   map_scenes
     00001E1F  C$map_scenes.c$82$3_0$241          map_scenes
     00001E20  A$map_scenes$256                   map_scenes
     00001E22  A$map_scenes$257                   map_scenes
     00001E25  A$map_scenes$258                   map_scenes
     00001E26  A$map_scenes$262                   map_scenes
     00001E26  C$map_scenes.c$84$3_0$241          map_scenes
     00001E29  A$map_scenes$263                   map_scenes
     00001E2C  A$map_scenes$271                   map_scenes
     00001E2C  C$map_scenes.c$86$3_0$241          map_scenes
     00001E2C  C$map_scenes.c$87$3_0$241          map_scenes
     00001E2E  A$map_scenes$272                   map_scenes
     00001E30  A$map_scenes$273                   map_scenes
     00001E33  A$map_scenes$274                   map_scenes
     00001E35  A$map_scenes$278                   map_scenes
     00001E35  C$map_scenes.c$88$3_0$241          map_scenes
     00001E36  A$map_scenes$279                   map_scenes
     00001E39  A$map_scenes$280                   map_scenes
     00001E3A  A$map_scenes$284                   map_scenes
     00001E3A  C$map_scenes.c$89$3_0$241          map_scenes
     00001E3B  A$map_scenes$285                   map_scenes
     00001E3D  A$map_scenes$286                   map_scenes
     00001E40  A$map_scenes$287                   map_scenes
     00001E41  A$map_scenes$291                   map_scenes
     00001E41  C$map_scenes.c$91$3_0$241          map_scenes
     00001E44  A$map_scenes$292                   map_scenes
     00001E47  A$map_scenes$300                   map_scenes
     00001E47  C$map_scenes.c$93$3_0$241          map_scenes
ASxxxx Linker V03.00/V05.40 + sdld,  page 77.
Hexadecimal  [32-Bits]

Area                                    Addr        Size        Decimal Bytes (Attributes)
--------------------------------        ----        ----        ------- ----- ------------
_CODE                               00000200    000035F9 =       13817. bytes (REL,CON)

      Value  Global                              Global Defined In Module
      -----  --------------------------------   ------------------------
     00001E47  C$map_scenes.c$94$3_0$241          map_scenes
     00001E49  A$map_scenes$301                   map_scenes
     00001E4B  A$map_scenes$302                   map_scenes
     00001E4E  A$map_scenes$303                   map_scenes
     00001E50  A$map_scenes$307                   map_scenes
     00001E50  C$map_scenes.c$95$3_0$241          map_scenes
     00001E51  A$map_scenes$308                   map_scenes
     00001E54  A$map_scenes$309                   map_scenes
     00001E55  A$map_scenes$313                   map_scenes
     00001E55  C$map_scenes.c$96$3_0$241          map_scenes
     00001E56  A$map_scenes$314                   map_scenes
     00001E58  A$map_scenes$315                   map_scenes
     00001E5B  A$map_scenes$316                   map_scenes
     00001E5C  A$map_scenes$320                   map_scenes
     00001E5C  C$map_scenes.c$98$3_0$241          map_scenes
     00001E5F  A$map_scenes$321                   map_scenes
     00001E62  A$map_scenes$329                   map_scenes
     00001E62  C$map_scenes.c$100$3_0$241         map_scenes
     00001E62  C$map_scenes.c$101$3_0$241         map_scenes
     00001E64  A$map_scenes$330                   map_scenes
     00001E66  A$map_scenes$331                   map_scenes
     00001E69  A$map_scenes$332                   map_scenes
     00001E6B  A$map_scenes$336                   map_scenes
     00001E6B  C$map_scenes.c$102$3_0$241         map_scenes
     00001E6C  A$map_scenes$337                   map_scenes
     00001E6F  A$map_scenes$338                   map_scenes
     00001E70  A$map_scenes$342                   map_scenes
     00001E70  C$map_scenes.c$103$3_0$241         map_scenes
     00001E71  A$map_scenes$343                   map_scenes
     00001E73  A$map_scenes$344                   map_scenes
     00001E76  A$map_scenes$345                   map_scenes
     00001E77  A$map_scenes$349                   map_scenes
     00001E77  C$map_scenes.c$105$3_0$241         map_scenes
     00001E7A  A$map_scenes$350                   map_scenes
     00001E7D  A$map_scenes$358                   map_scenes
     00001E7D  C$map_scenes.c$107$3_0$241         map_scenes
     00001E7D  C$map_scenes.c$108$3_0$241         map_scenes
     00001E7F  A$map_scenes$359                   map_scenes
     00001E81  A$map_scenes$360                   map_scenes
     00001E84  A$map_scenes$361                   map_scenes
     00001E86  A$map_scenes$365                   map_scenes
     00001E86  C$map_scenes.c$109$3_0$241         map_scenes
     00001E87  A$map_scenes$366                   map_scenes
     00001E8A  A$map_scenes$367                   map_scenes
     00001E8B  A$map_scenes$371                   map_scenes
     00001E8B  C$map_scenes.c$110$3_0$241         map_scenes
     00001E8C  A$map_scenes$372                   map_scenes
     00001E8E  A$map_scenes$373                   map_scenes
     00001E91  A$map_scenes$374                   map_scenes
     00001E92  A$map_scenes$378                   map_scenes
     00001E92  C$map_scenes.c$112$3_0$241         map_scenes
ASxxxx Linker V03.00/V05.40 + sdld,  page 78.
Hexadecimal  [32-Bits]

Area                                    Addr        Size        Decimal Bytes (Attributes)
--------------------------------        ----        ----        ------- ----- ------------
_CODE                               00000200    000035F9 =       13817. bytes (REL,CON)

      Value  Global                              Global Defined In Module
      -----  --------------------------------   ------------------------
     00001E95  A$map_scenes$379                   map_scenes
     00001E98  A$map_scenes$387                   map_scenes
     00001E98  C$map_scenes.c$114$3_0$241         map_scenes
     00001E98  C$map_scenes.c$115$3_0$241         map_scenes
     00001E9A  A$map_scenes$388                   map_scenes
     00001E9C  A$map_scenes$389                   map_scenes
     00001E9F  A$map_scenes$390                   map_scenes
     00001EA1  A$map_scenes$394                   map_scenes
     00001EA1  C$map_scenes.c$116$3_0$241         map_scenes
     00001EA2  A$map_scenes$395                   map_scenes
     00001EA5  A$map_scenes$396                   map_scenes
     00001EA6  A$map_scenes$400                   map_scenes
     00001EA6  C$map_scenes.c$117$3_0$241         map_scenes
     00001EA7  A$map_scenes$401                   map_scenes
     00001EA9  A$map_scenes$402                   map_scenes
     00001EAC  A$map_scenes$403                   map_scenes
     00001EAD  A$map_scenes$407                   map_scenes
     00001EAD  C$map_scenes.c$119$3_0$241         map_scenes
     00001EB0  A$map_scenes$408                   map_scenes
     00001EB3  A$map_scenes$416                   map_scenes
     00001EB3  C$map_scenes.c$121$3_0$241         map_scenes
     00001EB3  C$map_scenes.c$122$3_0$241         map_scenes
     00001EB5  A$map_scenes$417                   map_scenes
     00001EB7  A$map_scenes$418                   map_scenes
     00001EBA  A$map_scenes$419                   map_scenes
     00001EBC  A$map_scenes$423                   map_scenes
     00001EBC  C$map_scenes.c$123$3_0$241         map_scenes
     00001EBD  A$map_scenes$424                   map_scenes
     00001EC0  A$map_scenes$425                   map_scenes
     00001EC1  A$map_scenes$429                   map_scenes
     00001EC1  C$map_scenes.c$124$3_0$241         map_scenes
     00001EC2  A$map_scenes$430                   map_scenes
     00001EC4  A$map_scenes$431                   map_scenes
     00001EC7  A$map_scenes$432                   map_scenes
     00001EC8  A$map_scenes$436                   map_scenes
     00001EC8  C$map_scenes.c$126$3_0$241         map_scenes
     00001ECB  A$map_scenes$437                   map_scenes
     00001ECE  A$map_scenes$445                   map_scenes
     00001ECE  C$map_scenes.c$128$3_0$241         map_scenes
     00001ECE  C$map_scenes.c$129$3_0$241         map_scenes
     00001ED0  A$map_scenes$446                   map_scenes
     00001ED2  A$map_scenes$447                   map_scenes
     00001ED5  A$map_scenes$448                   map_scenes
     00001ED7  A$map_scenes$452                   map_scenes
     00001ED7  C$map_scenes.c$130$3_0$241         map_scenes
     00001ED8  A$map_scenes$453                   map_scenes
     00001EDB  A$map_scenes$454                   map_scenes
     00001EDC  A$map_scenes$458                   map_scenes
     00001EDC  C$map_scenes.c$131$3_0$241         map_scenes
     00001EDD  A$map_scenes$459                   map_scenes
     00001EDF  A$map_scenes$460                   map_scenes
ASxxxx Linker V03.00/V05.40 + sdld,  page 79.
Hexadecimal  [32-Bits]

Area                                    Addr        Size        Decimal Bytes (Attributes)
--------------------------------        ----        ----        ------- ----- ------------
_CODE                               00000200    000035F9 =       13817. bytes (REL,CON)

      Value  Global                              Global Defined In Module
      -----  --------------------------------   ------------------------
     00001EE2  A$map_scenes$461                   map_scenes
     00001EE3  A$map_scenes$465                   map_scenes
     00001EE3  C$map_scenes.c$133$3_0$241         map_scenes
     00001EE6  A$map_scenes$466                   map_scenes
     00001EE9  A$map_scenes$474                   map_scenes
     00001EE9  C$map_scenes.c$134$3_0$241         map_scenes
     00001EE9  C$map_scenes.c$135$3_0$241         map_scenes
     00001EEB  A$map_scenes$475                   map_scenes
     00001EED  A$map_scenes$476                   map_scenes
     00001EF0  A$map_scenes$477                   map_scenes
     00001EF2  A$map_scenes$481                   map_scenes
     00001EF2  C$map_scenes.c$136$3_0$241         map_scenes
     00001EF3  A$map_scenes$482                   map_scenes
     00001EF6  A$map_scenes$483                   map_scenes
     00001EF7  A$map_scenes$487                   map_scenes
     00001EF7  C$map_scenes.c$137$3_0$241         map_scenes
     00001EF8  A$map_scenes$488                   map_scenes
     00001EFA  A$map_scenes$489                   map_scenes
     00001EFD  A$map_scenes$490                   map_scenes
     00001EFE  A$map_scenes$494                   map_scenes
     00001EFE  C$map_scenes.c$139$3_0$241         map_scenes
     00001F01  A$map_scenes$495                   map_scenes
     00001F04  A$map_scenes$503                   map_scenes
     00001F04  C$map_scenes.c$140$3_0$241         map_scenes
     00001F04  C$map_scenes.c$141$3_0$241         map_scenes
     00001F06  A$map_scenes$504                   map_scenes
     00001F08  A$map_scenes$505                   map_scenes
     00001F0B  A$map_scenes$506                   map_scenes
     00001F0D  A$map_scenes$510                   map_scenes
     00001F0D  C$map_scenes.c$142$3_0$241         map_scenes
     00001F0E  A$map_scenes$511                   map_scenes
     00001F11  A$map_scenes$512                   map_scenes
     00001F12  A$map_scenes$516                   map_scenes
     00001F12  C$map_scenes.c$143$3_0$241         map_scenes
     00001F13  A$map_scenes$517                   map_scenes
     00001F15  A$map_scenes$518                   map_scenes
     00001F18  A$map_scenes$519                   map_scenes
     00001F19  A$map_scenes$523                   map_scenes
     00001F19  C$map_scenes.c$145$3_0$241         map_scenes
     00001F1C  A$map_scenes$524                   map_scenes
     00001F1E  A$map_scenes$532                   map_scenes
     00001F1E  C$map_scenes.c$147$3_0$241         map_scenes
     00001F1E  C$map_scenes.c$148$3_0$241         map_scenes
     00001F20  A$map_scenes$533                   map_scenes
     00001F22  A$map_scenes$534                   map_scenes
     00001F25  A$map_scenes$535                   map_scenes
     00001F27  A$map_scenes$539                   map_scenes
     00001F27  C$map_scenes.c$149$3_0$241         map_scenes
     00001F28  A$map_scenes$540                   map_scenes
     00001F2B  A$map_scenes$541                   map_scenes
     00001F2C  A$map_scenes$545                   map_scenes
ASxxxx Linker V03.00/V05.40 + sdld,  page 80.
Hexadecimal  [32-Bits]

Area                                    Addr        Size        Decimal Bytes (Attributes)
--------------------------------        ----        ----        ------- ----- ------------
_CODE                               00000200    000035F9 =       13817. bytes (REL,CON)

      Value  Global                              Global Defined In Module
      -----  --------------------------------   ------------------------
     00001F2C  C$map_scenes.c$150$3_0$241         map_scenes
     00001F2D  A$map_scenes$546                   map_scenes
     00001F2F  A$map_scenes$547                   map_scenes
     00001F32  A$map_scenes$548                   map_scenes
     00001F33  A$map_scenes$552                   map_scenes
     00001F33  C$map_scenes.c$152$3_0$241         map_scenes
     00001F36  A$map_scenes$553                   map_scenes
     00001F38  A$map_scenes$561                   map_scenes
     00001F38  C$map_scenes.c$154$3_0$241         map_scenes
     00001F38  C$map_scenes.c$155$3_0$241         map_scenes
     00001F3A  A$map_scenes$562                   map_scenes
     00001F3C  A$map_scenes$563                   map_scenes
     00001F3F  A$map_scenes$564                   map_scenes
     00001F41  A$map_scenes$568                   map_scenes
     00001F41  C$map_scenes.c$156$3_0$241         map_scenes
     00001F42  A$map_scenes$569                   map_scenes
     00001F45  A$map_scenes$570                   map_scenes
     00001F46  A$map_scenes$574                   map_scenes
     00001F46  C$map_scenes.c$157$3_0$241         map_scenes
     00001F47  A$map_scenes$575                   map_scenes
     00001F49  A$map_scenes$576                   map_scenes
     00001F4C  A$map_scenes$577                   map_scenes
     00001F4D  A$map_scenes$581                   map_scenes
     00001F4D  C$map_scenes.c$159$3_0$241         map_scenes
     00001F50  A$map_scenes$582                   map_scenes
     00001F52  A$map_scenes$590                   map_scenes
     00001F52  C$map_scenes.c$161$3_0$241         map_scenes
     00001F52  C$map_scenes.c$162$3_0$241         map_scenes
     00001F54  A$map_scenes$591                   map_scenes
     00001F56  A$map_scenes$592                   map_scenes
     00001F59  A$map_scenes$593                   map_scenes
     00001F5B  A$map_scenes$597                   map_scenes
     00001F5B  C$map_scenes.c$163$3_0$241         map_scenes
     00001F5C  A$map_scenes$598                   map_scenes
     00001F5F  A$map_scenes$599                   map_scenes
     00001F60  A$map_scenes$603                   map_scenes
     00001F60  C$map_scenes.c$164$3_0$241         map_scenes
     00001F61  A$map_scenes$604                   map_scenes
     00001F63  A$map_scenes$605                   map_scenes
     00001F66  A$map_scenes$606                   map_scenes
     00001F67  A$map_scenes$610                   map_scenes
     00001F67  C$map_scenes.c$166$3_0$241         map_scenes
     00001F6A  A$map_scenes$611                   map_scenes
     00001F6C  A$map_scenes$619                   map_scenes
     00001F6C  C$map_scenes.c$167$3_0$241         map_scenes
     00001F6C  C$map_scenes.c$168$3_0$241         map_scenes
     00001F6E  A$map_scenes$620                   map_scenes
     00001F70  A$map_scenes$621                   map_scenes
     00001F73  A$map_scenes$622                   map_scenes
     00001F75  A$map_scenes$626                   map_scenes
     00001F75  C$map_scenes.c$169$3_0$241         map_scenes
ASxxxx Linker V03.00/V05.40 + sdld,  page 81.
Hexadecimal  [32-Bits]

Area                                    Addr        Size        Decimal Bytes (Attributes)
--------------------------------        ----        ----        ------- ----- ------------
_CODE                               00000200    000035F9 =       13817. bytes (REL,CON)

      Value  Global                              Global Defined In Module
      -----  --------------------------------   ------------------------
     00001F76  A$map_scenes$627                   map_scenes
     00001F79  A$map_scenes$628                   map_scenes
     00001F7A  A$map_scenes$632                   map_scenes
     00001F7A  C$map_scenes.c$170$3_0$241         map_scenes
     00001F7B  A$map_scenes$633                   map_scenes
     00001F7D  A$map_scenes$634                   map_scenes
     00001F80  A$map_scenes$635                   map_scenes
     00001F81  A$map_scenes$639                   map_scenes
     00001F81  C$map_scenes.c$172$3_0$241         map_scenes
     00001F84  A$map_scenes$640                   map_scenes
     00001F86  A$map_scenes$648                   map_scenes
     00001F86  C$map_scenes.c$175$3_0$241         map_scenes
     00001F86  C$map_scenes.c$176$3_0$241         map_scenes
     00001F89  A$map_scenes$652                   map_scenes
     00001F89  C$map_scenes.c$177$3_0$241         map_scenes
     00001F8C  A$map_scenes$653                   map_scenes
     00001F8E  A$map_scenes$661                   map_scenes
     00001F8E  C$map_scenes.c$178$3_0$241         map_scenes
     00001F8E  C$map_scenes.c$179$3_0$241         map_scenes
     00001F91  A$map_scenes$669                   map_scenes
     00001F91  C$map_scenes.c$180$2_0$239         map_scenes
     00001F92  A$map_scenes$674                   map_scenes
     00001F92  C$map_scenes.c$181$2_0$239         map_scenes
     00001F92  XG$scene_manager_MapScene$0$0      map_scenes
     00001F93  A$mg_instruction_set$58            mg_instruction_set
     00001F93  C$mg_instruction_set.c$11$0_0$12   mg_instruction_set
     00001F93  G$Mg_InstructionSet$0$0            mg_instruction_set
     00001F93  _Mg_InstructionSet                 mg_instruction_set
     00001F95  A$mg_instruction_set$59            mg_instruction_set
     00001F97  A$mg_instruction_set$60            mg_instruction_set
     00001F98  A$mg_instruction_set$61            mg_instruction_set
     00001F99  A$mg_instruction_set$62            mg_instruction_set
     00001F9A  A$mg_instruction_set$63            mg_instruction_set
     00001F9B  A$mg_instruction_set$64            mg_instruction_set
     00001F9C  A$mg_instruction_set$65            mg_instruction_set
     00001F9D  A$mg_instruction_set$69            mg_instruction_set
     00001F9D  C$mg_instruction_set.c$13$2_0$12   mg_instruction_set
     00001F9F  A$mg_instruction_set$70            mg_instruction_set
     00001FA0  A$mg_instruction_set$74            mg_instruction_set
     00001FA0  C$mg_instruction_set.c$14$1_0$12   mg_instruction_set
     00001FA2  A$mg_instruction_set$75            mg_instruction_set
     00001FA4  A$mg_instruction_set$76            mg_instruction_set
     00001FA7  A$mg_instruction_set$77            mg_instruction_set
     00001FA9  A$mg_instruction_set$81            mg_instruction_set
     00001FA9  C$mg_instruction_set.c$16$1_0$12   mg_instruction_set
     00001FAC  A$mg_instruction_set$82            mg_instruction_set
     00001FAD  A$mg_instruction_set$83            mg_instruction_set
     00001FB0  A$mg_instruction_set$84            mg_instruction_set
     00001FB1  A$mg_instruction_set$85            mg_instruction_set
     00001FB4  A$mg_instruction_set$86            mg_instruction_set
     00001FB6  A$mg_instruction_set$90            mg_instruction_set
ASxxxx Linker V03.00/V05.40 + sdld,  page 82.
Hexadecimal  [32-Bits]

Area                                    Addr        Size        Decimal Bytes (Attributes)
--------------------------------        ----        ----        ------- ----- ------------
_CODE                               00000200    000035F9 =       13817. bytes (REL,CON)

      Value  Global                              Global Defined In Module
      -----  --------------------------------   ------------------------
     00001FB6  C$mg_instruction_set.c$17$1_0$12   mg_instruction_set
     00001FB9  A$mg_instruction_set$91            mg_instruction_set
     00001FBA  A$mg_instruction_set$92            mg_instruction_set
     00001FBD  A$mg_instruction_set$93            mg_instruction_set
     00001FBE  A$mg_instruction_set$94            mg_instruction_set
     00001FBF  A$mg_instruction_set$95            mg_instruction_set
     00001FC0  A$mg_instruction_set$96            mg_instruction_set
     00001FC1  A$mg_instruction_set$97            mg_instruction_set
     00001FC4  A$mg_instruction_set$98            mg_instruction_set
     00001FC6  A$mg_instruction_set$102           mg_instruction_set
     00001FC6  C$mg_instruction_set.c$19$1_0$12   mg_instruction_set
     00001FC7  A$mg_instruction_set$103           mg_instruction_set
     00001FC9  A$mg_instruction_set$104           mg_instruction_set
     00001FCC  A$mg_instruction_set$105           mg_instruction_set
     00001FCD  A$mg_instruction_set$109           mg_instruction_set
     00001FCD  C$mg_instruction_set.c$21$1_2$12   mg_instruction_set
     00001FCF  A$mg_instruction_set$110           mg_instruction_set
     00001FD1  A$mg_instruction_set$112           mg_instruction_set
     00001FD3  A$mg_instruction_set$113           mg_instruction_set
     00001FD4  A$mg_instruction_set$114           mg_instruction_set
     00001FD6  A$mg_instruction_set$115           mg_instruction_set
     00001FD7  A$mg_instruction_set$116           mg_instruction_set
     00001FDA  A$mg_instruction_set$120           mg_instruction_set
     00001FDA  C$mg_instruction_set.c$23$4_0$13   mg_instruction_set
     00001FDC  A$mg_instruction_set$121           mg_instruction_set
     00001FDE  A$mg_instruction_set$125           mg_instruction_set
     00001FDE  C$mg_instruction_set.c$24$1_2$12   mg_instruction_set
     00001FE0  A$mg_instruction_set$126           mg_instruction_set
     00001FE1  A$mg_instruction_set$127           mg_instruction_set
     00001FE3  A$mg_instruction_set$128           mg_instruction_set
     00001FE4  A$mg_instruction_set$129           mg_instruction_set
     00001FE5  A$mg_instruction_set$130           mg_instruction_set
     00001FE6  A$mg_instruction_set$131           mg_instruction_set
     00001FE7  A$mg_instruction_set$132           mg_instruction_set
     00001FE8  A$mg_instruction_set$133           mg_instruction_set
     00001FE9  A$mg_instruction_set$134           mg_instruction_set
     00001FEB  A$mg_instruction_set$135           mg_instruction_set
     00001FEC  A$mg_instruction_set$136           mg_instruction_set
     00001FED  A$mg_instruction_set$137           mg_instruction_set
     00001FEE  A$mg_instruction_set$138           mg_instruction_set
     00001FF0  A$mg_instruction_set$139           mg_instruction_set
     00001FF1  A$mg_instruction_set$140           mg_instruction_set
     00001FF2  A$mg_instruction_set$141           mg_instruction_set
     00001FF3  A$mg_instruction_set$142           mg_instruction_set
     00001FF4  A$mg_instruction_set$143           mg_instruction_set
     00001FF6  A$mg_instruction_set$144           mg_instruction_set
     00001FF7  A$mg_instruction_set$145           mg_instruction_set
     00001FF8  A$mg_instruction_set$146           mg_instruction_set
     00001FF9  A$mg_instruction_set$147           mg_instruction_set
     00001FFA  A$mg_instruction_set$148           mg_instruction_set
     00001FFB  A$mg_instruction_set$149           mg_instruction_set
ASxxxx Linker V03.00/V05.40 + sdld,  page 83.
Hexadecimal  [32-Bits]

Area                                    Addr        Size        Decimal Bytes (Attributes)
--------------------------------        ----        ----        ------- ----- ------------
_CODE                               00000200    000035F9 =       13817. bytes (REL,CON)

      Value  Global                              Global Defined In Module
      -----  --------------------------------   ------------------------
     00001FFC  A$mg_instruction_set$150           mg_instruction_set
     00001FFD  A$mg_instruction_set$151           mg_instruction_set
     00001FFE  A$mg_instruction_set$152           mg_instruction_set
     00001FFF  A$mg_instruction_set$153           mg_instruction_set
     00002001  A$mg_instruction_set$154           mg_instruction_set
     00002002  A$mg_instruction_set$155           mg_instruction_set
     00002003  A$mg_instruction_set$156           mg_instruction_set
     00002004  A$mg_instruction_set$157           mg_instruction_set
     00002005  A$mg_instruction_set$161           mg_instruction_set
     00002005  C$mg_instruction_set.c$25$1_2$12   mg_instruction_set
     00002007  A$mg_instruction_set$162           mg_instruction_set
     00002009  A$mg_instruction_set$167           mg_instruction_set
     00002009  C$mg_instruction_set.c$28$1_2$12   mg_instruction_set
     0000200B  A$mg_instruction_set$168           mg_instruction_set
     0000200C  A$mg_instruction_set$169           mg_instruction_set
     0000200E  A$mg_instruction_set$170           mg_instruction_set
     0000200F  A$mg_instruction_set$171           mg_instruction_set
     00002010  A$mg_instruction_set$172           mg_instruction_set
     00002011  A$mg_instruction_set$173           mg_instruction_set
     00002012  A$mg_instruction_set$174           mg_instruction_set
     00002013  A$mg_instruction_set$178           mg_instruction_set
     00002015  A$mg_instruction_set$179           mg_instruction_set
     00002016  A$mg_instruction_set$180           mg_instruction_set
     00002018  A$mg_instruction_set$181           mg_instruction_set
     0000201A  A$mg_instruction_set$182           mg_instruction_set
     0000201B  A$mg_instruction_set$183           mg_instruction_set
     0000201D  A$mg_instruction_set$184           mg_instruction_set
     0000201E  A$mg_instruction_set$185           mg_instruction_set
     0000201F  A$mg_instruction_set$186           mg_instruction_set
     00002020  A$mg_instruction_set$187           mg_instruction_set
     00002022  A$mg_instruction_set$188           mg_instruction_set
     00002023  A$mg_instruction_set$189           mg_instruction_set
     00002025  A$mg_instruction_set$190           mg_instruction_set
     00002026  A$mg_instruction_set$191           mg_instruction_set
     00002027  A$mg_instruction_set$192           mg_instruction_set
     00002028  A$mg_instruction_set$193           mg_instruction_set
     00002029  A$mg_instruction_set$194           mg_instruction_set
     0000202A  A$mg_instruction_set$195           mg_instruction_set
     0000202B  A$mg_instruction_set$196           mg_instruction_set
     0000202D  A$mg_instruction_set$200           mg_instruction_set
     0000202D  C$mg_instruction_set.c$27$5_0$13   mg_instruction_set
     0000202E  A$mg_instruction_set$201           mg_instruction_set
     00002031  A$mg_instruction_set$202           mg_instruction_set
     00002032  A$mg_instruction_set$203           mg_instruction_set
     00002033  A$mg_instruction_set$204           mg_instruction_set
     00002035  A$mg_instruction_set$205           mg_instruction_set
     00002036  A$mg_instruction_set$209           mg_instruction_set
     00002036  C$mg_instruction_set.c$28$5_0$13   mg_instruction_set
     00002038  A$mg_instruction_set$210           mg_instruction_set
     00002039  A$mg_instruction_set$211           mg_instruction_set
     0000203A  A$mg_instruction_set$212           mg_instruction_set
ASxxxx Linker V03.00/V05.40 + sdld,  page 84.
Hexadecimal  [32-Bits]

Area                                    Addr        Size        Decimal Bytes (Attributes)
--------------------------------        ----        ----        ------- ----- ------------
_CODE                               00000200    000035F9 =       13817. bytes (REL,CON)

      Value  Global                              Global Defined In Module
      -----  --------------------------------   ------------------------
     0000203B  A$mg_instruction_set$213           mg_instruction_set
     0000203C  A$mg_instruction_set$214           mg_instruction_set
     0000203D  A$mg_instruction_set$215           mg_instruction_set
     0000203E  A$mg_instruction_set$216           mg_instruction_set
     00002041  A$mg_instruction_set$217           mg_instruction_set
     00002042  A$mg_instruction_set$221           mg_instruction_set
     00002042  C$mg_instruction_set.c$29$5_0$13   mg_instruction_set
     00002043  A$mg_instruction_set$222           mg_instruction_set
     00002045  A$mg_instruction_set$223           mg_instruction_set
     00002047  A$mg_instruction_set$224           mg_instruction_set
     00002048  A$mg_instruction_set$228           mg_instruction_set
     00002048  C$mg_instruction_set.c$25$4_0$13   mg_instruction_set
     0000204A  A$mg_instruction_set$229           mg_instruction_set
     0000204B  A$mg_instruction_set$230           mg_instruction_set
     0000204D  A$mg_instruction_set$235           mg_instruction_set
     0000204D  C$mg_instruction_set.c$32$3_1$13   mg_instruction_set
     0000204E  A$mg_instruction_set$236           mg_instruction_set
     00002050  A$mg_instruction_set$237           mg_instruction_set
     00002051  A$mg_instruction_set$238           mg_instruction_set
     00002052  A$mg_instruction_set$239           mg_instruction_set
     00002053  A$mg_instruction_set$240           mg_instruction_set
     00002055  A$mg_instruction_set$241           mg_instruction_set
     00002056  A$mg_instruction_set$242           mg_instruction_set
     00002057  A$mg_instruction_set$243           mg_instruction_set
     00002058  A$mg_instruction_set$244           mg_instruction_set
     00002059  A$mg_instruction_set$245           mg_instruction_set
     0000205A  A$mg_instruction_set$246           mg_instruction_set
     0000205B  A$mg_instruction_set$247           mg_instruction_set
     0000205C  A$mg_instruction_set$248           mg_instruction_set
     0000205D  A$mg_instruction_set$249           mg_instruction_set
     0000205E  A$mg_instruction_set$250           mg_instruction_set
     0000205F  A$mg_instruction_set$251           mg_instruction_set
     00002061  A$mg_instruction_set$255           mg_instruction_set
     00002061  C$mg_instruction_set.c$33$3_1$13   mg_instruction_set
     00002062  A$mg_instruction_set$256           mg_instruction_set
     00002063  A$mg_instruction_set$257           mg_instruction_set
     00002065  A$mg_instruction_set$258           mg_instruction_set
     00002066  A$mg_instruction_set$259           mg_instruction_set
     00002069  A$mg_instruction_set$263           mg_instruction_set
     00002069  C$mg_instruction_set.c$21$2_0$13   mg_instruction_set
     0000206B  A$mg_instruction_set$264           mg_instruction_set
     0000206C  A$mg_instruction_set$265           mg_instruction_set
     0000206F  A$mg_instruction_set$270           mg_instruction_set
     0000206F  C$mg_instruction_set.c$39$1_1$13   mg_instruction_set
     00002071  A$mg_instruction_set$271           mg_instruction_set
     00002072  A$mg_instruction_set$272           mg_instruction_set
     00002073  A$mg_instruction_set$273           mg_instruction_set
     00002075  A$mg_instruction_set$274           mg_instruction_set
     00002077  A$mg_instruction_set$275           mg_instruction_set
     0000207A  A$mg_instruction_set$279           mg_instruction_set
     0000207A  C$mg_instruction_set.c$41$1_1$13   mg_instruction_set
ASxxxx Linker V03.00/V05.40 + sdld,  page 85.
Hexadecimal  [32-Bits]

Area                                    Addr        Size        Decimal Bytes (Attributes)
--------------------------------        ----        ----        ------- ----- ------------
_CODE                               00000200    000035F9 =       13817. bytes (REL,CON)

      Value  Global                              Global Defined In Module
      -----  --------------------------------   ------------------------
     0000207B  A$mg_instruction_set$280           mg_instruction_set
     0000207E  A$mg_instruction_set$284           mg_instruction_set
     0000207E  C$mg_instruction_set.c$42$2_1$13   mg_instruction_set
     00002080  A$mg_instruction_set$288           mg_instruction_set
     00002080  C$mg_instruction_set.c$43$2_1$13   mg_instruction_set
     00002082  A$mg_instruction_set$296           mg_instruction_set
     00002082  C$mg_instruction_set.c$45$1_2$13   mg_instruction_set
     00002082  C$mg_instruction_set.c$47$2_2$13   mg_instruction_set
     00002083  A$mg_instruction_set$300           mg_instruction_set
     00002083  C$mg_instruction_set.c$49$3_2$13   mg_instruction_set
     00002084  A$mg_instruction_set$301           mg_instruction_set
     00002086  A$mg_instruction_set$302           mg_instruction_set
     00002088  A$mg_instruction_set$306           mg_instruction_set
     00002088  C$mg_instruction_set.c$51$4_2$13   mg_instruction_set
     0000208A  A$mg_instruction_set$310           mg_instruction_set
     0000208A  C$mg_instruction_set.c$53$5_2$14   mg_instruction_set
     0000208B  A$mg_instruction_set$311           mg_instruction_set
     0000208D  A$mg_instruction_set$315           mg_instruction_set
     0000208D  C$mg_instruction_set.c$55$6_2$14   mg_instruction_set
     0000208E  A$mg_instruction_set$316           mg_instruction_set
     00002090  A$mg_instruction_set$317           mg_instruction_set
     00002091  A$mg_instruction_set$318           mg_instruction_set
     00002092  A$mg_instruction_set$319           mg_instruction_set
     00002094  A$mg_instruction_set$320           mg_instruction_set
     00002096  A$mg_instruction_set$321           mg_instruction_set
     00002099  A$mg_instruction_set$322           mg_instruction_set
     0000209A  A$mg_instruction_set$326           mg_instruction_set
     0000209A  C$mg_instruction_set.c$56$6_2$14   mg_instruction_set
     0000209C  A$mg_instruction_set$327           mg_instruction_set
     0000209E  A$mg_instruction_set$332           mg_instruction_set
     0000209E  C$mg_instruction_set.c$60$6_2$14   mg_instruction_set
     0000209F  A$mg_instruction_set$333           mg_instruction_set
     000020A1  A$mg_instruction_set$334           mg_instruction_set
     000020A2  A$mg_instruction_set$335           mg_instruction_set
     000020A3  A$mg_instruction_set$336           mg_instruction_set
     000020A5  A$mg_instruction_set$337           mg_instruction_set
     000020A7  A$mg_instruction_set$338           mg_instruction_set
     000020AA  A$mg_instruction_set$339           mg_instruction_set
     000020AB  A$mg_instruction_set$343           mg_instruction_set
     000020AB  C$mg_instruction_set.c$61$6_2$14   mg_instruction_set
     000020AD  A$mg_instruction_set$348           mg_instruction_set
     000020AD  C$mg_instruction_set.c$65$2_2$13   mg_instruction_set
     000020B0  A$mg_instruction_set$352           mg_instruction_set
     000020B0  C$mg_instruction_set.c$67$2_2$13   mg_instruction_set
     000020B3  A$mg_instruction_set$353           mg_instruction_set
     000020B6  A$mg_instruction_set$357           mg_instruction_set
     000020B6  C$mg_instruction_set.c$69$3_2$14   mg_instruction_set
     000020B9  A$mg_instruction_set$358           mg_instruction_set
     000020BB  A$mg_instruction_set$359           mg_instruction_set
     000020BD  A$mg_instruction_set$366           mg_instruction_set
     000020BD  C$mg_instruction_set.c$70$1_2$12   mg_instruction_set
ASxxxx Linker V03.00/V05.40 + sdld,  page 86.
Hexadecimal  [32-Bits]

Area                                    Addr        Size        Decimal Bytes (Attributes)
--------------------------------        ----        ----        ------- ----- ------------
_CODE                               00000200    000035F9 =       13817. bytes (REL,CON)

      Value  Global                              Global Defined In Module
      -----  --------------------------------   ------------------------
     000020BF  A$mg_instruction_set$371           mg_instruction_set
     000020BF  C$mg_instruction_set.c$72$1_2$12   mg_instruction_set
     000020BF  XG$Mg_InstructionSet$0$0           mg_instruction_set
     000020C0  A$mg_leaves$61                     mg_leaves
     000020C0  C$mg_leaves.c$7$0_0$156            mg_leaves
     000020C0  C$mg_leaves.c$9$1_0$156            mg_leaves
     000020C0  G$Mg_Leaves_Create$0$0             mg_leaves
     000020C0  _Mg_Leaves_Create                  mg_leaves
     000020C3  A$mg_leaves$62                     mg_leaves
     000020C5  A$mg_leaves$63                     mg_leaves
     000020C6  A$mg_leaves$64                     mg_leaves
     000020C8  A$mg_leaves$68                     mg_leaves
     000020C8  C$mg_leaves.c$10$1_0$156           mg_leaves
     000020C9  A$mg_leaves$69                     mg_leaves
     000020CB  A$mg_leaves$70                     mg_leaves
     000020CC  A$mg_leaves$71                     mg_leaves
     000020CE  A$mg_leaves$75                     mg_leaves
     000020CE  C$mg_leaves.c$11$1_0$156           mg_leaves
     000020D1  A$mg_leaves$76                     mg_leaves
     000020D3  A$mg_leaves$80                     mg_leaves
     000020D3  C$mg_leaves.c$12$1_0$156           mg_leaves
     000020D6  A$mg_leaves$81                     mg_leaves
     000020D7  A$mg_leaves$82                     mg_leaves
     000020D8  A$mg_leaves$83                     mg_leaves
     000020D9  A$mg_leaves$87                     mg_leaves
     000020D9  C$mg_leaves.c$14$1_0$156           mg_leaves
     000020DC  A$mg_leaves$88                     mg_leaves
     000020DE  A$mg_leaves$96                     mg_leaves
     000020DE  C$mg_leaves.c$15$1_0$156           mg_leaves
     000020DE  XG$Mg_Leaves_Create$0$0            mg_leaves
     000020DF  A$mg_leaves_load_bkg$57            mg_leaves_load_bkg
     000020DF  C$mg_leaves_load_bkg.c$5$0_0$155   mg_leaves_load_bkg
     000020DF  C$mg_leaves_load_bkg.c$7$1_0$155   mg_leaves_load_bkg
     000020DF  G$Mg_Leaves_LoadBKG$0$0            mg_leaves_load_bkg
     000020DF  _Mg_Leaves_LoadBKG                 mg_leaves_load_bkg
     000020E2  A$mg_leaves_load_bkg$58            mg_leaves_load_bkg
     000020E3  A$mg_leaves_load_bkg$59            mg_leaves_load_bkg
     000020E6  A$mg_leaves_load_bkg$60            mg_leaves_load_bkg
     000020E7  A$mg_leaves_load_bkg$61            mg_leaves_load_bkg
     000020EA  A$mg_leaves_load_bkg$62            mg_leaves_load_bkg
     000020EC  A$mg_leaves_load_bkg$66            mg_leaves_load_bkg
     000020EC  C$mg_leaves_load_bkg.c$8$1_0$155   mg_leaves_load_bkg
     000020EF  A$mg_leaves_load_bkg$67            mg_leaves_load_bkg
     000020F0  A$mg_leaves_load_bkg$68            mg_leaves_load_bkg
     000020F3  A$mg_leaves_load_bkg$69            mg_leaves_load_bkg
     000020F4  A$mg_leaves_load_bkg$70            mg_leaves_load_bkg
     000020F5  A$mg_leaves_load_bkg$71            mg_leaves_load_bkg
     000020F6  A$mg_leaves_load_bkg$72            mg_leaves_load_bkg
     000020F7  A$mg_leaves_load_bkg$73            mg_leaves_load_bkg
     000020FA  A$mg_leaves_load_bkg$74            mg_leaves_load_bkg
     000020FC  A$mg_leaves_load_bkg$82            mg_leaves_load_bkg
ASxxxx Linker V03.00/V05.40 + sdld,  page 87.
Hexadecimal  [32-Bits]

Area                                    Addr        Size        Decimal Bytes (Attributes)
--------------------------------        ----        ----        ------- ----- ------------
_CODE                               00000200    000035F9 =       13817. bytes (REL,CON)

      Value  Global                              Global Defined In Module
      -----  --------------------------------   ------------------------
     000020FC  C$mg_leaves_load_bkg.c$9$1_0$155   mg_leaves_load_bkg
     000020FC  XG$Mg_Leaves_LoadBKG$0$0           mg_leaves_load_bkg
     000020FD  A$mg_load_screen$76                mg_load_screen
     000020FD  C$mg_load_screen.c$13$0_0$128      mg_load_screen
     000020FD  C$mg_load_screen.c$14$1_0$128      mg_load_screen
     000020FD  G$Mg_LoadScreenInit$0$0            mg_load_screen
     000020FD  _Mg_LoadScreenInit                 mg_load_screen
     000020FE  A$mg_load_screen$77                mg_load_screen
     00002101  A$mg_load_screen$81                mg_load_screen
     00002101  C$mg_load_screen.c$15$1_0$128      mg_load_screen
     00002104  A$mg_load_screen$82                mg_load_screen
     00002106  A$mg_load_screen$86                mg_load_screen
     00002106  C$mg_load_screen.c$16$1_0$128      mg_load_screen
     00002109  A$mg_load_screen$87                mg_load_screen
     0000210B  A$mg_load_screen$91                mg_load_screen
     0000210B  C$mg_load_screen.c$17$1_0$128      mg_load_screen
     0000210E  A$mg_load_screen$92                mg_load_screen
     00002110  A$mg_load_screen$96                mg_load_screen
     00002110  C$mg_load_screen.c$19$2_0$129      mg_load_screen
     00002112  A$mg_load_screen$97                mg_load_screen
     00002113  A$mg_load_screen$101               mg_load_screen
     00002113  C$mg_load_screen.c$20$1_1$129      mg_load_screen
     00002115  A$mg_load_screen$102               mg_load_screen
     00002117  A$mg_load_screen$103               mg_load_screen
     0000211A  A$mg_load_screen$104               mg_load_screen
     0000211C  A$mg_load_screen$108               mg_load_screen
     0000211C  C$mg_load_screen.c$22$1_1$129      mg_load_screen
     0000211F  A$mg_load_screen$109               mg_load_screen
     00002120  A$mg_load_screen$110               mg_load_screen
     00002123  A$mg_load_screen$111               mg_load_screen
     00002124  A$mg_load_screen$112               mg_load_screen
     00002127  A$mg_load_screen$113               mg_load_screen
     00002129  A$mg_load_screen$117               mg_load_screen
     00002129  C$mg_load_screen.c$23$1_1$129      mg_load_screen
     0000212C  A$mg_load_screen$118               mg_load_screen
     0000212D  A$mg_load_screen$119               mg_load_screen
     00002130  A$mg_load_screen$120               mg_load_screen
     00002131  A$mg_load_screen$121               mg_load_screen
     00002132  A$mg_load_screen$122               mg_load_screen
     00002133  A$mg_load_screen$123               mg_load_screen
     00002134  A$mg_load_screen$124               mg_load_screen
     00002137  A$mg_load_screen$125               mg_load_screen
     00002139  A$mg_load_screen$129               mg_load_screen
     00002139  C$mg_load_screen.c$25$1_1$129      mg_load_screen
     0000213A  A$mg_load_screen$130               mg_load_screen
     0000213C  A$mg_load_screen$131               mg_load_screen
     0000213F  A$mg_load_screen$132               mg_load_screen
     00002140  A$mg_load_screen$140               mg_load_screen
     00002140  C$mg_load_screen.c$26$1_1$128      mg_load_screen
     00002140  XG$Mg_LoadScreenInit$0$0           mg_load_screen
     00002141  A$mg_load_screen$153               mg_load_screen
ASxxxx Linker V03.00/V05.40 + sdld,  page 88.
Hexadecimal  [32-Bits]

Area                                    Addr        Size        Decimal Bytes (Attributes)
--------------------------------        ----        ----        ------- ----- ------------
_CODE                               00000200    000035F9 =       13817. bytes (REL,CON)

      Value  Global                              Global Defined In Module
      -----  --------------------------------   ------------------------
     00002141  C$mg_load_screen.c$28$1_1$130      mg_load_screen
     00002141  C$mg_load_screen.c$29$2_0$130      mg_load_screen
     00002141  G$Mg_LoadScreenUpdate$0$0          mg_load_screen
     00002141  _Mg_LoadScreenUpdate               mg_load_screen
     00002143  A$mg_load_screen$158               mg_load_screen
     00002143  C$mg_load_screen.c$32$1_0$130      mg_load_screen
     00002146  A$mg_load_screen$159               mg_load_screen
     00002147  A$mg_load_screen$160               mg_load_screen
     00002148  A$mg_load_screen$164               mg_load_screen
     00002148  C$mg_load_screen.c$33$2_0$131      mg_load_screen
     0000214B  A$mg_load_screen$168               mg_load_screen
     0000214B  C$mg_load_screen.c$35$2_0$131      mg_load_screen
     0000214E  A$mg_load_screen$169               mg_load_screen
     0000214F  A$mg_load_screen$173               mg_load_screen
     0000214F  C$mg_load_screen.c$36$3_0$132      mg_load_screen
     00002150  A$mg_load_screen$174               mg_load_screen
     00002153  A$mg_load_screen$175               mg_load_screen
     00002154  A$mg_load_screen$176               mg_load_screen
     00002156  A$mg_load_screen$183               mg_load_screen
     00002156  C$mg_load_screen.c$37$4_0$133      mg_load_screen
     00002156  C$mg_load_screen.c$38$4_0$133      mg_load_screen
     00002157  A$mg_load_screen$184               mg_load_screen
     0000215A  A$mg_load_screen$185               mg_load_screen
     0000215D  A$mg_load_screen$190               mg_load_screen
     0000215D  C$mg_load_screen.c$42$3_1$135      mg_load_screen
     0000215F  A$mg_load_screen$191               mg_load_screen
     00002162  A$mg_load_screen$192               mg_load_screen
     00002163  A$mg_load_screen$193               mg_load_screen
     00002165  A$mg_load_screen$197               mg_load_screen
     00002165  C$mg_load_screen.c$43$3_1$135      mg_load_screen
     00002167  A$mg_load_screen$198               mg_load_screen
     00002169  A$mg_load_screen$203               mg_load_screen
     00002169  C$mg_load_screen.c$44$4_1$136      mg_load_screen
     0000216B  A$mg_load_screen$204               mg_load_screen
     0000216E  A$mg_load_screen$205               mg_load_screen
     0000216F  A$mg_load_screen$206               mg_load_screen
     00002171  A$mg_load_screen$210               mg_load_screen
     00002171  C$mg_load_screen.c$45$4_1$136      mg_load_screen
     00002173  A$mg_load_screen$211               mg_load_screen
     00002175  A$mg_load_screen$216               mg_load_screen
     00002175  C$mg_load_screen.c$46$5_1$137      mg_load_screen
     00002177  A$mg_load_screen$217               mg_load_screen
     0000217A  A$mg_load_screen$218               mg_load_screen
     0000217B  A$mg_load_screen$219               mg_load_screen
     0000217D  A$mg_load_screen$223               mg_load_screen
     0000217D  C$mg_load_screen.c$47$5_1$137      mg_load_screen
     0000217F  A$mg_load_screen$224               mg_load_screen
     00002181  A$mg_load_screen$229               mg_load_screen
     00002181  C$mg_load_screen.c$49$5_1$137      mg_load_screen
     00002182  A$mg_load_screen$234               mg_load_screen
     00002182  C$mg_load_screen.c$51$2_1$134      mg_load_screen
ASxxxx Linker V03.00/V05.40 + sdld,  page 89.
Hexadecimal  [32-Bits]

Area                                    Addr        Size        Decimal Bytes (Attributes)
--------------------------------        ----        ----        ------- ----- ------------
_CODE                               00000200    000035F9 =       13817. bytes (REL,CON)

      Value  Global                              Global Defined In Module
      -----  --------------------------------   ------------------------
     00002184  A$mg_load_screen$238               mg_load_screen
     00002184  C$mg_load_screen.c$52$3_1$138      mg_load_screen
     00002185  A$mg_load_screen$239               mg_load_screen
     00002187  A$mg_load_screen$243               mg_load_screen
     00002187  C$mg_load_screen.c$55$2_1$134      mg_load_screen
     00002188  A$mg_load_screen$247               mg_load_screen
     00002188  C$mg_load_screen.c$57$2_1$134      mg_load_screen
     00002189  A$mg_load_screen$248               mg_load_screen
     0000218A  A$mg_load_screen$249               mg_load_screen
     0000218B  A$mg_load_screen$250               mg_load_screen
     0000218D  A$mg_load_screen$251               mg_load_screen
     0000218F  A$mg_load_screen$252               mg_load_screen
     00002192  A$mg_load_screen$253               mg_load_screen
     00002193  A$mg_load_screen$261               mg_load_screen
     00002193  C$mg_load_screen.c$59$1_0$130      mg_load_screen
     00002193  XG$Mg_LoadScreenUpdate$0$0         mg_load_screen
     00002195  A$mg_mission_complete$59           mg_mission_complete
     00002195  C$mg_mission_complete.c$11$0_0$1   mg_mission_complete
     00002195  G$Mg_SplashCompleteScreen$0$0      mg_mission_complete
     00002195  _Mg_SplashCompleteScreen           mg_mission_complete
     00002197  A$mg_mission_complete$63           mg_mission_complete
     00002197  C$mg_mission_complete.c$13$2_0$1   mg_mission_complete
     00002199  A$mg_mission_complete$64           mg_mission_complete
     0000219A  A$mg_mission_complete$68           mg_mission_complete
     0000219A  C$mg_mission_complete.c$14$1_0$1   mg_mission_complete
     0000219C  A$mg_mission_complete$69           mg_mission_complete
     0000219E  A$mg_mission_complete$70           mg_mission_complete
     000021A1  A$mg_mission_complete$71           mg_mission_complete
     000021A3  A$mg_mission_complete$75           mg_mission_complete
     000021A3  C$mg_mission_complete.c$16$1_0$1   mg_mission_complete
     000021A6  A$mg_mission_complete$76           mg_mission_complete
     000021A7  A$mg_mission_complete$77           mg_mission_complete
     000021AA  A$mg_mission_complete$78           mg_mission_complete
     000021AB  A$mg_mission_complete$79           mg_mission_complete
     000021AE  A$mg_mission_complete$80           mg_mission_complete
     000021B0  A$mg_mission_complete$84           mg_mission_complete
     000021B0  C$mg_mission_complete.c$17$1_0$1   mg_mission_complete
     000021B3  A$mg_mission_complete$85           mg_mission_complete
     000021B4  A$mg_mission_complete$86           mg_mission_complete
     000021B7  A$mg_mission_complete$87           mg_mission_complete
     000021B8  A$mg_mission_complete$88           mg_mission_complete
     000021B9  A$mg_mission_complete$89           mg_mission_complete
     000021BA  A$mg_mission_complete$90           mg_mission_complete
     000021BB  A$mg_mission_complete$91           mg_mission_complete
     000021BE  A$mg_mission_complete$92           mg_mission_complete
     000021C0  A$mg_mission_complete$96           mg_mission_complete
     000021C0  C$mg_mission_complete.c$19$1_0$1   mg_mission_complete
     000021C1  A$mg_mission_complete$97           mg_mission_complete
     000021C3  A$mg_mission_complete$98           mg_mission_complete
     000021C6  A$mg_mission_complete$99           mg_mission_complete
     000021C7  A$mg_mission_complete$103          mg_mission_complete
ASxxxx Linker V03.00/V05.40 + sdld,  page 90.
Hexadecimal  [32-Bits]

Area                                    Addr        Size        Decimal Bytes (Attributes)
--------------------------------        ----        ----        ------- ----- ------------
_CODE                               00000200    000035F9 =       13817. bytes (REL,CON)

      Value  Global                              Global Defined In Module
      -----  --------------------------------   ------------------------
     000021C7  C$mg_mission_complete.c$21$2_0$1   mg_mission_complete
     000021C9  A$mg_mission_complete$104          mg_mission_complete
     000021CB  A$mg_mission_complete$105          mg_mission_complete
     000021CC  A$mg_mission_complete$106          mg_mission_complete
     000021CE  A$mg_mission_complete$107          mg_mission_complete
     000021CF  A$mg_mission_complete$108          mg_mission_complete
     000021D1  A$mg_mission_complete$109          mg_mission_complete
     000021D2  A$mg_mission_complete$110          mg_mission_complete
     000021D3  A$mg_mission_complete$111          mg_mission_complete
     000021D5  A$mg_mission_complete$112          mg_mission_complete
     000021D6  A$mg_mission_complete$113          mg_mission_complete
     000021D8  A$mg_mission_complete$114          mg_mission_complete
     000021D9  A$mg_mission_complete$115          mg_mission_complete
     000021DB  A$mg_mission_complete$116          mg_mission_complete
     000021DC  A$mg_mission_complete$117          mg_mission_complete
     000021DE  A$mg_mission_complete$118          mg_mission_complete
     000021DF  A$mg_mission_complete$119          mg_mission_complete
     000021E1  A$mg_mission_complete$120          mg_mission_complete
     000021E2  A$mg_mission_complete$121          mg_mission_complete
     000021E4  A$mg_mission_complete$122          mg_mission_complete
     000021E5  A$mg_mission_complete$123          mg_mission_complete
     000021E7  A$mg_mission_complete$124          mg_mission_complete
     000021E8  A$mg_mission_complete$125          mg_mission_complete
     000021EA  A$mg_mission_complete$126          mg_mission_complete
     000021EB  A$mg_mission_complete$127          mg_mission_complete
     000021ED  A$mg_mission_complete$128          mg_mission_complete
     000021EE  A$mg_mission_complete$129          mg_mission_complete
     000021F0  A$mg_mission_complete$130          mg_mission_complete
     000021F1  A$mg_mission_complete$131          mg_mission_complete
     000021F3  A$mg_mission_complete$132          mg_mission_complete
     000021F4  A$mg_mission_complete$133          mg_mission_complete
     000021F6  A$mg_mission_complete$137          mg_mission_complete
     000021F6  C$mg_mission_complete.c$22$1_1$1   mg_mission_complete
     000021F8  A$mg_mission_complete$139          mg_mission_complete
     000021F9  A$mg_mission_complete$140          mg_mission_complete
     000021FB  A$mg_mission_complete$141          mg_mission_complete
     000021FD  A$mg_mission_complete$145          mg_mission_complete
     000021FD  C$mg_mission_complete.c$24$3_1$1   mg_mission_complete
     000021FE  A$mg_mission_complete$146          mg_mission_complete
     00002200  A$mg_mission_complete$147          mg_mission_complete
     00002203  A$mg_mission_complete$148          mg_mission_complete
     00002204  A$mg_mission_complete$149          mg_mission_complete
     00002205  A$mg_mission_complete$150          mg_mission_complete
     00002206  A$mg_mission_complete$151          mg_mission_complete
     00002207  A$mg_mission_complete$152          mg_mission_complete
     0000220A  A$mg_mission_complete$153          mg_mission_complete
     0000220B  A$mg_mission_complete$154          mg_mission_complete
     0000220C  A$mg_mission_complete$155          mg_mission_complete
     0000220D  A$mg_mission_complete$156          mg_mission_complete
     0000220F  A$mg_mission_complete$160          mg_mission_complete
     0000220F  C$mg_mission_complete.c$25$3_1$1   mg_mission_complete
ASxxxx Linker V03.00/V05.40 + sdld,  page 91.
Hexadecimal  [32-Bits]

Area                                    Addr        Size        Decimal Bytes (Attributes)
--------------------------------        ----        ----        ------- ----- ------------
_CODE                               00000200    000035F9 =       13817. bytes (REL,CON)

      Value  Global                              Global Defined In Module
      -----  --------------------------------   ------------------------
     00002210  A$mg_mission_complete$161          mg_mission_complete
     00002211  A$mg_mission_complete$162          mg_mission_complete
     00002212  A$mg_mission_complete$163          mg_mission_complete
     00002213  A$mg_mission_complete$164          mg_mission_complete
     00002214  A$mg_mission_complete$165          mg_mission_complete
     00002215  A$mg_mission_complete$166          mg_mission_complete
     00002217  A$mg_mission_complete$167          mg_mission_complete
     00002218  A$mg_mission_complete$168          mg_mission_complete
     0000221B  A$mg_mission_complete$169          mg_mission_complete
     0000221C  A$mg_mission_complete$173          mg_mission_complete
     0000221C  C$mg_mission_complete.c$22$2_1$1   mg_mission_complete
     0000221D  A$mg_mission_complete$174          mg_mission_complete
     0000221F  A$mg_mission_complete$182          mg_mission_complete
     0000221F  C$mg_mission_complete.c$31$1_1$1   mg_mission_complete
     00002221  A$mg_mission_complete$187          mg_mission_complete
     00002221  C$mg_mission_complete.c$32$1_1$1   mg_mission_complete
     00002221  XG$Mg_SplashCompleteScreen$0$0     mg_mission_complete
     00002222  A$mg_mission_complete$200          mg_mission_complete
     00002222  C$mg_mission_complete.c$34$1_1$1   mg_mission_complete
     00002222  C$mg_mission_complete.c$36$1_0$1   mg_mission_complete
     00002222  G$Mg_CompleteScreenSleep$0$0       mg_mission_complete
     00002222  _Mg_CompleteScreenSleep            mg_mission_complete
     00002223  A$mg_mission_complete$201          mg_mission_complete
     00002226  A$mg_mission_complete$206          mg_mission_complete
     00002226  C$mg_mission_complete.c$38$1_0$1   mg_mission_complete
     00002229  A$mg_mission_complete$207          mg_mission_complete
     0000222A  A$mg_mission_complete$208          mg_mission_complete
     0000222C  A$mg_mission_complete$212          mg_mission_complete
     0000222C  C$mg_mission_complete.c$39$1_0$1   mg_mission_complete
     0000222F  A$mg_mission_complete$213          mg_mission_complete
     00002231  A$mg_mission_complete$221          mg_mission_complete
     00002231  C$mg_mission_complete.c$41$1_0$1   mg_mission_complete
     00002231  C$mg_mission_complete.c$43$2_0$1   mg_mission_complete
     00002234  A$mg_mission_complete$222          mg_mission_complete
     00002237  A$mg_mission_complete$223          mg_mission_complete
     00002238  A$mg_mission_complete$227          mg_mission_complete
     00002238  C$mg_mission_complete.c$44$3_0$1   mg_mission_complete
     0000223A  A$mg_mission_complete$228          mg_mission_complete
     0000223C  A$mg_mission_complete$232          mg_mission_complete
     0000223C  C$mg_mission_complete.c$46$4_0$1   mg_mission_complete
     0000223D  A$mg_mission_complete$233          mg_mission_complete
     00002240  A$mg_mission_complete$244          mg_mission_complete
     00002240  C$mg_mission_complete.c$51$1_0$1   mg_mission_complete
     00002240  C$mg_mission_complete.c$52$1_0$1   mg_mission_complete
     00002240  XG$Mg_CompleteScreenSleep$0$0      mg_mission_complete
     00002241  A$mg_player_movement$56            mg_player_movement
     00002241  C$mg_player_movement.c$9$0_0$153   mg_player_movement
     00002241  G$Mg_PlayerMovement$0$0            mg_player_movement
     00002241  _Mg_PlayerMovement                 mg_player_movement
     00002242  A$mg_player_movement$60            mg_player_movement
     00002242  C$mg_player_movement.c$10$2_0$15   mg_player_movement
ASxxxx Linker V03.00/V05.40 + sdld,  page 92.
Hexadecimal  [32-Bits]

Area                                    Addr        Size        Decimal Bytes (Attributes)
--------------------------------        ----        ----        ------- ----- ------------
_CODE                               00000200    000035F9 =       13817. bytes (REL,CON)

      Value  Global                              Global Defined In Module
      -----  --------------------------------   ------------------------
     00002245  A$mg_player_movement$61            mg_player_movement
     00002246  A$mg_player_movement$62            mg_player_movement
     00002248  A$mg_player_movement$66            mg_player_movement
     0000224B  A$mg_player_movement$67            mg_player_movement
     0000224D  A$mg_player_movement$68            mg_player_movement
     0000224F  A$mg_player_movement$69            mg_player_movement
     00002250  A$mg_player_movement$70            mg_player_movement
     00002251  A$mg_player_movement$71            mg_player_movement
     00002253  A$mg_player_movement$75            mg_player_movement
     00002253  C$mg_player_movement.c$12$4_0$15   mg_player_movement
     00002256  A$mg_player_movement$76            mg_player_movement
     00002258  A$mg_player_movement$77            mg_player_movement
     0000225A  A$mg_player_movement$82            mg_player_movement
     0000225A  C$mg_player_movement.c$13$5_0$15   mg_player_movement
     0000225C  A$mg_player_movement$83            mg_player_movement
     0000225E  A$mg_player_movement$84            mg_player_movement
     0000225F  A$mg_player_movement$85            mg_player_movement
     00002260  A$mg_player_movement$86            mg_player_movement
     00002262  A$mg_player_movement$90            mg_player_movement
     00002262  C$mg_player_movement.c$14$5_0$15   mg_player_movement
     00002265  A$mg_player_movement$91            mg_player_movement
     00002267  A$mg_player_movement$92            mg_player_movement
     00002269  A$mg_player_movement$97            mg_player_movement
     00002269  C$mg_player_movement.c$15$6_0$15   mg_player_movement
     0000226B  A$mg_player_movement$98            mg_player_movement
     0000226D  A$mg_player_movement$99            mg_player_movement
     0000226E  A$mg_player_movement$100           mg_player_movement
     0000226F  A$mg_player_movement$101           mg_player_movement
     00002271  A$mg_player_movement$105           mg_player_movement
     00002271  C$mg_player_movement.c$16$6_0$15   mg_player_movement
     00002274  A$mg_player_movement$106           mg_player_movement
     00002276  A$mg_player_movement$107           mg_player_movement
     00002278  A$mg_player_movement$112           mg_player_movement
     00002278  C$mg_player_movement.c$17$7_0$15   mg_player_movement
     00002279  A$mg_player_movement$113           mg_player_movement
     0000227B  A$mg_player_movement$114           mg_player_movement
     0000227C  A$mg_player_movement$115           mg_player_movement
     0000227D  A$mg_player_movement$116           mg_player_movement
     0000227F  A$mg_player_movement$120           mg_player_movement
     0000227F  C$mg_player_movement.c$18$7_0$15   mg_player_movement
     00002282  A$mg_player_movement$121           mg_player_movement
     00002284  A$mg_player_movement$126           mg_player_movement
     00002284  C$mg_player_movement.c$22$2_0$16   mg_player_movement
     00002287  A$mg_player_movement$127           mg_player_movement
     00002288  A$mg_player_movement$128           mg_player_movement
     0000228A  A$mg_player_movement$129           mg_player_movement
     0000228D  A$mg_player_movement$130           mg_player_movement
     0000228F  A$mg_player_movement$131           mg_player_movement
     00002291  A$mg_player_movement$132           mg_player_movement
     00002293  A$mg_player_movement$133           mg_player_movement
     00002295  A$mg_player_movement$134           mg_player_movement
ASxxxx Linker V03.00/V05.40 + sdld,  page 93.
Hexadecimal  [32-Bits]

Area                                    Addr        Size        Decimal Bytes (Attributes)
--------------------------------        ----        ----        ------- ----- ------------
_CODE                               00000200    000035F9 =       13817. bytes (REL,CON)

      Value  Global                              Global Defined In Module
      -----  --------------------------------   ------------------------
     00002297  A$mg_player_movement$135           mg_player_movement
     00002299  A$mg_player_movement$136           mg_player_movement
     0000229B  A$mg_player_movement$144           mg_player_movement
     0000229B  C$mg_player_movement.c$23$3_0$16   mg_player_movement
     0000229B  C$mg_player_movement.c$24$3_0$16   mg_player_movement
     0000229E  A$mg_player_movement$145           mg_player_movement
     000022A1  A$mg_player_movement$149           mg_player_movement
     000022A1  C$mg_player_movement.c$25$3_0$16   mg_player_movement
     000022A3  A$mg_player_movement$157           mg_player_movement
     000022A3  C$mg_player_movement.c$26$3_0$16   mg_player_movement
     000022A3  C$mg_player_movement.c$27$3_0$16   mg_player_movement
     000022A6  A$mg_player_movement$158           mg_player_movement
     000022A9  A$mg_player_movement$162           mg_player_movement
     000022A9  C$mg_player_movement.c$28$3_0$16   mg_player_movement
     000022AB  A$mg_player_movement$170           mg_player_movement
     000022AB  C$mg_player_movement.c$29$3_0$16   mg_player_movement
     000022AB  C$mg_player_movement.c$30$3_0$16   mg_player_movement
     000022AE  A$mg_player_movement$171           mg_player_movement
     000022B1  A$mg_player_movement$175           mg_player_movement
     000022B1  C$mg_player_movement.c$31$3_0$16   mg_player_movement
     000022B3  A$mg_player_movement$183           mg_player_movement
     000022B3  C$mg_player_movement.c$32$3_0$16   mg_player_movement
     000022B3  C$mg_player_movement.c$33$3_0$16   mg_player_movement
     000022B6  A$mg_player_movement$184           mg_player_movement
     000022B9  A$mg_player_movement$192           mg_player_movement
     000022B9  C$mg_player_movement.c$11$2_0$15   mg_player_movement
     000022B9  C$mg_player_movement.c$37$2_0$16   mg_player_movement
     000022BC  A$mg_player_movement$193           mg_player_movement
     000022BD  A$mg_player_movement$197           mg_player_movement
     000022BD  C$mg_player_movement.c$40$2_0$16   mg_player_movement
     000022C0  A$mg_player_movement$198           mg_player_movement
     000022C1  A$mg_player_movement$199           mg_player_movement
     000022C3  A$mg_player_movement$200           mg_player_movement
     000022C5  A$mg_player_movement$201           mg_player_movement
     000022C7  A$mg_player_movement$205           mg_player_movement
     000022C7  C$mg_player_movement.c$41$2_0$16   mg_player_movement
     000022C8  A$mg_player_movement$206           mg_player_movement
     000022CB  A$mg_player_movement$211           mg_player_movement
     000022CB  C$mg_player_movement.c$43$2_0$16   mg_player_movement
     000022CE  A$mg_player_movement$212           mg_player_movement
     000022D0  A$mg_player_movement$213           mg_player_movement
     000022D2  A$mg_player_movement$214           mg_player_movement
     000022D4  A$mg_player_movement$215           mg_player_movement
     000022D6  A$mg_player_movement$219           mg_player_movement
     000022D6  C$mg_player_movement.c$44$2_0$16   mg_player_movement
     000022D7  A$mg_player_movement$220           mg_player_movement
     000022DA  A$mg_player_movement$225           mg_player_movement
     000022DA  C$mg_player_movement.c$46$2_0$16   mg_player_movement
     000022DD  A$mg_player_movement$226           mg_player_movement
     000022DF  A$mg_player_movement$227           mg_player_movement
     000022E1  A$mg_player_movement$228           mg_player_movement
ASxxxx Linker V03.00/V05.40 + sdld,  page 94.
Hexadecimal  [32-Bits]

Area                                    Addr        Size        Decimal Bytes (Attributes)
--------------------------------        ----        ----        ------- ----- ------------
_CODE                               00000200    000035F9 =       13817. bytes (REL,CON)

      Value  Global                              Global Defined In Module
      -----  --------------------------------   ------------------------
     000022E3  A$mg_player_movement$229           mg_player_movement
     000022E5  A$mg_player_movement$233           mg_player_movement
     000022E5  C$mg_player_movement.c$47$2_0$16   mg_player_movement
     000022E6  A$mg_player_movement$234           mg_player_movement
     000022E9  A$mg_player_movement$239           mg_player_movement
     000022E9  C$mg_player_movement.c$49$2_0$16   mg_player_movement
     000022EC  A$mg_player_movement$240           mg_player_movement
     000022EE  A$mg_player_movement$241           mg_player_movement
     000022EF  A$mg_player_movement$242           mg_player_movement
     000022F1  A$mg_player_movement$243           mg_player_movement
     000022F2  A$mg_player_movement$247           mg_player_movement
     000022F2  C$mg_player_movement.c$50$2_0$16   mg_player_movement
     000022F3  A$mg_player_movement$248           mg_player_movement
     000022F6  A$mg_player_movement$256           mg_player_movement
     000022F6  C$mg_player_movement.c$51$2_0$15   mg_player_movement
     000022F6  XG$Mg_PlayerMovement$0$0           mg_player_movement
     000022F7  A$mg_timer$70                      mg_timer
     000022F7  C$mg_timer.c$8$0_0$3               mg_timer
     000022F7  G$Mg_TimerStart$0$0                mg_timer
     000022F7  _Mg_TimerStart                     mg_timer
     000022F8  A$mg_timer$71                      mg_timer
     000022F9  A$mg_timer$75                      mg_timer
     000022F9  C$mg_timer.c$9$1_0$3               mg_timer
     000022FA  A$mg_timer$76                      mg_timer
     000022FB  A$mg_timer$77                      mg_timer
     000022FC  A$mg_timer$78                      mg_timer
     000022FD  A$mg_timer$79                      mg_timer
     000022FE  A$mg_timer$80                      mg_timer
     000022FF  A$mg_timer$81                      mg_timer
     00002300  A$mg_timer$82                      mg_timer
     00002301  A$mg_timer$83                      mg_timer
     00002302  A$mg_timer$84                      mg_timer
     00002303  A$mg_timer$85                      mg_timer
     00002304  A$mg_timer$86                      mg_timer
     00002305  A$mg_timer$87                      mg_timer
     00002308  A$mg_timer$88                      mg_timer
     00002309  A$mg_timer$89                      mg_timer
     0000230A  A$mg_timer$90                      mg_timer
     0000230B  A$mg_timer$94                      mg_timer
     0000230B  C$mg_timer.c$10$1_0$3              mg_timer
     0000230E  A$mg_timer$95                      mg_timer
     00002310  A$mg_timer$99                      mg_timer
     00002310  C$mg_timer.c$11$1_0$3              mg_timer
     00002311  A$mg_timer$100                     mg_timer
     00002314  A$mg_timer$101                     mg_timer
     00002315  A$mg_timer$102                     mg_timer
     00002316  A$mg_timer$106                     mg_timer
     00002316  C$mg_timer.c$12$1_0$3              mg_timer
     00002317  A$mg_timer$107                     mg_timer
     0000231A  A$mg_timer$115                     mg_timer
     0000231A  C$mg_timer.c$13$1_0$3              mg_timer
ASxxxx Linker V03.00/V05.40 + sdld,  page 95.
Hexadecimal  [32-Bits]

Area                                    Addr        Size        Decimal Bytes (Attributes)
--------------------------------        ----        ----        ------- ----- ------------
_CODE                               00000200    000035F9 =       13817. bytes (REL,CON)

      Value  Global                              Global Defined In Module
      -----  --------------------------------   ------------------------
     0000231A  XG$Mg_TimerStart$0$0               mg_timer
     0000231B  A$mg_timer$128                     mg_timer
     0000231B  C$mg_timer.c$15$1_0$4              mg_timer
     0000231B  C$mg_timer.c$16$2_0$5              mg_timer
     0000231B  G$Mg_TimerUpdate$0$0               mg_timer
     0000231B  _Mg_TimerUpdate                    mg_timer
     0000231E  A$mg_timer$129                     mg_timer
     0000231F  A$mg_timer$133                     mg_timer
     0000231F  C$mg_timer.c$17$2_0$5              mg_timer
     00002320  A$mg_timer$137                     mg_timer
     00002320  C$mg_timer.c$19$1_0$4              mg_timer
     00002323  A$mg_timer$138                     mg_timer
     00002324  A$mg_timer$139                     mg_timer
     00002326  A$mg_timer$140                     mg_timer
     00002327  A$mg_timer$141                     mg_timer
     00002328  A$mg_timer$146                     mg_timer
     00002328  C$mg_timer.c$21$2_0$6              mg_timer
     0000232B  A$mg_timer$147                     mg_timer
     0000232E  A$mg_timer$148                     mg_timer
     0000232F  A$mg_timer$149                     mg_timer
     00002330  A$mg_timer$150                     mg_timer
     00002331  A$mg_timer$151                     mg_timer
     00002332  A$mg_timer$152                     mg_timer
     00002333  A$mg_timer$153                     mg_timer
     00002334  A$mg_timer$154                     mg_timer
     00002335  A$mg_timer$158                     mg_timer
     00002335  C$mg_timer.c$22$3_0$7              mg_timer
     00002336  A$mg_timer$159                     mg_timer
     00002339  A$mg_timer$163                     mg_timer
     00002339  C$mg_timer.c$23$3_0$7              mg_timer
     0000233C  A$mg_timer$164                     mg_timer
     0000233E  A$mg_timer$172                     mg_timer
     0000233E  C$mg_timer.c$25$2_0$4              mg_timer
     0000233E  XG$Mg_TimerUpdate$0$0              mg_timer
     0000233F  A$mg_timer$182                     mg_timer
     0000233F  C$mg_timer.c$27$2_0$8              mg_timer
     0000233F  G$Mg_TimerStopAlarm$0$0            mg_timer
     0000233F  _Mg_TimerStopAlarm                 mg_timer
     00002340  A$mg_timer$183                     mg_timer
     00002343  A$mg_timer$188                     mg_timer
     00002343  C$mg_timer.c$27$1_0$8              mg_timer
     00002343  XG$Mg_TimerStopAlarm$0$0           mg_timer
     00002344  A$mini_games$54                    mini_games
     00002344  C$mini_games.c$9$0_0$149           mini_games
     00002344  G$Mg_SetTitle$0$0                  mini_games
     00002344  _Mg_SetTitle                       mini_games
     00002345  A$mini_games$58                    mini_games
     00002347  A$mini_games$60                    mini_games
     00002348  A$mini_games$61                    mini_games
     0000234A  A$mini_games$62                    mini_games
     0000234B  A$mini_games$63                    mini_games
ASxxxx Linker V03.00/V05.40 + sdld,  page 96.
Hexadecimal  [32-Bits]

Area                                    Addr        Size        Decimal Bytes (Attributes)
--------------------------------        ----        ----        ------- ----- ------------
_CODE                               00000200    000035F9 =       13817. bytes (REL,CON)

      Value  Global                              Global Defined In Module
      -----  --------------------------------   ------------------------
     0000234C  A$mini_games$64                    mini_games
     0000234D  A$mini_games$65                    mini_games
     0000234F  A$mini_games$69                    mini_games
     0000234F  C$mini_games.c$13$3_0$150          mini_games
     00002350  A$mini_games$70                    mini_games
     00002351  A$mini_games$71                    mini_games
     00002354  A$mini_games$72                    mini_games
     00002355  A$mini_games$73                    mini_games
     00002356  A$mini_games$74                    mini_games
     00002357  A$mini_games$75                    mini_games
     00002358  A$mini_games$76                    mini_games
     0000235A  A$mini_games$77                    mini_games
     0000235C  A$mini_games$78                    mini_games
     0000235D  A$mini_games$82                    mini_games
     0000235D  C$mini_games.c$14$3_0$150          mini_games
     0000235E  A$mini_games$83                    mini_games
     0000235F  A$mini_games$84                    mini_games
     00002360  A$mini_games$85                    mini_games
     00002363  A$mini_games$86                    mini_games
     00002364  A$mini_games$87                    mini_games
     00002365  A$mini_games$88                    mini_games
     00002367  A$mini_games$89                    mini_games
     00002368  A$mini_games$90                    mini_games
     00002369  A$mini_games$91                    mini_games
     0000236B  A$mini_games$92                    mini_games
     0000236C  A$mini_games$93                    mini_games
     0000236D  A$mini_games$94                    mini_games
     0000236F  A$mini_games$95                    mini_games
     00002370  A$mini_games$96                    mini_games
     00002371  A$mini_games$97                    mini_games
     00002372  A$mini_games$98                    mini_games
     00002373  A$mini_games$99                    mini_games
     00002376  A$mini_games$100                   mini_games
     00002378  A$mini_games$101                   mini_games
     00002379  A$mini_games$105                   mini_games
     00002379  C$mini_games.c$11$2_0$149          mini_games
     0000237A  A$mini_games$106                   mini_games
     0000237C  A$mini_games$111                   mini_games
     0000237D  A$mini_games$116                   mini_games
     0000237D  C$mini_games.c$16$2_0$149          mini_games
     0000237D  XG$Mg_SetTitle$0$0                 mini_games
     0000237E  A$money$56                         money
     0000237E  C$money.c$5$0_0$3                  money
     0000237E  G$add_money$0$0                    money
     0000237E  _add_money                         money
     0000237F  A$money$60                         money
     0000237F  C$money.c$6$1_0$3                  money
     00002380  A$money$61                         money
     00002382  A$money$62                         money
     00002383  A$money$63                         money
     00002384  A$money$64                         money
ASxxxx Linker V03.00/V05.40 + sdld,  page 97.
Hexadecimal  [32-Bits]

Area                                    Addr        Size        Decimal Bytes (Attributes)
--------------------------------        ----        ----        ------- ----- ------------
_CODE                               00000200    000035F9 =       13817. bytes (REL,CON)

      Value  Global                              Global Defined In Module
      -----  --------------------------------   ------------------------
     00002385  A$money$65                         money
     00002386  A$money$66                         money
     00002387  A$money$67                         money
     00002388  A$money$68                         money
     00002389  A$money$69                         money
     0000238A  A$money$70                         money
     0000238B  A$money$71                         money
     0000238E  A$money$72                         money
     0000238F  A$money$73                         money
     00002392  A$money$74                         money
     00002393  A$money$75                         money
     00002394  A$money$76                         money
     00002395  A$money$77                         money
     00002396  A$money$78                         money
     00002397  A$money$79                         money
     00002398  A$money$80                         money
     0000239B  A$money$81                         money
     0000239C  A$money$82                         money
     0000239D  A$money$83                         money
     0000239E  A$money$87                         money
     0000239E  C$money.c$7$1_0$3                  money
     000023A0  A$money$88                         money
     000023A1  A$money$89                         money
     000023A2  A$money$90                         money
     000023A3  A$money$91                         money
     000023A4  A$money$92                         money
     000023A5  A$money$93                         money
     000023A6  A$money$94                         money
     000023A7  A$money$95                         money
     000023A8  A$money$96                         money
     000023A9  A$money$97                         money
     000023AA  A$money$98                         money
     000023AB  A$money$99                         money
     000023AC  A$money$100                        money
     000023AF  A$money$101                        money
     000023B2  A$money$102                        money
     000023B3  A$money$103                        money
     000023B4  A$money$104                        money
     000023B5  A$money$105                        money
     000023B6  A$money$106                        money
     000023B7  A$money$107                        money
     000023B8  A$money$108                        money
     000023B9  A$money$109                        money
     000023BA  A$money$110                        money
     000023BB  A$money$118                        money
     000023BB  C$money.c$8$1_0$3                  money
     000023BB  XG$add_money$0$0                   money
     000023BC  A$npcs$79                          npcs
     000023BC  C$npcs.c$22$0_0$135                npcs
     000023BC  C$npcs.c$24$1_0$135                npcs
     000023BC  G$init_NPCs$0$0                    npcs
ASxxxx Linker V03.00/V05.40 + sdld,  page 98.
Hexadecimal  [32-Bits]

Area                                    Addr        Size        Decimal Bytes (Attributes)
--------------------------------        ----        ----        ------- ----- ------------
_CODE                               00000200    000035F9 =       13817. bytes (REL,CON)

      Value  Global                              Global Defined In Module
      -----  --------------------------------   ------------------------
     000023BC  _init_NPCs                         npcs
     000023BF  A$npcs$80                          npcs
     000023C2  A$npcs$84                          npcs
     000023C2  C$npcs.c$25$1_0$135                npcs
     000023C5  A$npcs$85                          npcs
     000023C8  A$npcs$89                          npcs
     000023C8  C$npcs.c$26$1_0$135                npcs
     000023CB  A$npcs$90                          npcs
     000023CE  A$npcs$98                          npcs
     000023CE  C$npcs.c$27$1_0$135                npcs
     000023CE  XG$init_NPCs$0$0                   npcs
     000023CF  A$npcs$108                         npcs
     000023CF  C$npcs.c$29$1_0$137                npcs
     000023CF  G$Scene_DrawNPCLine$0$0            npcs
     000023CF  _Scene_DrawNPCLine                 npcs
     000023D1  A$npcs$109                         npcs
     000023D3  A$npcs$110                         npcs
     000023D4  A$npcs$114                         npcs
     000023D4  C$npcs.c$37$1_0$137                npcs
     000023D6  A$npcs$115                         npcs
     000023D9  A$npcs$116                         npcs
     000023DA  A$npcs$117                         npcs
     000023DB  A$npcs$118                         npcs
     000023DC  A$npcs$119                         npcs
     000023DE  A$npcs$120                         npcs
     000023DF  A$npcs$121                         npcs
     000023E0  A$npcs$122                         npcs
     000023E1  A$npcs$123                         npcs
     000023E3  A$npcs$124                         npcs
     000023E4  A$npcs$125                         npcs
     000023E5  A$npcs$126                         npcs
     000023E6  A$npcs$127                         npcs
     000023E7  A$npcs$128                         npcs
     000023E8  A$npcs$129                         npcs
     000023EA  A$npcs$130                         npcs
     000023EB  A$npcs$134                         npcs
     000023EB  C$npcs.c$39$1_0$137                npcs
     000023EE  A$npcs$135                         npcs
     000023F0  A$npcs$136                         npcs
     000023F1  A$npcs$137                         npcs
     000023F2  A$npcs$138                         npcs
     000023F3  A$npcs$139                         npcs
     000023F4  A$npcs$140                         npcs
     000023F5  A$npcs$141                         npcs
     000023F6  A$npcs$142                         npcs
     000023F7  A$npcs$143                         npcs
     000023F8  A$npcs$144                         npcs
     000023F9  A$npcs$148                         npcs
     000023F9  C$npcs.c$41$1_0$137                npcs
     000023FC  A$npcs$149                         npcs
     000023FD  A$npcs$150                         npcs
ASxxxx Linker V03.00/V05.40 + sdld,  page 99.
Hexadecimal  [32-Bits]

Area                                    Addr        Size        Decimal Bytes (Attributes)
--------------------------------        ----        ----        ------- ----- ------------
_CODE                               00000200    000035F9 =       13817. bytes (REL,CON)

      Value  Global                              Global Defined In Module
      -----  --------------------------------   ------------------------
     000023FE  A$npcs$151                         npcs
     000023FF  A$npcs$152                         npcs
     00002401  A$npcs$153                         npcs
     00002402  A$npcs$154                         npcs
     00002403  A$npcs$155                         npcs
     00002404  A$npcs$156                         npcs
     00002405  A$npcs$157                         npcs
     00002406  A$npcs$158                         npcs
     00002407  A$npcs$159                         npcs
     00002408  A$npcs$160                         npcs
     00002409  A$npcs$161                         npcs
     0000240A  A$npcs$162                         npcs
     0000240B  A$npcs$163                         npcs
     0000240D  A$npcs$164                         npcs
     0000240E  A$npcs$165                         npcs
     0000240F  A$npcs$166                         npcs
     00002410  A$npcs$167                         npcs
     00002411  A$npcs$168                         npcs
     00002412  A$npcs$172                         npcs
     00002412  C$npcs.c$42$1_0$137                npcs
     00002415  A$npcs$173                         npcs
     00002416  A$npcs$174                         npcs
     00002417  A$npcs$175                         npcs
     00002418  A$npcs$179                         npcs
     00002418  C$npcs.c$45$1_2$137                npcs
     00002419  A$npcs$180                         npcs
     0000241B  A$npcs$181                         npcs
     0000241C  A$npcs$182                         npcs
     0000241D  A$npcs$184                         npcs
     0000241E  A$npcs$185                         npcs
     00002420  A$npcs$186                         npcs
     00002421  A$npcs$187                         npcs
     00002422  A$npcs$188                         npcs
     00002423  A$npcs$189                         npcs
     00002425  A$npcs$190                         npcs
     00002426  A$npcs$191                         npcs
     00002427  A$npcs$192                         npcs
     00002428  A$npcs$193                         npcs
     00002429  A$npcs$194                         npcs
     0000242A  A$npcs$195                         npcs
     0000242B  A$npcs$196                         npcs
     0000242C  A$npcs$197                         npcs
     0000242D  A$npcs$198                         npcs
     0000242E  A$npcs$199                         npcs
     00002430  A$npcs$203                         npcs
     00002430  C$npcs.c$47$3_0$139                npcs
     00002431  A$npcs$204                         npcs
     00002434  A$npcs$205                         npcs
     00002435  A$npcs$206                         npcs
     00002436  A$npcs$207                         npcs
     00002438  A$npcs$208                         npcs
ASxxxx Linker V03.00/V05.40 + sdld,  page 100.
Hexadecimal  [32-Bits]

Area                                    Addr        Size        Decimal Bytes (Attributes)
--------------------------------        ----        ----        ------- ----- ------------
_CODE                               00000200    000035F9 =       13817. bytes (REL,CON)

      Value  Global                              Global Defined In Module
      -----  --------------------------------   ------------------------
     0000243A  A$npcs$209                         npcs
     0000243B  A$npcs$213                         npcs
     0000243B  C$npcs.c$48$3_0$139                npcs
     0000243D  A$npcs$214                         npcs
     0000243E  A$npcs$215                         npcs
     0000243F  A$npcs$216                         npcs
     00002440  A$npcs$217                         npcs
     00002443  A$npcs$218                         npcs
     00002444  A$npcs$219                         npcs
     00002445  A$npcs$220                         npcs
     00002448  A$npcs$221                         npcs
     00002449  A$npcs$222                         npcs
     0000244B  A$npcs$223                         npcs
     0000244C  A$npcs$224                         npcs
     0000244D  A$npcs$225                         npcs
     0000244E  A$npcs$226                         npcs
     0000244F  A$npcs$227                         npcs
     00002452  A$npcs$228                         npcs
     00002454  A$npcs$229                         npcs
     00002455  A$npcs$233                         npcs
     00002455  C$npcs.c$45$2_0$138                npcs
     00002457  A$npcs$234                         npcs
     00002458  A$npcs$235                         npcs
     0000245A  A$npcs$236                         npcs
     0000245B  A$npcs$237                         npcs
     0000245C  A$npcs$238                         npcs
     0000245E  A$npcs$243                         npcs
     0000245E  C$npcs.c$52$1_2$137                npcs
     0000245F  A$npcs$244                         npcs
     00002461  A$npcs$245                         npcs
     00002462  A$npcs$246                         npcs
     00002463  A$npcs$248                         npcs
     00002464  A$npcs$249                         npcs
     00002466  A$npcs$250                         npcs
     00002467  A$npcs$251                         npcs
     00002468  A$npcs$252                         npcs
     00002469  A$npcs$253                         npcs
     0000246A  A$npcs$254                         npcs
     0000246B  A$npcs$255                         npcs
     0000246C  A$npcs$256                         npcs
     0000246D  A$npcs$257                         npcs
     0000246E  A$npcs$258                         npcs
     0000246F  A$npcs$259                         npcs
     00002471  A$npcs$263                         npcs
     00002471  C$npcs.c$54$3_0$141                npcs
     00002472  A$npcs$264                         npcs
     00002475  A$npcs$265                         npcs
     00002476  A$npcs$266                         npcs
     00002477  A$npcs$267                         npcs
     00002479  A$npcs$271                         npcs
     00002479  C$npcs.c$55$3_0$141                npcs
ASxxxx Linker V03.00/V05.40 + sdld,  page 101.
Hexadecimal  [32-Bits]

Area                                    Addr        Size        Decimal Bytes (Attributes)
--------------------------------        ----        ----        ------- ----- ------------
_CODE                               00000200    000035F9 =       13817. bytes (REL,CON)

      Value  Global                              Global Defined In Module
      -----  --------------------------------   ------------------------
     0000247B  A$npcs$272                         npcs
     0000247C  A$npcs$273                         npcs
     0000247D  A$npcs$274                         npcs
     0000247E  A$npcs$275                         npcs
     00002480  A$npcs$276                         npcs
     00002481  A$npcs$277                         npcs
     00002482  A$npcs$278                         npcs
     00002483  A$npcs$279                         npcs
     00002484  A$npcs$280                         npcs
     00002486  A$npcs$281                         npcs
     00002487  A$npcs$282                         npcs
     00002488  A$npcs$283                         npcs
     0000248A  A$npcs$284                         npcs
     0000248B  A$npcs$285                         npcs
     0000248C  A$npcs$286                         npcs
     0000248E  A$npcs$287                         npcs
     0000248F  A$npcs$288                         npcs
     00002490  A$npcs$289                         npcs
     00002491  A$npcs$290                         npcs
     00002492  A$npcs$291                         npcs
     00002495  A$npcs$292                         npcs
     00002497  A$npcs$293                         npcs
     00002498  A$npcs$297                         npcs
     00002498  C$npcs.c$52$2_0$140                npcs
     0000249A  A$npcs$298                         npcs
     0000249B  A$npcs$299                         npcs
     0000249D  A$npcs$300                         npcs
     0000249E  A$npcs$301                         npcs
     0000249F  A$npcs$302                         npcs
     000024A1  A$npcs$307                         npcs
     000024A3  A$npcs$308                         npcs
     000024A4  A$npcs$309                         npcs
     000024A6  A$npcs$310                         npcs
     000024A7  A$npcs$311                         npcs
     000024A8  A$npcs$312                         npcs
     000024A9  A$npcs$313                         npcs
     000024AA  A$npcs$314                         npcs
     000024AB  A$npcs$315                         npcs
     000024AC  A$npcs$316                         npcs
     000024AF  A$npcs$317                         npcs
     000024B0  A$npcs$318                         npcs
     000024B1  A$npcs$319                         npcs
     000024B2  A$npcs$320                         npcs
     000024B4  A$npcs$321                         npcs
     000024B5  A$npcs$322                         npcs
     000024B6  A$npcs$323                         npcs
     000024B7  A$npcs$324                         npcs
     000024B9  A$npcs$325                         npcs
     000024BA  A$npcs$326                         npcs
     000024BD  A$npcs$328                         npcs
     000024BF  A$npcs$329                         npcs
ASxxxx Linker V03.00/V05.40 + sdld,  page 102.
Hexadecimal  [32-Bits]

Area                                    Addr        Size        Decimal Bytes (Attributes)
--------------------------------        ----        ----        ------- ----- ------------
_CODE                               00000200    000035F9 =       13817. bytes (REL,CON)

      Value  Global                              Global Defined In Module
      -----  --------------------------------   ------------------------
     000024C0  A$npcs$330                         npcs
     000024C1  A$npcs$331                         npcs
     000024C2  A$npcs$332                         npcs
     000024C3  A$npcs$333                         npcs
     000024C4  A$npcs$334                         npcs
     000024C5  A$npcs$335                         npcs
     000024C6  A$npcs$336                         npcs
     000024C7  A$npcs$337                         npcs
     000024C9  A$npcs$341                         npcs
     000024C9  C$npcs.c$61$3_0$143                npcs
     000024CA  A$npcs$342                         npcs
     000024CD  A$npcs$343                         npcs
     000024CE  A$npcs$344                         npcs
     000024CF  A$npcs$345                         npcs
     000024D0  A$npcs$346                         npcs
     000024D2  A$npcs$347                         npcs
     000024D4  A$npcs$348                         npcs
     000024D5  A$npcs$352                         npcs
     000024D5  C$npcs.c$62$3_0$143                npcs
     000024D6  A$npcs$353                         npcs
     000024D7  A$npcs$354                         npcs
     000024DA  A$npcs$355                         npcs
     000024DB  A$npcs$356                         npcs
     000024DC  A$npcs$357                         npcs
     000024DF  A$npcs$358                         npcs
     000024E0  A$npcs$359                         npcs
     000024E2  A$npcs$360                         npcs
     000024E3  A$npcs$361                         npcs
     000024E6  A$npcs$362                         npcs
     000024E8  A$npcs$366                         npcs
     000024E8  C$npcs.c$59$2_0$142                npcs
     000024E9  A$npcs$367                         npcs
     000024EB  A$npcs$372                         npcs
     000024EB  C$npcs.c$66$1_1$144                npcs
     000024ED  A$npcs$373                         npcs
     000024EE  A$npcs$374                         npcs
     000024EF  A$npcs$375                         npcs
     000024F0  A$npcs$376                         npcs
     000024F1  A$npcs$377                         npcs
     000024F3  A$npcs$378                         npcs
     000024F5  A$npcs$379                         npcs
     000024F6  A$npcs$383                         npcs
     000024F6  C$npcs.c$67$1_1$144                npcs
     000024F9  A$npcs$384                         npcs
     000024FA  A$npcs$385                         npcs
     000024FB  A$npcs$386                         npcs
     000024FE  A$npcs$387                         npcs
     000024FF  A$npcs$388                         npcs
     00002502  A$npcs$389                         npcs
     00002503  A$npcs$390                         npcs
     00002506  A$npcs$391                         npcs
ASxxxx Linker V03.00/V05.40 + sdld,  page 103.
Hexadecimal  [32-Bits]

Area                                    Addr        Size        Decimal Bytes (Attributes)
--------------------------------        ----        ----        ------- ----- ------------
_CODE                               00000200    000035F9 =       13817. bytes (REL,CON)

      Value  Global                              Global Defined In Module
      -----  --------------------------------   ------------------------
     00002508  A$npcs$395                         npcs
     00002508  C$npcs.c$70$2_1$145                npcs
     0000250A  A$npcs$396                         npcs
     0000250C  A$npcs$400                         npcs
     0000250C  C$npcs.c$71$1_2$145                npcs
     0000250F  A$npcs$401                         npcs
     00002510  A$npcs$402                         npcs
     00002511  A$npcs$403                         npcs
     00002514  A$npcs$404                         npcs
     00002515  A$npcs$405                         npcs
     00002518  A$npcs$406                         npcs
     00002519  A$npcs$407                         npcs
     0000251C  A$npcs$411                         npcs
     0000251C  C$npcs.c$72$1_2$137                npcs
     0000251E  A$npcs$412                         npcs
     0000251F  A$npcs$413                         npcs
     00002521  A$npcs$414                         npcs
     00002522  A$npc_icons$58                     npc_icons
     00002522  C$npc_icons.c$27$0_0$127           npc_icons
     00002522  C$npc_icons.c$28$1_0$127           npc_icons
     00002522  G$InitNPCIcons$0$0                 npc_icons
     00002522  _InitNPCIcons                      npc_icons
     00002525  A$npc_icons$59                     npc_icons
     00002526  A$npc_icons$60                     npc_icons
     00002529  A$npc_icons$61                     npc_icons
     0000252A  A$npc_icons$62                     npc_icons
     0000252D  A$npc_icons$63                     npc_icons
     0000252F  A$npc_icons$71                     npc_icons
     0000252F  C$npc_icons.c$29$1_0$127           npc_icons
     0000252F  XG$InitNPCIcons$0$0                npc_icons
     00002530  G$npc_icons_tileset$0_0$0          npc_icons
     00002530  _npc_icons_tileset                 npc_icons
     00002590  G$npc_icons_tilemap$0_0$0          npc_icons
     00002590  _npc_icons_tilemap                 npc_icons
     00002596  G$numbers_tileset$0_0$0            numbers
     00002596  _numbers_tileset                   numbers
     00002636  G$numbers_tilemap$0_0$0            numbers
     00002636  _numbers_tilemap                   numbers
     00002640  A$player$75                        player
     00002640  C$player.c$11$0_0$158              player
     00002640  C$player.c$13$1_0$158              player
     00002640  G$create_player$0$0                player
     00002640  _create_player                     player
     00002643  A$player$76                        player
     00002646  A$player$80                        player
     00002646  C$player.c$14$1_0$158              player
     00002649  A$player$81                        player
     0000264C  A$player$85                        player
     0000264C  C$player.c$16$1_0$158              player
     0000264F  A$player$86                        player
     00002652  A$player$87                        player
ASxxxx Linker V03.00/V05.40 + sdld,  page 104.
Hexadecimal  [32-Bits]

Area                                    Addr        Size        Decimal Bytes (Attributes)
--------------------------------        ----        ----        ------- ----- ------------
_CODE                               00000200    000035F9 =       13817. bytes (REL,CON)

      Value  Global                              Global Defined In Module
      -----  --------------------------------   ------------------------
     00002653  A$player$88                        player
     00002655  A$player$89                        player
     00002656  A$player$90                        player
     00002658  A$player$98                        player
     00002658  C$player.c$17$1_0$158              player
     00002658  XG$create_player$0$0               player
     00002659  A$player$108                       player
     00002659  C$player.c$19$1_0$160              player
     00002659  G$init_player$0$0                  player
     00002659  _init_player                       player
     0000265B  A$player$112                       player
     0000265B  C$player.c$21$1_0$160              player
     0000265E  A$player$113                       player
     0000265F  A$player$114                       player
     00002661  A$player$115                       player
     00002664  A$player$116                       player
     00002665  A$player$117                       player
     00002667  A$player$121                       player
     00002667  C$player.c$22$1_0$160              player
     0000266A  A$player$122                       player
     0000266B  A$player$123                       player
     0000266D  A$player$124                       player
     00002670  A$player$125                       player
     00002671  A$player$126                       player
     00002673  A$player$133                       player
     00002676  A$player$134                       player
     00002677  A$player$138                       player
     0000267A  A$player$139                       player
     0000267C  A$player$140                       player
     0000267D  A$player$141                       player
     0000267E  A$player$151                       player
     0000267E  C$player.c$24$2_0$161              player
     0000267E  C$player.c$28$1_1$160              player
     0000267E  C$player.c$29$1_1$160              player
     0000267F  A$player$152                       player
     00002681  A$player$156                       player
     00002681  C$player.c$26$3_0$162              player
     00002683  A$player$157                       player
     00002684  A$player$158                       player
     00002685  A$player$159                       player
     00002687  A$player$160                       player
     00002689  A$player$161                       player
     0000268A  A$player$162                       player
     0000268D  A$player$163                       player
     0000268F  A$player$164                       player
     00002690  A$player$165                       player
     00002691  A$player$166                       player
     00002692  A$player$170                       player
     00002695  A$player$174                       player
     00002695  C$player.c$27$3_0$162              player
     00002696  A$player$175                       player
ASxxxx Linker V03.00/V05.40 + sdld,  page 105.
Hexadecimal  [32-Bits]

Area                                    Addr        Size        Decimal Bytes (Attributes)
--------------------------------        ----        ----        ------- ----- ------------
_CODE                               00000200    000035F9 =       13817. bytes (REL,CON)

      Value  Global                              Global Defined In Module
      -----  --------------------------------   ------------------------
     00002698  A$player$176                       player
     00002699  A$player$177                       player
     0000269B  A$player$178                       player
     0000269D  A$player$179                       player
     0000269E  A$player$180                       player
     000026A1  A$player$181                       player
     000026A3  A$player$182                       player
     000026A4  A$player$183                       player
     000026A5  A$player$184                       player
     000026A6  A$player$188                       player
     000026A6  C$player.c$28$3_0$162              player
     000026A9  A$player$189                       player
     000026AA  A$player$190                       player
     000026AB  A$player$191                       player
     000026AD  A$player$192                       player
     000026AE  A$player$193                       player
     000026B0  A$player$194                       player
     000026B2  A$player$195                       player
     000026B3  A$player$196                       player
     000026B6  A$player$197                       player
     000026B8  A$player$198                       player
     000026B9  A$player$199                       player
     000026BA  A$player$200                       player
     000026BB  A$player$201                       player
     000026BC  A$player$202                       player
     000026BD  A$player$203                       player
     000026BE  A$player$204                       player
     000026BF  A$player$208                       player
     000026BF  C$player.c$29$3_0$162              player
     000026C2  A$player$209                       player
     000026C3  A$player$210                       player
     000026C4  A$player$211                       player
     000026C6  A$player$212                       player
     000026C7  A$player$213                       player
     000026C9  A$player$214                       player
     000026CB  A$player$215                       player
     000026CC  A$player$216                       player
     000026CF  A$player$217                       player
     000026D1  A$player$218                       player
     000026D2  A$player$219                       player
     000026D3  A$player$220                       player
     000026D4  A$player$221                       player
     000026D5  A$player$222                       player
     000026D6  A$player$223                       player
     000026D7  A$player$224                       player
     000026D8  A$player$228                       player
     000026D8  C$player.c$31$3_0$162              player
     000026DB  A$player$229                       player
     000026DC  A$player$230                       player
     000026DE  A$player$231                       player
     000026E1  A$player$232                       player
ASxxxx Linker V03.00/V05.40 + sdld,  page 106.
Hexadecimal  [32-Bits]

Area                                    Addr        Size        Decimal Bytes (Attributes)
--------------------------------        ----        ----        ------- ----- ------------
_CODE                               00000200    000035F9 =       13817. bytes (REL,CON)

      Value  Global                              Global Defined In Module
      -----  --------------------------------   ------------------------
     000026E2  A$player$233                       player
     000026E4  A$player$238                       player
     000026E4  C$player.c$34$1_0$160              player
     000026E7  A$player$239                       player
     000026EA  A$player$240                       player
     000026EC  A$player$241                       player
     000026ED  A$player$242                       player
     000026EE  A$player$243                       player
     000026EF  A$player$244                       player
     000026F1  A$player$245                       player
     000026F2  A$player$246                       player
     000026F4  A$player$250                       player
     000026F4  C$player.c$21$1_1$160              player
     000026F7  A$player$251                       player
     000026F8  A$player$255                       player
     000026F8  C$player.c$36$1_0$160              player
     000026FB  A$player$256                       player
     000026FD  A$player$257                       player
     000026FE  A$player$258                       player
     000026FF  A$player$259                       player
     00002702  A$player$263                       player
     00002702  C$player.c$38$1_0$160              player
     00002705  A$player$264                       player
     00002706  A$player$265                       player
     00002708  A$player$266                       player
     00002709  A$player$267                       player
     0000270B  A$player$268                       player
     0000270D  A$player$269                       player
     0000270E  A$player$270                       player
     00002711  A$player$271                       player
     00002713  A$player$272                       player
     00002714  A$player$273                       player
     00002715  A$player$274                       player
     00002716  A$player$275                       player
     00002717  A$player$276                       player
     00002718  A$player$277                       player
     00002719  A$player$278                       player
     0000271A  A$player$282                       player
     0000271A  C$player.c$39$1_0$160              player
     0000271D  A$player$283                       player
     0000271E  A$player$284                       player
     0000271F  A$player$285                       player
     00002721  A$player$286                       player
     00002724  A$player$287                       player
     00002725  A$player$288                       player
     00002728  A$player$289                       player
     0000272A  A$player$290                       player
     0000272B  A$player$291                       player
     0000272D  A$player$292                       player
     0000272F  A$player$293                       player
     00002730  A$player$294                       player
ASxxxx Linker V03.00/V05.40 + sdld,  page 107.
Hexadecimal  [32-Bits]

Area                                    Addr        Size        Decimal Bytes (Attributes)
--------------------------------        ----        ----        ------- ----- ------------
_CODE                               00000200    000035F9 =       13817. bytes (REL,CON)

      Value  Global                              Global Defined In Module
      -----  --------------------------------   ------------------------
     00002731  A$player$295                       player
     00002732  A$player$296                       player
     00002733  A$player$297                       player
     00002734  A$player$298                       player
     00002735  A$player$302                       player
     00002735  C$player.c$41$1_0$160              player
     00002738  A$player$303                       player
     00002739  A$player$304                       player
     0000273B  A$player$305                       player
     0000273E  A$player$306                       player
     0000273F  A$player$307                       player
     00002741  A$player$311                       player
     00002741  C$player.c$42$1_0$160              player
     00002744  A$player$312                       player
     00002747  A$player$313                       player
     00002748  A$player$314                       player
     0000274A  A$player$315                       player
     0000274B  A$player$316                       player
     0000274D  A$player$320                       player
     0000274D  C$player.c$43$1_0$160              player
     00002750  A$player$321                       player
     00002753  A$player$322                       player
     00002754  A$player$323                       player
     00002756  A$player$324                       player
     00002757  A$player$325                       player
     00002759  A$player$329                       player
     00002759  C$player.c$46$2_0$163              player
     0000275C  A$player$330                       player
     0000275D  A$player$331                       player
     0000275E  A$player$332                       player
     0000275F  A$player$333                       player
     00002761  A$player$334                       player
     00002763  A$player$335                       player
     00002764  A$player$336                       player
     00002766  A$player$337                       player
     00002767  A$player$338                       player
     00002769  A$player$339                       player
     0000276A  A$player$340                       player
     0000276C  A$player$341                       player
     0000276D  A$player$342                       player
     0000276F  A$player$343                       player
     00002770  A$player$344                       player
     00002772  A$player$348                       player
     00002772  C$player.c$50$2_0$163              player
     00002773  A$player$349                       player
     00002775  A$player$350                       player
     00002776  A$player$351                       player
     00002778  A$player$352                       player
     00002779  A$player$353                       player
     0000277B  A$player$354                       player
     0000277C  A$player$355                       player
ASxxxx Linker V03.00/V05.40 + sdld,  page 108.
Hexadecimal  [32-Bits]

Area                                    Addr        Size        Decimal Bytes (Attributes)
--------------------------------        ----        ----        ------- ----- ------------
_CODE                               00000200    000035F9 =       13817. bytes (REL,CON)

      Value  Global                              Global Defined In Module
      -----  --------------------------------   ------------------------
     0000277E  A$player$356                       player
     0000277F  A$player$357                       player
     00002781  A$player$358                       player
     00002782  A$player$359                       player
     00002784  A$player$360                       player
     00002785  A$player$361                       player
     00002787  A$player$362                       player
     00002788  A$player$363                       player
     0000278A  A$player$364                       player
     0000278B  A$player$365                       player
     0000278C  A$player$366                       player
     0000278D  A$player$367                       player
     0000278E  A$player$368                       player
     0000278F  A$player$369                       player
     00002791  A$player$370                       player
     00002792  A$player$371                       player
     00002794  A$player$372                       player
     00002795  A$player$373                       player
     00002797  A$player$374                       player
     00002798  A$player$375                       player
     0000279A  A$player$376                       player
     0000279B  A$player$377                       player
     0000279D  A$player$378                       player
     0000279E  A$player$379                       player
     000027A0  A$player$380                       player
     000027A1  A$player$381                       player
     000027A3  A$player$382                       player
     000027A4  A$player$383                       player
     000027A6  A$player$384                       player
     000027A7  A$player$385                       player
     000027A9  A$player$386                       player
     000027AA  A$player$387                       player
     000027AC  A$player$388                       player
     000027AD  A$player$389                       player
     000027AF  A$player$390                       player
     000027B0  A$player$391                       player
     000027B2  A$player$392                       player
     000027B3  A$player$393                       player
     000027B5  A$player$394                       player
     000027B6  A$player$395                       player
     000027B8  A$player$396                       player
     000027B9  A$player$397                       player
     000027BA  A$player$398                       player
     000027BB  A$player$399                       player
     000027BC  A$player$400                       player
     000027BD  A$player$401                       player
     000027BF  A$player$402                       player
     000027C0  A$player$403                       player
     000027C2  A$player$404                       player
     000027C3  A$player$405                       player
     000027C5  A$player$406                       player
ASxxxx Linker V03.00/V05.40 + sdld,  page 109.
Hexadecimal  [32-Bits]

Area                                    Addr        Size        Decimal Bytes (Attributes)
--------------------------------        ----        ----        ------- ----- ------------
_CODE                               00000200    000035F9 =       13817. bytes (REL,CON)

      Value  Global                              Global Defined In Module
      -----  --------------------------------   ------------------------
     000027C6  A$player$407                       player
     000027C8  A$player$408                       player
     000027C9  A$player$409                       player
     000027CB  A$player$410                       player
     000027CC  A$player$411                       player
     000027CE  A$player$415                       player
     000027CE  C$player.c$74$2_0$163              player
     000027CF  A$player$416                       player
     000027D2  A$player$417                       player
     000027D3  A$player$418                       player
     000027D4  A$player$419                       player
     000027D5  A$player$420                       player
     000027D6  A$player$421                       player
     000027D8  A$player$422                       player
     000027D9  A$player$423                       player
     000027DB  A$player$424                       player
     000027DC  A$player$425                       player
     000027DE  A$player$426                       player
     000027DF  A$player$427                       player
     000027E1  A$player$428                       player
     000027E2  A$player$429                       player
     000027E4  A$player$430                       player
     000027E5  A$player$431                       player
     000027E7  A$player$435                       player
     000027E7  C$player.c$78$2_0$163              player
     000027E8  A$player$436                       player
     000027EA  A$player$437                       player
     000027EB  A$player$438                       player
     000027ED  A$player$439                       player
     000027EE  A$player$440                       player
     000027F0  A$player$441                       player
     000027F1  A$player$442                       player
     000027F3  A$player$443                       player
     000027F4  A$player$444                       player
     000027F6  A$player$445                       player
     000027F7  A$player$446                       player
     000027F9  A$player$447                       player
     000027FA  A$player$448                       player
     000027FC  A$player$449                       player
     000027FD  A$player$450                       player
     000027FF  A$player$451                       player
     00002800  A$player$452                       player
     00002801  A$player$453                       player
     00002802  A$player$454                       player
     00002803  A$player$455                       player
     00002804  A$player$456                       player
     00002806  A$player$457                       player
     00002807  A$player$458                       player
     00002809  A$player$459                       player
     0000280A  A$player$460                       player
     0000280C  A$player$461                       player
ASxxxx Linker V03.00/V05.40 + sdld,  page 110.
Hexadecimal  [32-Bits]

Area                                    Addr        Size        Decimal Bytes (Attributes)
--------------------------------        ----        ----        ------- ----- ------------
_CODE                               00000200    000035F9 =       13817. bytes (REL,CON)

      Value  Global                              Global Defined In Module
      -----  --------------------------------   ------------------------
     0000280D  A$player$462                       player
     0000280F  A$player$463                       player
     00002810  A$player$464                       player
     00002812  A$player$465                       player
     00002813  A$player$466                       player
     00002815  A$player$467                       player
     00002816  A$player$468                       player
     00002818  A$player$469                       player
     00002819  A$player$470                       player
     0000281B  A$player$471                       player
     0000281C  A$player$472                       player
     0000281E  A$player$473                       player
     0000281F  A$player$474                       player
     00002821  A$player$475                       player
     00002822  A$player$476                       player
     00002824  A$player$477                       player
     00002825  A$player$478                       player
     00002827  A$player$479                       player
     00002828  A$player$480                       player
     0000282A  A$player$481                       player
     0000282B  A$player$482                       player
     0000282D  A$player$483                       player
     0000282E  A$player$484                       player
     0000282F  A$player$485                       player
     00002830  A$player$486                       player
     00002831  A$player$487                       player
     00002832  A$player$488                       player
     00002834  A$player$489                       player
     00002835  A$player$490                       player
     00002837  A$player$491                       player
     00002838  A$player$492                       player
     0000283A  A$player$493                       player
     0000283B  A$player$494                       player
     0000283D  A$player$495                       player
     0000283E  A$player$496                       player
     00002840  A$player$497                       player
     00002841  A$player$498                       player
     00002843  A$player$502                       player
     00002843  C$player.c$92$1_1$163              player
     00002846  A$player$503                       player
     00002847  A$player$504                       player
     00002849  A$player$505                       player
     0000284A  A$player$506                       player
     0000284B  A$player$507                       player
     0000284C  A$player$508                       player
     0000284D  A$player$509                       player
     0000284E  A$player$510                       player
     0000284F  A$player$511                       player
     00002850  A$player$512                       player
     00002851  A$player$513                       player
     00002852  A$player$514                       player
ASxxxx Linker V03.00/V05.40 + sdld,  page 111.
Hexadecimal  [32-Bits]

Area                                    Addr        Size        Decimal Bytes (Attributes)
--------------------------------        ----        ----        ------- ----- ------------
_CODE                               00000200    000035F9 =       13817. bytes (REL,CON)

      Value  Global                              Global Defined In Module
      -----  --------------------------------   ------------------------
     00002855  A$player$515                       player
     00002856  A$player$516                       player
     00002857  A$player$517                       player
     00002858  A$player$518                       player
     0000285B  A$player$519                       player
     0000285C  A$player$520                       player
     0000285E  A$player$521                       player
     0000285F  A$player$522                       player
     00002860  A$player$523                       player
     00002863  A$player$524                       player
     00002864  A$player$525                       player
     00002865  A$player$526                       player
     00002866  A$player$527                       player
     00002867  A$player$528                       player
     00002868  A$player$529                       player
     00002869  A$player$530                       player
     0000286C  A$player$531                       player
     0000286F  A$player$535                       player
     0000286F  C$player.c$94$1_1$163              player
     00002872  A$player$536                       player
     00002873  A$player$537                       player
     00002875  A$player$538                       player
     00002876  A$player$539                       player
     00002877  A$player$540                       player
     00002878  A$player$541                       player
     00002879  A$player$542                       player
     0000287A  A$player$543                       player
     0000287B  A$player$544                       player
     0000287C  A$player$545                       player
     0000287D  A$player$546                       player
     0000287E  A$player$547                       player
     00002881  A$player$548                       player
     00002882  A$player$549                       player
     00002883  A$player$550                       player
     00002884  A$player$551                       player
     00002887  A$player$552                       player
     00002888  A$player$553                       player
     0000288A  A$player$554                       player
     0000288B  A$player$555                       player
     0000288C  A$player$556                       player
     0000288F  A$player$557                       player
     00002890  A$player$558                       player
     00002891  A$player$559                       player
     00002893  A$player$560                       player
     00002894  A$player$561                       player
     00002895  A$player$562                       player
     00002896  A$player$563                       player
     00002899  A$player$564                       player
     0000289C  A$player$568                       player
     0000289C  C$player.c$96$1_1$163              player
     0000289F  A$player$569                       player
ASxxxx Linker V03.00/V05.40 + sdld,  page 112.
Hexadecimal  [32-Bits]

Area                                    Addr        Size        Decimal Bytes (Attributes)
--------------------------------        ----        ----        ------- ----- ------------
_CODE                               00000200    000035F9 =       13817. bytes (REL,CON)

      Value  Global                              Global Defined In Module
      -----  --------------------------------   ------------------------
     000028A0  A$player$570                       player
     000028A2  A$player$571                       player
     000028A3  A$player$572                       player
     000028A4  A$player$573                       player
     000028A5  A$player$574                       player
     000028A6  A$player$575                       player
     000028A7  A$player$576                       player
     000028A8  A$player$577                       player
     000028A9  A$player$578                       player
     000028AA  A$player$579                       player
     000028AB  A$player$580                       player
     000028AE  A$player$581                       player
     000028AF  A$player$582                       player
     000028B0  A$player$583                       player
     000028B1  A$player$584                       player
     000028B4  A$player$585                       player
     000028B5  A$player$586                       player
     000028B7  A$player$587                       player
     000028B8  A$player$588                       player
     000028B9  A$player$589                       player
     000028BC  A$player$590                       player
     000028BD  A$player$591                       player
     000028BE  A$player$592                       player
     000028C0  A$player$593                       player
     000028C1  A$player$594                       player
     000028C2  A$player$595                       player
     000028C3  A$player$596                       player
     000028C6  A$player$597                       player
     000028C9  A$player$601                       player
     000028C9  C$player.c$98$1_1$163              player
     000028CC  A$player$602                       player
     000028CD  A$player$603                       player
     000028CF  A$player$604                       player
     000028D0  A$player$605                       player
     000028D1  A$player$606                       player
     000028D2  A$player$607                       player
     000028D3  A$player$608                       player
     000028D4  A$player$609                       player
     000028D5  A$player$610                       player
     000028D6  A$player$611                       player
     000028D7  A$player$612                       player
     000028D8  A$player$613                       player
     000028DB  A$player$614                       player
     000028DC  A$player$615                       player
     000028DD  A$player$616                       player
     000028DE  A$player$617                       player
     000028E1  A$player$618                       player
     000028E2  A$player$619                       player
     000028E4  A$player$620                       player
     000028E5  A$player$621                       player
     000028E6  A$player$622                       player
ASxxxx Linker V03.00/V05.40 + sdld,  page 113.
Hexadecimal  [32-Bits]

Area                                    Addr        Size        Decimal Bytes (Attributes)
--------------------------------        ----        ----        ------- ----- ------------
_CODE                               00000200    000035F9 =       13817. bytes (REL,CON)

      Value  Global                              Global Defined In Module
      -----  --------------------------------   ------------------------
     000028E9  A$player$623                       player
     000028EA  A$player$624                       player
     000028EB  A$player$625                       player
     000028ED  A$player$626                       player
     000028EE  A$player$627                       player
     000028EF  A$player$628                       player
     000028F0  A$player$629                       player
     000028F3  A$player$630                       player
     000028F6  A$player$634                       player
     000028F6  C$player.c$101$1_1$163             player
     000028F9  A$player$638                       player
     000028F9  C$player.c$102$1_1$163             player
     000028FA  A$player$639                       player
     000028FB  A$player$640                       player
     000028FD  A$player$644                       player
     000028FD  C$player.c$103$1_1$163             player
     00002900  A$player$645                       player
     00002902  A$player$649                       player
     00002902  C$player.c$104$1_1$163             player
     00002905  A$player$650                       player
     00002907  A$player$654                       player
     00002907  C$player.c$106$1_1$163             player
     0000290A  A$player$658                       player
     0000290C  A$player$663                       player
     0000290C  C$player.c$107$1_1$160             player
     0000290C  XG$init_player$0$0                 player
     0000290D  A$player$676                       player
     0000290D  C$player.c$109$1_1$164             player
     0000290D  G$cache_player_position$0$0        player
     0000290D  _cache_player_position             player
     00002910  A$player$677                       player
     00002911  A$player$678                       player
     00002913  A$player$679                       player
     00002914  A$player$680                       player
     00002916  A$player$681                       player
     00002918  A$player$682                       player
     00002919  A$player$683                       player
     0000291C  A$player$684                       player
     0000291E  A$player$685                       player
     0000291F  A$player$686                       player
     00002920  A$player$687                       player
     00002921  A$player$694                       player
     00002921  C$player.c$111$1_0$164             player
     00002924  A$player$698                       player
     00002924  C$player.c$112$1_0$164             player
     00002925  A$player$699                       player
     00002927  A$player$700                       player
     00002928  A$player$701                       player
     0000292A  A$player$702                       player
     0000292C  A$player$703                       player
     0000292D  A$player$704                       player
ASxxxx Linker V03.00/V05.40 + sdld,  page 114.
Hexadecimal  [32-Bits]

Area                                    Addr        Size        Decimal Bytes (Attributes)
--------------------------------        ----        ----        ------- ----- ------------
_CODE                               00000200    000035F9 =       13817. bytes (REL,CON)

      Value  Global                              Global Defined In Module
      -----  --------------------------------   ------------------------
     00002930  A$player$705                       player
     00002932  A$player$706                       player
     00002933  A$player$707                       player
     00002934  A$player$708                       player
     00002935  A$player$712                       player
     00002935  C$player.c$113$1_0$164             player
     00002938  A$player$713                       player
     00002939  A$player$714                       player
     0000293A  A$player$715                       player
     0000293C  A$player$716                       player
     0000293D  A$player$717                       player
     0000293F  A$player$718                       player
     00002941  A$player$719                       player
     00002942  A$player$720                       player
     00002945  A$player$721                       player
     00002947  A$player$722                       player
     00002948  A$player$723                       player
     00002949  A$player$724                       player
     0000294A  A$player$725                       player
     0000294B  A$player$726                       player
     0000294C  A$player$727                       player
     0000294D  A$player$728                       player
     0000294E  A$player$732                       player
     0000294E  C$player.c$114$1_0$164             player
     00002951  A$player$733                       player
     00002952  A$player$734                       player
     00002953  A$player$735                       player
     00002955  A$player$736                       player
     00002956  A$player$737                       player
     00002958  A$player$738                       player
     0000295A  A$player$739                       player
     0000295B  A$player$740                       player
     0000295E  A$player$741                       player
     00002960  A$player$742                       player
     00002961  A$player$743                       player
     00002962  A$player$744                       player
     00002963  A$player$745                       player
     00002964  A$player$746                       player
     00002965  A$player$747                       player
     00002966  A$player$748                       player
     00002967  A$player$752                       player
     00002967  C$player.c$116$1_0$164             player
     0000296A  A$player$753                       player
     0000296D  A$player$754                       player
     0000296E  A$player$755                       player
     00002970  A$player$756                       player
     00002971  A$player$757                       player
     00002973  A$player$765                       player
     00002973  C$player.c$117$1_0$164             player
     00002973  XG$cache_player_position$0$0       player
     00002974  A$random$59                        random
ASxxxx Linker V03.00/V05.40 + sdld,  page 115.
Hexadecimal  [32-Bits]

Area                                    Addr        Size        Decimal Bytes (Attributes)
--------------------------------        ----        ----        ------- ----- ------------
_CODE                               00000200    000035F9 =       13817. bytes (REL,CON)

      Value  Global                              Global Defined In Module
      -----  --------------------------------   ------------------------
     00002974  C$random.c$5$0_0$1                 random
     00002974  C$random.c$7$1_0$1                 random
     00002974  G$my_rand$0$0                      random
     00002974  _my_rand                           random
     00002977  A$random$60                        random
     00002978  A$random$61                        random
     00002979  A$random$62                        random
     0000297A  A$random$63                        random
     0000297B  A$random$64                        random
     0000297C  A$random$65                        random
     0000297D  A$random$66                        random
     0000297E  A$random$67                        random
     0000297F  A$random$68                        random
     00002980  A$random$69                        random
     00002981  A$random$70                        random
     00002982  A$random$71                        random
     00002983  A$random$72                        random
     00002984  A$random$73                        random
     00002985  A$random$74                        random
     00002986  A$random$75                        random
     00002987  A$random$76                        random
     00002988  A$random$77                        random
     00002989  A$random$78                        random
     0000298A  A$random$79                        random
     0000298B  A$random$80                        random
     0000298C  A$random$81                        random
     0000298D  A$random$82                        random
     0000298E  A$random$83                        random
     0000298F  A$random$84                        random
     00002990  A$random$85                        random
     00002991  A$random$86                        random
     00002992  A$random$87                        random
     00002993  A$random$88                        random
     00002995  A$random$89                        random
     00002998  A$random$90                        random
     00002999  A$random$91                        random
     0000299A  A$random$92                        random
     0000299C  A$random$96                        random
     0000299C  C$random.c$8$1_0$1                 random
     0000299D  A$random$97                        random
     0000299E  A$random$98                        random
     0000299F  A$random$99                        random
     000029A0  A$random$107                       random
     000029A0  C$random.c$9$1_0$1                 random
     000029A0  XG$my_rand$0$0                     random
     000029A1  A$render$56                        render
     000029A1  C$render.c$5$0_0$130               render
     000029A1  G$render_reset$0$0                 render
     000029A1  _render_reset                      render
     000029A2  A$render$60                        render
     000029A2  C$render.c$6$1_0$130               render
ASxxxx Linker V03.00/V05.40 + sdld,  page 116.
Hexadecimal  [32-Bits]

Area                                    Addr        Size        Decimal Bytes (Attributes)
--------------------------------        ----        ----        ------- ----- ------------
_CODE                               00000200    000035F9 =       13817. bytes (REL,CON)

      Value  Global                              Global Defined In Module
      -----  --------------------------------   ------------------------
     000029A5  A$render$61                        render
     000029A7  A$render$62                        render
     000029A8  A$render$63                        render
     000029AA  A$render$67                        render
     000029AA  C$render.c$7$1_0$130               render
     000029AD  A$render$68                        render
     000029AF  A$render$69                        render
     000029B0  A$render$70                        render
     000029B2  A$render$78                        render
     000029B2  C$render.c$8$1_0$130               render
     000029B2  XG$render_reset$0$0                render
     000029B3  A$scene$56                         scene
     000029B3  C$scene.c$6$0_0$27                 scene
     000029B3  C$scene.c$8$2_0$28                 scene
     000029B3  G$Scene_Destroy$0$0                scene
     000029B3  _Scene_Destroy                     scene
     000029B6  A$scene$57                         scene
     000029B7  A$scene$58                         scene
     000029B8  A$scene$59                         scene
     000029B9  A$scene$60                         scene
     000029BA  A$scene$61                         scene
     000029BB  A$scene$62                         scene
     000029BC  A$scene$63                         scene
     000029BD  A$scene$67                         scene
     000029BD  C$scene.c$9$2_0$28                 scene
     000029BE  A$scene$71                         scene
     000029BE  C$scene.c$11$1_0$27                scene
     000029BF  A$scene$72                         scene
     000029C0  A$scene$73                         scene
     000029C1  A$scene$74                         scene
     000029C4  A$scene$75                         scene
     000029C5  A$scene$79                         scene
     000029C5  C$scene.c$12$1_0$27                scene
     000029C6  A$scene$80                         scene
     000029C7  A$scene$81                         scene
     000029C8  A$scene$82                         scene
     000029C9  A$scene$90                         scene
     000029C9  C$scene.c$13$1_0$27                scene
     000029C9  XG$Scene_Destroy$0$0               scene
     000029CA  A$scene_manager$69                 scene_manager
     000029CA  C$scene_manager.c$14$0_0$149       scene_manager
     000029CA  C$scene_manager.c$16$1_0$149       scene_manager
     000029CA  G$SceneManager_CleanScreen$0$0     scene_manager
     000029CA  _SceneManager_CleanScreen          scene_manager
     000029CD  A$scene_manager$73                 scene_manager
     000029CD  C$scene_manager.c$17$1_0$149       scene_manager
     000029CF  A$scene_manager$74                 scene_manager
     000029D1  A$scene_manager$75                 scene_manager
     000029D3  A$scene_manager$79                 scene_manager
     000029D3  C$scene_manager.c$18$1_0$149       scene_manager
     000029D5  A$scene_manager$80                 scene_manager
ASxxxx Linker V03.00/V05.40 + sdld,  page 117.
Hexadecimal  [32-Bits]

Area                                    Addr        Size        Decimal Bytes (Attributes)
--------------------------------        ----        ----        ------- ----- ------------
_CODE                               00000200    000035F9 =       13817. bytes (REL,CON)

      Value  Global                              Global Defined In Module
      -----  --------------------------------   ------------------------
     000029D7  A$scene_manager$81                 scene_manager
     000029D9  A$scene_manager$85                 scene_manager
     000029D9  C$scene_manager.c$20$1_0$149       scene_manager
     000029DC  A$scene_manager$89                 scene_manager
     000029DC  C$scene_manager.c$22$1_0$149       scene_manager
     000029DF  A$scene_manager$90                 scene_manager
     000029E2  A$scene_manager$91                 scene_manager
     000029E3  A$scene_manager$92                 scene_manager
     000029E5  A$scene_manager$93                 scene_manager
     000029E6  A$scene_manager$94                 scene_manager
     000029E8  A$scene_manager$98                 scene_manager
     000029E8  C$scene_manager.c$23$1_0$149       scene_manager
     000029EB  A$scene_manager$99                 scene_manager
     000029EE  A$scene_manager$103                scene_manager
     000029EE  C$scene_manager.c$25$1_0$149       scene_manager
     000029F0  A$scene_manager$105                scene_manager
     000029F1  A$scene_manager$106                scene_manager
     000029F3  A$scene_manager$107                scene_manager
     000029F5  A$scene_manager$109                scene_manager
     000029F8  A$scene_manager$110                scene_manager
     000029F9  A$scene_manager$111                scene_manager
     000029FA  A$scene_manager$112                scene_manager
     000029FB  A$scene_manager$113                scene_manager
     000029FC  A$scene_manager$114                scene_manager
     000029FD  A$scene_manager$115                scene_manager
     000029FE  A$scene_manager$117                scene_manager
     000029FF  A$scene_manager$118                scene_manager
     00002A00  A$scene_manager$119                scene_manager
     00002A01  A$scene_manager$123                scene_manager
     00002A01  C$scene_manager.c$25$2_0$150       scene_manager
     00002A02  A$scene_manager$124                scene_manager
     00002A04  A$scene_manager$129                scene_manager
     00002A04  C$scene_manager.c$28$1_0$149       scene_manager
     00002A05  A$scene_manager$130                scene_manager
     00002A08  A$scene_manager$134                scene_manager
     00002A08  C$scene_manager.c$29$1_0$149       scene_manager
     00002A0B  A$scene_manager$135                scene_manager
     00002A0D  A$scene_manager$143                scene_manager
     00002A0D  C$scene_manager.c$30$1_0$149       scene_manager
     00002A0D  XG$SceneManager_CleanScreen$0$0    scene_manager
     00002A0E  A$scene_manager$153                scene_manager
     00002A0E  C$scene_manager.c$32$1_0$155       scene_manager
     00002A0E  G$SceneManager_Create$0$0          scene_manager
     00002A0E  _SceneManager_Create               scene_manager
     00002A0F  A$scene_manager$154                scene_manager
     00002A10  A$scene_manager$158                scene_manager
     00002A10  C$scene_manager.c$34$1_0$155       scene_manager
     00002A13  A$scene_manager$159                scene_manager
     00002A14  A$scene_manager$160                scene_manager
     00002A15  A$scene_manager$161                scene_manager
     00002A16  A$scene_manager$165                scene_manager
ASxxxx Linker V03.00/V05.40 + sdld,  page 118.
Hexadecimal  [32-Bits]

Area                                    Addr        Size        Decimal Bytes (Attributes)
--------------------------------        ----        ----        ------- ----- ------------
_CODE                               00000200    000035F9 =       13817. bytes (REL,CON)

      Value  Global                              Global Defined In Module
      -----  --------------------------------   ------------------------
     00002A16  C$scene_manager.c$35$1_0$155       scene_manager
     00002A17  A$scene_manager$166                scene_manager
     00002A19  A$scene_manager$167                scene_manager
     00002A1A  A$scene_manager$168                scene_manager
     00002A1C  A$scene_manager$176                scene_manager
     00002A1C  C$scene_manager.c$36$1_0$155       scene_manager
     00002A1C  XG$SceneManager_Create$0$0         scene_manager
     00002A1D  A$scene_manager$186                scene_manager
     00002A1D  C$scene_manager.c$38$1_0$157       scene_manager
     00002A1D  G$SceneManager_ChangeScene$0$0     scene_manager
     00002A1D  _SceneManager_ChangeScene          scene_manager
     00002A1F  A$scene_manager$187                scene_manager
     00002A21  A$scene_manager$188                scene_manager
     00002A22  A$scene_manager$189                scene_manager
     00002A23  A$scene_manager$190                scene_manager
     00002A24  A$scene_manager$191                scene_manager
     00002A25  A$scene_manager$192                scene_manager
     00002A26  A$scene_manager$196                scene_manager
     00002A26  C$scene_manager.c$40$2_0$158       scene_manager
     00002A29  A$scene_manager$197                scene_manager
     00002A2A  A$scene_manager$198                scene_manager
     00002A2D  A$scene_manager$205                scene_manager
     00002A2D  C$scene_manager.c$41$2_0$158       scene_manager
     00002A2D  C$scene_manager.c$43$2_0$159       scene_manager
     00002A30  A$scene_manager$206                scene_manager
     00002A31  A$scene_manager$207                scene_manager
     00002A32  A$scene_manager$211                scene_manager
     00002A32  C$scene_manager.c$44$2_0$159       scene_manager
     00002A35  A$scene_manager$215                scene_manager
     00002A35  C$scene_manager.c$46$1_0$157       scene_manager
     00002A38  A$scene_manager$216                scene_manager
     00002A3A  A$scene_manager$220                scene_manager
     00002A3A  C$scene_manager.c$48$2_0$160       scene_manager
     00002A3D  A$scene_manager$221                scene_manager
     00002A3E  A$scene_manager$222                scene_manager
     00002A3F  A$scene_manager$223                scene_manager
     00002A40  A$scene_manager$224                scene_manager
     00002A41  A$scene_manager$225                scene_manager
     00002A42  A$scene_manager$226                scene_manager
     00002A43  A$scene_manager$227                scene_manager
     00002A44  A$scene_manager$228                scene_manager
     00002A45  A$scene_manager$229                scene_manager
     00002A47  A$scene_manager$230                scene_manager
     00002A49  A$scene_manager$231                scene_manager
     00002A4A  A$scene_manager$232                scene_manager
     00002A4C  A$scene_manager$233                scene_manager
     00002A4E  A$scene_manager$237                scene_manager
     00002A4E  C$scene_manager.c$50$3_0$161       scene_manager
     00002A4F  A$scene_manager$238                scene_manager
     00002A50  A$scene_manager$239                scene_manager
     00002A51  A$scene_manager$243                scene_manager
ASxxxx Linker V03.00/V05.40 + sdld,  page 119.
Hexadecimal  [32-Bits]

Area                                    Addr        Size        Decimal Bytes (Attributes)
--------------------------------        ----        ----        ------- ----- ------------
_CODE                               00000200    000035F9 =       13817. bytes (REL,CON)

      Value  Global                              Global Defined In Module
      -----  --------------------------------   ------------------------
     00002A51  C$scene_manager.c$53$3_0$161       scene_manager
     00002A53  A$scene_manager$244                scene_manager
     00002A55  A$scene_manager$245                scene_manager
     00002A56  A$scene_manager$249                scene_manager
     00002A56  C$scene_manager.c$56$3_0$161       scene_manager
     00002A57  A$scene_manager$250                scene_manager
     00002A58  A$scene_manager$251                scene_manager
     00002A5B  A$scene_manager$252                scene_manager
     00002A5C  A$scene_manager$253                scene_manager
     00002A5D  A$scene_manager$254                scene_manager
     00002A5E  A$scene_manager$255                scene_manager
     00002A5F  A$scene_manager$256                scene_manager
     00002A61  A$scene_manager$257                scene_manager
     00002A62  A$scene_manager$258                scene_manager
     00002A65  A$scene_manager$262                scene_manager
     00002A65  C$scene_manager.c$58$4_0$162       scene_manager
     00002A66  A$scene_manager$263                scene_manager
     00002A67  A$scene_manager$264                scene_manager
     00002A6A  A$scene_manager$265                scene_manager
     00002A6B  A$scene_manager$266                scene_manager
     00002A6C  A$scene_manager$267                scene_manager
     00002A6D  A$scene_manager$268                scene_manager
     00002A6E  A$scene_manager$269                scene_manager
     00002A6F  A$scene_manager$270                scene_manager
     00002A70  A$scene_manager$271                scene_manager
     00002A72  A$scene_manager$275                scene_manager
     00002A72  C$scene_manager.c$60$5_0$163       scene_manager
     00002A73  A$scene_manager$276                scene_manager
     00002A74  A$scene_manager$277                scene_manager
     00002A75  A$scene_manager$278                scene_manager
     00002A76  A$scene_manager$279                scene_manager
     00002A79  A$scene_manager$284                scene_manager
     00002A79  C$scene_manager.c$64$3_0$161       scene_manager
     00002A7B  A$scene_manager$285                scene_manager
     00002A7C  A$scene_manager$286                scene_manager
     00002A7E  A$scene_manager$287                scene_manager
     00002A7F  A$scene_manager$288                scene_manager
     00002A82  A$scene_manager$293                scene_manager
     00002A82  C$scene_manager.c$67$1_0$157       scene_manager
     00002A85  A$scene_manager$297                scene_manager
     00002A85  C$scene_manager.c$69$1_0$157       scene_manager
     00002A87  A$scene_manager$298                scene_manager
     00002A89  A$scene_manager$299                scene_manager
     00002A8B  A$scene_manager$303                scene_manager
     00002A8B  C$scene_manager.c$70$1_0$157       scene_manager
     00002A8D  A$scene_manager$304                scene_manager
     00002A8F  A$scene_manager$305                scene_manager
     00002A91  A$scene_manager$309                scene_manager
     00002A91  C$scene_manager.c$71$1_0$157       scene_manager
     00002A93  A$scene_manager$310                scene_manager
     00002A95  A$scene_manager$311                scene_manager
ASxxxx Linker V03.00/V05.40 + sdld,  page 120.
Hexadecimal  [32-Bits]

Area                                    Addr        Size        Decimal Bytes (Attributes)
--------------------------------        ----        ----        ------- ----- ------------
_CODE                               00000200    000035F9 =       13817. bytes (REL,CON)

      Value  Global                              Global Defined In Module
      -----  --------------------------------   ------------------------
     00002A97  A$scene_manager$315                scene_manager
     00002A97  C$scene_manager.c$73$1_0$157       scene_manager
     00002A9A  A$scene_manager$316                scene_manager
     00002A9D  A$scene_manager$320                scene_manager
     00002A9D  C$scene_manager.c$74$1_0$157       scene_manager
     00002A9F  A$scene_manager$321                scene_manager
     00002AA0  A$scene_manager$322                scene_manager
     00002AA3  A$scene_manager$326                scene_manager
     00002AA3  C$scene_manager.c$76$1_1$164       scene_manager
     00002AA5  A$scene_manager$327                scene_manager
     00002AA6  A$scene_manager$328                scene_manager
     00002AA9  A$scene_manager$332                scene_manager
     00002AA9  C$scene_manager.c$77$1_1$164       scene_manager
     00002AAB  A$scene_manager$333                scene_manager
     00002AAD  A$scene_manager$334                scene_manager
     00002AAE  A$scene_manager$338                scene_manager
     00002AAE  C$scene_manager.c$78$1_1$164       scene_manager
     00002AB1  A$scene_manager$339                scene_manager
     00002AB2  A$scene_manager$340                scene_manager
     00002AB3  A$scene_manager$341                scene_manager
     00002AB4  A$scene_manager$342                scene_manager
     00002AB5  A$scene_manager$343                scene_manager
     00002AB7  A$scene_manager$344                scene_manager
     00002AB8  A$scene_manager$345                scene_manager
     00002ABB  A$scene_manager$349                scene_manager
     00002ABB  C$scene_manager.c$79$1_1$164       scene_manager
     00002ABC  A$scene_manager$350                scene_manager
     00002ABD  A$scene_manager$351                scene_manager
     00002ABE  A$scene_manager$352                scene_manager
     00002AC0  A$scene_manager$353                scene_manager
     00002AC1  A$scene_manager$354                scene_manager
     00002AC2  A$scene_manager$355                scene_manager
     00002AC3  A$scene_manager$356                scene_manager
     00002AC4  A$scene_manager$357                scene_manager
     00002AC5  A$scene_manager$358                scene_manager
     00002AC6  A$scene_manager$359                scene_manager
     00002AC7  A$scene_manager$360                scene_manager
     00002AC8  A$scene_manager$361                scene_manager
     00002AC9  A$scene_manager$362                scene_manager
     00002ACA  A$scene_manager$363                scene_manager
     00002ACB  A$scene_manager$364                scene_manager
     00002ACC  A$scene_manager$365                scene_manager
     00002ACE  A$scene_manager$366                scene_manager
     00002ACF  A$scene_manager$367                scene_manager
     00002AD0  A$scene_manager$368                scene_manager
     00002AD1  A$scene_manager$369                scene_manager
     00002AD2  A$scene_manager$370                scene_manager
     00002AD5  A$scene_manager$371                scene_manager
     00002AD6  A$scene_manager$375                scene_manager
     00002AD6  C$scene_manager.c$81$1_1$164       scene_manager
     00002AD9  A$scene_manager$376                scene_manager
ASxxxx Linker V03.00/V05.40 + sdld,  page 121.
Hexadecimal  [32-Bits]

Area                                    Addr        Size        Decimal Bytes (Attributes)
--------------------------------        ----        ----        ------- ----- ------------
_CODE                               00000200    000035F9 =       13817. bytes (REL,CON)

      Value  Global                              Global Defined In Module
      -----  --------------------------------   ------------------------
     00002ADA  A$scene_manager$377                scene_manager
     00002ADB  A$scene_manager$378                scene_manager
     00002ADC  A$scene_manager$379                scene_manager
     00002ADD  A$scene_manager$380                scene_manager
     00002ADE  A$scene_manager$381                scene_manager
     00002ADF  A$scene_manager$385                scene_manager
     00002ADF  C$scene_manager.c$83$1_1$164       scene_manager
     00002AE2  A$scene_manager$389                scene_manager
     00002AE2  C$scene_manager.c$85$2_1$165       scene_manager
     00002AE4  A$scene_manager$390                scene_manager
     00002AE6  A$scene_manager$391                scene_manager
     00002AE7  A$scene_manager$392                scene_manager
     00002AE9  A$scene_manager$396                scene_manager
     00002AE9  C$scene_manager.c$86$2_1$165       scene_manager
     00002AEB  A$scene_manager$397                scene_manager
     00002AEC  A$scene_manager$398                scene_manager
     00002AEE  A$scene_manager$399                scene_manager
     00002AEF  A$scene_manager$400                scene_manager
     00002AF2  A$scene_manager$408                scene_manager
     00002AF2  C$scene_manager.c$88$1_1$164       scene_manager
     00002AF2  C$scene_manager.c$89$1_1$164       scene_manager
     00002AF3  A$scene_manager$409                scene_manager
     00002AF6  A$scene_manager$410                scene_manager
     00002AF9  A$scene_manager$414                scene_manager
     00002AF9  C$scene_manager.c$91$1_1$164       scene_manager
     00002AFA  A$scene_manager$415                scene_manager
     00002AFD  A$scene_manager$420                scene_manager
     00002AFF  A$scene_manager$425                scene_manager
     00002AFF  C$scene_manager.c$92$1_1$157       scene_manager
     00002AFF  XG$SceneManager_ChangeScene$0$0    scene_manager
     00002B00  G$spr_Branch$0_0$0                 spr_Branch
     00002B00  _spr_Branch                        spr_Branch
     00002B10  A$story$89                         story
     00002B10  C$story.c$14$0_0$10                story
     00002B10  C$story.c$16$1_0$10                story
     00002B10  G$Story_Create$0$0                 story
     00002B10  _Story_Create                      story
     00002B13  A$story$90                         story
     00002B15  A$story$91                         story
     00002B16  A$story$92                         story
     00002B18  A$story$96                         story
     00002B18  C$story.c$17$1_0$10                story
     00002B19  A$story$97                         story
     00002B1B  A$story$98                         story
     00002B1C  A$story$99                         story
     00002B1E  A$story$103                        story
     00002B1E  C$story.c$18$1_0$10                story
     00002B21  A$story$104                        story
     00002B23  A$story$112                        story
     00002B23  C$story.c$19$1_0$10                story
     00002B23  XG$Story_Create$0$0                story
ASxxxx Linker V03.00/V05.40 + sdld,  page 122.
Hexadecimal  [32-Bits]

Area                                    Addr        Size        Decimal Bytes (Attributes)
--------------------------------        ----        ----        ------- ----- ------------
_CODE                               00000200    000035F9 =       13817. bytes (REL,CON)

      Value  Global                              Global Defined In Module
      -----  --------------------------------   ------------------------
     00002B24  A$story_init$55                    story_init
     00002B24  C$story_init.c$7$0_0$137           story_init
     00002B24  G$Story_Init$0$0                   story_init
     00002B24  _Story_Init                        story_init
     00002B26  A$story_init$59                    story_init
     00002B26  C$story_init.c$8$1_0$137           story_init
     00002B29  A$story_init$60                    story_init
     00002B2A  A$story_init$61                    story_init
     00002B2D  A$story_init$62                    story_init
     00002B2E  A$story_init$63                    story_init
     00002B31  A$story_init$64                    story_init
     00002B33  A$story_init$68                    story_init
     00002B33  C$story_init.c$9$1_0$137           story_init
     00002B36  A$story_init$69                    story_init
     00002B37  A$story_init$70                    story_init
     00002B3A  A$story_init$71                    story_init
     00002B3B  A$story_init$72                    story_init
     00002B3C  A$story_init$73                    story_init
     00002B3D  A$story_init$74                    story_init
     00002B3E  A$story_init$75                    story_init
     00002B41  A$story_init$76                    story_init
     00002B43  A$story_init$80                    story_init
     00002B43  C$story_init.c$11$1_0$137          story_init
     00002B45  A$story_init$81                    story_init
     00002B47  A$story_init$82                    story_init
     00002B4A  A$story_init$86                    story_init
     00002B4A  C$story_init.c$13$2_0$138          story_init
     00002B4C  A$story_init$87                    story_init
     00002B4E  A$story_init$88                    story_init
     00002B4F  A$story_init$89                    story_init
     00002B51  A$story_init$90                    story_init
     00002B52  A$story_init$91                    story_init
     00002B54  A$story_init$92                    story_init
     00002B55  A$story_init$93                    story_init
     00002B57  A$story_init$94                    story_init
     00002B58  A$story_init$95                    story_init
     00002B5A  A$story_init$96                    story_init
     00002B5B  A$story_init$97                    story_init
     00002B5D  A$story_init$98                    story_init
     00002B5E  A$story_init$99                    story_init
     00002B60  A$story_init$100                   story_init
     00002B61  A$story_init$101                   story_init
     00002B63  A$story_init$102                   story_init
     00002B64  A$story_init$103                   story_init
     00002B66  A$story_init$104                   story_init
     00002B67  A$story_init$105                   story_init
     00002B69  A$story_init$106                   story_init
     00002B6A  A$story_init$107                   story_init
     00002B6C  A$story_init$108                   story_init
     00002B6D  A$story_init$112                   story_init
     00002B6D  C$story_init.c$14$2_0$138          story_init
ASxxxx Linker V03.00/V05.40 + sdld,  page 123.
Hexadecimal  [32-Bits]

Area                                    Addr        Size        Decimal Bytes (Attributes)
--------------------------------        ----        ----        ------- ----- ------------
_CODE                               00000200    000035F9 =       13817. bytes (REL,CON)

      Value  Global                              Global Defined In Module
      -----  --------------------------------   ------------------------
     00002B6F  A$story_init$113                   story_init
     00002B70  A$story_init$114                   story_init
     00002B72  A$story_init$115                   story_init
     00002B73  A$story_init$116                   story_init
     00002B75  A$story_init$117                   story_init
     00002B76  A$story_init$118                   story_init
     00002B78  A$story_init$119                   story_init
     00002B79  A$story_init$120                   story_init
     00002B7B  A$story_init$121                   story_init
     00002B7C  A$story_init$122                   story_init
     00002B7E  A$story_init$123                   story_init
     00002B7F  A$story_init$124                   story_init
     00002B81  A$story_init$125                   story_init
     00002B82  A$story_init$126                   story_init
     00002B84  A$story_init$127                   story_init
     00002B85  A$story_init$128                   story_init
     00002B87  A$story_init$129                   story_init
     00002B88  A$story_init$130                   story_init
     00002B8A  A$story_init$131                   story_init
     00002B8B  A$story_init$132                   story_init
     00002B8D  A$story_init$133                   story_init
     00002B8E  A$story_init$134                   story_init
     00002B90  A$story_init$135                   story_init
     00002B91  A$story_init$139                   story_init
     00002B91  C$story_init.c$15$2_0$138          story_init
     00002B92  A$story_init$140                   story_init
     00002B93  A$story_init$141                   story_init
     00002B95  A$story_init$142                   story_init
     00002B96  A$story_init$143                   story_init
     00002B98  A$story_init$144                   story_init
     00002B99  A$story_init$145                   story_init
     00002B9B  A$story_init$146                   story_init
     00002B9C  A$story_init$147                   story_init
     00002B9E  A$story_init$148                   story_init
     00002B9F  A$story_init$149                   story_init
     00002BA1  A$story_init$150                   story_init
     00002BA2  A$story_init$151                   story_init
     00002BA4  A$story_init$152                   story_init
     00002BA5  A$story_init$153                   story_init
     00002BA7  A$story_init$154                   story_init
     00002BA8  A$story_init$155                   story_init
     00002BAA  A$story_init$156                   story_init
     00002BAB  A$story_init$157                   story_init
     00002BAD  A$story_init$158                   story_init
     00002BAE  A$story_init$159                   story_init
     00002BB0  A$story_init$160                   story_init
     00002BB1  A$story_init$161                   story_init
     00002BB3  A$story_init$162                   story_init
     00002BB4  A$story_init$163                   story_init
     00002BB6  A$story_init$167                   story_init
     00002BB6  C$story_init.c$17$1_1$138          story_init
ASxxxx Linker V03.00/V05.40 + sdld,  page 124.
Hexadecimal  [32-Bits]

Area                                    Addr        Size        Decimal Bytes (Attributes)
--------------------------------        ----        ----        ------- ----- ------------
_CODE                               00000200    000035F9 =       13817. bytes (REL,CON)

      Value  Global                              Global Defined In Module
      -----  --------------------------------   ------------------------
     00002BB9  A$story_init$168                   story_init
     00002BBB  A$story_init$172                   story_init
     00002BBB  C$story_init.c$19$3_1$140          story_init
     00002BBD  A$story_init$173                   story_init
     00002BBF  A$story_init$175                   story_init
     00002BC0  A$story_init$176                   story_init
     00002BC3  A$story_init$177                   story_init
     00002BC4  A$story_init$178                   story_init
     00002BC5  A$story_init$179                   story_init
     00002BC6  A$story_init$180                   story_init
     00002BC7  A$story_init$181                   story_init
     00002BC9  A$story_init$182                   story_init
     00002BCA  A$story_init$183                   story_init
     00002BCC  A$story_init$184                   story_init
     00002BCD  A$story_init$185                   story_init
     00002BCE  A$story_init$186                   story_init
     00002BCF  A$story_init$187                   story_init
     00002BD0  A$story_init$188                   story_init
     00002BD2  A$story_init$189                   story_init
     00002BD3  A$story_init$190                   story_init
     00002BD4  A$story_init$191                   story_init
     00002BD6  A$story_init$195                   story_init
     00002BD6  C$story_init.c$20$3_1$140          story_init
     00002BD9  A$story_init$196                   story_init
     00002BDB  A$story_init$197                   story_init
     00002BDC  A$story_init$198                   story_init
     00002BDE  A$story_init$199                   story_init
     00002BDF  A$story_init$200                   story_init
     00002BE0  A$story_init$201                   story_init
     00002BE1  A$story_init$202                   story_init
     00002BE3  A$story_init$203                   story_init
     00002BE4  A$story_init$204                   story_init
     00002BE5  A$story_init$205                   story_init
     00002BE6  A$story_init$206                   story_init
     00002BE8  A$story_init$207                   story_init
     00002BE9  A$story_init$208                   story_init
     00002BEA  A$story_init$209                   story_init
     00002BEB  A$story_init$210                   story_init
     00002BEC  A$story_init$211                   story_init
     00002BED  A$story_init$212                   story_init
     00002BEE  A$story_init$213                   story_init
     00002BEF  A$story_init$214                   story_init
     00002BF0  A$story_init$218                   story_init
     00002BF0  C$story_init.c$19$2_1$139          story_init
     00002BF2  A$story_init$219                   story_init
     00002BF3  A$story_init$220                   story_init
     00002BF5  A$story_init$225                   story_init
     00002BF5  C$story_init.c$23$3_1$142          story_init
     00002BF7  A$story_init$227                   story_init
     00002BF8  A$story_init$228                   story_init
     00002BFA  A$story_init$229                   story_init
ASxxxx Linker V03.00/V05.40 + sdld,  page 125.
Hexadecimal  [32-Bits]

Area                                    Addr        Size        Decimal Bytes (Attributes)
--------------------------------        ----        ----        ------- ----- ------------
_CODE                               00000200    000035F9 =       13817. bytes (REL,CON)

      Value  Global                              Global Defined In Module
      -----  --------------------------------   ------------------------
     00002BFD  A$story_init$230                   story_init
     00002BFE  A$story_init$231                   story_init
     00002BFF  A$story_init$232                   story_init
     00002C00  A$story_init$233                   story_init
     00002C01  A$story_init$234                   story_init
     00002C02  A$story_init$235                   story_init
     00002C04  A$story_init$239                   story_init
     00002C04  C$story_init.c$24$3_1$142          story_init
     00002C07  A$story_init$240                   story_init
     00002C09  A$story_init$241                   story_init
     00002C0A  A$story_init$242                   story_init
     00002C0B  A$story_init$246                   story_init
     00002C0B  C$story_init.c$23$2_1$141          story_init
     00002C0C  A$story_init$247                   story_init
     00002C0E  A$story_init$252                   story_init
     00002C0E  C$story_init.c$27$3_1$144          story_init
     00002C10  A$story_init$254                   story_init
     00002C11  A$story_init$255                   story_init
     00002C13  A$story_init$256                   story_init
     00002C16  A$story_init$257                   story_init
     00002C17  A$story_init$258                   story_init
     00002C18  A$story_init$259                   story_init
     00002C19  A$story_init$260                   story_init
     00002C1A  A$story_init$261                   story_init
     00002C1B  A$story_init$262                   story_init
     00002C1D  A$story_init$266                   story_init
     00002C1D  C$story_init.c$28$3_1$144          story_init
     00002C20  A$story_init$267                   story_init
     00002C22  A$story_init$268                   story_init
     00002C23  A$story_init$269                   story_init
     00002C24  A$story_init$273                   story_init
     00002C24  C$story_init.c$27$2_1$143          story_init
     00002C25  A$story_init$274                   story_init
     00002C27  A$story_init$279                   story_init
     00002C29  A$story_init$284                   story_init
     00002C29  C$story_init.c$30$2_1$137          story_init
     00002C29  XG$Story_Init$0$0                  story_init
     00002C2A  A$story_update$59                  story_update
     00002C2A  C$story_update.c$12$0_0$152        story_update
     00002C2A  C$story_update.c$15$2_0$153        story_update
     00002C2A  G$Story_Update$0$0                 story_update
     00002C2A  _Story_Update                      story_update
     00002C2D  A$story_update$63                  story_update
     00002C2D  C$story_update.c$17$3_0$154        story_update
     00002C2E  A$story_update$64                  story_update
     00002C30  A$story_update$65                  story_update
     00002C33  A$story_update$69                  story_update
     00002C33  C$story_update.c$18$4_0$155        story_update
     00002C35  A$story_update$73                  story_update
     00002C35  C$story_update.c$19$3_1$155        story_update
     00002C38  A$story_update$74                  story_update
ASxxxx Linker V03.00/V05.40 + sdld,  page 126.
Hexadecimal  [32-Bits]

Area                                    Addr        Size        Decimal Bytes (Attributes)
--------------------------------        ----        ----        ------- ----- ------------
_CODE                               00000200    000035F9 =       13817. bytes (REL,CON)

      Value  Global                              Global Defined In Module
      -----  --------------------------------   ------------------------
     00002C3A  A$story_update$78                  story_update
     00002C3A  C$story_update.c$20$3_1$155        story_update
     00002C3B  A$story_update$79                  story_update
     00002C3E  A$story_update$87                  story_update
     00002C3E  C$story_update.c$22$3_1$155        story_update
     00002C3E  C$story_update.c$24$4_1$156        story_update
     00002C41  A$story_update$91                  story_update
     00002C41  C$story_update.c$25$4_1$156        story_update
     00002C44  A$story_update$92                  story_update
     00002C47  A$story_update$93                  story_update
     00002C48  A$story_update$97                  story_update
     00002C48  C$story_update.c$30$5_2$158        story_update
     00002C4A  A$story_update$98                  story_update
     00002C4C  A$story_update$102                 story_update
     00002C4C  C$story_update.c$33$5_2$159        story_update
     00002C4F  A$story_update$103                 story_update
     00002C52  A$story_update$104                 story_update
     00002C53  A$story_update$105                 story_update
     00002C55  A$story_update$109                 story_update
     00002C55  C$story_update.c$35$6_2$160        story_update
     00002C58  A$story_update$110                 story_update
     00002C59  A$story_update$114                 story_update
     00002C59  C$story_update.c$36$6_2$160        story_update
     00002C5B  A$story_update$119                 story_update
     00002C5B  C$story_update.c$39$4_2$157        story_update
     00002C5C  A$story_update$120                 story_update
     00002C5F  A$story_update$124                 story_update
     00002C5F  C$story_update.c$41$5_2$161        story_update
     00002C60  A$story_update$125                 story_update
     00002C62  A$story_update$129                 story_update
     00002C62  C$story_update.c$43$6_2$162        story_update
     00002C64  A$story_update$130                 story_update
     00002C65  A$story_update$131                 story_update
     00002C66  A$story_update$132                 story_update
     00002C68  A$story_update$133                 story_update
     00002C6A  A$story_update$134                 story_update
     00002C6D  A$story_update$138                 story_update
     00002C6D  C$story_update.c$44$6_2$162        story_update
     00002C6F  A$story_update$139                 story_update
     00002C71  A$story_update$144                 story_update
     00002C71  C$story_update.c$48$6_2$163        story_update
     00002C73  A$story_update$145                 story_update
     00002C74  A$story_update$146                 story_update
     00002C75  A$story_update$147                 story_update
     00002C77  A$story_update$148                 story_update
     00002C79  A$story_update$149                 story_update
     00002C7C  A$story_update$153                 story_update
     00002C7C  C$story_update.c$49$6_2$163        story_update
     00002C7E  A$story_update$154                 story_update
     00002C80  A$story_update$159                 story_update
     00002C80  C$story_update.c$53$3_1$155        story_update
ASxxxx Linker V03.00/V05.40 + sdld,  page 127.
Hexadecimal  [32-Bits]

Area                                    Addr        Size        Decimal Bytes (Attributes)
--------------------------------        ----        ----        ------- ----- ------------
_CODE                               00000200    000035F9 =       13817. bytes (REL,CON)

      Value  Global                              Global Defined In Module
      -----  --------------------------------   ------------------------
     00002C83  A$story_update$160                 story_update
     00002C84  A$story_update$161                 story_update
     00002C85  A$story_update$162                 story_update
     00002C86  A$story_update$163                 story_update
     00002C89  A$story_update$164                 story_update
     00002C8B  A$story_update$165                 story_update
     00002C8C  A$story_update$169                 story_update
     00002C8C  C$story_update.c$54$3_1$155        story_update
     00002C8D  A$story_update$170                 story_update
     00002C8E  A$story_update$175                 story_update
     00002C8E  C$story_update.c$57$2_0$164        story_update
     00002C91  A$story_update$176                 story_update
     00002C94  A$story_update$177                 story_update
     00002C95  A$story_update$178                 story_update
     00002C97  A$story_update$182                 story_update
     00002C97  C$story_update.c$59$3_0$165        story_update
     00002C9A  A$story_update$183                 story_update
     00002C9B  A$story_update$187                 story_update
     00002C9B  C$story_update.c$60$3_0$165        story_update
     00002C9C  A$story_update$192                 story_update
     00002C9C  C$story_update.c$63$2_0$166        story_update
     00002C9F  A$story_update$193                 story_update
     00002CA2  A$story_update$194                 story_update
     00002CA3  A$story_update$195                 story_update
     00002CA5  A$story_update$199                 story_update
     00002CA5  C$story_update.c$65$3_0$167        story_update
     00002CA8  A$story_update$200                 story_update
     00002CAA  A$story_update$204                 story_update
     00002CAA  C$story_update.c$66$3_0$167        story_update
     00002CAB  A$story_update$209                 story_update
     00002CAB  C$story_update.c$69$2_0$168        story_update
     00002CAE  A$story_update$210                 story_update
     00002CAF  A$story_update$211                 story_update
     00002CB1  A$story_update$212                 story_update
     00002CB2  A$story_update$213                 story_update
     00002CB3  A$story_update$214                 story_update
     00002CB4  A$story_update$215                 story_update
     00002CB5  A$story_update$216                 story_update
     00002CB6  A$story_update$217                 story_update
     00002CB7  A$story_update$218                 story_update
     00002CBA  A$story_update$219                 story_update
     00002CBB  A$story_update$220                 story_update
     00002CBC  A$story_update$221                 story_update
     00002CBD  A$story_update$222                 story_update
     00002CC0  A$story_update$223                 story_update
     00002CC1  A$story_update$224                 story_update
     00002CC2  A$story_update$225                 story_update
     00002CC4  A$story_update$226                 story_update
     00002CC5  A$story_update$227                 story_update
     00002CC6  A$story_update$228                 story_update
     00002CC7  A$story_update$229                 story_update
ASxxxx Linker V03.00/V05.40 + sdld,  page 128.
Hexadecimal  [32-Bits]

Area                                    Addr        Size        Decimal Bytes (Attributes)
--------------------------------        ----        ----        ------- ----- ------------
_CODE                               00000200    000035F9 =       13817. bytes (REL,CON)

      Value  Global                              Global Defined In Module
      -----  --------------------------------   ------------------------
     00002CC8  A$story_update$230                 story_update
     00002CCA  A$story_update$231                 story_update
     00002CCD  A$story_update$232                 story_update
     00002CCF  A$story_update$233                 story_update
     00002CD1  A$story_update$238                 story_update
     00002CD1  C$story_update.c$71$3_0$169        story_update
     00002CD4  A$story_update$239                 story_update
     00002CD5  A$story_update$243                 story_update
     00002CD5  C$story_update.c$72$3_0$169        story_update
     00002CD6  A$story_update$244                 story_update
     00002CD9  A$story_update$248                 story_update
     00002CD9  C$story_update.c$74$3_0$169        story_update
     00002CDA  A$story_update$253                 story_update
     00002CDA  C$story_update.c$77$1_0$152        story_update
     00002CDB  A$story_update$254                 story_update
     00002CDE  A$story_update$258                 story_update
     00002CDE  C$story_update.c$82$1_1$170        story_update
     00002CDF  A$story_update$259                 story_update
     00002CE2  A$story_update$260                 story_update
     00002CE3  A$story_update$261                 story_update
     00002CE5  A$story_update$262                 story_update
     00002CE6  A$story_update$266                 story_update
     00002CE6  C$story_update.c$86$1_1$170        story_update
     00002CE9  A$story_update$267                 story_update
     00002CEA  A$story_update$268                 story_update
     00002CEB  A$story_update$269                 story_update
     00002CEC  A$story_update$270                 story_update
     00002CED  A$story_update$271                 story_update
     00002CEE  A$story_update$272                 story_update
     00002CF1  A$story_update$273                 story_update
     00002CF2  A$story_update$274                 story_update
     00002CF3  A$story_update$275                 story_update
     00002CF4  A$story_update$276                 story_update
     00002CF5  A$story_update$277                 story_update
     00002CF6  A$story_update$278                 story_update
     00002CF9  A$story_update$282                 story_update
     00002CF9  C$story_update.c$88$1_1$170        story_update
     00002CFC  A$story_update$283                 story_update
     00002CFD  A$story_update$291                 story_update
     00002CFD  C$story_update.c$89$1_1$152        story_update
     00002CFD  XG$Story_Update$0$0                story_update
     00002CFE  Ftest_song$order_cnt$0_0$0         test_song
     00002CFF  Ftest_song$P0$0_0$0                test_song
     00002DBF  Ftest_song$P1$0_0$0                test_song
     00002E7F  Ftest_song$P2$0_0$0                test_song
     00002F3F  Ftest_song$P3$0_0$0                test_song
     00002FFF  Ftest_song$order1$0_0$0            test_song
     00003001  Ftest_song$order2$0_0$0            test_song
     00003003  Ftest_song$order3$0_0$0            test_song
     00003005  Ftest_song$order4$0_0$0            test_song
     00003007  Ftest_song$duty_instruments$0_0$   test_song
ASxxxx Linker V03.00/V05.40 + sdld,  page 129.
Hexadecimal  [32-Bits]

Area                                    Addr        Size        Decimal Bytes (Attributes)
--------------------------------        ----        ----        ------- ----- ------------
_CODE                               00000200    000035F9 =       13817. bytes (REL,CON)

      Value  Global                              Global Defined In Module
      -----  --------------------------------   ------------------------
     0000301F  Ftest_song$wave_instruments$0_0$   test_song
     00003037  Ftest_song$noise_instruments$0_0   test_song
     00003049  Ftest_song$waves$0_0$0             test_song
     00003089  G$test_song$0_0$0                  test_song
     00003089  _test_song                         test_song
     0000309E  G$text_frame_tileset$0_0$0         text_frame
     0000309E  _text_frame_tileset                text_frame
     000031FE  G$text_frame_tilemap$0_0$0         text_frame
     000031FE  _text_frame_tilemap                text_frame
     00003217  A$text_frame_init$54               text_frame_init
     00003217  C$text_frame_init.c$5$0_0$128      text_frame_init
     00003217  G$TextFrame_Init$0$0               text_frame_init
     00003217  _TextFrame_Init                    text_frame_init
     00003219  A$text_frame_init$55               text_frame_init
     0000321B  A$text_frame_init$56               text_frame_init
     0000321C  A$text_frame_init$57               text_frame_init
     0000321D  A$text_frame_init$64               text_frame_init
     0000321D  C$text_frame_init.c$6$1_0$128      text_frame_init
     0000321D  C$text_frame_init.c$7$1_0$128      text_frame_init
     00003220  A$text_frame_init$65               text_frame_init
     00003221  A$text_frame_init$66               text_frame_init
     00003224  A$text_frame_init$67               text_frame_init
     00003225  A$text_frame_init$68               text_frame_init
     00003228  A$text_frame_init$69               text_frame_init
     0000322A  A$text_frame_init$73               text_frame_init
     0000322A  C$text_frame_init.c$14$3_1$131     text_frame_init
     0000322C  A$text_frame_init$74               text_frame_init
     0000322D  A$text_frame_init$75               text_frame_init
     0000322E  A$text_frame_init$76               text_frame_init
     0000322F  A$text_frame_init$81               text_frame_init
     0000322F  C$text_frame_init.c$15$3_1$131     text_frame_init
     00003231  A$text_frame_init$82               text_frame_init
     00003232  A$text_frame_init$83               text_frame_init
     00003233  A$text_frame_init$84               text_frame_init
     00003234  A$text_frame_init$85               text_frame_init
     00003235  A$text_frame_init$86               text_frame_init
     00003236  A$text_frame_init$90               text_frame_init
     00003236  C$text_frame_init.c$19$3_1$131     text_frame_init
     00003237  A$text_frame_init$91               text_frame_init
     00003238  A$text_frame_init$92               text_frame_init
     00003239  A$text_frame_init$93               text_frame_init
     0000323B  A$text_frame_init$94               text_frame_init
     0000323E  A$text_frame_init$95               text_frame_init
     0000323F  A$text_frame_init$96               text_frame_init
     00003240  A$text_frame_init$97               text_frame_init
     00003242  A$text_frame_init$98               text_frame_init
     00003243  A$text_frame_init$102              text_frame_init
     00003243  C$text_frame_init.c$18$2_1$128     text_frame_init
     00003245  A$text_frame_init$103              text_frame_init
     00003246  A$text_frame_init$104              text_frame_init
     00003248  A$text_frame_init$105              text_frame_init
ASxxxx Linker V03.00/V05.40 + sdld,  page 130.
Hexadecimal  [32-Bits]

Area                                    Addr        Size        Decimal Bytes (Attributes)
--------------------------------        ----        ----        ------- ----- ------------
_CODE                               00000200    000035F9 =       13817. bytes (REL,CON)

      Value  Global                              Global Defined In Module
      -----  --------------------------------   ------------------------
     00003249  A$text_frame_init$106              text_frame_init
     0000324A  A$text_frame_init$107              text_frame_init
     0000324B  A$text_frame_init$108              text_frame_init
     0000324C  A$text_frame_init$109              text_frame_init
     0000324D  A$text_frame_init$110              text_frame_init
     0000324F  A$text_frame_init$111              text_frame_init
     00003252  A$text_frame_init$112              text_frame_init
     00003253  A$text_frame_init$116              text_frame_init
     00003253  C$text_frame_init.c$21$3_1$131     text_frame_init
     00003254  A$text_frame_init$117              text_frame_init
     00003255  A$text_frame_init$118              text_frame_init
     00003257  A$text_frame_init$119              text_frame_init
     0000325A  A$text_frame_init$120              text_frame_init
     0000325B  A$text_frame_init$121              text_frame_init
     0000325C  A$text_frame_init$122              text_frame_init
     0000325E  A$text_frame_init$126              text_frame_init
     0000325E  C$text_frame_init.c$20$3_1$131     text_frame_init
     0000325F  A$text_frame_init$127              text_frame_init
     00003260  A$text_frame_init$128              text_frame_init
     00003261  A$text_frame_init$129              text_frame_init
     00003263  A$text_frame_init$130              text_frame_init
     00003264  A$text_frame_init$131              text_frame_init
     00003266  A$text_frame_init$132              text_frame_init
     00003269  A$text_frame_init$133              text_frame_init
     0000326A  A$text_frame_init$137              text_frame_init
     0000326A  C$text_frame_init.c$24$3_2$132     text_frame_init
     0000326B  A$text_frame_init$138              text_frame_init
     0000326C  A$text_frame_init$139              text_frame_init
     0000326D  A$text_frame_init$140              text_frame_init
     0000326F  A$text_frame_init$141              text_frame_init
     00003270  A$text_frame_init$142              text_frame_init
     00003271  A$text_frame_init$143              text_frame_init
     00003273  A$text_frame_init$144              text_frame_init
     00003276  A$text_frame_init$145              text_frame_init
     00003277  A$text_frame_init$146              text_frame_init
     00003278  A$text_frame_init$147              text_frame_init
     0000327A  A$text_frame_init$148              text_frame_init
     0000327C  A$text_frame_init$152              text_frame_init
     0000327C  C$text_frame_init.c$25$2_1$128     text_frame_init
     0000327D  A$text_frame_init$153              text_frame_init
     0000327E  A$text_frame_init$154              text_frame_init
     00003280  A$text_frame_init$156              text_frame_init
     00003282  A$text_frame_init$157              text_frame_init
     00003283  A$text_frame_init$158              text_frame_init
     00003284  A$text_frame_init$159              text_frame_init
     00003285  A$text_frame_init$160              text_frame_init
     00003287  A$text_frame_init$164              text_frame_init
     00003287  C$text_frame_init.c$26$5_2$134     text_frame_init
     00003288  A$text_frame_init$165              text_frame_init
     00003289  A$text_frame_init$166              text_frame_init
     0000328A  A$text_frame_init$167              text_frame_init
ASxxxx Linker V03.00/V05.40 + sdld,  page 131.
Hexadecimal  [32-Bits]

Area                                    Addr        Size        Decimal Bytes (Attributes)
--------------------------------        ----        ----        ------- ----- ------------
_CODE                               00000200    000035F9 =       13817. bytes (REL,CON)

      Value  Global                              Global Defined In Module
      -----  --------------------------------   ------------------------
     0000328B  A$text_frame_init$168              text_frame_init
     0000328C  A$text_frame_init$169              text_frame_init
     0000328D  A$text_frame_init$170              text_frame_init
     0000328E  A$text_frame_init$171              text_frame_init
     0000328F  A$text_frame_init$172              text_frame_init
     00003290  A$text_frame_init$173              text_frame_init
     00003291  A$text_frame_init$174              text_frame_init
     00003293  A$text_frame_init$175              text_frame_init
     00003294  A$text_frame_init$176              text_frame_init
     00003297  A$text_frame_init$180              text_frame_init
     00003297  C$text_frame_init.c$25$4_2$133     text_frame_init
     00003299  A$text_frame_init$181              text_frame_init
     0000329A  A$text_frame_init$182              text_frame_init
     0000329C  A$text_frame_init$187              text_frame_init
     0000329C  C$text_frame_init.c$31$3_2$132     text_frame_init
     0000329E  A$text_frame_init$188              text_frame_init
     0000329F  A$text_frame_init$189              text_frame_init
     000032A0  A$text_frame_init$190              text_frame_init
     000032A1  A$text_frame_init$191              text_frame_init
     000032A2  A$text_frame_init$192              text_frame_init
     000032A4  A$text_frame_init$193              text_frame_init
     000032A7  A$text_frame_init$194              text_frame_init
     000032A8  A$text_frame_init$195              text_frame_init
     000032A9  A$text_frame_init$196              text_frame_init
     000032AB  A$text_frame_init$197              text_frame_init
     000032AC  A$text_frame_init$201              text_frame_init
     000032AC  C$text_frame_init.c$30$3_2$132     text_frame_init
     000032AE  A$text_frame_init$202              text_frame_init
     000032AF  A$text_frame_init$203              text_frame_init
     000032B0  A$text_frame_init$204              text_frame_init
     000032B2  A$text_frame_init$205              text_frame_init
     000032B4  A$text_frame_init$206              text_frame_init
     000032B5  A$text_frame_init$207              text_frame_init
     000032B6  A$text_frame_init$208              text_frame_init
     000032B7  A$text_frame_init$209              text_frame_init
     000032B8  A$text_frame_init$210              text_frame_init
     000032BA  A$text_frame_init$211              text_frame_init
     000032BB  A$text_frame_init$212              text_frame_init
     000032BD  A$text_frame_init$213              text_frame_init
     000032BE  A$text_frame_init$214              text_frame_init
     000032C1  A$text_frame_init$215              text_frame_init
     000032C2  A$text_frame_init$219              text_frame_init
     000032C2  C$text_frame_init.c$33$3_2$132     text_frame_init
     000032C4  A$text_frame_init$220              text_frame_init
     000032C5  A$text_frame_init$221              text_frame_init
     000032C6  A$text_frame_init$222              text_frame_init
     000032C8  A$text_frame_init$223              text_frame_init
     000032CA  A$text_frame_init$224              text_frame_init
     000032CB  A$text_frame_init$225              text_frame_init
     000032CC  A$text_frame_init$226              text_frame_init
     000032CE  A$text_frame_init$227              text_frame_init
ASxxxx Linker V03.00/V05.40 + sdld,  page 132.
Hexadecimal  [32-Bits]

Area                                    Addr        Size        Decimal Bytes (Attributes)
--------------------------------        ----        ----        ------- ----- ------------
_CODE                               00000200    000035F9 =       13817. bytes (REL,CON)

      Value  Global                              Global Defined In Module
      -----  --------------------------------   ------------------------
     000032CF  A$text_frame_init$231              text_frame_init
     000032CF  C$text_frame_init.c$32$3_2$132     text_frame_init
     000032D0  A$text_frame_init$232              text_frame_init
     000032D2  A$text_frame_init$233              text_frame_init
     000032D4  A$text_frame_init$234              text_frame_init
     000032D5  A$text_frame_init$235              text_frame_init
     000032D6  A$text_frame_init$236              text_frame_init
     000032D7  A$text_frame_init$237              text_frame_init
     000032D9  A$text_frame_init$238              text_frame_init
     000032DA  A$text_frame_init$239              text_frame_init
     000032DC  A$text_frame_init$240              text_frame_init
     000032DD  A$text_frame_init$241              text_frame_init
     000032E0  A$text_frame_init$245              text_frame_init
     000032E0  C$text_frame_init.c$35$3_2$132     text_frame_init
     000032E2  A$text_frame_init$246              text_frame_init
     000032E3  A$text_frame_init$250              text_frame_init
     000032E3  C$text_frame_init.c$14$2_1$130     text_frame_init
     000032E4  A$text_frame_init$251              text_frame_init
     000032E5  A$text_frame_init$252              text_frame_init
     000032E6  A$text_frame_init$253              text_frame_init
     000032E8  A$text_frame_init$254              text_frame_init
     000032EB  A$text_frame_init$258              text_frame_init
     000032EB  C$text_frame_init.c$39$3_1$136     text_frame_init
     000032EC  A$text_frame_init$259              text_frame_init
     000032ED  A$text_frame_init$260              text_frame_init
     000032EF  A$text_frame_init$262              text_frame_init
     000032F0  A$text_frame_init$263              text_frame_init
     000032F2  A$text_frame_init$264              text_frame_init
     000032F3  A$text_frame_init$265              text_frame_init
     000032F5  A$text_frame_init$269              text_frame_init
     000032F5  C$text_frame_init.c$43$3_1$136     text_frame_init
     000032F8  A$text_frame_init$270              text_frame_init
     000032FA  A$text_frame_init$271              text_frame_init
     000032FB  A$text_frame_init$275              text_frame_init
     000032FB  C$text_frame_init.c$42$2_1$128     text_frame_init
     000032FC  A$text_frame_init$276              text_frame_init
     000032FE  A$text_frame_init$277              text_frame_init
     00003300  A$text_frame_init$278              text_frame_init
     00003301  A$text_frame_init$279              text_frame_init
     00003302  A$text_frame_init$280              text_frame_init
     00003303  A$text_frame_init$281              text_frame_init
     00003304  A$text_frame_init$282              text_frame_init
     00003305  A$text_frame_init$283              text_frame_init
     00003307  A$text_frame_init$284              text_frame_init
     0000330A  A$text_frame_init$285              text_frame_init
     0000330B  A$text_frame_init$289              text_frame_init
     0000330B  C$text_frame_init.c$45$3_1$136     text_frame_init
     0000330E  A$text_frame_init$290              text_frame_init
     00003310  A$text_frame_init$294              text_frame_init
     00003310  C$text_frame_init.c$44$3_1$136     text_frame_init
     00003311  A$text_frame_init$295              text_frame_init
ASxxxx Linker V03.00/V05.40 + sdld,  page 133.
Hexadecimal  [32-Bits]

Area                                    Addr        Size        Decimal Bytes (Attributes)
--------------------------------        ----        ----        ------- ----- ------------
_CODE                               00000200    000035F9 =       13817. bytes (REL,CON)

      Value  Global                              Global Defined In Module
      -----  --------------------------------   ------------------------
     00003312  A$text_frame_init$296              text_frame_init
     00003313  A$text_frame_init$297              text_frame_init
     00003315  A$text_frame_init$298              text_frame_init
     00003316  A$text_frame_init$299              text_frame_init
     00003318  A$text_frame_init$300              text_frame_init
     0000331B  A$text_frame_init$301              text_frame_init
     0000331C  A$text_frame_init$305              text_frame_init
     0000331C  C$text_frame_init.c$47$3_2$137     text_frame_init
     0000331F  A$text_frame_init$306              text_frame_init
     00003321  A$text_frame_init$307              text_frame_init
     00003323  A$text_frame_init$308              text_frame_init
     00003324  A$text_frame_init$312              text_frame_init
     00003324  C$text_frame_init.c$49$2_1$128     text_frame_init
     00003326  A$text_frame_init$314              text_frame_init
     00003327  A$text_frame_init$315              text_frame_init
     00003329  A$text_frame_init$316              text_frame_init
     0000332A  A$text_frame_init$317              text_frame_init
     0000332C  A$text_frame_init$321              text_frame_init
     0000332C  C$text_frame_init.c$50$5_2$139     text_frame_init
     0000332D  A$text_frame_init$322              text_frame_init
     0000332F  A$text_frame_init$323              text_frame_init
     00003330  A$text_frame_init$324              text_frame_init
     00003331  A$text_frame_init$325              text_frame_init
     00003333  A$text_frame_init$326              text_frame_init
     00003334  A$text_frame_init$327              text_frame_init
     00003335  A$text_frame_init$328              text_frame_init
     00003336  A$text_frame_init$329              text_frame_init
     00003338  A$text_frame_init$330              text_frame_init
     00003339  A$text_frame_init$331              text_frame_init
     0000333C  A$text_frame_init$332              text_frame_init
     0000333D  A$text_frame_init$333              text_frame_init
     0000333E  A$text_frame_init$337              text_frame_init
     0000333E  C$text_frame_init.c$49$4_2$138     text_frame_init
     0000333F  A$text_frame_init$338              text_frame_init
     00003341  A$text_frame_init$343              text_frame_init
     00003341  C$text_frame_init.c$54$3_2$137     text_frame_init
     00003344  A$text_frame_init$344              text_frame_init
     00003346  A$text_frame_init$348              text_frame_init
     00003346  C$text_frame_init.c$53$3_2$137     text_frame_init
     00003347  A$text_frame_init$349              text_frame_init
     00003348  A$text_frame_init$350              text_frame_init
     00003349  A$text_frame_init$351              text_frame_init
     0000334B  A$text_frame_init$352              text_frame_init
     0000334C  A$text_frame_init$353              text_frame_init
     0000334E  A$text_frame_init$354              text_frame_init
     0000334F  A$text_frame_init$355              text_frame_init
     00003352  A$text_frame_init$356              text_frame_init
     00003353  A$text_frame_init$360              text_frame_init
     00003353  C$text_frame_init.c$56$3_2$137     text_frame_init
     00003356  A$text_frame_init$361              text_frame_init
     00003358  A$text_frame_init$365              text_frame_init
ASxxxx Linker V03.00/V05.40 + sdld,  page 134.
Hexadecimal  [32-Bits]

Area                                    Addr        Size        Decimal Bytes (Attributes)
--------------------------------        ----        ----        ------- ----- ------------
_CODE                               00000200    000035F9 =       13817. bytes (REL,CON)

      Value  Global                              Global Defined In Module
      -----  --------------------------------   ------------------------
     00003358  C$text_frame_init.c$55$3_2$137     text_frame_init
     00003359  A$text_frame_init$366              text_frame_init
     0000335A  A$text_frame_init$367              text_frame_init
     0000335B  A$text_frame_init$368              text_frame_init
     0000335D  A$text_frame_init$369              text_frame_init
     0000335E  A$text_frame_init$370              text_frame_init
     00003360  A$text_frame_init$371              text_frame_init
     00003361  A$text_frame_init$372              text_frame_init
     00003364  A$text_frame_init$373              text_frame_init
     00003365  A$text_frame_init$377              text_frame_init
     00003365  C$text_frame_init.c$58$3_2$137     text_frame_init
     00003366  A$text_frame_init$381              text_frame_init
     00003366  C$text_frame_init.c$39$2_1$135     text_frame_init
     00003367  A$text_frame_init$382              text_frame_init
     00003369  A$text_frame_init$387              text_frame_init
     00003369  C$text_frame_init.c$62$2_1$128     text_frame_init
     0000336B  A$text_frame_init$388              text_frame_init
     0000336C  A$text_frame_init$389              text_frame_init
     0000336D  A$text_frame_init$390              text_frame_init
     0000336F  A$text_frame_init$395              text_frame_init
     0000336F  C$text_frame_init.c$63$3_1$141     text_frame_init
     00003371  A$text_frame_init$396              text_frame_init
     00003372  A$text_frame_init$397              text_frame_init
     00003374  A$text_frame_init$398              text_frame_init
     00003375  A$text_frame_init$399              text_frame_init
     00003376  A$text_frame_init$400              text_frame_init
     00003377  A$text_frame_init$401              text_frame_init
     00003378  A$text_frame_init$402              text_frame_init
     00003379  A$text_frame_init$406              text_frame_init
     00003379  C$text_frame_init.c$66$3_1$141     text_frame_init
     0000337A  A$text_frame_init$407              text_frame_init
     0000337B  A$text_frame_init$408              text_frame_init
     0000337D  A$text_frame_init$409              text_frame_init
     00003380  A$text_frame_init$410              text_frame_init
     00003381  A$text_frame_init$411              text_frame_init
     00003382  A$text_frame_init$412              text_frame_init
     00003384  A$text_frame_init$413              text_frame_init
     00003385  A$text_frame_init$417              text_frame_init
     00003385  C$text_frame_init.c$65$2_1$128     text_frame_init
     00003387  A$text_frame_init$418              text_frame_init
     00003388  A$text_frame_init$419              text_frame_init
     0000338A  A$text_frame_init$420              text_frame_init
     0000338C  A$text_frame_init$421              text_frame_init
     0000338D  A$text_frame_init$422              text_frame_init
     0000338E  A$text_frame_init$423              text_frame_init
     0000338F  A$text_frame_init$424              text_frame_init
     00003390  A$text_frame_init$425              text_frame_init
     00003391  A$text_frame_init$426              text_frame_init
     00003393  A$text_frame_init$427              text_frame_init
     00003396  A$text_frame_init$428              text_frame_init
     00003397  A$text_frame_init$432              text_frame_init
ASxxxx Linker V03.00/V05.40 + sdld,  page 135.
Hexadecimal  [32-Bits]

Area                                    Addr        Size        Decimal Bytes (Attributes)
--------------------------------        ----        ----        ------- ----- ------------
_CODE                               00000200    000035F9 =       13817. bytes (REL,CON)

      Value  Global                              Global Defined In Module
      -----  --------------------------------   ------------------------
     00003397  C$text_frame_init.c$68$3_1$141     text_frame_init
     00003398  A$text_frame_init$433              text_frame_init
     00003399  A$text_frame_init$434              text_frame_init
     0000339B  A$text_frame_init$435              text_frame_init
     0000339E  A$text_frame_init$436              text_frame_init
     0000339F  A$text_frame_init$437              text_frame_init
     000033A0  A$text_frame_init$438              text_frame_init
     000033A2  A$text_frame_init$442              text_frame_init
     000033A2  C$text_frame_init.c$67$3_1$141     text_frame_init
     000033A3  A$text_frame_init$443              text_frame_init
     000033A4  A$text_frame_init$444              text_frame_init
     000033A5  A$text_frame_init$445              text_frame_init
     000033A7  A$text_frame_init$446              text_frame_init
     000033A8  A$text_frame_init$447              text_frame_init
     000033AA  A$text_frame_init$448              text_frame_init
     000033AD  A$text_frame_init$449              text_frame_init
     000033AE  A$text_frame_init$453              text_frame_init
     000033AE  C$text_frame_init.c$70$3_2$142     text_frame_init
     000033AF  A$text_frame_init$454              text_frame_init
     000033B0  A$text_frame_init$455              text_frame_init
     000033B1  A$text_frame_init$456              text_frame_init
     000033B3  A$text_frame_init$457              text_frame_init
     000033B4  A$text_frame_init$458              text_frame_init
     000033B5  A$text_frame_init$459              text_frame_init
     000033B7  A$text_frame_init$460              text_frame_init
     000033BA  A$text_frame_init$461              text_frame_init
     000033BB  A$text_frame_init$462              text_frame_init
     000033BC  A$text_frame_init$463              text_frame_init
     000033BE  A$text_frame_init$464              text_frame_init
     000033C0  A$text_frame_init$465              text_frame_init
     000033C1  A$text_frame_init$469              text_frame_init
     000033C1  C$text_frame_init.c$72$2_1$128     text_frame_init
     000033C3  A$text_frame_init$470              text_frame_init
     000033C5  A$text_frame_init$472              text_frame_init
     000033C7  A$text_frame_init$473              text_frame_init
     000033C8  A$text_frame_init$474              text_frame_init
     000033CA  A$text_frame_init$475              text_frame_init
     000033CB  A$text_frame_init$476              text_frame_init
     000033CD  A$text_frame_init$480              text_frame_init
     000033CD  C$text_frame_init.c$73$5_2$144     text_frame_init
     000033CF  A$text_frame_init$481              text_frame_init
     000033D0  A$text_frame_init$482              text_frame_init
     000033D2  A$text_frame_init$483              text_frame_init
     000033D3  A$text_frame_init$484              text_frame_init
     000033D4  A$text_frame_init$485              text_frame_init
     000033D5  A$text_frame_init$486              text_frame_init
     000033D6  A$text_frame_init$487              text_frame_init
     000033D7  A$text_frame_init$488              text_frame_init
     000033D8  A$text_frame_init$489              text_frame_init
     000033D9  A$text_frame_init$490              text_frame_init
     000033DB  A$text_frame_init$491              text_frame_init
ASxxxx Linker V03.00/V05.40 + sdld,  page 136.
Hexadecimal  [32-Bits]

Area                                    Addr        Size        Decimal Bytes (Attributes)
--------------------------------        ----        ----        ------- ----- ------------
_CODE                               00000200    000035F9 =       13817. bytes (REL,CON)

      Value  Global                              Global Defined In Module
      -----  --------------------------------   ------------------------
     000033DC  A$text_frame_init$492              text_frame_init
     000033DF  A$text_frame_init$496              text_frame_init
     000033DF  C$text_frame_init.c$72$4_2$143     text_frame_init
     000033E1  A$text_frame_init$497              text_frame_init
     000033E2  A$text_frame_init$498              text_frame_init
     000033E4  A$text_frame_init$503              text_frame_init
     000033E4  C$text_frame_init.c$77$3_2$142     text_frame_init
     000033E6  A$text_frame_init$504              text_frame_init
     000033E7  A$text_frame_init$505              text_frame_init
     000033E8  A$text_frame_init$506              text_frame_init
     000033E9  A$text_frame_init$507              text_frame_init
     000033EA  A$text_frame_init$508              text_frame_init
     000033EC  A$text_frame_init$509              text_frame_init
     000033EF  A$text_frame_init$510              text_frame_init
     000033F0  A$text_frame_init$511              text_frame_init
     000033F1  A$text_frame_init$512              text_frame_init
     000033F3  A$text_frame_init$516              text_frame_init
     000033F3  C$text_frame_init.c$76$3_2$142     text_frame_init
     000033F4  A$text_frame_init$517              text_frame_init
     000033F5  A$text_frame_init$518              text_frame_init
     000033F6  A$text_frame_init$519              text_frame_init
     000033F8  A$text_frame_init$520              text_frame_init
     000033F9  A$text_frame_init$521              text_frame_init
     000033FA  A$text_frame_init$522              text_frame_init
     000033FB  A$text_frame_init$523              text_frame_init
     000033FC  A$text_frame_init$524              text_frame_init
     000033FF  A$text_frame_init$525              text_frame_init
     00003400  A$text_frame_init$529              text_frame_init
     00003400  C$text_frame_init.c$79$3_2$142     text_frame_init
     00003401  A$text_frame_init$530              text_frame_init
     00003403  A$text_frame_init$531              text_frame_init
     00003406  A$text_frame_init$532              text_frame_init
     00003407  A$text_frame_init$533              text_frame_init
     00003408  A$text_frame_init$534              text_frame_init
     0000340A  A$text_frame_init$538              text_frame_init
     0000340A  C$text_frame_init.c$78$3_2$142     text_frame_init
     0000340B  A$text_frame_init$539              text_frame_init
     0000340C  A$text_frame_init$540              text_frame_init
     0000340E  A$text_frame_init$541              text_frame_init
     0000340F  A$text_frame_init$542              text_frame_init
     00003410  A$text_frame_init$543              text_frame_init
     00003411  A$text_frame_init$544              text_frame_init
     00003414  A$text_frame_init$548              text_frame_init
     00003414  C$text_frame_init.c$81$3_2$142     text_frame_init
     00003416  A$text_frame_init$549              text_frame_init
     00003417  A$text_frame_init$553              text_frame_init
     00003417  C$text_frame_init.c$62$2_1$140     text_frame_init
     00003418  A$text_frame_init$554              text_frame_init
     00003419  A$text_frame_init$555              text_frame_init
     0000341A  A$text_frame_init$556              text_frame_init
     0000341C  A$text_frame_init$557              text_frame_init
ASxxxx Linker V03.00/V05.40 + sdld,  page 137.
Hexadecimal  [32-Bits]

Area                                    Addr        Size        Decimal Bytes (Attributes)
--------------------------------        ----        ----        ------- ----- ------------
_CODE                               00000200    000035F9 =       13817. bytes (REL,CON)

      Value  Global                              Global Defined In Module
      -----  --------------------------------   ------------------------
     0000341F  A$text_frame_init$561              text_frame_init
     00003421  A$text_frame_init$566              text_frame_init
     00003421  C$text_frame_init.c$83$2_1$128     text_frame_init
     00003421  XG$TextFrame_Init$0$0              text_frame_init
     00003422  _free                              free
     00003532  __divsuchar                        divmod
     00003538  __modsuchar                        divmod
     00003541  __divuschar                        divmod
     0000354A  __moduschar                        divmod
     00003556  __divschar                         divmod
     0000355B  __modschar                         divmod
     00003562  __divsint                          divmod
     0000356B  __modsint                          divmod
     00003577  __divuchar                         divmod
     0000357C  __moduchar                         divmod
     00003583  __divuint                          divmod
     0000358C  __moduint                          divmod
     00003598  .div8                              divmod
     00003598  .mod8                              divmod
     000035A0  .div16                             divmod
     000035A0  .mod16                             divmod
     000035D6  .divu8                             divmod
     000035D6  .modu8                             divmod
     000035D9  .divu16                            divmod
     000035D9  .modu16                            divmod
     00003619  ___sdcc_heap_init                  malloc
     0000363B  _malloc                            malloc
     00003741  _set_vram_byte                     
     0000374A  _set_win_tile_xy                   
     00003753  _set_bkg_tile_xy                   
     00003782  __mulsuchar                        mul
     00003785  __muluschar                        mul
     0000378E  __mulschar                         mul
     00003796  __mulint                           mul
     000037B5  __muluchar                         mul
     000037C7  ___memcpy                          
     000037C7  _memcpy                            
ASxxxx Linker V03.00/V05.40 + sdld,  page 138.
Hexadecimal  [32-Bits]

Area                                    Addr        Size        Decimal Bytes (Attributes)
--------------------------------        ----        ----        ------- ----- ------------
_HEADER0                            00000000    00000001 =           1. bytes (ABS,CON)

      Value  Global                              Global Defined In Module
      -----  --------------------------------   ------------------------
     00000020  .call_hl                           Runtime

ASxxxx Linker V03.00/V05.40 + sdld,  page 139.
Hexadecimal  [32-Bits]

Area                                    Addr        Size        Decimal Bytes (Attributes)
--------------------------------        ----        ----        ------- ----- ------------
_HEADER1                            00000000    00000005 =           5. bytes (ABS,CON)

      Value  Global                              Global Defined In Module
      -----  --------------------------------   ------------------------
     00000028  .MemsetSmall                       Runtime

ASxxxx Linker V03.00/V05.40 + sdld,  page 140.
Hexadecimal  [32-Bits]

Area                                    Addr        Size        Decimal Bytes (Attributes)
--------------------------------        ----        ----        ------- ----- ------------
_HEADER2                            00000000    00000007 =           7. bytes (ABS,CON)

      Value  Global                              Global Defined In Module
      -----  --------------------------------   ------------------------
     00000030  .MemcpySmall                       Runtime

ASxxxx Linker V03.00/V05.40 + sdld,  page 141.
Hexadecimal  [32-Bits]

Area                                    Addr        Size        Decimal Bytes (Attributes)
--------------------------------        ----        ----        ------- ----- ------------
_HEADER3                            00000000    00000008 =           8. bytes (ABS,CON)

      Value  Global                              Global Defined In Module
      -----  --------------------------------   ------------------------
ASxxxx Linker V03.00/V05.40 + sdld,  page 142.
Hexadecimal  [32-Bits]

Area                                    Addr        Size        Decimal Bytes (Attributes)
--------------------------------        ----        ----        ------- ----- ------------
_HEADER4                            00000000    00000060 =          96. bytes (ABS,CON)

      Value  Global                              Global Defined In Module
      -----  --------------------------------   ------------------------
     00000080  .int                               Runtime
     0000008F  _wait_int_handler                  Runtime
     0000009C  __standard_VBL_handler             Runtime
     000000AB  _refresh_OAM                       Runtime
     000000CC  _set_interrupts                    Runtime

ASxxxx Linker V03.00/V05.40 + sdld,  page 143.
Hexadecimal  [32-Bits]

Area                                    Addr        Size        Decimal Bytes (Attributes)
--------------------------------        ----        ----        ------- ----- ------------
_HEADER5                            00000000    00000001 =           1. bytes (ABS,CON)

      Value  Global                              Global Defined In Module
      -----  --------------------------------   ------------------------
ASxxxx Linker V03.00/V05.40 + sdld,  page 144.
Hexadecimal  [32-Bits]

Area                                    Addr        Size        Decimal Bytes (Attributes)
--------------------------------        ----        ----        ------- ----- ------------
_HEADER6                            00000000    00000002 =           2. bytes (ABS,CON)

      Value  Global                              Global Defined In Module
      -----  --------------------------------   ------------------------
ASxxxx Linker V03.00/V05.40 + sdld,  page 145.
Hexadecimal  [32-Bits]

Area                                    Addr        Size        Decimal Bytes (Attributes)
--------------------------------        ----        ----        ------- ----- ------------
_HEADER7                            00000000    00000030 =          48. bytes (ABS,CON)

      Value  Global                              Global Defined In Module
      -----  --------------------------------   ------------------------
ASxxxx Linker V03.00/V05.40 + sdld,  page 146.
Hexadecimal  [32-Bits]

Area                                    Addr        Size        Decimal Bytes (Attributes)
--------------------------------        ----        ----        ------- ----- ------------
_HEADER8                            00000000    00000006 =           6. bytes (ABS,CON)

      Value  Global                              Global Defined In Module
      -----  --------------------------------   ------------------------
ASxxxx Linker V03.00/V05.40 + sdld,  page 147.
Hexadecimal  [32-Bits]

Area                                    Addr        Size        Decimal Bytes (Attributes)
--------------------------------        ----        ----        ------- ----- ------------
_HEADER9                            00000000    00000003 =           3. bytes (ABS,CON)

      Value  Global                              Global Defined In Module
      -----  --------------------------------   ------------------------
ASxxxx Linker V03.00/V05.40 + sdld,  page 148.
Hexadecimal  [32-Bits]

Area                                    Addr        Size        Decimal Bytes (Attributes)
--------------------------------        ----        ----        ------- ----- ------------
_HEADERa                            00000000    00000001 =           1. bytes (ABS,CON)

      Value  Global                              Global Defined In Module
      -----  --------------------------------   ------------------------
ASxxxx Linker V03.00/V05.40 + sdld,  page 149.
Hexadecimal  [32-Bits]

Area                                    Addr        Size        Decimal Bytes (Attributes)
--------------------------------        ----        ----        ------- ----- ------------
_HEADERb                            00000000    00000001 =           1. bytes (ABS,CON)

      Value  Global                              Global Defined In Module
      -----  --------------------------------   ------------------------
ASxxxx Linker V03.00/V05.40 + sdld,  page 150.
Hexadecimal  [32-Bits]

Area                                    Addr        Size        Decimal Bytes (Attributes)
--------------------------------        ----        ----        ------- ----- ------------
_HEADERc                            00000000    00000001 =           1. bytes (ABS,CON)

      Value  Global                              Global Defined In Module
      -----  --------------------------------   ------------------------
ASxxxx Linker V03.00/V05.40 + sdld,  page 151.
Hexadecimal  [32-Bits]

Area                                    Addr        Size        Decimal Bytes (Attributes)
--------------------------------        ----        ----        ------- ----- ------------
_HEADERd                            00000000    00000002 =           2. bytes (ABS,CON)

      Value  Global                              Global Defined In Module
      -----  --------------------------------   ------------------------
ASxxxx Linker V03.00/V05.40 + sdld,  page 152.
Hexadecimal  [32-Bits]

Area                                    Addr        Size        Decimal Bytes (Attributes)
--------------------------------        ----        ----        ------- ----- ------------
_HEADERe                            00000000    00000001 =           1. bytes (ABS,CON)

      Value  Global                              Global Defined In Module
      -----  --------------------------------   ------------------------
ASxxxx Linker V03.00/V05.40 + sdld,  page 153.
Hexadecimal  [32-Bits]

Area                                    Addr        Size        Decimal Bytes (Attributes)
--------------------------------        ----        ----        ------- ----- ------------
_HEADERf                            00000000    00000001 =           1. bytes (ABS,CON)

      Value  Global                              Global Defined In Module
      -----  --------------------------------   ------------------------
ASxxxx Linker V03.00/V05.40 + sdld,  page 154.
Hexadecimal  [32-Bits]

Area                                    Addr        Size        Decimal Bytes (Attributes)
--------------------------------        ----        ----        ------- ----- ------------
_HEADER10                           00000000    00000002 =           2. bytes (ABS,CON)

      Value  Global                              Global Defined In Module
      -----  --------------------------------   ------------------------
ASxxxx Linker V03.00/V05.40 + sdld,  page 155.
Hexadecimal  [32-Bits]

Area                                    Addr        Size        Decimal Bytes (Attributes)
--------------------------------        ----        ----        ------- ----- ------------
_HEADER11                           00000000    000000AB =         171. bytes (ABS,CON)

      Value  Global                              Global Defined In Module
      -----  --------------------------------   ------------------------
     00000150  .reset                             Runtime
     00000150  _reset                             Runtime
     00000157  .code_start                        Runtime
     000001B9  _exit                              Runtime
     000001BD  .wait_vbl_done                     Runtime
     000001BD  _vsync                             Runtime
     000001BD  _wait_vbl_done                     Runtime
     000001CD  .remove_VBL                        Runtime
     000001CD  _remove_VBL                        Runtime
     000001D0  .remove_int                        Runtime
     000001ED  .add_VBL                           Runtime
     000001ED  _add_VBL                           Runtime
     000001F0  .add_int                           Runtime

ASxxxx Linker V03.00/V05.40 + sdld,  page 156.
Hexadecimal  [32-Bits]

Area                                    Addr        Size        Decimal Bytes (Attributes)
--------------------------------        ----        ----        ------- ----- ------------
_HOME                               000037F9    0000012C =         300. bytes (REL,CON)

      Value  Global                              Global Defined In Module
      -----  --------------------------------   ------------------------
     000037F9  .memset_simple                     Runtime
     00003802  .memcpy_simple                     Runtime
     0000381F  .display_off                       Runtime
     0000381F  _display_off                       Runtime
     00003837  _set_tile_data                     
     0000383C  _set_bkg_data                      
     0000383C  _set_win_data                      
     00003844  _set_sprite_data                   
     00003874  .padup                             
     00003874  _waitpadup                         
     00003884  .jpad                              
     00003884  _joypad                            
     000038AC  _waitpad                           
     000038AD  .wait_pad                          
     000038B4  ___sdcc_call_hl                    call_hl
     000038B5  _set_bkg_tiles                     
     000038C9  .set_xy_wtt                        SetTileMap
     000038D2  .set_xy_btt                        SetTileMap
     000038E1  .set_xy_tt                         SetTileMap

ASxxxx Linker V03.00/V05.40 + sdld,  page 157.
Hexadecimal  [32-Bits]

Area                                    Addr        Size        Decimal Bytes (Attributes)
--------------------------------        ----        ----        ------- ----- ------------
_INITIALIZER                        00003925    00000436 =        1078. bytes (REL,CON)

      Value  Global                              Global Defined In Module
      -----  --------------------------------   ------------------------
     00003925  Faction$__xinit_current_directio   action
     00003926  Fall_scenes$__xinit_current_scen   all_scenes
     00003927  Fall_scenes$__xinit_prev_scene$0   all_scenes
     00003928  Fauto_clean$__xinit_auto_clean_t   auto_clean
     00003929  Fauto_clean$__xinit_auto_clean_r   auto_clean
     0000392A  Fbroom$__xinit_spr_broom_00$0_0$   broom
     0000393A  Fbroom$__xinit_spr_broom_01$0_0$   broom
     0000394A  Fcan_move$__xinit_can_move$0_0$0   can_move
     0000394E  Fentity$__xinit_next_entity_id$0   entity
     0000394F  Fexample_npc$__xinit_spr_example   example_npc
     0000395F  Fexample_npc$__xinit_spr_example   example_npc
     0000396F  Fexample_npc$__xinit_spr_example   example_npc
     0000397F  Fexample_npc$__xinit_spr_example   example_npc
     0000398F  Fextra_actors$__xinit_extra_acto   extra_actors
     00003990  Fgender_selection$__xinit_GENDER   gender_selection
     00003991  Finput$__xinit_keys$0_0$0          input
     00003992  Finput$__xinit_prev_keys$0_0$0     input
     00003993  Finventory$__xinit_inventory_act   inventory
     00003994  Finventory$__xinit_active_item$0   inventory
     00003995  Finventory$__xinit_selected_item   inventory
     00003996  Finventory$__xinit_closing$0_0$0   inventory
     00003997  Fleaf$__xinit_spr_leaf_00$0_0$0    leaf
     000039A7  Fload$__xinit_vram_next_index$0_   load
     000039A8  Fload$__xinit_vram_extra_start$0   load
     000039A9  Fmain_menu$__xinit_timer$0_0$0     main_menu
     000039AB  Fmain_menu$__xinit_rate$0_0$0      main_menu
     000039AC  Fmain_menu$__xinit_show_text$0_0   main_menu
     000039AD  Fmap_22$__xinit_npc_appeared$0_0   map_22
     000039AE  Fmartin_npc_0$__xinit_spr_Martin   martin_npc_0
     000039BE  Fmartin_npc_0$__xinit_spr_Martin   martin_npc_0
     000039CE  Fmartin_npc_0$__xinit_spr_Martin   martin_npc_0
     000039DE  Fmartin_npc_0$__xinit_spr_Martin   martin_npc_0
     000039EE  Fmartin_npc_1$__xinit_spr_Martin   martin_npc_1
     000039FE  Fmartin_npc_1$__xinit_spr_Martin   martin_npc_1
     00003A0E  Fmartin_npc_1$__xinit_spr_Martin   martin_npc_1
     00003A1E  Fmartin_npc_1$__xinit_spr_Martin   martin_npc_1
     00003A2E  Fmartin_npc_2$__xinit_spr_Martin   martin_npc_2
     00003A3E  Fmartin_npc_2$__xinit_spr_Martin   martin_npc_2
     00003A4E  Fmartin_npc_2$__xinit_spr_Martin   martin_npc_2
     00003A5E  Fmartin_npc_2$__xinit_spr_Martin   martin_npc_2
     00003A6E  Fmg_leaves_init$__xinit_SWEEPING   mg_leaves_init
     00003A6F  Fmg_leaves_init$__xinit_score$0_   mg_leaves_init
     00003A70  Fmg_leaves_init$__xinit_score_ca   mg_leaves_init
     00003A71  Fmg_leaves_init$__xinit_next_spa   mg_leaves_init
     00003A72  Fmg_leaves_update$__xinit_errors   mg_leaves_update
     00003A73  Fmg_leaves_update$__xinit_sweepe   mg_leaves_update
     00003A74  Fmg_load_screen$__xinit_mgl_curr   mg_load_screen
     00003A75  Fmg_load_screen$__xinit_mgl_targ   mg_load_screen
     00003A76  Fmg_load_screen$__xinit_mgl_acti   mg_load_screen
     00003A77  Fmg_load_screen$__xinit_mgl_init   mg_load_screen
ASxxxx Linker V03.00/V05.40 + sdld,  page 158.
Hexadecimal  [32-Bits]

Area                                    Addr        Size        Decimal Bytes (Attributes)
--------------------------------        ----        ----        ------- ----- ------------
_INITIALIZER                        00003925    00000436 =        1078. bytes (REL,CON)

      Value  Global                              Global Defined In Module
      -----  --------------------------------   ------------------------
     00003A78  Fmg_timer$__xinit_mgt_current_fr   mg_timer
     00003A7A  Fmg_timer$__xinit_mgt_target_fra   mg_timer
     00003A7C  Fmg_timer$__xinit_mgt_running$0_   mg_timer
     00003A7D  Fmg_timer$__xinit_mgt_alarm$0_0$   mg_timer
     00003A7E  Fminigames$__xinit_minigame_list   minigames
     00003A7F  Fmoney$__xinit_money$0_0$0         money
     00003A81  Frandom$__xinit_seed$0_0$0         random
     00003A83  Fscene_manager$__xinit_is_transi   scene_manager
     00003A84  Fspr_acorn$__xinit_spr_acorn$0_0   spr_acorn
     00003A94  Fspr_garbage$__xinit_spr_garbage   spr_garbage
     00003AA4  Fspr_InventoryArrow_idle$__xinit   spr_InventoryArrow_idle
     00003AB4  Fspr_leaf_a$__xinit_spr_leaf_a$0   spr_leaf_a
     00003AC4  Fspr_leaf_b$__xinit_spr_leaf_b$0   spr_leaf_b
     00003AD4  Fspr_Martin_down0$__xinit_spr_Ma   spr_Martin_down0
     00003B14  Fspr_Martin_down0$__xinit_spr_Ma   spr_Martin_down0
     00003B54  Fspr_Martin_down0$__xinit_spr_Ma   spr_Martin_down0
     00003B94  Fspr_Martin_down0$__xinit_spr_Ma   spr_Martin_down0
     00003BD4  Fspr_Player_down0$__xinit_spr_Pl   spr_Player_down0
     00003BE4  Fspr_Player_down0$__xinit_spr_Pl   spr_Player_down0
     00003BF4  Fspr_Player_down0$__xinit_spr_Pl   spr_Player_down0
     00003C04  Fspr_Player_down0$__xinit_spr_Pl   spr_Player_down0
     00003C14  Fspr_Player_down1$__xinit_spr_Pl   spr_Player_down1
     00003C24  Fspr_Player_down1$__xinit_spr_Pl   spr_Player_down1
     00003C34  Fspr_Player_down1$__xinit_spr_Pl   spr_Player_down1
     00003C44  Fspr_Player_down1$__xinit_spr_Pl   spr_Player_down1
     00003C54  Fspr_Player_down2$__xinit_spr_Pl   spr_Player_down2
     00003C64  Fspr_Player_down2$__xinit_spr_Pl   spr_Player_down2
     00003C74  Fspr_Player_down2$__xinit_spr_Pl   spr_Player_down2
     00003C84  Fspr_Player_down2$__xinit_spr_Pl   spr_Player_down2
     00003C94  Fspr_Player_up0$__xinit_spr_Play   spr_Player_up0
     00003CA4  Fspr_Player_up0$__xinit_spr_Play   spr_Player_up0
     00003CB4  Fspr_Player_up0$__xinit_spr_Play   spr_Player_up0
     00003CC4  Fspr_Player_up0$__xinit_spr_Play   spr_Player_up0
     00003CD4  Fspr_Player_up1$__xinit_spr_Play   spr_Player_up1
     00003CE4  Fspr_Player_up1$__xinit_spr_Play   spr_Player_up1
     00003CF4  Fspr_Player_up1$__xinit_spr_Play   spr_Player_up1
     00003D04  Fspr_Player_up1$__xinit_spr_Play   spr_Player_up1
     00003D14  Fspr_Player_up2$__xinit_spr_Play   spr_Player_up2
     00003D24  Fspr_Player_up2$__xinit_spr_Play   spr_Player_up2
     00003D34  Fspr_Player_up2$__xinit_spr_Play   spr_Player_up2
     00003D44  Fspr_Player_up2$__xinit_spr_Play   spr_Player_up2
     00003D54  Fstory$__xinit_story_lines_count   story
     00003D55  Fstory$__xinit_story_lines_rate$   story
     00003D56  Fstory$__xinit_story_lines_timer   story
     00003D57  Fstory$__xinit_actual_story_line   story
     00003D58  Fstory$__xinit_actual_line_char$   story
     00003D59  Fstory$__xinit_ended$0_0$0         story

ASxxxx Linker V03.00/V05.40 + sdld,  page 159.
Hexadecimal  [32-Bits]

Area                                    Addr        Size        Decimal Bytes (Attributes)
--------------------------------        ----        ----        ------- ----- ------------
_GSINIT                             00003D5B    0000000F =          15. bytes (REL,CON)

      Value  Global                              Global Defined In Module
      -----  --------------------------------   ------------------------
     00003D5B  gsinit                             Runtime

ASxxxx Linker V03.00/V05.40 + sdld,  page 160.
Hexadecimal  [32-Bits]

Area                                    Addr        Size        Decimal Bytes (Attributes)
--------------------------------        ----        ----        ------- ----- ------------
_GSFINAL                            00003D6A    00000001 =           1. bytes (REL,CON)

      Value  Global                              Global Defined In Module
      -----  --------------------------------   ------------------------
ASxxxx Linker V03.00/V05.40 + sdld,  page 161.
Hexadecimal  [32-Bits]

Area                                    Addr        Size        Decimal Bytes (Attributes)
--------------------------------        ----        ----        ------- ----- ------------
_DATA                               0000C0A0    0000045C =        1116. bytes (REL,CON)

      Value  Global                              Global Defined In Module
      -----  --------------------------------   ------------------------
     0000C0A0  __cpu                              Runtime
     0000C0A1  __is_GBA                           Runtime
     0000C0A2  .mode                              Runtime
     0000C0A3  .sys_time                          Runtime
     0000C0A3  _sys_time                          Runtime
     0000C0A5  .int_0x40                          Runtime
     0000C0B1  G$animation$0_0$0                  animation
     0000C0B1  _animation                         animation
     0000C208  G$extra_actors$0_0$0               extra_actors
     0000C208  _extra_actors                      extra_actors
     0000C244  G$GenderSelect$0_0$0               gender_select
     0000C244  _GenderSelect                      gender_select
     0000C269  _hUGE_current_wave                 hUGEDriver_obj
     0000C269  hUGE_current_wave                  hUGEDriver_obj
     0000C26A  _hUGE_mute_mask                    hUGEDriver_obj
     0000C2B1  G$inventory$0_0$0                  inventory
     0000C2B1  _inventory                         inventory
     0000C2B9  G$InventoryScene$0_0$0             inventory_scene
     0000C2B9  _InventoryScene                    inventory_scene
     0000C2C2  Lmain.main$game$1_1$182            main
     0000C2C6  G$MainMenu$0_0$0                   main_menu
     0000C2C6  _MainMenu                          main_menu
     0000C2CF  G$Map_00$0_0$0                     map_00
     0000C2CF  _Map_00                            map_00
     0000C2D8  G$Map_01$0_0$0                     map_01
     0000C2D8  _Map_01                            map_01
     0000C2E1  G$Map_02$0_0$0                     map_02
     0000C2E1  _Map_02                            map_02
     0000C2EA  G$Map_03$0_0$0                     map_03
     0000C2EA  _Map_03                            map_03
     0000C2F3  G$Map_10$0_0$0                     map_10
     0000C2F3  _Map_10                            map_10
     0000C2FC  G$Map_11$0_0$0                     map_11
     0000C2FC  _Map_11                            map_11
     0000C305  G$Map_12$0_0$0                     map_12
     0000C305  _Map_12                            map_12
     0000C30E  G$Map_13$0_0$0                     map_13
     0000C30E  _Map_13                            map_13
     0000C317  G$Map_20$0_0$0                     map_20
     0000C317  _Map_20                            map_20
     0000C320  G$Map_21$0_0$0                     map_21
     0000C320  _Map_21                            map_21
     0000C329  G$Map_22$0_0$0                     map_22
     0000C329  _Map_22                            map_22
     0000C332  G$Map_23$0_0$0                     map_23
     0000C332  _Map_23                            map_23
     0000C33B  G$Map_30$0_0$0                     map_30
     0000C33B  _Map_30                            map_30
     0000C344  G$Map_31$0_0$0                     map_31
     0000C344  _Map_31                            map_31
ASxxxx Linker V03.00/V05.40 + sdld,  page 162.
Hexadecimal  [32-Bits]

Area                                    Addr        Size        Decimal Bytes (Attributes)
--------------------------------        ----        ----        ------- ----- ------------
_DATA                               0000C0A0    0000045C =        1116. bytes (REL,CON)

      Value  Global                              Global Defined In Module
      -----  --------------------------------   ------------------------
     0000C34D  G$Map_32$0_0$0                     map_32
     0000C34D  _Map_32                            map_32
     0000C356  G$Map_33$0_0$0                     map_33
     0000C356  _Map_33                            map_33
     0000C35F  G$CurrentMapData$0_0$0             map_data
     0000C35F  _CurrentMapData                    map_data
     0000C375  G$Mg_Leaves$0_0$0                  mg_leaves
     0000C375  _Mg_Leaves                         mg_leaves
     0000C37E  G$actor_ids$0_0$0                  mg_leaves_init
     0000C37E  _actor_ids                         mg_leaves_init
     0000C383  G$actor_x$0_0$0                    mg_leaves_init
     0000C383  _actor_x                           mg_leaves_init
     0000C388  G$actor_y$0_0$0                    mg_leaves_init
     0000C388  _actor_y                           mg_leaves_init
     0000C38D  G$fixed_y$0_0$0                    mg_leaves_init
     0000C38D  _fixed_y                           mg_leaves_init
     0000C397  G$actor_active$0_0$0               mg_leaves_init
     0000C397  _actor_active                      mg_leaves_init
     0000C39C  G$actor_timer$0_0$0                mg_leaves_init
     0000C39C  _actor_timer                       mg_leaves_init
     0000C3A1  G$actor_spawner$0_0$0              mg_leaves_init
     0000C3A1  _actor_spawner                     mg_leaves_init
     0000C3AB  G$actor_spawn_x$0_0$0              mg_leaves_init
     0000C3AB  _actor_spawn_x                     mg_leaves_init
     0000C3B0  G$actor_state$0_0$0                mg_leaves_init
     0000C3B0  _actor_state                       mg_leaves_init
     0000C3B5  G$mg_leaves_DATA$0_0$0             mg_leaves_init
     0000C3B5  _mg_leaves_DATA                    mg_leaves_init
     0000C3B8  G$available_x$0_0$0                mg_leaves_init
     0000C3B8  _available_x                       mg_leaves_init
     0000C3BD  G$names$0_0$0                      name
     0000C3BD  _names                             name
     0000C403  G$npc_1$0_0$0                      npcs
     0000C403  _npc_1                             npcs
     0000C404  G$npc_2$0_0$0                      npcs
     0000C404  _npc_2                             npcs
     0000C405  G$option_actor$0_0$0               npcs
     0000C405  _option_actor                      npcs
     0000C406  G$humor_stats$0_0$0                npcs
     0000C406  _humor_stats                       npcs
     0000C40F  G$dialogue_phase$0_0$0             npcs
     0000C40F  _dialogue_phase                    npcs
     0000C418  G$CurrentNPCDialogues$0_0$0        npc_lines
     0000C418  _CurrentNPCDialogues               npc_lines
     0000C41C  G$player$0_0$0                     player
     0000C41C  _player                            player
     0000C41D  G$mg_player$0_0$0                  player
     0000C41D  _mg_player                         player
     0000C41E  G$player_animations$0_0$0          player
     0000C41E  _player_animations                 player
     0000C422  G$player_y_cache$0_0$0             player
ASxxxx Linker V03.00/V05.40 + sdld,  page 163.
Hexadecimal  [32-Bits]

Area                                    Addr        Size        Decimal Bytes (Attributes)
--------------------------------        ----        ----        ------- ----- ------------
_DATA                               0000C0A0    0000045C =        1116. bytes (REL,CON)

      Value  Global                              Global Defined In Module
      -----  --------------------------------   ------------------------
     0000C422  _player_y_cache                    player
     0000C423  G$position$0_0$0                   position
     0000C423  _position                          position
     0000C44D  G$cache$0_0$0                      position
     0000C44D  _cache                             position
     0000C47E  G$actual_tile$0_0$0                position
     0000C47E  _actual_tile                       position
     0000C482  G$render$0_0$0                     render
     0000C482  _render                            render
     0000C497  G$scene_manager$0_0$0              scene_manager
     0000C497  _scene_manager                     scene_manager
     0000C49B  G$speed$0_0$0                      speed
     0000C49B  _speed                             speed
     0000C4A9  G$Story$0_0$0                      story
     0000C4A9  _Story                             story
     0000C4B2  G$story_lines$0_0$0                story
     0000C4B2  _story_lines                       story
     0000C4FA  ___sdcc_heap_free                  malloc

ASxxxx Linker V03.00/V05.40 + sdld,  page 164.
Hexadecimal  [32-Bits]

Area                                    Addr        Size        Decimal Bytes (Attributes)
--------------------------------        ----        ----        ------- ----- ------------
_INITIALIZED                        0000C4FC    00000436 =        1078. bytes (REL,CON)

      Value  Global                              Global Defined In Module
      -----  --------------------------------   ------------------------
     0000C4FC  G$current_direction$0_0$0          action
     0000C4FC  _current_direction                 action
     0000C4FD  G$current_scene$0_0$0              all_scenes
     0000C4FD  _current_scene                     all_scenes
     0000C4FE  G$prev_scene$0_0$0                 all_scenes
     0000C4FE  _prev_scene                        all_scenes
     0000C4FF  G$auto_clean_timer$0_0$0           auto_clean
     0000C4FF  _auto_clean_timer                  auto_clean
     0000C500  G$auto_clean_rate$0_0$0            auto_clean
     0000C500  _auto_clean_rate                   auto_clean
     0000C501  G$spr_broom_00$0_0$0               broom
     0000C501  _spr_broom_00                      broom
     0000C511  G$spr_broom_01$0_0$0               broom
     0000C511  _spr_broom_01                      broom
     0000C521  G$can_move$0_0$0                   can_move
     0000C521  _can_move                          can_move
     0000C525  G$next_entity_id$0_0$0             entity
     0000C525  _next_entity_id                    entity
     0000C526  G$spr_example_NPC_00$0_0$0         example_npc
     0000C526  _spr_example_NPC_00                example_npc
     0000C536  G$spr_example_NPC_01$0_0$0         example_npc
     0000C536  _spr_example_NPC_01                example_npc
     0000C546  G$spr_example_NPC_10$0_0$0         example_npc
     0000C546  _spr_example_NPC_10                example_npc
     0000C556  G$spr_example_NPC_11$0_0$0         example_npc
     0000C556  _spr_example_NPC_11                example_npc
     0000C566  G$extra_actor_index$0_0$0          extra_actors
     0000C566  _extra_actor_index                 extra_actors
     0000C567  G$GENDER$0_0$0                     gender_selection
     0000C567  _GENDER                            gender_selection
     0000C568  G$keys$0_0$0                       input
     0000C568  _keys                              input
     0000C569  G$prev_keys$0_0$0                  input
     0000C569  _prev_keys                         input
     0000C56A  G$inventory_active$0_0$0           inventory
     0000C56A  _inventory_active                  inventory
     0000C56B  G$active_item$0_0$0                inventory
     0000C56B  _active_item                       inventory
     0000C56C  G$selected_item$0_0$0              inventory
     0000C56C  _selected_item                     inventory
     0000C56D  G$closing$0_0$0                    inventory
     0000C56D  _closing                           inventory
     0000C56E  G$spr_leaf_00$0_0$0                leaf
     0000C56E  _spr_leaf_00                       leaf
     0000C57E  G$vram_next_index$0_0$0            load
     0000C57E  _vram_next_index                   load
     0000C57F  G$vram_extra_start$0_0$0           load
     0000C57F  _vram_extra_start                  load
     0000C580  G$timer$0_0$0                      main_menu
     0000C580  _timer                             main_menu
ASxxxx Linker V03.00/V05.40 + sdld,  page 165.
Hexadecimal  [32-Bits]

Area                                    Addr        Size        Decimal Bytes (Attributes)
--------------------------------        ----        ----        ------- ----- ------------
_INITIALIZED                        0000C4FC    00000436 =        1078. bytes (REL,CON)

      Value  Global                              Global Defined In Module
      -----  --------------------------------   ------------------------
     0000C582  G$rate$0_0$0                       main_menu
     0000C582  _rate                              main_menu
     0000C583  G$show_text$0_0$0                  main_menu
     0000C583  _show_text                         main_menu
     0000C584  G$npc_appeared$0_0$0               map_22
     0000C584  _npc_appeared                      map_22
     0000C585  G$spr_Martin_down00$0_0$0          martin_npc_0
     0000C585  _spr_Martin_down00                 martin_npc_0
     0000C595  G$spr_Martin_down01$0_0$0          martin_npc_0
     0000C595  _spr_Martin_down01                 martin_npc_0
     0000C5A5  G$spr_Martin_down02$0_0$0          martin_npc_0
     0000C5A5  _spr_Martin_down02                 martin_npc_0
     0000C5B5  G$spr_Martin_down03$0_0$0          martin_npc_0
     0000C5B5  _spr_Martin_down03                 martin_npc_0
     0000C5C5  G$spr_Martin_down10$0_0$0          martin_npc_1
     0000C5C5  _spr_Martin_down10                 martin_npc_1
     0000C5D5  G$spr_Martin_down11$0_0$0          martin_npc_1
     0000C5D5  _spr_Martin_down11                 martin_npc_1
     0000C5E5  G$spr_Martin_down12$0_0$0          martin_npc_1
     0000C5E5  _spr_Martin_down12                 martin_npc_1
     0000C5F5  G$spr_Martin_down13$0_0$0          martin_npc_1
     0000C5F5  _spr_Martin_down13                 martin_npc_1
     0000C605  G$spr_Martin_down20$0_0$0          martin_npc_2
     0000C605  _spr_Martin_down20                 martin_npc_2
     0000C615  G$spr_Martin_down21$0_0$0          martin_npc_2
     0000C615  _spr_Martin_down21                 martin_npc_2
     0000C625  G$spr_Martin_down22$0_0$0          martin_npc_2
     0000C625  _spr_Martin_down22                 martin_npc_2
     0000C635  G$spr_Martin_down23$0_0$0          martin_npc_2
     0000C635  _spr_Martin_down23                 martin_npc_2
     0000C645  G$SWEEPING_FLAG$0_0$0              mg_leaves_init
     0000C645  _SWEEPING_FLAG                     mg_leaves_init
     0000C646  G$score$0_0$0                      mg_leaves_init
     0000C646  _score                             mg_leaves_init
     0000C647  G$score_cache$0_0$0                mg_leaves_init
     0000C647  _score_cache                       mg_leaves_init
     0000C648  G$next_spawn_idx$0_0$0             mg_leaves_init
     0000C648  _next_spawn_idx                    mg_leaves_init
     0000C649  G$errors$0_0$0                     mg_leaves_update
     0000C649  _errors                            mg_leaves_update
     0000C64A  G$sweeped$0_0$0                    mg_leaves_update
     0000C64A  _sweeped                           mg_leaves_update
     0000C64B  G$mgl_current_frame$0_0$0          mg_load_screen
     0000C64B  _mgl_current_frame                 mg_load_screen
     0000C64C  G$mgl_target_frame$0_0$0           mg_load_screen
     0000C64C  _mgl_target_frame                  mg_load_screen
     0000C64D  G$mgl_active$0_0$0                 mg_load_screen
     0000C64D  _mgl_active                        mg_load_screen
     0000C64E  G$mgl_initialized$0_0$0            mg_load_screen
     0000C64E  _mgl_initialized                   mg_load_screen
     0000C64F  G$mgt_current_frame$0_0$0          mg_timer
ASxxxx Linker V03.00/V05.40 + sdld,  page 166.
Hexadecimal  [32-Bits]

Area                                    Addr        Size        Decimal Bytes (Attributes)
--------------------------------        ----        ----        ------- ----- ------------
_INITIALIZED                        0000C4FC    00000436 =        1078. bytes (REL,CON)

      Value  Global                              Global Defined In Module
      -----  --------------------------------   ------------------------
     0000C64F  _mgt_current_frame                 mg_timer
     0000C651  G$mgt_target_frame$0_0$0           mg_timer
     0000C651  _mgt_target_frame                  mg_timer
     0000C653  G$mgt_running$0_0$0                mg_timer
     0000C653  _mgt_running                       mg_timer
     0000C654  G$mgt_alarm$0_0$0                  mg_timer
     0000C654  _mgt_alarm                         mg_timer
     0000C655  G$minigame_list$0_0$0              minigames
     0000C655  _minigame_list                     minigames
     0000C656  G$money$0_0$0                      money
     0000C656  _money                             money
     0000C658  G$seed$0_0$0                       random
     0000C658  _seed                              random
     0000C65A  G$is_transitioning$0_0$0           scene_manager
     0000C65A  _is_transitioning                  scene_manager
     0000C65B  G$spr_acorn$0_0$0                  spr_acorn
     0000C65B  _spr_acorn                         spr_acorn
     0000C66B  G$spr_garbage_00$0_0$0             spr_garbage
     0000C66B  _spr_garbage_00                    spr_garbage
     0000C67B  G$spr_InventoryArrow_idle$0_0$0    spr_InventoryArrow_idle
     0000C67B  _spr_InventoryArrow_idle           spr_InventoryArrow_idle
     0000C68B  G$spr_leaf_a$0_0$0                 spr_leaf_a
     0000C68B  _spr_leaf_a                        spr_leaf_a
     0000C69B  G$spr_leaf_b$0_0$0                 spr_leaf_b
     0000C69B  _spr_leaf_b                        spr_leaf_b
     0000C6AB  G$spr_Martin_down0TLE0$0_0$0       spr_Martin_down0
     0000C6AB  _spr_Martin_down0TLE0              spr_Martin_down0
     0000C6EB  G$spr_Martin_down0TLE1$0_0$0       spr_Martin_down0
     0000C6EB  _spr_Martin_down0TLE1              spr_Martin_down0
     0000C72B  G$spr_Martin_down0TLE2$0_0$0       spr_Martin_down0
     0000C72B  _spr_Martin_down0TLE2              spr_Martin_down0
     0000C76B  G$spr_Martin_down0TLE3$0_0$0       spr_Martin_down0
     0000C76B  _spr_Martin_down0TLE3              spr_Martin_down0
     0000C7AB  G$spr_Player_down0_00$0_0$0        spr_Player_down0
     0000C7AB  _spr_Player_down0_00               spr_Player_down0
     0000C7BB  G$spr_Player_down0_10$0_0$0        spr_Player_down0
     0000C7BB  _spr_Player_down0_10               spr_Player_down0
     0000C7CB  G$spr_Player_down0_01$0_0$0        spr_Player_down0
     0000C7CB  _spr_Player_down0_01               spr_Player_down0
     0000C7DB  G$spr_Player_down0_11$0_0$0        spr_Player_down0
     0000C7DB  _spr_Player_down0_11               spr_Player_down0
     0000C7EB  G$spr_Player_down1_00$0_0$0        spr_Player_down1
     0000C7EB  _spr_Player_down1_00               spr_Player_down1
     0000C7FB  G$spr_Player_down1_10$0_0$0        spr_Player_down1
     0000C7FB  _spr_Player_down1_10               spr_Player_down1
     0000C80B  G$spr_Player_down1_01$0_0$0        spr_Player_down1
     0000C80B  _spr_Player_down1_01               spr_Player_down1
     0000C81B  G$spr_Player_down1_11$0_0$0        spr_Player_down1
     0000C81B  _spr_Player_down1_11               spr_Player_down1
     0000C82B  G$spr_Player_down2_00$0_0$0        spr_Player_down2
     0000C82B  _spr_Player_down2_00               spr_Player_down2
ASxxxx Linker V03.00/V05.40 + sdld,  page 167.
Hexadecimal  [32-Bits]

Area                                    Addr        Size        Decimal Bytes (Attributes)
--------------------------------        ----        ----        ------- ----- ------------
_INITIALIZED                        0000C4FC    00000436 =        1078. bytes (REL,CON)

      Value  Global                              Global Defined In Module
      -----  --------------------------------   ------------------------
     0000C83B  G$spr_Player_down2_10$0_0$0        spr_Player_down2
     0000C83B  _spr_Player_down2_10               spr_Player_down2
     0000C84B  G$spr_Player_down2_01$0_0$0        spr_Player_down2
     0000C84B  _spr_Player_down2_01               spr_Player_down2
     0000C85B  G$spr_Player_down2_11$0_0$0        spr_Player_down2
     0000C85B  _spr_Player_down2_11               spr_Player_down2
     0000C86B  G$spr_Player_up0_00$0_0$0          spr_Player_up0
     0000C86B  _spr_Player_up0_00                 spr_Player_up0
     0000C87B  G$spr_Player_up0_10$0_0$0          spr_Player_up0
     0000C87B  _spr_Player_up0_10                 spr_Player_up0
     0000C88B  G$spr_Player_up0_01$0_0$0          spr_Player_up0
     0000C88B  _spr_Player_up0_01                 spr_Player_up0
     0000C89B  G$spr_Player_up0_11$0_0$0          spr_Player_up0
     0000C89B  _spr_Player_up0_11                 spr_Player_up0
     0000C8AB  G$spr_Player_up1_00$0_0$0          spr_Player_up1
     0000C8AB  _spr_Player_up1_00                 spr_Player_up1
     0000C8BB  G$spr_Player_up1_10$0_0$0          spr_Player_up1
     0000C8BB  _spr_Player_up1_10                 spr_Player_up1
     0000C8CB  G$spr_Player_up1_01$0_0$0          spr_Player_up1
     0000C8CB  _spr_Player_up1_01                 spr_Player_up1
     0000C8DB  G$spr_Player_up1_11$0_0$0          spr_Player_up1
     0000C8DB  _spr_Player_up1_11                 spr_Player_up1
     0000C8EB  G$spr_Player_up2_00$0_0$0          spr_Player_up2
     0000C8EB  _spr_Player_up2_00                 spr_Player_up2
     0000C8FB  G$spr_Player_up2_10$0_0$0          spr_Player_up2
     0000C8FB  _spr_Player_up2_10                 spr_Player_up2
     0000C90B  G$spr_Player_up2_01$0_0$0          spr_Player_up2
     0000C90B  _spr_Player_up2_01                 spr_Player_up2
     0000C91B  G$spr_Player_up2_11$0_0$0          spr_Player_up2
     0000C91B  _spr_Player_up2_11                 spr_Player_up2
     0000C92B  G$story_lines_count$0_0$0          story
     0000C92B  _story_lines_count                 story
     0000C92C  G$story_lines_rate$0_0$0           story
     0000C92C  _story_lines_rate                  story
     0000C92D  G$story_lines_timer$0_0$0          story
     0000C92D  _story_lines_timer                 story
     0000C92E  G$actual_story_line$0_0$0          story
     0000C92E  _actual_story_line                 story
     0000C92F  G$actual_line_char$0_0$0           story
     0000C92F  _actual_line_char                  story
     0000C930  G$ended$0_0$0                      story
     0000C930  _ended                             story
     0000C931  __map_tile_offset                  SetTileMap
ASxxxx Linker V03.00/V05.40 + sdld,  page 168.
Hexadecimal  [32-Bits]

Area                                    Addr        Size        Decimal Bytes (Attributes)
--------------------------------        ----        ----        ------- ----- ------------
_HEAP                               0000C932    000007FF =        2047. bytes (REL,CON)

      Value  Global                              Global Defined In Module
      -----  --------------------------------   ------------------------
     0000C932  ___sdcc_heap                       

ASxxxx Linker V03.00/V05.40 + sdld,  page 169.
Hexadecimal  [32-Bits]

Area                                    Addr        Size        Decimal Bytes (Attributes)
--------------------------------        ----        ----        ------- ----- ------------
_HEAP_END                           0000D131    00000001 =           1. bytes (REL,CON)

      Value  Global                              Global Defined In Module
      -----  --------------------------------   ------------------------
     0000D131  ___sdcc_heap_end                   

ASxxxx Linker V03.00/V05.40 + sdld,  page 170.
Hexadecimal  [32-Bits]

Area                                    Addr        Size        Decimal Bytes (Attributes)
--------------------------------        ----        ----        ------- ----- ------------
_HRAM                               0000FF80    00000013 =          19. bytes (REL,CON)

      Value  Global                              Global Defined In Module
      -----  --------------------------------   ------------------------
     0000FF80  .refresh_OAM                       Runtime
     0000FF90  __current_bank                     Runtime
     0000FF91  __vbl_done                         Runtime
     0000FF92  __shadow_OAM_base                  Runtime

ASxxxx Linker V03.00/V05.40 + sdld,  page 171.
Hexadecimal  [32-Bits]

Area                                    Addr        Size        Decimal Bytes (Attributes)
--------------------------------        ----        ----        ------- ----- ------------
_CODE_3                             00034000    0000371C =       14108. bytes (REL,CON)

      Value  Global                              Global Defined In Module
      -----  --------------------------------   ------------------------
     00034000  G$bkg_leaves_example_tileset$0_0   bkg_leaves_example
     00034000  _bkg_leaves_example_tileset        bkg_leaves_example
     00034420  G$bkg_leaves_example_tilemap$0_0   bkg_leaves_example
     00034420  _bkg_leaves_example_tilemap        bkg_leaves_example
     00034588  G$bkg_main_menu_tileset$0_0$0      bkg_MainMenu
     00034588  _bkg_main_menu_tileset             bkg_MainMenu
     00034848  G$bkg_main_menu_tilemap$0_0$0      bkg_MainMenu
     00034848  _bkg_main_menu_tilemap             bkg_MainMenu
     000349B0  G$gender_select_tilemap$0_0$0      gender_select_tilemap
     000349B0  _gender_select_tilemap             gender_select_tilemap
     00034B18  G$gender_select_tileset$0_0$0      gender_select_tileset
     00034B18  _gender_select_tileset             gender_select_tileset
     00034E08  G$inventory_bkg_tileset$0_0$0      inventory_bkg
     00034E08  _inventory_bkg_tileset             inventory_bkg
     00035148  G$inventory_bkg_tilemap$0_0$0      inventory_bkg
     00035148  _inventory_bkg_tilemap             inventory_bkg
     000352B0  G$map_2_0_tileset$0_0$0            map_2_0
     000352B0  _map_2_0_tileset                   map_2_0
     00035490  G$map_2_0_tilemap$0_0$0            map_2_0
     00035490  _map_2_0_tilemap                   map_2_0
     000355F8  G$map_2_1_tileset$0_0$0            map_2_1
     000355F8  _map_2_1_tileset                   map_2_1
     00035BC8  G$map_2_1_tilemap$0_0$0            map_2_1
     00035BC8  _map_2_1_tilemap                   map_2_1
     00035D30  G$map_2_2_tileset$0_0$0            map_2_2
     00035D30  _map_2_2_tileset                   map_2_2
     000363A0  G$map_2_2_tilemap$0_0$0            map_2_2
     000363A0  _map_2_2_tilemap                   map_2_2
     00036508  G$map_2_3_tileset$0_0$0            map_2_3
     00036508  _map_2_3_tileset                   map_2_3
     000366E8  G$map_2_3_tilemap$0_0$0            map_2_3
     000366E8  _map_2_3_tilemap                   map_2_3
     00036850  G$map_20_collision$0_0$0           map_20_collision
     00036850  _map_20_collision                  map_20_collision
     000369B8  A$map_20_create$57                 map_20_create
     000369B8  C$map_20_create.c$6$0_0$32         map_20_create
     000369B8  C$map_20_create.c$8$1_0$32         map_20_create
     000369B8  G$Map_20_Create$0$0                map_20_create
     000369B8  _Map_20_Create                     map_20_create
     000369BB  A$map_20_create$58                 map_20_create
     000369BD  A$map_20_create$59                 map_20_create
     000369BE  A$map_20_create$60                 map_20_create
     000369C0  A$map_20_create$64                 map_20_create
     000369C0  C$map_20_create.c$9$1_0$32         map_20_create
     000369C1  A$map_20_create$65                 map_20_create
     000369C3  A$map_20_create$66                 map_20_create
     000369C4  A$map_20_create$67                 map_20_create
     000369C6  A$map_20_create$71                 map_20_create
     000369C6  C$map_20_create.c$10$1_0$32        map_20_create
     000369C9  A$map_20_create$72                 map_20_create
ASxxxx Linker V03.00/V05.40 + sdld,  page 172.
Hexadecimal  [32-Bits]

Area                                    Addr        Size        Decimal Bytes (Attributes)
--------------------------------        ----        ----        ------- ----- ------------
_CODE_3                             00034000    0000371C =       14108. bytes (REL,CON)

      Value  Global                              Global Defined In Module
      -----  --------------------------------   ------------------------
     000369CB  A$map_20_create$76                 map_20_create
     000369CB  C$map_20_create.c$11$1_0$32        map_20_create
     000369CE  A$map_20_create$77                 map_20_create
     000369CF  A$map_20_create$78                 map_20_create
     000369D0  A$map_20_create$79                 map_20_create
     000369D1  A$map_20_create$87                 map_20_create
     000369D1  C$map_20_create.c$12$1_0$32        map_20_create
     000369D1  XG$Map_20_Create$0$0               map_20_create
     000369D2  A$map_20_init$59                   map_20_init
     000369D2  C$map_20_init.c$15$0_0$170         map_20_init
     000369D2  C$map_20_init.c$17$1_0$170         map_20_init
     000369D2  G$Map_20_Init$0$0                  map_20_init
     000369D2  _Map_20_Init                       map_20_init
     000369D3  A$map_20_init$60                   map_20_init
     000369D6  A$map_20_init$61                   map_20_init
     000369D7  A$map_20_init$65                   map_20_init
     000369D7  C$map_20_init.c$19$1_0$170         map_20_init
     000369DA  A$map_20_init$66                   map_20_init
     000369DD  A$map_20_init$67                   map_20_init
     000369DE  A$map_20_init$71                   map_20_init
     000369DE  C$map_20_init.c$20$1_0$170         map_20_init
     000369E1  A$map_20_init$72                   map_20_init
     000369E3  A$map_20_init$73                   map_20_init
     000369E4  A$map_20_init$74                   map_20_init
     000369E6  A$map_20_init$78                   map_20_init
     000369E6  C$map_20_init.c$21$1_0$170         map_20_init
     000369E9  A$map_20_init$79                   map_20_init
     000369EB  A$map_20_init$83                   map_20_init
     000369EB  C$map_20_init.c$23$1_0$170         map_20_init
     000369EE  A$map_20_init$84                   map_20_init
     000369F0  A$map_20_init$88                   map_20_init
     000369F0  C$map_20_init.c$24$1_0$170         map_20_init
     000369F3  A$map_20_init$89                   map_20_init
     000369F5  A$map_20_init$93                   map_20_init
     000369F5  C$map_20_init.c$26$1_0$170         map_20_init
     000369F8  A$map_20_init$94                   map_20_init
     000369FA  A$map_20_init$98                   map_20_init
     000369FA  C$map_20_init.c$27$1_0$170         map_20_init
     000369FD  A$map_20_init$99                   map_20_init
     000369FF  A$map_20_init$103                  map_20_init
     000369FF  C$map_20_init.c$28$1_0$170         map_20_init
     00036A02  A$map_20_init$104                  map_20_init
     00036A04  A$map_20_init$108                  map_20_init
     00036A04  C$map_20_init.c$29$1_0$170         map_20_init
     00036A07  A$map_20_init$109                  map_20_init
     00036A09  A$map_20_init$113                  map_20_init
     00036A09  C$map_20_init.c$31$1_0$170         map_20_init
     00036A0C  A$map_20_init$114                  map_20_init
     00036A0D  A$map_20_init$115                  map_20_init
     00036A0F  A$map_20_init$116                  map_20_init
     00036A10  A$map_20_init$117                  map_20_init
ASxxxx Linker V03.00/V05.40 + sdld,  page 173.
Hexadecimal  [32-Bits]

Area                                    Addr        Size        Decimal Bytes (Attributes)
--------------------------------        ----        ----        ------- ----- ------------
_CODE_3                             00034000    0000371C =       14108. bytes (REL,CON)

      Value  Global                              Global Defined In Module
      -----  --------------------------------   ------------------------
     00036A12  A$map_20_init$121                  map_20_init
     00036A12  C$map_20_init.c$33$1_0$170         map_20_init
     00036A15  A$map_20_init$122                  map_20_init
     00036A16  A$map_20_init$123                  map_20_init
     00036A19  A$map_20_init$124                  map_20_init
     00036A1A  A$map_20_init$125                  map_20_init
     00036A1D  A$map_20_init$126                  map_20_init
     00036A1F  A$map_20_init$130                  map_20_init
     00036A1F  C$map_20_init.c$34$1_0$170         map_20_init
     00036A22  A$map_20_init$131                  map_20_init
     00036A23  A$map_20_init$132                  map_20_init
     00036A26  A$map_20_init$133                  map_20_init
     00036A27  A$map_20_init$134                  map_20_init
     00036A28  A$map_20_init$135                  map_20_init
     00036A29  A$map_20_init$136                  map_20_init
     00036A2A  A$map_20_init$137                  map_20_init
     00036A2D  A$map_20_init$138                  map_20_init
     00036A2F  A$map_20_init$142                  map_20_init
     00036A2F  C$map_20_init.c$36$1_0$170         map_20_init
     00036A32  A$map_20_init$143                  map_20_init
     00036A35  A$map_20_init$147                  map_20_init
     00036A35  C$map_20_init.c$38$1_0$170         map_20_init
     00036A38  A$map_20_init$148                  map_20_init
     00036A3A  A$map_20_init$152                  map_20_init
     00036A3A  C$map_20_init.c$39$1_0$170         map_20_init
     00036A3D  A$map_20_init$153                  map_20_init
     00036A3F  A$map_20_init$161                  map_20_init
     00036A3F  C$map_20_init.c$40$1_0$170         map_20_init
     00036A3F  XG$Map_20_Init$0$0                 map_20_init
     00036A40  A$map_20_update$60                 map_20_update
     00036A40  C$map_20_update.c$12$0_0$168       map_20_update
     00036A40  C$map_20_update.c$13$1_0$168       map_20_update
     00036A40  G$Map_20_Update$0$0                map_20_update
     00036A40  _Map_20_Update                     map_20_update
     00036A41  A$map_20_update$61                 map_20_update
     00036A44  A$map_20_update$65                 map_20_update
     00036A44  C$map_20_update.c$15$1_0$168       map_20_update
     00036A47  A$map_20_update$66                 map_20_update
     00036A48  A$map_20_update$70                 map_20_update
     00036A48  C$map_20_update.c$17$1_1$169       map_20_update
     00036A4B  A$map_20_update$71                 map_20_update
     00036A4C  A$map_20_update$72                 map_20_update
     00036A4D  A$map_20_update$73                 map_20_update
     00036A4E  A$map_20_update$74                 map_20_update
     00036A4F  A$map_20_update$75                 map_20_update
     00036A50  A$map_20_update$79                 map_20_update
     00036A50  C$map_20_update.c$19$1_1$169       map_20_update
     00036A51  A$map_20_update$80                 map_20_update
     00036A52  A$map_20_update$81                 map_20_update
     00036A55  A$map_20_update$82                 map_20_update
     00036A58  A$map_20_update$83                 map_20_update
ASxxxx Linker V03.00/V05.40 + sdld,  page 174.
Hexadecimal  [32-Bits]

Area                                    Addr        Size        Decimal Bytes (Attributes)
--------------------------------        ----        ----        ------- ----- ------------
_CODE_3                             00034000    0000371C =       14108. bytes (REL,CON)

      Value  Global                              Global Defined In Module
      -----  --------------------------------   ------------------------
     00036A59  A$map_20_update$84                 map_20_update
     00036A5A  A$map_20_update$88                 map_20_update
     00036A5A  C$map_20_update.c$20$1_1$169       map_20_update
     00036A5B  A$map_20_update$89                 map_20_update
     00036A5C  A$map_20_update$90                 map_20_update
     00036A5D  A$map_20_update$91                 map_20_update
     00036A5E  A$map_20_update$92                 map_20_update
     00036A5F  A$map_20_update$93                 map_20_update
     00036A62  A$map_20_update$97                 map_20_update
     00036A62  C$map_20_update.c$22$1_1$169       map_20_update
     00036A63  A$map_20_update$108                map_20_update
     00036A63  C$map_20_update.c$24$1_1$169       map_20_update
     00036A63  C$map_20_update.c$25$1_1$168       map_20_update
     00036A63  XG$Map_20_Update$0$0               map_20_update
     00036A66  G$map_21_collision$0_0$0           map_21_collision
     00036A66  _map_21_collision                  map_21_collision
     00036BCE  A$map_21_create$57                 map_21_create
     00036BCE  C$map_21_create.c$6$0_0$32         map_21_create
     00036BCE  C$map_21_create.c$8$1_0$32         map_21_create
     00036BCE  G$Map_21_Create$0$0                map_21_create
     00036BCE  _Map_21_Create                     map_21_create
     00036BD1  A$map_21_create$58                 map_21_create
     00036BD3  A$map_21_create$59                 map_21_create
     00036BD4  A$map_21_create$60                 map_21_create
     00036BD6  A$map_21_create$64                 map_21_create
     00036BD6  C$map_21_create.c$9$1_0$32         map_21_create
     00036BD7  A$map_21_create$65                 map_21_create
     00036BD9  A$map_21_create$66                 map_21_create
     00036BDA  A$map_21_create$70                 map_21_create
     00036BDA  C$map_21_create.c$10$1_0$32        map_21_create
     00036BDC  A$map_21_create$71                 map_21_create
     00036BDD  A$map_21_create$72                 map_21_create
     00036BDE  A$map_21_create$73                 map_21_create
     00036BDF  A$map_21_create$74                 map_21_create
     00036BE0  A$map_21_create$78                 map_21_create
     00036BE0  C$map_21_create.c$11$1_0$32        map_21_create
     00036BE3  A$map_21_create$79                 map_21_create
     00036BE5  A$map_21_create$83                 map_21_create
     00036BE5  C$map_21_create.c$12$1_0$32        map_21_create
     00036BE8  A$map_21_create$84                 map_21_create
     00036BE9  A$map_21_create$85                 map_21_create
     00036BEA  A$map_21_create$86                 map_21_create
     00036BEB  A$map_21_create$94                 map_21_create
     00036BEB  C$map_21_create.c$13$1_0$32        map_21_create
     00036BEB  XG$Map_21_Create$0$0               map_21_create
     00036BEC  A$map_21_init$59                   map_21_init
     00036BEC  C$map_21_init.c$15$0_0$170         map_21_init
     00036BEC  C$map_21_init.c$17$1_0$170         map_21_init
     00036BEC  G$Map_21_Init$0$0                  map_21_init
     00036BEC  _Map_21_Init                       map_21_init
     00036BED  A$map_21_init$60                   map_21_init
ASxxxx Linker V03.00/V05.40 + sdld,  page 175.
Hexadecimal  [32-Bits]

Area                                    Addr        Size        Decimal Bytes (Attributes)
--------------------------------        ----        ----        ------- ----- ------------
_CODE_3                             00034000    0000371C =       14108. bytes (REL,CON)

      Value  Global                              Global Defined In Module
      -----  --------------------------------   ------------------------
     00036BF0  A$map_21_init$61                   map_21_init
     00036BF1  A$map_21_init$65                   map_21_init
     00036BF1  C$map_21_init.c$19$1_0$170         map_21_init
     00036BF4  A$map_21_init$66                   map_21_init
     00036BF7  A$map_21_init$67                   map_21_init
     00036BF8  A$map_21_init$71                   map_21_init
     00036BF8  C$map_21_init.c$20$1_0$170         map_21_init
     00036BFB  A$map_21_init$72                   map_21_init
     00036BFD  A$map_21_init$73                   map_21_init
     00036BFE  A$map_21_init$74                   map_21_init
     00036C00  A$map_21_init$78                   map_21_init
     00036C00  C$map_21_init.c$21$1_0$170         map_21_init
     00036C03  A$map_21_init$79                   map_21_init
     00036C05  A$map_21_init$83                   map_21_init
     00036C05  C$map_21_init.c$23$1_0$170         map_21_init
     00036C08  A$map_21_init$84                   map_21_init
     00036C0A  A$map_21_init$88                   map_21_init
     00036C0A  C$map_21_init.c$24$1_0$170         map_21_init
     00036C0D  A$map_21_init$89                   map_21_init
     00036C0F  A$map_21_init$93                   map_21_init
     00036C0F  C$map_21_init.c$26$1_0$170         map_21_init
     00036C12  A$map_21_init$94                   map_21_init
     00036C14  A$map_21_init$98                   map_21_init
     00036C14  C$map_21_init.c$27$1_0$170         map_21_init
     00036C17  A$map_21_init$99                   map_21_init
     00036C19  A$map_21_init$103                  map_21_init
     00036C19  C$map_21_init.c$28$1_0$170         map_21_init
     00036C1C  A$map_21_init$104                  map_21_init
     00036C1E  A$map_21_init$108                  map_21_init
     00036C1E  C$map_21_init.c$29$1_0$170         map_21_init
     00036C21  A$map_21_init$109                  map_21_init
     00036C23  A$map_21_init$113                  map_21_init
     00036C23  C$map_21_init.c$31$1_0$170         map_21_init
     00036C26  A$map_21_init$114                  map_21_init
     00036C27  A$map_21_init$115                  map_21_init
     00036C29  A$map_21_init$116                  map_21_init
     00036C2A  A$map_21_init$117                  map_21_init
     00036C2C  A$map_21_init$121                  map_21_init
     00036C2C  C$map_21_init.c$33$1_0$170         map_21_init
     00036C2F  A$map_21_init$122                  map_21_init
     00036C30  A$map_21_init$123                  map_21_init
     00036C33  A$map_21_init$124                  map_21_init
     00036C34  A$map_21_init$125                  map_21_init
     00036C37  A$map_21_init$126                  map_21_init
     00036C39  A$map_21_init$130                  map_21_init
     00036C39  C$map_21_init.c$34$1_0$170         map_21_init
     00036C3C  A$map_21_init$131                  map_21_init
     00036C3D  A$map_21_init$132                  map_21_init
     00036C40  A$map_21_init$133                  map_21_init
     00036C41  A$map_21_init$134                  map_21_init
     00036C42  A$map_21_init$135                  map_21_init
ASxxxx Linker V03.00/V05.40 + sdld,  page 176.
Hexadecimal  [32-Bits]

Area                                    Addr        Size        Decimal Bytes (Attributes)
--------------------------------        ----        ----        ------- ----- ------------
_CODE_3                             00034000    0000371C =       14108. bytes (REL,CON)

      Value  Global                              Global Defined In Module
      -----  --------------------------------   ------------------------
     00036C43  A$map_21_init$136                  map_21_init
     00036C44  A$map_21_init$137                  map_21_init
     00036C47  A$map_21_init$138                  map_21_init
     00036C49  A$map_21_init$142                  map_21_init
     00036C49  C$map_21_init.c$36$1_0$170         map_21_init
     00036C4C  A$map_21_init$143                  map_21_init
     00036C4F  A$map_21_init$147                  map_21_init
     00036C4F  C$map_21_init.c$38$1_0$170         map_21_init
     00036C52  A$map_21_init$148                  map_21_init
     00036C54  A$map_21_init$152                  map_21_init
     00036C54  C$map_21_init.c$39$1_0$170         map_21_init
     00036C57  A$map_21_init$153                  map_21_init
     00036C59  A$map_21_init$161                  map_21_init
     00036C59  C$map_21_init.c$40$1_0$170         map_21_init
     00036C59  XG$Map_21_Init$0$0                 map_21_init
     00036C5A  A$map_21_update$60                 map_21_update
     00036C5A  C$map_21_update.c$12$0_0$168       map_21_update
     00036C5A  C$map_21_update.c$13$1_0$168       map_21_update
     00036C5A  G$Map_21_Update$0$0                map_21_update
     00036C5A  _Map_21_Update                     map_21_update
     00036C5B  A$map_21_update$61                 map_21_update
     00036C5E  A$map_21_update$65                 map_21_update
     00036C5E  C$map_21_update.c$15$1_0$168       map_21_update
     00036C61  A$map_21_update$66                 map_21_update
     00036C62  A$map_21_update$70                 map_21_update
     00036C62  C$map_21_update.c$17$1_1$169       map_21_update
     00036C65  A$map_21_update$71                 map_21_update
     00036C66  A$map_21_update$72                 map_21_update
     00036C67  A$map_21_update$73                 map_21_update
     00036C68  A$map_21_update$74                 map_21_update
     00036C69  A$map_21_update$75                 map_21_update
     00036C6A  A$map_21_update$79                 map_21_update
     00036C6A  C$map_21_update.c$19$1_1$169       map_21_update
     00036C6B  A$map_21_update$80                 map_21_update
     00036C6C  A$map_21_update$81                 map_21_update
     00036C6F  A$map_21_update$82                 map_21_update
     00036C72  A$map_21_update$83                 map_21_update
     00036C73  A$map_21_update$84                 map_21_update
     00036C74  A$map_21_update$88                 map_21_update
     00036C74  C$map_21_update.c$20$1_1$169       map_21_update
     00036C75  A$map_21_update$89                 map_21_update
     00036C76  A$map_21_update$90                 map_21_update
     00036C77  A$map_21_update$91                 map_21_update
     00036C78  A$map_21_update$92                 map_21_update
     00036C79  A$map_21_update$93                 map_21_update
     00036C7C  A$map_21_update$97                 map_21_update
     00036C7C  C$map_21_update.c$22$1_1$169       map_21_update
     00036C7D  A$map_21_update$108                map_21_update
     00036C7D  C$map_21_update.c$24$1_1$169       map_21_update
     00036C7D  C$map_21_update.c$25$1_1$168       map_21_update
     00036C7D  XG$Map_21_Update$0$0               map_21_update
ASxxxx Linker V03.00/V05.40 + sdld,  page 177.
Hexadecimal  [32-Bits]

Area                                    Addr        Size        Decimal Bytes (Attributes)
--------------------------------        ----        ----        ------- ----- ------------
_CODE_3                             00034000    0000371C =       14108. bytes (REL,CON)

      Value  Global                              Global Defined In Module
      -----  --------------------------------   ------------------------
     00036C80  G$map_22_collision$0_0$0           map_22_collision
     00036C80  _map_22_collision                  map_22_collision
     00036DE8  A$map_22_create$58                 map_22_create
     00036DE8  C$map_22_create.c$6$0_0$36         map_22_create
     00036DE8  C$map_22_create.c$8$1_0$36         map_22_create
     00036DE8  G$Map_22_Create$0$0                map_22_create
     00036DE8  _Map_22_Create                     map_22_create
     00036DEB  A$map_22_create$59                 map_22_create
     00036DED  A$map_22_create$60                 map_22_create
     00036DEE  A$map_22_create$61                 map_22_create
     00036DF0  A$map_22_create$65                 map_22_create
     00036DF0  C$map_22_create.c$9$1_0$36         map_22_create
     00036DF1  A$map_22_create$66                 map_22_create
     00036DF3  A$map_22_create$67                 map_22_create
     00036DF4  A$map_22_create$68                 map_22_create
     00036DF6  A$map_22_create$72                 map_22_create
     00036DF6  C$map_22_create.c$10$1_0$36        map_22_create
     00036DF7  A$map_22_create$73                 map_22_create
     00036DF9  A$map_22_create$74                 map_22_create
     00036DFA  A$map_22_create$75                 map_22_create
     00036DFC  A$map_22_create$79                 map_22_create
     00036DFC  C$map_22_create.c$11$1_0$36        map_22_create
     00036DFF  A$map_22_create$80                 map_22_create
     00036E01  A$map_22_create$84                 map_22_create
     00036E01  C$map_22_create.c$12$1_0$36        map_22_create
     00036E04  A$map_22_create$85                 map_22_create
     00036E05  A$map_22_create$86                 map_22_create
     00036E06  A$map_22_create$87                 map_22_create
     00036E07  A$map_22_create$95                 map_22_create
     00036E07  C$map_22_create.c$13$1_0$36        map_22_create
     00036E07  XG$Map_22_Create$0$0               map_22_create
     00036E08  A$map_22_destroy$55                map_22_destroy
     00036E08  C$map_22_destroy.c$7$0_0$36        map_22_destroy
     00036E08  C$map_22_destroy.c$9$1_0$36        map_22_destroy
     00036E08  G$Map_22_Destroy$0$0               map_22_destroy
     00036E08  _Map_22_Destroy                    map_22_destroy
     00036E0B  A$map_22_destroy$56                map_22_destroy
     00036E0C  A$map_22_destroy$57                map_22_destroy
     00036E0D  A$map_22_destroy$58                map_22_destroy
     00036E0E  A$map_22_destroy$62                map_22_destroy
     00036E0E  C$map_22_destroy.c$10$2_0$37       map_22_destroy
     00036E10  A$map_22_destroy$63                map_22_destroy
     00036E12  A$map_22_destroy$67                map_22_destroy
     00036E12  C$map_22_destroy.c$11$2_0$37       map_22_destroy
     00036E14  A$map_22_destroy$68                map_22_destroy
     00036E15  A$map_22_destroy$73                map_22_destroy
     00036E15  C$map_22_destroy.c$13$1_0$36       map_22_destroy
     00036E18  A$map_22_destroy$74                map_22_destroy
     00036E1A  A$map_22_destroy$82                map_22_destroy
     00036E1A  C$map_22_destroy.c$14$1_0$36       map_22_destroy
     00036E1A  XG$Map_22_Destroy$0$0              map_22_destroy
ASxxxx Linker V03.00/V05.40 + sdld,  page 178.
Hexadecimal  [32-Bits]

Area                                    Addr        Size        Decimal Bytes (Attributes)
--------------------------------        ----        ----        ------- ----- ------------
_CODE_3                             00034000    0000371C =       14108. bytes (REL,CON)

      Value  Global                              Global Defined In Module
      -----  --------------------------------   ------------------------
     00036E1B  A$map_22_dialogues$56              map_22_dialogues
     00036E1B  C$map_22_dialogues.c$11$0_0$35     map_22_dialogues
     00036E1B  C$map_22_dialogues.c$13$1_0$35     map_22_dialogues
     00036E1B  G$Map_22_InitDialogues$0$0         map_22_dialogues
     00036E1B  _Map_22_InitDialogues              map_22_dialogues
     00036E1E  A$map_22_dialogues$57              map_22_dialogues
     00036E20  A$map_22_dialogues$58              map_22_dialogues
     00036E21  A$map_22_dialogues$59              map_22_dialogues
     00036E23  A$map_22_dialogues$67              map_22_dialogues
     00036E23  C$map_22_dialogues.c$14$1_0$35     map_22_dialogues
     00036E23  XG$Map_22_InitDialogues$0$0        map_22_dialogues
     00036E24  G$dialogue_00$0_0$0                map_22_dialogues
     00036E24  _dialogue_00                       map_22_dialogues
     00036F68  A$map_22_init$61                   map_22_init
     00036F68  C$map_22_init.c$16$0_0$173         map_22_init
     00036F68  C$map_22_init.c$18$1_0$173         map_22_init
     00036F68  Fmap_22_init$Map_22_Event$0$0      map_22_init
     00036F6B  A$map_22_init$62                   map_22_init
     00036F6D  A$map_22_init$70                   map_22_init
     00036F6D  C$map_22_init.c$19$1_0$173         map_22_init
     00036F6D  XFmap_22_init$Map_22_Event$0$0     map_22_init
     00036F6E  A$map_22_init$80                   map_22_init
     00036F6E  C$map_22_init.c$21$1_0$175         map_22_init
     00036F6E  G$Map_22_Init$0$0                  map_22_init
     00036F6E  _Map_22_Init                       map_22_init
     00036F6F  A$map_22_init$84                   map_22_init
     00036F6F  C$map_22_init.c$23$1_0$175         map_22_init
     00036F72  A$map_22_init$88                   map_22_init
     00036F72  C$map_22_init.c$25$2_0$176         map_22_init
     00036F75  A$map_22_init$89                   map_22_init
     00036F76  A$map_22_init$90                   map_22_init
     00036F78  A$map_22_init$94                   map_22_init
     00036F78  C$map_22_init.c$27$3_0$177         map_22_init
     00036F7B  A$map_22_init$98                   map_22_init
     00036F7B  C$map_22_init.c$28$3_0$177         map_22_init
     00036F7E  A$map_22_init$102                  map_22_init
     00036F7E  C$map_22_init.c$30$3_0$177         map_22_init
     00036F81  A$map_22_init$103                  map_22_init
     00036F83  A$map_22_init$107                  map_22_init
     00036F83  C$map_22_init.c$31$3_0$177         map_22_init
     00036F86  A$map_22_init$108                  map_22_init
     00036F89  A$map_22_init$109                  map_22_init
     00036F8A  A$map_22_init$113                  map_22_init
     00036F8A  C$map_22_init.c$33$3_0$177         map_22_init
     00036F8D  A$map_22_init$114                  map_22_init
     00036F90  A$map_22_init$115                  map_22_init
     00036F92  A$map_22_init$120                  map_22_init
     00036F92  C$map_22_init.c$37$3_0$178         map_22_init
     00036F95  A$map_22_init$121                  map_22_init
     00036F97  A$map_22_init$125                  map_22_init
     00036F97  C$map_22_init.c$38$3_0$178         map_22_init
ASxxxx Linker V03.00/V05.40 + sdld,  page 179.
Hexadecimal  [32-Bits]

Area                                    Addr        Size        Decimal Bytes (Attributes)
--------------------------------        ----        ----        ------- ----- ------------
_CODE_3                             00034000    0000371C =       14108. bytes (REL,CON)

      Value  Global                              Global Defined In Module
      -----  --------------------------------   ------------------------
     00036F9A  A$map_22_init$126                  map_22_init
     00036F9B  A$map_22_init$127                  map_22_init
     00036F9D  A$map_22_init$128                  map_22_init
     00036FA0  A$map_22_init$129                  map_22_init
     00036FA1  A$map_22_init$130                  map_22_init
     00036FA3  A$map_22_init$134                  map_22_init
     00036FA3  C$map_22_init.c$39$3_0$178         map_22_init
     00036FA6  A$map_22_init$135                  map_22_init
     00036FA7  A$map_22_init$136                  map_22_init
     00036FA9  A$map_22_init$137                  map_22_init
     00036FAC  A$map_22_init$138                  map_22_init
     00036FAD  A$map_22_init$139                  map_22_init
     00036FAF  A$map_22_init$143                  map_22_init
     00036FAF  C$map_22_init.c$41$3_0$178         map_22_init
     00036FB2  A$map_22_init$144                  map_22_init
     00036FB5  A$map_22_init$149                  map_22_init
     00036FB5  C$map_22_init.c$44$1_0$175         map_22_init
     00036FB8  A$map_22_init$150                  map_22_init
     00036FBB  A$map_22_init$151                  map_22_init
     00036FBC  A$map_22_init$155                  map_22_init
     00036FBC  C$map_22_init.c$45$1_0$175         map_22_init
     00036FBF  A$map_22_init$156                  map_22_init
     00036FC1  A$map_22_init$157                  map_22_init
     00036FC2  A$map_22_init$158                  map_22_init
     00036FC4  A$map_22_init$162                  map_22_init
     00036FC4  C$map_22_init.c$46$1_0$175         map_22_init
     00036FC7  A$map_22_init$163                  map_22_init
     00036FC9  A$map_22_init$167                  map_22_init
     00036FC9  C$map_22_init.c$47$1_0$175         map_22_init
     00036FCC  A$map_22_init$168                  map_22_init
     00036FCE  A$map_22_init$172                  map_22_init
     00036FCE  C$map_22_init.c$48$1_0$175         map_22_init
     00036FD1  A$map_22_init$173                  map_22_init
     00036FD3  A$map_22_init$177                  map_22_init
     00036FD3  C$map_22_init.c$49$1_0$175         map_22_init
     00036FD6  A$map_22_init$178                  map_22_init
     00036FD8  A$map_22_init$182                  map_22_init
     00036FD8  C$map_22_init.c$51$1_0$175         map_22_init
     00036FDB  A$map_22_init$183                  map_22_init
     00036FDD  A$map_22_init$187                  map_22_init
     00036FDD  C$map_22_init.c$52$1_0$175         map_22_init
     00036FE0  A$map_22_init$188                  map_22_init
     00036FE2  A$map_22_init$192                  map_22_init
     00036FE2  C$map_22_init.c$53$1_0$175         map_22_init
     00036FE5  A$map_22_init$193                  map_22_init
     00036FE7  A$map_22_init$194                  map_22_init
     00036FE8  A$map_22_init$195                  map_22_init
     00036FEA  A$map_22_init$199                  map_22_init
     00036FEA  C$map_22_init.c$55$1_0$175         map_22_init
     00036FEB  A$map_22_init$200                  map_22_init
     00036FEC  A$map_22_init$201                  map_22_init
ASxxxx Linker V03.00/V05.40 + sdld,  page 180.
Hexadecimal  [32-Bits]

Area                                    Addr        Size        Decimal Bytes (Attributes)
--------------------------------        ----        ----        ------- ----- ------------
_CODE_3                             00034000    0000371C =       14108. bytes (REL,CON)

      Value  Global                              Global Defined In Module
      -----  --------------------------------   ------------------------
     00036FEF  A$map_22_init$202                  map_22_init
     00036FF0  A$map_22_init$203                  map_22_init
     00036FF2  A$map_22_init$204                  map_22_init
     00036FF3  A$map_22_init$205                  map_22_init
     00036FF5  A$map_22_init$209                  map_22_init
     00036FF5  C$map_22_init.c$57$1_0$175         map_22_init
     00036FF8  A$map_22_init$210                  map_22_init
     00036FF9  A$map_22_init$211                  map_22_init
     00036FFC  A$map_22_init$212                  map_22_init
     00036FFD  A$map_22_init$213                  map_22_init
     00037000  A$map_22_init$214                  map_22_init
     00037002  A$map_22_init$218                  map_22_init
     00037002  C$map_22_init.c$58$1_0$175         map_22_init
     00037005  A$map_22_init$219                  map_22_init
     00037006  A$map_22_init$220                  map_22_init
     00037009  A$map_22_init$221                  map_22_init
     0003700A  A$map_22_init$222                  map_22_init
     0003700B  A$map_22_init$223                  map_22_init
     0003700C  A$map_22_init$224                  map_22_init
     0003700D  A$map_22_init$225                  map_22_init
     00037010  A$map_22_init$226                  map_22_init
     00037012  A$map_22_init$230                  map_22_init
     00037012  C$map_22_init.c$60$1_0$175         map_22_init
     00037015  A$map_22_init$231                  map_22_init
     00037018  A$map_22_init$235                  map_22_init
     00037018  C$map_22_init.c$62$1_0$175         map_22_init
     0003701B  A$map_22_init$236                  map_22_init
     0003701D  A$map_22_init$240                  map_22_init
     0003701D  C$map_22_init.c$63$1_0$175         map_22_init
     00037020  A$map_22_init$241                  map_22_init
     00037022  A$map_22_init$245                  map_22_init
     00037023  A$map_22_init$246                  map_22_init
     00037024  A$map_22_init$251                  map_22_init
     00037024  C$map_22_init.c$64$1_0$175         map_22_init
     00037024  XG$Map_22_Init$0$0                 map_22_init
     00037025  A$map_22_init_npc$53               map_22_init_npc
     00037025  C$map_22_init_npc.c$14$0_0$168     map_22_init_npc
     00037025  G$Map_22_InitNPC$0$0               map_22_init_npc
     00037025  _Map_22_InitNPC                    map_22_init_npc
     00037027  A$map_22_init_npc$57               map_22_init_npc
     00037027  C$map_22_init_npc.c$16$1_0$168     map_22_init_npc
     0003702A  A$map_22_init_npc$58               map_22_init_npc
     0003702B  A$map_22_init_npc$59               map_22_init_npc
     0003702D  A$map_22_init_npc$60               map_22_init_npc
     00037030  A$map_22_init_npc$61               map_22_init_npc
     00037031  A$map_22_init_npc$62               map_22_init_npc
     00037033  A$map_22_init_npc$66               map_22_init_npc
     00037033  C$map_22_init_npc.c$17$1_0$168     map_22_init_npc
     00037036  A$map_22_init_npc$67               map_22_init_npc
     00037037  A$map_22_init_npc$68               map_22_init_npc
     00037039  A$map_22_init_npc$69               map_22_init_npc
ASxxxx Linker V03.00/V05.40 + sdld,  page 181.
Hexadecimal  [32-Bits]

Area                                    Addr        Size        Decimal Bytes (Attributes)
--------------------------------        ----        ----        ------- ----- ------------
_CODE_3                             00034000    0000371C =       14108. bytes (REL,CON)

      Value  Global                              Global Defined In Module
      -----  --------------------------------   ------------------------
     0003703C  A$map_22_init_npc$70               map_22_init_npc
     0003703D  A$map_22_init_npc$71               map_22_init_npc
     0003703F  A$map_22_init_npc$75               map_22_init_npc
     0003703F  C$map_22_init_npc.c$19$2_0$169     map_22_init_npc
     00037041  A$map_22_init_npc$76               map_22_init_npc
     00037043  A$map_22_init_npc$77               map_22_init_npc
     00037044  A$map_22_init_npc$78               map_22_init_npc
     00037046  A$map_22_init_npc$79               map_22_init_npc
     00037047  A$map_22_init_npc$80               map_22_init_npc
     00037049  A$map_22_init_npc$81               map_22_init_npc
     0003704A  A$map_22_init_npc$82               map_22_init_npc
     0003704C  A$map_22_init_npc$83               map_22_init_npc
     0003704D  A$map_22_init_npc$84               map_22_init_npc
     0003704F  A$map_22_init_npc$85               map_22_init_npc
     00037050  A$map_22_init_npc$86               map_22_init_npc
     00037052  A$map_22_init_npc$87               map_22_init_npc
     00037053  A$map_22_init_npc$88               map_22_init_npc
     00037054  A$map_22_init_npc$89               map_22_init_npc
     00037055  A$map_22_init_npc$90               map_22_init_npc
     00037056  A$map_22_init_npc$91               map_22_init_npc
     00037057  A$map_22_init_npc$92               map_22_init_npc
     00037058  A$map_22_init_npc$96               map_22_init_npc
     0003705B  A$map_22_init_npc$97               map_22_init_npc
     0003705C  A$map_22_init_npc$99               map_22_init_npc
     0003705F  A$map_22_init_npc$100              map_22_init_npc
     00037060  A$map_22_init_npc$101              map_22_init_npc
     00037061  A$map_22_init_npc$102              map_22_init_npc
     00037062  A$map_22_init_npc$103              map_22_init_npc
     00037064  A$map_22_init_npc$104              map_22_init_npc
     00037065  A$map_22_init_npc$105              map_22_init_npc
     00037066  A$map_22_init_npc$106              map_22_init_npc
     00037068  A$map_22_init_npc$110              map_22_init_npc
     00037068  C$map_22_init_npc.c$21$2_1$170     map_22_init_npc
     0003706B  A$map_22_init_npc$111              map_22_init_npc
     0003706C  A$map_22_init_npc$112              map_22_init_npc
     0003706E  A$map_22_init_npc$113              map_22_init_npc
     0003706F  A$map_22_init_npc$114              map_22_init_npc
     00037070  A$map_22_init_npc$115              map_22_init_npc
     00037071  A$map_22_init_npc$116              map_22_init_npc
     00037072  A$map_22_init_npc$117              map_22_init_npc
     00037073  A$map_22_init_npc$118              map_22_init_npc
     00037074  A$map_22_init_npc$119              map_22_init_npc
     00037075  A$map_22_init_npc$120              map_22_init_npc
     00037076  A$map_22_init_npc$121              map_22_init_npc
     00037078  A$map_22_init_npc$122              map_22_init_npc
     00037079  A$map_22_init_npc$123              map_22_init_npc
     0003707A  A$map_22_init_npc$124              map_22_init_npc
     0003707B  A$map_22_init_npc$125              map_22_init_npc
     0003707D  A$map_22_init_npc$126              map_22_init_npc
     0003707E  A$map_22_init_npc$127              map_22_init_npc
     0003707F  A$map_22_init_npc$128              map_22_init_npc
ASxxxx Linker V03.00/V05.40 + sdld,  page 182.
Hexadecimal  [32-Bits]

Area                                    Addr        Size        Decimal Bytes (Attributes)
--------------------------------        ----        ----        ------- ----- ------------
_CODE_3                             00034000    0000371C =       14108. bytes (REL,CON)

      Value  Global                              Global Defined In Module
      -----  --------------------------------   ------------------------
     00037080  A$map_22_init_npc$129              map_22_init_npc
     00037081  A$map_22_init_npc$130              map_22_init_npc
     00037084  A$map_22_init_npc$131              map_22_init_npc
     00037085  A$map_22_init_npc$132              map_22_init_npc
     00037086  A$map_22_init_npc$133              map_22_init_npc
     00037087  A$map_22_init_npc$134              map_22_init_npc
     00037089  A$map_22_init_npc$135              map_22_init_npc
     0003708A  A$map_22_init_npc$136              map_22_init_npc
     0003708B  A$map_22_init_npc$137              map_22_init_npc
     0003708C  A$map_22_init_npc$141              map_22_init_npc
     0003708C  C$map_22_init_npc.c$20$2_1$170     map_22_init_npc
     0003708D  A$map_22_init_npc$142              map_22_init_npc
     0003708F  A$map_22_init_npc$147              map_22_init_npc
     0003708F  C$map_22_init_npc.c$23$1_1$169     map_22_init_npc
     00037092  A$map_22_init_npc$148              map_22_init_npc
     00037093  A$map_22_init_npc$149              map_22_init_npc
     00037094  A$map_22_init_npc$150              map_22_init_npc
     00037096  A$map_22_init_npc$151              map_22_init_npc
     00037099  A$map_22_init_npc$152              map_22_init_npc
     0003709A  A$map_22_init_npc$153              map_22_init_npc
     0003709D  A$map_22_init_npc$154              map_22_init_npc
     0003709F  A$map_22_init_npc$155              map_22_init_npc
     000370A0  A$map_22_init_npc$156              map_22_init_npc
     000370A2  A$map_22_init_npc$157              map_22_init_npc
     000370A4  A$map_22_init_npc$158              map_22_init_npc
     000370A5  A$map_22_init_npc$159              map_22_init_npc
     000370A6  A$map_22_init_npc$160              map_22_init_npc
     000370A7  A$map_22_init_npc$161              map_22_init_npc
     000370A8  A$map_22_init_npc$162              map_22_init_npc
     000370A9  A$map_22_init_npc$163              map_22_init_npc
     000370AA  A$map_22_init_npc$167              map_22_init_npc
     000370AA  C$map_22_init_npc.c$24$1_1$169     map_22_init_npc
     000370AD  A$map_22_init_npc$168              map_22_init_npc
     000370AE  A$map_22_init_npc$169              map_22_init_npc
     000370AF  A$map_22_init_npc$170              map_22_init_npc
     000370B1  A$map_22_init_npc$171              map_22_init_npc
     000370B4  A$map_22_init_npc$172              map_22_init_npc
     000370B5  A$map_22_init_npc$173              map_22_init_npc
     000370B8  A$map_22_init_npc$174              map_22_init_npc
     000370BA  A$map_22_init_npc$175              map_22_init_npc
     000370BB  A$map_22_init_npc$176              map_22_init_npc
     000370BD  A$map_22_init_npc$177              map_22_init_npc
     000370BF  A$map_22_init_npc$178              map_22_init_npc
     000370C0  A$map_22_init_npc$179              map_22_init_npc
     000370C1  A$map_22_init_npc$180              map_22_init_npc
     000370C2  A$map_22_init_npc$181              map_22_init_npc
     000370C3  A$map_22_init_npc$182              map_22_init_npc
     000370C4  A$map_22_init_npc$183              map_22_init_npc
     000370C5  A$map_22_init_npc$187              map_22_init_npc
     000370C5  C$map_22_init_npc.c$26$1_1$169     map_22_init_npc
     000370C8  A$map_22_init_npc$188              map_22_init_npc
ASxxxx Linker V03.00/V05.40 + sdld,  page 183.
Hexadecimal  [32-Bits]

Area                                    Addr        Size        Decimal Bytes (Attributes)
--------------------------------        ----        ----        ------- ----- ------------
_CODE_3                             00034000    0000371C =       14108. bytes (REL,CON)

      Value  Global                              Global Defined In Module
      -----  --------------------------------   ------------------------
     000370C9  A$map_22_init_npc$189              map_22_init_npc
     000370CB  A$map_22_init_npc$190              map_22_init_npc
     000370CE  A$map_22_init_npc$191              map_22_init_npc
     000370CF  A$map_22_init_npc$192              map_22_init_npc
     000370D1  A$map_22_init_npc$196              map_22_init_npc
     000370D1  C$map_22_init_npc.c$27$1_1$169     map_22_init_npc
     000370D4  A$map_22_init_npc$197              map_22_init_npc
     000370D5  A$map_22_init_npc$198              map_22_init_npc
     000370D7  A$map_22_init_npc$199              map_22_init_npc
     000370DA  A$map_22_init_npc$200              map_22_init_npc
     000370DB  A$map_22_init_npc$201              map_22_init_npc
     000370DD  A$map_22_init_npc$205              map_22_init_npc
     000370DD  C$map_22_init_npc.c$28$1_1$169     map_22_init_npc
     000370E0  A$map_22_init_npc$206              map_22_init_npc
     000370E1  A$map_22_init_npc$207              map_22_init_npc
     000370E3  A$map_22_init_npc$208              map_22_init_npc
     000370E6  A$map_22_init_npc$209              map_22_init_npc
     000370E7  A$map_22_init_npc$210              map_22_init_npc
     000370E9  A$map_22_init_npc$214              map_22_init_npc
     000370E9  C$map_22_init_npc.c$30$2_1$171     map_22_init_npc
     000370EB  A$map_22_init_npc$215              map_22_init_npc
     000370ED  A$map_22_init_npc$216              map_22_init_npc
     000370EE  A$map_22_init_npc$217              map_22_init_npc
     000370F0  A$map_22_init_npc$218              map_22_init_npc
     000370F1  A$map_22_init_npc$219              map_22_init_npc
     000370F3  A$map_22_init_npc$220              map_22_init_npc
     000370F4  A$map_22_init_npc$221              map_22_init_npc
     000370F6  A$map_22_init_npc$222              map_22_init_npc
     000370F7  A$map_22_init_npc$223              map_22_init_npc
     000370F9  A$map_22_init_npc$224              map_22_init_npc
     000370FA  A$map_22_init_npc$225              map_22_init_npc
     000370FC  A$map_22_init_npc$226              map_22_init_npc
     000370FD  A$map_22_init_npc$227              map_22_init_npc
     000370FF  A$map_22_init_npc$228              map_22_init_npc
     00037100  A$map_22_init_npc$229              map_22_init_npc
     00037102  A$map_22_init_npc$230              map_22_init_npc
     00037103  A$map_22_init_npc$231              map_22_init_npc
     00037105  A$map_22_init_npc$232              map_22_init_npc
     00037106  A$map_22_init_npc$233              map_22_init_npc
     00037108  A$map_22_init_npc$234              map_22_init_npc
     00037109  A$map_22_init_npc$235              map_22_init_npc
     0003710B  A$map_22_init_npc$236              map_22_init_npc
     0003710C  A$map_22_init_npc$237              map_22_init_npc
     0003710E  A$map_22_init_npc$238              map_22_init_npc
     0003710F  A$map_22_init_npc$239              map_22_init_npc
     00037111  A$map_22_init_npc$240              map_22_init_npc
     00037112  A$map_22_init_npc$241              map_22_init_npc
     00037114  A$map_22_init_npc$242              map_22_init_npc
     00037115  A$map_22_init_npc$243              map_22_init_npc
     00037117  A$map_22_init_npc$244              map_22_init_npc
     00037118  A$map_22_init_npc$245              map_22_init_npc
ASxxxx Linker V03.00/V05.40 + sdld,  page 184.
Hexadecimal  [32-Bits]

Area                                    Addr        Size        Decimal Bytes (Attributes)
--------------------------------        ----        ----        ------- ----- ------------
_CODE_3                             00034000    0000371C =       14108. bytes (REL,CON)

      Value  Global                              Global Defined In Module
      -----  --------------------------------   ------------------------
     0003711A  A$map_22_init_npc$249              map_22_init_npc
     0003711A  C$map_22_init_npc.c$44$1_2$171     map_22_init_npc
     0003711D  A$map_22_init_npc$250              map_22_init_npc
     0003711E  A$map_22_init_npc$251              map_22_init_npc
     00037120  A$map_22_init_npc$252              map_22_init_npc
     00037121  A$map_22_init_npc$253              map_22_init_npc
     00037122  A$map_22_init_npc$254              map_22_init_npc
     00037123  A$map_22_init_npc$255              map_22_init_npc
     00037124  A$map_22_init_npc$256              map_22_init_npc
     00037125  A$map_22_init_npc$257              map_22_init_npc
     00037126  A$map_22_init_npc$258              map_22_init_npc
     00037127  A$map_22_init_npc$259              map_22_init_npc
     00037128  A$map_22_init_npc$260              map_22_init_npc
     00037129  A$map_22_init_npc$261              map_22_init_npc
     0003712C  A$map_22_init_npc$262              map_22_init_npc
     0003712D  A$map_22_init_npc$263              map_22_init_npc
     0003712E  A$map_22_init_npc$264              map_22_init_npc
     0003712F  A$map_22_init_npc$265              map_22_init_npc
     00037132  A$map_22_init_npc$266              map_22_init_npc
     00037133  A$map_22_init_npc$267              map_22_init_npc
     00037135  A$map_22_init_npc$268              map_22_init_npc
     00037136  A$map_22_init_npc$269              map_22_init_npc
     00037137  A$map_22_init_npc$270              map_22_init_npc
     0003713A  A$map_22_init_npc$271              map_22_init_npc
     0003713B  A$map_22_init_npc$272              map_22_init_npc
     0003713C  A$map_22_init_npc$273              map_22_init_npc
     0003713D  A$map_22_init_npc$274              map_22_init_npc
     0003713E  A$map_22_init_npc$275              map_22_init_npc
     0003713F  A$map_22_init_npc$276              map_22_init_npc
     00037142  A$map_22_init_npc$277              map_22_init_npc
     00037145  A$map_22_init_npc$281              map_22_init_npc
     00037147  A$map_22_init_npc$286              map_22_init_npc
     00037147  C$map_22_init_npc.c$45$1_2$168     map_22_init_npc
     00037147  XG$Map_22_InitNPC$0$0              map_22_init_npc
     00037148  A$map_22_input$56                  map_22_input
     00037148  C$map_22_input.c$10$0_0$160        map_22_input
     00037148  C$map_22_input.c$12$2_0$161        map_22_input
     00037148  G$Map_22_CheckInput$0$0            map_22_input
     00037148  _Map_22_CheckInput                 map_22_input
     0003714B  A$map_22_input$57                  map_22_input
     0003714C  A$map_22_input$61                  map_22_input
     0003714C  C$map_22_input.c$13$2_0$161        map_22_input
     0003714D  A$map_22_input$65                  map_22_input
     0003714D  C$map_22_input.c$15$2_0$162        map_22_input
     00037150  A$map_22_input$66                  map_22_input
     00037152  A$map_22_input$67                  map_22_input
     00037153  A$map_22_input$68                  map_22_input
     00037156  A$map_22_input$69                  map_22_input
     00037158  A$map_22_input$70                  map_22_input
     00037159  A$map_22_input$74                  map_22_input
     00037159  C$map_22_input.c$18$3_0$163        map_22_input
ASxxxx Linker V03.00/V05.40 + sdld,  page 185.
Hexadecimal  [32-Bits]

Area                                    Addr        Size        Decimal Bytes (Attributes)
--------------------------------        ----        ----        ------- ----- ------------
_CODE_3                             00034000    0000371C =       14108. bytes (REL,CON)

      Value  Global                              Global Defined In Module
      -----  --------------------------------   ------------------------
     0003715B  A$map_22_input$75                  map_22_input
     0003715C  A$map_22_input$76                  map_22_input
     0003715D  A$map_22_input$77                  map_22_input
     0003715E  A$map_22_input$78                  map_22_input
     0003715F  A$map_22_input$79                  map_22_input
     00037160  A$map_22_input$80                  map_22_input
     00037162  A$map_22_input$81                  map_22_input
     00037165  A$map_22_input$82                  map_22_input
     00037168  A$map_22_input$90                  map_22_input
     00037168  C$map_22_input.c$20$2_0$160        map_22_input
     00037168  XG$Map_22_CheckInput$0$0           map_22_input
     00037169  A$map_22_update$58                 map_22_update
     00037169  C$map_22_update.c$13$0_0$175       map_22_update
     00037169  G$Map_22_Update$0$0                map_22_update
     00037169  _Map_22_Update                     map_22_update
     0003716B  A$map_22_update$59                 map_22_update
     0003716D  A$map_22_update$60                 map_22_update
     0003716E  A$map_22_update$61                 map_22_update
     0003716F  A$map_22_update$62                 map_22_update
     00037170  A$map_22_update$66                 map_22_update
     00037170  C$map_22_update.c$15$1_0$175       map_22_update
     00037173  A$map_22_update$70                 map_22_update
     00037173  C$map_22_update.c$17$1_0$175       map_22_update
     00037176  A$map_22_update$74                 map_22_update
     00037176  C$map_22_update.c$19$1_1$176       map_22_update
     00037178  A$map_22_update$75                 map_22_update
     00037179  A$map_22_update$76                 map_22_update
     0003717A  A$map_22_update$77                 map_22_update
     0003717B  A$map_22_update$78                 map_22_update
     0003717E  A$map_22_update$79                 map_22_update
     0003717F  A$map_22_update$80                 map_22_update
     00037180  A$map_22_update$81                 map_22_update
     00037181  A$map_22_update$82                 map_22_update
     00037182  A$map_22_update$83                 map_22_update
     00037184  A$map_22_update$84                 map_22_update
     00037185  A$map_22_update$85                 map_22_update
     00037186  A$map_22_update$86                 map_22_update
     00037187  A$map_22_update$90                 map_22_update
     00037187  C$map_22_update.c$21$1_1$176       map_22_update
     0003718A  A$map_22_update$91                 map_22_update
     0003718B  A$map_22_update$92                 map_22_update
     0003718D  A$map_22_update$93                 map_22_update
     0003718E  A$map_22_update$94                 map_22_update
     0003718F  A$map_22_update$95                 map_22_update
     00037190  A$map_22_update$96                 map_22_update
     00037191  A$map_22_update$97                 map_22_update
     00037192  A$map_22_update$98                 map_22_update
     00037193  A$map_22_update$99                 map_22_update
     00037194  A$map_22_update$100                map_22_update
     00037195  A$map_22_update$101                map_22_update
     00037196  A$map_22_update$102                map_22_update
ASxxxx Linker V03.00/V05.40 + sdld,  page 186.
Hexadecimal  [32-Bits]

Area                                    Addr        Size        Decimal Bytes (Attributes)
--------------------------------        ----        ----        ------- ----- ------------
_CODE_3                             00034000    0000371C =       14108. bytes (REL,CON)

      Value  Global                              Global Defined In Module
      -----  --------------------------------   ------------------------
     00037199  A$map_22_update$103                map_22_update
     0003719A  A$map_22_update$104                map_22_update
     0003719B  A$map_22_update$105                map_22_update
     0003719C  A$map_22_update$106                map_22_update
     0003719F  A$map_22_update$110                map_22_update
     0003719F  C$map_22_update.c$22$1_1$176       map_22_update
     000371A2  A$map_22_update$111                map_22_update
     000371A3  A$map_22_update$112                map_22_update
     000371A5  A$map_22_update$113                map_22_update
     000371A6  A$map_22_update$114                map_22_update
     000371A7  A$map_22_update$115                map_22_update
     000371A8  A$map_22_update$116                map_22_update
     000371A9  A$map_22_update$117                map_22_update
     000371AA  A$map_22_update$118                map_22_update
     000371AB  A$map_22_update$119                map_22_update
     000371AC  A$map_22_update$120                map_22_update
     000371AD  A$map_22_update$121                map_22_update
     000371AE  A$map_22_update$122                map_22_update
     000371B1  A$map_22_update$123                map_22_update
     000371B2  A$map_22_update$124                map_22_update
     000371B3  A$map_22_update$125                map_22_update
     000371B4  A$map_22_update$126                map_22_update
     000371B7  A$map_22_update$130                map_22_update
     000371B7  C$map_22_update.c$24$1_1$176       map_22_update
     000371BA  A$map_22_update$131                map_22_update
     000371BD  A$map_22_update$135                map_22_update
     000371BD  C$map_22_update.c$25$1_1$176       map_22_update
     000371BE  A$map_22_update$136                map_22_update
     000371BF  A$map_22_update$137                map_22_update
     000371C0  A$map_22_update$138                map_22_update
     000371C1  A$map_22_update$139                map_22_update
     000371C2  A$map_22_update$140                map_22_update
     000371C3  A$map_22_update$141                map_22_update
     000371C6  A$map_22_update$145                map_22_update
     000371C6  C$map_22_update.c$27$1_1$176       map_22_update
     000371C8  A$map_22_update$146                map_22_update
     000371C9  A$map_22_update$147                map_22_update
     000371CA  A$map_22_update$148                map_22_update
     000371CB  A$map_22_update$149                map_22_update
     000371CE  A$map_22_update$153                map_22_update
     000371CE  C$map_22_update.c$28$1_1$176       map_22_update
     000371D1  A$map_22_update$160                map_22_update
     000371D1  C$map_22_update.c$30$1_1$176       map_22_update
     000371D3  A$map_22_update$165                map_22_update
     000371D3  C$map_22_update.c$31$1_1$175       map_22_update
     000371D3  XG$Map_22_Update$0$0               map_22_update
     000371D4  G$map_23_collision$0_0$0           map_23_collision
     000371D4  _map_23_collision                  map_23_collision
     0003733C  A$map_23_create$57                 map_23_create
     0003733C  C$map_23_create.c$6$0_0$10         map_23_create
     0003733C  C$map_23_create.c$7$1_0$10         map_23_create
ASxxxx Linker V03.00/V05.40 + sdld,  page 187.
Hexadecimal  [32-Bits]

Area                                    Addr        Size        Decimal Bytes (Attributes)
--------------------------------        ----        ----        ------- ----- ------------
_CODE_3                             00034000    0000371C =       14108. bytes (REL,CON)

      Value  Global                              Global Defined In Module
      -----  --------------------------------   ------------------------
     0003733C  G$Map_23_Create$0$0                map_23_create
     0003733C  _Map_23_Create                     map_23_create
     0003733F  A$map_23_create$58                 map_23_create
     00037341  A$map_23_create$59                 map_23_create
     00037342  A$map_23_create$60                 map_23_create
     00037344  A$map_23_create$64                 map_23_create
     00037344  C$map_23_create.c$8$1_0$10         map_23_create
     00037345  A$map_23_create$65                 map_23_create
     00037347  A$map_23_create$66                 map_23_create
     00037348  A$map_23_create$67                 map_23_create
     0003734A  A$map_23_create$71                 map_23_create
     0003734A  C$map_23_create.c$9$1_0$10         map_23_create
     0003734D  A$map_23_create$72                 map_23_create
     0003734F  A$map_23_create$80                 map_23_create
     0003734F  C$map_23_create.c$10$1_0$10        map_23_create
     0003734F  XG$Map_23_Create$0$0               map_23_create
     00037350  A$map_23_init$59                   map_23_init
     00037350  C$map_23_init.c$15$0_0$150         map_23_init
     00037350  C$map_23_init.c$17$1_0$150         map_23_init
     00037350  G$Map_23_Init$0$0                  map_23_init
     00037350  _Map_23_Init                       map_23_init
     00037351  A$map_23_init$60                   map_23_init
     00037354  A$map_23_init$61                   map_23_init
     00037355  A$map_23_init$65                   map_23_init
     00037355  C$map_23_init.c$19$1_0$150         map_23_init
     00037358  A$map_23_init$66                   map_23_init
     0003735B  A$map_23_init$67                   map_23_init
     0003735C  A$map_23_init$71                   map_23_init
     0003735C  C$map_23_init.c$20$1_0$150         map_23_init
     0003735F  A$map_23_init$72                   map_23_init
     00037361  A$map_23_init$76                   map_23_init
     00037361  C$map_23_init.c$21$1_0$150         map_23_init
     00037364  A$map_23_init$77                   map_23_init
     00037366  A$map_23_init$78                   map_23_init
     00037367  A$map_23_init$79                   map_23_init
     00037369  A$map_23_init$83                   map_23_init
     00037369  C$map_23_init.c$23$1_0$150         map_23_init
     0003736C  A$map_23_init$84                   map_23_init
     0003736E  A$map_23_init$88                   map_23_init
     0003736E  C$map_23_init.c$24$1_0$150         map_23_init
     00037371  A$map_23_init$89                   map_23_init
     00037373  A$map_23_init$93                   map_23_init
     00037373  C$map_23_init.c$25$1_0$150         map_23_init
     00037376  A$map_23_init$94                   map_23_init
     00037378  A$map_23_init$98                   map_23_init
     00037378  C$map_23_init.c$26$1_0$150         map_23_init
     0003737B  A$map_23_init$99                   map_23_init
     0003737D  A$map_23_init$103                  map_23_init
     0003737D  C$map_23_init.c$28$1_0$150         map_23_init
     00037380  A$map_23_init$104                  map_23_init
     00037382  A$map_23_init$108                  map_23_init
ASxxxx Linker V03.00/V05.40 + sdld,  page 188.
Hexadecimal  [32-Bits]

Area                                    Addr        Size        Decimal Bytes (Attributes)
--------------------------------        ----        ----        ------- ----- ------------
_CODE_3                             00034000    0000371C =       14108. bytes (REL,CON)

      Value  Global                              Global Defined In Module
      -----  --------------------------------   ------------------------
     00037382  C$map_23_init.c$29$1_0$150         map_23_init
     00037385  A$map_23_init$109                  map_23_init
     00037387  A$map_23_init$113                  map_23_init
     00037387  C$map_23_init.c$31$1_0$150         map_23_init
     0003738A  A$map_23_init$114                  map_23_init
     0003738B  A$map_23_init$115                  map_23_init
     0003738D  A$map_23_init$116                  map_23_init
     0003738E  A$map_23_init$117                  map_23_init
     00037390  A$map_23_init$121                  map_23_init
     00037390  C$map_23_init.c$33$1_0$150         map_23_init
     00037393  A$map_23_init$122                  map_23_init
     00037394  A$map_23_init$123                  map_23_init
     00037397  A$map_23_init$124                  map_23_init
     00037398  A$map_23_init$125                  map_23_init
     0003739B  A$map_23_init$126                  map_23_init
     0003739D  A$map_23_init$130                  map_23_init
     0003739D  C$map_23_init.c$34$1_0$150         map_23_init
     000373A0  A$map_23_init$131                  map_23_init
     000373A1  A$map_23_init$132                  map_23_init
     000373A4  A$map_23_init$133                  map_23_init
     000373A5  A$map_23_init$134                  map_23_init
     000373A6  A$map_23_init$135                  map_23_init
     000373A7  A$map_23_init$136                  map_23_init
     000373A8  A$map_23_init$137                  map_23_init
     000373AB  A$map_23_init$138                  map_23_init
     000373AD  A$map_23_init$142                  map_23_init
     000373AD  C$map_23_init.c$36$1_0$150         map_23_init
     000373B0  A$map_23_init$143                  map_23_init
     000373B3  A$map_23_init$147                  map_23_init
     000373B3  C$map_23_init.c$38$1_0$150         map_23_init
     000373B6  A$map_23_init$148                  map_23_init
     000373B8  A$map_23_init$152                  map_23_init
     000373B8  C$map_23_init.c$39$1_0$150         map_23_init
     000373BB  A$map_23_init$153                  map_23_init
     000373BD  A$map_23_init$161                  map_23_init
     000373BD  C$map_23_init.c$40$1_0$150         map_23_init
     000373BD  XG$Map_23_Init$0$0                 map_23_init
     000373BE  A$map_23_update$60                 map_23_update
     000373BE  C$map_23_update.c$12$0_0$148       map_23_update
     000373BE  C$map_23_update.c$13$1_0$148       map_23_update
     000373BE  G$Map_23_Update$0$0                map_23_update
     000373BE  _Map_23_Update                     map_23_update
     000373BF  A$map_23_update$61                 map_23_update
     000373C2  A$map_23_update$65                 map_23_update
     000373C2  C$map_23_update.c$15$1_0$148       map_23_update
     000373C5  A$map_23_update$66                 map_23_update
     000373C6  A$map_23_update$70                 map_23_update
     000373C6  C$map_23_update.c$17$1_1$149       map_23_update
     000373C9  A$map_23_update$71                 map_23_update
     000373CA  A$map_23_update$72                 map_23_update
     000373CB  A$map_23_update$73                 map_23_update
ASxxxx Linker V03.00/V05.40 + sdld,  page 189.
Hexadecimal  [32-Bits]

Area                                    Addr        Size        Decimal Bytes (Attributes)
--------------------------------        ----        ----        ------- ----- ------------
_CODE_3                             00034000    0000371C =       14108. bytes (REL,CON)

      Value  Global                              Global Defined In Module
      -----  --------------------------------   ------------------------
     000373CC  A$map_23_update$74                 map_23_update
     000373CD  A$map_23_update$75                 map_23_update
     000373CE  A$map_23_update$79                 map_23_update
     000373CE  C$map_23_update.c$19$1_1$149       map_23_update
     000373CF  A$map_23_update$80                 map_23_update
     000373D0  A$map_23_update$81                 map_23_update
     000373D3  A$map_23_update$82                 map_23_update
     000373D6  A$map_23_update$83                 map_23_update
     000373D7  A$map_23_update$84                 map_23_update
     000373D8  A$map_23_update$88                 map_23_update
     000373D8  C$map_23_update.c$20$1_1$149       map_23_update
     000373D9  A$map_23_update$89                 map_23_update
     000373DA  A$map_23_update$90                 map_23_update
     000373DB  A$map_23_update$91                 map_23_update
     000373DC  A$map_23_update$92                 map_23_update
     000373DD  A$map_23_update$93                 map_23_update
     000373E0  A$map_23_update$97                 map_23_update
     000373E0  C$map_23_update.c$22$1_1$149       map_23_update
     000373E1  A$map_23_update$108                map_23_update
     000373E1  C$map_23_update.c$24$1_1$149       map_23_update
     000373E1  C$map_23_update.c$25$1_1$148       map_23_update
     000373E1  XG$Map_23_Update$0$0               map_23_update
     000373E4  G$template_tileset$0_0$0           template_tileset
     000373E4  _template_tileset                  template_tileset
     000375B4  G$template_tilemap$0_0$0           template_tileset
     000375B4  _template_tilemap                  template_tileset

ASxxxx Linker V03.00/V05.40 + sdld,  page 190.
Hexadecimal  [32-Bits]

Area                                    Addr        Size        Decimal Bytes (Attributes)
--------------------------------        ----        ----        ------- ----- ------------
_CODE_1                             00014000    00001B90 =        7056. bytes (REL,CON)

      Value  Global                              Global Defined In Module
      -----  --------------------------------   ------------------------
     00014000  G$map_0_0_tileset$0_0$0            map_0_0
     00014000  _map_0_0_tileset                   map_0_0
     000141E0  G$map_0_0_tilemap$0_0$0            map_0_0
     000141E0  _map_0_0_tilemap                   map_0_0
     00014348  G$map_0_1_tileset$0_0$0            map_0_1
     00014348  _map_0_1_tileset                   map_0_1
     00014528  G$map_0_1_tilemap$0_0$0            map_0_1
     00014528  _map_0_1_tilemap                   map_0_1
     00014690  G$map_0_2_tileset$0_0$0            map_0_2
     00014690  _map_0_2_tileset                   map_0_2
     00014870  G$map_0_2_tilemap$0_0$0            map_0_2
     00014870  _map_0_2_tilemap                   map_0_2
     000149D8  G$map_0_3_tileset$0_0$0            map_0_3
     000149D8  _map_0_3_tileset                   map_0_3
     00014BB8  G$map_0_3_tilemap$0_0$0            map_0_3
     00014BB8  _map_0_3_tilemap                   map_0_3
     00014D20  G$map_00_collision$0_0$0           map_00_collision
     00014D20  _map_00_collision                  map_00_collision
     00014E88  A$map_00_create$57                 map_00_create
     00014E88  C$map_00_create.c$6$0_0$32         map_00_create
     00014E88  C$map_00_create.c$8$1_0$32         map_00_create
     00014E88  G$Map_00_Create$0$0                map_00_create
     00014E88  _Map_00_Create                     map_00_create
     00014E8B  A$map_00_create$58                 map_00_create
     00014E8D  A$map_00_create$59                 map_00_create
     00014E8E  A$map_00_create$60                 map_00_create
     00014E90  A$map_00_create$64                 map_00_create
     00014E90  C$map_00_create.c$9$1_0$32         map_00_create
     00014E91  A$map_00_create$65                 map_00_create
     00014E93  A$map_00_create$66                 map_00_create
     00014E94  A$map_00_create$67                 map_00_create
     00014E96  A$map_00_create$71                 map_00_create
     00014E96  C$map_00_create.c$10$1_0$32        map_00_create
     00014E99  A$map_00_create$72                 map_00_create
     00014E9B  A$map_00_create$76                 map_00_create
     00014E9B  C$map_00_create.c$11$1_0$32        map_00_create
     00014E9E  A$map_00_create$77                 map_00_create
     00014E9F  A$map_00_create$78                 map_00_create
     00014EA0  A$map_00_create$79                 map_00_create
     00014EA1  A$map_00_create$87                 map_00_create
     00014EA1  C$map_00_create.c$12$1_0$32        map_00_create
     00014EA1  XG$Map_00_Create$0$0               map_00_create
     00014EA2  A$map_00_init$59                   map_00_init
     00014EA2  C$map_00_init.c$15$0_0$170         map_00_init
     00014EA2  C$map_00_init.c$17$1_0$170         map_00_init
     00014EA2  G$Map_00_Init$0$0                  map_00_init
     00014EA2  _Map_00_Init                       map_00_init
     00014EA3  A$map_00_init$60                   map_00_init
     00014EA6  A$map_00_init$61                   map_00_init
     00014EA7  A$map_00_init$65                   map_00_init
ASxxxx Linker V03.00/V05.40 + sdld,  page 191.
Hexadecimal  [32-Bits]

Area                                    Addr        Size        Decimal Bytes (Attributes)
--------------------------------        ----        ----        ------- ----- ------------
_CODE_1                             00014000    00001B90 =        7056. bytes (REL,CON)

      Value  Global                              Global Defined In Module
      -----  --------------------------------   ------------------------
     00014EA7  C$map_00_init.c$19$1_0$170         map_00_init
     00014EAA  A$map_00_init$66                   map_00_init
     00014EAD  A$map_00_init$67                   map_00_init
     00014EAE  A$map_00_init$71                   map_00_init
     00014EAE  C$map_00_init.c$20$1_0$170         map_00_init
     00014EB1  A$map_00_init$72                   map_00_init
     00014EB3  A$map_00_init$73                   map_00_init
     00014EB4  A$map_00_init$74                   map_00_init
     00014EB6  A$map_00_init$78                   map_00_init
     00014EB6  C$map_00_init.c$21$1_0$170         map_00_init
     00014EB9  A$map_00_init$79                   map_00_init
     00014EBB  A$map_00_init$83                   map_00_init
     00014EBB  C$map_00_init.c$23$1_0$170         map_00_init
     00014EBE  A$map_00_init$84                   map_00_init
     00014EC0  A$map_00_init$88                   map_00_init
     00014EC0  C$map_00_init.c$24$1_0$170         map_00_init
     00014EC3  A$map_00_init$89                   map_00_init
     00014EC5  A$map_00_init$93                   map_00_init
     00014EC5  C$map_00_init.c$26$1_0$170         map_00_init
     00014EC8  A$map_00_init$94                   map_00_init
     00014ECA  A$map_00_init$98                   map_00_init
     00014ECA  C$map_00_init.c$27$1_0$170         map_00_init
     00014ECD  A$map_00_init$99                   map_00_init
     00014ECF  A$map_00_init$103                  map_00_init
     00014ECF  C$map_00_init.c$28$1_0$170         map_00_init
     00014ED2  A$map_00_init$104                  map_00_init
     00014ED4  A$map_00_init$108                  map_00_init
     00014ED4  C$map_00_init.c$29$1_0$170         map_00_init
     00014ED7  A$map_00_init$109                  map_00_init
     00014ED9  A$map_00_init$113                  map_00_init
     00014ED9  C$map_00_init.c$31$1_0$170         map_00_init
     00014EDC  A$map_00_init$114                  map_00_init
     00014EDD  A$map_00_init$115                  map_00_init
     00014EDF  A$map_00_init$116                  map_00_init
     00014EE0  A$map_00_init$117                  map_00_init
     00014EE2  A$map_00_init$121                  map_00_init
     00014EE2  C$map_00_init.c$33$1_0$170         map_00_init
     00014EE5  A$map_00_init$122                  map_00_init
     00014EE6  A$map_00_init$123                  map_00_init
     00014EE9  A$map_00_init$124                  map_00_init
     00014EEA  A$map_00_init$125                  map_00_init
     00014EED  A$map_00_init$126                  map_00_init
     00014EEF  A$map_00_init$130                  map_00_init
     00014EEF  C$map_00_init.c$34$1_0$170         map_00_init
     00014EF2  A$map_00_init$131                  map_00_init
     00014EF3  A$map_00_init$132                  map_00_init
     00014EF6  A$map_00_init$133                  map_00_init
     00014EF7  A$map_00_init$134                  map_00_init
     00014EF8  A$map_00_init$135                  map_00_init
     00014EF9  A$map_00_init$136                  map_00_init
     00014EFA  A$map_00_init$137                  map_00_init
ASxxxx Linker V03.00/V05.40 + sdld,  page 192.
Hexadecimal  [32-Bits]

Area                                    Addr        Size        Decimal Bytes (Attributes)
--------------------------------        ----        ----        ------- ----- ------------
_CODE_1                             00014000    00001B90 =        7056. bytes (REL,CON)

      Value  Global                              Global Defined In Module
      -----  --------------------------------   ------------------------
     00014EFD  A$map_00_init$138                  map_00_init
     00014EFF  A$map_00_init$142                  map_00_init
     00014EFF  C$map_00_init.c$36$1_0$170         map_00_init
     00014F02  A$map_00_init$143                  map_00_init
     00014F05  A$map_00_init$147                  map_00_init
     00014F05  C$map_00_init.c$38$1_0$170         map_00_init
     00014F08  A$map_00_init$148                  map_00_init
     00014F0A  A$map_00_init$152                  map_00_init
     00014F0A  C$map_00_init.c$39$1_0$170         map_00_init
     00014F0D  A$map_00_init$153                  map_00_init
     00014F0F  A$map_00_init$161                  map_00_init
     00014F0F  C$map_00_init.c$40$1_0$170         map_00_init
     00014F0F  XG$Map_00_Init$0$0                 map_00_init
     00014F10  A$map_00_update$60                 map_00_update
     00014F10  C$map_00_update.c$12$0_0$168       map_00_update
     00014F10  C$map_00_update.c$14$1_0$168       map_00_update
     00014F10  G$Map_00_Update$0$0                map_00_update
     00014F10  _Map_00_Update                     map_00_update
     00014F11  A$map_00_update$61                 map_00_update
     00014F14  A$map_00_update$65                 map_00_update
     00014F14  C$map_00_update.c$16$1_0$168       map_00_update
     00014F17  A$map_00_update$66                 map_00_update
     00014F18  A$map_00_update$70                 map_00_update
     00014F18  C$map_00_update.c$18$1_1$169       map_00_update
     00014F1B  A$map_00_update$71                 map_00_update
     00014F1C  A$map_00_update$72                 map_00_update
     00014F1D  A$map_00_update$73                 map_00_update
     00014F1E  A$map_00_update$74                 map_00_update
     00014F1F  A$map_00_update$75                 map_00_update
     00014F20  A$map_00_update$79                 map_00_update
     00014F20  C$map_00_update.c$20$1_1$169       map_00_update
     00014F21  A$map_00_update$80                 map_00_update
     00014F22  A$map_00_update$81                 map_00_update
     00014F25  A$map_00_update$82                 map_00_update
     00014F28  A$map_00_update$83                 map_00_update
     00014F29  A$map_00_update$84                 map_00_update
     00014F2A  A$map_00_update$88                 map_00_update
     00014F2A  C$map_00_update.c$21$1_1$169       map_00_update
     00014F2B  A$map_00_update$89                 map_00_update
     00014F2C  A$map_00_update$90                 map_00_update
     00014F2D  A$map_00_update$91                 map_00_update
     00014F2E  A$map_00_update$92                 map_00_update
     00014F2F  A$map_00_update$93                 map_00_update
     00014F32  A$map_00_update$97                 map_00_update
     00014F32  C$map_00_update.c$23$1_1$169       map_00_update
     00014F33  A$map_00_update$108                map_00_update
     00014F33  C$map_00_update.c$25$1_1$169       map_00_update
     00014F33  C$map_00_update.c$26$1_1$168       map_00_update
     00014F33  XG$Map_00_Update$0$0               map_00_update
     00014F36  G$map_01_collision$0_0$0           map_01_collision
     00014F36  _map_01_collision                  map_01_collision
ASxxxx Linker V03.00/V05.40 + sdld,  page 193.
Hexadecimal  [32-Bits]

Area                                    Addr        Size        Decimal Bytes (Attributes)
--------------------------------        ----        ----        ------- ----- ------------
_CODE_1                             00014000    00001B90 =        7056. bytes (REL,CON)

      Value  Global                              Global Defined In Module
      -----  --------------------------------   ------------------------
     0001509E  A$map_01_create$57                 map_01_create
     0001509E  C$map_01_create.c$6$0_0$32         map_01_create
     0001509E  C$map_01_create.c$8$1_0$32         map_01_create
     0001509E  G$Map_01_Create$0$0                map_01_create
     0001509E  _Map_01_Create                     map_01_create
     000150A1  A$map_01_create$58                 map_01_create
     000150A3  A$map_01_create$59                 map_01_create
     000150A4  A$map_01_create$60                 map_01_create
     000150A6  A$map_01_create$64                 map_01_create
     000150A6  C$map_01_create.c$9$1_0$32         map_01_create
     000150A7  A$map_01_create$65                 map_01_create
     000150A9  A$map_01_create$66                 map_01_create
     000150AA  A$map_01_create$67                 map_01_create
     000150AC  A$map_01_create$71                 map_01_create
     000150AC  C$map_01_create.c$10$1_0$32        map_01_create
     000150AF  A$map_01_create$72                 map_01_create
     000150B1  A$map_01_create$76                 map_01_create
     000150B1  C$map_01_create.c$11$1_0$32        map_01_create
     000150B4  A$map_01_create$77                 map_01_create
     000150B5  A$map_01_create$78                 map_01_create
     000150B6  A$map_01_create$79                 map_01_create
     000150B7  A$map_01_create$87                 map_01_create
     000150B7  C$map_01_create.c$12$1_0$32        map_01_create
     000150B7  XG$Map_01_Create$0$0               map_01_create
     000150B8  A$map_01_init$59                   map_01_init
     000150B8  C$map_01_init.c$15$0_0$170         map_01_init
     000150B8  C$map_01_init.c$17$1_0$170         map_01_init
     000150B8  G$Map_01_Init$0$0                  map_01_init
     000150B8  _Map_01_Init                       map_01_init
     000150B9  A$map_01_init$60                   map_01_init
     000150BC  A$map_01_init$61                   map_01_init
     000150BD  A$map_01_init$65                   map_01_init
     000150BD  C$map_01_init.c$19$1_0$170         map_01_init
     000150C0  A$map_01_init$66                   map_01_init
     000150C3  A$map_01_init$67                   map_01_init
     000150C4  A$map_01_init$71                   map_01_init
     000150C4  C$map_01_init.c$20$1_0$170         map_01_init
     000150C7  A$map_01_init$72                   map_01_init
     000150C9  A$map_01_init$73                   map_01_init
     000150CA  A$map_01_init$74                   map_01_init
     000150CC  A$map_01_init$78                   map_01_init
     000150CC  C$map_01_init.c$21$1_0$170         map_01_init
     000150CF  A$map_01_init$79                   map_01_init
     000150D1  A$map_01_init$83                   map_01_init
     000150D1  C$map_01_init.c$23$1_0$170         map_01_init
     000150D4  A$map_01_init$84                   map_01_init
     000150D6  A$map_01_init$88                   map_01_init
     000150D6  C$map_01_init.c$24$1_0$170         map_01_init
     000150D9  A$map_01_init$89                   map_01_init
     000150DB  A$map_01_init$93                   map_01_init
     000150DB  C$map_01_init.c$26$1_0$170         map_01_init
ASxxxx Linker V03.00/V05.40 + sdld,  page 194.
Hexadecimal  [32-Bits]

Area                                    Addr        Size        Decimal Bytes (Attributes)
--------------------------------        ----        ----        ------- ----- ------------
_CODE_1                             00014000    00001B90 =        7056. bytes (REL,CON)

      Value  Global                              Global Defined In Module
      -----  --------------------------------   ------------------------
     000150DE  A$map_01_init$94                   map_01_init
     000150E0  A$map_01_init$98                   map_01_init
     000150E0  C$map_01_init.c$27$1_0$170         map_01_init
     000150E3  A$map_01_init$99                   map_01_init
     000150E5  A$map_01_init$103                  map_01_init
     000150E5  C$map_01_init.c$28$1_0$170         map_01_init
     000150E8  A$map_01_init$104                  map_01_init
     000150EA  A$map_01_init$108                  map_01_init
     000150EA  C$map_01_init.c$29$1_0$170         map_01_init
     000150ED  A$map_01_init$109                  map_01_init
     000150EF  A$map_01_init$113                  map_01_init
     000150EF  C$map_01_init.c$31$1_0$170         map_01_init
     000150F2  A$map_01_init$114                  map_01_init
     000150F3  A$map_01_init$115                  map_01_init
     000150F5  A$map_01_init$116                  map_01_init
     000150F6  A$map_01_init$117                  map_01_init
     000150F8  A$map_01_init$121                  map_01_init
     000150F8  C$map_01_init.c$33$1_0$170         map_01_init
     000150FB  A$map_01_init$122                  map_01_init
     000150FC  A$map_01_init$123                  map_01_init
     000150FF  A$map_01_init$124                  map_01_init
     00015100  A$map_01_init$125                  map_01_init
     00015103  A$map_01_init$126                  map_01_init
     00015105  A$map_01_init$130                  map_01_init
     00015105  C$map_01_init.c$34$1_0$170         map_01_init
     00015108  A$map_01_init$131                  map_01_init
     00015109  A$map_01_init$132                  map_01_init
     0001510C  A$map_01_init$133                  map_01_init
     0001510D  A$map_01_init$134                  map_01_init
     0001510E  A$map_01_init$135                  map_01_init
     0001510F  A$map_01_init$136                  map_01_init
     00015110  A$map_01_init$137                  map_01_init
     00015113  A$map_01_init$138                  map_01_init
     00015115  A$map_01_init$142                  map_01_init
     00015115  C$map_01_init.c$36$1_0$170         map_01_init
     00015118  A$map_01_init$143                  map_01_init
     0001511B  A$map_01_init$147                  map_01_init
     0001511B  C$map_01_init.c$38$1_0$170         map_01_init
     0001511E  A$map_01_init$148                  map_01_init
     00015120  A$map_01_init$152                  map_01_init
     00015120  C$map_01_init.c$39$1_0$170         map_01_init
     00015123  A$map_01_init$153                  map_01_init
     00015125  A$map_01_init$161                  map_01_init
     00015125  C$map_01_init.c$40$1_0$170         map_01_init
     00015125  XG$Map_01_Init$0$0                 map_01_init
     00015126  A$map_01_update$60                 map_01_update
     00015126  C$map_01_update.c$12$0_0$168       map_01_update
     00015126  C$map_01_update.c$14$1_0$168       map_01_update
     00015126  G$Map_01_Update$0$0                map_01_update
     00015126  _Map_01_Update                     map_01_update
     00015127  A$map_01_update$61                 map_01_update
ASxxxx Linker V03.00/V05.40 + sdld,  page 195.
Hexadecimal  [32-Bits]

Area                                    Addr        Size        Decimal Bytes (Attributes)
--------------------------------        ----        ----        ------- ----- ------------
_CODE_1                             00014000    00001B90 =        7056. bytes (REL,CON)

      Value  Global                              Global Defined In Module
      -----  --------------------------------   ------------------------
     0001512A  A$map_01_update$65                 map_01_update
     0001512A  C$map_01_update.c$16$1_0$168       map_01_update
     0001512D  A$map_01_update$66                 map_01_update
     0001512E  A$map_01_update$70                 map_01_update
     0001512E  C$map_01_update.c$18$1_1$169       map_01_update
     00015131  A$map_01_update$71                 map_01_update
     00015132  A$map_01_update$72                 map_01_update
     00015133  A$map_01_update$73                 map_01_update
     00015134  A$map_01_update$74                 map_01_update
     00015135  A$map_01_update$75                 map_01_update
     00015136  A$map_01_update$79                 map_01_update
     00015136  C$map_01_update.c$20$1_1$169       map_01_update
     00015137  A$map_01_update$80                 map_01_update
     00015138  A$map_01_update$81                 map_01_update
     0001513B  A$map_01_update$82                 map_01_update
     0001513E  A$map_01_update$83                 map_01_update
     0001513F  A$map_01_update$84                 map_01_update
     00015140  A$map_01_update$88                 map_01_update
     00015140  C$map_01_update.c$21$1_1$169       map_01_update
     00015141  A$map_01_update$89                 map_01_update
     00015142  A$map_01_update$90                 map_01_update
     00015143  A$map_01_update$91                 map_01_update
     00015144  A$map_01_update$92                 map_01_update
     00015145  A$map_01_update$93                 map_01_update
     00015148  A$map_01_update$97                 map_01_update
     00015148  C$map_01_update.c$23$1_1$169       map_01_update
     00015149  A$map_01_update$108                map_01_update
     00015149  C$map_01_update.c$25$1_1$169       map_01_update
     00015149  C$map_01_update.c$26$1_1$168       map_01_update
     00015149  XG$Map_01_Update$0$0               map_01_update
     0001514C  G$map_02_collision$0_0$0           map_02_collision
     0001514C  _map_02_collision                  map_02_collision
     000152B4  A$map_02_create$57                 map_02_create
     000152B4  C$map_02_create.c$6$0_0$32         map_02_create
     000152B4  C$map_02_create.c$8$1_0$32         map_02_create
     000152B4  G$Map_02_Create$0$0                map_02_create
     000152B4  _Map_02_Create                     map_02_create
     000152B7  A$map_02_create$58                 map_02_create
     000152B9  A$map_02_create$59                 map_02_create
     000152BA  A$map_02_create$60                 map_02_create
     000152BC  A$map_02_create$64                 map_02_create
     000152BC  C$map_02_create.c$9$1_0$32         map_02_create
     000152BD  A$map_02_create$65                 map_02_create
     000152BF  A$map_02_create$66                 map_02_create
     000152C0  A$map_02_create$67                 map_02_create
     000152C2  A$map_02_create$71                 map_02_create
     000152C2  C$map_02_create.c$10$1_0$32        map_02_create
     000152C5  A$map_02_create$72                 map_02_create
     000152C7  A$map_02_create$76                 map_02_create
     000152C7  C$map_02_create.c$11$1_0$32        map_02_create
     000152CA  A$map_02_create$77                 map_02_create
ASxxxx Linker V03.00/V05.40 + sdld,  page 196.
Hexadecimal  [32-Bits]

Area                                    Addr        Size        Decimal Bytes (Attributes)
--------------------------------        ----        ----        ------- ----- ------------
_CODE_1                             00014000    00001B90 =        7056. bytes (REL,CON)

      Value  Global                              Global Defined In Module
      -----  --------------------------------   ------------------------
     000152CB  A$map_02_create$78                 map_02_create
     000152CC  A$map_02_create$79                 map_02_create
     000152CD  A$map_02_create$87                 map_02_create
     000152CD  C$map_02_create.c$12$1_0$32        map_02_create
     000152CD  XG$Map_02_Create$0$0               map_02_create
     000152CE  A$map_02_init$59                   map_02_init
     000152CE  C$map_02_init.c$15$0_0$170         map_02_init
     000152CE  C$map_02_init.c$17$1_0$170         map_02_init
     000152CE  G$Map_02_Init$0$0                  map_02_init
     000152CE  _Map_02_Init                       map_02_init
     000152CF  A$map_02_init$60                   map_02_init
     000152D2  A$map_02_init$61                   map_02_init
     000152D3  A$map_02_init$65                   map_02_init
     000152D3  C$map_02_init.c$19$1_0$170         map_02_init
     000152D6  A$map_02_init$66                   map_02_init
     000152D9  A$map_02_init$67                   map_02_init
     000152DA  A$map_02_init$71                   map_02_init
     000152DA  C$map_02_init.c$20$1_0$170         map_02_init
     000152DD  A$map_02_init$72                   map_02_init
     000152DF  A$map_02_init$73                   map_02_init
     000152E0  A$map_02_init$74                   map_02_init
     000152E2  A$map_02_init$78                   map_02_init
     000152E2  C$map_02_init.c$21$1_0$170         map_02_init
     000152E5  A$map_02_init$79                   map_02_init
     000152E7  A$map_02_init$83                   map_02_init
     000152E7  C$map_02_init.c$23$1_0$170         map_02_init
     000152EA  A$map_02_init$84                   map_02_init
     000152EC  A$map_02_init$88                   map_02_init
     000152EC  C$map_02_init.c$24$1_0$170         map_02_init
     000152EF  A$map_02_init$89                   map_02_init
     000152F1  A$map_02_init$93                   map_02_init
     000152F1  C$map_02_init.c$26$1_0$170         map_02_init
     000152F4  A$map_02_init$94                   map_02_init
     000152F6  A$map_02_init$98                   map_02_init
     000152F6  C$map_02_init.c$27$1_0$170         map_02_init
     000152F9  A$map_02_init$99                   map_02_init
     000152FB  A$map_02_init$103                  map_02_init
     000152FB  C$map_02_init.c$28$1_0$170         map_02_init
     000152FE  A$map_02_init$104                  map_02_init
     00015300  A$map_02_init$108                  map_02_init
     00015300  C$map_02_init.c$29$1_0$170         map_02_init
     00015303  A$map_02_init$109                  map_02_init
     00015305  A$map_02_init$113                  map_02_init
     00015305  C$map_02_init.c$31$1_0$170         map_02_init
     00015308  A$map_02_init$114                  map_02_init
     00015309  A$map_02_init$115                  map_02_init
     0001530B  A$map_02_init$116                  map_02_init
     0001530C  A$map_02_init$117                  map_02_init
     0001530E  A$map_02_init$121                  map_02_init
     0001530E  C$map_02_init.c$33$1_0$170         map_02_init
     00015311  A$map_02_init$122                  map_02_init
ASxxxx Linker V03.00/V05.40 + sdld,  page 197.
Hexadecimal  [32-Bits]

Area                                    Addr        Size        Decimal Bytes (Attributes)
--------------------------------        ----        ----        ------- ----- ------------
_CODE_1                             00014000    00001B90 =        7056. bytes (REL,CON)

      Value  Global                              Global Defined In Module
      -----  --------------------------------   ------------------------
     00015312  A$map_02_init$123                  map_02_init
     00015315  A$map_02_init$124                  map_02_init
     00015316  A$map_02_init$125                  map_02_init
     00015319  A$map_02_init$126                  map_02_init
     0001531B  A$map_02_init$130                  map_02_init
     0001531B  C$map_02_init.c$34$1_0$170         map_02_init
     0001531E  A$map_02_init$131                  map_02_init
     0001531F  A$map_02_init$132                  map_02_init
     00015322  A$map_02_init$133                  map_02_init
     00015323  A$map_02_init$134                  map_02_init
     00015324  A$map_02_init$135                  map_02_init
     00015325  A$map_02_init$136                  map_02_init
     00015326  A$map_02_init$137                  map_02_init
     00015329  A$map_02_init$138                  map_02_init
     0001532B  A$map_02_init$142                  map_02_init
     0001532B  C$map_02_init.c$36$1_0$170         map_02_init
     0001532E  A$map_02_init$143                  map_02_init
     00015331  A$map_02_init$147                  map_02_init
     00015331  C$map_02_init.c$38$1_0$170         map_02_init
     00015334  A$map_02_init$148                  map_02_init
     00015336  A$map_02_init$152                  map_02_init
     00015336  C$map_02_init.c$39$1_0$170         map_02_init
     00015339  A$map_02_init$153                  map_02_init
     0001533B  A$map_02_init$161                  map_02_init
     0001533B  C$map_02_init.c$40$1_0$170         map_02_init
     0001533B  XG$Map_02_Init$0$0                 map_02_init
     0001533C  A$map_02_update$60                 map_02_update
     0001533C  C$map_02_update.c$12$0_0$168       map_02_update
     0001533C  C$map_02_update.c$14$1_0$168       map_02_update
     0001533C  G$Map_02_Update$0$0                map_02_update
     0001533C  _Map_02_Update                     map_02_update
     0001533D  A$map_02_update$61                 map_02_update
     00015340  A$map_02_update$65                 map_02_update
     00015340  C$map_02_update.c$16$1_0$168       map_02_update
     00015343  A$map_02_update$66                 map_02_update
     00015344  A$map_02_update$70                 map_02_update
     00015344  C$map_02_update.c$18$1_1$169       map_02_update
     00015347  A$map_02_update$71                 map_02_update
     00015348  A$map_02_update$72                 map_02_update
     00015349  A$map_02_update$73                 map_02_update
     0001534A  A$map_02_update$74                 map_02_update
     0001534B  A$map_02_update$75                 map_02_update
     0001534C  A$map_02_update$79                 map_02_update
     0001534C  C$map_02_update.c$20$1_1$169       map_02_update
     0001534D  A$map_02_update$80                 map_02_update
     0001534E  A$map_02_update$81                 map_02_update
     00015351  A$map_02_update$82                 map_02_update
     00015354  A$map_02_update$83                 map_02_update
     00015355  A$map_02_update$84                 map_02_update
     00015356  A$map_02_update$88                 map_02_update
     00015356  C$map_02_update.c$21$1_1$169       map_02_update
ASxxxx Linker V03.00/V05.40 + sdld,  page 198.
Hexadecimal  [32-Bits]

Area                                    Addr        Size        Decimal Bytes (Attributes)
--------------------------------        ----        ----        ------- ----- ------------
_CODE_1                             00014000    00001B90 =        7056. bytes (REL,CON)

      Value  Global                              Global Defined In Module
      -----  --------------------------------   ------------------------
     00015357  A$map_02_update$89                 map_02_update
     00015358  A$map_02_update$90                 map_02_update
     00015359  A$map_02_update$91                 map_02_update
     0001535A  A$map_02_update$92                 map_02_update
     0001535B  A$map_02_update$93                 map_02_update
     0001535E  A$map_02_update$97                 map_02_update
     0001535E  C$map_02_update.c$23$1_1$169       map_02_update
     0001535F  A$map_02_update$108                map_02_update
     0001535F  C$map_02_update.c$25$1_1$169       map_02_update
     0001535F  C$map_02_update.c$26$1_1$168       map_02_update
     0001535F  XG$Map_02_Update$0$0               map_02_update
     00015362  G$map_03_collision$0_0$0           map_03_collision
     00015362  _map_03_collision                  map_03_collision
     000154CA  A$map_03_create$57                 map_03_create
     000154CA  C$map_03_create.c$6$0_0$32         map_03_create
     000154CA  C$map_03_create.c$8$1_0$32         map_03_create
     000154CA  G$Map_03_Create$0$0                map_03_create
     000154CA  _Map_03_Create                     map_03_create
     000154CD  A$map_03_create$58                 map_03_create
     000154CF  A$map_03_create$59                 map_03_create
     000154D0  A$map_03_create$60                 map_03_create
     000154D2  A$map_03_create$64                 map_03_create
     000154D2  C$map_03_create.c$9$1_0$32         map_03_create
     000154D3  A$map_03_create$65                 map_03_create
     000154D5  A$map_03_create$66                 map_03_create
     000154D6  A$map_03_create$67                 map_03_create
     000154D8  A$map_03_create$71                 map_03_create
     000154D8  C$map_03_create.c$10$1_0$32        map_03_create
     000154DB  A$map_03_create$72                 map_03_create
     000154DD  A$map_03_create$76                 map_03_create
     000154DD  C$map_03_create.c$11$1_0$32        map_03_create
     000154E0  A$map_03_create$77                 map_03_create
     000154E1  A$map_03_create$78                 map_03_create
     000154E2  A$map_03_create$79                 map_03_create
     000154E3  A$map_03_create$87                 map_03_create
     000154E3  C$map_03_create.c$12$1_0$32        map_03_create
     000154E3  XG$Map_03_Create$0$0               map_03_create
     000154E4  A$map_03_init$59                   map_03_init
     000154E4  C$map_03_init.c$15$0_0$170         map_03_init
     000154E4  C$map_03_init.c$17$1_0$170         map_03_init
     000154E4  G$Map_03_Init$0$0                  map_03_init
     000154E4  _Map_03_Init                       map_03_init
     000154E5  A$map_03_init$60                   map_03_init
     000154E8  A$map_03_init$61                   map_03_init
     000154E9  A$map_03_init$65                   map_03_init
     000154E9  C$map_03_init.c$19$1_0$170         map_03_init
     000154EC  A$map_03_init$66                   map_03_init
     000154EF  A$map_03_init$67                   map_03_init
     000154F0  A$map_03_init$71                   map_03_init
     000154F0  C$map_03_init.c$20$1_0$170         map_03_init
     000154F3  A$map_03_init$72                   map_03_init
ASxxxx Linker V03.00/V05.40 + sdld,  page 199.
Hexadecimal  [32-Bits]

Area                                    Addr        Size        Decimal Bytes (Attributes)
--------------------------------        ----        ----        ------- ----- ------------
_CODE_1                             00014000    00001B90 =        7056. bytes (REL,CON)

      Value  Global                              Global Defined In Module
      -----  --------------------------------   ------------------------
     000154F5  A$map_03_init$73                   map_03_init
     000154F6  A$map_03_init$74                   map_03_init
     000154F8  A$map_03_init$78                   map_03_init
     000154F8  C$map_03_init.c$21$1_0$170         map_03_init
     000154FB  A$map_03_init$79                   map_03_init
     000154FD  A$map_03_init$83                   map_03_init
     000154FD  C$map_03_init.c$23$1_0$170         map_03_init
     00015500  A$map_03_init$84                   map_03_init
     00015502  A$map_03_init$88                   map_03_init
     00015502  C$map_03_init.c$24$1_0$170         map_03_init
     00015505  A$map_03_init$89                   map_03_init
     00015507  A$map_03_init$93                   map_03_init
     00015507  C$map_03_init.c$26$1_0$170         map_03_init
     0001550A  A$map_03_init$94                   map_03_init
     0001550C  A$map_03_init$98                   map_03_init
     0001550C  C$map_03_init.c$27$1_0$170         map_03_init
     0001550F  A$map_03_init$99                   map_03_init
     00015511  A$map_03_init$103                  map_03_init
     00015511  C$map_03_init.c$28$1_0$170         map_03_init
     00015514  A$map_03_init$104                  map_03_init
     00015516  A$map_03_init$108                  map_03_init
     00015516  C$map_03_init.c$29$1_0$170         map_03_init
     00015519  A$map_03_init$109                  map_03_init
     0001551B  A$map_03_init$113                  map_03_init
     0001551B  C$map_03_init.c$31$1_0$170         map_03_init
     0001551E  A$map_03_init$114                  map_03_init
     0001551F  A$map_03_init$115                  map_03_init
     00015521  A$map_03_init$116                  map_03_init
     00015522  A$map_03_init$117                  map_03_init
     00015524  A$map_03_init$121                  map_03_init
     00015524  C$map_03_init.c$33$1_0$170         map_03_init
     00015527  A$map_03_init$122                  map_03_init
     00015528  A$map_03_init$123                  map_03_init
     0001552B  A$map_03_init$124                  map_03_init
     0001552C  A$map_03_init$125                  map_03_init
     0001552F  A$map_03_init$126                  map_03_init
     00015531  A$map_03_init$130                  map_03_init
     00015531  C$map_03_init.c$34$1_0$170         map_03_init
     00015534  A$map_03_init$131                  map_03_init
     00015535  A$map_03_init$132                  map_03_init
     00015538  A$map_03_init$133                  map_03_init
     00015539  A$map_03_init$134                  map_03_init
     0001553A  A$map_03_init$135                  map_03_init
     0001553B  A$map_03_init$136                  map_03_init
     0001553C  A$map_03_init$137                  map_03_init
     0001553F  A$map_03_init$138                  map_03_init
     00015541  A$map_03_init$142                  map_03_init
     00015541  C$map_03_init.c$36$1_0$170         map_03_init
     00015544  A$map_03_init$143                  map_03_init
     00015547  A$map_03_init$147                  map_03_init
     00015547  C$map_03_init.c$38$1_0$170         map_03_init
ASxxxx Linker V03.00/V05.40 + sdld,  page 200.
Hexadecimal  [32-Bits]

Area                                    Addr        Size        Decimal Bytes (Attributes)
--------------------------------        ----        ----        ------- ----- ------------
_CODE_1                             00014000    00001B90 =        7056. bytes (REL,CON)

      Value  Global                              Global Defined In Module
      -----  --------------------------------   ------------------------
     0001554A  A$map_03_init$148                  map_03_init
     0001554C  A$map_03_init$152                  map_03_init
     0001554C  C$map_03_init.c$39$1_0$170         map_03_init
     0001554F  A$map_03_init$153                  map_03_init
     00015551  A$map_03_init$161                  map_03_init
     00015551  C$map_03_init.c$40$1_0$170         map_03_init
     00015551  XG$Map_03_Init$0$0                 map_03_init
     00015552  A$map_03_update$60                 map_03_update
     00015552  C$map_03_update.c$12$0_0$168       map_03_update
     00015552  C$map_03_update.c$14$1_0$168       map_03_update
     00015552  G$Map_03_Update$0$0                map_03_update
     00015552  _Map_03_Update                     map_03_update
     00015553  A$map_03_update$61                 map_03_update
     00015556  A$map_03_update$65                 map_03_update
     00015556  C$map_03_update.c$16$1_0$168       map_03_update
     00015559  A$map_03_update$66                 map_03_update
     0001555A  A$map_03_update$70                 map_03_update
     0001555A  C$map_03_update.c$18$1_1$169       map_03_update
     0001555D  A$map_03_update$71                 map_03_update
     0001555E  A$map_03_update$72                 map_03_update
     0001555F  A$map_03_update$73                 map_03_update
     00015560  A$map_03_update$74                 map_03_update
     00015561  A$map_03_update$75                 map_03_update
     00015562  A$map_03_update$79                 map_03_update
     00015562  C$map_03_update.c$20$1_1$169       map_03_update
     00015563  A$map_03_update$80                 map_03_update
     00015564  A$map_03_update$81                 map_03_update
     00015567  A$map_03_update$82                 map_03_update
     0001556A  A$map_03_update$83                 map_03_update
     0001556B  A$map_03_update$84                 map_03_update
     0001556C  A$map_03_update$88                 map_03_update
     0001556C  C$map_03_update.c$21$1_1$169       map_03_update
     0001556D  A$map_03_update$89                 map_03_update
     0001556E  A$map_03_update$90                 map_03_update
     0001556F  A$map_03_update$91                 map_03_update
     00015570  A$map_03_update$92                 map_03_update
     00015571  A$map_03_update$93                 map_03_update
     00015574  A$map_03_update$97                 map_03_update
     00015574  C$map_03_update.c$23$1_1$169       map_03_update
     00015575  A$map_03_update$108                map_03_update
     00015575  C$map_03_update.c$25$1_1$169       map_03_update
     00015575  C$map_03_update.c$26$1_1$168       map_03_update
     00015575  XG$Map_03_Update$0$0               map_03_update
     00015578  G$example_tileset$0_0$0            map_example
     00015578  _example_tileset                   map_example
     00015A28  G$example_tilemap$0_0$0            map_example
     00015A28  _example_tilemap                   map_example

ASxxxx Linker V03.00/V05.40 + sdld,  page 201.
Hexadecimal  [32-Bits]

Area                                    Addr        Size        Decimal Bytes (Attributes)
--------------------------------        ----        ----        ------- ----- ------------
_CODE_2                             00024000    00001EFB =        7931. bytes (REL,CON)

      Value  Global                              Global Defined In Module
      -----  --------------------------------   ------------------------
     00024000  G$map_1_0_tileset$0_0$0            map_1_0
     00024000  _map_1_0_tileset                   map_1_0
     000241E0  G$map_1_0_tilemap$0_0$0            map_1_0
     000241E0  _map_1_0_tilemap                   map_1_0
     00024348  G$map_1_1_tileset$0_0$0            map_1_1
     00024348  _map_1_1_tileset                   map_1_1
     00024528  G$map_1_1_tilemap$0_0$0            map_1_1
     00024528  _map_1_1_tilemap                   map_1_1
     00024690  G$map_1_2_tileset$0_0$0            map_1_2
     00024690  _map_1_2_tileset                   map_1_2
     00024870  G$map_1_2_tilemap$0_0$0            map_1_2
     00024870  _map_1_2_tilemap                   map_1_2
     000249D8  G$map_1_3_tileset$0_0$0            map_1_3
     000249D8  _map_1_3_tileset                   map_1_3
     00024BB8  G$map_1_3_tilemap$0_0$0            map_1_3
     00024BB8  _map_1_3_tilemap                   map_1_3
     00024D20  G$map_10_collision$0_0$0           map_10_collision
     00024D20  _map_10_collision                  map_10_collision
     00024E88  A$map_10_create$57                 map_10_create
     00024E88  C$map_10_create.c$6$0_0$32         map_10_create
     00024E88  C$map_10_create.c$8$1_0$32         map_10_create
     00024E88  G$Map_10_Create$0$0                map_10_create
     00024E88  _Map_10_Create                     map_10_create
     00024E8B  A$map_10_create$58                 map_10_create
     00024E8D  A$map_10_create$59                 map_10_create
     00024E8E  A$map_10_create$60                 map_10_create
     00024E90  A$map_10_create$64                 map_10_create
     00024E90  C$map_10_create.c$9$1_0$32         map_10_create
     00024E91  A$map_10_create$65                 map_10_create
     00024E93  A$map_10_create$66                 map_10_create
     00024E94  A$map_10_create$67                 map_10_create
     00024E96  A$map_10_create$71                 map_10_create
     00024E96  C$map_10_create.c$10$1_0$32        map_10_create
     00024E99  A$map_10_create$72                 map_10_create
     00024E9B  A$map_10_create$76                 map_10_create
     00024E9B  C$map_10_create.c$11$1_0$32        map_10_create
     00024E9E  A$map_10_create$77                 map_10_create
     00024E9F  A$map_10_create$78                 map_10_create
     00024EA0  A$map_10_create$79                 map_10_create
     00024EA1  A$map_10_create$87                 map_10_create
     00024EA1  C$map_10_create.c$12$1_0$32        map_10_create
     00024EA1  XG$Map_10_Create$0$0               map_10_create
     00024EA2  A$map_10_init$59                   map_10_init
     00024EA2  C$map_10_init.c$15$0_0$170         map_10_init
     00024EA2  C$map_10_init.c$17$1_0$170         map_10_init
     00024EA2  G$Map_10_Init$0$0                  map_10_init
     00024EA2  _Map_10_Init                       map_10_init
     00024EA3  A$map_10_init$60                   map_10_init
     00024EA6  A$map_10_init$61                   map_10_init
     00024EA7  A$map_10_init$65                   map_10_init
ASxxxx Linker V03.00/V05.40 + sdld,  page 202.
Hexadecimal  [32-Bits]

Area                                    Addr        Size        Decimal Bytes (Attributes)
--------------------------------        ----        ----        ------- ----- ------------
_CODE_2                             00024000    00001EFB =        7931. bytes (REL,CON)

      Value  Global                              Global Defined In Module
      -----  --------------------------------   ------------------------
     00024EA7  C$map_10_init.c$19$1_0$170         map_10_init
     00024EAA  A$map_10_init$66                   map_10_init
     00024EAD  A$map_10_init$67                   map_10_init
     00024EAE  A$map_10_init$71                   map_10_init
     00024EAE  C$map_10_init.c$20$1_0$170         map_10_init
     00024EB1  A$map_10_init$72                   map_10_init
     00024EB3  A$map_10_init$73                   map_10_init
     00024EB4  A$map_10_init$74                   map_10_init
     00024EB6  A$map_10_init$78                   map_10_init
     00024EB6  C$map_10_init.c$21$1_0$170         map_10_init
     00024EB9  A$map_10_init$79                   map_10_init
     00024EBB  A$map_10_init$83                   map_10_init
     00024EBB  C$map_10_init.c$23$1_0$170         map_10_init
     00024EBE  A$map_10_init$84                   map_10_init
     00024EC0  A$map_10_init$88                   map_10_init
     00024EC0  C$map_10_init.c$24$1_0$170         map_10_init
     00024EC3  A$map_10_init$89                   map_10_init
     00024EC5  A$map_10_init$93                   map_10_init
     00024EC5  C$map_10_init.c$26$1_0$170         map_10_init
     00024EC8  A$map_10_init$94                   map_10_init
     00024ECA  A$map_10_init$98                   map_10_init
     00024ECA  C$map_10_init.c$27$1_0$170         map_10_init
     00024ECD  A$map_10_init$99                   map_10_init
     00024ECF  A$map_10_init$103                  map_10_init
     00024ECF  C$map_10_init.c$28$1_0$170         map_10_init
     00024ED2  A$map_10_init$104                  map_10_init
     00024ED4  A$map_10_init$108                  map_10_init
     00024ED4  C$map_10_init.c$29$1_0$170         map_10_init
     00024ED7  A$map_10_init$109                  map_10_init
     00024ED9  A$map_10_init$113                  map_10_init
     00024ED9  C$map_10_init.c$31$1_0$170         map_10_init
     00024EDC  A$map_10_init$114                  map_10_init
     00024EDD  A$map_10_init$115                  map_10_init
     00024EDF  A$map_10_init$116                  map_10_init
     00024EE0  A$map_10_init$117                  map_10_init
     00024EE2  A$map_10_init$121                  map_10_init
     00024EE2  C$map_10_init.c$33$1_0$170         map_10_init
     00024EE5  A$map_10_init$122                  map_10_init
     00024EE6  A$map_10_init$123                  map_10_init
     00024EE9  A$map_10_init$124                  map_10_init
     00024EEA  A$map_10_init$125                  map_10_init
     00024EED  A$map_10_init$126                  map_10_init
     00024EEF  A$map_10_init$130                  map_10_init
     00024EEF  C$map_10_init.c$34$1_0$170         map_10_init
     00024EF2  A$map_10_init$131                  map_10_init
     00024EF3  A$map_10_init$132                  map_10_init
     00024EF6  A$map_10_init$133                  map_10_init
     00024EF7  A$map_10_init$134                  map_10_init
     00024EF8  A$map_10_init$135                  map_10_init
     00024EF9  A$map_10_init$136                  map_10_init
     00024EFA  A$map_10_init$137                  map_10_init
ASxxxx Linker V03.00/V05.40 + sdld,  page 203.
Hexadecimal  [32-Bits]

Area                                    Addr        Size        Decimal Bytes (Attributes)
--------------------------------        ----        ----        ------- ----- ------------
_CODE_2                             00024000    00001EFB =        7931. bytes (REL,CON)

      Value  Global                              Global Defined In Module
      -----  --------------------------------   ------------------------
     00024EFD  A$map_10_init$138                  map_10_init
     00024EFF  A$map_10_init$142                  map_10_init
     00024EFF  C$map_10_init.c$36$1_0$170         map_10_init
     00024F02  A$map_10_init$143                  map_10_init
     00024F05  A$map_10_init$147                  map_10_init
     00024F05  C$map_10_init.c$38$1_0$170         map_10_init
     00024F08  A$map_10_init$148                  map_10_init
     00024F0A  A$map_10_init$152                  map_10_init
     00024F0A  C$map_10_init.c$39$1_0$170         map_10_init
     00024F0D  A$map_10_init$153                  map_10_init
     00024F0F  A$map_10_init$161                  map_10_init
     00024F0F  C$map_10_init.c$40$1_0$170         map_10_init
     00024F0F  XG$Map_10_Init$0$0                 map_10_init
     00024F10  A$map_10_update$60                 map_10_update
     00024F10  C$map_10_update.c$12$0_0$168       map_10_update
     00024F10  C$map_10_update.c$14$1_0$168       map_10_update
     00024F10  G$Map_10_Update$0$0                map_10_update
     00024F10  _Map_10_Update                     map_10_update
     00024F11  A$map_10_update$61                 map_10_update
     00024F14  A$map_10_update$65                 map_10_update
     00024F14  C$map_10_update.c$16$1_0$168       map_10_update
     00024F17  A$map_10_update$66                 map_10_update
     00024F18  A$map_10_update$70                 map_10_update
     00024F18  C$map_10_update.c$18$1_1$169       map_10_update
     00024F1B  A$map_10_update$71                 map_10_update
     00024F1C  A$map_10_update$72                 map_10_update
     00024F1D  A$map_10_update$73                 map_10_update
     00024F1E  A$map_10_update$74                 map_10_update
     00024F1F  A$map_10_update$75                 map_10_update
     00024F20  A$map_10_update$79                 map_10_update
     00024F20  C$map_10_update.c$20$1_1$169       map_10_update
     00024F21  A$map_10_update$80                 map_10_update
     00024F22  A$map_10_update$81                 map_10_update
     00024F25  A$map_10_update$82                 map_10_update
     00024F28  A$map_10_update$83                 map_10_update
     00024F29  A$map_10_update$84                 map_10_update
     00024F2A  A$map_10_update$88                 map_10_update
     00024F2A  C$map_10_update.c$21$1_1$169       map_10_update
     00024F2B  A$map_10_update$89                 map_10_update
     00024F2C  A$map_10_update$90                 map_10_update
     00024F2D  A$map_10_update$91                 map_10_update
     00024F2E  A$map_10_update$92                 map_10_update
     00024F2F  A$map_10_update$93                 map_10_update
     00024F32  A$map_10_update$97                 map_10_update
     00024F32  C$map_10_update.c$23$1_1$169       map_10_update
     00024F33  A$map_10_update$108                map_10_update
     00024F33  C$map_10_update.c$25$1_1$169       map_10_update
     00024F33  C$map_10_update.c$26$1_1$168       map_10_update
     00024F33  XG$Map_10_Update$0$0               map_10_update
     00024F36  G$map_11_collision$0_0$0           map_11_collision
     00024F36  _map_11_collision                  map_11_collision
ASxxxx Linker V03.00/V05.40 + sdld,  page 204.
Hexadecimal  [32-Bits]

Area                                    Addr        Size        Decimal Bytes (Attributes)
--------------------------------        ----        ----        ------- ----- ------------
_CODE_2                             00024000    00001EFB =        7931. bytes (REL,CON)

      Value  Global                              Global Defined In Module
      -----  --------------------------------   ------------------------
     0002509E  A$map_11_create$57                 map_11_create
     0002509E  C$map_11_create.c$6$0_0$32         map_11_create
     0002509E  C$map_11_create.c$8$1_0$32         map_11_create
     0002509E  G$Map_11_Create$0$0                map_11_create
     0002509E  _Map_11_Create                     map_11_create
     000250A1  A$map_11_create$58                 map_11_create
     000250A3  A$map_11_create$59                 map_11_create
     000250A4  A$map_11_create$60                 map_11_create
     000250A6  A$map_11_create$64                 map_11_create
     000250A6  C$map_11_create.c$9$1_0$32         map_11_create
     000250A7  A$map_11_create$65                 map_11_create
     000250A9  A$map_11_create$66                 map_11_create
     000250AA  A$map_11_create$67                 map_11_create
     000250AC  A$map_11_create$71                 map_11_create
     000250AC  C$map_11_create.c$10$1_0$32        map_11_create
     000250AF  A$map_11_create$72                 map_11_create
     000250B1  A$map_11_create$76                 map_11_create
     000250B1  C$map_11_create.c$11$1_0$32        map_11_create
     000250B4  A$map_11_create$77                 map_11_create
     000250B5  A$map_11_create$78                 map_11_create
     000250B6  A$map_11_create$79                 map_11_create
     000250B7  A$map_11_create$87                 map_11_create
     000250B7  C$map_11_create.c$12$1_0$32        map_11_create
     000250B7  XG$Map_11_Create$0$0               map_11_create
     000250B8  A$map_11_init$59                   map_11_init
     000250B8  C$map_11_init.c$15$0_0$170         map_11_init
     000250B8  C$map_11_init.c$17$1_0$170         map_11_init
     000250B8  G$Map_11_Init$0$0                  map_11_init
     000250B8  _Map_11_Init                       map_11_init
     000250B9  A$map_11_init$60                   map_11_init
     000250BC  A$map_11_init$61                   map_11_init
     000250BD  A$map_11_init$65                   map_11_init
     000250BD  C$map_11_init.c$19$1_0$170         map_11_init
     000250C0  A$map_11_init$66                   map_11_init
     000250C3  A$map_11_init$67                   map_11_init
     000250C4  A$map_11_init$71                   map_11_init
     000250C4  C$map_11_init.c$20$1_0$170         map_11_init
     000250C7  A$map_11_init$72                   map_11_init
     000250C9  A$map_11_init$73                   map_11_init
     000250CA  A$map_11_init$74                   map_11_init
     000250CC  A$map_11_init$78                   map_11_init
     000250CC  C$map_11_init.c$21$1_0$170         map_11_init
     000250CF  A$map_11_init$79                   map_11_init
     000250D1  A$map_11_init$83                   map_11_init
     000250D1  C$map_11_init.c$23$1_0$170         map_11_init
     000250D4  A$map_11_init$84                   map_11_init
     000250D6  A$map_11_init$88                   map_11_init
     000250D6  C$map_11_init.c$24$1_0$170         map_11_init
     000250D9  A$map_11_init$89                   map_11_init
     000250DB  A$map_11_init$93                   map_11_init
     000250DB  C$map_11_init.c$26$1_0$170         map_11_init
ASxxxx Linker V03.00/V05.40 + sdld,  page 205.
Hexadecimal  [32-Bits]

Area                                    Addr        Size        Decimal Bytes (Attributes)
--------------------------------        ----        ----        ------- ----- ------------
_CODE_2                             00024000    00001EFB =        7931. bytes (REL,CON)

      Value  Global                              Global Defined In Module
      -----  --------------------------------   ------------------------
     000250DE  A$map_11_init$94                   map_11_init
     000250E0  A$map_11_init$98                   map_11_init
     000250E0  C$map_11_init.c$27$1_0$170         map_11_init
     000250E3  A$map_11_init$99                   map_11_init
     000250E5  A$map_11_init$103                  map_11_init
     000250E5  C$map_11_init.c$28$1_0$170         map_11_init
     000250E8  A$map_11_init$104                  map_11_init
     000250EA  A$map_11_init$108                  map_11_init
     000250EA  C$map_11_init.c$29$1_0$170         map_11_init
     000250ED  A$map_11_init$109                  map_11_init
     000250EF  A$map_11_init$113                  map_11_init
     000250EF  C$map_11_init.c$31$1_0$170         map_11_init
     000250F2  A$map_11_init$114                  map_11_init
     000250F3  A$map_11_init$115                  map_11_init
     000250F5  A$map_11_init$116                  map_11_init
     000250F6  A$map_11_init$117                  map_11_init
     000250F8  A$map_11_init$121                  map_11_init
     000250F8  C$map_11_init.c$33$1_0$170         map_11_init
     000250FB  A$map_11_init$122                  map_11_init
     000250FC  A$map_11_init$123                  map_11_init
     000250FF  A$map_11_init$124                  map_11_init
     00025100  A$map_11_init$125                  map_11_init
     00025103  A$map_11_init$126                  map_11_init
     00025105  A$map_11_init$130                  map_11_init
     00025105  C$map_11_init.c$34$1_0$170         map_11_init
     00025108  A$map_11_init$131                  map_11_init
     00025109  A$map_11_init$132                  map_11_init
     0002510C  A$map_11_init$133                  map_11_init
     0002510D  A$map_11_init$134                  map_11_init
     0002510E  A$map_11_init$135                  map_11_init
     0002510F  A$map_11_init$136                  map_11_init
     00025110  A$map_11_init$137                  map_11_init
     00025113  A$map_11_init$138                  map_11_init
     00025115  A$map_11_init$142                  map_11_init
     00025115  C$map_11_init.c$36$1_0$170         map_11_init
     00025118  A$map_11_init$143                  map_11_init
     0002511B  A$map_11_init$147                  map_11_init
     0002511B  C$map_11_init.c$38$1_0$170         map_11_init
     0002511E  A$map_11_init$148                  map_11_init
     00025120  A$map_11_init$152                  map_11_init
     00025120  C$map_11_init.c$39$1_0$170         map_11_init
     00025123  A$map_11_init$153                  map_11_init
     00025125  A$map_11_init$161                  map_11_init
     00025125  C$map_11_init.c$40$1_0$170         map_11_init
     00025125  XG$Map_11_Init$0$0                 map_11_init
     00025126  A$map_11_update$60                 map_11_update
     00025126  C$map_11_update.c$12$0_0$168       map_11_update
     00025126  C$map_11_update.c$14$1_0$168       map_11_update
     00025126  G$Map_11_Update$0$0                map_11_update
     00025126  _Map_11_Update                     map_11_update
     00025127  A$map_11_update$61                 map_11_update
ASxxxx Linker V03.00/V05.40 + sdld,  page 206.
Hexadecimal  [32-Bits]

Area                                    Addr        Size        Decimal Bytes (Attributes)
--------------------------------        ----        ----        ------- ----- ------------
_CODE_2                             00024000    00001EFB =        7931. bytes (REL,CON)

      Value  Global                              Global Defined In Module
      -----  --------------------------------   ------------------------
     0002512A  A$map_11_update$65                 map_11_update
     0002512A  C$map_11_update.c$16$1_0$168       map_11_update
     0002512D  A$map_11_update$66                 map_11_update
     0002512E  A$map_11_update$70                 map_11_update
     0002512E  C$map_11_update.c$18$1_1$169       map_11_update
     00025131  A$map_11_update$71                 map_11_update
     00025132  A$map_11_update$72                 map_11_update
     00025133  A$map_11_update$73                 map_11_update
     00025134  A$map_11_update$74                 map_11_update
     00025135  A$map_11_update$75                 map_11_update
     00025136  A$map_11_update$79                 map_11_update
     00025136  C$map_11_update.c$20$1_1$169       map_11_update
     00025137  A$map_11_update$80                 map_11_update
     00025138  A$map_11_update$81                 map_11_update
     0002513B  A$map_11_update$82                 map_11_update
     0002513E  A$map_11_update$83                 map_11_update
     0002513F  A$map_11_update$84                 map_11_update
     00025140  A$map_11_update$88                 map_11_update
     00025140  C$map_11_update.c$21$1_1$169       map_11_update
     00025141  A$map_11_update$89                 map_11_update
     00025142  A$map_11_update$90                 map_11_update
     00025143  A$map_11_update$91                 map_11_update
     00025144  A$map_11_update$92                 map_11_update
     00025145  A$map_11_update$93                 map_11_update
     00025148  A$map_11_update$97                 map_11_update
     00025148  C$map_11_update.c$23$1_1$169       map_11_update
     00025149  A$map_11_update$108                map_11_update
     00025149  C$map_11_update.c$25$1_1$169       map_11_update
     00025149  C$map_11_update.c$26$1_1$168       map_11_update
     00025149  XG$Map_11_Update$0$0               map_11_update
     0002514C  G$map_12_collision$0_0$0           map_12_collision
     0002514C  _map_12_collision                  map_12_collision
     000252B4  A$map_12_create$57                 map_12_create
     000252B4  C$map_12_create.c$6$0_0$32         map_12_create
     000252B4  C$map_12_create.c$8$1_0$32         map_12_create
     000252B4  G$Map_12_Create$0$0                map_12_create
     000252B4  _Map_12_Create                     map_12_create
     000252B7  A$map_12_create$58                 map_12_create
     000252B9  A$map_12_create$59                 map_12_create
     000252BA  A$map_12_create$60                 map_12_create
     000252BC  A$map_12_create$64                 map_12_create
     000252BC  C$map_12_create.c$9$1_0$32         map_12_create
     000252BD  A$map_12_create$65                 map_12_create
     000252BF  A$map_12_create$66                 map_12_create
     000252C0  A$map_12_create$67                 map_12_create
     000252C2  A$map_12_create$71                 map_12_create
     000252C2  C$map_12_create.c$10$1_0$32        map_12_create
     000252C5  A$map_12_create$72                 map_12_create
     000252C7  A$map_12_create$76                 map_12_create
     000252C7  C$map_12_create.c$11$1_0$32        map_12_create
     000252CA  A$map_12_create$77                 map_12_create
ASxxxx Linker V03.00/V05.40 + sdld,  page 207.
Hexadecimal  [32-Bits]

Area                                    Addr        Size        Decimal Bytes (Attributes)
--------------------------------        ----        ----        ------- ----- ------------
_CODE_2                             00024000    00001EFB =        7931. bytes (REL,CON)

      Value  Global                              Global Defined In Module
      -----  --------------------------------   ------------------------
     000252CB  A$map_12_create$78                 map_12_create
     000252CC  A$map_12_create$79                 map_12_create
     000252CD  A$map_12_create$87                 map_12_create
     000252CD  C$map_12_create.c$12$1_0$32        map_12_create
     000252CD  XG$Map_12_Create$0$0               map_12_create
     000252CE  A$map_12_init$59                   map_12_init
     000252CE  C$map_12_init.c$15$0_0$170         map_12_init
     000252CE  C$map_12_init.c$17$1_0$170         map_12_init
     000252CE  G$Map_12_Init$0$0                  map_12_init
     000252CE  _Map_12_Init                       map_12_init
     000252CF  A$map_12_init$60                   map_12_init
     000252D2  A$map_12_init$61                   map_12_init
     000252D3  A$map_12_init$65                   map_12_init
     000252D3  C$map_12_init.c$19$1_0$170         map_12_init
     000252D6  A$map_12_init$66                   map_12_init
     000252D9  A$map_12_init$67                   map_12_init
     000252DA  A$map_12_init$71                   map_12_init
     000252DA  C$map_12_init.c$20$1_0$170         map_12_init
     000252DD  A$map_12_init$72                   map_12_init
     000252DF  A$map_12_init$73                   map_12_init
     000252E0  A$map_12_init$74                   map_12_init
     000252E2  A$map_12_init$78                   map_12_init
     000252E2  C$map_12_init.c$21$1_0$170         map_12_init
     000252E5  A$map_12_init$79                   map_12_init
     000252E7  A$map_12_init$83                   map_12_init
     000252E7  C$map_12_init.c$23$1_0$170         map_12_init
     000252EA  A$map_12_init$84                   map_12_init
     000252EC  A$map_12_init$88                   map_12_init
     000252EC  C$map_12_init.c$24$1_0$170         map_12_init
     000252EF  A$map_12_init$89                   map_12_init
     000252F1  A$map_12_init$93                   map_12_init
     000252F1  C$map_12_init.c$26$1_0$170         map_12_init
     000252F4  A$map_12_init$94                   map_12_init
     000252F6  A$map_12_init$98                   map_12_init
     000252F6  C$map_12_init.c$27$1_0$170         map_12_init
     000252F9  A$map_12_init$99                   map_12_init
     000252FB  A$map_12_init$103                  map_12_init
     000252FB  C$map_12_init.c$28$1_0$170         map_12_init
     000252FE  A$map_12_init$104                  map_12_init
     00025300  A$map_12_init$108                  map_12_init
     00025300  C$map_12_init.c$29$1_0$170         map_12_init
     00025303  A$map_12_init$109                  map_12_init
     00025305  A$map_12_init$113                  map_12_init
     00025305  C$map_12_init.c$31$1_0$170         map_12_init
     00025308  A$map_12_init$114                  map_12_init
     00025309  A$map_12_init$115                  map_12_init
     0002530B  A$map_12_init$116                  map_12_init
     0002530C  A$map_12_init$117                  map_12_init
     0002530E  A$map_12_init$121                  map_12_init
     0002530E  C$map_12_init.c$33$1_0$170         map_12_init
     00025311  A$map_12_init$122                  map_12_init
ASxxxx Linker V03.00/V05.40 + sdld,  page 208.
Hexadecimal  [32-Bits]

Area                                    Addr        Size        Decimal Bytes (Attributes)
--------------------------------        ----        ----        ------- ----- ------------
_CODE_2                             00024000    00001EFB =        7931. bytes (REL,CON)

      Value  Global                              Global Defined In Module
      -----  --------------------------------   ------------------------
     00025312  A$map_12_init$123                  map_12_init
     00025315  A$map_12_init$124                  map_12_init
     00025316  A$map_12_init$125                  map_12_init
     00025319  A$map_12_init$126                  map_12_init
     0002531B  A$map_12_init$130                  map_12_init
     0002531B  C$map_12_init.c$34$1_0$170         map_12_init
     0002531E  A$map_12_init$131                  map_12_init
     0002531F  A$map_12_init$132                  map_12_init
     00025322  A$map_12_init$133                  map_12_init
     00025323  A$map_12_init$134                  map_12_init
     00025324  A$map_12_init$135                  map_12_init
     00025325  A$map_12_init$136                  map_12_init
     00025326  A$map_12_init$137                  map_12_init
     00025329  A$map_12_init$138                  map_12_init
     0002532B  A$map_12_init$142                  map_12_init
     0002532B  C$map_12_init.c$36$1_0$170         map_12_init
     0002532E  A$map_12_init$143                  map_12_init
     00025331  A$map_12_init$147                  map_12_init
     00025331  C$map_12_init.c$38$1_0$170         map_12_init
     00025334  A$map_12_init$148                  map_12_init
     00025336  A$map_12_init$152                  map_12_init
     00025336  C$map_12_init.c$39$1_0$170         map_12_init
     00025339  A$map_12_init$153                  map_12_init
     0002533B  A$map_12_init$161                  map_12_init
     0002533B  C$map_12_init.c$40$1_0$170         map_12_init
     0002533B  XG$Map_12_Init$0$0                 map_12_init
     0002533C  A$map_12_update$60                 map_12_update
     0002533C  C$map_12_update.c$12$0_0$168       map_12_update
     0002533C  C$map_12_update.c$14$1_0$168       map_12_update
     0002533C  G$Map_12_Update$0$0                map_12_update
     0002533C  _Map_12_Update                     map_12_update
     0002533D  A$map_12_update$61                 map_12_update
     00025340  A$map_12_update$65                 map_12_update
     00025340  C$map_12_update.c$16$1_0$168       map_12_update
     00025343  A$map_12_update$66                 map_12_update
     00025344  A$map_12_update$70                 map_12_update
     00025344  C$map_12_update.c$18$1_1$169       map_12_update
     00025347  A$map_12_update$71                 map_12_update
     00025348  A$map_12_update$72                 map_12_update
     00025349  A$map_12_update$73                 map_12_update
     0002534A  A$map_12_update$74                 map_12_update
     0002534B  A$map_12_update$75                 map_12_update
     0002534C  A$map_12_update$79                 map_12_update
     0002534C  C$map_12_update.c$20$1_1$169       map_12_update
     0002534D  A$map_12_update$80                 map_12_update
     0002534E  A$map_12_update$81                 map_12_update
     00025351  A$map_12_update$82                 map_12_update
     00025354  A$map_12_update$83                 map_12_update
     00025355  A$map_12_update$84                 map_12_update
     00025356  A$map_12_update$88                 map_12_update
     00025356  C$map_12_update.c$21$1_1$169       map_12_update
ASxxxx Linker V03.00/V05.40 + sdld,  page 209.
Hexadecimal  [32-Bits]

Area                                    Addr        Size        Decimal Bytes (Attributes)
--------------------------------        ----        ----        ------- ----- ------------
_CODE_2                             00024000    00001EFB =        7931. bytes (REL,CON)

      Value  Global                              Global Defined In Module
      -----  --------------------------------   ------------------------
     00025357  A$map_12_update$89                 map_12_update
     00025358  A$map_12_update$90                 map_12_update
     00025359  A$map_12_update$91                 map_12_update
     0002535A  A$map_12_update$92                 map_12_update
     0002535B  A$map_12_update$93                 map_12_update
     0002535E  A$map_12_update$97                 map_12_update
     0002535E  C$map_12_update.c$23$1_1$169       map_12_update
     0002535F  A$map_12_update$108                map_12_update
     0002535F  C$map_12_update.c$25$1_1$169       map_12_update
     0002535F  C$map_12_update.c$26$1_1$168       map_12_update
     0002535F  XG$Map_12_Update$0$0               map_12_update
     00025362  G$map_13_collision$0_0$0           map_13_collision
     00025362  _map_13_collision                  map_13_collision
     000254CA  A$map_13_create$57                 map_13_create
     000254CA  C$map_13_create.c$6$0_0$32         map_13_create
     000254CA  C$map_13_create.c$8$1_0$32         map_13_create
     000254CA  G$Map_13_Create$0$0                map_13_create
     000254CA  _Map_13_Create                     map_13_create
     000254CD  A$map_13_create$58                 map_13_create
     000254CF  A$map_13_create$59                 map_13_create
     000254D0  A$map_13_create$60                 map_13_create
     000254D2  A$map_13_create$64                 map_13_create
     000254D2  C$map_13_create.c$9$1_0$32         map_13_create
     000254D3  A$map_13_create$65                 map_13_create
     000254D5  A$map_13_create$66                 map_13_create
     000254D6  A$map_13_create$67                 map_13_create
     000254D8  A$map_13_create$71                 map_13_create
     000254D8  C$map_13_create.c$10$1_0$32        map_13_create
     000254DB  A$map_13_create$72                 map_13_create
     000254DD  A$map_13_create$76                 map_13_create
     000254DD  C$map_13_create.c$11$1_0$32        map_13_create
     000254E0  A$map_13_create$77                 map_13_create
     000254E1  A$map_13_create$78                 map_13_create
     000254E2  A$map_13_create$79                 map_13_create
     000254E3  A$map_13_create$87                 map_13_create
     000254E3  C$map_13_create.c$12$1_0$32        map_13_create
     000254E3  XG$Map_13_Create$0$0               map_13_create
     000254E4  A$map_13_init$59                   map_13_init
     000254E4  C$map_13_init.c$15$0_0$170         map_13_init
     000254E4  C$map_13_init.c$17$1_0$170         map_13_init
     000254E4  G$Map_13_Init$0$0                  map_13_init
     000254E4  _Map_13_Init                       map_13_init
     000254E5  A$map_13_init$60                   map_13_init
     000254E8  A$map_13_init$61                   map_13_init
     000254E9  A$map_13_init$65                   map_13_init
     000254E9  C$map_13_init.c$19$1_0$170         map_13_init
     000254EC  A$map_13_init$66                   map_13_init
     000254EF  A$map_13_init$67                   map_13_init
     000254F0  A$map_13_init$71                   map_13_init
     000254F0  C$map_13_init.c$20$1_0$170         map_13_init
     000254F3  A$map_13_init$72                   map_13_init
ASxxxx Linker V03.00/V05.40 + sdld,  page 210.
Hexadecimal  [32-Bits]

Area                                    Addr        Size        Decimal Bytes (Attributes)
--------------------------------        ----        ----        ------- ----- ------------
_CODE_2                             00024000    00001EFB =        7931. bytes (REL,CON)

      Value  Global                              Global Defined In Module
      -----  --------------------------------   ------------------------
     000254F5  A$map_13_init$73                   map_13_init
     000254F6  A$map_13_init$74                   map_13_init
     000254F8  A$map_13_init$78                   map_13_init
     000254F8  C$map_13_init.c$21$1_0$170         map_13_init
     000254FB  A$map_13_init$79                   map_13_init
     000254FD  A$map_13_init$83                   map_13_init
     000254FD  C$map_13_init.c$23$1_0$170         map_13_init
     00025500  A$map_13_init$84                   map_13_init
     00025502  A$map_13_init$88                   map_13_init
     00025502  C$map_13_init.c$24$1_0$170         map_13_init
     00025505  A$map_13_init$89                   map_13_init
     00025507  A$map_13_init$93                   map_13_init
     00025507  C$map_13_init.c$26$1_0$170         map_13_init
     0002550A  A$map_13_init$94                   map_13_init
     0002550C  A$map_13_init$98                   map_13_init
     0002550C  C$map_13_init.c$27$1_0$170         map_13_init
     0002550F  A$map_13_init$99                   map_13_init
     00025511  A$map_13_init$103                  map_13_init
     00025511  C$map_13_init.c$28$1_0$170         map_13_init
     00025514  A$map_13_init$104                  map_13_init
     00025516  A$map_13_init$108                  map_13_init
     00025516  C$map_13_init.c$29$1_0$170         map_13_init
     00025519  A$map_13_init$109                  map_13_init
     0002551B  A$map_13_init$113                  map_13_init
     0002551B  C$map_13_init.c$31$1_0$170         map_13_init
     0002551E  A$map_13_init$114                  map_13_init
     0002551F  A$map_13_init$115                  map_13_init
     00025521  A$map_13_init$116                  map_13_init
     00025522  A$map_13_init$117                  map_13_init
     00025524  A$map_13_init$121                  map_13_init
     00025524  C$map_13_init.c$33$1_0$170         map_13_init
     00025527  A$map_13_init$122                  map_13_init
     00025528  A$map_13_init$123                  map_13_init
     0002552B  A$map_13_init$124                  map_13_init
     0002552C  A$map_13_init$125                  map_13_init
     0002552F  A$map_13_init$126                  map_13_init
     00025531  A$map_13_init$130                  map_13_init
     00025531  C$map_13_init.c$34$1_0$170         map_13_init
     00025534  A$map_13_init$131                  map_13_init
     00025535  A$map_13_init$132                  map_13_init
     00025538  A$map_13_init$133                  map_13_init
     00025539  A$map_13_init$134                  map_13_init
     0002553A  A$map_13_init$135                  map_13_init
     0002553B  A$map_13_init$136                  map_13_init
     0002553C  A$map_13_init$137                  map_13_init
     0002553F  A$map_13_init$138                  map_13_init
     00025541  A$map_13_init$142                  map_13_init
     00025541  C$map_13_init.c$36$1_0$170         map_13_init
     00025544  A$map_13_init$143                  map_13_init
     00025547  A$map_13_init$147                  map_13_init
     00025547  C$map_13_init.c$38$1_0$170         map_13_init
ASxxxx Linker V03.00/V05.40 + sdld,  page 211.
Hexadecimal  [32-Bits]

Area                                    Addr        Size        Decimal Bytes (Attributes)
--------------------------------        ----        ----        ------- ----- ------------
_CODE_2                             00024000    00001EFB =        7931. bytes (REL,CON)

      Value  Global                              Global Defined In Module
      -----  --------------------------------   ------------------------
     0002554A  A$map_13_init$148                  map_13_init
     0002554C  A$map_13_init$152                  map_13_init
     0002554C  C$map_13_init.c$39$1_0$170         map_13_init
     0002554F  A$map_13_init$153                  map_13_init
     00025551  A$map_13_init$161                  map_13_init
     00025551  C$map_13_init.c$40$1_0$170         map_13_init
     00025551  XG$Map_13_Init$0$0                 map_13_init
     00025552  A$map_13_update$60                 map_13_update
     00025552  C$map_13_update.c$12$0_0$168       map_13_update
     00025552  C$map_13_update.c$14$1_0$168       map_13_update
     00025552  G$Map_13_Update$0$0                map_13_update
     00025552  _Map_13_Update                     map_13_update
     00025553  A$map_13_update$61                 map_13_update
     00025556  A$map_13_update$65                 map_13_update
     00025556  C$map_13_update.c$16$1_0$168       map_13_update
     00025559  A$map_13_update$66                 map_13_update
     0002555A  A$map_13_update$70                 map_13_update
     0002555A  C$map_13_update.c$18$1_1$169       map_13_update
     0002555D  A$map_13_update$71                 map_13_update
     0002555E  A$map_13_update$72                 map_13_update
     0002555F  A$map_13_update$73                 map_13_update
     00025560  A$map_13_update$74                 map_13_update
     00025561  A$map_13_update$75                 map_13_update
     00025562  A$map_13_update$79                 map_13_update
     00025562  C$map_13_update.c$20$1_1$169       map_13_update
     00025563  A$map_13_update$80                 map_13_update
     00025564  A$map_13_update$81                 map_13_update
     00025567  A$map_13_update$82                 map_13_update
     0002556A  A$map_13_update$83                 map_13_update
     0002556B  A$map_13_update$84                 map_13_update
     0002556C  A$map_13_update$88                 map_13_update
     0002556C  C$map_13_update.c$21$1_1$169       map_13_update
     0002556D  A$map_13_update$89                 map_13_update
     0002556E  A$map_13_update$90                 map_13_update
     0002556F  A$map_13_update$91                 map_13_update
     00025570  A$map_13_update$92                 map_13_update
     00025571  A$map_13_update$93                 map_13_update
     00025574  A$map_13_update$97                 map_13_update
     00025574  C$map_13_update.c$23$1_1$169       map_13_update
     00025575  A$map_13_update$108                map_13_update
     00025575  C$map_13_update.c$25$1_1$169       map_13_update
     00025575  C$map_13_update.c$26$1_1$168       map_13_update
     00025575  XG$Map_13_Update$0$0               map_13_update
     00025578  A$mg_leaves_init$122               mg_leaves_init
     00025578  C$mg_leaves_init.c$48$0_0$175      mg_leaves_init
     00025578  G$Mg_Leaves_Init$0$0               mg_leaves_init
     00025578  _Mg_Leaves_Init                    mg_leaves_init
     0002557A  A$mg_leaves_init$126               mg_leaves_init
     0002557A  C$mg_leaves_init.c$50$1_0$175      mg_leaves_init
     0002557D  A$mg_leaves_init$127               mg_leaves_init
     0002557F  A$mg_leaves_init$128               mg_leaves_init
ASxxxx Linker V03.00/V05.40 + sdld,  page 212.
Hexadecimal  [32-Bits]

Area                                    Addr        Size        Decimal Bytes (Attributes)
--------------------------------        ----        ----        ------- ----- ------------
_CODE_2                             00024000    00001EFB =        7931. bytes (REL,CON)

      Value  Global                              Global Defined In Module
      -----  --------------------------------   ------------------------
     00025580  A$mg_leaves_init$132               mg_leaves_init
     00025580  C$mg_leaves_init.c$51$1_0$175      mg_leaves_init
     00025581  A$mg_leaves_init$133               mg_leaves_init
     00025582  A$mg_leaves_init$134               mg_leaves_init
     00025583  A$mg_leaves_init$135               mg_leaves_init
     00025585  A$mg_leaves_init$139               mg_leaves_init
     00025585  C$mg_leaves_init.c$52$1_0$175      mg_leaves_init
     00025586  A$mg_leaves_init$140               mg_leaves_init
     00025587  A$mg_leaves_init$141               mg_leaves_init
     00025588  A$mg_leaves_init$142               mg_leaves_init
     00025589  A$mg_leaves_init$143               mg_leaves_init
     0002558B  A$mg_leaves_init$147               mg_leaves_init
     0002558B  C$mg_leaves_init.c$54$1_0$175      mg_leaves_init
     0002558E  A$mg_leaves_init$148               mg_leaves_init
     0002558F  A$mg_leaves_init$149               mg_leaves_init
     00025590  A$mg_leaves_init$150               mg_leaves_init
     00025591  A$mg_leaves_init$151               mg_leaves_init
     00025592  A$mg_leaves_init$161               mg_leaves_init
     00025592  C$mg_leaves_init.c$56$2_0$176      mg_leaves_init
     00025592  C$mg_leaves_init.c$57$2_0$176      mg_leaves_init
     00025592  C$mg_leaves_init.c$60$1_1$176      mg_leaves_init
     00025594  A$mg_leaves_init$162               mg_leaves_init
     00025595  A$mg_leaves_init$163               mg_leaves_init
     00025596  A$mg_leaves_init$164               mg_leaves_init
     00025598  A$mg_leaves_init$165               mg_leaves_init
     00025599  A$mg_leaves_init$166               mg_leaves_init
     0002559B  A$mg_leaves_init$170               mg_leaves_init
     0002559B  C$mg_leaves_init.c$61$1_1$176      mg_leaves_init
     0002559D  A$mg_leaves_init$174               mg_leaves_init
     0002559D  C$mg_leaves_init.c$63$1_1$176      mg_leaves_init
     0002559E  A$mg_leaves_init$175               mg_leaves_init
     0002559F  A$mg_leaves_init$176               mg_leaves_init
     000255A1  A$mg_leaves_init$177               mg_leaves_init
     000255A2  A$mg_leaves_init$181               mg_leaves_init
     000255A2  C$mg_leaves_init.c$64$1_1$176      mg_leaves_init
     000255A4  A$mg_leaves_init$182               mg_leaves_init
     000255A5  A$mg_leaves_init$183               mg_leaves_init
     000255A7  A$mg_leaves_init$187               mg_leaves_init
     000255A7  C$mg_leaves_init.c$66$1_1$176      mg_leaves_init
     000255A9  A$mg_leaves_init$188               mg_leaves_init
     000255AA  A$mg_leaves_init$189               mg_leaves_init
     000255AB  A$mg_leaves_init$190               mg_leaves_init
     000255AE  A$mg_leaves_init$194               mg_leaves_init
     000255AE  C$mg_leaves_init.c$68$2_1$177      mg_leaves_init
     000255B1  A$mg_leaves_init$195               mg_leaves_init
     000255B2  A$mg_leaves_init$196               mg_leaves_init
     000255B4  A$mg_leaves_init$200               mg_leaves_init
     000255B4  C$mg_leaves_init.c$69$2_1$177      mg_leaves_init
     000255B7  A$mg_leaves_init$205               mg_leaves_init
     000255B7  C$mg_leaves_init.c$71$2_1$178      mg_leaves_init
     000255B9  A$mg_leaves_init$206               mg_leaves_init
ASxxxx Linker V03.00/V05.40 + sdld,  page 213.
Hexadecimal  [32-Bits]

Area                                    Addr        Size        Decimal Bytes (Attributes)
--------------------------------        ----        ----        ------- ----- ------------
_CODE_2                             00024000    00001EFB =        7931. bytes (REL,CON)

      Value  Global                              Global Defined In Module
      -----  --------------------------------   ------------------------
     000255BB  A$mg_leaves_init$207               mg_leaves_init
     000255BC  A$mg_leaves_init$208               mg_leaves_init
     000255BE  A$mg_leaves_init$209               mg_leaves_init
     000255BF  A$mg_leaves_init$210               mg_leaves_init
     000255C1  A$mg_leaves_init$211               mg_leaves_init
     000255C2  A$mg_leaves_init$212               mg_leaves_init
     000255C3  A$mg_leaves_init$213               mg_leaves_init
     000255C5  A$mg_leaves_init$214               mg_leaves_init
     000255C6  A$mg_leaves_init$215               mg_leaves_init
     000255C8  A$mg_leaves_init$216               mg_leaves_init
     000255C9  A$mg_leaves_init$217               mg_leaves_init
     000255CB  A$mg_leaves_init$218               mg_leaves_init
     000255CC  A$mg_leaves_init$219               mg_leaves_init
     000255CE  A$mg_leaves_init$220               mg_leaves_init
     000255CF  A$mg_leaves_init$221               mg_leaves_init
     000255D1  A$mg_leaves_init$222               mg_leaves_init
     000255D2  A$mg_leaves_init$223               mg_leaves_init
     000255D3  A$mg_leaves_init$224               mg_leaves_init
     000255D4  A$mg_leaves_init$225               mg_leaves_init
     000255D5  A$mg_leaves_init$226               mg_leaves_init
     000255D7  A$mg_leaves_init$230               mg_leaves_init
     000255D7  C$mg_leaves_init.c$72$1_4$175      mg_leaves_init
     000255DA  A$mg_leaves_init$231               mg_leaves_init
     000255DB  A$mg_leaves_init$232               mg_leaves_init
     000255DC  A$mg_leaves_init$233               mg_leaves_init
     000255DD  A$mg_leaves_init$234               mg_leaves_init
     000255E0  A$mg_leaves_init$238               mg_leaves_init
     000255E0  C$mg_leaves_init.c$74$1_2$178      mg_leaves_init
     000255E3  A$mg_leaves_init$242               mg_leaves_init
     000255E3  C$mg_leaves_init.c$76$1_2$178      mg_leaves_init
     000255E6  A$mg_leaves_init$246               mg_leaves_init
     000255E6  C$mg_leaves_init.c$77$1_2$178      mg_leaves_init
     000255E9  A$mg_leaves_init$247               mg_leaves_init
     000255EA  A$mg_leaves_init$248               mg_leaves_init
     000255EB  A$mg_leaves_init$249               mg_leaves_init
     000255EC  A$mg_leaves_init$250               mg_leaves_init
     000255EF  A$mg_leaves_init$254               mg_leaves_init
     000255EF  C$mg_leaves_init.c$79$1_2$178      mg_leaves_init
     000255F2  A$mg_leaves_init$258               mg_leaves_init
     000255F2  C$mg_leaves_init.c$81$3_2$180      mg_leaves_init
     000255F4  A$mg_leaves_init$259               mg_leaves_init
     000255F6  A$mg_leaves_init$261               mg_leaves_init
     000255F8  A$mg_leaves_init$262               mg_leaves_init
     000255F9  A$mg_leaves_init$263               mg_leaves_init
     000255FB  A$mg_leaves_init$264               mg_leaves_init
     000255FD  A$mg_leaves_init$268               mg_leaves_init
     000255FD  C$mg_leaves_init.c$84$3_2$180      mg_leaves_init
     00025600  A$mg_leaves_init$269               mg_leaves_init
     00025601  A$mg_leaves_init$270               mg_leaves_init
     00025603  A$mg_leaves_init$271               mg_leaves_init
     00025604  A$mg_leaves_init$272               mg_leaves_init
ASxxxx Linker V03.00/V05.40 + sdld,  page 214.
Hexadecimal  [32-Bits]

Area                                    Addr        Size        Decimal Bytes (Attributes)
--------------------------------        ----        ----        ------- ----- ------------
_CODE_2                             00024000    00001EFB =        7931. bytes (REL,CON)

      Value  Global                              Global Defined In Module
      -----  --------------------------------   ------------------------
     00025605  A$mg_leaves_init$273               mg_leaves_init
     00025606  A$mg_leaves_init$274               mg_leaves_init
     00025608  A$mg_leaves_init$275               mg_leaves_init
     00025609  A$mg_leaves_init$276               mg_leaves_init
     0002560A  A$mg_leaves_init$277               mg_leaves_init
     0002560B  A$mg_leaves_init$278               mg_leaves_init
     0002560D  A$mg_leaves_init$279               mg_leaves_init
     0002560E  A$mg_leaves_init$280               mg_leaves_init
     0002560F  A$mg_leaves_init$281               mg_leaves_init
     00025610  A$mg_leaves_init$282               mg_leaves_init
     00025612  A$mg_leaves_init$283               mg_leaves_init
     00025614  A$mg_leaves_init$284               mg_leaves_init
     00025616  A$mg_leaves_init$285               mg_leaves_init
     00025617  A$mg_leaves_init$286               mg_leaves_init
     00025618  A$mg_leaves_init$287               mg_leaves_init
     00025619  A$mg_leaves_init$288               mg_leaves_init
     0002561A  A$mg_leaves_init$289               mg_leaves_init
     0002561B  A$mg_leaves_init$293               mg_leaves_init
     0002561B  C$mg_leaves_init.c$87$3_2$180      mg_leaves_init
     0002561E  A$mg_leaves_init$294               mg_leaves_init
     00025620  A$mg_leaves_init$295               mg_leaves_init
     00025621  A$mg_leaves_init$296               mg_leaves_init
     00025623  A$mg_leaves_init$297               mg_leaves_init
     00025624  A$mg_leaves_init$298               mg_leaves_init
     00025625  A$mg_leaves_init$299               mg_leaves_init
     00025626  A$mg_leaves_init$300               mg_leaves_init
     00025627  A$mg_leaves_init$301               mg_leaves_init
     00025628  A$mg_leaves_init$305               mg_leaves_init
     00025628  C$mg_leaves_init.c$88$3_2$180      mg_leaves_init
     0002562B  A$mg_leaves_init$306               mg_leaves_init
     0002562D  A$mg_leaves_init$307               mg_leaves_init
     0002562E  A$mg_leaves_init$308               mg_leaves_init
     00025630  A$mg_leaves_init$309               mg_leaves_init
     00025631  A$mg_leaves_init$310               mg_leaves_init
     00025633  A$mg_leaves_init$314               mg_leaves_init
     00025633  C$mg_leaves_init.c$89$3_2$180      mg_leaves_init
     00025636  A$mg_leaves_init$315               mg_leaves_init
     00025638  A$mg_leaves_init$316               mg_leaves_init
     00025639  A$mg_leaves_init$317               mg_leaves_init
     0002563B  A$mg_leaves_init$318               mg_leaves_init
     0002563C  A$mg_leaves_init$319               mg_leaves_init
     0002563D  A$mg_leaves_init$320               mg_leaves_init
     0002563E  A$mg_leaves_init$321               mg_leaves_init
     0002563F  A$mg_leaves_init$322               mg_leaves_init
     00025640  A$mg_leaves_init$326               mg_leaves_init
     00025640  C$mg_leaves_init.c$81$2_2$179      mg_leaves_init
     00025642  A$mg_leaves_init$327               mg_leaves_init
     00025643  A$mg_leaves_init$328               mg_leaves_init
     00025645  A$mg_leaves_init$333               mg_leaves_init
     00025645  C$mg_leaves_init.c$93$4_2$183      mg_leaves_init
     00025647  A$mg_leaves_init$335               mg_leaves_init
ASxxxx Linker V03.00/V05.40 + sdld,  page 215.
Hexadecimal  [32-Bits]

Area                                    Addr        Size        Decimal Bytes (Attributes)
--------------------------------        ----        ----        ------- ----- ------------
_CODE_2                             00024000    00001EFB =        7931. bytes (REL,CON)

      Value  Global                              Global Defined In Module
      -----  --------------------------------   ------------------------
     00025649  A$mg_leaves_init$336               mg_leaves_init
     0002564A  A$mg_leaves_init$337               mg_leaves_init
     0002564C  A$mg_leaves_init$341               mg_leaves_init
     0002564C  C$mg_leaves_init.c$97$4_2$183      mg_leaves_init
     0002564D  A$mg_leaves_init$342               mg_leaves_init
     0002564F  A$mg_leaves_init$343               mg_leaves_init
     00025651  A$mg_leaves_init$347               mg_leaves_init
     00025651  C$mg_leaves_init.c$98$4_2$183      mg_leaves_init
     00025654  A$mg_leaves_init$348               mg_leaves_init
     00025655  A$mg_leaves_init$349               mg_leaves_init
     00025657  A$mg_leaves_init$350               mg_leaves_init
     00025658  A$mg_leaves_init$351               mg_leaves_init
     00025659  A$mg_leaves_init$352               mg_leaves_init
     0002565A  A$mg_leaves_init$353               mg_leaves_init
     0002565D  A$mg_leaves_init$354               mg_leaves_init
     0002565E  A$mg_leaves_init$355               mg_leaves_init
     0002565F  A$mg_leaves_init$356               mg_leaves_init
     00025661  A$mg_leaves_init$361               mg_leaves_init
     00025661  C$mg_leaves_init.c$100$4_2$183     mg_leaves_init
     00025662  A$mg_leaves_init$362               mg_leaves_init
     00025664  A$mg_leaves_init$363               mg_leaves_init
     00025665  A$mg_leaves_init$364               mg_leaves_init
     00025666  A$mg_leaves_init$365               mg_leaves_init
     00025669  A$mg_leaves_init$366               mg_leaves_init
     0002566A  A$mg_leaves_init$367               mg_leaves_init
     0002566D  A$mg_leaves_init$368               mg_leaves_init
     0002566E  A$mg_leaves_init$369               mg_leaves_init
     0002566F  A$mg_leaves_init$374               mg_leaves_init
     0002566F  C$mg_leaves_init.c$102$3_2$182     mg_leaves_init
     00025672  A$mg_leaves_init$375               mg_leaves_init
     00025674  A$mg_leaves_init$376               mg_leaves_init
     00025675  A$mg_leaves_init$377               mg_leaves_init
     00025676  A$mg_leaves_init$381               mg_leaves_init
     00025676  C$mg_leaves_init.c$103$3_2$182     mg_leaves_init
     00025679  A$mg_leaves_init$382               mg_leaves_init
     0002567B  A$mg_leaves_init$383               mg_leaves_init
     0002567C  A$mg_leaves_init$384               mg_leaves_init
     0002567E  A$mg_leaves_init$388               mg_leaves_init
     0002567E  C$mg_leaves_init.c$105$3_2$182     mg_leaves_init
     00025681  A$mg_leaves_init$389               mg_leaves_init
     00025683  A$mg_leaves_init$390               mg_leaves_init
     00025684  A$mg_leaves_init$391               mg_leaves_init
     00025686  A$mg_leaves_init$392               mg_leaves_init
     00025687  A$mg_leaves_init$393               mg_leaves_init
     00025688  A$mg_leaves_init$394               mg_leaves_init
     0002568A  A$mg_leaves_init$395               mg_leaves_init
     0002568C  A$mg_leaves_init$396               mg_leaves_init
     0002568D  A$mg_leaves_init$397               mg_leaves_init
     0002568E  A$mg_leaves_init$398               mg_leaves_init
     0002568F  A$mg_leaves_init$402               mg_leaves_init
     0002568F  C$mg_leaves_init.c$106$3_2$182     mg_leaves_init
ASxxxx Linker V03.00/V05.40 + sdld,  page 216.
Hexadecimal  [32-Bits]

Area                                    Addr        Size        Decimal Bytes (Attributes)
--------------------------------        ----        ----        ------- ----- ------------
_CODE_2                             00024000    00001EFB =        7931. bytes (REL,CON)

      Value  Global                              Global Defined In Module
      -----  --------------------------------   ------------------------
     00025692  A$mg_leaves_init$403               mg_leaves_init
     00025694  A$mg_leaves_init$404               mg_leaves_init
     00025695  A$mg_leaves_init$405               mg_leaves_init
     00025696  A$mg_leaves_init$406               mg_leaves_init
     00025697  A$mg_leaves_init$410               mg_leaves_init
     00025697  C$mg_leaves_init.c$108$3_2$182     mg_leaves_init
     0002569A  A$mg_leaves_init$411               mg_leaves_init
     0002569C  A$mg_leaves_init$412               mg_leaves_init
     0002569D  A$mg_leaves_init$413               mg_leaves_init
     0002569F  A$mg_leaves_init$417               mg_leaves_init
     0002569F  C$mg_leaves_init.c$109$3_2$182     mg_leaves_init
     000256A0  A$mg_leaves_init$418               mg_leaves_init
     000256A1  A$mg_leaves_init$419               mg_leaves_init
     000256A2  A$mg_leaves_init$420               mg_leaves_init
     000256A3  A$mg_leaves_init$421               mg_leaves_init
     000256A6  A$mg_leaves_init$422               mg_leaves_init
     000256A7  A$mg_leaves_init$423               mg_leaves_init
     000256A8  A$mg_leaves_init$424               mg_leaves_init
     000256A9  A$mg_leaves_init$425               mg_leaves_init
     000256AA  A$mg_leaves_init$429               mg_leaves_init
     000256AA  C$mg_leaves_init.c$111$3_2$182     mg_leaves_init
     000256AD  A$mg_leaves_init$430               mg_leaves_init
     000256AF  A$mg_leaves_init$431               mg_leaves_init
     000256B0  A$mg_leaves_init$432               mg_leaves_init
     000256B2  A$mg_leaves_init$436               mg_leaves_init
     000256B2  C$mg_leaves_init.c$93$2_2$181      mg_leaves_init
     000256B3  A$mg_leaves_init$437               mg_leaves_init
     000256B5  A$mg_leaves_init$442               mg_leaves_init
     000256B5  C$mg_leaves_init.c$115$3_2$185     mg_leaves_init
     000256B7  A$mg_leaves_init$443               mg_leaves_init
     000256B9  A$mg_leaves_init$445               mg_leaves_init
     000256BB  A$mg_leaves_init$446               mg_leaves_init
     000256BC  A$mg_leaves_init$447               mg_leaves_init
     000256BE  A$mg_leaves_init$448               mg_leaves_init
     000256C0  A$mg_leaves_init$452               mg_leaves_init
     000256C0  C$mg_leaves_init.c$117$3_2$185     mg_leaves_init
     000256C2  A$mg_leaves_init$453               mg_leaves_init
     000256C3  A$mg_leaves_init$454               mg_leaves_init
     000256C4  A$mg_leaves_init$455               mg_leaves_init
     000256C7  A$mg_leaves_init$456               mg_leaves_init
     000256C8  A$mg_leaves_init$457               mg_leaves_init
     000256CB  A$mg_leaves_init$458               mg_leaves_init
     000256CC  A$mg_leaves_init$462               mg_leaves_init
     000256CC  C$mg_leaves_init.c$118$3_2$185     mg_leaves_init
     000256CF  A$mg_leaves_init$463               mg_leaves_init
     000256D1  A$mg_leaves_init$464               mg_leaves_init
     000256D2  A$mg_leaves_init$465               mg_leaves_init
     000256D4  A$mg_leaves_init$466               mg_leaves_init
     000256D5  A$mg_leaves_init$467               mg_leaves_init
     000256D6  A$mg_leaves_init$468               mg_leaves_init
     000256D7  A$mg_leaves_init$469               mg_leaves_init
ASxxxx Linker V03.00/V05.40 + sdld,  page 217.
Hexadecimal  [32-Bits]

Area                                    Addr        Size        Decimal Bytes (Attributes)
--------------------------------        ----        ----        ------- ----- ------------
_CODE_2                             00024000    00001EFB =        7931. bytes (REL,CON)

      Value  Global                              Global Defined In Module
      -----  --------------------------------   ------------------------
     000256D8  A$mg_leaves_init$470               mg_leaves_init
     000256D9  A$mg_leaves_init$474               mg_leaves_init
     000256D9  C$mg_leaves_init.c$119$3_2$185     mg_leaves_init
     000256DC  A$mg_leaves_init$475               mg_leaves_init
     000256DE  A$mg_leaves_init$476               mg_leaves_init
     000256DF  A$mg_leaves_init$477               mg_leaves_init
     000256E1  A$mg_leaves_init$478               mg_leaves_init
     000256E2  A$mg_leaves_init$479               mg_leaves_init
     000256E3  A$mg_leaves_init$480               mg_leaves_init
     000256E4  A$mg_leaves_init$481               mg_leaves_init
     000256E5  A$mg_leaves_init$482               mg_leaves_init
     000256E6  A$mg_leaves_init$486               mg_leaves_init
     000256E6  C$mg_leaves_init.c$121$3_2$185     mg_leaves_init
     000256E9  A$mg_leaves_init$487               mg_leaves_init
     000256EB  A$mg_leaves_init$488               mg_leaves_init
     000256EC  A$mg_leaves_init$489               mg_leaves_init
     000256EE  A$mg_leaves_init$490               mg_leaves_init
     000256EF  A$mg_leaves_init$491               mg_leaves_init
     000256F0  A$mg_leaves_init$492               mg_leaves_init
     000256F1  A$mg_leaves_init$493               mg_leaves_init
     000256F4  A$mg_leaves_init$494               mg_leaves_init
     000256F6  A$mg_leaves_init$495               mg_leaves_init
     000256F7  A$mg_leaves_init$496               mg_leaves_init
     000256F9  A$mg_leaves_init$497               mg_leaves_init
     000256FA  A$mg_leaves_init$498               mg_leaves_init
     000256FB  A$mg_leaves_init$499               mg_leaves_init
     000256FC  A$mg_leaves_init$500               mg_leaves_init
     000256FD  A$mg_leaves_init$501               mg_leaves_init
     000256FE  A$mg_leaves_init$505               mg_leaves_init
     000256FE  C$mg_leaves_init.c$122$3_2$185     mg_leaves_init
     000256FF  A$mg_leaves_init$506               mg_leaves_init
     00025702  A$mg_leaves_init$507               mg_leaves_init
     00025704  A$mg_leaves_init$508               mg_leaves_init
     00025705  A$mg_leaves_init$509               mg_leaves_init
     00025707  A$mg_leaves_init$510               mg_leaves_init
     00025708  A$mg_leaves_init$511               mg_leaves_init
     00025709  A$mg_leaves_init$512               mg_leaves_init
     0002570A  A$mg_leaves_init$513               mg_leaves_init
     0002570B  A$mg_leaves_init$514               mg_leaves_init
     0002570C  A$mg_leaves_init$515               mg_leaves_init
     0002570D  A$mg_leaves_init$519               mg_leaves_init
     0002570D  C$mg_leaves_init.c$124$3_2$185     mg_leaves_init
     00025710  A$mg_leaves_init$520               mg_leaves_init
     00025712  A$mg_leaves_init$521               mg_leaves_init
     00025713  A$mg_leaves_init$522               mg_leaves_init
     00025715  A$mg_leaves_init$523               mg_leaves_init
     00025716  A$mg_leaves_init$524               mg_leaves_init
     00025717  A$mg_leaves_init$525               mg_leaves_init
     00025718  A$mg_leaves_init$526               mg_leaves_init
     00025719  A$mg_leaves_init$527               mg_leaves_init
     0002571A  A$mg_leaves_init$531               mg_leaves_init
ASxxxx Linker V03.00/V05.40 + sdld,  page 218.
Hexadecimal  [32-Bits]

Area                                    Addr        Size        Decimal Bytes (Attributes)
--------------------------------        ----        ----        ------- ----- ------------
_CODE_2                             00024000    00001EFB =        7931. bytes (REL,CON)

      Value  Global                              Global Defined In Module
      -----  --------------------------------   ------------------------
     0002571A  C$mg_leaves_init.c$125$3_2$185     mg_leaves_init
     0002571C  A$mg_leaves_init$532               mg_leaves_init
     0002571D  A$mg_leaves_init$533               mg_leaves_init
     0002571E  A$mg_leaves_init$534               mg_leaves_init
     0002571F  A$mg_leaves_init$535               mg_leaves_init
     00025720  A$mg_leaves_init$536               mg_leaves_init
     00025721  A$mg_leaves_init$537               mg_leaves_init
     00025724  A$mg_leaves_init$538               mg_leaves_init
     00025725  A$mg_leaves_init$539               mg_leaves_init
     00025726  A$mg_leaves_init$540               mg_leaves_init
     00025727  A$mg_leaves_init$541               mg_leaves_init
     00025728  A$mg_leaves_init$545               mg_leaves_init
     00025728  C$mg_leaves_init.c$127$3_2$185     mg_leaves_init
     0002572B  A$mg_leaves_init$546               mg_leaves_init
     0002572D  A$mg_leaves_init$547               mg_leaves_init
     0002572E  A$mg_leaves_init$548               mg_leaves_init
     00025730  A$mg_leaves_init$549               mg_leaves_init
     00025731  A$mg_leaves_init$550               mg_leaves_init
     00025732  A$mg_leaves_init$551               mg_leaves_init
     00025734  A$mg_leaves_init$555               mg_leaves_init
     00025734  C$mg_leaves_init.c$115$2_2$184     mg_leaves_init
     00025736  A$mg_leaves_init$556               mg_leaves_init
     00025737  A$mg_leaves_init$557               mg_leaves_init
     0002573A  A$mg_leaves_init$562               mg_leaves_init
     0002573A  C$mg_leaves_init.c$130$2_2$186     mg_leaves_init
     0002573C  A$mg_leaves_init$563               mg_leaves_init
     0002573E  A$mg_leaves_init$564               mg_leaves_init
     0002573F  A$mg_leaves_init$565               mg_leaves_init
     00025741  A$mg_leaves_init$566               mg_leaves_init
     00025742  A$mg_leaves_init$567               mg_leaves_init
     00025744  A$mg_leaves_init$568               mg_leaves_init
     00025745  A$mg_leaves_init$569               mg_leaves_init
     00025747  A$mg_leaves_init$570               mg_leaves_init
     00025748  A$mg_leaves_init$571               mg_leaves_init
     0002574A  A$mg_leaves_init$572               mg_leaves_init
     0002574B  A$mg_leaves_init$573               mg_leaves_init
     0002574D  A$mg_leaves_init$577               mg_leaves_init
     0002574D  C$mg_leaves_init.c$132$1_4$175     mg_leaves_init
     0002574F  A$mg_leaves_init$579               mg_leaves_init
     00025750  A$mg_leaves_init$580               mg_leaves_init
     00025752  A$mg_leaves_init$581               mg_leaves_init
     00025754  A$mg_leaves_init$585               mg_leaves_init
     00025754  C$mg_leaves_init.c$134$3_3$188     mg_leaves_init
     00025755  A$mg_leaves_init$586               mg_leaves_init
     00025757  A$mg_leaves_init$587               mg_leaves_init
     0002575A  A$mg_leaves_init$588               mg_leaves_init
     0002575B  A$mg_leaves_init$589               mg_leaves_init
     0002575C  A$mg_leaves_init$590               mg_leaves_init
     0002575D  A$mg_leaves_init$591               mg_leaves_init
     0002575E  A$mg_leaves_init$592               mg_leaves_init
     00025761  A$mg_leaves_init$593               mg_leaves_init
ASxxxx Linker V03.00/V05.40 + sdld,  page 219.
Hexadecimal  [32-Bits]

Area                                    Addr        Size        Decimal Bytes (Attributes)
--------------------------------        ----        ----        ------- ----- ------------
_CODE_2                             00024000    00001EFB =        7931. bytes (REL,CON)

      Value  Global                              Global Defined In Module
      -----  --------------------------------   ------------------------
     00025762  A$mg_leaves_init$594               mg_leaves_init
     00025763  A$mg_leaves_init$595               mg_leaves_init
     00025764  A$mg_leaves_init$596               mg_leaves_init
     00025766  A$mg_leaves_init$597               mg_leaves_init
     00025767  A$mg_leaves_init$601               mg_leaves_init
     00025767  C$mg_leaves_init.c$135$3_3$188     mg_leaves_init
     00025768  A$mg_leaves_init$602               mg_leaves_init
     00025769  A$mg_leaves_init$603               mg_leaves_init
     0002576A  A$mg_leaves_init$604               mg_leaves_init
     0002576B  A$mg_leaves_init$605               mg_leaves_init
     0002576C  A$mg_leaves_init$606               mg_leaves_init
     0002576E  A$mg_leaves_init$607               mg_leaves_init
     00025771  A$mg_leaves_init$608               mg_leaves_init
     00025772  A$mg_leaves_init$612               mg_leaves_init
     00025772  C$mg_leaves_init.c$132$2_3$187     mg_leaves_init
     00025773  A$mg_leaves_init$613               mg_leaves_init
     00025775  A$mg_leaves_init$618               mg_leaves_init
     00025775  C$mg_leaves_init.c$138$1_4$189     mg_leaves_init
     00025778  A$mg_leaves_init$622               mg_leaves_init
     00025778  C$mg_leaves_init.c$139$1_4$175     mg_leaves_init
     0002577A  A$mg_leaves_init$623               mg_leaves_init
     0002577B  A$mg_leaves_init$624               mg_leaves_init
     0002577D  A$mg_leaves_init$625               mg_leaves_init
     00025780  A$mg_leaves_init$626               mg_leaves_init
     00025781  A$mg_leaves_init$627               mg_leaves_init
     00025783  A$mg_leaves_init$628               mg_leaves_init
     00025786  A$mg_leaves_init$629               mg_leaves_init
     00025787  A$mg_leaves_init$630               mg_leaves_init
     00025789  A$mg_leaves_init$631               mg_leaves_init
     0002578B  A$mg_leaves_init$635               mg_leaves_init
     0002578B  C$mg_leaves_init.c$140$1_4$175     mg_leaves_init
     0002578C  A$mg_leaves_init$636               mg_leaves_init
     0002578D  A$mg_leaves_init$637               mg_leaves_init
     0002578F  A$mg_leaves_init$638               mg_leaves_init
     00025790  A$mg_leaves_init$639               mg_leaves_init
     00025793  A$mg_leaves_init$640               mg_leaves_init
     00025794  A$mg_leaves_init$641               mg_leaves_init
     00025796  A$mg_leaves_init$642               mg_leaves_init
     00025799  A$mg_leaves_init$643               mg_leaves_init
     0002579A  A$mg_leaves_init$644               mg_leaves_init
     0002579C  A$mg_leaves_init$645               mg_leaves_init
     0002579E  A$mg_leaves_init$649               mg_leaves_init
     0002579E  C$mg_leaves_init.c$141$1_4$175     mg_leaves_init
     0002579F  A$mg_leaves_init$650               mg_leaves_init
     000257A1  A$mg_leaves_init$651               mg_leaves_init
     000257A2  A$mg_leaves_init$652               mg_leaves_init
     000257A5  A$mg_leaves_init$653               mg_leaves_init
     000257A6  A$mg_leaves_init$654               mg_leaves_init
     000257A8  A$mg_leaves_init$655               mg_leaves_init
     000257AA  A$mg_leaves_init$656               mg_leaves_init
     000257AB  A$mg_leaves_init$660               mg_leaves_init
ASxxxx Linker V03.00/V05.40 + sdld,  page 220.
Hexadecimal  [32-Bits]

Area                                    Addr        Size        Decimal Bytes (Attributes)
--------------------------------        ----        ----        ------- ----- ------------
_CODE_2                             00024000    00001EFB =        7931. bytes (REL,CON)

      Value  Global                              Global Defined In Module
      -----  --------------------------------   ------------------------
     000257AB  C$mg_leaves_init.c$143$1_4$189     mg_leaves_init
     000257AD  A$mg_leaves_init$661               mg_leaves_init
     000257AE  A$mg_leaves_init$662               mg_leaves_init
     000257AF  A$mg_leaves_init$663               mg_leaves_init
     000257B1  A$mg_leaves_init$664               mg_leaves_init
     000257B3  A$mg_leaves_init$665               mg_leaves_init
     000257B6  A$mg_leaves_init$669               mg_leaves_init
     000257B6  C$mg_leaves_init.c$144$1_4$189     mg_leaves_init
     000257B8  A$mg_leaves_init$670               mg_leaves_init
     000257B9  A$mg_leaves_init$671               mg_leaves_init
     000257BA  A$mg_leaves_init$672               mg_leaves_init
     000257BB  A$mg_leaves_init$673               mg_leaves_init
     000257BD  A$mg_leaves_init$674               mg_leaves_init
     000257BF  A$mg_leaves_init$675               mg_leaves_init
     000257C2  A$mg_leaves_init$679               mg_leaves_init
     000257C2  C$mg_leaves_init.c$145$1_4$189     mg_leaves_init
     000257C4  A$mg_leaves_init$680               mg_leaves_init
     000257C5  A$mg_leaves_init$681               mg_leaves_init
     000257C6  A$mg_leaves_init$682               mg_leaves_init
     000257C7  A$mg_leaves_init$683               mg_leaves_init
     000257C9  A$mg_leaves_init$684               mg_leaves_init
     000257CB  A$mg_leaves_init$685               mg_leaves_init
     000257CE  A$mg_leaves_init$689               mg_leaves_init
     000257CE  C$mg_leaves_init.c$146$1_4$189     mg_leaves_init
     000257D0  A$mg_leaves_init$690               mg_leaves_init
     000257D1  A$mg_leaves_init$691               mg_leaves_init
     000257D2  A$mg_leaves_init$692               mg_leaves_init
     000257D3  A$mg_leaves_init$693               mg_leaves_init
     000257D5  A$mg_leaves_init$694               mg_leaves_init
     000257D7  A$mg_leaves_init$695               mg_leaves_init
     000257DA  A$mg_leaves_init$699               mg_leaves_init
     000257DA  C$mg_leaves_init.c$148$1_4$189     mg_leaves_init
     000257DD  A$mg_leaves_init$700               mg_leaves_init
     000257E0  A$mg_leaves_init$704               mg_leaves_init
     000257E2  A$mg_leaves_init$709               mg_leaves_init
     000257E2  C$mg_leaves_init.c$149$1_4$175     mg_leaves_init
     000257E2  XG$Mg_Leaves_Init$0$0              mg_leaves_init
     000257E3  Fmg_leaves_init$__str_0$0_0$0      mg_leaves_init
     000257E8  Fmg_leaves_init$__str_1$0_0$0      mg_leaves_init
     000257EE  A$mg_leaves_player_init$53         mg_leaves_player_init
     000257EE  C$mg_leaves_player_init.c$11$0_0   mg_leaves_player_init
     000257EE  G$Mg_Leaves_Player_Init$0$0        mg_leaves_player_init
     000257EE  _Mg_Leaves_Player_Init             mg_leaves_player_init
     000257F0  A$mg_leaves_player_init$57         mg_leaves_player_init
     000257F0  C$mg_leaves_player_init.c$13$1_0   mg_leaves_player_init
     000257F3  A$mg_leaves_player_init$58         mg_leaves_player_init
     000257F4  A$mg_leaves_player_init$59         mg_leaves_player_init
     000257F6  A$mg_leaves_player_init$60         mg_leaves_player_init
     000257F9  A$mg_leaves_player_init$61         mg_leaves_player_init
     000257FA  A$mg_leaves_player_init$62         mg_leaves_player_init
     000257FC  A$mg_leaves_player_init$66         mg_leaves_player_init
ASxxxx Linker V03.00/V05.40 + sdld,  page 221.
Hexadecimal  [32-Bits]

Area                                    Addr        Size        Decimal Bytes (Attributes)
--------------------------------        ----        ----        ------- ----- ------------
_CODE_2                             00024000    00001EFB =        7931. bytes (REL,CON)

      Value  Global                              Global Defined In Module
      -----  --------------------------------   ------------------------
     000257FC  C$mg_leaves_player_init.c$14$1_0   mg_leaves_player_init
     000257FF  A$mg_leaves_player_init$67         mg_leaves_player_init
     00025802  A$mg_leaves_player_init$68         mg_leaves_player_init
     00025803  A$mg_leaves_player_init$69         mg_leaves_player_init
     00025805  A$mg_leaves_player_init$70         mg_leaves_player_init
     00025806  A$mg_leaves_player_init$71         mg_leaves_player_init
     00025808  A$mg_leaves_player_init$75         mg_leaves_player_init
     00025808  C$mg_leaves_player_init.c$15$1_0   mg_leaves_player_init
     0002580B  A$mg_leaves_player_init$76         mg_leaves_player_init
     0002580E  A$mg_leaves_player_init$77         mg_leaves_player_init
     0002580F  A$mg_leaves_player_init$78         mg_leaves_player_init
     00025810  A$mg_leaves_player_init$79         mg_leaves_player_init
     00025811  A$mg_leaves_player_init$80         mg_leaves_player_init
     00025812  A$mg_leaves_player_init$81         mg_leaves_player_init
     00025813  A$mg_leaves_player_init$82         mg_leaves_player_init
     00025815  A$mg_leaves_player_init$83         mg_leaves_player_init
     00025816  A$mg_leaves_player_init$84         mg_leaves_player_init
     00025818  A$mg_leaves_player_init$88         mg_leaves_player_init
     00025818  C$mg_leaves_player_init.c$17$1_0   mg_leaves_player_init
     0002581B  A$mg_leaves_player_init$89         mg_leaves_player_init
     0002581E  A$mg_leaves_player_init$90         mg_leaves_player_init
     0002581F  A$mg_leaves_player_init$91         mg_leaves_player_init
     00025820  A$mg_leaves_player_init$92         mg_leaves_player_init
     00025822  A$mg_leaves_player_init$93         mg_leaves_player_init
     00025823  A$mg_leaves_player_init$94         mg_leaves_player_init
     00025826  A$mg_leaves_player_init$95         mg_leaves_player_init
     00025828  A$mg_leaves_player_init$96         mg_leaves_player_init
     00025829  A$mg_leaves_player_init$97         mg_leaves_player_init
     0002582B  A$mg_leaves_player_init$98         mg_leaves_player_init
     0002582D  A$mg_leaves_player_init$99         mg_leaves_player_init
     0002582E  A$mg_leaves_player_init$100        mg_leaves_player_init
     0002582F  A$mg_leaves_player_init$101        mg_leaves_player_init
     00025830  A$mg_leaves_player_init$102        mg_leaves_player_init
     00025831  A$mg_leaves_player_init$103        mg_leaves_player_init
     00025832  A$mg_leaves_player_init$104        mg_leaves_player_init
     00025833  A$mg_leaves_player_init$108        mg_leaves_player_init
     00025833  C$mg_leaves_player_init.c$18$1_0   mg_leaves_player_init
     00025836  A$mg_leaves_player_init$109        mg_leaves_player_init
     00025837  A$mg_leaves_player_init$110        mg_leaves_player_init
     00025838  A$mg_leaves_player_init$111        mg_leaves_player_init
     0002583A  A$mg_leaves_player_init$112        mg_leaves_player_init
     0002583B  A$mg_leaves_player_init$113        mg_leaves_player_init
     0002583D  A$mg_leaves_player_init$114        mg_leaves_player_init
     0002583F  A$mg_leaves_player_init$115        mg_leaves_player_init
     00025840  A$mg_leaves_player_init$116        mg_leaves_player_init
     00025841  A$mg_leaves_player_init$117        mg_leaves_player_init
     00025843  A$mg_leaves_player_init$118        mg_leaves_player_init
     00025844  A$mg_leaves_player_init$119        mg_leaves_player_init
     00025845  A$mg_leaves_player_init$120        mg_leaves_player_init
     00025846  A$mg_leaves_player_init$121        mg_leaves_player_init
     00025847  A$mg_leaves_player_init$122        mg_leaves_player_init
ASxxxx Linker V03.00/V05.40 + sdld,  page 222.
Hexadecimal  [32-Bits]

Area                                    Addr        Size        Decimal Bytes (Attributes)
--------------------------------        ----        ----        ------- ----- ------------
_CODE_2                             00024000    00001EFB =        7931. bytes (REL,CON)

      Value  Global                              Global Defined In Module
      -----  --------------------------------   ------------------------
     00025848  A$mg_leaves_player_init$123        mg_leaves_player_init
     00025849  A$mg_leaves_player_init$124        mg_leaves_player_init
     0002584A  A$mg_leaves_player_init$128        mg_leaves_player_init
     0002584A  C$mg_leaves_player_init.c$20$1_0   mg_leaves_player_init
     0002584D  A$mg_leaves_player_init$129        mg_leaves_player_init
     0002584E  A$mg_leaves_player_init$130        mg_leaves_player_init
     00025850  A$mg_leaves_player_init$131        mg_leaves_player_init
     00025853  A$mg_leaves_player_init$132        mg_leaves_player_init
     00025854  A$mg_leaves_player_init$133        mg_leaves_player_init
     00025856  A$mg_leaves_player_init$137        mg_leaves_player_init
     00025856  C$mg_leaves_player_init.c$21$1_0   mg_leaves_player_init
     00025859  A$mg_leaves_player_init$138        mg_leaves_player_init
     0002585C  A$mg_leaves_player_init$139        mg_leaves_player_init
     0002585D  A$mg_leaves_player_init$140        mg_leaves_player_init
     0002585F  A$mg_leaves_player_init$141        mg_leaves_player_init
     00025860  A$mg_leaves_player_init$142        mg_leaves_player_init
     00025862  A$mg_leaves_player_init$146        mg_leaves_player_init
     00025862  C$mg_leaves_player_init.c$22$1_0   mg_leaves_player_init
     00025865  A$mg_leaves_player_init$147        mg_leaves_player_init
     00025868  A$mg_leaves_player_init$148        mg_leaves_player_init
     00025869  A$mg_leaves_player_init$149        mg_leaves_player_init
     0002586B  A$mg_leaves_player_init$150        mg_leaves_player_init
     0002586C  A$mg_leaves_player_init$151        mg_leaves_player_init
     0002586E  A$mg_leaves_player_init$155        mg_leaves_player_init
     0002586E  C$mg_leaves_player_init.c$24$2_0   mg_leaves_player_init
     00025870  A$mg_leaves_player_init$156        mg_leaves_player_init
     00025872  A$mg_leaves_player_init$157        mg_leaves_player_init
     00025873  A$mg_leaves_player_init$158        mg_leaves_player_init
     00025875  A$mg_leaves_player_init$159        mg_leaves_player_init
     00025876  A$mg_leaves_player_init$160        mg_leaves_player_init
     00025878  A$mg_leaves_player_init$161        mg_leaves_player_init
     00025879  A$mg_leaves_player_init$162        mg_leaves_player_init
     0002587B  A$mg_leaves_player_init$166        mg_leaves_player_init
     0002587B  C$mg_leaves_player_init.c$28$1_1   mg_leaves_player_init
     0002587E  A$mg_leaves_player_init$167        mg_leaves_player_init
     0002587F  A$mg_leaves_player_init$168        mg_leaves_player_init
     00025881  A$mg_leaves_player_init$169        mg_leaves_player_init
     00025882  A$mg_leaves_player_init$170        mg_leaves_player_init
     00025883  A$mg_leaves_player_init$171        mg_leaves_player_init
     00025884  A$mg_leaves_player_init$172        mg_leaves_player_init
     00025885  A$mg_leaves_player_init$173        mg_leaves_player_init
     00025886  A$mg_leaves_player_init$174        mg_leaves_player_init
     00025887  A$mg_leaves_player_init$175        mg_leaves_player_init
     00025888  A$mg_leaves_player_init$176        mg_leaves_player_init
     00025889  A$mg_leaves_player_init$177        mg_leaves_player_init
     0002588A  A$mg_leaves_player_init$178        mg_leaves_player_init
     0002588D  A$mg_leaves_player_init$179        mg_leaves_player_init
     0002588E  A$mg_leaves_player_init$180        mg_leaves_player_init
     0002588F  A$mg_leaves_player_init$181        mg_leaves_player_init
     00025890  A$mg_leaves_player_init$182        mg_leaves_player_init
     00025893  A$mg_leaves_player_init$183        mg_leaves_player_init
ASxxxx Linker V03.00/V05.40 + sdld,  page 223.
Hexadecimal  [32-Bits]

Area                                    Addr        Size        Decimal Bytes (Attributes)
--------------------------------        ----        ----        ------- ----- ------------
_CODE_2                             00024000    00001EFB =        7931. bytes (REL,CON)

      Value  Global                              Global Defined In Module
      -----  --------------------------------   ------------------------
     00025894  A$mg_leaves_player_init$184        mg_leaves_player_init
     00025896  A$mg_leaves_player_init$185        mg_leaves_player_init
     00025897  A$mg_leaves_player_init$186        mg_leaves_player_init
     00025898  A$mg_leaves_player_init$187        mg_leaves_player_init
     0002589B  A$mg_leaves_player_init$188        mg_leaves_player_init
     0002589C  A$mg_leaves_player_init$189        mg_leaves_player_init
     0002589D  A$mg_leaves_player_init$190        mg_leaves_player_init
     0002589E  A$mg_leaves_player_init$191        mg_leaves_player_init
     0002589F  A$mg_leaves_player_init$192        mg_leaves_player_init
     000258A0  A$mg_leaves_player_init$193        mg_leaves_player_init
     000258A1  A$mg_leaves_player_init$194        mg_leaves_player_init
     000258A4  A$mg_leaves_player_init$195        mg_leaves_player_init
     000258A7  A$mg_leaves_player_init$199        mg_leaves_player_init
     000258A9  A$mg_leaves_player_init$204        mg_leaves_player_init
     000258A9  C$mg_leaves_player_init.c$29$1_1   mg_leaves_player_init
     000258A9  XG$Mg_Leaves_Player_Init$0$0       mg_leaves_player_init
     000258AA  A$mg_leaves_update$75              mg_leaves_update
     000258AA  C$mg_leaves_update.c$28$0_0$185    mg_leaves_update
     000258AA  G$is_being_swept$0$0               mg_leaves_update
     000258AA  _is_being_swept                    mg_leaves_update
     000258AC  A$mg_leaves_update$76              mg_leaves_update
     000258AD  A$mg_leaves_update$80              mg_leaves_update
     000258AD  C$mg_leaves_update.c$30$1_0$185    mg_leaves_update
     000258B0  A$mg_leaves_update$81              mg_leaves_update
     000258B3  A$mg_leaves_update$82              mg_leaves_update
     000258B4  A$mg_leaves_update$83              mg_leaves_update
     000258B6  A$mg_leaves_update$84              mg_leaves_update
     000258B7  A$mg_leaves_update$85              mg_leaves_update
     000258B8  A$mg_leaves_update$86              mg_leaves_update
     000258BA  A$mg_leaves_update$87              mg_leaves_update
     000258BB  A$mg_leaves_update$91              mg_leaves_update
     000258BB  C$mg_leaves_update.c$32$1_0$185    mg_leaves_update
     000258BE  A$mg_leaves_update$92              mg_leaves_update
     000258C0  A$mg_leaves_update$93              mg_leaves_update
     000258C1  A$mg_leaves_update$94              mg_leaves_update
     000258C2  A$mg_leaves_update$98              mg_leaves_update
     000258C2  C$mg_leaves_update.c$34$2_0$186    mg_leaves_update
     000258C4  A$mg_leaves_update$99              mg_leaves_update
     000258C5  A$mg_leaves_update$100             mg_leaves_update
     000258C6  A$mg_leaves_update$101             mg_leaves_update
     000258C7  A$mg_leaves_update$102             mg_leaves_update
     000258C8  A$mg_leaves_update$103             mg_leaves_update
     000258C9  A$mg_leaves_update$104             mg_leaves_update
     000258CA  A$mg_leaves_update$105             mg_leaves_update
     000258CB  A$mg_leaves_update$106             mg_leaves_update
     000258CC  A$mg_leaves_update$107             mg_leaves_update
     000258CF  A$mg_leaves_update$108             mg_leaves_update
     000258D0  A$mg_leaves_update$109             mg_leaves_update
     000258D1  A$mg_leaves_update$110             mg_leaves_update
     000258D2  A$mg_leaves_update$111             mg_leaves_update
     000258D4  A$mg_leaves_update$112             mg_leaves_update
ASxxxx Linker V03.00/V05.40 + sdld,  page 224.
Hexadecimal  [32-Bits]

Area                                    Addr        Size        Decimal Bytes (Attributes)
--------------------------------        ----        ----        ------- ----- ------------
_CODE_2                             00024000    00001EFB =        7931. bytes (REL,CON)

      Value  Global                              Global Defined In Module
      -----  --------------------------------   ------------------------
     000258D5  A$mg_leaves_update$113             mg_leaves_update
     000258D6  A$mg_leaves_update$114             mg_leaves_update
     000258D7  A$mg_leaves_update$115             mg_leaves_update
     000258D9  A$mg_leaves_update$116             mg_leaves_update
     000258DA  A$mg_leaves_update$117             mg_leaves_update
     000258DC  A$mg_leaves_update$118             mg_leaves_update
     000258DD  A$mg_leaves_update$119             mg_leaves_update
     000258DF  A$mg_leaves_update$120             mg_leaves_update
     000258E0  A$mg_leaves_update$121             mg_leaves_update
     000258E2  A$mg_leaves_update$122             mg_leaves_update
     000258E4  A$mg_leaves_update$123             mg_leaves_update
     000258E5  A$mg_leaves_update$124             mg_leaves_update
     000258E6  A$mg_leaves_update$125             mg_leaves_update
     000258E8  A$mg_leaves_update$126             mg_leaves_update
     000258E9  A$mg_leaves_update$127             mg_leaves_update
     000258EA  A$mg_leaves_update$128             mg_leaves_update
     000258EB  A$mg_leaves_update$129             mg_leaves_update
     000258EC  A$mg_leaves_update$130             mg_leaves_update
     000258ED  A$mg_leaves_update$131             mg_leaves_update
     000258EE  A$mg_leaves_update$132             mg_leaves_update
     000258F0  A$mg_leaves_update$133             mg_leaves_update
     000258F2  A$mg_leaves_update$134             mg_leaves_update
     000258F3  A$mg_leaves_update$135             mg_leaves_update
     000258F4  A$mg_leaves_update$136             mg_leaves_update
     000258F5  A$mg_leaves_update$137             mg_leaves_update
     000258F8  A$mg_leaves_update$138             mg_leaves_update
     000258F9  A$mg_leaves_update$139             mg_leaves_update
     000258FA  A$mg_leaves_update$140             mg_leaves_update
     000258FB  A$mg_leaves_update$141             mg_leaves_update
     000258FD  A$mg_leaves_update$142             mg_leaves_update
     000258FE  A$mg_leaves_update$143             mg_leaves_update
     000258FF  A$mg_leaves_update$144             mg_leaves_update
     00025900  A$mg_leaves_update$145             mg_leaves_update
     00025902  A$mg_leaves_update$146             mg_leaves_update
     00025903  A$mg_leaves_update$147             mg_leaves_update
     00025905  A$mg_leaves_update$148             mg_leaves_update
     00025906  A$mg_leaves_update$149             mg_leaves_update
     00025907  A$mg_leaves_update$150             mg_leaves_update
     00025909  A$mg_leaves_update$151             mg_leaves_update
     0002590A  A$mg_leaves_update$152             mg_leaves_update
     0002590B  A$mg_leaves_update$153             mg_leaves_update
     0002590C  A$mg_leaves_update$154             mg_leaves_update
     0002590D  A$mg_leaves_update$155             mg_leaves_update
     0002590E  A$mg_leaves_update$156             mg_leaves_update
     0002590F  A$mg_leaves_update$157             mg_leaves_update
     00025911  A$mg_leaves_update$161             mg_leaves_update
     00025911  C$mg_leaves_update.c$36$4_0$188    mg_leaves_update
     00025913  A$mg_leaves_update$162             mg_leaves_update
     00025914  A$mg_leaves_update$163             mg_leaves_update
     00025915  A$mg_leaves_update$164             mg_leaves_update
     00025917  A$mg_leaves_update$168             mg_leaves_update
ASxxxx Linker V03.00/V05.40 + sdld,  page 225.
Hexadecimal  [32-Bits]

Area                                    Addr        Size        Decimal Bytes (Attributes)
--------------------------------        ----        ----        ------- ----- ------------
_CODE_2                             00024000    00001EFB =        7931. bytes (REL,CON)

      Value  Global                              Global Defined In Module
      -----  --------------------------------   ------------------------
     00025917  C$mg_leaves_update.c$37$4_0$188    mg_leaves_update
     0002591A  A$mg_leaves_update$169             mg_leaves_update
     0002591B  A$mg_leaves_update$170             mg_leaves_update
     0002591D  A$mg_leaves_update$171             mg_leaves_update
     0002591E  A$mg_leaves_update$172             mg_leaves_update
     00025920  A$mg_leaves_update$177             mg_leaves_update
     00025920  C$mg_leaves_update.c$39$4_0$189    mg_leaves_update
     00025922  A$mg_leaves_update$178             mg_leaves_update
     00025923  A$mg_leaves_update$179             mg_leaves_update
     00025924  A$mg_leaves_update$180             mg_leaves_update
     00025926  A$mg_leaves_update$184             mg_leaves_update
     00025926  C$mg_leaves_update.c$40$4_0$189    mg_leaves_update
     00025929  A$mg_leaves_update$185             mg_leaves_update
     0002592A  A$mg_leaves_update$186             mg_leaves_update
     0002592C  A$mg_leaves_update$187             mg_leaves_update
     0002592D  A$mg_leaves_update$188             mg_leaves_update
     0002592F  A$mg_leaves_update$193             mg_leaves_update
     0002592F  C$mg_leaves_update.c$42$3_0$187    mg_leaves_update
     00025931  A$mg_leaves_update$194             mg_leaves_update
     00025933  A$mg_leaves_update$199             mg_leaves_update
     00025933  C$mg_leaves_update.c$45$1_0$185    mg_leaves_update
     00025934  A$mg_leaves_update$204             mg_leaves_update
     00025936  A$mg_leaves_update$209             mg_leaves_update
     00025936  C$mg_leaves_update.c$46$1_0$185    mg_leaves_update
     00025936  XG$is_being_swept$0$0              mg_leaves_update
     00025937  A$mg_leaves_update$219             mg_leaves_update
     00025937  C$mg_leaves_update.c$48$1_0$191    mg_leaves_update
     00025937  G$spawn$0$0                        mg_leaves_update
     00025937  _spawn                             mg_leaves_update
     00025939  A$mg_leaves_update$220             mg_leaves_update
     0002593B  A$mg_leaves_update$221             mg_leaves_update
     0002593C  A$mg_leaves_update$225             mg_leaves_update
     0002593C  C$mg_leaves_update.c$50$2_0$192    mg_leaves_update
     0002593F  A$mg_leaves_update$226             mg_leaves_update
     00025940  A$mg_leaves_update$227             mg_leaves_update
     00025942  A$mg_leaves_update$228             mg_leaves_update
     00025943  A$mg_leaves_update$229             mg_leaves_update
     00025944  A$mg_leaves_update$230             mg_leaves_update
     00025945  A$mg_leaves_update$231             mg_leaves_update
     00025946  A$mg_leaves_update$232             mg_leaves_update
     00025947  A$mg_leaves_update$233             mg_leaves_update
     00025948  A$mg_leaves_update$234             mg_leaves_update
     00025949  A$mg_leaves_update$235             mg_leaves_update
     0002594B  A$mg_leaves_update$236             mg_leaves_update
     0002594D  A$mg_leaves_update$240             mg_leaves_update
     0002594D  C$mg_leaves_update.c$51$2_0$192    mg_leaves_update
     00025950  A$mg_leaves_update$241             mg_leaves_update
     00025952  A$mg_leaves_update$242             mg_leaves_update
     00025953  A$mg_leaves_update$243             mg_leaves_update
     00025955  A$mg_leaves_update$244             mg_leaves_update
     00025956  A$mg_leaves_update$245             mg_leaves_update
ASxxxx Linker V03.00/V05.40 + sdld,  page 226.
Hexadecimal  [32-Bits]

Area                                    Addr        Size        Decimal Bytes (Attributes)
--------------------------------        ----        ----        ------- ----- ------------
_CODE_2                             00024000    00001EFB =        7931. bytes (REL,CON)

      Value  Global                              Global Defined In Module
      -----  --------------------------------   ------------------------
     00025957  A$mg_leaves_update$246             mg_leaves_update
     00025958  A$mg_leaves_update$247             mg_leaves_update
     00025959  A$mg_leaves_update$248             mg_leaves_update
     0002595A  A$mg_leaves_update$249             mg_leaves_update
     0002595B  A$mg_leaves_update$254             mg_leaves_update
     0002595B  C$mg_leaves_update.c$53$2_0$193    mg_leaves_update
     0002595C  A$mg_leaves_update$255             mg_leaves_update
     0002595D  A$mg_leaves_update$256             mg_leaves_update
     0002595E  A$mg_leaves_update$257             mg_leaves_update
     00025960  A$mg_leaves_update$258             mg_leaves_update
     00025963  A$mg_leaves_update$259             mg_leaves_update
     00025966  A$mg_leaves_update$260             mg_leaves_update
     00025968  A$mg_leaves_update$261             mg_leaves_update
     00025969  A$mg_leaves_update$262             mg_leaves_update
     0002596A  A$mg_leaves_update$263             mg_leaves_update
     0002596B  A$mg_leaves_update$264             mg_leaves_update
     0002596D  A$mg_leaves_update$265             mg_leaves_update
     0002596E  A$mg_leaves_update$266             mg_leaves_update
     0002596F  A$mg_leaves_update$267             mg_leaves_update
     00025970  A$mg_leaves_update$268             mg_leaves_update
     00025971  A$mg_leaves_update$269             mg_leaves_update
     00025972  A$mg_leaves_update$270             mg_leaves_update
     00025973  A$mg_leaves_update$271             mg_leaves_update
     00025974  A$mg_leaves_update$272             mg_leaves_update
     00025975  A$mg_leaves_update$273             mg_leaves_update
     00025976  A$mg_leaves_update$274             mg_leaves_update
     00025977  A$mg_leaves_update$275             mg_leaves_update
     00025978  A$mg_leaves_update$276             mg_leaves_update
     00025979  A$mg_leaves_update$277             mg_leaves_update
     0002597A  A$mg_leaves_update$278             mg_leaves_update
     0002597B  A$mg_leaves_update$279             mg_leaves_update
     0002597C  A$mg_leaves_update$280             mg_leaves_update
     0002597D  A$mg_leaves_update$281             mg_leaves_update
     00025980  A$mg_leaves_update$282             mg_leaves_update
     00025981  A$mg_leaves_update$283             mg_leaves_update
     00025982  A$mg_leaves_update$284             mg_leaves_update
     00025983  A$mg_leaves_update$285             mg_leaves_update
     00025985  A$mg_leaves_update$286             mg_leaves_update
     00025986  A$mg_leaves_update$287             mg_leaves_update
     00025987  A$mg_leaves_update$288             mg_leaves_update
     00025988  A$mg_leaves_update$289             mg_leaves_update
     0002598B  A$mg_leaves_update$290             mg_leaves_update
     0002598C  A$mg_leaves_update$291             mg_leaves_update
     0002598D  A$mg_leaves_update$292             mg_leaves_update
     0002598F  A$mg_leaves_update$296             mg_leaves_update
     0002598F  C$mg_leaves_update.c$55$3_0$194    mg_leaves_update
     00025992  A$mg_leaves_update$297             mg_leaves_update
     00025994  A$mg_leaves_update$298             mg_leaves_update
     00025995  A$mg_leaves_update$299             mg_leaves_update
     00025997  A$mg_leaves_update$300             mg_leaves_update
     00025998  A$mg_leaves_update$301             mg_leaves_update
ASxxxx Linker V03.00/V05.40 + sdld,  page 227.
Hexadecimal  [32-Bits]

Area                                    Addr        Size        Decimal Bytes (Attributes)
--------------------------------        ----        ----        ------- ----- ------------
_CODE_2                             00024000    00001EFB =        7931. bytes (REL,CON)

      Value  Global                              Global Defined In Module
      -----  --------------------------------   ------------------------
     00025999  A$mg_leaves_update$302             mg_leaves_update
     0002599A  A$mg_leaves_update$303             mg_leaves_update
     0002599B  A$mg_leaves_update$304             mg_leaves_update
     0002599C  A$mg_leaves_update$308             mg_leaves_update
     0002599C  C$mg_leaves_update.c$56$3_0$194    mg_leaves_update
     0002599D  A$mg_leaves_update$309             mg_leaves_update
     0002599F  A$mg_leaves_update$310             mg_leaves_update
     000259A0  A$mg_leaves_update$314             mg_leaves_update
     000259A0  C$mg_leaves_update.c$57$3_0$194    mg_leaves_update
     000259A3  A$mg_leaves_update$315             mg_leaves_update
     000259A5  A$mg_leaves_update$316             mg_leaves_update
     000259A6  A$mg_leaves_update$317             mg_leaves_update
     000259A8  A$mg_leaves_update$318             mg_leaves_update
     000259A9  A$mg_leaves_update$319             mg_leaves_update
     000259AB  A$mg_leaves_update$323             mg_leaves_update
     000259AB  C$mg_leaves_update.c$59$3_0$194    mg_leaves_update
     000259AE  A$mg_leaves_update$324             mg_leaves_update
     000259B0  A$mg_leaves_update$325             mg_leaves_update
     000259B1  A$mg_leaves_update$326             mg_leaves_update
     000259B3  A$mg_leaves_update$327             mg_leaves_update
     000259B4  A$mg_leaves_update$328             mg_leaves_update
     000259B6  A$mg_leaves_update$332             mg_leaves_update
     000259B6  C$mg_leaves_update.c$60$3_0$194    mg_leaves_update
     000259B8  A$mg_leaves_update$333             mg_leaves_update
     000259B9  A$mg_leaves_update$334             mg_leaves_update
     000259BB  A$mg_leaves_update$335             mg_leaves_update
     000259BD  A$mg_leaves_update$336             mg_leaves_update
     000259BF  A$mg_leaves_update$337             mg_leaves_update
     000259C2  A$mg_leaves_update$338             mg_leaves_update
     000259C3  A$mg_leaves_update$339             mg_leaves_update
     000259C4  A$mg_leaves_update$340             mg_leaves_update
     000259C5  A$mg_leaves_update$341             mg_leaves_update
     000259C7  A$mg_leaves_update$345             mg_leaves_update
     000259C7  C$mg_leaves_update.c$62$3_0$194    mg_leaves_update
     000259CA  A$mg_leaves_update$346             mg_leaves_update
     000259CC  A$mg_leaves_update$347             mg_leaves_update
     000259CD  A$mg_leaves_update$348             mg_leaves_update
     000259CF  A$mg_leaves_update$349             mg_leaves_update
     000259D0  A$mg_leaves_update$350             mg_leaves_update
     000259D1  A$mg_leaves_update$351             mg_leaves_update
     000259D2  A$mg_leaves_update$352             mg_leaves_update
     000259D4  A$mg_leaves_update$353             mg_leaves_update
     000259D7  A$mg_leaves_update$354             mg_leaves_update
     000259D8  A$mg_leaves_update$355             mg_leaves_update
     000259D9  A$mg_leaves_update$356             mg_leaves_update
     000259DB  A$mg_leaves_update$357             mg_leaves_update
     000259DD  A$mg_leaves_update$358             mg_leaves_update
     000259DE  A$mg_leaves_update$359             mg_leaves_update
     000259DF  A$mg_leaves_update$360             mg_leaves_update
     000259E0  A$mg_leaves_update$364             mg_leaves_update
     000259E0  C$mg_leaves_update.c$63$3_0$194    mg_leaves_update
ASxxxx Linker V03.00/V05.40 + sdld,  page 228.
Hexadecimal  [32-Bits]

Area                                    Addr        Size        Decimal Bytes (Attributes)
--------------------------------        ----        ----        ------- ----- ------------
_CODE_2                             00024000    00001EFB =        7931. bytes (REL,CON)

      Value  Global                              Global Defined In Module
      -----  --------------------------------   ------------------------
     000259E1  A$mg_leaves_update$365             mg_leaves_update
     000259E3  A$mg_leaves_update$366             mg_leaves_update
     000259E4  A$mg_leaves_update$367             mg_leaves_update
     000259E5  A$mg_leaves_update$368             mg_leaves_update
     000259E8  A$mg_leaves_update$369             mg_leaves_update
     000259EB  A$mg_leaves_update$370             mg_leaves_update
     000259EE  A$mg_leaves_update$371             mg_leaves_update
     000259EF  A$mg_leaves_update$376             mg_leaves_update
     000259F1  A$mg_leaves_update$381             mg_leaves_update
     000259F1  C$mg_leaves_update.c$65$2_0$191    mg_leaves_update
     000259F1  XG$spawn$0$0                       mg_leaves_update
     000259F2  A$mg_leaves_update$391             mg_leaves_update
     000259F2  C$mg_leaves_update.c$67$2_0$196    mg_leaves_update
     000259F2  G$check_actor_status$0$0           mg_leaves_update
     000259F2  _check_actor_status                mg_leaves_update
     000259F4  A$mg_leaves_update$395             mg_leaves_update
     000259F4  C$mg_leaves_update.c$69$5_0$199    mg_leaves_update
     000259F6  A$mg_leaves_update$397             mg_leaves_update
     000259F7  A$mg_leaves_update$398             mg_leaves_update
     000259F9  A$mg_leaves_update$399             mg_leaves_update
     000259FC  A$mg_leaves_update$403             mg_leaves_update
     000259FC  C$mg_leaves_update.c$71$3_0$197    mg_leaves_update
     000259FD  A$mg_leaves_update$404             mg_leaves_update
     000259FF  A$mg_leaves_update$405             mg_leaves_update
     00025A01  A$mg_leaves_update$406             mg_leaves_update
     00025A02  A$mg_leaves_update$407             mg_leaves_update
     00025A04  A$mg_leaves_update$408             mg_leaves_update
     00025A05  A$mg_leaves_update$412             mg_leaves_update
     00025A05  C$mg_leaves_update.c$73$3_0$197    mg_leaves_update
     00025A06  A$mg_leaves_update$413             mg_leaves_update
     00025A07  A$mg_leaves_update$414             mg_leaves_update
     00025A0A  A$mg_leaves_update$415             mg_leaves_update
     00025A0B  A$mg_leaves_update$419             mg_leaves_update
     00025A0B  C$mg_leaves_update.c$75$2_0$196    mg_leaves_update
     00025A0E  A$mg_leaves_update$420             mg_leaves_update
     00025A0F  A$mg_leaves_update$421             mg_leaves_update
     00025A11  A$mg_leaves_update$422             mg_leaves_update
     00025A12  A$mg_leaves_update$423             mg_leaves_update
     00025A13  A$mg_leaves_update$424             mg_leaves_update
     00025A14  A$mg_leaves_update$425             mg_leaves_update
     00025A15  A$mg_leaves_update$426             mg_leaves_update
     00025A16  A$mg_leaves_update$427             mg_leaves_update
     00025A17  A$mg_leaves_update$428             mg_leaves_update
     00025A18  A$mg_leaves_update$429             mg_leaves_update
     00025A19  A$mg_leaves_update$430             mg_leaves_update
     00025A1B  A$mg_leaves_update$434             mg_leaves_update
     00025A1B  C$mg_leaves_update.c$77$6_0$199    mg_leaves_update
     00025A1D  A$mg_leaves_update$438             mg_leaves_update
     00025A1D  C$mg_leaves_update.c$78$6_0$200    mg_leaves_update
     00025A1F  A$mg_leaves_update$439             mg_leaves_update
     00025A20  A$mg_leaves_update$440             mg_leaves_update
ASxxxx Linker V03.00/V05.40 + sdld,  page 229.
Hexadecimal  [32-Bits]

Area                                    Addr        Size        Decimal Bytes (Attributes)
--------------------------------        ----        ----        ------- ----- ------------
_CODE_2                             00024000    00001EFB =        7931. bytes (REL,CON)

      Value  Global                              Global Defined In Module
      -----  --------------------------------   ------------------------
     00025A21  A$mg_leaves_update$441             mg_leaves_update
     00025A23  A$mg_leaves_update$445             mg_leaves_update
     00025A23  C$mg_leaves_update.c$79$6_0$200    mg_leaves_update
     00025A25  A$mg_leaves_update$450             mg_leaves_update
     00025A25  C$mg_leaves_update.c$81$5_0$199    mg_leaves_update
     00025A26  A$mg_leaves_update$451             mg_leaves_update
     00025A28  A$mg_leaves_update$452             mg_leaves_update
     00025A29  A$mg_leaves_update$453             mg_leaves_update
     00025A2A  A$mg_leaves_update$454             mg_leaves_update
     00025A2B  A$mg_leaves_update$455             mg_leaves_update
     00025A2E  A$mg_leaves_update$456             mg_leaves_update
     00025A2F  A$mg_leaves_update$457             mg_leaves_update
     00025A30  A$mg_leaves_update$458             mg_leaves_update
     00025A31  A$mg_leaves_update$459             mg_leaves_update
     00025A33  A$mg_leaves_update$460             mg_leaves_update
     00025A34  A$mg_leaves_update$461             mg_leaves_update
     00025A35  A$mg_leaves_update$462             mg_leaves_update
     00025A36  A$mg_leaves_update$463             mg_leaves_update
     00025A38  A$mg_leaves_update$464             mg_leaves_update
     00025A39  A$mg_leaves_update$465             mg_leaves_update
     00025A3A  A$mg_leaves_update$466             mg_leaves_update
     00025A3B  A$mg_leaves_update$467             mg_leaves_update
     00025A3C  A$mg_leaves_update$468             mg_leaves_update
     00025A3D  A$mg_leaves_update$469             mg_leaves_update
     00025A3E  A$mg_leaves_update$470             mg_leaves_update
     00025A3F  A$mg_leaves_update$471             mg_leaves_update
     00025A40  A$mg_leaves_update$472             mg_leaves_update
     00025A41  A$mg_leaves_update$473             mg_leaves_update
     00025A42  A$mg_leaves_update$474             mg_leaves_update
     00025A43  A$mg_leaves_update$475             mg_leaves_update
     00025A45  A$mg_leaves_update$476             mg_leaves_update
     00025A46  A$mg_leaves_update$477             mg_leaves_update
     00025A47  A$mg_leaves_update$478             mg_leaves_update
     00025A48  A$mg_leaves_update$479             mg_leaves_update
     00025A4A  A$mg_leaves_update$480             mg_leaves_update
     00025A4B  A$mg_leaves_update$481             mg_leaves_update
     00025A4C  A$mg_leaves_update$482             mg_leaves_update
     00025A4D  A$mg_leaves_update$483             mg_leaves_update
     00025A4F  A$mg_leaves_update$484             mg_leaves_update
     00025A50  A$mg_leaves_update$485             mg_leaves_update
     00025A51  A$mg_leaves_update$486             mg_leaves_update
     00025A52  A$mg_leaves_update$487             mg_leaves_update
     00025A53  A$mg_leaves_update$488             mg_leaves_update
     00025A54  A$mg_leaves_update$489             mg_leaves_update
     00025A55  A$mg_leaves_update$490             mg_leaves_update
     00025A56  A$mg_leaves_update$491             mg_leaves_update
     00025A57  A$mg_leaves_update$492             mg_leaves_update
     00025A58  A$mg_leaves_update$496             mg_leaves_update
     00025A58  C$mg_leaves_update.c$82$5_0$199    mg_leaves_update
     00025A5B  A$mg_leaves_update$497             mg_leaves_update
     00025A5D  A$mg_leaves_update$498             mg_leaves_update
ASxxxx Linker V03.00/V05.40 + sdld,  page 230.
Hexadecimal  [32-Bits]

Area                                    Addr        Size        Decimal Bytes (Attributes)
--------------------------------        ----        ----        ------- ----- ------------
_CODE_2                             00024000    00001EFB =        7931. bytes (REL,CON)

      Value  Global                              Global Defined In Module
      -----  --------------------------------   ------------------------
     00025A5E  A$mg_leaves_update$499             mg_leaves_update
     00025A5F  A$mg_leaves_update$500             mg_leaves_update
     00025A61  A$mg_leaves_update$501             mg_leaves_update
     00025A62  A$mg_leaves_update$502             mg_leaves_update
     00025A63  A$mg_leaves_update$503             mg_leaves_update
     00025A64  A$mg_leaves_update$508             mg_leaves_update
     00025A64  C$mg_leaves_update.c$85$4_0$201    mg_leaves_update
     00025A67  A$mg_leaves_update$509             mg_leaves_update
     00025A68  A$mg_leaves_update$510             mg_leaves_update
     00025A6A  A$mg_leaves_update$514             mg_leaves_update
     00025A6B  A$mg_leaves_update$515             mg_leaves_update
     00025A6C  A$mg_leaves_update$516             mg_leaves_update
     00025A6D  A$mg_leaves_update$520             mg_leaves_update
     00025A6D  C$mg_leaves_update.c$88$2_0$196    mg_leaves_update
     00025A70  A$mg_leaves_update$521             mg_leaves_update
     00025A71  A$mg_leaves_update$525             mg_leaves_update
     00025A71  C$mg_leaves_update.c$87$6_0$203    mg_leaves_update
     00025A73  A$mg_leaves_update$526             mg_leaves_update
     00025A75  A$mg_leaves_update$530             mg_leaves_update
     00025A75  C$mg_leaves_update.c$88$6_0$203    mg_leaves_update
     00025A78  A$mg_leaves_update$531             mg_leaves_update
     00025A7A  A$mg_leaves_update$532             mg_leaves_update
     00025A7B  A$mg_leaves_update$533             mg_leaves_update
     00025A7D  A$mg_leaves_update$534             mg_leaves_update
     00025A7E  A$mg_leaves_update$535             mg_leaves_update
     00025A7F  A$mg_leaves_update$536             mg_leaves_update
     00025A81  A$mg_leaves_update$537             mg_leaves_update
     00025A83  A$mg_leaves_update$538             mg_leaves_update
     00025A84  A$mg_leaves_update$539             mg_leaves_update
     00025A85  A$mg_leaves_update$540             mg_leaves_update
     00025A87  A$mg_leaves_update$541             mg_leaves_update
     00025A88  A$mg_leaves_update$542             mg_leaves_update
     00025A8A  A$mg_leaves_update$547             mg_leaves_update
     00025A8A  C$mg_leaves_update.c$89$7_0$204    mg_leaves_update
     00025A8C  A$mg_leaves_update$548             mg_leaves_update
     00025A8E  A$mg_leaves_update$552             mg_leaves_update
     00025A8E  C$mg_leaves_update.c$90$7_0$204    mg_leaves_update
     00025A91  A$mg_leaves_update$553             mg_leaves_update
     00025A93  A$mg_leaves_update$554             mg_leaves_update
     00025A94  A$mg_leaves_update$555             mg_leaves_update
     00025A96  A$mg_leaves_update$556             mg_leaves_update
     00025A97  A$mg_leaves_update$557             mg_leaves_update
     00025A98  A$mg_leaves_update$558             mg_leaves_update
     00025A9A  A$mg_leaves_update$559             mg_leaves_update
     00025A9C  A$mg_leaves_update$560             mg_leaves_update
     00025A9D  A$mg_leaves_update$561             mg_leaves_update
     00025A9E  A$mg_leaves_update$562             mg_leaves_update
     00025AA0  A$mg_leaves_update$563             mg_leaves_update
     00025AA1  A$mg_leaves_update$568             mg_leaves_update
     00025AA1  C$mg_leaves_update.c$93$3_0$197    mg_leaves_update
     00025AA4  A$mg_leaves_update$569             mg_leaves_update
ASxxxx Linker V03.00/V05.40 + sdld,  page 231.
Hexadecimal  [32-Bits]

Area                                    Addr        Size        Decimal Bytes (Attributes)
--------------------------------        ----        ----        ------- ----- ------------
_CODE_2                             00024000    00001EFB =        7931. bytes (REL,CON)

      Value  Global                              Global Defined In Module
      -----  --------------------------------   ------------------------
     00025AA6  A$mg_leaves_update$570             mg_leaves_update
     00025AA7  A$mg_leaves_update$571             mg_leaves_update
     00025AA8  A$mg_leaves_update$572             mg_leaves_update
     00025AAB  A$mg_leaves_update$573             mg_leaves_update
     00025AAD  A$mg_leaves_update$574             mg_leaves_update
     00025AAE  A$mg_leaves_update$575             mg_leaves_update
     00025AAF  A$mg_leaves_update$576             mg_leaves_update
     00025AB2  A$mg_leaves_update$577             mg_leaves_update
     00025AB4  A$mg_leaves_update$578             mg_leaves_update
     00025AB5  A$mg_leaves_update$579             mg_leaves_update
     00025AB6  A$mg_leaves_update$580             mg_leaves_update
     00025AB7  A$mg_leaves_update$581             mg_leaves_update
     00025AB9  A$mg_leaves_update$582             mg_leaves_update
     00025ABA  A$mg_leaves_update$583             mg_leaves_update
     00025ABB  A$mg_leaves_update$584             mg_leaves_update
     00025ABD  A$mg_leaves_update$585             mg_leaves_update
     00025ABE  A$mg_leaves_update$586             mg_leaves_update
     00025ABF  A$mg_leaves_update$587             mg_leaves_update
     00025AC2  A$mg_leaves_update$588             mg_leaves_update
     00025AC3  A$mg_leaves_update$592             mg_leaves_update
     00025AC3  C$mg_leaves_update.c$69$2_0$196    mg_leaves_update
     00025AC4  A$mg_leaves_update$593             mg_leaves_update
     00025AC7  A$mg_leaves_update$598             mg_leaves_update
     00025AC9  A$mg_leaves_update$603             mg_leaves_update
     00025AC9  C$mg_leaves_update.c$95$2_0$196    mg_leaves_update
     00025AC9  XG$check_actor_status$0$0          mg_leaves_update
     00025ACA  A$mg_leaves_update$613             mg_leaves_update
     00025ACA  C$mg_leaves_update.c$97$2_0$205    mg_leaves_update
     00025ACA  G$check_actor_collision$0$0        mg_leaves_update
     00025ACA  _check_actor_collision             mg_leaves_update
     00025ACC  A$mg_leaves_update$617             mg_leaves_update
     00025ACC  C$mg_leaves_update.c$99$5_1$216    mg_leaves_update
     00025ACE  A$mg_leaves_update$618             mg_leaves_update
     00025AD0  A$mg_leaves_update$620             mg_leaves_update
     00025AD2  A$mg_leaves_update$621             mg_leaves_update
     00025AD3  A$mg_leaves_update$622             mg_leaves_update
     00025AD5  A$mg_leaves_update$623             mg_leaves_update
     00025AD8  A$mg_leaves_update$627             mg_leaves_update
     00025AD8  C$mg_leaves_update.c$101$2_0$205   mg_leaves_update
     00025ADB  A$mg_leaves_update$628             mg_leaves_update
     00025ADC  A$mg_leaves_update$629             mg_leaves_update
     00025ADE  A$mg_leaves_update$630             mg_leaves_update
     00025ADF  A$mg_leaves_update$631             mg_leaves_update
     00025AE0  A$mg_leaves_update$632             mg_leaves_update
     00025AE1  A$mg_leaves_update$633             mg_leaves_update
     00025AE2  A$mg_leaves_update$634             mg_leaves_update
     00025AE3  A$mg_leaves_update$635             mg_leaves_update
     00025AE4  A$mg_leaves_update$636             mg_leaves_update
     00025AE5  A$mg_leaves_update$637             mg_leaves_update
     00025AE6  A$mg_leaves_update$638             mg_leaves_update
     00025AE9  A$mg_leaves_update$639             mg_leaves_update
ASxxxx Linker V03.00/V05.40 + sdld,  page 232.
Hexadecimal  [32-Bits]

Area                                    Addr        Size        Decimal Bytes (Attributes)
--------------------------------        ----        ----        ------- ----- ------------
_CODE_2                             00024000    00001EFB =        7931. bytes (REL,CON)

      Value  Global                              Global Defined In Module
      -----  --------------------------------   ------------------------
     00025AEC  A$mg_leaves_update$640             mg_leaves_update
     00025AEE  A$mg_leaves_update$641             mg_leaves_update
     00025AEF  A$mg_leaves_update$642             mg_leaves_update
     00025AF1  A$mg_leaves_update$643             mg_leaves_update
     00025AF2  A$mg_leaves_update$644             mg_leaves_update
     00025AF3  A$mg_leaves_update$645             mg_leaves_update
     00025AF4  A$mg_leaves_update$646             mg_leaves_update
     00025AF5  A$mg_leaves_update$647             mg_leaves_update
     00025AF7  A$mg_leaves_update$648             mg_leaves_update
     00025AFA  A$mg_leaves_update$652             mg_leaves_update
     00025AFA  C$mg_leaves_update.c$104$4_0$209   mg_leaves_update
     00025AFB  A$mg_leaves_update$653             mg_leaves_update
     00025AFD  A$mg_leaves_update$657             mg_leaves_update
     00025AFD  C$mg_leaves_update.c$106$6_0$211   mg_leaves_update
     00025B00  A$mg_leaves_update$658             mg_leaves_update
     00025B02  A$mg_leaves_update$659             mg_leaves_update
     00025B03  A$mg_leaves_update$660             mg_leaves_update
     00025B05  A$mg_leaves_update$661             mg_leaves_update
     00025B06  A$mg_leaves_update$662             mg_leaves_update
     00025B07  A$mg_leaves_update$663             mg_leaves_update
     00025B08  A$mg_leaves_update$664             mg_leaves_update
     00025B0A  A$mg_leaves_update$665             mg_leaves_update
     00025B0B  A$mg_leaves_update$666             mg_leaves_update
     00025B0C  A$mg_leaves_update$667             mg_leaves_update
     00025B0D  A$mg_leaves_update$668             mg_leaves_update
     00025B0F  A$mg_leaves_update$669             mg_leaves_update
     00025B10  A$mg_leaves_update$670             mg_leaves_update
     00025B11  A$mg_leaves_update$671             mg_leaves_update
     00025B12  A$mg_leaves_update$672             mg_leaves_update
     00025B13  A$mg_leaves_update$673             mg_leaves_update
     00025B14  A$mg_leaves_update$674             mg_leaves_update
     00025B17  A$mg_leaves_update$675             mg_leaves_update
     00025B18  A$mg_leaves_update$676             mg_leaves_update
     00025B19  A$mg_leaves_update$677             mg_leaves_update
     00025B1C  A$mg_leaves_update$681             mg_leaves_update
     00025B1C  C$mg_leaves_update.c$108$7_0$212   mg_leaves_update
     00025B1E  A$mg_leaves_update$682             mg_leaves_update
     00025B1F  A$mg_leaves_update$686             mg_leaves_update
     00025B1F  C$mg_leaves_update.c$109$7_0$212   mg_leaves_update
     00025B20  A$mg_leaves_update$687             mg_leaves_update
     00025B22  A$mg_leaves_update$688             mg_leaves_update
     00025B23  A$mg_leaves_update$689             mg_leaves_update
     00025B24  A$mg_leaves_update$690             mg_leaves_update
     00025B25  A$mg_leaves_update$691             mg_leaves_update
     00025B26  A$mg_leaves_update$692             mg_leaves_update
     00025B27  A$mg_leaves_update$700             mg_leaves_update
     00025B27  C$mg_leaves_update.c$112$4_0$209   mg_leaves_update
     00025B27  C$mg_leaves_update.c$115$4_0$213   mg_leaves_update
     00025B28  A$mg_leaves_update$701             mg_leaves_update
     00025B2A  A$mg_leaves_update$702             mg_leaves_update
     00025B2B  A$mg_leaves_update$703             mg_leaves_update
ASxxxx Linker V03.00/V05.40 + sdld,  page 233.
Hexadecimal  [32-Bits]

Area                                    Addr        Size        Decimal Bytes (Attributes)
--------------------------------        ----        ----        ------- ----- ------------
_CODE_2                             00024000    00001EFB =        7931. bytes (REL,CON)

      Value  Global                              Global Defined In Module
      -----  --------------------------------   ------------------------
     00025B2E  A$mg_leaves_update$704             mg_leaves_update
     00025B2F  A$mg_leaves_update$705             mg_leaves_update
     00025B30  A$mg_leaves_update$706             mg_leaves_update
     00025B32  A$mg_leaves_update$710             mg_leaves_update
     00025B32  C$mg_leaves_update.c$116$4_0$213   mg_leaves_update
     00025B34  A$mg_leaves_update$711             mg_leaves_update
     00025B35  A$mg_leaves_update$716             mg_leaves_update
     00025B35  C$mg_leaves_update.c$118$3_1$214   mg_leaves_update
     00025B37  A$mg_leaves_update$717             mg_leaves_update
     00025B38  A$mg_leaves_update$718             mg_leaves_update
     00025B3A  A$mg_leaves_update$719             mg_leaves_update
     00025B3C  A$mg_leaves_update$720             mg_leaves_update
     00025B3D  A$mg_leaves_update$721             mg_leaves_update
     00025B3F  A$mg_leaves_update$722             mg_leaves_update
     00025B40  A$mg_leaves_update$726             mg_leaves_update
     00025B41  A$mg_leaves_update$730             mg_leaves_update
     00025B41  C$mg_leaves_update.c$126$2_0$205   mg_leaves_update
     00025B43  A$mg_leaves_update$731             mg_leaves_update
     00025B44  A$mg_leaves_update$732             mg_leaves_update
     00025B46  A$mg_leaves_update$733             mg_leaves_update
     00025B48  A$mg_leaves_update$734             mg_leaves_update
     00025B4A  A$mg_leaves_update$735             mg_leaves_update
     00025B4C  A$mg_leaves_update$736             mg_leaves_update
     00025B4D  A$mg_leaves_update$737             mg_leaves_update
     00025B4E  A$mg_leaves_update$738             mg_leaves_update
     00025B4F  A$mg_leaves_update$742             mg_leaves_update
     00025B4F  C$mg_leaves_update.c$120$4_1$215   mg_leaves_update
     00025B51  A$mg_leaves_update$743             mg_leaves_update
     00025B54  A$mg_leaves_update$744             mg_leaves_update
     00025B57  A$mg_leaves_update$745             mg_leaves_update
     00025B59  A$mg_leaves_update$746             mg_leaves_update
     00025B5A  A$mg_leaves_update$747             mg_leaves_update
     00025B5C  A$mg_leaves_update$748             mg_leaves_update
     00025B5D  A$mg_leaves_update$749             mg_leaves_update
     00025B5E  A$mg_leaves_update$750             mg_leaves_update
     00025B5F  A$mg_leaves_update$751             mg_leaves_update
     00025B60  A$mg_leaves_update$752             mg_leaves_update
     00025B62  A$mg_leaves_update$753             mg_leaves_update
     00025B63  A$mg_leaves_update$754             mg_leaves_update
     00025B66  A$mg_leaves_update$755             mg_leaves_update
     00025B68  A$mg_leaves_update$756             mg_leaves_update
     00025B69  A$mg_leaves_update$757             mg_leaves_update
     00025B6A  A$mg_leaves_update$758             mg_leaves_update
     00025B6B  A$mg_leaves_update$759             mg_leaves_update
     00025B6D  A$mg_leaves_update$763             mg_leaves_update
     00025B6D  C$mg_leaves_update.c$122$5_1$216   mg_leaves_update
     00025B6F  A$mg_leaves_update$764             mg_leaves_update
     00025B70  A$mg_leaves_update$768             mg_leaves_update
     00025B70  C$mg_leaves_update.c$123$5_1$216   mg_leaves_update
     00025B71  A$mg_leaves_update$769             mg_leaves_update
     00025B73  A$mg_leaves_update$770             mg_leaves_update
ASxxxx Linker V03.00/V05.40 + sdld,  page 234.
Hexadecimal  [32-Bits]

Area                                    Addr        Size        Decimal Bytes (Attributes)
--------------------------------        ----        ----        ------- ----- ------------
_CODE_2                             00024000    00001EFB =        7931. bytes (REL,CON)

      Value  Global                              Global Defined In Module
      -----  --------------------------------   ------------------------
     00025B74  A$mg_leaves_update$774             mg_leaves_update
     00025B74  C$mg_leaves_update.c$125$5_1$216   mg_leaves_update
     00025B77  A$mg_leaves_update$775             mg_leaves_update
     00025B79  A$mg_leaves_update$776             mg_leaves_update
     00025B7A  A$mg_leaves_update$777             mg_leaves_update
     00025B7C  A$mg_leaves_update$778             mg_leaves_update
     00025B7D  A$mg_leaves_update$779             mg_leaves_update
     00025B7E  A$mg_leaves_update$780             mg_leaves_update
     00025B7F  A$mg_leaves_update$781             mg_leaves_update
     00025B80  A$mg_leaves_update$782             mg_leaves_update
     00025B81  A$mg_leaves_update$786             mg_leaves_update
     00025B81  C$mg_leaves_update.c$126$5_1$216   mg_leaves_update
     00025B84  A$mg_leaves_update$787             mg_leaves_update
     00025B86  A$mg_leaves_update$788             mg_leaves_update
     00025B87  A$mg_leaves_update$789             mg_leaves_update
     00025B88  A$mg_leaves_update$790             mg_leaves_update
     00025B89  A$mg_leaves_update$791             mg_leaves_update
     00025B8A  A$mg_leaves_update$792             mg_leaves_update
     00025B8B  A$mg_leaves_update$793             mg_leaves_update
     00025B8C  A$mg_leaves_update$794             mg_leaves_update
     00025B8D  A$mg_leaves_update$795             mg_leaves_update
     00025B8E  A$mg_leaves_update$796             mg_leaves_update
     00025B8F  A$mg_leaves_update$797             mg_leaves_update
     00025B90  A$mg_leaves_update$801             mg_leaves_update
     00025B93  A$mg_leaves_update$802             mg_leaves_update
     00025B95  A$mg_leaves_update$803             mg_leaves_update
     00025B96  A$mg_leaves_update$807             mg_leaves_update
     00025B96  C$mg_leaves_update.c$128$6_1$217   mg_leaves_update
     00025B98  A$mg_leaves_update$808             mg_leaves_update
     00025B99  A$mg_leaves_update$809             mg_leaves_update
     00025B9A  A$mg_leaves_update$810             mg_leaves_update
     00025B9C  A$mg_leaves_update$814             mg_leaves_update
     00025B9C  C$mg_leaves_update.c$130$8_1$219   mg_leaves_update
     00025B9F  A$mg_leaves_update$815             mg_leaves_update
     00025BA1  A$mg_leaves_update$816             mg_leaves_update
     00025BA3  A$mg_leaves_update$817             mg_leaves_update
     00025BA4  A$mg_leaves_update$818             mg_leaves_update
     00025BA5  A$mg_leaves_update$819             mg_leaves_update
     00025BA7  A$mg_leaves_update$820             mg_leaves_update
     00025BA8  A$mg_leaves_update$821             mg_leaves_update
     00025BA9  A$mg_leaves_update$822             mg_leaves_update
     00025BAA  A$mg_leaves_update$823             mg_leaves_update
     00025BAB  A$mg_leaves_update$824             mg_leaves_update
     00025BAC  A$mg_leaves_update$825             mg_leaves_update
     00025BAD  A$mg_leaves_update$826             mg_leaves_update
     00025BAF  A$mg_leaves_update$827             mg_leaves_update
     00025BB1  A$mg_leaves_update$828             mg_leaves_update
     00025BB3  A$mg_leaves_update$829             mg_leaves_update
     00025BB5  A$mg_leaves_update$830             mg_leaves_update
     00025BB6  A$mg_leaves_update$831             mg_leaves_update
     00025BB8  A$mg_leaves_update$833             mg_leaves_update
ASxxxx Linker V03.00/V05.40 + sdld,  page 235.
Hexadecimal  [32-Bits]

Area                                    Addr        Size        Decimal Bytes (Attributes)
--------------------------------        ----        ----        ------- ----- ------------
_CODE_2                             00024000    00001EFB =        7931. bytes (REL,CON)

      Value  Global                              Global Defined In Module
      -----  --------------------------------   ------------------------
     00025BBA  A$mg_leaves_update$834             mg_leaves_update
     00025BBC  A$mg_leaves_update$835             mg_leaves_update
     00025BBD  A$mg_leaves_update$837             mg_leaves_update
     00025BBF  A$mg_leaves_update$841             mg_leaves_update
     00025BBF  C$mg_leaves_update.c$131$8_1$219   mg_leaves_update
     00025BC0  A$mg_leaves_update$842             mg_leaves_update
     00025BC3  A$mg_leaves_update$843             mg_leaves_update
     00025BC5  A$mg_leaves_update$848             mg_leaves_update
     00025BC5  C$mg_leaves_update.c$133$8_1$219   mg_leaves_update
     00025BC7  A$mg_leaves_update$849             mg_leaves_update
     00025BC8  A$mg_leaves_update$850             mg_leaves_update
     00025BCA  A$mg_leaves_update$851             mg_leaves_update
     00025BCD  A$mg_leaves_update$856             mg_leaves_update
     00025BCD  C$mg_leaves_update.c$134$7_1$218   mg_leaves_update
     00025BD0  A$mg_leaves_update$857             mg_leaves_update
     00025BD1  A$mg_leaves_update$858             mg_leaves_update
     00025BD3  A$mg_leaves_update$863             mg_leaves_update
     00025BD3  C$mg_leaves_update.c$138$7_1$220   mg_leaves_update
     00025BD5  A$mg_leaves_update$864             mg_leaves_update
     00025BD6  A$mg_leaves_update$865             mg_leaves_update
     00025BD8  A$mg_leaves_update$866             mg_leaves_update
     00025BDB  A$mg_leaves_update$870             mg_leaves_update
     00025BDB  C$mg_leaves_update.c$139$7_1$220   mg_leaves_update
     00025BDE  A$mg_leaves_update$871             mg_leaves_update
     00025BDF  A$mg_leaves_update$876             mg_leaves_update
     00025BDF  C$mg_leaves_update.c$143$4_1$221   mg_leaves_update
     00025BE0  A$mg_leaves_update$877             mg_leaves_update
     00025BE2  A$mg_leaves_update$878             mg_leaves_update
     00025BE5  A$mg_leaves_update$879             mg_leaves_update
     00025BE8  A$mg_leaves_update$880             mg_leaves_update
     00025BEA  A$mg_leaves_update$881             mg_leaves_update
     00025BEB  A$mg_leaves_update$882             mg_leaves_update
     00025BED  A$mg_leaves_update$883             mg_leaves_update
     00025BEE  A$mg_leaves_update$884             mg_leaves_update
     00025BEF  A$mg_leaves_update$885             mg_leaves_update
     00025BF0  A$mg_leaves_update$886             mg_leaves_update
     00025BF1  A$mg_leaves_update$887             mg_leaves_update
     00025BF4  A$mg_leaves_update$888             mg_leaves_update
     00025BF5  A$mg_leaves_update$889             mg_leaves_update
     00025BF6  A$mg_leaves_update$890             mg_leaves_update
     00025BF8  A$mg_leaves_update$894             mg_leaves_update
     00025BF8  C$mg_leaves_update.c$145$5_1$222   mg_leaves_update
     00025BFA  A$mg_leaves_update$895             mg_leaves_update
     00025BFB  A$mg_leaves_update$899             mg_leaves_update
     00025BFB  C$mg_leaves_update.c$146$5_1$222   mg_leaves_update
     00025BFC  A$mg_leaves_update$900             mg_leaves_update
     00025BFE  A$mg_leaves_update$901             mg_leaves_update
     00025BFF  A$mg_leaves_update$905             mg_leaves_update
     00025BFF  C$mg_leaves_update.c$148$5_1$222   mg_leaves_update
     00025C02  A$mg_leaves_update$906             mg_leaves_update
     00025C04  A$mg_leaves_update$907             mg_leaves_update
ASxxxx Linker V03.00/V05.40 + sdld,  page 236.
Hexadecimal  [32-Bits]

Area                                    Addr        Size        Decimal Bytes (Attributes)
--------------------------------        ----        ----        ------- ----- ------------
_CODE_2                             00024000    00001EFB =        7931. bytes (REL,CON)

      Value  Global                              Global Defined In Module
      -----  --------------------------------   ------------------------
     00025C05  A$mg_leaves_update$908             mg_leaves_update
     00025C07  A$mg_leaves_update$909             mg_leaves_update
     00025C08  A$mg_leaves_update$910             mg_leaves_update
     00025C09  A$mg_leaves_update$911             mg_leaves_update
     00025C0A  A$mg_leaves_update$912             mg_leaves_update
     00025C0B  A$mg_leaves_update$913             mg_leaves_update
     00025C0C  A$mg_leaves_update$917             mg_leaves_update
     00025C0C  C$mg_leaves_update.c$149$5_1$222   mg_leaves_update
     00025C0E  A$mg_leaves_update$918             mg_leaves_update
     00025C0F  A$mg_leaves_update$919             mg_leaves_update
     00025C10  A$mg_leaves_update$920             mg_leaves_update
     00025C11  A$mg_leaves_update$921             mg_leaves_update
     00025C14  A$mg_leaves_update$922             mg_leaves_update
     00025C15  A$mg_leaves_update$923             mg_leaves_update
     00025C16  A$mg_leaves_update$924             mg_leaves_update
     00025C17  A$mg_leaves_update$925             mg_leaves_update
     00025C18  A$mg_leaves_update$926             mg_leaves_update
     00025C19  A$mg_leaves_update$927             mg_leaves_update
     00025C1A  A$mg_leaves_update$928             mg_leaves_update
     00025C1B  A$mg_leaves_update$932             mg_leaves_update
     00025C1B  C$mg_leaves_update.c$133$2_0$205   mg_leaves_update
     00025C1E  A$mg_leaves_update$933             mg_leaves_update
     00025C1F  A$mg_leaves_update$937             mg_leaves_update
     00025C1F  C$mg_leaves_update.c$151$6_1$223   mg_leaves_update
     00025C21  A$mg_leaves_update$938             mg_leaves_update
     00025C22  A$mg_leaves_update$939             mg_leaves_update
     00025C23  A$mg_leaves_update$940             mg_leaves_update
     00025C25  A$mg_leaves_update$944             mg_leaves_update
     00025C25  C$mg_leaves_update.c$153$8_1$225   mg_leaves_update
     00025C28  A$mg_leaves_update$945             mg_leaves_update
     00025C2A  A$mg_leaves_update$946             mg_leaves_update
     00025C2C  A$mg_leaves_update$947             mg_leaves_update
     00025C2D  A$mg_leaves_update$948             mg_leaves_update
     00025C2E  A$mg_leaves_update$949             mg_leaves_update
     00025C30  A$mg_leaves_update$950             mg_leaves_update
     00025C31  A$mg_leaves_update$951             mg_leaves_update
     00025C32  A$mg_leaves_update$952             mg_leaves_update
     00025C33  A$mg_leaves_update$953             mg_leaves_update
     00025C34  A$mg_leaves_update$954             mg_leaves_update
     00025C35  A$mg_leaves_update$955             mg_leaves_update
     00025C36  A$mg_leaves_update$956             mg_leaves_update
     00025C38  A$mg_leaves_update$957             mg_leaves_update
     00025C3A  A$mg_leaves_update$958             mg_leaves_update
     00025C3C  A$mg_leaves_update$959             mg_leaves_update
     00025C3E  A$mg_leaves_update$960             mg_leaves_update
     00025C3F  A$mg_leaves_update$961             mg_leaves_update
     00025C41  A$mg_leaves_update$963             mg_leaves_update
     00025C43  A$mg_leaves_update$964             mg_leaves_update
     00025C45  A$mg_leaves_update$965             mg_leaves_update
     00025C46  A$mg_leaves_update$967             mg_leaves_update
     00025C48  A$mg_leaves_update$971             mg_leaves_update
ASxxxx Linker V03.00/V05.40 + sdld,  page 237.
Hexadecimal  [32-Bits]

Area                                    Addr        Size        Decimal Bytes (Attributes)
--------------------------------        ----        ----        ------- ----- ------------
_CODE_2                             00024000    00001EFB =        7931. bytes (REL,CON)

      Value  Global                              Global Defined In Module
      -----  --------------------------------   ------------------------
     00025C48  C$mg_leaves_update.c$154$8_1$225   mg_leaves_update
     00025C49  A$mg_leaves_update$972             mg_leaves_update
     00025C4C  A$mg_leaves_update$973             mg_leaves_update
     00025C4E  A$mg_leaves_update$978             mg_leaves_update
     00025C4E  C$mg_leaves_update.c$156$8_1$225   mg_leaves_update
     00025C4F  A$mg_leaves_update$979             mg_leaves_update
     00025C51  A$mg_leaves_update$980             mg_leaves_update
     00025C54  A$mg_leaves_update$985             mg_leaves_update
     00025C54  C$mg_leaves_update.c$157$7_1$224   mg_leaves_update
     00025C57  A$mg_leaves_update$986             mg_leaves_update
     00025C58  A$mg_leaves_update$987             mg_leaves_update
     00025C5A  A$mg_leaves_update$992             mg_leaves_update
     00025C5A  C$mg_leaves_update.c$161$7_1$226   mg_leaves_update
     00025C5B  A$mg_leaves_update$993             mg_leaves_update
     00025C5D  A$mg_leaves_update$994             mg_leaves_update
     00025C60  A$mg_leaves_update$998             mg_leaves_update
     00025C60  C$mg_leaves_update.c$162$7_1$226   mg_leaves_update
     00025C63  A$mg_leaves_update$999             mg_leaves_update
     00025C64  A$mg_leaves_update$1004            mg_leaves_update
     00025C64  C$mg_leaves_update.c$99$2_0$206    mg_leaves_update
     00025C66  A$mg_leaves_update$1005            mg_leaves_update
     00025C67  A$mg_leaves_update$1006            mg_leaves_update
     00025C6A  A$mg_leaves_update$1014            mg_leaves_update
     00025C6A  C$mg_leaves_update.c$168$2_0$205   mg_leaves_update
     00025C6C  A$mg_leaves_update$1019            mg_leaves_update
     00025C6C  C$mg_leaves_update.c$169$2_0$205   mg_leaves_update
     00025C6C  XG$check_actor_collision$0$0       mg_leaves_update
     00025C6D  A$mg_leaves_update$1029            mg_leaves_update
     00025C6D  C$mg_leaves_update.c$171$2_0$228   mg_leaves_update
     00025C6D  G$SetCoinsReward$0$0               mg_leaves_update
     00025C6D  _SetCoinsReward                    mg_leaves_update
     00025C6E  A$mg_leaves_update$1033            mg_leaves_update
     00025C6E  C$mg_leaves_update.c$173$2_0$228   mg_leaves_update
     00025C71  A$mg_leaves_update$1034            mg_leaves_update
     00025C73  A$mg_leaves_update$1035            mg_leaves_update
     00025C74  A$mg_leaves_update$1039            mg_leaves_update
     00025C74  C$mg_leaves_update.c$174$1_0$228   mg_leaves_update
     00025C77  A$mg_leaves_update$1040            mg_leaves_update
     00025C78  A$mg_leaves_update$1041            mg_leaves_update
     00025C7A  A$mg_leaves_update$1042            mg_leaves_update
     00025C7B  A$mg_leaves_update$1043            mg_leaves_update
     00025C7C  A$mg_leaves_update$1044            mg_leaves_update
     00025C7D  A$mg_leaves_update$1045            mg_leaves_update
     00025C7E  A$mg_leaves_update$1046            mg_leaves_update
     00025C7F  A$mg_leaves_update$1047            mg_leaves_update
     00025C80  A$mg_leaves_update$1048            mg_leaves_update
     00025C81  A$mg_leaves_update$1049            mg_leaves_update
     00025C82  A$mg_leaves_update$1050            mg_leaves_update
     00025C83  A$mg_leaves_update$1051            mg_leaves_update
     00025C86  A$mg_leaves_update$1052            mg_leaves_update
     00025C89  A$mg_leaves_update$1053            mg_leaves_update
ASxxxx Linker V03.00/V05.40 + sdld,  page 238.
Hexadecimal  [32-Bits]

Area                                    Addr        Size        Decimal Bytes (Attributes)
--------------------------------        ----        ----        ------- ----- ------------
_CODE_2                             00024000    00001EFB =        7931. bytes (REL,CON)

      Value  Global                              Global Defined In Module
      -----  --------------------------------   ------------------------
     00025C8A  A$mg_leaves_update$1054            mg_leaves_update
     00025C8B  A$mg_leaves_update$1055            mg_leaves_update
     00025C8C  A$mg_leaves_update$1056            mg_leaves_update
     00025C8D  A$mg_leaves_update$1057            mg_leaves_update
     00025C8E  A$mg_leaves_update$1058            mg_leaves_update
     00025C8F  A$mg_leaves_update$1059            mg_leaves_update
     00025C90  A$mg_leaves_update$1060            mg_leaves_update
     00025C91  A$mg_leaves_update$1061            mg_leaves_update
     00025C92  A$mg_leaves_update$1065            mg_leaves_update
     00025C92  C$mg_leaves_update.c$175$1_0$228   mg_leaves_update
     00025C95  A$mg_leaves_update$1066            mg_leaves_update
     00025C96  A$mg_leaves_update$1067            mg_leaves_update
     00025C98  A$mg_leaves_update$1068            mg_leaves_update
     00025C99  A$mg_leaves_update$1069            mg_leaves_update
     00025C9A  A$mg_leaves_update$1070            mg_leaves_update
     00025C9B  A$mg_leaves_update$1071            mg_leaves_update
     00025C9C  A$mg_leaves_update$1072            mg_leaves_update
     00025C9D  A$mg_leaves_update$1073            mg_leaves_update
     00025C9E  A$mg_leaves_update$1074            mg_leaves_update
     00025C9F  A$mg_leaves_update$1075            mg_leaves_update
     00025CA2  A$mg_leaves_update$1076            mg_leaves_update
     00025CA5  A$mg_leaves_update$1077            mg_leaves_update
     00025CA6  A$mg_leaves_update$1078            mg_leaves_update
     00025CA7  A$mg_leaves_update$1079            mg_leaves_update
     00025CA8  A$mg_leaves_update$1080            mg_leaves_update
     00025CA9  A$mg_leaves_update$1081            mg_leaves_update
     00025CAA  A$mg_leaves_update$1082            mg_leaves_update
     00025CAB  A$mg_leaves_update$1083            mg_leaves_update
     00025CAC  A$mg_leaves_update$1084            mg_leaves_update
     00025CAD  A$mg_leaves_update$1088            mg_leaves_update
     00025CAD  C$mg_leaves_update.c$177$1_0$228   mg_leaves_update
     00025CAE  A$mg_leaves_update$1089            mg_leaves_update
     00025CAF  A$mg_leaves_update$1090            mg_leaves_update
     00025CB1  A$mg_leaves_update$1091            mg_leaves_update
     00025CB2  A$mg_leaves_update$1095            mg_leaves_update
     00025CB3  A$mg_leaves_update$1100            mg_leaves_update
     00025CB3  C$mg_leaves_update.c$178$1_0$228   mg_leaves_update
     00025CB3  XG$SetCoinsReward$0$0              mg_leaves_update
     00025CB4  A$mg_leaves_update$1110            mg_leaves_update
     00025CB4  C$mg_leaves_update.c$180$1_0$230   mg_leaves_update
     00025CB4  G$Mg_Leaves_Update$0$0             mg_leaves_update
     00025CB4  _Mg_Leaves_Update                  mg_leaves_update
     00025CB6  A$mg_leaves_update$1114            mg_leaves_update
     00025CB6  C$mg_leaves_update.c$182$1_0$230   mg_leaves_update
     00025CB9  A$mg_leaves_update$1118            mg_leaves_update
     00025CB9  C$mg_leaves_update.c$184$2_0$231   mg_leaves_update
     00025CBC  A$mg_leaves_update$1119            mg_leaves_update
     00025CBD  A$mg_leaves_update$1120            mg_leaves_update
     00025CC0  A$mg_leaves_update$1124            mg_leaves_update
     00025CC0  C$mg_leaves_update.c$186$3_0$232   mg_leaves_update
     00025CC3  A$mg_leaves_update$1128            mg_leaves_update
ASxxxx Linker V03.00/V05.40 + sdld,  page 239.
Hexadecimal  [32-Bits]

Area                                    Addr        Size        Decimal Bytes (Attributes)
--------------------------------        ----        ----        ------- ----- ------------
_CODE_2                             00024000    00001EFB =        7931. bytes (REL,CON)

      Value  Global                              Global Defined In Module
      -----  --------------------------------   ------------------------
     00025CC3  C$mg_leaves_update.c$188$1_1$230   mg_leaves_update
     00025CC5  A$mg_leaves_update$1129            mg_leaves_update
     00025CC7  A$mg_leaves_update$1131            mg_leaves_update
     00025CC9  A$mg_leaves_update$1132            mg_leaves_update
     00025CCA  A$mg_leaves_update$1133            mg_leaves_update
     00025CCB  A$mg_leaves_update$1134            mg_leaves_update
     00025CCC  A$mg_leaves_update$1135            mg_leaves_update
     00025CCD  A$mg_leaves_update$1136            mg_leaves_update
     00025CCE  A$mg_leaves_update$1137            mg_leaves_update
     00025CD1  A$mg_leaves_update$1138            mg_leaves_update
     00025CD2  A$mg_leaves_update$1139            mg_leaves_update
     00025CD4  A$mg_leaves_update$1140            mg_leaves_update
     00025CD5  A$mg_leaves_update$1141            mg_leaves_update
     00025CD6  A$mg_leaves_update$1142            mg_leaves_update
     00025CD7  A$mg_leaves_update$1143            mg_leaves_update
     00025CD8  A$mg_leaves_update$1144            mg_leaves_update
     00025CD9  A$mg_leaves_update$1145            mg_leaves_update
     00025CDA  A$mg_leaves_update$1146            mg_leaves_update
     00025CDC  A$mg_leaves_update$1147            mg_leaves_update
     00025CDE  A$mg_leaves_update$1148            mg_leaves_update
     00025CE0  A$mg_leaves_update$1149            mg_leaves_update
     00025CE2  A$mg_leaves_update$1150            mg_leaves_update
     00025CE3  A$mg_leaves_update$1151            mg_leaves_update
     00025CE5  A$mg_leaves_update$1153            mg_leaves_update
     00025CE7  A$mg_leaves_update$1154            mg_leaves_update
     00025CE9  A$mg_leaves_update$1155            mg_leaves_update
     00025CEA  A$mg_leaves_update$1157            mg_leaves_update
     00025CEC  A$mg_leaves_update$1161            mg_leaves_update
     00025CEC  C$mg_leaves_update.c$189$4_0$233   mg_leaves_update
     00025CEF  A$mg_leaves_update$1162            mg_leaves_update
     00025CF0  A$mg_leaves_update$1163            mg_leaves_update
     00025CF2  A$mg_leaves_update$1164            mg_leaves_update
     00025CF3  A$mg_leaves_update$1165            mg_leaves_update
     00025CF4  A$mg_leaves_update$1166            mg_leaves_update
     00025CF6  A$mg_leaves_update$1167            mg_leaves_update
     00025CF8  A$mg_leaves_update$1168            mg_leaves_update
     00025CF9  A$mg_leaves_update$1169            mg_leaves_update
     00025CFC  A$mg_leaves_update$1173            mg_leaves_update
     00025CFC  C$mg_leaves_update.c$188$4_0$233   mg_leaves_update
     00025CFE  A$mg_leaves_update$1174            mg_leaves_update
     00025CFF  A$mg_leaves_update$1175            mg_leaves_update
     00025D01  A$mg_leaves_update$1180            mg_leaves_update
     00025D01  C$mg_leaves_update.c$191$3_0$232   mg_leaves_update
     00025D04  A$mg_leaves_update$1181            mg_leaves_update
     00025D07  A$mg_leaves_update$1182            mg_leaves_update
     00025D08  A$mg_leaves_update$1183            mg_leaves_update
     00025D0A  A$mg_leaves_update$1184            mg_leaves_update
     00025D0B  A$mg_leaves_update$1185            mg_leaves_update
     00025D0D  A$mg_leaves_update$1189            mg_leaves_update
     00025D0D  C$mg_leaves_update.c$192$3_0$232   mg_leaves_update
     00025D10  A$mg_leaves_update$1190            mg_leaves_update
ASxxxx Linker V03.00/V05.40 + sdld,  page 240.
Hexadecimal  [32-Bits]

Area                                    Addr        Size        Decimal Bytes (Attributes)
--------------------------------        ----        ----        ------- ----- ------------
_CODE_2                             00024000    00001EFB =        7931. bytes (REL,CON)

      Value  Global                              Global Defined In Module
      -----  --------------------------------   ------------------------
     00025D13  A$mg_leaves_update$1194            mg_leaves_update
     00025D13  C$mg_leaves_update.c$194$3_1$234   mg_leaves_update
     00025D16  A$mg_leaves_update$1198            mg_leaves_update
     00025D16  C$mg_leaves_update.c$196$3_1$234   mg_leaves_update
     00025D18  A$mg_leaves_update$1199            mg_leaves_update
     00025D1A  A$mg_leaves_update$1200            mg_leaves_update
     00025D1B  A$mg_leaves_update$1201            mg_leaves_update
     00025D1D  A$mg_leaves_update$1202            mg_leaves_update
     00025D1E  A$mg_leaves_update$1203            mg_leaves_update
     00025D20  A$mg_leaves_update$1204            mg_leaves_update
     00025D21  A$mg_leaves_update$1205            mg_leaves_update
     00025D22  A$mg_leaves_update$1206            mg_leaves_update
     00025D24  A$mg_leaves_update$1207            mg_leaves_update
     00025D25  A$mg_leaves_update$1208            mg_leaves_update
     00025D27  A$mg_leaves_update$1209            mg_leaves_update
     00025D28  A$mg_leaves_update$1210            mg_leaves_update
     00025D2A  A$mg_leaves_update$1211            mg_leaves_update
     00025D2B  A$mg_leaves_update$1212            mg_leaves_update
     00025D2D  A$mg_leaves_update$1213            mg_leaves_update
     00025D2E  A$mg_leaves_update$1214            mg_leaves_update
     00025D30  A$mg_leaves_update$1215            mg_leaves_update
     00025D31  A$mg_leaves_update$1219            mg_leaves_update
     00025D31  C$mg_leaves_update.c$197$3_1$234   mg_leaves_update
     00025D32  A$mg_leaves_update$1220            mg_leaves_update
     00025D33  A$mg_leaves_update$1221            mg_leaves_update
     00025D35  A$mg_leaves_update$1222            mg_leaves_update
     00025D36  A$mg_leaves_update$1223            mg_leaves_update
     00025D38  A$mg_leaves_update$1224            mg_leaves_update
     00025D39  A$mg_leaves_update$1225            mg_leaves_update
     00025D3A  A$mg_leaves_update$1226            mg_leaves_update
     00025D3C  A$mg_leaves_update$1227            mg_leaves_update
     00025D3D  A$mg_leaves_update$1228            mg_leaves_update
     00025D3F  A$mg_leaves_update$1229            mg_leaves_update
     00025D40  A$mg_leaves_update$1230            mg_leaves_update
     00025D42  A$mg_leaves_update$1231            mg_leaves_update
     00025D43  A$mg_leaves_update$1232            mg_leaves_update
     00025D45  A$mg_leaves_update$1233            mg_leaves_update
     00025D46  A$mg_leaves_update$1234            mg_leaves_update
     00025D48  A$mg_leaves_update$1238            mg_leaves_update
     00025D48  C$mg_leaves_update.c$199$3_1$234   mg_leaves_update
     00025D4B  A$mg_leaves_update$1239            mg_leaves_update
     00025D4D  A$mg_leaves_update$1240            mg_leaves_update
     00025D4E  A$mg_leaves_update$1244            mg_leaves_update
     00025D4E  C$mg_leaves_update.c$200$3_1$234   mg_leaves_update
     00025D51  A$mg_leaves_update$1245            mg_leaves_update
     00025D53  A$mg_leaves_update$1246            mg_leaves_update
     00025D55  A$mg_leaves_update$1247            mg_leaves_update
     00025D56  A$mg_leaves_update$1251            mg_leaves_update
     00025D56  C$mg_leaves_update.c$202$3_1$234   mg_leaves_update
     00025D57  A$mg_leaves_update$1252            mg_leaves_update
     00025D5A  A$mg_leaves_update$1253            mg_leaves_update
ASxxxx Linker V03.00/V05.40 + sdld,  page 241.
Hexadecimal  [32-Bits]

Area                                    Addr        Size        Decimal Bytes (Attributes)
--------------------------------        ----        ----        ------- ----- ------------
_CODE_2                             00024000    00001EFB =        7931. bytes (REL,CON)

      Value  Global                              Global Defined In Module
      -----  --------------------------------   ------------------------
     00025D5B  A$mg_leaves_update$1257            mg_leaves_update
     00025D5B  C$mg_leaves_update.c$203$3_1$234   mg_leaves_update
     00025D5E  A$mg_leaves_update$1258            mg_leaves_update
     00025D5F  A$mg_leaves_update$1259            mg_leaves_update
     00025D60  A$mg_leaves_update$1260            mg_leaves_update
     00025D62  A$mg_leaves_update$1261            mg_leaves_update
     00025D63  A$mg_leaves_update$1262            mg_leaves_update
     00025D64  A$mg_leaves_update$1263            mg_leaves_update
     00025D65  A$mg_leaves_update$1264            mg_leaves_update
     00025D67  A$mg_leaves_update$1265            mg_leaves_update
     00025D69  A$mg_leaves_update$1266            mg_leaves_update
     00025D6C  A$mg_leaves_update$1270            mg_leaves_update
     00025D6C  C$mg_leaves_update.c$204$3_1$234   mg_leaves_update
     00025D6D  A$mg_leaves_update$1271            mg_leaves_update
     00025D6F  A$mg_leaves_update$1272            mg_leaves_update
     00025D71  A$mg_leaves_update$1273            mg_leaves_update
     00025D74  A$mg_leaves_update$1277            mg_leaves_update
     00025D74  C$mg_leaves_update.c$206$3_1$234   mg_leaves_update
     00025D77  A$mg_leaves_update$1278            mg_leaves_update
     00025D78  A$mg_leaves_update$1279            mg_leaves_update
     00025D7A  A$mg_leaves_update$1280            mg_leaves_update
     00025D7B  A$mg_leaves_update$1281            mg_leaves_update
     00025D7C  A$mg_leaves_update$1282            mg_leaves_update
     00025D7D  A$mg_leaves_update$1283            mg_leaves_update
     00025D7F  A$mg_leaves_update$1284            mg_leaves_update
     00025D81  A$mg_leaves_update$1285            mg_leaves_update
     00025D84  A$mg_leaves_update$1289            mg_leaves_update
     00025D84  C$mg_leaves_update.c$207$3_1$234   mg_leaves_update
     00025D86  A$mg_leaves_update$1290            mg_leaves_update
     00025D87  A$mg_leaves_update$1291            mg_leaves_update
     00025D88  A$mg_leaves_update$1292            mg_leaves_update
     00025D89  A$mg_leaves_update$1293            mg_leaves_update
     00025D8B  A$mg_leaves_update$1294            mg_leaves_update
     00025D8D  A$mg_leaves_update$1295            mg_leaves_update
     00025D90  A$mg_leaves_update$1299            mg_leaves_update
     00025D90  C$mg_leaves_update.c$209$3_1$234   mg_leaves_update
     00025D93  A$mg_leaves_update$1303            mg_leaves_update
     00025D93  C$mg_leaves_update.c$211$3_1$234   mg_leaves_update
     00025D96  A$mg_leaves_update$1304            mg_leaves_update
     00025D97  A$mg_leaves_update$1305            mg_leaves_update
     00025D98  A$mg_leaves_update$1306            mg_leaves_update
     00025D99  A$mg_leaves_update$1307            mg_leaves_update
     00025D9C  A$mg_leaves_update$1308            mg_leaves_update
     00025D9E  A$mg_leaves_update$1309            mg_leaves_update
     00025D9F  A$mg_leaves_update$1310            mg_leaves_update
     00025DA0  A$mg_leaves_update$1311            mg_leaves_update
     00025DA3  A$mg_leaves_update$1315            mg_leaves_update
     00025DA3  C$mg_leaves_update.c$212$3_1$234   mg_leaves_update
     00025DA6  A$mg_leaves_update$1320            mg_leaves_update
     00025DA6  C$mg_leaves_update.c$215$2_0$235   mg_leaves_update
     00025DA9  A$mg_leaves_update$1321            mg_leaves_update
ASxxxx Linker V03.00/V05.40 + sdld,  page 242.
Hexadecimal  [32-Bits]

Area                                    Addr        Size        Decimal Bytes (Attributes)
--------------------------------        ----        ----        ------- ----- ------------
_CODE_2                             00024000    00001EFB =        7931. bytes (REL,CON)

      Value  Global                              Global Defined In Module
      -----  --------------------------------   ------------------------
     00025DAB  A$mg_leaves_update$1322            mg_leaves_update
     00025DAD  A$mg_leaves_update$1326            mg_leaves_update
     00025DAD  C$mg_leaves_update.c$216$2_0$235   mg_leaves_update
     00025DB0  A$mg_leaves_update$1327            mg_leaves_update
     00025DB2  A$mg_leaves_update$1328            mg_leaves_update
     00025DB4  A$mg_leaves_update$1333            mg_leaves_update
     00025DB4  C$mg_leaves_update.c$218$2_0$235   mg_leaves_update
     00025DB5  A$mg_leaves_update$1334            mg_leaves_update
     00025DB8  A$mg_leaves_update$1339            mg_leaves_update
     00025DB8  C$mg_leaves_update.c$220$2_0$236   mg_leaves_update
     00025DBB  A$mg_leaves_update$1340            mg_leaves_update
     00025DBE  A$mg_leaves_update$1341            mg_leaves_update
     00025DBF  A$mg_leaves_update$1342            mg_leaves_update
     00025DC1  A$mg_leaves_update$1343            mg_leaves_update
     00025DC2  A$mg_leaves_update$1344            mg_leaves_update
     00025DC3  A$mg_leaves_update$1345            mg_leaves_update
     00025DC4  A$mg_leaves_update$1346            mg_leaves_update
     00025DC5  A$mg_leaves_update$1347            mg_leaves_update
     00025DC8  A$mg_leaves_update$1348            mg_leaves_update
     00025DCA  A$mg_leaves_update$1349            mg_leaves_update
     00025DCB  A$mg_leaves_update$1350            mg_leaves_update
     00025DCC  A$mg_leaves_update$1351            mg_leaves_update
     00025DCD  A$mg_leaves_update$1352            mg_leaves_update
     00025DCE  A$mg_leaves_update$1353            mg_leaves_update
     00025DCF  A$mg_leaves_update$1354            mg_leaves_update
     00025DD0  A$mg_leaves_update$1355            mg_leaves_update
     00025DD3  A$mg_leaves_update$1356            mg_leaves_update
     00025DD4  A$mg_leaves_update$1357            mg_leaves_update
     00025DD5  A$mg_leaves_update$1358            mg_leaves_update
     00025DD6  A$mg_leaves_update$1359            mg_leaves_update
     00025DD7  A$mg_leaves_update$1360            mg_leaves_update
     00025DD8  A$mg_leaves_update$1361            mg_leaves_update
     00025DDA  A$mg_leaves_update$1362            mg_leaves_update
     00025DDB  A$mg_leaves_update$1363            mg_leaves_update
     00025DDC  A$mg_leaves_update$1364            mg_leaves_update
     00025DDD  A$mg_leaves_update$1365            mg_leaves_update
     00025DDE  A$mg_leaves_update$1366            mg_leaves_update
     00025DDF  A$mg_leaves_update$1367            mg_leaves_update
     00025DE1  A$mg_leaves_update$1368            mg_leaves_update
     00025DE2  A$mg_leaves_update$1369            mg_leaves_update
     00025DE4  A$mg_leaves_update$1370            mg_leaves_update
     00025DE6  A$mg_leaves_update$1371            mg_leaves_update
     00025DE7  A$mg_leaves_update$1372            mg_leaves_update
     00025DE8  A$mg_leaves_update$1373            mg_leaves_update
     00025DEA  A$mg_leaves_update$1374            mg_leaves_update
     00025DEB  A$mg_leaves_update$1375            mg_leaves_update
     00025DEC  A$mg_leaves_update$1376            mg_leaves_update
     00025DED  A$mg_leaves_update$1377            mg_leaves_update
     00025DEE  A$mg_leaves_update$1378            mg_leaves_update
     00025DEF  A$mg_leaves_update$1379            mg_leaves_update
     00025DF0  A$mg_leaves_update$1380            mg_leaves_update
ASxxxx Linker V03.00/V05.40 + sdld,  page 243.
Hexadecimal  [32-Bits]

Area                                    Addr        Size        Decimal Bytes (Attributes)
--------------------------------        ----        ----        ------- ----- ------------
_CODE_2                             00024000    00001EFB =        7931. bytes (REL,CON)

      Value  Global                              Global Defined In Module
      -----  --------------------------------   ------------------------
     00025DF1  A$mg_leaves_update$1381            mg_leaves_update
     00025DF2  A$mg_leaves_update$1382            mg_leaves_update
     00025DF4  A$mg_leaves_update$1383            mg_leaves_update
     00025DF6  A$mg_leaves_update$1384            mg_leaves_update
     00025DF8  A$mg_leaves_update$1385            mg_leaves_update
     00025DFA  A$mg_leaves_update$1386            mg_leaves_update
     00025DFB  A$mg_leaves_update$1387            mg_leaves_update
     00025DFD  A$mg_leaves_update$1389            mg_leaves_update
     00025DFF  A$mg_leaves_update$1390            mg_leaves_update
     00025E01  A$mg_leaves_update$1391            mg_leaves_update
     00025E02  A$mg_leaves_update$1393            mg_leaves_update
     00025E04  A$mg_leaves_update$1397            mg_leaves_update
     00025E04  C$mg_leaves_update.c$221$2_0$236   mg_leaves_update
     00025E07  A$mg_leaves_update$1398            mg_leaves_update
     00025E09  A$mg_leaves_update$1399            mg_leaves_update
     00025E0B  A$mg_leaves_update$1404            mg_leaves_update
     00025E0B  C$mg_leaves_update.c$223$2_0$236   mg_leaves_update
     00025E0E  A$mg_leaves_update$1405            mg_leaves_update
     00025E10  A$mg_leaves_update$1410            mg_leaves_update
     00025E10  C$mg_leaves_update.c$225$2_0$237   mg_leaves_update
     00025E13  A$mg_leaves_update$1411            mg_leaves_update
     00025E14  A$mg_leaves_update$1412            mg_leaves_update
     00025E16  A$mg_leaves_update$1413            mg_leaves_update
     00025E17  A$mg_leaves_update$1414            mg_leaves_update
     00025E1A  A$mg_leaves_update$1415            mg_leaves_update
     00025E1B  A$mg_leaves_update$1416            mg_leaves_update
     00025E1C  A$mg_leaves_update$1417            mg_leaves_update
     00025E1E  A$mg_leaves_update$1418            mg_leaves_update
     00025E1F  A$mg_leaves_update$1419            mg_leaves_update
     00025E20  A$mg_leaves_update$1420            mg_leaves_update
     00025E21  A$mg_leaves_update$1421            mg_leaves_update
     00025E22  A$mg_leaves_update$1422            mg_leaves_update
     00025E23  A$mg_leaves_update$1423            mg_leaves_update
     00025E25  A$mg_leaves_update$1424            mg_leaves_update
     00025E26  A$mg_leaves_update$1425            mg_leaves_update
     00025E27  A$mg_leaves_update$1426            mg_leaves_update
     00025E28  A$mg_leaves_update$1427            mg_leaves_update
     00025E29  A$mg_leaves_update$1428            mg_leaves_update
     00025E2B  A$mg_leaves_update$1432            mg_leaves_update
     00025E2B  C$mg_leaves_update.c$226$2_0$237   mg_leaves_update
     00025E2E  A$mg_leaves_update$1433            mg_leaves_update
     00025E30  A$mg_leaves_update$1434            mg_leaves_update
     00025E32  A$mg_leaves_update$1439            mg_leaves_update
     00025E32  C$mg_leaves_update.c$228$2_0$237   mg_leaves_update
     00025E35  A$mg_leaves_update$1440            mg_leaves_update
     00025E37  A$mg_leaves_update$1445            mg_leaves_update
     00025E37  C$mg_leaves_update.c$230$1_0$230   mg_leaves_update
     00025E39  A$mg_leaves_update$1446            mg_leaves_update
     00025E3B  A$mg_leaves_update$1447            mg_leaves_update
     00025E3E  A$mg_leaves_update$1451            mg_leaves_update
     00025E3E  C$mg_leaves_update.c$232$1_0$230   mg_leaves_update
ASxxxx Linker V03.00/V05.40 + sdld,  page 244.
Hexadecimal  [32-Bits]

Area                                    Addr        Size        Decimal Bytes (Attributes)
--------------------------------        ----        ----        ------- ----- ------------
_CODE_2                             00024000    00001EFB =        7931. bytes (REL,CON)

      Value  Global                              Global Defined In Module
      -----  --------------------------------   ------------------------
     00025E41  A$mg_leaves_update$1455            mg_leaves_update
     00025E41  C$mg_leaves_update.c$233$1_0$230   mg_leaves_update
     00025E44  A$mg_leaves_update$1459            mg_leaves_update
     00025E44  C$mg_leaves_update.c$235$1_0$230   mg_leaves_update
     00025E47  A$mg_leaves_update$1460            mg_leaves_update
     00025E4A  A$mg_leaves_update$1464            mg_leaves_update
     00025E4A  C$mg_leaves_update.c$237$2_0$238   mg_leaves_update
     00025E4D  A$mg_leaves_update$1465            mg_leaves_update
     00025E50  A$mg_leaves_update$1466            mg_leaves_update
     00025E51  A$mg_leaves_update$1467            mg_leaves_update
     00025E53  A$mg_leaves_update$1471            mg_leaves_update
     00025E53  C$mg_leaves_update.c$239$3_0$239   mg_leaves_update
     00025E56  A$mg_leaves_update$1472            mg_leaves_update
     00025E59  A$mg_leaves_update$1476            mg_leaves_update
     00025E59  C$mg_leaves_update.c$241$3_1$240   mg_leaves_update
     00025E5C  A$mg_leaves_update$1480            mg_leaves_update
     00025E5C  C$mg_leaves_update.c$242$1_1$230   mg_leaves_update
     00025E5E  A$mg_leaves_update$1481            mg_leaves_update
     00025E5F  A$mg_leaves_update$1482            mg_leaves_update
     00025E61  A$mg_leaves_update$1483            mg_leaves_update
     00025E64  A$mg_leaves_update$1484            mg_leaves_update
     00025E65  A$mg_leaves_update$1485            mg_leaves_update
     00025E67  A$mg_leaves_update$1486            mg_leaves_update
     00025E6A  A$mg_leaves_update$1487            mg_leaves_update
     00025E6B  A$mg_leaves_update$1488            mg_leaves_update
     00025E6D  A$mg_leaves_update$1489            mg_leaves_update
     00025E6F  A$mg_leaves_update$1493            mg_leaves_update
     00025E6F  C$mg_leaves_update.c$243$1_1$230   mg_leaves_update
     00025E70  A$mg_leaves_update$1494            mg_leaves_update
     00025E71  A$mg_leaves_update$1495            mg_leaves_update
     00025E73  A$mg_leaves_update$1496            mg_leaves_update
     00025E74  A$mg_leaves_update$1497            mg_leaves_update
     00025E77  A$mg_leaves_update$1498            mg_leaves_update
     00025E78  A$mg_leaves_update$1499            mg_leaves_update
     00025E7A  A$mg_leaves_update$1500            mg_leaves_update
     00025E7D  A$mg_leaves_update$1501            mg_leaves_update
     00025E7E  A$mg_leaves_update$1502            mg_leaves_update
     00025E80  A$mg_leaves_update$1503            mg_leaves_update
     00025E82  A$mg_leaves_update$1507            mg_leaves_update
     00025E82  C$mg_leaves_update.c$244$1_1$230   mg_leaves_update
     00025E83  A$mg_leaves_update$1508            mg_leaves_update
     00025E85  A$mg_leaves_update$1509            mg_leaves_update
     00025E86  A$mg_leaves_update$1510            mg_leaves_update
     00025E89  A$mg_leaves_update$1511            mg_leaves_update
     00025E8A  A$mg_leaves_update$1512            mg_leaves_update
     00025E8C  A$mg_leaves_update$1513            mg_leaves_update
     00025E8E  A$mg_leaves_update$1514            mg_leaves_update
     00025E8F  A$mg_leaves_update$1518            mg_leaves_update
     00025E8F  C$mg_leaves_update.c$246$3_1$240   mg_leaves_update
     00025E91  A$mg_leaves_update$1519            mg_leaves_update
     00025E92  A$mg_leaves_update$1520            mg_leaves_update
ASxxxx Linker V03.00/V05.40 + sdld,  page 245.
Hexadecimal  [32-Bits]

Area                                    Addr        Size        Decimal Bytes (Attributes)
--------------------------------        ----        ----        ------- ----- ------------
_CODE_2                             00024000    00001EFB =        7931. bytes (REL,CON)

      Value  Global                              Global Defined In Module
      -----  --------------------------------   ------------------------
     00025E93  A$mg_leaves_update$1521            mg_leaves_update
     00025E95  A$mg_leaves_update$1522            mg_leaves_update
     00025E97  A$mg_leaves_update$1523            mg_leaves_update
     00025E9A  A$mg_leaves_update$1527            mg_leaves_update
     00025E9A  C$mg_leaves_update.c$247$3_1$240   mg_leaves_update
     00025E9C  A$mg_leaves_update$1528            mg_leaves_update
     00025E9D  A$mg_leaves_update$1529            mg_leaves_update
     00025E9E  A$mg_leaves_update$1530            mg_leaves_update
     00025E9F  A$mg_leaves_update$1531            mg_leaves_update
     00025EA1  A$mg_leaves_update$1532            mg_leaves_update
     00025EA3  A$mg_leaves_update$1533            mg_leaves_update
     00025EA6  A$mg_leaves_update$1537            mg_leaves_update
     00025EA6  C$mg_leaves_update.c$248$3_1$240   mg_leaves_update
     00025EA8  A$mg_leaves_update$1538            mg_leaves_update
     00025EA9  A$mg_leaves_update$1539            mg_leaves_update
     00025EAA  A$mg_leaves_update$1540            mg_leaves_update
     00025EAB  A$mg_leaves_update$1541            mg_leaves_update
     00025EAD  A$mg_leaves_update$1542            mg_leaves_update
     00025EAF  A$mg_leaves_update$1543            mg_leaves_update
     00025EB2  A$mg_leaves_update$1547            mg_leaves_update
     00025EB2  C$mg_leaves_update.c$249$3_1$240   mg_leaves_update
     00025EB4  A$mg_leaves_update$1548            mg_leaves_update
     00025EB5  A$mg_leaves_update$1549            mg_leaves_update
     00025EB6  A$mg_leaves_update$1550            mg_leaves_update
     00025EB7  A$mg_leaves_update$1551            mg_leaves_update
     00025EB9  A$mg_leaves_update$1552            mg_leaves_update
     00025EBB  A$mg_leaves_update$1553            mg_leaves_update
     00025EBE  A$mg_leaves_update$1558            mg_leaves_update
     00025EBE  C$mg_leaves_update.c$252$1_1$241   mg_leaves_update
     00025EC1  A$mg_leaves_update$1559            mg_leaves_update
     00025EC4  A$mg_leaves_update$1560            mg_leaves_update
     00025EC5  A$mg_leaves_update$1561            mg_leaves_update
     00025EC8  A$mg_leaves_update$1562            mg_leaves_update
     00025EC9  A$mg_leaves_update$1566            mg_leaves_update
     00025EC9  C$mg_leaves_update.c$254$1_1$230   mg_leaves_update
     00025ECC  A$mg_leaves_update$1567            mg_leaves_update
     00025ECD  A$mg_leaves_update$1568            mg_leaves_update
     00025ECE  A$mg_leaves_update$1569            mg_leaves_update
     00025ECF  A$mg_leaves_update$1570            mg_leaves_update
     00025ED2  A$mg_leaves_update$1571            mg_leaves_update
     00025ED5  A$mg_leaves_update$1572            mg_leaves_update
     00025ED6  A$mg_leaves_update$1573            mg_leaves_update
     00025ED7  A$mg_leaves_update$1574            mg_leaves_update
     00025ED9  A$mg_leaves_update$1575            mg_leaves_update
     00025EDA  A$mg_leaves_update$1579            mg_leaves_update
     00025EDA  C$mg_leaves_update.c$255$1_1$230   mg_leaves_update
     00025EDB  A$mg_leaves_update$1580            mg_leaves_update
     00025EDE  A$mg_leaves_update$1581            mg_leaves_update
     00025EE1  A$mg_leaves_update$1582            mg_leaves_update
     00025EE2  A$mg_leaves_update$1583            mg_leaves_update
     00025EE3  A$mg_leaves_update$1584            mg_leaves_update
ASxxxx Linker V03.00/V05.40 + sdld,  page 246.
Hexadecimal  [32-Bits]

Area                                    Addr        Size        Decimal Bytes (Attributes)
--------------------------------        ----        ----        ------- ----- ------------
_CODE_2                             00024000    00001EFB =        7931. bytes (REL,CON)

      Value  Global                              Global Defined In Module
      -----  --------------------------------   ------------------------
     00025EE5  A$mg_leaves_update$1585            mg_leaves_update
     00025EE6  A$mg_leaves_update$1589            mg_leaves_update
     00025EE6  C$mg_leaves_update.c$257$1_1$241   mg_leaves_update
     00025EE7  A$mg_leaves_update$1590            mg_leaves_update
     00025EE8  A$mg_leaves_update$1591            mg_leaves_update
     00025EE9  A$mg_leaves_update$1592            mg_leaves_update
     00025EEB  A$mg_leaves_update$1593            mg_leaves_update
     00025EED  A$mg_leaves_update$1594            mg_leaves_update
     00025EF0  A$mg_leaves_update$1598            mg_leaves_update
     00025EF0  C$mg_leaves_update.c$258$1_1$241   mg_leaves_update
     00025EF1  A$mg_leaves_update$1599            mg_leaves_update
     00025EF3  A$mg_leaves_update$1600            mg_leaves_update
     00025EF5  A$mg_leaves_update$1601            mg_leaves_update
     00025EF8  A$mg_leaves_update$1609            mg_leaves_update
     00025EF8  C$mg_leaves_update.c$260$1_1$241   mg_leaves_update
     00025EFA  A$mg_leaves_update$1614            mg_leaves_update
     00025EFA  C$mg_leaves_update.c$261$1_1$230   mg_leaves_update
     00025EFA  XG$Mg_Leaves_Update$0$0            mg_leaves_update

ASxxxx Linker V03.00/V05.40 + sdld,  page 247.
Hexadecimal  [32-Bits]

Area                                    Addr        Size        Decimal Bytes (Attributes)
--------------------------------        ----        ----        ------- ----- ------------
_CODE_4                             00044000    00001560 =        5472. bytes (REL,CON)

      Value  Global                              Global Defined In Module
      -----  --------------------------------   ------------------------
     00044000  G$map_3_0_tileset$0_0$0            map_3_0
     00044000  _map_3_0_tileset                   map_3_0
     000441E0  G$map_3_0_tilemap$0_0$0            map_3_0
     000441E0  _map_3_0_tilemap                   map_3_0
     00044348  G$map_3_1_tileset$0_0$0            map_3_1
     00044348  _map_3_1_tileset                   map_3_1
     00044528  G$map_3_1_tilemap$0_0$0            map_3_1
     00044528  _map_3_1_tilemap                   map_3_1
     00044690  G$map_3_2_tileset$0_0$0            map_3_2
     00044690  _map_3_2_tileset                   map_3_2
     00044870  G$map_3_2_tilemap$0_0$0            map_3_2
     00044870  _map_3_2_tilemap                   map_3_2
     000449D8  G$map_3_3_tileset$0_0$0            map_3_3
     000449D8  _map_3_3_tileset                   map_3_3
     00044BB8  G$map_3_3_tilemap$0_0$0            map_3_3
     00044BB8  _map_3_3_tilemap                   map_3_3
     00044D20  G$map_30_collision$0_0$0           map_30_collision
     00044D20  _map_30_collision                  map_30_collision
     00044E88  A$map_30_create$57                 map_30_create
     00044E88  C$map_30_create.c$6$0_0$10         map_30_create
     00044E88  C$map_30_create.c$7$1_0$10         map_30_create
     00044E88  G$Map_30_Create$0$0                map_30_create
     00044E88  _Map_30_Create                     map_30_create
     00044E8B  A$map_30_create$58                 map_30_create
     00044E8D  A$map_30_create$59                 map_30_create
     00044E8E  A$map_30_create$60                 map_30_create
     00044E90  A$map_30_create$64                 map_30_create
     00044E90  C$map_30_create.c$8$1_0$10         map_30_create
     00044E91  A$map_30_create$65                 map_30_create
     00044E93  A$map_30_create$66                 map_30_create
     00044E94  A$map_30_create$67                 map_30_create
     00044E96  A$map_30_create$71                 map_30_create
     00044E96  C$map_30_create.c$9$1_0$10         map_30_create
     00044E99  A$map_30_create$72                 map_30_create
     00044E9B  A$map_30_create$80                 map_30_create
     00044E9B  C$map_30_create.c$10$1_0$10        map_30_create
     00044E9B  XG$Map_30_Create$0$0               map_30_create
     00044E9C  A$map_30_init$59                   map_30_init
     00044E9C  C$map_30_init.c$15$0_0$150         map_30_init
     00044E9C  C$map_30_init.c$17$1_0$150         map_30_init
     00044E9C  G$Map_30_Init$0$0                  map_30_init
     00044E9C  _Map_30_Init                       map_30_init
     00044E9D  A$map_30_init$60                   map_30_init
     00044EA0  A$map_30_init$61                   map_30_init
     00044EA1  A$map_30_init$65                   map_30_init
     00044EA1  C$map_30_init.c$19$1_0$150         map_30_init
     00044EA4  A$map_30_init$66                   map_30_init
     00044EA7  A$map_30_init$67                   map_30_init
     00044EA8  A$map_30_init$71                   map_30_init
     00044EA8  C$map_30_init.c$20$1_0$150         map_30_init
ASxxxx Linker V03.00/V05.40 + sdld,  page 248.
Hexadecimal  [32-Bits]

Area                                    Addr        Size        Decimal Bytes (Attributes)
--------------------------------        ----        ----        ------- ----- ------------
_CODE_4                             00044000    00001560 =        5472. bytes (REL,CON)

      Value  Global                              Global Defined In Module
      -----  --------------------------------   ------------------------
     00044EAB  A$map_30_init$72                   map_30_init
     00044EAD  A$map_30_init$76                   map_30_init
     00044EAD  C$map_30_init.c$21$1_0$150         map_30_init
     00044EB0  A$map_30_init$77                   map_30_init
     00044EB2  A$map_30_init$78                   map_30_init
     00044EB3  A$map_30_init$79                   map_30_init
     00044EB5  A$map_30_init$83                   map_30_init
     00044EB5  C$map_30_init.c$23$1_0$150         map_30_init
     00044EB8  A$map_30_init$84                   map_30_init
     00044EBA  A$map_30_init$88                   map_30_init
     00044EBA  C$map_30_init.c$24$1_0$150         map_30_init
     00044EBD  A$map_30_init$89                   map_30_init
     00044EBF  A$map_30_init$93                   map_30_init
     00044EBF  C$map_30_init.c$25$1_0$150         map_30_init
     00044EC2  A$map_30_init$94                   map_30_init
     00044EC4  A$map_30_init$98                   map_30_init
     00044EC4  C$map_30_init.c$26$1_0$150         map_30_init
     00044EC7  A$map_30_init$99                   map_30_init
     00044EC9  A$map_30_init$103                  map_30_init
     00044EC9  C$map_30_init.c$28$1_0$150         map_30_init
     00044ECC  A$map_30_init$104                  map_30_init
     00044ECE  A$map_30_init$108                  map_30_init
     00044ECE  C$map_30_init.c$29$1_0$150         map_30_init
     00044ED1  A$map_30_init$109                  map_30_init
     00044ED3  A$map_30_init$113                  map_30_init
     00044ED3  C$map_30_init.c$31$1_0$150         map_30_init
     00044ED6  A$map_30_init$114                  map_30_init
     00044ED7  A$map_30_init$115                  map_30_init
     00044ED9  A$map_30_init$116                  map_30_init
     00044EDA  A$map_30_init$117                  map_30_init
     00044EDC  A$map_30_init$121                  map_30_init
     00044EDC  C$map_30_init.c$33$1_0$150         map_30_init
     00044EDF  A$map_30_init$122                  map_30_init
     00044EE0  A$map_30_init$123                  map_30_init
     00044EE3  A$map_30_init$124                  map_30_init
     00044EE4  A$map_30_init$125                  map_30_init
     00044EE7  A$map_30_init$126                  map_30_init
     00044EE9  A$map_30_init$130                  map_30_init
     00044EE9  C$map_30_init.c$34$1_0$150         map_30_init
     00044EEC  A$map_30_init$131                  map_30_init
     00044EED  A$map_30_init$132                  map_30_init
     00044EF0  A$map_30_init$133                  map_30_init
     00044EF1  A$map_30_init$134                  map_30_init
     00044EF2  A$map_30_init$135                  map_30_init
     00044EF3  A$map_30_init$136                  map_30_init
     00044EF4  A$map_30_init$137                  map_30_init
     00044EF7  A$map_30_init$138                  map_30_init
     00044EF9  A$map_30_init$142                  map_30_init
     00044EF9  C$map_30_init.c$36$1_0$150         map_30_init
     00044EFC  A$map_30_init$143                  map_30_init
     00044EFF  A$map_30_init$147                  map_30_init
ASxxxx Linker V03.00/V05.40 + sdld,  page 249.
Hexadecimal  [32-Bits]

Area                                    Addr        Size        Decimal Bytes (Attributes)
--------------------------------        ----        ----        ------- ----- ------------
_CODE_4                             00044000    00001560 =        5472. bytes (REL,CON)

      Value  Global                              Global Defined In Module
      -----  --------------------------------   ------------------------
     00044EFF  C$map_30_init.c$38$1_0$150         map_30_init
     00044F02  A$map_30_init$148                  map_30_init
     00044F04  A$map_30_init$152                  map_30_init
     00044F04  C$map_30_init.c$39$1_0$150         map_30_init
     00044F07  A$map_30_init$153                  map_30_init
     00044F09  A$map_30_init$161                  map_30_init
     00044F09  C$map_30_init.c$40$1_0$150         map_30_init
     00044F09  XG$Map_30_Init$0$0                 map_30_init
     00044F0A  A$map_30_update$60                 map_30_update
     00044F0A  C$map_30_update.c$12$0_0$148       map_30_update
     00044F0A  C$map_30_update.c$13$1_0$148       map_30_update
     00044F0A  G$Map_30_Update$0$0                map_30_update
     00044F0A  _Map_30_Update                     map_30_update
     00044F0B  A$map_30_update$61                 map_30_update
     00044F0E  A$map_30_update$65                 map_30_update
     00044F0E  C$map_30_update.c$15$1_0$148       map_30_update
     00044F11  A$map_30_update$66                 map_30_update
     00044F12  A$map_30_update$70                 map_30_update
     00044F12  C$map_30_update.c$17$1_1$149       map_30_update
     00044F15  A$map_30_update$71                 map_30_update
     00044F16  A$map_30_update$72                 map_30_update
     00044F17  A$map_30_update$73                 map_30_update
     00044F18  A$map_30_update$74                 map_30_update
     00044F19  A$map_30_update$75                 map_30_update
     00044F1A  A$map_30_update$79                 map_30_update
     00044F1A  C$map_30_update.c$19$1_1$149       map_30_update
     00044F1B  A$map_30_update$80                 map_30_update
     00044F1C  A$map_30_update$81                 map_30_update
     00044F1F  A$map_30_update$82                 map_30_update
     00044F22  A$map_30_update$83                 map_30_update
     00044F23  A$map_30_update$84                 map_30_update
     00044F24  A$map_30_update$88                 map_30_update
     00044F24  C$map_30_update.c$20$1_1$149       map_30_update
     00044F25  A$map_30_update$89                 map_30_update
     00044F26  A$map_30_update$90                 map_30_update
     00044F27  A$map_30_update$91                 map_30_update
     00044F28  A$map_30_update$92                 map_30_update
     00044F29  A$map_30_update$93                 map_30_update
     00044F2C  A$map_30_update$97                 map_30_update
     00044F2C  C$map_30_update.c$22$1_1$149       map_30_update
     00044F2D  A$map_30_update$108                map_30_update
     00044F2D  C$map_30_update.c$24$1_1$149       map_30_update
     00044F2D  C$map_30_update.c$25$1_1$148       map_30_update
     00044F2D  XG$Map_30_Update$0$0               map_30_update
     00044F30  G$map_31_collision$0_0$0           map_31_collision
     00044F30  _map_31_collision                  map_31_collision
     00045098  A$map_31_create$57                 map_31_create
     00045098  C$map_31_create.c$6$0_0$10         map_31_create
     00045098  C$map_31_create.c$7$1_0$10         map_31_create
     00045098  G$Map_31_Create$0$0                map_31_create
     00045098  _Map_31_Create                     map_31_create
ASxxxx Linker V03.00/V05.40 + sdld,  page 250.
Hexadecimal  [32-Bits]

Area                                    Addr        Size        Decimal Bytes (Attributes)
--------------------------------        ----        ----        ------- ----- ------------
_CODE_4                             00044000    00001560 =        5472. bytes (REL,CON)

      Value  Global                              Global Defined In Module
      -----  --------------------------------   ------------------------
     0004509B  A$map_31_create$58                 map_31_create
     0004509D  A$map_31_create$59                 map_31_create
     0004509E  A$map_31_create$60                 map_31_create
     000450A0  A$map_31_create$64                 map_31_create
     000450A0  C$map_31_create.c$8$1_0$10         map_31_create
     000450A1  A$map_31_create$65                 map_31_create
     000450A3  A$map_31_create$66                 map_31_create
     000450A4  A$map_31_create$67                 map_31_create
     000450A6  A$map_31_create$71                 map_31_create
     000450A6  C$map_31_create.c$9$1_0$10         map_31_create
     000450A9  A$map_31_create$72                 map_31_create
     000450AB  A$map_31_create$80                 map_31_create
     000450AB  C$map_31_create.c$10$1_0$10        map_31_create
     000450AB  XG$Map_31_Create$0$0               map_31_create
     000450AC  A$map_31_init$59                   map_31_init
     000450AC  C$map_31_init.c$15$0_0$150         map_31_init
     000450AC  C$map_31_init.c$17$1_0$150         map_31_init
     000450AC  G$Map_31_Init$0$0                  map_31_init
     000450AC  _Map_31_Init                       map_31_init
     000450AD  A$map_31_init$60                   map_31_init
     000450B0  A$map_31_init$61                   map_31_init
     000450B1  A$map_31_init$65                   map_31_init
     000450B1  C$map_31_init.c$19$1_0$150         map_31_init
     000450B4  A$map_31_init$66                   map_31_init
     000450B7  A$map_31_init$67                   map_31_init
     000450B8  A$map_31_init$71                   map_31_init
     000450B8  C$map_31_init.c$20$1_0$150         map_31_init
     000450BB  A$map_31_init$72                   map_31_init
     000450BD  A$map_31_init$76                   map_31_init
     000450BD  C$map_31_init.c$21$1_0$150         map_31_init
     000450C0  A$map_31_init$77                   map_31_init
     000450C2  A$map_31_init$78                   map_31_init
     000450C3  A$map_31_init$79                   map_31_init
     000450C5  A$map_31_init$83                   map_31_init
     000450C5  C$map_31_init.c$23$1_0$150         map_31_init
     000450C8  A$map_31_init$84                   map_31_init
     000450CA  A$map_31_init$88                   map_31_init
     000450CA  C$map_31_init.c$24$1_0$150         map_31_init
     000450CD  A$map_31_init$89                   map_31_init
     000450CF  A$map_31_init$93                   map_31_init
     000450CF  C$map_31_init.c$25$1_0$150         map_31_init
     000450D2  A$map_31_init$94                   map_31_init
     000450D4  A$map_31_init$98                   map_31_init
     000450D4  C$map_31_init.c$26$1_0$150         map_31_init
     000450D7  A$map_31_init$99                   map_31_init
     000450D9  A$map_31_init$103                  map_31_init
     000450D9  C$map_31_init.c$28$1_0$150         map_31_init
     000450DC  A$map_31_init$104                  map_31_init
     000450DE  A$map_31_init$108                  map_31_init
     000450DE  C$map_31_init.c$29$1_0$150         map_31_init
     000450E1  A$map_31_init$109                  map_31_init
ASxxxx Linker V03.00/V05.40 + sdld,  page 251.
Hexadecimal  [32-Bits]

Area                                    Addr        Size        Decimal Bytes (Attributes)
--------------------------------        ----        ----        ------- ----- ------------
_CODE_4                             00044000    00001560 =        5472. bytes (REL,CON)

      Value  Global                              Global Defined In Module
      -----  --------------------------------   ------------------------
     000450E3  A$map_31_init$113                  map_31_init
     000450E3  C$map_31_init.c$31$1_0$150         map_31_init
     000450E6  A$map_31_init$114                  map_31_init
     000450E7  A$map_31_init$115                  map_31_init
     000450E9  A$map_31_init$116                  map_31_init
     000450EA  A$map_31_init$117                  map_31_init
     000450EC  A$map_31_init$121                  map_31_init
     000450EC  C$map_31_init.c$33$1_0$150         map_31_init
     000450EF  A$map_31_init$122                  map_31_init
     000450F0  A$map_31_init$123                  map_31_init
     000450F3  A$map_31_init$124                  map_31_init
     000450F4  A$map_31_init$125                  map_31_init
     000450F7  A$map_31_init$126                  map_31_init
     000450F9  A$map_31_init$130                  map_31_init
     000450F9  C$map_31_init.c$34$1_0$150         map_31_init
     000450FC  A$map_31_init$131                  map_31_init
     000450FD  A$map_31_init$132                  map_31_init
     00045100  A$map_31_init$133                  map_31_init
     00045101  A$map_31_init$134                  map_31_init
     00045102  A$map_31_init$135                  map_31_init
     00045103  A$map_31_init$136                  map_31_init
     00045104  A$map_31_init$137                  map_31_init
     00045107  A$map_31_init$138                  map_31_init
     00045109  A$map_31_init$142                  map_31_init
     00045109  C$map_31_init.c$36$1_0$150         map_31_init
     0004510C  A$map_31_init$143                  map_31_init
     0004510F  A$map_31_init$147                  map_31_init
     0004510F  C$map_31_init.c$38$1_0$150         map_31_init
     00045112  A$map_31_init$148                  map_31_init
     00045114  A$map_31_init$152                  map_31_init
     00045114  C$map_31_init.c$39$1_0$150         map_31_init
     00045117  A$map_31_init$153                  map_31_init
     00045119  A$map_31_init$161                  map_31_init
     00045119  C$map_31_init.c$40$1_0$150         map_31_init
     00045119  XG$Map_31_Init$0$0                 map_31_init
     0004511A  A$map_31_update$60                 map_31_update
     0004511A  C$map_31_update.c$12$0_0$148       map_31_update
     0004511A  C$map_31_update.c$13$1_0$148       map_31_update
     0004511A  G$Map_31_Update$0$0                map_31_update
     0004511A  _Map_31_Update                     map_31_update
     0004511B  A$map_31_update$61                 map_31_update
     0004511E  A$map_31_update$65                 map_31_update
     0004511E  C$map_31_update.c$15$1_0$148       map_31_update
     00045121  A$map_31_update$66                 map_31_update
     00045122  A$map_31_update$70                 map_31_update
     00045122  C$map_31_update.c$17$1_1$149       map_31_update
     00045125  A$map_31_update$71                 map_31_update
     00045126  A$map_31_update$72                 map_31_update
     00045127  A$map_31_update$73                 map_31_update
     00045128  A$map_31_update$74                 map_31_update
     00045129  A$map_31_update$75                 map_31_update
ASxxxx Linker V03.00/V05.40 + sdld,  page 252.
Hexadecimal  [32-Bits]

Area                                    Addr        Size        Decimal Bytes (Attributes)
--------------------------------        ----        ----        ------- ----- ------------
_CODE_4                             00044000    00001560 =        5472. bytes (REL,CON)

      Value  Global                              Global Defined In Module
      -----  --------------------------------   ------------------------
     0004512A  A$map_31_update$79                 map_31_update
     0004512A  C$map_31_update.c$19$1_1$149       map_31_update
     0004512B  A$map_31_update$80                 map_31_update
     0004512C  A$map_31_update$81                 map_31_update
     0004512F  A$map_31_update$82                 map_31_update
     00045132  A$map_31_update$83                 map_31_update
     00045133  A$map_31_update$84                 map_31_update
     00045134  A$map_31_update$88                 map_31_update
     00045134  C$map_31_update.c$20$1_1$149       map_31_update
     00045135  A$map_31_update$89                 map_31_update
     00045136  A$map_31_update$90                 map_31_update
     00045137  A$map_31_update$91                 map_31_update
     00045138  A$map_31_update$92                 map_31_update
     00045139  A$map_31_update$93                 map_31_update
     0004513C  A$map_31_update$97                 map_31_update
     0004513C  C$map_31_update.c$22$1_1$149       map_31_update
     0004513D  A$map_31_update$108                map_31_update
     0004513D  C$map_31_update.c$24$1_1$149       map_31_update
     0004513D  C$map_31_update.c$25$1_1$148       map_31_update
     0004513D  XG$Map_31_Update$0$0               map_31_update
     00045140  G$map_32_collision$0_0$0           map_32_collision
     00045140  _map_32_collision                  map_32_collision
     000452A8  A$map_32_create$57                 map_32_create
     000452A8  C$map_32_create.c$6$0_0$10         map_32_create
     000452A8  C$map_32_create.c$7$1_0$10         map_32_create
     000452A8  G$Map_32_Create$0$0                map_32_create
     000452A8  _Map_32_Create                     map_32_create
     000452AB  A$map_32_create$58                 map_32_create
     000452AD  A$map_32_create$59                 map_32_create
     000452AE  A$map_32_create$60                 map_32_create
     000452B0  A$map_32_create$64                 map_32_create
     000452B0  C$map_32_create.c$8$1_0$10         map_32_create
     000452B1  A$map_32_create$65                 map_32_create
     000452B3  A$map_32_create$66                 map_32_create
     000452B4  A$map_32_create$67                 map_32_create
     000452B6  A$map_32_create$71                 map_32_create
     000452B6  C$map_32_create.c$9$1_0$10         map_32_create
     000452B9  A$map_32_create$72                 map_32_create
     000452BB  A$map_32_create$80                 map_32_create
     000452BB  C$map_32_create.c$10$1_0$10        map_32_create
     000452BB  XG$Map_32_Create$0$0               map_32_create
     000452BC  A$map_32_init$59                   map_32_init
     000452BC  C$map_32_init.c$15$0_0$150         map_32_init
     000452BC  C$map_32_init.c$17$1_0$150         map_32_init
     000452BC  G$Map_32_Init$0$0                  map_32_init
     000452BC  _Map_32_Init                       map_32_init
     000452BD  A$map_32_init$60                   map_32_init
     000452C0  A$map_32_init$61                   map_32_init
     000452C1  A$map_32_init$65                   map_32_init
     000452C1  C$map_32_init.c$19$1_0$150         map_32_init
     000452C4  A$map_32_init$66                   map_32_init
ASxxxx Linker V03.00/V05.40 + sdld,  page 253.
Hexadecimal  [32-Bits]

Area                                    Addr        Size        Decimal Bytes (Attributes)
--------------------------------        ----        ----        ------- ----- ------------
_CODE_4                             00044000    00001560 =        5472. bytes (REL,CON)

      Value  Global                              Global Defined In Module
      -----  --------------------------------   ------------------------
     000452C7  A$map_32_init$67                   map_32_init
     000452C8  A$map_32_init$71                   map_32_init
     000452C8  C$map_32_init.c$20$1_0$150         map_32_init
     000452CB  A$map_32_init$72                   map_32_init
     000452CD  A$map_32_init$76                   map_32_init
     000452CD  C$map_32_init.c$21$1_0$150         map_32_init
     000452D0  A$map_32_init$77                   map_32_init
     000452D2  A$map_32_init$78                   map_32_init
     000452D3  A$map_32_init$79                   map_32_init
     000452D5  A$map_32_init$83                   map_32_init
     000452D5  C$map_32_init.c$23$1_0$150         map_32_init
     000452D8  A$map_32_init$84                   map_32_init
     000452DA  A$map_32_init$88                   map_32_init
     000452DA  C$map_32_init.c$24$1_0$150         map_32_init
     000452DD  A$map_32_init$89                   map_32_init
     000452DF  A$map_32_init$93                   map_32_init
     000452DF  C$map_32_init.c$25$1_0$150         map_32_init
     000452E2  A$map_32_init$94                   map_32_init
     000452E4  A$map_32_init$98                   map_32_init
     000452E4  C$map_32_init.c$26$1_0$150         map_32_init
     000452E7  A$map_32_init$99                   map_32_init
     000452E9  A$map_32_init$103                  map_32_init
     000452E9  C$map_32_init.c$28$1_0$150         map_32_init
     000452EC  A$map_32_init$104                  map_32_init
     000452EE  A$map_32_init$108                  map_32_init
     000452EE  C$map_32_init.c$29$1_0$150         map_32_init
     000452F1  A$map_32_init$109                  map_32_init
     000452F3  A$map_32_init$113                  map_32_init
     000452F3  C$map_32_init.c$31$1_0$150         map_32_init
     000452F6  A$map_32_init$114                  map_32_init
     000452F7  A$map_32_init$115                  map_32_init
     000452F9  A$map_32_init$116                  map_32_init
     000452FA  A$map_32_init$117                  map_32_init
     000452FC  A$map_32_init$121                  map_32_init
     000452FC  C$map_32_init.c$33$1_0$150         map_32_init
     000452FF  A$map_32_init$122                  map_32_init
     00045300  A$map_32_init$123                  map_32_init
     00045303  A$map_32_init$124                  map_32_init
     00045304  A$map_32_init$125                  map_32_init
     00045307  A$map_32_init$126                  map_32_init
     00045309  A$map_32_init$130                  map_32_init
     00045309  C$map_32_init.c$34$1_0$150         map_32_init
     0004530C  A$map_32_init$131                  map_32_init
     0004530D  A$map_32_init$132                  map_32_init
     00045310  A$map_32_init$133                  map_32_init
     00045311  A$map_32_init$134                  map_32_init
     00045312  A$map_32_init$135                  map_32_init
     00045313  A$map_32_init$136                  map_32_init
     00045314  A$map_32_init$137                  map_32_init
     00045317  A$map_32_init$138                  map_32_init
     00045319  A$map_32_init$142                  map_32_init
ASxxxx Linker V03.00/V05.40 + sdld,  page 254.
Hexadecimal  [32-Bits]

Area                                    Addr        Size        Decimal Bytes (Attributes)
--------------------------------        ----        ----        ------- ----- ------------
_CODE_4                             00044000    00001560 =        5472. bytes (REL,CON)

      Value  Global                              Global Defined In Module
      -----  --------------------------------   ------------------------
     00045319  C$map_32_init.c$36$1_0$150         map_32_init
     0004531C  A$map_32_init$143                  map_32_init
     0004531F  A$map_32_init$147                  map_32_init
     0004531F  C$map_32_init.c$38$1_0$150         map_32_init
     00045322  A$map_32_init$148                  map_32_init
     00045324  A$map_32_init$152                  map_32_init
     00045324  C$map_32_init.c$39$1_0$150         map_32_init
     00045327  A$map_32_init$153                  map_32_init
     00045329  A$map_32_init$161                  map_32_init
     00045329  C$map_32_init.c$40$1_0$150         map_32_init
     00045329  XG$Map_32_Init$0$0                 map_32_init
     0004532A  A$map_32_update$60                 map_32_update
     0004532A  C$map_32_update.c$12$0_0$148       map_32_update
     0004532A  C$map_32_update.c$13$1_0$148       map_32_update
     0004532A  G$Map_32_Update$0$0                map_32_update
     0004532A  _Map_32_Update                     map_32_update
     0004532B  A$map_32_update$61                 map_32_update
     0004532E  A$map_32_update$65                 map_32_update
     0004532E  C$map_32_update.c$15$1_0$148       map_32_update
     00045331  A$map_32_update$66                 map_32_update
     00045332  A$map_32_update$70                 map_32_update
     00045332  C$map_32_update.c$17$1_1$149       map_32_update
     00045335  A$map_32_update$71                 map_32_update
     00045336  A$map_32_update$72                 map_32_update
     00045337  A$map_32_update$73                 map_32_update
     00045338  A$map_32_update$74                 map_32_update
     00045339  A$map_32_update$75                 map_32_update
     0004533A  A$map_32_update$79                 map_32_update
     0004533A  C$map_32_update.c$19$1_1$149       map_32_update
     0004533B  A$map_32_update$80                 map_32_update
     0004533C  A$map_32_update$81                 map_32_update
     0004533F  A$map_32_update$82                 map_32_update
     00045342  A$map_32_update$83                 map_32_update
     00045343  A$map_32_update$84                 map_32_update
     00045344  A$map_32_update$88                 map_32_update
     00045344  C$map_32_update.c$20$1_1$149       map_32_update
     00045345  A$map_32_update$89                 map_32_update
     00045346  A$map_32_update$90                 map_32_update
     00045347  A$map_32_update$91                 map_32_update
     00045348  A$map_32_update$92                 map_32_update
     00045349  A$map_32_update$93                 map_32_update
     0004534C  A$map_32_update$97                 map_32_update
     0004534C  C$map_32_update.c$22$1_1$149       map_32_update
     0004534D  A$map_32_update$108                map_32_update
     0004534D  C$map_32_update.c$24$1_1$149       map_32_update
     0004534D  C$map_32_update.c$25$1_1$148       map_32_update
     0004534D  XG$Map_32_Update$0$0               map_32_update
     00045350  G$map_33_collision$0_0$0           map_33_collision
     00045350  _map_33_collision                  map_33_collision
     000454B8  A$map_33_create$57                 map_33_create
     000454B8  C$map_33_create.c$6$0_0$10         map_33_create
ASxxxx Linker V03.00/V05.40 + sdld,  page 255.
Hexadecimal  [32-Bits]

Area                                    Addr        Size        Decimal Bytes (Attributes)
--------------------------------        ----        ----        ------- ----- ------------
_CODE_4                             00044000    00001560 =        5472. bytes (REL,CON)

      Value  Global                              Global Defined In Module
      -----  --------------------------------   ------------------------
     000454B8  C$map_33_create.c$7$1_0$10         map_33_create
     000454B8  G$Map_33_Create$0$0                map_33_create
     000454B8  _Map_33_Create                     map_33_create
     000454BB  A$map_33_create$58                 map_33_create
     000454BD  A$map_33_create$59                 map_33_create
     000454BE  A$map_33_create$60                 map_33_create
     000454C0  A$map_33_create$64                 map_33_create
     000454C0  C$map_33_create.c$8$1_0$10         map_33_create
     000454C1  A$map_33_create$65                 map_33_create
     000454C3  A$map_33_create$66                 map_33_create
     000454C4  A$map_33_create$67                 map_33_create
     000454C6  A$map_33_create$71                 map_33_create
     000454C6  C$map_33_create.c$9$1_0$10         map_33_create
     000454C9  A$map_33_create$72                 map_33_create
     000454CB  A$map_33_create$80                 map_33_create
     000454CB  C$map_33_create.c$10$1_0$10        map_33_create
     000454CB  XG$Map_33_Create$0$0               map_33_create
     000454CC  A$map_33_init$59                   map_33_init
     000454CC  C$map_33_init.c$15$0_0$150         map_33_init
     000454CC  C$map_33_init.c$17$1_0$150         map_33_init
     000454CC  G$Map_33_Init$0$0                  map_33_init
     000454CC  _Map_33_Init                       map_33_init
     000454CD  A$map_33_init$60                   map_33_init
     000454D0  A$map_33_init$61                   map_33_init
     000454D1  A$map_33_init$65                   map_33_init
     000454D1  C$map_33_init.c$19$1_0$150         map_33_init
     000454D4  A$map_33_init$66                   map_33_init
     000454D7  A$map_33_init$67                   map_33_init
     000454D8  A$map_33_init$71                   map_33_init
     000454D8  C$map_33_init.c$20$1_0$150         map_33_init
     000454DB  A$map_33_init$72                   map_33_init
     000454DD  A$map_33_init$76                   map_33_init
     000454DD  C$map_33_init.c$21$1_0$150         map_33_init
     000454E0  A$map_33_init$77                   map_33_init
     000454E2  A$map_33_init$78                   map_33_init
     000454E3  A$map_33_init$79                   map_33_init
     000454E5  A$map_33_init$83                   map_33_init
     000454E5  C$map_33_init.c$23$1_0$150         map_33_init
     000454E8  A$map_33_init$84                   map_33_init
     000454EA  A$map_33_init$88                   map_33_init
     000454EA  C$map_33_init.c$24$1_0$150         map_33_init
     000454ED  A$map_33_init$89                   map_33_init
     000454EF  A$map_33_init$93                   map_33_init
     000454EF  C$map_33_init.c$25$1_0$150         map_33_init
     000454F2  A$map_33_init$94                   map_33_init
     000454F4  A$map_33_init$98                   map_33_init
     000454F4  C$map_33_init.c$26$1_0$150         map_33_init
     000454F7  A$map_33_init$99                   map_33_init
     000454F9  A$map_33_init$103                  map_33_init
     000454F9  C$map_33_init.c$28$1_0$150         map_33_init
     000454FC  A$map_33_init$104                  map_33_init
ASxxxx Linker V03.00/V05.40 + sdld,  page 256.
Hexadecimal  [32-Bits]

Area                                    Addr        Size        Decimal Bytes (Attributes)
--------------------------------        ----        ----        ------- ----- ------------
_CODE_4                             00044000    00001560 =        5472. bytes (REL,CON)

      Value  Global                              Global Defined In Module
      -----  --------------------------------   ------------------------
     000454FE  A$map_33_init$108                  map_33_init
     000454FE  C$map_33_init.c$29$1_0$150         map_33_init
     00045501  A$map_33_init$109                  map_33_init
     00045503  A$map_33_init$113                  map_33_init
     00045503  C$map_33_init.c$31$1_0$150         map_33_init
     00045506  A$map_33_init$114                  map_33_init
     00045507  A$map_33_init$115                  map_33_init
     00045509  A$map_33_init$116                  map_33_init
     0004550A  A$map_33_init$117                  map_33_init
     0004550C  A$map_33_init$121                  map_33_init
     0004550C  C$map_33_init.c$33$1_0$150         map_33_init
     0004550F  A$map_33_init$122                  map_33_init
     00045510  A$map_33_init$123                  map_33_init
     00045513  A$map_33_init$124                  map_33_init
     00045514  A$map_33_init$125                  map_33_init
     00045517  A$map_33_init$126                  map_33_init
     00045519  A$map_33_init$130                  map_33_init
     00045519  C$map_33_init.c$34$1_0$150         map_33_init
     0004551C  A$map_33_init$131                  map_33_init
     0004551D  A$map_33_init$132                  map_33_init
     00045520  A$map_33_init$133                  map_33_init
     00045521  A$map_33_init$134                  map_33_init
     00045522  A$map_33_init$135                  map_33_init
     00045523  A$map_33_init$136                  map_33_init
     00045524  A$map_33_init$137                  map_33_init
     00045527  A$map_33_init$138                  map_33_init
     00045529  A$map_33_init$142                  map_33_init
     00045529  C$map_33_init.c$36$1_0$150         map_33_init
     0004552C  A$map_33_init$143                  map_33_init
     0004552F  A$map_33_init$147                  map_33_init
     0004552F  C$map_33_init.c$38$1_0$150         map_33_init
     00045532  A$map_33_init$148                  map_33_init
     00045534  A$map_33_init$152                  map_33_init
     00045534  C$map_33_init.c$39$1_0$150         map_33_init
     00045537  A$map_33_init$153                  map_33_init
     00045539  A$map_33_init$161                  map_33_init
     00045539  C$map_33_init.c$40$1_0$150         map_33_init
     00045539  XG$Map_33_Init$0$0                 map_33_init
     0004553A  A$map_33_update$60                 map_33_update
     0004553A  C$map_33_update.c$12$0_0$148       map_33_update
     0004553A  C$map_33_update.c$14$1_0$148       map_33_update
     0004553A  G$Map_33_Update$0$0                map_33_update
     0004553A  _Map_33_Update                     map_33_update
     0004553B  A$map_33_update$61                 map_33_update
     0004553E  A$map_33_update$65                 map_33_update
     0004553E  C$map_33_update.c$16$1_0$148       map_33_update
     00045541  A$map_33_update$66                 map_33_update
     00045542  A$map_33_update$70                 map_33_update
     00045542  C$map_33_update.c$18$1_1$149       map_33_update
     00045545  A$map_33_update$71                 map_33_update
     00045546  A$map_33_update$72                 map_33_update
ASxxxx Linker V03.00/V05.40 + sdld,  page 257.
Hexadecimal  [32-Bits]

Area                                    Addr        Size        Decimal Bytes (Attributes)
--------------------------------        ----        ----        ------- ----- ------------
_CODE_4                             00044000    00001560 =        5472. bytes (REL,CON)

      Value  Global                              Global Defined In Module
      -----  --------------------------------   ------------------------
     00045547  A$map_33_update$73                 map_33_update
     00045548  A$map_33_update$74                 map_33_update
     00045549  A$map_33_update$75                 map_33_update
     0004554A  A$map_33_update$79                 map_33_update
     0004554A  C$map_33_update.c$20$1_1$149       map_33_update
     0004554B  A$map_33_update$80                 map_33_update
     0004554C  A$map_33_update$81                 map_33_update
     0004554F  A$map_33_update$82                 map_33_update
     00045552  A$map_33_update$83                 map_33_update
     00045553  A$map_33_update$84                 map_33_update
     00045554  A$map_33_update$88                 map_33_update
     00045554  C$map_33_update.c$21$1_1$149       map_33_update
     00045555  A$map_33_update$89                 map_33_update
     00045556  A$map_33_update$90                 map_33_update
     00045557  A$map_33_update$91                 map_33_update
     00045558  A$map_33_update$92                 map_33_update
     00045559  A$map_33_update$93                 map_33_update
     0004555C  A$map_33_update$97                 map_33_update
     0004555C  C$map_33_update.c$23$1_1$149       map_33_update
     0004555D  A$map_33_update$108                map_33_update
     0004555D  C$map_33_update.c$25$1_1$149       map_33_update
     0004555D  C$map_33_update.c$26$1_1$148       map_33_update
     0004555D  XG$Map_33_Update$0$0               map_33_update

ASxxxx Linker V03.00/V05.40 + sdld,  page 258.

Files Linked                              [ module(s) ]

C:\Program Files\GBDK\lib/gb/crt0.o       [ Runtime ]
build\obj\action.o                        [ action ]
build\obj\all_scenes.o                    [ all_scenes ]
build\obj\animation.o                     [ animation ]
build\obj\auto_clean.o                    [ auto_clean ]
build\obj\bkg_leaves_example.o            [ bkg_leaves_example ]
build\obj\bkg_MainMenu.o                  [ bkg_MainMenu ]
build\obj\broom.o                         [ broom ]
build\obj\buttons.o                       [ buttons ]
build\obj\can_move.o                      [ can_move ]
build\obj\chars.o                         [ chars ]
build\obj\char_to_tile.o                  [ char_to_tile ]
build\obj\clean_text.o                    [ clean_text ]
build\obj\collision.o                     [ collision ]
build\obj\draw.o                          [ draw ]
build\obj\entity.o                        [ entity ]
build\obj\example_npc.o                   [ example_npc ]
build\obj\extra_actors.o                  [ extra_actors ]
build\obj\gender_select-tilemap.o         [ gender_select_tilemap ]
build\obj\gender_select-tileset.o         [ gender_select_tileset ]
build\obj\gender_select.o                 [ gender_select ]
build\obj\gender_selection.o              [ gender_selection ]
build\obj\gender_select_init.o            [ gender_select_init ]
build\obj\gender_select_update.o          [ gender_select_update ]
build\obj\hUGEDriver.o                    [ hUGEDriver_obj ]
build\obj\input.o                         [ input ]
build\obj\intermitent_text.o              [ intermitent_text ]
build\obj\inventory.o                     [ inventory ]
build\obj\inventory_bkg.o                 [ inventory_bkg ]
build\obj\inventory_input.o               [ inventory_input ]
build\obj\inventory_scene.o               [ inventory_scene ]
build\obj\inventory_scene_init.o          [ inventory_scene_init ]
build\obj\inventory_scene_update.o        [ inventory_scene_update ]
build\obj\leaf.o                          [ leaf ]
build\obj\load.o                          [ load ]
build\obj\main.o                          [ main ]
build\obj\main_menu.o                     [ main_menu ]
build\obj\main_menu_init.o                [ main_menu_init ]
build\obj\main_menu_init_stats.o          [ main_menu_init_stats ]
build\obj\main_menu_input.o               [ main_menu_input ]
build\obj\main_menu_update.o              [ main_menu_update ]
build\obj\map_0-0.o                       [ map_0_0 ]
build\obj\map_0-1.o                       [ map_0_1 ]
build\obj\map_0-2.o                       [ map_0_2 ]
build\obj\map_0-3.o                       [ map_0_3 ]
build\obj\map_00.o                        [ map_00 ]
build\obj\map_00_collision.o              [ map_00_collision ]
build\obj\map_00_create.o                 [ map_00_create ]
build\obj\map_00_init.o                   [ map_00_init ]
build\obj\map_00_update.o                 [ map_00_update ]
build\obj\map_01.o                        [ map_01 ]
build\obj\map_01_collision.o              [ map_01_collision ]
build\obj\map_01_create.o                 [ map_01_create ]
build\obj\map_01_init.o                   [ map_01_init ]
build\obj\map_01_update.o                 [ map_01_update ]
build\obj\map_02.o                        [ map_02 ]
build\obj\map_02_collision.o              [ map_02_collision ]
build\obj\map_02_create.o                 [ map_02_create ]
build\obj\map_02_init.o                   [ map_02_init ]
build\obj\map_02_update.o                 [ map_02_update ]
build\obj\map_03.o                        [ map_03 ]
build\obj\map_03_collision.o              [ map_03_collision ]
build\obj\map_03_create.o                 [ map_03_create ]
build\obj\map_03_init.o                   [ map_03_init ]
build\obj\map_03_update.o                 [ map_03_update ]
build\obj\map_1-0.o                       [ map_1_0 ]
build\obj\map_1-1.o                       [ map_1_1 ]
build\obj\map_1-2.o                       [ map_1_2 ]
build\obj\map_1-3.o                       [ map_1_3 ]
build\obj\map_10.o                        [ map_10 ]
build\obj\map_10_collision.o              [ map_10_collision ]
build\obj\map_10_create.o                 [ map_10_create ]
build\obj\map_10_init.o                   [ map_10_init ]
build\obj\map_10_update.o                 [ map_10_update ]
build\obj\map_11.o                        [ map_11 ]
build\obj\map_11_collision.o              [ map_11_collision ]
build\obj\map_11_create.o                 [ map_11_create ]
build\obj\map_11_init.o                   [ map_11_init ]
build\obj\map_11_update.o                 [ map_11_update ]
build\obj\map_12.o                        [ map_12 ]
build\obj\map_12_collision.o              [ map_12_collision ]
build\obj\map_12_create.o                 [ map_12_create ]
build\obj\map_12_init.o                   [ map_12_init ]
build\obj\map_12_update.o                 [ map_12_update ]
build\obj\map_13.o                        [ map_13 ]
build\obj\map_13_collision.o              [ map_13_collision ]
build\obj\map_13_create.o                 [ map_13_create ]
build\obj\map_13_init.o                   [ map_13_init ]
build\obj\map_13_update.o                 [ map_13_update ]
build\obj\map_2-0.o                       [ map_2_0 ]
build\obj\map_2-1.o                       [ map_2_1 ]
build\obj\map_2-2.o                       [ map_2_2 ]
build\obj\map_2-3.o                       [ map_2_3 ]
build\obj\map_20.o                        [ map_20 ]
build\obj\map_20_collision.o              [ map_20_collision ]
build\obj\map_20_create.o                 [ map_20_create ]
build\obj\map_20_init.o                   [ map_20_init ]
build\obj\map_20_update.o                 [ map_20_update ]
build\obj\map_21.o                        [ map_21 ]
build\obj\map_21_collision.o              [ map_21_collision ]
build\obj\map_21_create.o                 [ map_21_create ]
build\obj\map_21_init.o                   [ map_21_init ]
build\obj\map_21_update.o                 [ map_21_update ]
build\obj\map_22.o                        [ map_22 ]
build\obj\map_22_collision.o              [ map_22_collision ]
build\obj\map_22_create.o                 [ map_22_create ]
build\obj\map_22_destroy.o                [ map_22_destroy ]
build\obj\map_22_dialogues.o              [ map_22_dialogues ]
build\obj\map_22_init.o                   [ map_22_init ]
build\obj\map_22_init_npc.o               [ map_22_init_npc ]
build\obj\map_22_input.o                  [ map_22_input ]
build\obj\map_22_update.o                 [ map_22_update ]
build\obj\map_23.o                        [ map_23 ]
build\obj\map_23_collision.o              [ map_23_collision ]
build\obj\map_23_create.o                 [ map_23_create ]
build\obj\map_23_init.o                   [ map_23_init ]
build\obj\map_23_update.o                 [ map_23_update ]
build\obj\map_3-0.o                       [ map_3_0 ]
build\obj\map_3-1.o                       [ map_3_1 ]
build\obj\map_3-2.o                       [ map_3_2 ]
build\obj\map_3-3.o                       [ map_3_3 ]
build\obj\map_30.o                        [ map_30 ]
build\obj\map_30_collision.o              [ map_30_collision ]
build\obj\map_30_create.o                 [ map_30_create ]
build\obj\map_30_init.o                   [ map_30_init ]
build\obj\map_30_update.o                 [ map_30_update ]
build\obj\map_31.o                        [ map_31 ]
build\obj\map_31_collision.o              [ map_31_collision ]
build\obj\map_31_create.o                 [ map_31_create ]
build\obj\map_31_init.o                   [ map_31_init ]
build\obj\map_31_update.o                 [ map_31_update ]
build\obj\map_32.o                        [ map_32 ]
build\obj\map_32_collision.o              [ map_32_collision ]
build\obj\map_32_create.o                 [ map_32_create ]
build\obj\map_32_init.o                   [ map_32_init ]
build\obj\map_32_update.o                 [ map_32_update ]
build\obj\map_33.o                        [ map_33 ]
build\obj\map_33_collision.o              [ map_33_collision ]
build\obj\map_33_create.o                 [ map_33_create ]
build\obj\map_33_init.o                   [ map_33_init ]
build\obj\map_33_update.o                 [ map_33_update ]
build\obj\map_collision.o                 [ map_collision ]
build\obj\map_data.o                      [ map_data ]
build\obj\map_example.o                   [ map_example ]
build\obj\map_player_movement.o           [ map_player_movement ]
build\obj\map_scenes.o                    [ map_scenes ]
build\obj\martin_npc_0.o                  [ martin_npc_0 ]
build\obj\martin_npc_1.o                  [ martin_npc_1 ]
build\obj\martin_npc_2.o                  [ martin_npc_2 ]
build\obj\mg_instruction_set.o            [ mg_instruction_set ]
build\obj\mg_leaves.o                     [ mg_leaves ]
build\obj\mg_leaves_init.o                [ mg_leaves_init ]
build\obj\mg_leaves_load_bkg.o            [ mg_leaves_load_bkg ]
build\obj\mg_leaves_player_init.o         [ mg_leaves_player_init ]
build\obj\mg_leaves_update.o              [ mg_leaves_update ]
build\obj\mg_load_screen.o                [ mg_load_screen ]
build\obj\mg_mission_complete.o           [ mg_mission_complete ]
build\obj\mg_player_movement.o            [ mg_player_movement ]
build\obj\mg_timer.o                      [ mg_timer ]
build\obj\minigames.o                     [ minigames ]
build\obj\mini_games.o                    [ mini_games ]
build\obj\money.o                         [ money ]
build\obj\name.o                          [ name ]
build\obj\npcs.o                          [ npcs ]
build\obj\npc_icons.o                     [ npc_icons ]
build\obj\npc_lines.o                     [ npc_lines ]
build\obj\numbers.o                       [ numbers ]
build\obj\player.o                        [ player ]
build\obj\position.o                      [ position ]
build\obj\random.o                        [ random ]
build\obj\render.o                        [ render ]
build\obj\scene.o                         [ scene ]
build\obj\scene_manager.o                 [ scene_manager ]
build\obj\speed.o                         [ speed ]
build\obj\spr_acorn.o                     [ spr_acorn ]
build\obj\spr_Branch.o                    [ spr_Branch ]
build\obj\spr_garbage.o                   [ spr_garbage ]
build\obj\spr_InventoryArrow_idle.o       [ spr_InventoryArrow_idle ]
build\obj\spr_leaf_a.o                    [ spr_leaf_a ]
build\obj\spr_leaf_b.o                    [ spr_leaf_b ]
build\obj\spr_Martin_down0.o              [ spr_Martin_down0 ]
build\obj\spr_Player_down0.o              [ spr_Player_down0 ]
build\obj\spr_Player_down1.o              [ spr_Player_down1 ]
build\obj\spr_Player_down2.o              [ spr_Player_down2 ]
build\obj\spr_Player_up0.o                [ spr_Player_up0 ]
build\obj\spr_Player_up1.o                [ spr_Player_up1 ]
build\obj\spr_Player_up2.o                [ spr_Player_up2 ]
build\obj\story.o                         [ story ]
build\obj\story_init.o                    [ story_init ]
build\obj\story_update.o                  [ story_update ]
build\obj\template-tileset.o              [ template_tileset ]
build\obj\test_song.o                     [ test_song ]
build\obj\text_frame.o                    [ text_frame ]
build\obj\text_frame_init.o               [ text_frame_init ]


Libraries Linked                          [ object file ]

C:\Program Files\GBDK\lib/sm83/sm83.lib   [ free.o ]
C:\Program Files\GBDK\lib/gb/gb.lib       [ sfr.o ]
C:\Program Files\GBDK\lib/sm83/sm83.lib   [ div.o ]
C:\Program Files\GBDK\lib/sm83/sm83.lib   [ malloc.o ]
C:\Program Files\GBDK\lib/gb/gb.lib       [ set_data.o ]
C:\Program Files\GBDK\lib/gb/gb.lib       [ set_tile.o ]
C:\Program Files\GBDK\lib/sm83/sm83.lib   [ mul.o ]
C:\Program Files\GBDK\lib/gb/gb.lib       [ pad.o ]
C:\Program Files\GBDK\lib/sm83/sm83.lib   [ __sdcc_call_hl.o ]
C:\Program Files\GBDK\lib/sm83/sm83.lib   [ memcpy.o ]
C:\Program Files\GBDK\lib/gb/gb.lib       [ heap.o ]
C:\Program Files\GBDK\lib/gb/gb.lib       [ set_bk_t.o ]
C:\Program Files\GBDK\lib/gb/gb.lib       [ set_xy_t.o ]

ASxxxx Linker V03.00/V05.40 + sdld,  page 259.

User Base Address Definitions

_DATA=0xC0A0
_CODE=0x0200
_HRAM=0xFF80
ASxxxx Linker V03.00/V05.40 + sdld,  page 260.

User Global Definitions

_shadow_OAM=0xC000
.STACK=0xE000

