ASxxxx Linker V03.00/V05.40 + sdld,  page 1.
Hexadecimal  [32-Bits]

Area                                    Addr        Size        Decimal Bytes (Attributes)
--------------------------------        ----        ----        ------- ----- ------------
.  .ABS.                            00000000    00000000 =           0. bytes (ABS,CON)

      Value  Global                              Global Defined In Module
      -----  --------------------------------   ------------------------
     00000000  .__.ABS.                           SetTileMap
     00000000  _rMBC7_SRAM_ENABLE_1               
     00000000  _rRAMG                             
     00000000  l__BASE                         
     00000000  l__BSS                          
     00000000  l__CABS                         
     00000000  l__CODE_0                       
     00000000  l__DABS                         
     00000000  l__HEADER                       
     00000000  l__LIT                          
     00000000  s__CABS                         
     00000000  s__DABS                         
     00000000  s__HEADER                       
     00000000  s__HEADER0                      
     00000000  s__HEADER1                      
     00000000  s__HEADER10                     
     00000000  s__HEADER11                     
     00000000  s__HEADER2                      
     00000000  s__HEADER3                      
     00000000  s__HEADER4                      
     00000000  s__HEADER5                      
     00000000  s__HEADER6                      
     00000000  s__HEADER7                      
     00000000  s__HEADER8                      
     00000000  s__HEADER9                      
     00000000  s__HEADERa                      
     00000000  s__HEADERb                      
     00000000  s__HEADERc                      
     00000000  s__HEADERd                      
     00000000  s__HEADERe                      
     00000000  s__HEADERf                      
     00000001  l__GSFINAL                      
     00000001  l__HEADER0                      
     00000001  l__HEADER5                      
     00000001  l__HEADERa                      
     00000001  l__HEADERb                      
     00000001  l__HEADERc                      
     00000001  l__HEADERe                      
     00000001  l__HEADERf                      
     00000001  l__HEAP_END                     
     00000002  l__HEADER10                     
     00000002  l__HEADER6                      
     00000002  l__HEADERd                      
     00000003  l__HEADER9                      
     00000005  l__HEADER1                      
     00000006  l__HEADER8                      
     00000007  l__HEADER2                      
     00000008  l__HEADER3                      
     0000000F  l__GSINIT                       
     00000013  l__HRAM                         
ASxxxx Linker V03.00/V05.40 + sdld,  page 2.
Hexadecimal  [32-Bits]

Area                                    Addr        Size        Decimal Bytes (Attributes)
--------------------------------        ----        ----        ------- ----- ------------
.  .ABS.                            00000000    00000000 =           0. bytes (ABS,CON)

      Value  Global                              Global Defined In Module
      -----  --------------------------------   ------------------------
     00000030  l__HEADER7                      
     00000060  l__HEADER4                      
     000000AB  l__HEADER11                     
     0000012C  l__HOME                         
     00000188  l__INITIALIZED                  
     00000188  l__INITIALIZER                  
     00000200  s__CODE                         
     000007FF  l__HEAP                         
     000015FF  l__CODE                         
     000017FF  s__HOME                         
     0000192B  s__BASE                         
     0000192B  s__CODE_0                       
     0000192B  s__INITIALIZER                  
     0000192B  s__LIT                          
     00001AB3  s__GSINIT                       
     00001AC2  s__GSFINAL                      
     00001D2F  l__DATA                         
     00002000  _rROMB0                            
     00003000  _rROMB1                            
     00004000  _rMBC7_SRAM_ENABLE_2               
     00004000  _rRAMB                             
     00008000  __VRAM                             
     00008000  __VRAM8000                         
     00008800  __VRAM8800                         
     00009000  __VRAM9000                         
     00009800  __SCRN0                            
     00009C00  __SCRN1                            
     0000A000  __SRAM                             
     0000A000  _rMBC7_LATCH_1                     
     0000A010  _rMBC7_LATCH_2                     
     0000A020  _rMBC7_ACCEL_X_LO                  
     0000A030  _rMBC7_ACCEL_X_HI                  
     0000A040  _rMBC7_ACCEL_Y_LO                  
     0000A050  _rMBC7_ACCEL_Y_HI                  
     0000C000  __RAM                              
     0000C000  _shadow_OAM                     
     0000C0A0  s__DATA                         
     0000D000  __RAMBANK                          
     0000DDCF  s__BSS                          
     0000DDCF  s__INITIALIZED                  
     0000DF57  s__HEAP                         
     0000E000  .STACK                          
     0000E756  s__HEAP_END                     
     0000FE00  __OAMRAM                           
     0000FF00  _P1_REG                            
     0000FF00  __IO                               
     0000FF01  _SB_REG                            
     0000FF02  _SC_REG                            
     0000FF04  _DIV_REG                           
     0000FF05  _TIMA_REG                          
     0000FF06  _TMA_REG                           
ASxxxx Linker V03.00/V05.40 + sdld,  page 3.
Hexadecimal  [32-Bits]

Area                                    Addr        Size        Decimal Bytes (Attributes)
--------------------------------        ----        ----        ------- ----- ------------
.  .ABS.                            00000000    00000000 =           0. bytes (ABS,CON)

      Value  Global                              Global Defined In Module
      -----  --------------------------------   ------------------------
     0000FF07  _TAC_REG                           
     0000FF0F  _IF_REG                            
     0000FF10  _NR10_REG                          
     0000FF11  _NR11_REG                          
     0000FF12  _NR12_REG                          
     0000FF13  _NR13_REG                          
     0000FF14  _NR14_REG                          
     0000FF16  _NR21_REG                          
     0000FF17  _NR22_REG                          
     0000FF18  _NR23_REG                          
     0000FF19  _NR24_REG                          
     0000FF1A  _NR30_REG                          
     0000FF1B  _NR31_REG                          
     0000FF1C  _NR32_REG                          
     0000FF1D  _NR33_REG                          
     0000FF1E  _NR34_REG                          
     0000FF20  _NR41_REG                          
     0000FF21  _NR42_REG                          
     0000FF22  _NR43_REG                          
     0000FF23  _NR44_REG                          
     0000FF24  _NR50_REG                          
     0000FF25  _NR51_REG                          
     0000FF26  _NR52_REG                          
     0000FF30  _AUD3WAVE                          
     0000FF30  _PCM_SAMPLE                        
     0000FF30  __AUD3WAVERAM                      
     0000FF40  _LCDC_REG                          
     0000FF41  _STAT_REG                          
     0000FF42  _SCY_REG                           
     0000FF43  _SCX_REG                           
     0000FF44  _LY_REG                            
     0000FF45  _LYC_REG                           
     0000FF46  _DMA_REG                           
     0000FF47  _BGP_REG                           
     0000FF48  _OBP0_REG                          
     0000FF49  _OBP1_REG                          
     0000FF4A  _WY_REG                            
     0000FF4B  _WX_REG                            
     0000FF4D  _KEY1_REG                          
     0000FF4F  _VBK_REG                           
     0000FF51  _HDMA1_REG                         
     0000FF52  _HDMA2_REG                         
     0000FF53  _HDMA3_REG                         
     0000FF54  _HDMA4_REG                         
     0000FF55  _HDMA5_REG                         
     0000FF56  _RP_REG                            
     0000FF68  _BCPS_REG                          
     0000FF69  _BCPD_REG                          
     0000FF6A  _OCPS_REG                          
     0000FF6B  _OCPD_REG                          
     0000FF70  _SVBK_REG                          
ASxxxx Linker V03.00/V05.40 + sdld,  page 4.
Hexadecimal  [32-Bits]

Area                                    Addr        Size        Decimal Bytes (Attributes)
--------------------------------        ----        ----        ------- ----- ------------
.  .ABS.                            00000000    00000000 =           0. bytes (ABS,CON)

      Value  Global                              Global Defined In Module
      -----  --------------------------------   ------------------------
     0000FF76  _PCM12_REG                         
     0000FF77  _PCM34_REG                         
     0000FF80  __HRAM                             
     0000FF80  s__HRAM                         
     0000FFFF  _IE_REG                            

ASxxxx Linker V03.00/V05.40 + sdld,  page 5.
Hexadecimal  [32-Bits]

Area                                    Addr        Size        Decimal Bytes (Attributes)
--------------------------------        ----        ----        ------- ----- ------------
_CODE                               00000200    000015FF =        5631. bytes (REL,CON)

      Value  Global                              Global Defined In Module
      -----  --------------------------------   ------------------------
     00000200  G$gender_select_tilemap$0_0$0      gender_select_tilemap
     00000200  _gender_select_tilemap             gender_select_tilemap
     00000368  G$gender_select_tileset$0_0$0      gender_select_tileset
     00000368  _gender_select_tileset             gender_select_tileset
     00000658  G$template_tilemap$0_0$0           template_tilemap
     00000658  _template_tilemap                  template_tilemap
     000007C0  G$template_tileset$0_0$0           template_tileset
     000007C0  _template_tileset                  template_tileset
     00000990  A$lcc2201210$70                    action
     00000990  C$action.c$9$0_0$141               action
     00000990  G$move_up$0$0                      action
     00000990  _move_up                           action
     00000992  A$lcc2201210$71                    action
     00000994  A$lcc2201210$72                    action
     00000995  A$lcc2201210$73                    action
     00000996  A$lcc2201210$77                    action
     00000996  C$action.c$11$1_0$141              action
     00000997  A$lcc2201210$78                    action
     00000998  A$lcc2201210$79                    action
     00000999  A$lcc2201210$80                    action
     0000099A  A$lcc2201210$81                    action
     0000099B  A$lcc2201210$82                    action
     0000099D  A$lcc2201210$83                    action
     0000099E  A$lcc2201210$84                    action
     000009A1  A$lcc2201210$85                    action
     000009A2  A$lcc2201210$86                    action
     000009A3  A$lcc2201210$87                    action
     000009A4  A$lcc2201210$88                    action
     000009A5  A$lcc2201210$89                    action
     000009A8  A$lcc2201210$90                    action
     000009A9  A$lcc2201210$91                    action
     000009AA  A$lcc2201210$92                    action
     000009AB  A$lcc2201210$93                    action
     000009AC  A$lcc2201210$94                    action
     000009AD  A$lcc2201210$95                    action
     000009AE  A$lcc2201210$96                    action
     000009AF  A$lcc2201210$97                    action
     000009B0  A$lcc2201210$98                    action
     000009B1  A$lcc2201210$99                    action
     000009B3  A$lcc2201210$100                   action
     000009B4  A$lcc2201210$101                   action
     000009B5  A$lcc2201210$102                   action
     000009B6  A$lcc2201210$103                   action
     000009B7  A$lcc2201210$104                   action
     000009B8  A$lcc2201210$105                   action
     000009B9  A$lcc2201210$106                   action
     000009BA  A$lcc2201210$107                   action
     000009BB  A$lcc2201210$108                   action
     000009BC  A$lcc2201210$109                   action
     000009BD  A$lcc2201210$113                   action
ASxxxx Linker V03.00/V05.40 + sdld,  page 6.
Hexadecimal  [32-Bits]

Area                                    Addr        Size        Decimal Bytes (Attributes)
--------------------------------        ----        ----        ------- ----- ------------
_CODE                               00000200    000015FF =        5631. bytes (REL,CON)

      Value  Global                              Global Defined In Module
      -----  --------------------------------   ------------------------
     000009BD  C$action.c$12$1_0$141              action
     000009C0  A$lcc2201210$114                   action
     000009C2  A$lcc2201210$115                   action
     000009C3  A$lcc2201210$116                   action
     000009C4  A$lcc2201210$117                   action
     000009C5  A$lcc2201210$118                   action
     000009C6  A$lcc2201210$119                   action
     000009C7  A$lcc2201210$120                   action
     000009C8  A$lcc2201210$121                   action
     000009C9  A$lcc2201210$122                   action
     000009CA  A$lcc2201210$126                   action
     000009CC  A$lcc2201210$131                   action
     000009CC  C$action.c$13$1_0$141              action
     000009CC  XG$move_up$0$0                     action
     000009CD  A$lcc2201210$141                   action
     000009CD  C$action.c$15$1_0$143              action
     000009CD  G$move_down$0$0                    action
     000009CD  _move_down                         action
     000009CF  A$lcc2201210$142                   action
     000009D1  A$lcc2201210$143                   action
     000009D2  A$lcc2201210$144                   action
     000009D3  A$lcc2201210$148                   action
     000009D3  C$action.c$17$1_0$143              action
     000009D4  A$lcc2201210$149                   action
     000009D5  A$lcc2201210$150                   action
     000009D6  A$lcc2201210$151                   action
     000009D7  A$lcc2201210$152                   action
     000009D8  A$lcc2201210$153                   action
     000009DA  A$lcc2201210$154                   action
     000009DC  A$lcc2201210$155                   action
     000009DD  A$lcc2201210$156                   action
     000009DE  A$lcc2201210$157                   action
     000009E0  A$lcc2201210$158                   action
     000009E1  A$lcc2201210$159                   action
     000009E4  A$lcc2201210$160                   action
     000009E6  A$lcc2201210$161                   action
     000009E7  A$lcc2201210$162                   action
     000009E8  A$lcc2201210$163                   action
     000009E9  A$lcc2201210$164                   action
     000009EA  A$lcc2201210$165                   action
     000009EB  A$lcc2201210$166                   action
     000009EC  A$lcc2201210$167                   action
     000009ED  A$lcc2201210$168                   action
     000009EF  A$lcc2201210$169                   action
     000009F0  A$lcc2201210$170                   action
     000009F1  A$lcc2201210$171                   action
     000009F3  A$lcc2201210$172                   action
     000009F4  A$lcc2201210$173                   action
     000009F5  A$lcc2201210$174                   action
     000009F6  A$lcc2201210$175                   action
     000009F7  A$lcc2201210$176                   action
ASxxxx Linker V03.00/V05.40 + sdld,  page 7.
Hexadecimal  [32-Bits]

Area                                    Addr        Size        Decimal Bytes (Attributes)
--------------------------------        ----        ----        ------- ----- ------------
_CODE                               00000200    000015FF =        5631. bytes (REL,CON)

      Value  Global                              Global Defined In Module
      -----  --------------------------------   ------------------------
     000009F8  A$lcc2201210$177                   action
     000009F9  A$lcc2201210$178                   action
     000009FA  A$lcc2201210$179                   action
     000009FB  A$lcc2201210$180                   action
     000009FC  A$lcc2201210$181                   action
     000009FD  A$lcc2201210$185                   action
     000009FD  C$action.c$18$1_0$143              action
     00000A00  A$lcc2201210$186                   action
     00000A02  A$lcc2201210$187                   action
     00000A03  A$lcc2201210$188                   action
     00000A04  A$lcc2201210$189                   action
     00000A05  A$lcc2201210$190                   action
     00000A06  A$lcc2201210$191                   action
     00000A07  A$lcc2201210$192                   action
     00000A08  A$lcc2201210$193                   action
     00000A09  A$lcc2201210$194                   action
     00000A0A  A$lcc2201210$198                   action
     00000A0C  A$lcc2201210$203                   action
     00000A0C  C$action.c$19$1_0$143              action
     00000A0C  XG$move_down$0$0                   action
     00000A0D  A$lcc2201210$213                   action
     00000A0D  C$action.c$21$1_0$145              action
     00000A0D  G$move_left$0$0                    action
     00000A0D  _move_left                         action
     00000A0F  A$lcc2201210$214                   action
     00000A11  A$lcc2201210$215                   action
     00000A12  A$lcc2201210$216                   action
     00000A13  A$lcc2201210$220                   action
     00000A13  C$action.c$23$1_0$145              action
     00000A14  A$lcc2201210$221                   action
     00000A15  A$lcc2201210$222                   action
     00000A16  A$lcc2201210$223                   action
     00000A17  A$lcc2201210$224                   action
     00000A18  A$lcc2201210$225                   action
     00000A1A  A$lcc2201210$226                   action
     00000A1B  A$lcc2201210$227                   action
     00000A1E  A$lcc2201210$228                   action
     00000A1F  A$lcc2201210$229                   action
     00000A20  A$lcc2201210$230                   action
     00000A21  A$lcc2201210$231                   action
     00000A22  A$lcc2201210$232                   action
     00000A25  A$lcc2201210$233                   action
     00000A26  A$lcc2201210$234                   action
     00000A27  A$lcc2201210$235                   action
     00000A28  A$lcc2201210$236                   action
     00000A29  A$lcc2201210$237                   action
     00000A2A  A$lcc2201210$238                   action
     00000A2B  A$lcc2201210$239                   action
     00000A2C  A$lcc2201210$240                   action
     00000A2D  A$lcc2201210$241                   action
     00000A2E  A$lcc2201210$242                   action
ASxxxx Linker V03.00/V05.40 + sdld,  page 8.
Hexadecimal  [32-Bits]

Area                                    Addr        Size        Decimal Bytes (Attributes)
--------------------------------        ----        ----        ------- ----- ------------
_CODE                               00000200    000015FF =        5631. bytes (REL,CON)

      Value  Global                              Global Defined In Module
      -----  --------------------------------   ------------------------
     00000A30  A$lcc2201210$243                   action
     00000A31  A$lcc2201210$244                   action
     00000A32  A$lcc2201210$245                   action
     00000A33  A$lcc2201210$246                   action
     00000A34  A$lcc2201210$247                   action
     00000A35  A$lcc2201210$248                   action
     00000A36  A$lcc2201210$249                   action
     00000A37  A$lcc2201210$250                   action
     00000A38  A$lcc2201210$251                   action
     00000A39  A$lcc2201210$252                   action
     00000A3A  A$lcc2201210$256                   action
     00000A3A  C$action.c$24$1_0$145              action
     00000A3D  A$lcc2201210$257                   action
     00000A3F  A$lcc2201210$258                   action
     00000A40  A$lcc2201210$259                   action
     00000A41  A$lcc2201210$260                   action
     00000A42  A$lcc2201210$261                   action
     00000A43  A$lcc2201210$262                   action
     00000A44  A$lcc2201210$263                   action
     00000A45  A$lcc2201210$264                   action
     00000A46  A$lcc2201210$265                   action
     00000A47  A$lcc2201210$269                   action
     00000A49  A$lcc2201210$274                   action
     00000A49  C$action.c$25$1_0$145              action
     00000A49  XG$move_left$0$0                   action
     00000A4A  A$lcc2201210$284                   action
     00000A4A  C$action.c$27$1_0$147              action
     00000A4A  G$move_right$0$0                   action
     00000A4A  _move_right                        action
     00000A4C  A$lcc2201210$285                   action
     00000A4E  A$lcc2201210$286                   action
     00000A4F  A$lcc2201210$287                   action
     00000A50  A$lcc2201210$291                   action
     00000A50  C$action.c$29$1_0$147              action
     00000A51  A$lcc2201210$292                   action
     00000A52  A$lcc2201210$293                   action
     00000A53  A$lcc2201210$294                   action
     00000A54  A$lcc2201210$295                   action
     00000A55  A$lcc2201210$296                   action
     00000A57  A$lcc2201210$297                   action
     00000A58  A$lcc2201210$298                   action
     00000A5B  A$lcc2201210$299                   action
     00000A5C  A$lcc2201210$300                   action
     00000A5D  A$lcc2201210$301                   action
     00000A5E  A$lcc2201210$302                   action
     00000A5F  A$lcc2201210$303                   action
     00000A62  A$lcc2201210$304                   action
     00000A63  A$lcc2201210$305                   action
     00000A64  A$lcc2201210$306                   action
     00000A65  A$lcc2201210$307                   action
     00000A66  A$lcc2201210$308                   action
ASxxxx Linker V03.00/V05.40 + sdld,  page 9.
Hexadecimal  [32-Bits]

Area                                    Addr        Size        Decimal Bytes (Attributes)
--------------------------------        ----        ----        ------- ----- ------------
_CODE                               00000200    000015FF =        5631. bytes (REL,CON)

      Value  Global                              Global Defined In Module
      -----  --------------------------------   ------------------------
     00000A67  A$lcc2201210$309                   action
     00000A68  A$lcc2201210$310                   action
     00000A69  A$lcc2201210$311                   action
     00000A6A  A$lcc2201210$312                   action
     00000A6C  A$lcc2201210$313                   action
     00000A6D  A$lcc2201210$314                   action
     00000A6E  A$lcc2201210$315                   action
     00000A6F  A$lcc2201210$316                   action
     00000A70  A$lcc2201210$317                   action
     00000A71  A$lcc2201210$318                   action
     00000A72  A$lcc2201210$319                   action
     00000A73  A$lcc2201210$320                   action
     00000A74  A$lcc2201210$324                   action
     00000A74  C$action.c$30$1_0$147              action
     00000A77  A$lcc2201210$325                   action
     00000A79  A$lcc2201210$326                   action
     00000A7A  A$lcc2201210$327                   action
     00000A7B  A$lcc2201210$328                   action
     00000A7C  A$lcc2201210$329                   action
     00000A7D  A$lcc2201210$330                   action
     00000A7E  A$lcc2201210$331                   action
     00000A7F  A$lcc2201210$332                   action
     00000A80  A$lcc2201210$333                   action
     00000A81  A$lcc2201210$337                   action
     00000A83  A$lcc2201210$342                   action
     00000A83  C$action.c$31$1_0$147              action
     00000A83  XG$move_right$0$0                  action
     00000A84  A$lcc2201210$352                   action
     00000A84  C$action.c$33$1_0$149              action
     00000A84  G$check_input$0$0                  action
     00000A84  _check_input                       action
     00000A86  A$lcc2201210$356                   action
     00000A86  C$action.c$35$1_0$149              action
     00000A89  A$lcc2201210$360                   action
     00000A89  C$action.c$40$2_0$149              action
     00000A8A  A$lcc2201210$361                   action
     00000A8C  A$lcc2201210$362                   action
     00000A8D  A$lcc2201210$366                   action
     00000A8D  C$action.c$42$2_0$149              action
     00000A8E  A$lcc2201210$367                   action
     00000A90  A$lcc2201210$368                   action
     00000A92  A$lcc2201210$369                   action
     00000A93  A$lcc2201210$373                   action
     00000A93  C$action.c$44$2_0$149              action
     00000A94  A$lcc2201210$374                   action
     00000A96  A$lcc2201210$375                   action
     00000A98  A$lcc2201210$379                   action
     00000A98  C$action.c$46$2_0$149              action
     00000A99  A$lcc2201210$380                   action
     00000A9A  A$lcc2201210$381                   action
     00000A9C  A$lcc2201210$382                   action
ASxxxx Linker V03.00/V05.40 + sdld,  page 10.
Hexadecimal  [32-Bits]

Area                                    Addr        Size        Decimal Bytes (Attributes)
--------------------------------        ----        ----        ------- ----- ------------
_CODE                               00000200    000015FF =        5631. bytes (REL,CON)

      Value  Global                              Global Defined In Module
      -----  --------------------------------   ------------------------
     00000A9D  A$lcc2201210$386                   action
     00000A9D  C$action.c$38$2_0$150              action
     00000AA0  A$lcc2201210$387                   action
     00000AA1  A$lcc2201210$391                   action
     00000AA1  C$action.c$40$4_0$152              action
     00000AA2  A$lcc2201210$392                   action
     00000AA4  A$lcc2201210$393                   action
     00000AA5  A$lcc2201210$394                   action
     00000AA7  A$lcc2201210$398                   action
     00000AA7  C$action.c$41$4_0$152              action
     00000AA9  A$lcc2201210$399                   action
     00000AAB  A$lcc2201210$404                   action
     00000AAB  C$action.c$42$5_0$153              action
     00000AAD  A$lcc2201210$405                   action
     00000AAE  A$lcc2201210$406                   action
     00000AAF  A$lcc2201210$407                   action
     00000AB1  A$lcc2201210$411                   action
     00000AB1  C$action.c$43$5_0$153              action
     00000AB4  A$lcc2201210$412                   action
     00000AB6  A$lcc2201210$413                   action
     00000AB8  A$lcc2201210$418                   action
     00000AB8  C$action.c$44$6_0$154              action
     00000ABA  A$lcc2201210$419                   action
     00000ABB  A$lcc2201210$420                   action
     00000ABC  A$lcc2201210$421                   action
     00000ABE  A$lcc2201210$425                   action
     00000ABE  C$action.c$45$6_0$154              action
     00000AC1  A$lcc2201210$426                   action
     00000AC3  A$lcc2201210$427                   action
     00000AC5  A$lcc2201210$432                   action
     00000AC5  C$action.c$46$7_0$155              action
     00000AC7  A$lcc2201210$433                   action
     00000AC8  A$lcc2201210$434                   action
     00000AC9  A$lcc2201210$435                   action
     00000ACB  A$lcc2201210$439                   action
     00000ACB  C$action.c$47$7_0$155              action
     00000ACE  A$lcc2201210$440                   action
     00000AD0  A$lcc2201210$445                   action
     00000AD0  C$action.c$51$2_0$156              action
     00000AD3  A$lcc2201210$446                   action
     00000AD4  A$lcc2201210$447                   action
     00000AD6  A$lcc2201210$448                   action
     00000AD9  A$lcc2201210$449                   action
     00000ADB  A$lcc2201210$450                   action
     00000ADD  A$lcc2201210$451                   action
     00000ADF  A$lcc2201210$452                   action
     00000AE1  A$lcc2201210$453                   action
     00000AE3  A$lcc2201210$454                   action
     00000AE5  A$lcc2201210$455                   action
     00000AE8  A$lcc2201210$463                   action
     00000AE8  C$action.c$53$3_0$157              action
ASxxxx Linker V03.00/V05.40 + sdld,  page 11.
Hexadecimal  [32-Bits]

Area                                    Addr        Size        Decimal Bytes (Attributes)
--------------------------------        ----        ----        ------- ----- ------------
_CODE                               00000200    000015FF =        5631. bytes (REL,CON)

      Value  Global                              Global Defined In Module
      -----  --------------------------------   ------------------------
     00000AE8  C$action.c$54$3_0$157              action
     00000AE9  A$lcc2201210$464                   action
     00000AEC  A$lcc2201210$465                   action
     00000AED  A$lcc2201210$466                   action
     00000AF0  A$lcc2201210$467                   action
     00000AF1  A$lcc2201210$468                   action
     00000AF4  A$lcc2201210$469                   action
     00000AF5  A$lcc2201210$473                   action
     00000AF5  C$action.c$55$3_0$157              action
     00000AF8  A$lcc2201210$474                   action
     00000AF9  A$lcc2201210$475                   action
     00000AFC  A$lcc2201210$476                   action
     00000AFD  A$lcc2201210$477                   action
     00000AFE  A$lcc2201210$478                   action
     00000AFF  A$lcc2201210$479                   action
     00000B00  A$lcc2201210$480                   action
     00000B01  A$lcc2201210$481                   action
     00000B02  A$lcc2201210$482                   action
     00000B03  A$lcc2201210$483                   action
     00000B04  A$lcc2201210$484                   action
     00000B05  A$lcc2201210$485                   action
     00000B06  A$lcc2201210$486                   action
     00000B07  A$lcc2201210$487                   action
     00000B08  A$lcc2201210$488                   action
     00000B09  A$lcc2201210$489                   action
     00000B0A  A$lcc2201210$490                   action
     00000B0B  A$lcc2201210$491                   action
     00000B0E  A$lcc2201210$492                   action
     00000B0F  A$lcc2201210$493                   action
     00000B10  A$lcc2201210$494                   action
     00000B11  A$lcc2201210$495                   action
     00000B12  A$lcc2201210$496                   action
     00000B13  A$lcc2201210$497                   action
     00000B14  A$lcc2201210$498                   action
     00000B15  A$lcc2201210$499                   action
     00000B18  A$lcc2201210$500                   action
     00000B19  A$lcc2201210$504                   action
     00000B19  C$action.c$56$3_0$157              action
     00000B1B  A$lcc2201210$512                   action
     00000B1B  C$action.c$57$3_0$157              action
     00000B1B  C$action.c$58$3_0$157              action
     00000B1C  A$lcc2201210$513                   action
     00000B1F  A$lcc2201210$514                   action
     00000B20  A$lcc2201210$515                   action
     00000B23  A$lcc2201210$516                   action
     00000B24  A$lcc2201210$517                   action
     00000B27  A$lcc2201210$518                   action
     00000B28  A$lcc2201210$522                   action
     00000B28  C$action.c$59$3_0$157              action
     00000B2B  A$lcc2201210$523                   action
     00000B2C  A$lcc2201210$524                   action
ASxxxx Linker V03.00/V05.40 + sdld,  page 12.
Hexadecimal  [32-Bits]

Area                                    Addr        Size        Decimal Bytes (Attributes)
--------------------------------        ----        ----        ------- ----- ------------
_CODE                               00000200    000015FF =        5631. bytes (REL,CON)

      Value  Global                              Global Defined In Module
      -----  --------------------------------   ------------------------
     00000B2F  A$lcc2201210$525                   action
     00000B30  A$lcc2201210$526                   action
     00000B31  A$lcc2201210$527                   action
     00000B32  A$lcc2201210$528                   action
     00000B33  A$lcc2201210$529                   action
     00000B34  A$lcc2201210$530                   action
     00000B35  A$lcc2201210$531                   action
     00000B36  A$lcc2201210$532                   action
     00000B37  A$lcc2201210$533                   action
     00000B38  A$lcc2201210$534                   action
     00000B39  A$lcc2201210$535                   action
     00000B3A  A$lcc2201210$536                   action
     00000B3B  A$lcc2201210$537                   action
     00000B3C  A$lcc2201210$538                   action
     00000B3D  A$lcc2201210$539                   action
     00000B3E  A$lcc2201210$540                   action
     00000B41  A$lcc2201210$541                   action
     00000B42  A$lcc2201210$542                   action
     00000B43  A$lcc2201210$543                   action
     00000B44  A$lcc2201210$544                   action
     00000B45  A$lcc2201210$545                   action
     00000B46  A$lcc2201210$546                   action
     00000B47  A$lcc2201210$547                   action
     00000B48  A$lcc2201210$548                   action
     00000B4B  A$lcc2201210$549                   action
     00000B4C  A$lcc2201210$553                   action
     00000B4C  C$action.c$60$3_0$157              action
     00000B4E  A$lcc2201210$561                   action
     00000B4E  C$action.c$61$3_0$157              action
     00000B4E  C$action.c$62$3_0$157              action
     00000B4F  A$lcc2201210$562                   action
     00000B52  A$lcc2201210$563                   action
     00000B53  A$lcc2201210$564                   action
     00000B56  A$lcc2201210$565                   action
     00000B57  A$lcc2201210$566                   action
     00000B5A  A$lcc2201210$567                   action
     00000B5B  A$lcc2201210$571                   action
     00000B5B  C$action.c$63$3_0$157              action
     00000B5D  A$lcc2201210$579                   action
     00000B5D  C$action.c$64$3_0$157              action
     00000B5D  C$action.c$65$3_0$157              action
     00000B5E  A$lcc2201210$580                   action
     00000B61  A$lcc2201210$581                   action
     00000B62  A$lcc2201210$582                   action
     00000B65  A$lcc2201210$583                   action
     00000B66  A$lcc2201210$584                   action
     00000B69  A$lcc2201210$585                   action
     00000B6A  A$lcc2201210$593                   action
     00000B6A  C$action.c$69$2_0$156              action
     00000B6A  C$action.c$72$2_0$158              action
     00000B6D  A$lcc2201210$594                   action
ASxxxx Linker V03.00/V05.40 + sdld,  page 13.
Hexadecimal  [32-Bits]

Area                                    Addr        Size        Decimal Bytes (Attributes)
--------------------------------        ----        ----        ------- ----- ------------
_CODE                               00000200    000015FF =        5631. bytes (REL,CON)

      Value  Global                              Global Defined In Module
      -----  --------------------------------   ------------------------
     00000B6E  A$lcc2201210$595                   action
     00000B70  A$lcc2201210$596                   action
     00000B71  A$lcc2201210$600                   action
     00000B71  C$action.c$73$3_0$159              action
     00000B72  A$lcc2201210$601                   action
     00000B74  A$lcc2201210$602                   action
     00000B77  A$lcc2201210$606                   action
     00000B77  C$action.c$74$3_0$159              action
     00000B7A  A$lcc2201210$607                   action
     00000B7C  A$lcc2201210$608                   action
     00000B7D  A$lcc2201210$609                   action
     00000B80  A$lcc2201210$610                   action
     00000B81  A$lcc2201210$611                   action
     00000B82  A$lcc2201210$612                   action
     00000B83  A$lcc2201210$613                   action
     00000B84  A$lcc2201210$614                   action
     00000B85  A$lcc2201210$615                   action
     00000B86  A$lcc2201210$616                   action
     00000B87  A$lcc2201210$617                   action
     00000B88  A$lcc2201210$618                   action
     00000B89  A$lcc2201210$619                   action
     00000B8A  A$lcc2201210$620                   action
     00000B8B  A$lcc2201210$621                   action
     00000B8C  A$lcc2201210$622                   action
     00000B8F  A$lcc2201210$623                   action
     00000B90  A$lcc2201210$624                   action
     00000B91  A$lcc2201210$625                   action
     00000B92  A$lcc2201210$626                   action
     00000B94  A$lcc2201210$627                   action
     00000B95  A$lcc2201210$628                   action
     00000B98  A$lcc2201210$633                   action
     00000B98  C$action.c$77$2_0$160              action
     00000B9B  A$lcc2201210$634                   action
     00000B9D  A$lcc2201210$635                   action
     00000B9F  A$lcc2201210$636                   action
     00000BA1  A$lcc2201210$637                   action
     00000BA2  A$lcc2201210$641                   action
     00000BA2  C$action.c$79$3_0$161              action
     00000BA3  A$lcc2201210$642                   action
     00000BA5  A$lcc2201210$643                   action
     00000BA8  A$lcc2201210$647                   action
     00000BA8  C$action.c$80$3_0$161              action
     00000BAB  A$lcc2201210$648                   action
     00000BAD  A$lcc2201210$649                   action
     00000BAE  A$lcc2201210$650                   action
     00000BB1  A$lcc2201210$651                   action
     00000BB2  A$lcc2201210$652                   action
     00000BB3  A$lcc2201210$653                   action
     00000BB4  A$lcc2201210$654                   action
     00000BB5  A$lcc2201210$655                   action
     00000BB6  A$lcc2201210$656                   action
ASxxxx Linker V03.00/V05.40 + sdld,  page 14.
Hexadecimal  [32-Bits]

Area                                    Addr        Size        Decimal Bytes (Attributes)
--------------------------------        ----        ----        ------- ----- ------------
_CODE                               00000200    000015FF =        5631. bytes (REL,CON)

      Value  Global                              Global Defined In Module
      -----  --------------------------------   ------------------------
     00000BB7  A$lcc2201210$657                   action
     00000BB8  A$lcc2201210$658                   action
     00000BB9  A$lcc2201210$659                   action
     00000BBA  A$lcc2201210$660                   action
     00000BBB  A$lcc2201210$661                   action
     00000BBC  A$lcc2201210$662                   action
     00000BBD  A$lcc2201210$663                   action
     00000BBE  A$lcc2201210$664                   action
     00000BBF  A$lcc2201210$665                   action
     00000BC0  A$lcc2201210$666                   action
     00000BC1  A$lcc2201210$667                   action
     00000BC2  A$lcc2201210$668                   action
     00000BC5  A$lcc2201210$669                   action
     00000BC6  A$lcc2201210$670                   action
     00000BC7  A$lcc2201210$671                   action
     00000BC8  A$lcc2201210$672                   action
     00000BCA  A$lcc2201210$673                   action
     00000BCB  A$lcc2201210$674                   action
     00000BCC  A$lcc2201210$675                   action
     00000BCD  A$lcc2201210$676                   action
     00000BCF  A$lcc2201210$677                   action
     00000BD0  A$lcc2201210$678                   action
     00000BD1  A$lcc2201210$679                   action
     00000BD2  A$lcc2201210$680                   action
     00000BD3  A$lcc2201210$681                   action
     00000BD4  A$lcc2201210$682                   action
     00000BD5  A$lcc2201210$683                   action
     00000BD8  A$lcc2201210$688                   action
     00000BD8  C$action.c$83$2_0$162              action
     00000BDB  A$lcc2201210$689                   action
     00000BDD  A$lcc2201210$690                   action
     00000BDF  A$lcc2201210$691                   action
     00000BE1  A$lcc2201210$692                   action
     00000BE2  A$lcc2201210$696                   action
     00000BE2  C$action.c$84$2_0$162              action
     00000BE3  A$lcc2201210$697                   action
     00000BE5  A$lcc2201210$698                   action
     00000BE8  A$lcc2201210$703                   action
     00000BE8  C$action.c$85$2_0$163              action
     00000BEB  A$lcc2201210$704                   action
     00000BED  A$lcc2201210$705                   action
     00000BEF  A$lcc2201210$706                   action
     00000BF1  A$lcc2201210$707                   action
     00000BF2  A$lcc2201210$711                   action
     00000BF2  C$action.c$86$2_0$163              action
     00000BF3  A$lcc2201210$712                   action
     00000BF5  A$lcc2201210$713                   action
     00000BF8  A$lcc2201210$718                   action
     00000BFA  A$lcc2201210$723                   action
     00000BFA  C$action.c$87$2_0$149              action
     00000BFA  XG$check_input$0$0                 action
ASxxxx Linker V03.00/V05.40 + sdld,  page 15.
Hexadecimal  [32-Bits]

Area                                    Addr        Size        Decimal Bytes (Attributes)
--------------------------------        ----        ----        ------- ----- ------------
_CODE                               00000200    000015FF =        5631. bytes (REL,CON)

      Value  Global                              Global Defined In Module
      -----  --------------------------------   ------------------------
     00000BFB  A$lcc2201211$59                    animation
     00000BFB  C$animation.c$7$0_0$134            animation
     00000BFB  G$init_animation$0$0               animation
     00000BFB  _init_animation                    animation
     00000BFD  A$lcc2201211$60                    animation
     00000BFF  A$lcc2201211$61                    animation
     00000C00  A$lcc2201211$62                    animation
     00000C01  A$lcc2201211$63                    animation
     00000C02  A$lcc2201211$64                    animation
     00000C03  A$lcc2201211$65                    animation
     00000C04  A$lcc2201211$66                    animation
     00000C05  A$lcc2201211$70                    animation
     00000C05  C$animation.c$12$1_0$134           animation
     00000C07  A$lcc2201211$71                    animation
     00000C08  A$lcc2201211$72                    animation
     00000C09  A$lcc2201211$73                    animation
     00000C0A  A$lcc2201211$74                    animation
     00000C0B  A$lcc2201211$75                    animation
     00000C0C  A$lcc2201211$76                    animation
     00000C0D  A$lcc2201211$77                    animation
     00000C0F  A$lcc2201211$78                    animation
     00000C10  A$lcc2201211$79                    animation
     00000C11  A$lcc2201211$80                    animation
     00000C12  A$lcc2201211$81                    animation
     00000C13  A$lcc2201211$82                    animation
     00000C14  A$lcc2201211$86                    animation
     00000C14  C$animation.c$14$1_0$134           animation
     00000C15  A$lcc2201211$87                    animation
     00000C16  A$lcc2201211$88                    animation
     00000C17  A$lcc2201211$89                    animation
     00000C19  A$lcc2201211$90                    animation
     00000C1A  A$lcc2201211$91                    animation
     00000C1B  A$lcc2201211$95                    animation
     00000C1B  C$animation.c$15$1_0$134           animation
     00000C1C  A$lcc2201211$96                    animation
     00000C1D  A$lcc2201211$97                    animation
     00000C1E  A$lcc2201211$98                    animation
     00000C1F  A$lcc2201211$99                    animation
     00000C20  A$lcc2201211$100                   animation
     00000C21  A$lcc2201211$101                   animation
     00000C23  A$lcc2201211$102                   animation
     00000C24  A$lcc2201211$103                   animation
     00000C25  A$lcc2201211$104                   animation
     00000C26  A$lcc2201211$108                   animation
     00000C26  C$animation.c$16$1_0$134           animation
     00000C29  A$lcc2201211$109                   animation
     00000C2A  A$lcc2201211$110                   animation
     00000C2C  A$lcc2201211$114                   animation
     00000C2C  C$animation.c$17$1_0$134           animation
     00000C2D  A$lcc2201211$115                   animation
     00000C2E  A$lcc2201211$116                   animation
ASxxxx Linker V03.00/V05.40 + sdld,  page 16.
Hexadecimal  [32-Bits]

Area                                    Addr        Size        Decimal Bytes (Attributes)
--------------------------------        ----        ----        ------- ----- ------------
_CODE                               00000200    000015FF =        5631. bytes (REL,CON)

      Value  Global                              Global Defined In Module
      -----  --------------------------------   ------------------------
     00000C2F  A$lcc2201211$117                   animation
     00000C30  A$lcc2201211$118                   animation
     00000C32  A$lcc2201211$122                   animation
     00000C32  C$animation.c$18$1_0$134           animation
     00000C35  A$lcc2201211$123                   animation
     00000C36  A$lcc2201211$124                   animation
     00000C37  A$lcc2201211$125                   animation
     00000C39  A$lcc2201211$126                   animation
     00000C3A  A$lcc2201211$127                   animation
     00000C3B  A$lcc2201211$128                   animation
     00000C3C  A$lcc2201211$132                   animation
     00000C3C  C$animation.c$21$1_0$134           animation
     00000C3D  A$lcc2201211$133                   animation
     00000C3E  A$lcc2201211$134                   animation
     00000C3F  A$lcc2201211$135                   animation
     00000C40  A$lcc2201211$136                   animation
     00000C41  A$lcc2201211$137                   animation
     00000C43  A$lcc2201211$138                   animation
     00000C44  A$lcc2201211$139                   animation
     00000C46  A$lcc2201211$140                   animation
     00000C47  A$lcc2201211$141                   animation
     00000C48  A$lcc2201211$142                   animation
     00000C4B  A$lcc2201211$143                   animation
     00000C4C  A$lcc2201211$144                   animation
     00000C4D  A$lcc2201211$145                   animation
     00000C4E  A$lcc2201211$146                   animation
     00000C4F  A$lcc2201211$147                   animation
     00000C50  A$lcc2201211$148                   animation
     00000C51  A$lcc2201211$149                   animation
     00000C52  A$lcc2201211$150                   animation
     00000C53  A$lcc2201211$151                   animation
     00000C55  A$lcc2201211$152                   animation
     00000C56  A$lcc2201211$153                   animation
     00000C58  A$lcc2201211$154                   animation
     00000C59  A$lcc2201211$155                   animation
     00000C5B  A$lcc2201211$156                   animation
     00000C5C  A$lcc2201211$157                   animation
     00000C5E  A$lcc2201211$158                   animation
     00000C5F  A$lcc2201211$159                   animation
     00000C60  A$lcc2201211$160                   animation
     00000C63  A$lcc2201211$161                   animation
     00000C64  A$lcc2201211$162                   animation
     00000C65  A$lcc2201211$163                   animation
     00000C66  A$lcc2201211$167                   animation
     00000C66  C$animation.c$24$2_0$134           animation
     00000C68  A$lcc2201211$169                   animation
     00000C69  A$lcc2201211$170                   animation
     00000C6A  A$lcc2201211$171                   animation
     00000C6B  A$lcc2201211$172                   animation
     00000C6C  A$lcc2201211$173                   animation
     00000C6E  A$lcc2201211$174                   animation
ASxxxx Linker V03.00/V05.40 + sdld,  page 17.
Hexadecimal  [32-Bits]

Area                                    Addr        Size        Decimal Bytes (Attributes)
--------------------------------        ----        ----        ------- ----- ------------
_CODE                               00000200    000015FF =        5631. bytes (REL,CON)

      Value  Global                              Global Defined In Module
      -----  --------------------------------   ------------------------
     00000C6F  A$lcc2201211$175                   animation
     00000C71  A$lcc2201211$180                   animation
     00000C71  C$animation.c$32$2_0$137           animation
     00000C72  A$lcc2201211$181                   animation
     00000C73  A$lcc2201211$182                   animation
     00000C76  A$lcc2201211$183                   animation
     00000C77  A$lcc2201211$184                   animation
     00000C78  A$lcc2201211$185                   animation
     00000C79  A$lcc2201211$186                   animation
     00000C7A  A$lcc2201211$187                   animation
     00000C7B  A$lcc2201211$188                   animation
     00000C7D  A$lcc2201211$192                   animation
     00000C7D  C$animation.c$33$2_0$137           animation
     00000C7F  A$lcc2201211$193                   animation
     00000C80  A$lcc2201211$194                   animation
     00000C81  A$lcc2201211$199                   animation
     00000C81  C$animation.c$34$2_0$134           animation
     00000C83  A$lcc2201211$200                   animation
     00000C84  A$lcc2201211$201                   animation
     00000C86  A$lcc2201211$202                   animation
     00000C87  A$lcc2201211$212                   animation
     00000C87  C$animation.c$36$2_0$139           animation
     00000C87  G$update_animation$0$0             animation
     00000C87  _update_animation                  animation
     00000C88  A$lcc2201211$213                   animation
     00000C89  A$lcc2201211$214                   animation
     00000C8A  A$lcc2201211$215                   animation
     00000C8B  A$lcc2201211$219                   animation
     00000C8B  C$animation.c$38$1_0$139           animation
     00000C8E  A$lcc2201211$220                   animation
     00000C8F  A$lcc2201211$221                   animation
     00000C90  A$lcc2201211$222                   animation
     00000C91  A$lcc2201211$223                   animation
     00000C92  A$lcc2201211$224                   animation
     00000C93  A$lcc2201211$225                   animation
     00000C94  A$lcc2201211$226                   animation
     00000C95  A$lcc2201211$227                   animation
     00000C96  A$lcc2201211$228                   animation
     00000C98  A$lcc2201211$229                   animation
     00000C99  A$lcc2201211$230                   animation
     00000C9A  A$lcc2201211$234                   animation
     00000C9A  C$animation.c$40$1_0$139           animation
     00000C9D  A$lcc2201211$235                   animation
     00000C9E  A$lcc2201211$236                   animation
     00000C9F  A$lcc2201211$237                   animation
     00000CA0  A$lcc2201211$238                   animation
     00000CA1  A$lcc2201211$239                   animation
     00000CA2  A$lcc2201211$240                   animation
     00000CA4  A$lcc2201211$241                   animation
     00000CA5  A$lcc2201211$242                   animation
     00000CA6  A$lcc2201211$246                   animation
ASxxxx Linker V03.00/V05.40 + sdld,  page 18.
Hexadecimal  [32-Bits]

Area                                    Addr        Size        Decimal Bytes (Attributes)
--------------------------------        ----        ----        ------- ----- ------------
_CODE                               00000200    000015FF =        5631. bytes (REL,CON)

      Value  Global                              Global Defined In Module
      -----  --------------------------------   ------------------------
     00000CA6  C$animation.c$41$2_0$140           animation
     00000CA7  A$lcc2201211$247                   animation
     00000CA8  A$lcc2201211$248                   animation
     00000CA9  A$lcc2201211$249                   animation
     00000CAA  A$lcc2201211$250                   animation
     00000CAB  A$lcc2201211$251                   animation
     00000CAC  A$lcc2201211$252                   animation
     00000CAE  A$lcc2201211$253                   animation
     00000CAF  A$lcc2201211$254                   animation
     00000CB1  A$lcc2201211$255                   animation
     00000CB2  A$lcc2201211$256                   animation
     00000CB3  A$lcc2201211$257                   animation
     00000CB5  A$lcc2201211$261                   animation
     00000CB5  C$animation.c$43$3_0$141           animation
     00000CB6  A$lcc2201211$262                   animation
     00000CB7  A$lcc2201211$266                   animation
     00000CB7  C$animation.c$44$3_0$141           animation
     00000CB8  A$lcc2201211$267                   animation
     00000CB9  A$lcc2201211$268                   animation
     00000CBA  A$lcc2201211$269                   animation
     00000CBB  A$lcc2201211$270                   animation
     00000CBC  A$lcc2201211$271                   animation
     00000CBD  A$lcc2201211$275                   animation
     00000CBD  C$animation.c$45$4_0$142           animation
     00000CBE  A$lcc2201211$276                   animation
     00000CBF  A$lcc2201211$277                   animation
     00000CC0  A$lcc2201211$278                   animation
     00000CC1  A$lcc2201211$279                   animation
     00000CC2  A$lcc2201211$280                   animation
     00000CC4  A$lcc2201211$284                   animation
     00000CC4  C$animation.c$46$4_0$142           animation
     00000CC6  A$lcc2201211$289                   animation
     00000CC7  A$lcc2201211$290                   animation
     00000CC8  A$lcc2201211$295                   animation
     00000CC8  C$animation.c$48$2_0$139           animation
     00000CC8  XG$update_animation$0$0            animation
     00000CC9  A$lcc2201211$305                   animation
     00000CC9  C$animation.c$50$2_0$144           animation
     00000CC9  G$set_animation$0$0                animation
     00000CC9  _set_animation                     animation
     00000CCA  A$lcc2201211$306                   animation
     00000CCB  A$lcc2201211$307                   animation
     00000CCC  A$lcc2201211$311                   animation
     00000CCC  C$animation.c$52$2_0$145           animation
     00000CCD  A$lcc2201211$312                   animation
     00000CCF  A$lcc2201211$313                   animation
     00000CD0  A$lcc2201211$314                   animation
     00000CD1  A$lcc2201211$315                   animation
     00000CD3  A$lcc2201211$316                   animation
     00000CD4  A$lcc2201211$317                   animation
     00000CD5  A$lcc2201211$318                   animation
ASxxxx Linker V03.00/V05.40 + sdld,  page 19.
Hexadecimal  [32-Bits]

Area                                    Addr        Size        Decimal Bytes (Attributes)
--------------------------------        ----        ----        ------- ----- ------------
_CODE                               00000200    000015FF =        5631. bytes (REL,CON)

      Value  Global                              Global Defined In Module
      -----  --------------------------------   ------------------------
     00000CD6  A$lcc2201211$319                   animation
     00000CD7  A$lcc2201211$326                   animation
     00000CD7  C$animation.c$53$2_0$145           animation
     00000CD7  C$animation.c$55$1_0$144           animation
     00000CD8  A$lcc2201211$327                   animation
     00000CD9  A$lcc2201211$331                   animation
     00000CD9  C$animation.c$56$1_1$146           animation
     00000CDA  A$lcc2201211$332                   animation
     00000CDB  A$lcc2201211$333                   animation
     00000CDC  A$lcc2201211$334                   animation
     00000CDD  A$lcc2201211$335                   animation
     00000CDF  A$lcc2201211$336                   animation
     00000CE0  A$lcc2201211$340                   animation
     00000CE0  C$animation.c$57$1_1$146           animation
     00000CE1  A$lcc2201211$341                   animation
     00000CE2  A$lcc2201211$342                   animation
     00000CE3  A$lcc2201211$343                   animation
     00000CE4  A$lcc2201211$344                   animation
     00000CE5  A$lcc2201211$345                   animation
     00000CE6  A$lcc2201211$349                   animation
     00000CE6  C$animation.c$58$1_1$146           animation
     00000CE9  A$lcc2201211$350                   animation
     00000CEA  A$lcc2201211$351                   animation
     00000CEC  A$lcc2201211$359                   animation
     00000CEC  C$animation.c$59$1_1$144           animation
     00000CEC  XG$set_animation$0$0               animation
     00000CED  A$lcc2201212$52                    draw
     00000CED  C$draw.c$6$0_0$135                 draw
     00000CED  G$draw_actor$0$0                   draw
     00000CED  _draw_actor                        draw
     00000CEF  A$lcc2201212$53                    draw
     00000CF1  A$lcc2201212$54                    draw
     00000CF2  A$lcc2201212$55                    draw
     00000CF3  A$lcc2201212$56                    draw
     00000CF4  A$lcc2201212$60                    draw
     00000CF4  C$draw.c$8$1_0$135                 draw
     00000CF7  A$lcc2201212$61                    draw
     00000CF8  A$lcc2201212$62                    draw
     00000CF9  A$lcc2201212$63                    draw
     00000CFA  A$lcc2201212$64                    draw
     00000CFB  A$lcc2201212$65                    draw
     00000CFC  A$lcc2201212$66                    draw
     00000CFD  A$lcc2201212$67                    draw
     00000CFE  A$lcc2201212$68                    draw
     00000D00  A$lcc2201212$69                    draw
     00000D01  A$lcc2201212$73                    draw
     00000D01  C$draw.c$9$1_0$135                 draw
     00000D03  A$lcc2201212$74                    draw
     00000D04  A$lcc2201212$75                    draw
     00000D05  A$lcc2201212$76                    draw
     00000D06  A$lcc2201212$77                    draw
ASxxxx Linker V03.00/V05.40 + sdld,  page 20.
Hexadecimal  [32-Bits]

Area                                    Addr        Size        Decimal Bytes (Attributes)
--------------------------------        ----        ----        ------- ----- ------------
_CODE                               00000200    000015FF =        5631. bytes (REL,CON)

      Value  Global                              Global Defined In Module
      -----  --------------------------------   ------------------------
     00000D09  A$lcc2201212$78                    draw
     00000D0A  A$lcc2201212$79                    draw
     00000D0B  A$lcc2201212$80                    draw
     00000D0C  A$lcc2201212$81                    draw
     00000D0E  A$lcc2201212$82                    draw
     00000D0F  A$lcc2201212$83                    draw
     00000D10  A$lcc2201212$84                    draw
     00000D11  A$lcc2201212$85                    draw
     00000D13  A$lcc2201212$86                    draw
     00000D14  A$lcc2201212$87                    draw
     00000D15  A$lcc2201212$88                    draw
     00000D16  A$lcc2201212$89                    draw
     00000D17  A$lcc2201212$90                    draw
     00000D18  A$lcc2201212$91                    draw
     00000D1A  A$lcc2201212$92                    draw
     00000D1B  A$lcc2201212$96                    draw
     00000D1B  C$draw.c$11$1_0$135                draw
     00000D1D  A$lcc2201212$97                    draw
     00000D1E  A$lcc2201212$98                    draw
     00000D1F  A$lcc2201212$99                    draw
     00000D20  A$lcc2201212$100                   draw
     00000D21  A$lcc2201212$101                   draw
     00000D22  A$lcc2201212$102                   draw
     00000D23  A$lcc2201212$103                   draw
     00000D24  A$lcc2201212$104                   draw
     00000D25  A$lcc2201212$105                   draw
     00000D26  A$lcc2201212$106                   draw
     00000D27  A$lcc2201212$107                   draw
     00000D28  A$lcc2201212$108                   draw
     00000D29  A$lcc2201212$109                   draw
     00000D2C  A$lcc2201212$110                   draw
     00000D2D  A$lcc2201212$111                   draw
     00000D2E  A$lcc2201212$112                   draw
     00000D2F  A$lcc2201212$113                   draw
     00000D31  A$lcc2201212$114                   draw
     00000D32  A$lcc2201212$115                   draw
     00000D33  A$lcc2201212$116                   draw
     00000D34  A$lcc2201212$117                   draw
     00000D36  A$lcc2201212$118                   draw
     00000D37  A$lcc2201212$119                   draw
     00000D38  A$lcc2201212$120                   draw
     00000D39  A$lcc2201212$121                   draw
     00000D3A  A$lcc2201212$122                   draw
     00000D3C  A$lcc2201212$123                   draw
     00000D3D  A$lcc2201212$124                   draw
     00000D3E  A$lcc2201212$128                   draw
     00000D3E  C$draw.c$12$1_0$135                draw
     00000D3F  A$lcc2201212$129                   draw
     00000D40  A$lcc2201212$130                   draw
     00000D41  A$lcc2201212$131                   draw
     00000D42  A$lcc2201212$132                   draw
ASxxxx Linker V03.00/V05.40 + sdld,  page 21.
Hexadecimal  [32-Bits]

Area                                    Addr        Size        Decimal Bytes (Attributes)
--------------------------------        ----        ----        ------- ----- ------------
_CODE                               00000200    000015FF =        5631. bytes (REL,CON)

      Value  Global                              Global Defined In Module
      -----  --------------------------------   ------------------------
     00000D45  A$lcc2201212$133                   draw
     00000D46  A$lcc2201212$134                   draw
     00000D47  A$lcc2201212$135                   draw
     00000D48  A$lcc2201212$136                   draw
     00000D4A  A$lcc2201212$137                   draw
     00000D4B  A$lcc2201212$138                   draw
     00000D4C  A$lcc2201212$139                   draw
     00000D4D  A$lcc2201212$140                   draw
     00000D4F  A$lcc2201212$141                   draw
     00000D50  A$lcc2201212$142                   draw
     00000D51  A$lcc2201212$143                   draw
     00000D52  A$lcc2201212$144                   draw
     00000D53  A$lcc2201212$145                   draw
     00000D54  A$lcc2201212$146                   draw
     00000D55  A$lcc2201212$147                   draw
     00000D56  A$lcc2201212$148                   draw
     00000D57  A$lcc2201212$149                   draw
     00000D58  A$lcc2201212$150                   draw
     00000D59  A$lcc2201212$151                   draw
     00000D5B  A$lcc2201212$152                   draw
     00000D5D  A$lcc2201212$153                   draw
     00000D5E  A$lcc2201212$154                   draw
     00000D5F  A$lcc2201212$155                   draw
     00000D60  A$lcc2201212$156                   draw
     00000D61  A$lcc2201212$157                   draw
     00000D62  A$lcc2201212$158                   draw
     00000D63  A$lcc2201212$162                   draw
     00000D63  C$draw.c$14$1_0$135                draw
     00000D66  A$lcc2201212$163                   draw
     00000D67  A$lcc2201212$164                   draw
     00000D68  A$lcc2201212$165                   draw
     00000D6A  A$lcc2201212$169                   draw
     00000D6A  C$draw.c$15$1_0$135                draw
     00000D6B  A$lcc2201212$170                   draw
     00000D6C  A$lcc2201212$171                   draw
     00000D6D  A$lcc2201212$172                   draw
     00000D6E  A$lcc2201212$173                   draw
     00000D6F  A$lcc2201212$174                   draw
     00000D70  A$lcc2201212$175                   draw
     00000D71  A$lcc2201212$176                   draw
     00000D74  A$lcc2201212$177                   draw
     00000D76  A$lcc2201212$178                   draw
     00000D77  A$lcc2201212$179                   draw
     00000D78  A$lcc2201212$180                   draw
     00000D79  A$lcc2201212$181                   draw
     00000D7A  A$lcc2201212$182                   draw
     00000D7B  A$lcc2201212$183                   draw
     00000D7C  A$lcc2201212$184                   draw
     00000D7D  A$lcc2201212$188                   draw
     00000D7D  C$draw.c$17$1_0$135                draw
     00000D7F  A$lcc2201212$189                   draw
ASxxxx Linker V03.00/V05.40 + sdld,  page 22.
Hexadecimal  [32-Bits]

Area                                    Addr        Size        Decimal Bytes (Attributes)
--------------------------------        ----        ----        ------- ----- ------------
_CODE                               00000200    000015FF =        5631. bytes (REL,CON)

      Value  Global                              Global Defined In Module
      -----  --------------------------------   ------------------------
     00000D80  A$lcc2201212$190                   draw
     00000D81  A$lcc2201212$191                   draw
     00000D83  A$lcc2201212$192                   draw
     00000D84  A$lcc2201212$193                   draw
     00000D86  A$lcc2201212$194                   draw
     00000D87  A$lcc2201212$195                   draw
     00000D89  A$lcc2201212$199                   draw
     00000D89  C$draw.c$20$2_0$135                draw
     00000D8B  A$lcc2201212$201                   draw
     00000D8C  A$lcc2201212$202                   draw
     00000D8E  A$lcc2201212$203                   draw
     00000D8F  A$lcc2201212$204                   draw
     00000D91  A$lcc2201212$206                   draw
     00000D92  A$lcc2201212$207                   draw
     00000D93  A$lcc2201212$208                   draw
     00000D94  A$lcc2201212$209                   draw
     00000D95  A$lcc2201212$210                   draw
     00000D96  A$lcc2201212$211                   draw
     00000D98  A$lcc2201212$212                   draw
     00000D9B  A$lcc2201212$213                   draw
     00000D9C  A$lcc2201212$214                   draw
     00000D9D  A$lcc2201212$215                   draw
     00000D9E  A$lcc2201212$216                   draw
     00000D9F  A$lcc2201212$218                   draw
     00000DA0  A$lcc2201212$219                   draw
     00000DA1  A$lcc2201212$220                   draw
     00000DA2  A$lcc2201212$221                   draw
     00000DA3  A$lcc2201212$222                   draw
     00000DA4  A$lcc2201212$223                   draw
     00000DA5  A$lcc2201212$224                   draw
     00000DA8  A$lcc2201212$225                   draw
     00000DA9  A$lcc2201212$226                   draw
     00000DAA  A$lcc2201212$227                   draw
     00000DAB  A$lcc2201212$228                   draw
     00000DAC  A$lcc2201212$229                   draw
     00000DAD  A$lcc2201212$233                   draw
     00000DAD  C$draw.c$20$2_0$136                draw
     00000DAE  A$lcc2201212$234                   draw
     00000DB0  A$lcc2201212$239                   draw
     00000DB0  C$draw.c$24$2_0$137                draw
     00000DB2  A$lcc2201212$240                   draw
     00000DB3  A$lcc2201212$241                   draw
     00000DB4  A$lcc2201212$242                   draw
     00000DB6  A$lcc2201212$244                   draw
     00000DB8  A$lcc2201212$245                   draw
     00000DB9  A$lcc2201212$247                   draw
     00000DBB  A$lcc2201212$248                   draw
     00000DBC  A$lcc2201212$249                   draw
     00000DBD  A$lcc2201212$250                   draw
     00000DBE  A$lcc2201212$251                   draw
     00000DBF  A$lcc2201212$252                   draw
ASxxxx Linker V03.00/V05.40 + sdld,  page 23.
Hexadecimal  [32-Bits]

Area                                    Addr        Size        Decimal Bytes (Attributes)
--------------------------------        ----        ----        ------- ----- ------------
_CODE                               00000200    000015FF =        5631. bytes (REL,CON)

      Value  Global                              Global Defined In Module
      -----  --------------------------------   ------------------------
     00000DC0  A$lcc2201212$253                   draw
     00000DC1  A$lcc2201212$254                   draw
     00000DC2  A$lcc2201212$255                   draw
     00000DC4  A$lcc2201212$256                   draw
     00000DC6  A$lcc2201212$258                   draw
     00000DC8  A$lcc2201212$259                   draw
     00000DCA  A$lcc2201212$260                   draw
     00000DCB  A$lcc2201212$261                   draw
     00000DCD  A$lcc2201212$262                   draw
     00000DCE  A$lcc2201212$263                   draw
     00000DD0  A$lcc2201212$264                   draw
     00000DD1  A$lcc2201212$265                   draw
     00000DD2  A$lcc2201212$266                   draw
     00000DD3  A$lcc2201212$267                   draw
     00000DD4  A$lcc2201212$268                   draw
     00000DD7  A$lcc2201212$269                   draw
     00000DD8  A$lcc2201212$270                   draw
     00000DD9  A$lcc2201212$271                   draw
     00000DDA  A$lcc2201212$272                   draw
     00000DDC  A$lcc2201212$273                   draw
     00000DDD  A$lcc2201212$274                   draw
     00000DDE  A$lcc2201212$275                   draw
     00000DDF  A$lcc2201212$276                   draw
     00000DE1  A$lcc2201212$278                   draw
     00000DE2  A$lcc2201212$279                   draw
     00000DE3  A$lcc2201212$280                   draw
     00000DE4  A$lcc2201212$281                   draw
     00000DE5  A$lcc2201212$282                   draw
     00000DE7  A$lcc2201212$283                   draw
     00000DE8  A$lcc2201212$284                   draw
     00000DE9  A$lcc2201212$285                   draw
     00000DEB  A$lcc2201212$286                   draw
     00000DEC  A$lcc2201212$287                   draw
     00000DED  A$lcc2201212$288                   draw
     00000DEE  A$lcc2201212$289                   draw
     00000DEF  A$lcc2201212$290                   draw
     00000DF1  A$lcc2201212$291                   draw
     00000DF2  A$lcc2201212$292                   draw
     00000DF3  A$lcc2201212$296                   draw
     00000DF3  C$draw.c$26$2_0$137                draw
     00000DF6  A$lcc2201212$301                   draw
     00000DF6  C$draw.c$28$3_0$139                draw
     00000DF8  A$lcc2201212$302                   draw
     00000DF9  A$lcc2201212$303                   draw
     00000DFB  A$lcc2201212$304                   draw
     00000DFE  A$lcc2201212$308                   draw
     00000E01  A$lcc2201212$309                   draw
     00000E03  A$lcc2201212$310                   draw
     00000E04  A$lcc2201212$311                   draw
     00000E05  A$lcc2201212$312                   draw
     00000E06  A$lcc2201212$313                   draw
ASxxxx Linker V03.00/V05.40 + sdld,  page 24.
Hexadecimal  [32-Bits]

Area                                    Addr        Size        Decimal Bytes (Attributes)
--------------------------------        ----        ----        ------- ----- ------------
_CODE                               00000200    000015FF =        5631. bytes (REL,CON)

      Value  Global                              Global Defined In Module
      -----  --------------------------------   ------------------------
     00000E07  A$lcc2201212$314                   draw
     00000E08  A$lcc2201212$315                   draw
     00000E09  A$lcc2201212$316                   draw
     00000E0A  A$lcc2201212$317                   draw
     00000E0B  A$lcc2201212$321                   draw
     00000E0B  C$draw.c$26$2_0$135                draw
     00000E0D  A$lcc2201212$322                   draw
     00000E0E  A$lcc2201212$323                   draw
     00000E10  A$lcc2201212$324                   draw
     00000E11  A$lcc2201212$328                   draw
     00000E11  C$draw.c$30$5_0$141                draw
     00000E13  A$lcc2201212$329                   draw
     00000E16  A$lcc2201212$332                   draw
     00000E17  A$lcc2201212$333                   draw
     00000E18  A$lcc2201212$334                   draw
     00000E19  A$lcc2201212$335                   draw
     00000E1A  A$lcc2201212$336                   draw
     00000E1B  A$lcc2201212$337                   draw
     00000E1C  A$lcc2201212$338                   draw
     00000E1D  A$lcc2201212$339                   draw
     00000E1F  A$lcc2201212$340                   draw
     00000E21  A$lcc2201212$342                   draw
     00000E23  A$lcc2201212$343                   draw
     00000E25  A$lcc2201212$344                   draw
     00000E26  A$lcc2201212$345                   draw
     00000E28  A$lcc2201212$346                   draw
     00000E29  A$lcc2201212$347                   draw
     00000E2B  A$lcc2201212$348                   draw
     00000E2C  A$lcc2201212$349                   draw
     00000E2D  A$lcc2201212$350                   draw
     00000E2E  A$lcc2201212$351                   draw
     00000E2F  A$lcc2201212$352                   draw
     00000E32  A$lcc2201212$353                   draw
     00000E33  A$lcc2201212$354                   draw
     00000E34  A$lcc2201212$355                   draw
     00000E35  A$lcc2201212$356                   draw
     00000E37  A$lcc2201212$357                   draw
     00000E38  A$lcc2201212$358                   draw
     00000E39  A$lcc2201212$359                   draw
     00000E3A  A$lcc2201212$360                   draw
     00000E3C  A$lcc2201212$361                   draw
     00000E3D  A$lcc2201212$362                   draw
     00000E3E  A$lcc2201212$363                   draw
     00000E3F  A$lcc2201212$364                   draw
     00000E40  A$lcc2201212$365                   draw
     00000E42  A$lcc2201212$366                   draw
     00000E43  A$lcc2201212$367                   draw
     00000E44  A$lcc2201212$369                   draw
     00000E45  A$lcc2201212$370                   draw
     00000E46  A$lcc2201212$371                   draw
     00000E47  A$lcc2201212$372                   draw
ASxxxx Linker V03.00/V05.40 + sdld,  page 25.
Hexadecimal  [32-Bits]

Area                                    Addr        Size        Decimal Bytes (Attributes)
--------------------------------        ----        ----        ------- ----- ------------
_CODE                               00000200    000015FF =        5631. bytes (REL,CON)

      Value  Global                              Global Defined In Module
      -----  --------------------------------   ------------------------
     00000E48  A$lcc2201212$373                   draw
     00000E4A  A$lcc2201212$374                   draw
     00000E4B  A$lcc2201212$375                   draw
     00000E4C  A$lcc2201212$376                   draw
     00000E4E  A$lcc2201212$377                   draw
     00000E4F  A$lcc2201212$378                   draw
     00000E50  A$lcc2201212$379                   draw
     00000E51  A$lcc2201212$380                   draw
     00000E52  A$lcc2201212$381                   draw
     00000E53  A$lcc2201212$382                   draw
     00000E54  A$lcc2201212$383                   draw
     00000E55  A$lcc2201212$384                   draw
     00000E56  A$lcc2201212$385                   draw
     00000E58  A$lcc2201212$386                   draw
     00000E59  A$lcc2201212$387                   draw
     00000E5A  A$lcc2201212$388                   draw
     00000E5B  A$lcc2201212$389                   draw
     00000E5D  A$lcc2201212$390                   draw
     00000E5E  A$lcc2201212$391                   draw
     00000E5F  A$lcc2201212$392                   draw
     00000E60  A$lcc2201212$393                   draw
     00000E61  A$lcc2201212$394                   draw
     00000E63  A$lcc2201212$395                   draw
     00000E64  A$lcc2201212$396                   draw
     00000E65  A$lcc2201212$398                   draw
     00000E67  A$lcc2201212$399                   draw
     00000E68  A$lcc2201212$400                   draw
     00000E6A  A$lcc2201212$401                   draw
     00000E6B  A$lcc2201212$402                   draw
     00000E6C  A$lcc2201212$403                   draw
     00000E6D  A$lcc2201212$404                   draw
     00000E6F  A$lcc2201212$405                   draw
     00000E70  A$lcc2201212$406                   draw
     00000E72  A$lcc2201212$407                   draw
     00000E73  A$lcc2201212$408                   draw
     00000E75  A$lcc2201212$409                   draw
     00000E76  A$lcc2201212$411                   draw
     00000E77  A$lcc2201212$412                   draw
     00000E78  A$lcc2201212$413                   draw
     00000E79  A$lcc2201212$414                   draw
     00000E7A  A$lcc2201212$415                   draw
     00000E7B  A$lcc2201212$416                   draw
     00000E7D  A$lcc2201212$417                   draw
     00000E7E  A$lcc2201212$418                   draw
     00000E80  A$lcc2201212$419                   draw
     00000E82  A$lcc2201212$421                   draw
     00000E84  A$lcc2201212$422                   draw
     00000E86  A$lcc2201212$423                   draw
     00000E87  A$lcc2201212$424                   draw
     00000E89  A$lcc2201212$425                   draw
     00000E8A  A$lcc2201212$426                   draw
ASxxxx Linker V03.00/V05.40 + sdld,  page 26.
Hexadecimal  [32-Bits]

Area                                    Addr        Size        Decimal Bytes (Attributes)
--------------------------------        ----        ----        ------- ----- ------------
_CODE                               00000200    000015FF =        5631. bytes (REL,CON)

      Value  Global                              Global Defined In Module
      -----  --------------------------------   ------------------------
     00000E8C  A$lcc2201212$427                   draw
     00000E8D  A$lcc2201212$428                   draw
     00000E8E  A$lcc2201212$429                   draw
     00000E8F  A$lcc2201212$430                   draw
     00000E90  A$lcc2201212$431                   draw
     00000E93  A$lcc2201212$432                   draw
     00000E94  A$lcc2201212$433                   draw
     00000E95  A$lcc2201212$434                   draw
     00000E96  A$lcc2201212$435                   draw
     00000E98  A$lcc2201212$436                   draw
     00000E99  A$lcc2201212$437                   draw
     00000E9A  A$lcc2201212$438                   draw
     00000E9B  A$lcc2201212$439                   draw
     00000E9D  A$lcc2201212$441                   draw
     00000E9E  A$lcc2201212$442                   draw
     00000E9F  A$lcc2201212$443                   draw
     00000EA0  A$lcc2201212$444                   draw
     00000EA1  A$lcc2201212$445                   draw
     00000EA2  A$lcc2201212$446                   draw
     00000EA3  A$lcc2201212$447                   draw
     00000EA4  A$lcc2201212$448                   draw
     00000EA5  A$lcc2201212$449                   draw
     00000EA6  A$lcc2201212$450                   draw
     00000EA7  A$lcc2201212$451                   draw
     00000EA8  A$lcc2201212$452                   draw
     00000EA9  A$lcc2201212$453                   draw
     00000EAA  A$lcc2201212$454                   draw
     00000EAB  A$lcc2201212$455                   draw
     00000EAC  A$lcc2201212$456                   draw
     00000EAD  A$lcc2201212$457                   draw
     00000EAF  A$lcc2201212$458                   draw
     00000EB0  A$lcc2201212$459                   draw
     00000EB1  A$lcc2201212$460                   draw
     00000EB2  A$lcc2201212$461                   draw
     00000EB4  A$lcc2201212$462                   draw
     00000EB5  A$lcc2201212$463                   draw
     00000EB6  A$lcc2201212$464                   draw
     00000EB7  A$lcc2201212$465                   draw
     00000EB8  A$lcc2201212$466                   draw
     00000EBA  A$lcc2201212$467                   draw
     00000EBB  A$lcc2201212$468                   draw
     00000EBC  A$lcc2201212$472                   draw
     00000EBC  C$draw.c$33$5_0$141                draw
     00000EBF  A$lcc2201212$475                   draw
     00000EC1  A$lcc2201212$477                   draw
     00000EC2  A$lcc2201212$478                   draw
     00000EC3  A$lcc2201212$479                   draw
     00000EC4  A$lcc2201212$480                   draw
     00000EC5  A$lcc2201212$481                   draw
     00000EC6  A$lcc2201212$482                   draw
     00000EC7  A$lcc2201212$483                   draw
ASxxxx Linker V03.00/V05.40 + sdld,  page 27.
Hexadecimal  [32-Bits]

Area                                    Addr        Size        Decimal Bytes (Attributes)
--------------------------------        ----        ----        ------- ----- ------------
_CODE                               00000200    000015FF =        5631. bytes (REL,CON)

      Value  Global                              Global Defined In Module
      -----  --------------------------------   ------------------------
     00000EC8  A$lcc2201212$484                   draw
     00000ECA  A$lcc2201212$485                   draw
     00000ECC  A$lcc2201212$487                   draw
     00000ECE  A$lcc2201212$488                   draw
     00000ED0  A$lcc2201212$489                   draw
     00000ED1  A$lcc2201212$490                   draw
     00000ED3  A$lcc2201212$491                   draw
     00000ED4  A$lcc2201212$492                   draw
     00000ED6  A$lcc2201212$493                   draw
     00000ED7  A$lcc2201212$494                   draw
     00000ED8  A$lcc2201212$495                   draw
     00000ED9  A$lcc2201212$496                   draw
     00000EDA  A$lcc2201212$497                   draw
     00000EDD  A$lcc2201212$498                   draw
     00000EDE  A$lcc2201212$499                   draw
     00000EDF  A$lcc2201212$500                   draw
     00000EE0  A$lcc2201212$501                   draw
     00000EE2  A$lcc2201212$502                   draw
     00000EE3  A$lcc2201212$503                   draw
     00000EE4  A$lcc2201212$504                   draw
     00000EE5  A$lcc2201212$505                   draw
     00000EE7  A$lcc2201212$507                   draw
     00000EE8  A$lcc2201212$508                   draw
     00000EE9  A$lcc2201212$509                   draw
     00000EEA  A$lcc2201212$510                   draw
     00000EEB  A$lcc2201212$511                   draw
     00000EED  A$lcc2201212$512                   draw
     00000EEE  A$lcc2201212$513                   draw
     00000EEF  A$lcc2201212$514                   draw
     00000EF1  A$lcc2201212$515                   draw
     00000EF2  A$lcc2201212$516                   draw
     00000EF3  A$lcc2201212$517                   draw
     00000EF4  A$lcc2201212$518                   draw
     00000EF5  A$lcc2201212$519                   draw
     00000EF7  A$lcc2201212$520                   draw
     00000EF8  A$lcc2201212$521                   draw
     00000EF9  A$lcc2201212$523                   draw
     00000EFA  A$lcc2201212$524                   draw
     00000EFC  A$lcc2201212$525                   draw
     00000EFE  A$lcc2201212$526                   draw
     00000EFF  A$lcc2201212$527                   draw
     00000F01  A$lcc2201212$528                   draw
     00000F02  A$lcc2201212$530                   draw
     00000F04  A$lcc2201212$531                   draw
     00000F05  A$lcc2201212$532                   draw
     00000F06  A$lcc2201212$533                   draw
     00000F07  A$lcc2201212$534                   draw
     00000F08  A$lcc2201212$535                   draw
     00000F09  A$lcc2201212$536                   draw
     00000F0B  A$lcc2201212$537                   draw
     00000F0C  A$lcc2201212$538                   draw
ASxxxx Linker V03.00/V05.40 + sdld,  page 28.
Hexadecimal  [32-Bits]

Area                                    Addr        Size        Decimal Bytes (Attributes)
--------------------------------        ----        ----        ------- ----- ------------
_CODE                               00000200    000015FF =        5631. bytes (REL,CON)

      Value  Global                              Global Defined In Module
      -----  --------------------------------   ------------------------
     00000F0E  A$lcc2201212$539                   draw
     00000F10  A$lcc2201212$541                   draw
     00000F12  A$lcc2201212$542                   draw
     00000F14  A$lcc2201212$543                   draw
     00000F15  A$lcc2201212$544                   draw
     00000F17  A$lcc2201212$545                   draw
     00000F18  A$lcc2201212$546                   draw
     00000F1A  A$lcc2201212$547                   draw
     00000F1B  A$lcc2201212$548                   draw
     00000F1C  A$lcc2201212$549                   draw
     00000F1D  A$lcc2201212$550                   draw
     00000F1E  A$lcc2201212$551                   draw
     00000F21  A$lcc2201212$552                   draw
     00000F22  A$lcc2201212$553                   draw
     00000F23  A$lcc2201212$554                   draw
     00000F24  A$lcc2201212$555                   draw
     00000F26  A$lcc2201212$556                   draw
     00000F27  A$lcc2201212$557                   draw
     00000F28  A$lcc2201212$558                   draw
     00000F29  A$lcc2201212$559                   draw
     00000F2B  A$lcc2201212$561                   draw
     00000F2C  A$lcc2201212$562                   draw
     00000F2D  A$lcc2201212$563                   draw
     00000F2E  A$lcc2201212$564                   draw
     00000F2F  A$lcc2201212$565                   draw
     00000F31  A$lcc2201212$566                   draw
     00000F32  A$lcc2201212$567                   draw
     00000F33  A$lcc2201212$568                   draw
     00000F35  A$lcc2201212$569                   draw
     00000F36  A$lcc2201212$570                   draw
     00000F37  A$lcc2201212$571                   draw
     00000F38  A$lcc2201212$572                   draw
     00000F39  A$lcc2201212$573                   draw
     00000F3A  A$lcc2201212$574                   draw
     00000F3B  A$lcc2201212$575                   draw
     00000F3C  A$lcc2201212$576                   draw
     00000F3D  A$lcc2201212$577                   draw
     00000F3F  A$lcc2201212$578                   draw
     00000F40  A$lcc2201212$579                   draw
     00000F41  A$lcc2201212$580                   draw
     00000F42  A$lcc2201212$581                   draw
     00000F44  A$lcc2201212$582                   draw
     00000F45  A$lcc2201212$583                   draw
     00000F46  A$lcc2201212$584                   draw
     00000F47  A$lcc2201212$585                   draw
     00000F48  A$lcc2201212$586                   draw
     00000F49  A$lcc2201212$587                   draw
     00000F4A  A$lcc2201212$588                   draw
     00000F4B  A$lcc2201212$592                   draw
     00000F4B  C$draw.c$38$3_0$139                draw
     00000F4E  A$lcc2201212$597                   draw
ASxxxx Linker V03.00/V05.40 + sdld,  page 29.
Hexadecimal  [32-Bits]

Area                                    Addr        Size        Decimal Bytes (Attributes)
--------------------------------        ----        ----        ------- ----- ------------
_CODE                               00000200    000015FF =        5631. bytes (REL,CON)

      Value  Global                              Global Defined In Module
      -----  --------------------------------   ------------------------
     00000F4E  C$draw.c$41$4_0$144                draw
     00000F50  A$lcc2201212$598                   draw
     00000F51  A$lcc2201212$599                   draw
     00000F53  A$lcc2201212$600                   draw
     00000F56  A$lcc2201212$602                   draw
     00000F58  A$lcc2201212$603                   draw
     00000F59  A$lcc2201212$605                   draw
     00000F5B  A$lcc2201212$606                   draw
     00000F5C  A$lcc2201212$607                   draw
     00000F5D  A$lcc2201212$608                   draw
     00000F5E  A$lcc2201212$609                   draw
     00000F5F  A$lcc2201212$610                   draw
     00000F60  A$lcc2201212$611                   draw
     00000F61  A$lcc2201212$612                   draw
     00000F62  A$lcc2201212$613                   draw
     00000F64  A$lcc2201212$614                   draw
     00000F66  A$lcc2201212$616                   draw
     00000F68  A$lcc2201212$617                   draw
     00000F6A  A$lcc2201212$618                   draw
     00000F6B  A$lcc2201212$619                   draw
     00000F6D  A$lcc2201212$620                   draw
     00000F6E  A$lcc2201212$621                   draw
     00000F70  A$lcc2201212$622                   draw
     00000F71  A$lcc2201212$623                   draw
     00000F72  A$lcc2201212$624                   draw
     00000F73  A$lcc2201212$625                   draw
     00000F74  A$lcc2201212$626                   draw
     00000F77  A$lcc2201212$627                   draw
     00000F78  A$lcc2201212$628                   draw
     00000F79  A$lcc2201212$629                   draw
     00000F7A  A$lcc2201212$630                   draw
     00000F7C  A$lcc2201212$631                   draw
     00000F7D  A$lcc2201212$632                   draw
     00000F7E  A$lcc2201212$633                   draw
     00000F7F  A$lcc2201212$634                   draw
     00000F81  A$lcc2201212$636                   draw
     00000F82  A$lcc2201212$637                   draw
     00000F83  A$lcc2201212$638                   draw
     00000F84  A$lcc2201212$639                   draw
     00000F85  A$lcc2201212$640                   draw
     00000F87  A$lcc2201212$641                   draw
     00000F88  A$lcc2201212$642                   draw
     00000F89  A$lcc2201212$643                   draw
     00000F8B  A$lcc2201212$644                   draw
     00000F8C  A$lcc2201212$645                   draw
     00000F8D  A$lcc2201212$646                   draw
     00000F8E  A$lcc2201212$647                   draw
     00000F8F  A$lcc2201212$648                   draw
     00000F91  A$lcc2201212$649                   draw
     00000F92  A$lcc2201212$650                   draw
     00000F93  A$lcc2201212$652                   draw
ASxxxx Linker V03.00/V05.40 + sdld,  page 30.
Hexadecimal  [32-Bits]

Area                                    Addr        Size        Decimal Bytes (Attributes)
--------------------------------        ----        ----        ------- ----- ------------
_CODE                               00000200    000015FF =        5631. bytes (REL,CON)

      Value  Global                              Global Defined In Module
      -----  --------------------------------   ------------------------
     00000F94  A$lcc2201212$653                   draw
     00000F96  A$lcc2201212$654                   draw
     00000F97  A$lcc2201212$655                   draw
     00000F98  A$lcc2201212$656                   draw
     00000F9A  A$lcc2201212$657                   draw
     00000F9B  A$lcc2201212$658                   draw
     00000F9C  A$lcc2201212$659                   draw
     00000F9D  A$lcc2201212$661                   draw
     00000F9F  A$lcc2201212$662                   draw
     00000FA0  A$lcc2201212$663                   draw
     00000FA1  A$lcc2201212$664                   draw
     00000FA2  A$lcc2201212$665                   draw
     00000FA3  A$lcc2201212$666                   draw
     00000FA4  A$lcc2201212$667                   draw
     00000FA5  A$lcc2201212$668                   draw
     00000FA6  A$lcc2201212$669                   draw
     00000FA8  A$lcc2201212$670                   draw
     00000FAA  A$lcc2201212$672                   draw
     00000FAC  A$lcc2201212$673                   draw
     00000FAE  A$lcc2201212$674                   draw
     00000FAF  A$lcc2201212$675                   draw
     00000FB1  A$lcc2201212$676                   draw
     00000FB2  A$lcc2201212$677                   draw
     00000FB4  A$lcc2201212$678                   draw
     00000FB7  A$lcc2201212$679                   draw
     00000FB8  A$lcc2201212$680                   draw
     00000FB9  A$lcc2201212$681                   draw
     00000FBA  A$lcc2201212$682                   draw
     00000FBB  A$lcc2201212$683                   draw
     00000FBC  A$lcc2201212$684                   draw
     00000FBD  A$lcc2201212$685                   draw
     00000FBF  A$lcc2201212$686                   draw
     00000FC0  A$lcc2201212$687                   draw
     00000FC1  A$lcc2201212$688                   draw
     00000FC2  A$lcc2201212$689                   draw
     00000FC4  A$lcc2201212$690                   draw
     00000FC5  A$lcc2201212$691                   draw
     00000FC6  A$lcc2201212$692                   draw
     00000FC7  A$lcc2201212$693                   draw
     00000FC8  A$lcc2201212$694                   draw
     00000FCA  A$lcc2201212$695                   draw
     00000FCB  A$lcc2201212$696                   draw
     00000FCC  A$lcc2201212$698                   draw
     00000FCD  A$lcc2201212$699                   draw
     00000FCE  A$lcc2201212$700                   draw
     00000FCF  A$lcc2201212$701                   draw
     00000FD0  A$lcc2201212$702                   draw
     00000FD2  A$lcc2201212$703                   draw
     00000FD3  A$lcc2201212$704                   draw
     00000FD4  A$lcc2201212$705                   draw
     00000FD6  A$lcc2201212$706                   draw
ASxxxx Linker V03.00/V05.40 + sdld,  page 31.
Hexadecimal  [32-Bits]

Area                                    Addr        Size        Decimal Bytes (Attributes)
--------------------------------        ----        ----        ------- ----- ------------
_CODE                               00000200    000015FF =        5631. bytes (REL,CON)

      Value  Global                              Global Defined In Module
      -----  --------------------------------   ------------------------
     00000FD7  A$lcc2201212$707                   draw
     00000FD8  A$lcc2201212$708                   draw
     00000FD9  A$lcc2201212$709                   draw
     00000FDA  A$lcc2201212$710                   draw
     00000FDB  A$lcc2201212$711                   draw
     00000FDC  A$lcc2201212$712                   draw
     00000FDD  A$lcc2201212$713                   draw
     00000FDE  A$lcc2201212$714                   draw
     00000FE0  A$lcc2201212$715                   draw
     00000FE1  A$lcc2201212$716                   draw
     00000FE2  A$lcc2201212$717                   draw
     00000FE3  A$lcc2201212$718                   draw
     00000FE5  A$lcc2201212$719                   draw
     00000FE6  A$lcc2201212$720                   draw
     00000FE7  A$lcc2201212$721                   draw
     00000FE8  A$lcc2201212$722                   draw
     00000FE9  A$lcc2201212$723                   draw
     00000FEB  A$lcc2201212$725                   draw
     00000FEC  A$lcc2201212$726                   draw
     00000FED  A$lcc2201212$727                   draw
     00000FEE  A$lcc2201212$728                   draw
     00000FF0  A$lcc2201212$729                   draw
     00000FF1  A$lcc2201212$730                   draw
     00000FF2  A$lcc2201212$731                   draw
     00000FF4  A$lcc2201212$732                   draw
     00000FF6  A$lcc2201212$733                   draw
     00000FF7  A$lcc2201212$734                   draw
     00000FF8  A$lcc2201212$735                   draw
     00000FF9  A$lcc2201212$736                   draw
     00000FFB  A$lcc2201212$737                   draw
     00000FFC  A$lcc2201212$739                   draw
     00000FFE  A$lcc2201212$740                   draw
     00000FFF  A$lcc2201212$741                   draw
     00001000  A$lcc2201212$742                   draw
     00001001  A$lcc2201212$743                   draw
     00001002  A$lcc2201212$744                   draw
     00001003  A$lcc2201212$745                   draw
     00001005  A$lcc2201212$746                   draw
     00001006  A$lcc2201212$747                   draw
     00001008  A$lcc2201212$748                   draw
     0000100A  A$lcc2201212$750                   draw
     0000100C  A$lcc2201212$751                   draw
     0000100E  A$lcc2201212$752                   draw
     0000100F  A$lcc2201212$753                   draw
     00001011  A$lcc2201212$754                   draw
     00001012  A$lcc2201212$755                   draw
     00001014  A$lcc2201212$756                   draw
     00001015  A$lcc2201212$757                   draw
     00001016  A$lcc2201212$758                   draw
     00001019  A$lcc2201212$759                   draw
     0000101A  A$lcc2201212$760                   draw
ASxxxx Linker V03.00/V05.40 + sdld,  page 32.
Hexadecimal  [32-Bits]

Area                                    Addr        Size        Decimal Bytes (Attributes)
--------------------------------        ----        ----        ------- ----- ------------
_CODE                               00000200    000015FF =        5631. bytes (REL,CON)

      Value  Global                              Global Defined In Module
      -----  --------------------------------   ------------------------
     0000101B  A$lcc2201212$761                   draw
     0000101C  A$lcc2201212$762                   draw
     0000101E  A$lcc2201212$763                   draw
     0000101F  A$lcc2201212$764                   draw
     00001020  A$lcc2201212$765                   draw
     00001021  A$lcc2201212$766                   draw
     00001023  A$lcc2201212$768                   draw
     00001024  A$lcc2201212$769                   draw
     00001025  A$lcc2201212$770                   draw
     00001026  A$lcc2201212$771                   draw
     00001027  A$lcc2201212$772                   draw
     00001028  A$lcc2201212$773                   draw
     00001029  A$lcc2201212$774                   draw
     0000102A  A$lcc2201212$775                   draw
     0000102B  A$lcc2201212$776                   draw
     0000102C  A$lcc2201212$777                   draw
     0000102D  A$lcc2201212$778                   draw
     0000102E  A$lcc2201212$779                   draw
     0000102F  A$lcc2201212$780                   draw
     00001030  A$lcc2201212$781                   draw
     00001031  A$lcc2201212$782                   draw
     00001032  A$lcc2201212$783                   draw
     00001033  A$lcc2201212$784                   draw
     00001034  A$lcc2201212$785                   draw
     00001035  A$lcc2201212$786                   draw
     00001036  A$lcc2201212$787                   draw
     00001038  A$lcc2201212$789                   draw
     00001039  A$lcc2201212$790                   draw
     0000103A  A$lcc2201212$791                   draw
     0000103B  A$lcc2201212$793                   draw
     0000103D  A$lcc2201212$794                   draw
     0000103E  A$lcc2201212$795                   draw
     0000103F  A$lcc2201212$796                   draw
     00001040  A$lcc2201212$797                   draw
     00001041  A$lcc2201212$798                   draw
     00001042  A$lcc2201212$799                   draw
     00001044  A$lcc2201212$800                   draw
     00001045  A$lcc2201212$801                   draw
     00001047  A$lcc2201212$802                   draw
     00001049  A$lcc2201212$804                   draw
     0000104B  A$lcc2201212$805                   draw
     0000104D  A$lcc2201212$806                   draw
     0000104E  A$lcc2201212$807                   draw
     00001050  A$lcc2201212$808                   draw
     00001051  A$lcc2201212$809                   draw
     00001053  A$lcc2201212$810                   draw
     00001054  A$lcc2201212$811                   draw
     00001055  A$lcc2201212$812                   draw
     00001058  A$lcc2201212$813                   draw
     00001059  A$lcc2201212$814                   draw
     0000105A  A$lcc2201212$815                   draw
ASxxxx Linker V03.00/V05.40 + sdld,  page 33.
Hexadecimal  [32-Bits]

Area                                    Addr        Size        Decimal Bytes (Attributes)
--------------------------------        ----        ----        ------- ----- ------------
_CODE                               00000200    000015FF =        5631. bytes (REL,CON)

      Value  Global                              Global Defined In Module
      -----  --------------------------------   ------------------------
     0000105B  A$lcc2201212$816                   draw
     0000105D  A$lcc2201212$817                   draw
     0000105E  A$lcc2201212$818                   draw
     0000105F  A$lcc2201212$819                   draw
     00001060  A$lcc2201212$820                   draw
     00001062  A$lcc2201212$822                   draw
     00001063  A$lcc2201212$823                   draw
     00001064  A$lcc2201212$824                   draw
     00001065  A$lcc2201212$825                   draw
     00001066  A$lcc2201212$826                   draw
     00001068  A$lcc2201212$827                   draw
     00001069  A$lcc2201212$828                   draw
     0000106A  A$lcc2201212$829                   draw
     0000106C  A$lcc2201212$830                   draw
     0000106D  A$lcc2201212$831                   draw
     0000106E  A$lcc2201212$832                   draw
     0000106F  A$lcc2201212$833                   draw
     00001070  A$lcc2201212$834                   draw
     00001071  A$lcc2201212$835                   draw
     00001072  A$lcc2201212$836                   draw
     00001073  A$lcc2201212$837                   draw
     00001074  A$lcc2201212$838                   draw
     00001076  A$lcc2201212$839                   draw
     00001077  A$lcc2201212$840                   draw
     00001078  A$lcc2201212$841                   draw
     00001079  A$lcc2201212$842                   draw
     0000107B  A$lcc2201212$843                   draw
     0000107C  A$lcc2201212$844                   draw
     0000107D  A$lcc2201212$845                   draw
     0000107E  A$lcc2201212$846                   draw
     0000107F  A$lcc2201212$847                   draw
     00001080  A$lcc2201212$848                   draw
     00001081  A$lcc2201212$849                   draw
     00001082  A$lcc2201212$850                   draw
     00001083  A$lcc2201212$858                   draw
     00001083  C$draw.c$46$2_0$135                draw
     00001085  A$lcc2201212$863                   draw
     00001085  C$draw.c$48$2_0$135                draw
     00001085  XG$draw_actor$0$0                  draw
     00001086  A$lcc2201213$59                    entity
     00001086  C$entity.c$7$0_0$2                 entity
     00001086  C$entity.c$9$1_0$2                 entity
     00001086  G$create_entity$0$0                entity
     00001086  _create_entity                     entity
     00001089  A$lcc2201213$60                    entity
     0000108A  A$lcc2201213$61                    entity
     0000108D  A$lcc2201213$62                    entity
     0000108E  A$lcc2201213$63                    entity
     0000108F  A$lcc2201213$64                    entity
     00001090  A$lcc2201213$65                    entity
     00001091  A$lcc2201213$66                    entity
ASxxxx Linker V03.00/V05.40 + sdld,  page 34.
Hexadecimal  [32-Bits]

Area                                    Addr        Size        Decimal Bytes (Attributes)
--------------------------------        ----        ----        ------- ----- ------------
_CODE                               00000200    000015FF =        5631. bytes (REL,CON)

      Value  Global                              Global Defined In Module
      -----  --------------------------------   ------------------------
     00001092  A$lcc2201213$67                    entity
     00001093  A$lcc2201213$75                    entity
     00001093  C$entity.c$10$1_0$2                entity
     00001093  XG$create_entity$0$0               entity
     00001094  A$lcc2201215$56                    global_action
     00001094  C$global_action.c$3$0_0$141        global_action
     00001094  C$global_action.c$5$1_0$141        global_action
     00001094  G$check_global_input$0$0           global_action
     00001094  _check_global_input                global_action
     00001097  A$lcc2201215$60                    global_action
     00001097  C$global_action.c$8$1_0$141        global_action
     0000109A  A$lcc2201215$68                    global_action
     0000109A  C$global_action.c$9$1_0$141        global_action
     0000109A  XG$check_global_input$0$0          global_action
     0000109B  A$lcc2201216$58                    load
     0000109B  C$load.c$8$0_0$131                 load
     0000109B  G$load_actor_tiles$0$0             load
     0000109B  _load_actor_tiles                  load
     0000109D  A$lcc2201216$59                    load
     0000109F  A$lcc2201216$60                    load
     000010A0  A$lcc2201216$61                    load
     000010A1  A$lcc2201216$62                    load
     000010A2  A$lcc2201216$66                    load
     000010A2  C$load.c$9$2_0$131                 load
     000010A5  A$lcc2201216$67                    load
     000010A7  A$lcc2201216$68                    load
     000010A8  A$lcc2201216$72                    load
     000010A8  C$load.c$12$1_0$131                load
     000010AA  A$lcc2201216$73                    load
     000010AC  A$lcc2201216$75                    load
     000010AE  A$lcc2201216$76                    load
     000010AF  A$lcc2201216$77                    load
     000010B1  A$lcc2201216$78                    load
     000010B2  A$lcc2201216$79                    load
     000010B4  A$lcc2201216$83                    load
     000010B4  C$load.c$13$3_0$133                load
     000010B6  A$lcc2201216$84                    load
     000010B7  A$lcc2201216$85                    load
     000010B8  A$lcc2201216$86                    load
     000010B9  A$lcc2201216$87                    load
     000010BA  A$lcc2201216$88                    load
     000010BB  A$lcc2201216$89                    load
     000010BC  A$lcc2201216$90                    load
     000010BD  A$lcc2201216$91                    load
     000010BE  A$lcc2201216$92                    load
     000010BF  A$lcc2201216$93                    load
     000010C1  A$lcc2201216$94                    load
     000010C2  A$lcc2201216$95                    load
     000010C3  A$lcc2201216$96                    load
     000010C4  A$lcc2201216$97                    load
     000010C5  A$lcc2201216$98                    load
ASxxxx Linker V03.00/V05.40 + sdld,  page 35.
Hexadecimal  [32-Bits]

Area                                    Addr        Size        Decimal Bytes (Attributes)
--------------------------------        ----        ----        ------- ----- ------------
_CODE                               00000200    000015FF =        5631. bytes (REL,CON)

      Value  Global                              Global Defined In Module
      -----  --------------------------------   ------------------------
     000010C7  A$lcc2201216$99                    load
     000010C8  A$lcc2201216$100                   load
     000010CA  A$lcc2201216$101                   load
     000010CB  A$lcc2201216$102                   load
     000010CD  A$lcc2201216$103                   load
     000010CE  A$lcc2201216$104                   load
     000010CF  A$lcc2201216$105                   load
     000010D0  A$lcc2201216$106                   load
     000010D1  A$lcc2201216$107                   load
     000010D3  A$lcc2201216$108                   load
     000010D4  A$lcc2201216$109                   load
     000010D5  A$lcc2201216$110                   load
     000010D6  A$lcc2201216$111                   load
     000010D7  A$lcc2201216$112                   load
     000010DA  A$lcc2201216$113                   load
     000010DC  A$lcc2201216$117                   load
     000010DC  C$load.c$12$2_0$132                load
     000010DE  A$lcc2201216$118                   load
     000010DF  A$lcc2201216$119                   load
     000010E1  A$lcc2201216$124                   load
     000010E1  C$load.c$17$1_0$131                load
     000010E4  A$lcc2201216$125                   load
     000010E6  A$lcc2201216$126                   load
     000010E7  A$lcc2201216$127                   load
     000010E8  A$lcc2201216$128                   load
     000010E9  A$lcc2201216$129                   load
     000010EA  A$lcc2201216$130                   load
     000010EB  A$lcc2201216$131                   load
     000010EC  A$lcc2201216$132                   load
     000010EE  A$lcc2201216$133                   load
     000010EF  A$lcc2201216$134                   load
     000010F0  A$lcc2201216$138                   load
     000010F0  C$load.c$18$1_0$131                load
     000010F3  A$lcc2201216$139                   load
     000010F5  A$lcc2201216$140                   load
     000010F6  A$lcc2201216$141                   load
     000010F7  A$lcc2201216$142                   load
     000010F8  A$lcc2201216$143                   load
     000010F9  A$lcc2201216$144                   load
     000010FA  A$lcc2201216$145                   load
     000010FB  A$lcc2201216$146                   load
     000010FD  A$lcc2201216$147                   load
     000010FE  A$lcc2201216$148                   load
     000010FF  A$lcc2201216$149                   load
     00001100  A$lcc2201216$150                   load
     00001102  A$lcc2201216$151                   load
     00001103  A$lcc2201216$152                   load
     00001104  A$lcc2201216$153                   load
     00001105  A$lcc2201216$154                   load
     00001106  A$lcc2201216$155                   load
     00001108  A$lcc2201216$156                   load
ASxxxx Linker V03.00/V05.40 + sdld,  page 36.
Hexadecimal  [32-Bits]

Area                                    Addr        Size        Decimal Bytes (Attributes)
--------------------------------        ----        ----        ------- ----- ------------
_CODE                               00000200    000015FF =        5631. bytes (REL,CON)

      Value  Global                              Global Defined In Module
      -----  --------------------------------   ------------------------
     00001109  A$lcc2201216$157                   load
     0000110A  A$lcc2201216$161                   load
     0000110A  C$load.c$21$1_0$131                load
     0000110D  A$lcc2201216$162                   load
     0000110F  A$lcc2201216$163                   load
     00001110  A$lcc2201216$164                   load
     00001113  A$lcc2201216$168                   load
     00001113  C$load.c$23$1_0$131                load
     00001115  A$lcc2201216$169                   load
     00001116  A$lcc2201216$173                   load
     00001116  C$load.c$24$1_0$131                load
     00001118  A$lcc2201216$174                   load
     00001119  A$lcc2201216$175                   load
     0000111A  A$lcc2201216$176                   load
     0000111B  A$lcc2201216$189                   load
     0000111B  C$load.c$26$1_0$135                load
     0000111B  C$load.c$27$3_0$137                load
     0000111B  G$reset_render_component$0$0       load
     0000111B  _reset_render_component            load
     0000111E  A$lcc2201216$191                   load
     00001121  A$lcc2201216$192                   load
     00001122  A$lcc2201216$193                   load
     00001123  A$lcc2201216$194                   load
     00001124  A$lcc2201216$195                   load
     00001125  A$lcc2201216$196                   load
     00001126  A$lcc2201216$197                   load
     00001128  A$lcc2201216$201                   load
     00001128  C$load.c$28$3_0$137                load
     0000112B  A$lcc2201216$202                   load
     0000112C  A$lcc2201216$203                   load
     0000112E  A$lcc2201216$207                   load
     0000112E  C$load.c$29$3_0$137                load
     00001131  A$lcc2201216$208                   load
     00001132  A$lcc2201216$209                   load
     00001134  A$lcc2201216$213                   load
     00001134  C$load.c$27$2_0$136                load
     00001135  A$lcc2201216$214                   load
     00001137  A$lcc2201216$219                   load
     00001137  C$load.c$32$1_0$135                load
     00001138  A$lcc2201216$220                   load
     0000113B  A$lcc2201216$228                   load
     0000113B  C$load.c$33$1_0$135                load
     0000113B  XG$reset_render_component$0$0      load
     0000113C  A$lcc2201217$57                    map_scenes
     0000113C  C$map_scenes.c$10$2_0$33           map_scenes
     0000113C  C$map_scenes.c$8$0_0$33            map_scenes
     0000113C  G$scene_manager_MapScene$0$0       map_scenes
     0000113C  _scene_manager_MapScene            map_scenes
     0000113E  A$lcc2201217$58                    map_scenes
     00001140  A$lcc2201217$59                    map_scenes
     00001142  A$lcc2201217$60                    map_scenes
ASxxxx Linker V03.00/V05.40 + sdld,  page 37.
Hexadecimal  [32-Bits]

Area                                    Addr        Size        Decimal Bytes (Attributes)
--------------------------------        ----        ----        ------- ----- ------------
_CODE                               00000200    000015FF =        5631. bytes (REL,CON)

      Value  Global                              Global Defined In Module
      -----  --------------------------------   ------------------------
     00001144  A$lcc2201217$61                    map_scenes
     00001146  A$lcc2201217$69                    map_scenes
     00001146  C$map_scenes.c$12$3_0$34           map_scenes
     00001146  C$map_scenes.c$13$3_0$34           map_scenes
     00001149  A$lcc2201217$73                    map_scenes
     00001149  C$map_scenes.c$14$3_0$34           map_scenes
     0000114C  A$lcc2201217$74                    map_scenes
     0000114D  A$lcc2201217$82                    map_scenes
     0000114D  C$map_scenes.c$15$3_0$34           map_scenes
     0000114D  C$map_scenes.c$16$3_0$34           map_scenes
     00001150  A$lcc2201217$86                    map_scenes
     00001150  C$map_scenes.c$17$3_0$34           map_scenes
     00001153  A$lcc2201217$87                    map_scenes
     00001154  A$lcc2201217$95                    map_scenes
     00001154  C$map_scenes.c$18$3_0$34           map_scenes
     00001154  C$map_scenes.c$19$3_0$34           map_scenes
     00001157  A$lcc2201217$106                   map_scenes
     00001157  C$map_scenes.c$20$2_0$33           map_scenes
     00001157  C$map_scenes.c$21$2_0$33           map_scenes
     00001157  XG$scene_manager_MapScene$0$0      map_scenes
     00001158  A$lcc2201218$62                    player
     00001158  C$player.c$6$0_0$135               player
     00001158  G$init_player$0$0                  player
     00001158  _init_player                       player
     0000115A  A$lcc2201218$66                    player
     0000115A  C$player.c$8$1_0$135               player
     0000115D  A$lcc2201218$67                    player
     00001160  A$lcc2201218$68                    player
     00001161  A$lcc2201218$69                    player
     00001162  A$lcc2201218$70                    player
     00001163  A$lcc2201218$74                    player
     00001163  C$player.c$10$1_0$135              player
     00001166  A$lcc2201218$75                    player
     00001167  A$lcc2201218$76                    player
     00001168  A$lcc2201218$77                    player
     00001169  A$lcc2201218$78                    player
     0000116A  A$lcc2201218$79                    player
     0000116C  A$lcc2201218$83                    player
     0000116C  C$player.c$11$1_0$135              player
     0000116F  A$lcc2201218$84                    player
     00001172  A$lcc2201218$85                    player
     00001173  A$lcc2201218$86                    player
     00001174  A$lcc2201218$87                    player
     00001177  A$lcc2201218$88                    player
     00001178  A$lcc2201218$89                    player
     0000117A  A$lcc2201218$93                    player
     0000117A  C$player.c$13$1_0$135              player
     0000117D  A$lcc2201218$94                    player
     00001180  A$lcc2201218$95                    player
     00001181  A$lcc2201218$96                    player
     00001182  A$lcc2201218$97                    player
ASxxxx Linker V03.00/V05.40 + sdld,  page 38.
Hexadecimal  [32-Bits]

Area                                    Addr        Size        Decimal Bytes (Attributes)
--------------------------------        ----        ----        ------- ----- ------------
_CODE                               00000200    000015FF =        5631. bytes (REL,CON)

      Value  Global                              Global Defined In Module
      -----  --------------------------------   ------------------------
     00001183  A$lcc2201218$98                    player
     00001185  A$lcc2201218$99                    player
     00001187  A$lcc2201218$100                   player
     00001188  A$lcc2201218$101                   player
     00001189  A$lcc2201218$102                   player
     0000118B  A$lcc2201218$103                   player
     0000118C  A$lcc2201218$104                   player
     0000118D  A$lcc2201218$105                   player
     00001190  A$lcc2201218$106                   player
     00001191  A$lcc2201218$107                   player
     00001192  A$lcc2201218$108                   player
     00001193  A$lcc2201218$109                   player
     00001194  A$lcc2201218$110                   player
     00001195  A$lcc2201218$111                   player
     00001196  A$lcc2201218$112                   player
     00001197  A$lcc2201218$113                   player
     00001198  A$lcc2201218$117                   player
     00001198  C$player.c$14$1_0$135              player
     0000119B  A$lcc2201218$118                   player
     0000119E  A$lcc2201218$119                   player
     0000119F  A$lcc2201218$120                   player
     000011A0  A$lcc2201218$121                   player
     000011A1  A$lcc2201218$122                   player
     000011A3  A$lcc2201218$123                   player
     000011A5  A$lcc2201218$124                   player
     000011A6  A$lcc2201218$125                   player
     000011A7  A$lcc2201218$126                   player
     000011A9  A$lcc2201218$127                   player
     000011AA  A$lcc2201218$128                   player
     000011AB  A$lcc2201218$129                   player
     000011AE  A$lcc2201218$130                   player
     000011AF  A$lcc2201218$131                   player
     000011B2  A$lcc2201218$132                   player
     000011B3  A$lcc2201218$133                   player
     000011B4  A$lcc2201218$134                   player
     000011B5  A$lcc2201218$135                   player
     000011B6  A$lcc2201218$136                   player
     000011B7  A$lcc2201218$137                   player
     000011B8  A$lcc2201218$138                   player
     000011B9  A$lcc2201218$142                   player
     000011B9  C$player.c$16$1_0$135              player
     000011BC  A$lcc2201218$143                   player
     000011BF  A$lcc2201218$144                   player
     000011C2  A$lcc2201218$145                   player
     000011C3  A$lcc2201218$146                   player
     000011C4  A$lcc2201218$147                   player
     000011C5  A$lcc2201218$148                   player
     000011C7  A$lcc2201218$152                   player
     000011C7  C$player.c$17$1_0$135              player
     000011CA  A$lcc2201218$153                   player
     000011CD  A$lcc2201218$154                   player
ASxxxx Linker V03.00/V05.40 + sdld,  page 39.
Hexadecimal  [32-Bits]

Area                                    Addr        Size        Decimal Bytes (Attributes)
--------------------------------        ----        ----        ------- ----- ------------
_CODE                               00000200    000015FF =        5631. bytes (REL,CON)

      Value  Global                              Global Defined In Module
      -----  --------------------------------   ------------------------
     000011CE  A$lcc2201218$155                   player
     000011CF  A$lcc2201218$156                   player
     000011D2  A$lcc2201218$157                   player
     000011D3  A$lcc2201218$158                   player
     000011D5  A$lcc2201218$162                   player
     000011D5  C$player.c$18$1_0$135              player
     000011D6  A$lcc2201218$163                   player
     000011D9  A$lcc2201218$164                   player
     000011DC  A$lcc2201218$165                   player
     000011DD  A$lcc2201218$166                   player
     000011DE  A$lcc2201218$167                   player
     000011DF  A$lcc2201218$168                   player
     000011E1  A$lcc2201218$172                   player
     000011E1  C$player.c$21$2_0$136              player
     000011E3  A$lcc2201218$173                   player
     000011E5  A$lcc2201218$174                   player
     000011E6  A$lcc2201218$175                   player
     000011E8  A$lcc2201218$176                   player
     000011E9  A$lcc2201218$177                   player
     000011EB  A$lcc2201218$178                   player
     000011EC  A$lcc2201218$179                   player
     000011EE  A$lcc2201218$180                   player
     000011EF  A$lcc2201218$181                   player
     000011F1  A$lcc2201218$182                   player
     000011F2  A$lcc2201218$183                   player
     000011F4  A$lcc2201218$184                   player
     000011F5  A$lcc2201218$185                   player
     000011F8  A$lcc2201218$186                   player
     000011F9  A$lcc2201218$187                   player
     000011FA  A$lcc2201218$188                   player
     000011FB  A$lcc2201218$192                   player
     000011FB  C$player.c$27$2_0$136              player
     000011FC  A$lcc2201218$193                   player
     000011FE  A$lcc2201218$194                   player
     000011FF  A$lcc2201218$195                   player
     00001201  A$lcc2201218$196                   player
     00001202  A$lcc2201218$197                   player
     00001204  A$lcc2201218$198                   player
     00001205  A$lcc2201218$199                   player
     00001207  A$lcc2201218$200                   player
     00001208  A$lcc2201218$201                   player
     0000120A  A$lcc2201218$202                   player
     0000120B  A$lcc2201218$203                   player
     0000120D  A$lcc2201218$204                   player
     0000120E  A$lcc2201218$205                   player
     00001210  A$lcc2201218$206                   player
     00001211  A$lcc2201218$207                   player
     00001213  A$lcc2201218$208                   player
     00001214  A$lcc2201218$209                   player
     00001216  A$lcc2201218$210                   player
     00001217  A$lcc2201218$211                   player
ASxxxx Linker V03.00/V05.40 + sdld,  page 40.
Hexadecimal  [32-Bits]

Area                                    Addr        Size        Decimal Bytes (Attributes)
--------------------------------        ----        ----        ------- ----- ------------
_CODE                               00000200    000015FF =        5631. bytes (REL,CON)

      Value  Global                              Global Defined In Module
      -----  --------------------------------   ------------------------
     00001219  A$lcc2201218$212                   player
     0000121A  A$lcc2201218$213                   player
     0000121C  A$lcc2201218$214                   player
     0000121D  A$lcc2201218$215                   player
     0000121F  A$lcc2201218$216                   player
     00001220  A$lcc2201218$217                   player
     00001222  A$lcc2201218$218                   player
     00001223  A$lcc2201218$219                   player
     00001225  A$lcc2201218$220                   player
     00001226  A$lcc2201218$221                   player
     00001227  A$lcc2201218$222                   player
     00001228  A$lcc2201218$223                   player
     00001229  A$lcc2201218$224                   player
     0000122A  A$lcc2201218$225                   player
     0000122C  A$lcc2201218$226                   player
     0000122D  A$lcc2201218$227                   player
     0000122F  A$lcc2201218$228                   player
     00001230  A$lcc2201218$229                   player
     00001232  A$lcc2201218$230                   player
     00001233  A$lcc2201218$231                   player
     00001235  A$lcc2201218$232                   player
     00001236  A$lcc2201218$233                   player
     00001238  A$lcc2201218$234                   player
     00001239  A$lcc2201218$235                   player
     0000123B  A$lcc2201218$236                   player
     0000123C  A$lcc2201218$237                   player
     0000123E  A$lcc2201218$238                   player
     0000123F  A$lcc2201218$239                   player
     00001241  A$lcc2201218$240                   player
     00001242  A$lcc2201218$241                   player
     00001244  A$lcc2201218$242                   player
     00001245  A$lcc2201218$243                   player
     00001247  A$lcc2201218$244                   player
     00001248  A$lcc2201218$245                   player
     0000124A  A$lcc2201218$246                   player
     0000124B  A$lcc2201218$247                   player
     0000124D  A$lcc2201218$248                   player
     0000124E  A$lcc2201218$249                   player
     00001250  A$lcc2201218$250                   player
     00001251  A$lcc2201218$251                   player
     00001253  A$lcc2201218$252                   player
     00001254  A$lcc2201218$253                   player
     00001255  A$lcc2201218$254                   player
     00001256  A$lcc2201218$255                   player
     00001257  A$lcc2201218$259                   player
     00001257  C$player.c$50$2_0$136              player
     00001258  A$lcc2201218$260                   player
     0000125A  A$lcc2201218$261                   player
     0000125B  A$lcc2201218$262                   player
     0000125D  A$lcc2201218$263                   player
     0000125E  A$lcc2201218$264                   player
ASxxxx Linker V03.00/V05.40 + sdld,  page 41.
Hexadecimal  [32-Bits]

Area                                    Addr        Size        Decimal Bytes (Attributes)
--------------------------------        ----        ----        ------- ----- ------------
_CODE                               00000200    000015FF =        5631. bytes (REL,CON)

      Value  Global                              Global Defined In Module
      -----  --------------------------------   ------------------------
     00001260  A$lcc2201218$265                   player
     00001261  A$lcc2201218$266                   player
     00001263  A$lcc2201218$267                   player
     00001264  A$lcc2201218$268                   player
     00001266  A$lcc2201218$269                   player
     00001267  A$lcc2201218$270                   player
     00001269  A$lcc2201218$271                   player
     0000126A  A$lcc2201218$272                   player
     0000126D  A$lcc2201218$273                   player
     0000126E  A$lcc2201218$274                   player
     0000126F  A$lcc2201218$275                   player
     00001270  A$lcc2201218$279                   player
     00001270  C$player.c$56$2_0$136              player
     00001271  A$lcc2201218$280                   player
     00001273  A$lcc2201218$281                   player
     00001274  A$lcc2201218$282                   player
     00001276  A$lcc2201218$283                   player
     00001277  A$lcc2201218$284                   player
     00001279  A$lcc2201218$285                   player
     0000127A  A$lcc2201218$286                   player
     0000127C  A$lcc2201218$287                   player
     0000127D  A$lcc2201218$288                   player
     0000127F  A$lcc2201218$289                   player
     00001280  A$lcc2201218$290                   player
     00001282  A$lcc2201218$291                   player
     00001283  A$lcc2201218$292                   player
     00001285  A$lcc2201218$293                   player
     00001286  A$lcc2201218$294                   player
     00001288  A$lcc2201218$295                   player
     00001289  A$lcc2201218$296                   player
     0000128B  A$lcc2201218$297                   player
     0000128C  A$lcc2201218$298                   player
     0000128E  A$lcc2201218$299                   player
     0000128F  A$lcc2201218$300                   player
     00001291  A$lcc2201218$301                   player
     00001292  A$lcc2201218$302                   player
     00001294  A$lcc2201218$303                   player
     00001295  A$lcc2201218$304                   player
     00001297  A$lcc2201218$305                   player
     00001298  A$lcc2201218$306                   player
     0000129A  A$lcc2201218$307                   player
     0000129B  A$lcc2201218$308                   player
     0000129C  A$lcc2201218$309                   player
     0000129D  A$lcc2201218$310                   player
     0000129E  A$lcc2201218$311                   player
     0000129F  A$lcc2201218$312                   player
     000012A1  A$lcc2201218$313                   player
     000012A2  A$lcc2201218$314                   player
     000012A4  A$lcc2201218$315                   player
     000012A5  A$lcc2201218$316                   player
     000012A7  A$lcc2201218$317                   player
ASxxxx Linker V03.00/V05.40 + sdld,  page 42.
Hexadecimal  [32-Bits]

Area                                    Addr        Size        Decimal Bytes (Attributes)
--------------------------------        ----        ----        ------- ----- ------------
_CODE                               00000200    000015FF =        5631. bytes (REL,CON)

      Value  Global                              Global Defined In Module
      -----  --------------------------------   ------------------------
     000012A8  A$lcc2201218$318                   player
     000012AA  A$lcc2201218$319                   player
     000012AB  A$lcc2201218$320                   player
     000012AD  A$lcc2201218$321                   player
     000012AE  A$lcc2201218$322                   player
     000012B0  A$lcc2201218$323                   player
     000012B1  A$lcc2201218$324                   player
     000012B3  A$lcc2201218$325                   player
     000012B4  A$lcc2201218$326                   player
     000012B6  A$lcc2201218$327                   player
     000012B7  A$lcc2201218$328                   player
     000012B9  A$lcc2201218$329                   player
     000012BA  A$lcc2201218$330                   player
     000012BC  A$lcc2201218$331                   player
     000012BD  A$lcc2201218$332                   player
     000012BF  A$lcc2201218$333                   player
     000012C0  A$lcc2201218$334                   player
     000012C2  A$lcc2201218$335                   player
     000012C3  A$lcc2201218$336                   player
     000012C5  A$lcc2201218$337                   player
     000012C6  A$lcc2201218$338                   player
     000012C8  A$lcc2201218$339                   player
     000012C9  A$lcc2201218$340                   player
     000012CA  A$lcc2201218$341                   player
     000012CB  A$lcc2201218$342                   player
     000012CC  A$lcc2201218$346                   player
     000012CC  C$player.c$78$1_1$136              player
     000012CF  A$lcc2201218$347                   player
     000012D0  A$lcc2201218$348                   player
     000012D1  A$lcc2201218$349                   player
     000012D2  A$lcc2201218$350                   player
     000012D3  A$lcc2201218$351                   player
     000012D4  A$lcc2201218$352                   player
     000012D5  A$lcc2201218$353                   player
     000012D6  A$lcc2201218$354                   player
     000012D7  A$lcc2201218$355                   player
     000012D8  A$lcc2201218$356                   player
     000012D9  A$lcc2201218$357                   player
     000012DA  A$lcc2201218$358                   player
     000012DB  A$lcc2201218$359                   player
     000012DC  A$lcc2201218$360                   player
     000012DF  A$lcc2201218$361                   player
     000012E0  A$lcc2201218$362                   player
     000012E1  A$lcc2201218$363                   player
     000012E2  A$lcc2201218$364                   player
     000012E5  A$lcc2201218$365                   player
     000012E6  A$lcc2201218$366                   player
     000012E8  A$lcc2201218$367                   player
     000012E9  A$lcc2201218$368                   player
     000012EA  A$lcc2201218$369                   player
     000012ED  A$lcc2201218$370                   player
ASxxxx Linker V03.00/V05.40 + sdld,  page 43.
Hexadecimal  [32-Bits]

Area                                    Addr        Size        Decimal Bytes (Attributes)
--------------------------------        ----        ----        ------- ----- ------------
_CODE                               00000200    000015FF =        5631. bytes (REL,CON)

      Value  Global                              Global Defined In Module
      -----  --------------------------------   ------------------------
     000012EE  A$lcc2201218$371                   player
     000012EF  A$lcc2201218$372                   player
     000012F0  A$lcc2201218$373                   player
     000012F1  A$lcc2201218$374                   player
     000012F2  A$lcc2201218$375                   player
     000012F5  A$lcc2201218$376                   player
     000012F6  A$lcc2201218$377                   player
     000012F9  A$lcc2201218$378                   player
     000012FA  A$lcc2201218$379                   player
     000012FD  A$lcc2201218$383                   player
     000012FD  C$player.c$79$1_1$136              player
     00001300  A$lcc2201218$384                   player
     00001301  A$lcc2201218$385                   player
     00001302  A$lcc2201218$386                   player
     00001303  A$lcc2201218$387                   player
     00001304  A$lcc2201218$388                   player
     00001305  A$lcc2201218$389                   player
     00001306  A$lcc2201218$390                   player
     00001307  A$lcc2201218$391                   player
     00001308  A$lcc2201218$392                   player
     00001309  A$lcc2201218$393                   player
     0000130A  A$lcc2201218$394                   player
     0000130B  A$lcc2201218$395                   player
     0000130C  A$lcc2201218$396                   player
     0000130D  A$lcc2201218$397                   player
     00001310  A$lcc2201218$398                   player
     00001311  A$lcc2201218$399                   player
     00001312  A$lcc2201218$400                   player
     00001313  A$lcc2201218$401                   player
     00001316  A$lcc2201218$402                   player
     00001317  A$lcc2201218$403                   player
     00001319  A$lcc2201218$404                   player
     0000131A  A$lcc2201218$405                   player
     0000131B  A$lcc2201218$406                   player
     0000131E  A$lcc2201218$407                   player
     0000131F  A$lcc2201218$408                   player
     00001320  A$lcc2201218$409                   player
     00001322  A$lcc2201218$410                   player
     00001323  A$lcc2201218$411                   player
     00001324  A$lcc2201218$412                   player
     00001327  A$lcc2201218$413                   player
     00001328  A$lcc2201218$414                   player
     0000132B  A$lcc2201218$415                   player
     0000132C  A$lcc2201218$416                   player
     0000132F  A$lcc2201218$420                   player
     0000132F  C$player.c$80$1_1$136              player
     00001332  A$lcc2201218$421                   player
     00001333  A$lcc2201218$422                   player
     00001334  A$lcc2201218$423                   player
     00001335  A$lcc2201218$424                   player
     00001336  A$lcc2201218$425                   player
ASxxxx Linker V03.00/V05.40 + sdld,  page 44.
Hexadecimal  [32-Bits]

Area                                    Addr        Size        Decimal Bytes (Attributes)
--------------------------------        ----        ----        ------- ----- ------------
_CODE                               00000200    000015FF =        5631. bytes (REL,CON)

      Value  Global                              Global Defined In Module
      -----  --------------------------------   ------------------------
     00001337  A$lcc2201218$426                   player
     00001338  A$lcc2201218$427                   player
     00001339  A$lcc2201218$428                   player
     0000133A  A$lcc2201218$429                   player
     0000133B  A$lcc2201218$430                   player
     0000133C  A$lcc2201218$431                   player
     0000133D  A$lcc2201218$432                   player
     0000133E  A$lcc2201218$433                   player
     0000133F  A$lcc2201218$434                   player
     00001342  A$lcc2201218$435                   player
     00001343  A$lcc2201218$436                   player
     00001344  A$lcc2201218$437                   player
     00001345  A$lcc2201218$438                   player
     00001348  A$lcc2201218$439                   player
     00001349  A$lcc2201218$440                   player
     0000134B  A$lcc2201218$441                   player
     0000134C  A$lcc2201218$442                   player
     0000134D  A$lcc2201218$443                   player
     00001350  A$lcc2201218$444                   player
     00001351  A$lcc2201218$445                   player
     00001352  A$lcc2201218$446                   player
     00001354  A$lcc2201218$447                   player
     00001355  A$lcc2201218$448                   player
     00001356  A$lcc2201218$449                   player
     00001359  A$lcc2201218$450                   player
     0000135A  A$lcc2201218$451                   player
     0000135D  A$lcc2201218$452                   player
     0000135E  A$lcc2201218$453                   player
     00001361  A$lcc2201218$457                   player
     00001361  C$player.c$81$1_1$136              player
     00001364  A$lcc2201218$458                   player
     00001365  A$lcc2201218$459                   player
     00001366  A$lcc2201218$460                   player
     00001367  A$lcc2201218$461                   player
     00001368  A$lcc2201218$462                   player
     00001369  A$lcc2201218$463                   player
     0000136A  A$lcc2201218$464                   player
     0000136B  A$lcc2201218$465                   player
     0000136C  A$lcc2201218$466                   player
     0000136D  A$lcc2201218$467                   player
     0000136E  A$lcc2201218$468                   player
     0000136F  A$lcc2201218$469                   player
     00001370  A$lcc2201218$470                   player
     00001371  A$lcc2201218$471                   player
     00001374  A$lcc2201218$472                   player
     00001375  A$lcc2201218$473                   player
     00001376  A$lcc2201218$474                   player
     00001377  A$lcc2201218$475                   player
     0000137A  A$lcc2201218$476                   player
     0000137B  A$lcc2201218$477                   player
     0000137D  A$lcc2201218$478                   player
ASxxxx Linker V03.00/V05.40 + sdld,  page 45.
Hexadecimal  [32-Bits]

Area                                    Addr        Size        Decimal Bytes (Attributes)
--------------------------------        ----        ----        ------- ----- ------------
_CODE                               00000200    000015FF =        5631. bytes (REL,CON)

      Value  Global                              Global Defined In Module
      -----  --------------------------------   ------------------------
     0000137E  A$lcc2201218$479                   player
     0000137F  A$lcc2201218$480                   player
     00001382  A$lcc2201218$481                   player
     00001383  A$lcc2201218$482                   player
     00001384  A$lcc2201218$483                   player
     00001386  A$lcc2201218$484                   player
     00001387  A$lcc2201218$485                   player
     00001388  A$lcc2201218$486                   player
     0000138B  A$lcc2201218$487                   player
     0000138C  A$lcc2201218$488                   player
     0000138F  A$lcc2201218$489                   player
     00001390  A$lcc2201218$490                   player
     00001393  A$lcc2201218$494                   player
     00001393  C$player.c$83$1_1$136              player
     00001396  A$lcc2201218$498                   player
     00001396  C$player.c$84$1_1$136              player
     00001397  A$lcc2201218$499                   player
     00001398  A$lcc2201218$500                   player
     0000139A  A$lcc2201218$504                   player
     0000139A  C$player.c$85$1_1$136              player
     0000139D  A$lcc2201218$505                   player
     0000139F  A$lcc2201218$509                   player
     0000139F  C$player.c$86$1_1$136              player
     000013A2  A$lcc2201218$510                   player
     000013A4  A$lcc2201218$514                   player
     000013A4  C$player.c$88$1_1$136              player
     000013A7  A$lcc2201218$518                   player
     000013A9  A$lcc2201218$523                   player
     000013A9  C$player.c$89$1_1$135              player
     000013A9  XG$init_player$0$0                 player
     000013AA  A$lcc2201220$59                    render
     000013AA  C$render.c$5$0_0$129               render
     000013AA  C$render.c$6$1_0$129               render
     000013AA  G$render_reset$0$0                 render
     000013AA  _render_reset                      render
     000013AD  A$lcc2201220$60                    render
     000013AE  A$lcc2201220$61                    render
     000013B0  A$lcc2201220$65                    render
     000013B0  C$render.c$7$1_0$129               render
     000013B3  A$lcc2201220$66                    render
     000013B4  A$lcc2201220$67                    render
     000013B6  A$lcc2201220$75                    render
     000013B6  C$render.c$8$1_0$129               render
     000013B6  XG$render_reset$0$0                render
     000013B7  A$lcc2201221$56                    scene
     000013B7  C$scene.c$6$0_0$26                 scene
     000013B7  C$scene.c$8$2_0$27                 scene
     000013B7  G$Scene_Destroy$0$0                scene
     000013B7  _Scene_Destroy                     scene
     000013BA  A$lcc2201221$57                    scene
     000013BB  A$lcc2201221$58                    scene
ASxxxx Linker V03.00/V05.40 + sdld,  page 46.
Hexadecimal  [32-Bits]

Area                                    Addr        Size        Decimal Bytes (Attributes)
--------------------------------        ----        ----        ------- ----- ------------
_CODE                               00000200    000015FF =        5631. bytes (REL,CON)

      Value  Global                              Global Defined In Module
      -----  --------------------------------   ------------------------
     000013BC  A$lcc2201221$59                    scene
     000013BD  A$lcc2201221$60                    scene
     000013BE  A$lcc2201221$61                    scene
     000013BF  A$lcc2201221$62                    scene
     000013C0  A$lcc2201221$63                    scene
     000013C1  A$lcc2201221$67                    scene
     000013C1  C$scene.c$9$2_0$27                 scene
     000013C2  A$lcc2201221$71                    scene
     000013C2  C$scene.c$11$1_0$26                scene
     000013C3  A$lcc2201221$72                    scene
     000013C4  A$lcc2201221$73                    scene
     000013C5  A$lcc2201221$74                    scene
     000013C8  A$lcc2201221$75                    scene
     000013C9  A$lcc2201221$79                    scene
     000013C9  C$scene.c$12$1_0$26                scene
     000013CA  A$lcc2201221$80                    scene
     000013CB  A$lcc2201221$81                    scene
     000013CC  A$lcc2201221$82                    scene
     000013CD  A$lcc2201221$90                    scene
     000013CD  C$scene.c$13$1_0$26                scene
     000013CD  XG$Scene_Destroy$0$0               scene
     000013CE  A$lcc2201222$62                    scene_manager
     000013CE  C$scene_manager.c$11$1_0$155       scene_manager
     000013CE  C$scene_manager.c$9$0_0$155        scene_manager
     000013CE  G$SceneManager_Create$0$0          scene_manager
     000013CE  _SceneManager_Create               scene_manager
     000013CF  A$lcc2201222$63                    scene_manager
     000013D2  A$lcc2201222$64                    scene_manager
     000013D5  A$lcc2201222$65                    scene_manager
     000013D6  A$lcc2201222$66                    scene_manager
     000013D9  A$lcc2201222$67                    scene_manager
     000013DA  A$lcc2201222$68                    scene_manager
     000013DB  A$lcc2201222$72                    scene_manager
     000013DB  C$scene_manager.c$13$1_0$155       scene_manager
     000013DC  A$lcc2201222$73                    scene_manager
     000013DD  A$lcc2201222$74                    scene_manager
     000013DE  A$lcc2201222$75                    scene_manager
     000013E1  A$lcc2201222$76                    scene_manager
     000013E2  A$lcc2201222$77                    scene_manager
     000013E3  A$lcc2201222$78                    scene_manager
     000013E4  A$lcc2201222$79                    scene_manager
     000013E5  A$lcc2201222$83                    scene_manager
     000013E5  C$scene_manager.c$14$1_0$155       scene_manager
     000013E8  A$lcc2201222$84                    scene_manager
     000013EB  A$lcc2201222$85                    scene_manager
     000013EC  A$lcc2201222$86                    scene_manager
     000013ED  A$lcc2201222$87                    scene_manager
     000013EE  A$lcc2201222$88                    scene_manager
     000013EF  A$lcc2201222$89                    scene_manager
     000013F1  A$lcc2201222$90                    scene_manager
     000013F2  A$lcc2201222$91                    scene_manager
ASxxxx Linker V03.00/V05.40 + sdld,  page 47.
Hexadecimal  [32-Bits]

Area                                    Addr        Size        Decimal Bytes (Attributes)
--------------------------------        ----        ----        ------- ----- ------------
_CODE                               00000200    000015FF =        5631. bytes (REL,CON)

      Value  Global                              Global Defined In Module
      -----  --------------------------------   ------------------------
     000013F4  A$lcc2201222$99                    scene_manager
     000013F4  C$scene_manager.c$15$1_0$155       scene_manager
     000013F4  XG$SceneManager_Create$0$0         scene_manager
     000013F5  A$lcc2201222$109                   scene_manager
     000013F5  C$scene_manager.c$17$1_0$157       scene_manager
     000013F5  G$SceneManager_ChangeScene$0$0     scene_manager
     000013F5  _SceneManager_ChangeScene          scene_manager
     000013F7  A$lcc2201222$110                   scene_manager
     000013F9  A$lcc2201222$111                   scene_manager
     000013FA  A$lcc2201222$112                   scene_manager
     000013FB  A$lcc2201222$113                   scene_manager
     000013FC  A$lcc2201222$114                   scene_manager
     000013FD  A$lcc2201222$115                   scene_manager
     000013FE  A$lcc2201222$119                   scene_manager
     00001401  A$lcc2201222$120                   scene_manager
     00001402  A$lcc2201222$121                   scene_manager
     00001403  A$lcc2201222$122                   scene_manager
     00001404  A$lcc2201222$123                   scene_manager
     00001405  A$lcc2201222$124                   scene_manager
     00001406  A$lcc2201222$125                   scene_manager
     00001407  A$lcc2201222$126                   scene_manager
     00001408  A$lcc2201222$127                   scene_manager
     00001409  A$lcc2201222$131                   scene_manager
     00001409  C$scene_manager.c$20$2_0$158       scene_manager
     0000140B  A$lcc2201222$135                   scene_manager
     0000140C  A$lcc2201222$136                   scene_manager
     0000140D  A$lcc2201222$137                   scene_manager
     0000140E  A$lcc2201222$138                   scene_manager
     0000140F  A$lcc2201222$139                   scene_manager
     00001410  A$lcc2201222$140                   scene_manager
     00001411  A$lcc2201222$141                   scene_manager
     00001412  A$lcc2201222$142                   scene_manager
     00001414  A$lcc2201222$143                   scene_manager
     00001417  A$lcc2201222$144                   scene_manager
     00001418  A$lcc2201222$145                   scene_manager
     00001419  A$lcc2201222$146                   scene_manager
     0000141A  A$lcc2201222$147                   scene_manager
     0000141B  A$lcc2201222$148                   scene_manager
     0000141C  A$lcc2201222$149                   scene_manager
     0000141E  A$lcc2201222$153                   scene_manager
     0000141E  C$scene_manager.c$23$2_0$159       scene_manager
     0000141F  A$lcc2201222$154                   scene_manager
     00001420  A$lcc2201222$155                   scene_manager
     00001423  A$lcc2201222$156                   scene_manager
     00001424  A$lcc2201222$157                   scene_manager
     00001425  A$lcc2201222$158                   scene_manager
     00001426  A$lcc2201222$159                   scene_manager
     00001427  A$lcc2201222$160                   scene_manager
     00001428  A$lcc2201222$166                   scene_manager
     00001428  C$scene_manager.c$25$1_0$157       scene_manager
     0000142B  A$lcc2201222$167                   scene_manager
ASxxxx Linker V03.00/V05.40 + sdld,  page 48.
Hexadecimal  [32-Bits]

Area                                    Addr        Size        Decimal Bytes (Attributes)
--------------------------------        ----        ----        ------- ----- ------------
_CODE                               00000200    000015FF =        5631. bytes (REL,CON)

      Value  Global                              Global Defined In Module
      -----  --------------------------------   ------------------------
     0000142C  A$lcc2201222$168                   scene_manager
     0000142D  A$lcc2201222$169                   scene_manager
     0000142E  A$lcc2201222$170                   scene_manager
     0000142F  A$lcc2201222$171                   scene_manager
     00001430  A$lcc2201222$172                   scene_manager
     00001431  A$lcc2201222$173                   scene_manager
     00001432  A$lcc2201222$174                   scene_manager
     00001434  A$lcc2201222$175                   scene_manager
     00001435  A$lcc2201222$176                   scene_manager
     00001438  A$lcc2201222$177                   scene_manager
     00001439  A$lcc2201222$178                   scene_manager
     0000143A  A$lcc2201222$179                   scene_manager
     0000143B  A$lcc2201222$180                   scene_manager
     0000143C  A$lcc2201222$181                   scene_manager
     0000143D  A$lcc2201222$182                   scene_manager
     0000143E  A$lcc2201222$183                   scene_manager
     0000143F  A$lcc2201222$184                   scene_manager
     00001440  A$lcc2201222$188                   scene_manager
     00001440  C$scene_manager.c$19$1_0$157       scene_manager
     00001443  A$lcc2201222$189                   scene_manager
     00001444  A$lcc2201222$190                   scene_manager
     00001445  A$lcc2201222$191                   scene_manager
     00001446  A$lcc2201222$192                   scene_manager
     00001447  A$lcc2201222$193                   scene_manager
     00001448  A$lcc2201222$194                   scene_manager
     00001449  A$lcc2201222$198                   scene_manager
     00001449  C$scene_manager.c$22$1_0$157       scene_manager
     0000144A  A$lcc2201222$199                   scene_manager
     0000144B  A$lcc2201222$200                   scene_manager
     0000144C  A$lcc2201222$201                   scene_manager
     0000144E  A$lcc2201222$202                   scene_manager
     0000144F  A$lcc2201222$203                   scene_manager
     00001450  A$lcc2201222$204                   scene_manager
     00001451  A$lcc2201222$208                   scene_manager
     00001451  C$scene_manager.c$27$1_0$157       scene_manager
     00001452  A$lcc2201222$209                   scene_manager
     00001453  A$lcc2201222$210                   scene_manager
     00001454  A$lcc2201222$211                   scene_manager
     00001455  A$lcc2201222$212                   scene_manager
     00001456  A$lcc2201222$213                   scene_manager
     00001457  A$lcc2201222$214                   scene_manager
     00001458  A$lcc2201222$215                   scene_manager
     00001459  A$lcc2201222$216                   scene_manager
     0000145A  A$lcc2201222$217                   scene_manager
     0000145B  A$lcc2201222$218                   scene_manager
     0000145C  A$lcc2201222$219                   scene_manager
     0000145D  A$lcc2201222$220                   scene_manager
     0000145E  A$lcc2201222$221                   scene_manager
     00001460  A$lcc2201222$222                   scene_manager
     00001461  A$lcc2201222$223                   scene_manager
     00001462  A$lcc2201222$224                   scene_manager
ASxxxx Linker V03.00/V05.40 + sdld,  page 49.
Hexadecimal  [32-Bits]

Area                                    Addr        Size        Decimal Bytes (Attributes)
--------------------------------        ----        ----        ------- ----- ------------
_CODE                               00000200    000015FF =        5631. bytes (REL,CON)

      Value  Global                              Global Defined In Module
      -----  --------------------------------   ------------------------
     00001463  A$lcc2201222$225                   scene_manager
     00001466  A$lcc2201222$229                   scene_manager
     00001466  C$scene_manager.c$29$1_0$157       scene_manager
     00001468  A$lcc2201222$230                   scene_manager
     0000146A  A$lcc2201222$231                   scene_manager
     0000146C  A$lcc2201222$236                   scene_manager
     0000146E  A$lcc2201222$241                   scene_manager
     0000146E  C$scene_manager.c$30$1_0$157       scene_manager
     0000146E  XG$SceneManager_ChangeScene$0$0    scene_manager
     0000146F  A$lcc2201223$61                    gender_select
     0000146F  C$gender_select.c$6$0_0$29         gender_select
     0000146F  C$gender_select.c$7$1_0$29         gender_select
     0000146F  G$GenderSelect_Create$0$0          gender_select
     0000146F  _GenderSelect_Create               gender_select
     00001472  A$lcc2201223$62                    gender_select
     00001474  A$lcc2201223$63                    gender_select
     00001475  A$lcc2201223$64                    gender_select
     00001477  A$lcc2201223$68                    gender_select
     00001477  C$gender_select.c$8$1_0$29         gender_select
     00001478  A$lcc2201223$69                    gender_select
     0000147A  A$lcc2201223$70                    gender_select
     0000147B  A$lcc2201223$71                    gender_select
     0000147D  A$lcc2201223$75                    gender_select
     0000147D  C$gender_select.c$10$1_0$29        gender_select
     00001480  A$lcc2201223$76                    gender_select
     00001481  A$lcc2201223$77                    gender_select
     00001482  A$lcc2201223$78                    gender_select
     00001483  A$lcc2201223$86                    gender_select
     00001483  C$gender_select.c$11$1_0$29        gender_select
     00001483  XG$GenderSelect_Create$0$0         gender_select
     00001484  A$lcc2201224$58                    gender_select_init
     00001484  C$gender_select_init.c$11$1_0$15   gender_select_init
     00001484  C$gender_select_init.c$9$0_0$154   gender_select_init
     00001484  G$GenderSelect_Init$0$0            gender_select_init
     00001484  _GenderSelect_Init                 gender_select_init
     00001485  A$lcc2201224$59                    gender_select_init
     00001488  A$lcc2201224$60                    gender_select_init
     0000148B  A$lcc2201224$61                    gender_select_init
     0000148C  A$lcc2201224$62                    gender_select_init
     0000148D  A$lcc2201224$63                    gender_select_init
     0000148E  A$lcc2201224$67                    gender_select_init
     0000148E  C$gender_select_init.c$12$2_0$15   gender_select_init
     0000148F  A$lcc2201224$68                    gender_select_init
     00001490  A$lcc2201224$72                    gender_select_init
     00001490  C$gender_select_init.c$13$2_0$15   gender_select_init
     00001491  A$lcc2201224$76                    gender_select_init
     00001491  C$gender_select_init.c$15$1_0$15   gender_select_init
     00001492  A$lcc2201224$77                    gender_select_init
     00001493  A$lcc2201224$81                    gender_select_init
     00001493  C$gender_select_init.c$16$1_0$15   gender_select_init
     00001496  A$lcc2201224$82                    gender_select_init
ASxxxx Linker V03.00/V05.40 + sdld,  page 50.
Hexadecimal  [32-Bits]

Area                                    Addr        Size        Decimal Bytes (Attributes)
--------------------------------        ----        ----        ------- ----- ------------
_CODE                               00000200    000015FF =        5631. bytes (REL,CON)

      Value  Global                              Global Defined In Module
      -----  --------------------------------   ------------------------
     00001497  A$lcc2201224$83                    gender_select_init
     00001498  A$lcc2201224$84                    gender_select_init
     00001499  A$lcc2201224$85                    gender_select_init
     0000149A  A$lcc2201224$89                    gender_select_init
     0000149A  C$gender_select_init.c$18$1_0$15   gender_select_init
     0000149D  A$lcc2201224$90                    gender_select_init
     0000149E  A$lcc2201224$91                    gender_select_init
     000014A1  A$lcc2201224$92                    gender_select_init
     000014A2  A$lcc2201224$93                    gender_select_init
     000014A5  A$lcc2201224$94                    gender_select_init
     000014A7  A$lcc2201224$98                    gender_select_init
     000014A7  C$gender_select_init.c$19$1_0$15   gender_select_init
     000014AA  A$lcc2201224$99                    gender_select_init
     000014AB  A$lcc2201224$100                   gender_select_init
     000014AE  A$lcc2201224$101                   gender_select_init
     000014AF  A$lcc2201224$102                   gender_select_init
     000014B0  A$lcc2201224$103                   gender_select_init
     000014B1  A$lcc2201224$104                   gender_select_init
     000014B2  A$lcc2201224$105                   gender_select_init
     000014B5  A$lcc2201224$106                   gender_select_init
     000014B7  A$lcc2201224$114                   gender_select_init
     000014B7  C$gender_select_init.c$20$1_0$15   gender_select_init
     000014B7  XG$GenderSelect_Init$0$0           gender_select_init
     000014B8  A$lcc2201225$62                    gender_select_update
     000014B8  C$gender_select_update.c$6$0_0$1   gender_select_update
     000014B8  C$gender_select_update.c$8$1_0$1   gender_select_update
     000014B8  C$gender_select_update.c$9$1_0$1   gender_select_update
     000014B8  G$GenderSelect_Update$0$0          gender_select_update
     000014B8  XG$GenderSelect_Update$0$0         gender_select_update
     000014B8  _GenderSelect_Update               gender_select_update
     000014B9  A$lcc2201226$61                    map_00
     000014B9  C$map_00.c$6$0_0$29                map_00
     000014B9  C$map_00.c$7$1_0$29                map_00
     000014B9  G$Map_00_Create$0$0                map_00
     000014B9  _Map_00_Create                     map_00
     000014BC  A$lcc2201226$62                    map_00
     000014BE  A$lcc2201226$63                    map_00
     000014BF  A$lcc2201226$64                    map_00
     000014C1  A$lcc2201226$68                    map_00
     000014C1  C$map_00.c$8$1_0$29                map_00
     000014C2  A$lcc2201226$69                    map_00
     000014C4  A$lcc2201226$70                    map_00
     000014C5  A$lcc2201226$71                    map_00
     000014C7  A$lcc2201226$75                    map_00
     000014C7  C$map_00.c$10$1_0$29               map_00
     000014CA  A$lcc2201226$76                    map_00
     000014CB  A$lcc2201226$77                    map_00
     000014CC  A$lcc2201226$78                    map_00
     000014CD  A$lcc2201226$86                    map_00
     000014CD  C$map_00.c$11$1_0$29               map_00
     000014CD  XG$Map_00_Create$0$0               map_00
ASxxxx Linker V03.00/V05.40 + sdld,  page 51.
Hexadecimal  [32-Bits]

Area                                    Addr        Size        Decimal Bytes (Attributes)
--------------------------------        ----        ----        ------- ----- ------------
_CODE                               00000200    000015FF =        5631. bytes (REL,CON)

      Value  Global                              Global Defined In Module
      -----  --------------------------------   ------------------------
     000014CE  A$lcc2201227$55                    map_00_init
     000014CE  C$map_00_init.c$9$0_0$154          map_00_init
     000014CE  G$Map_00_Init$0$0                  map_00_init
     000014CE  _Map_00_Init                       map_00_init
     000014CF  A$lcc2201227$59                    map_00_init
     000014CF  C$map_00_init.c$11$1_0$154         map_00_init
     000014D0  A$lcc2201227$60                    map_00_init
     000014D3  A$lcc2201227$61                    map_00_init
     000014D6  A$lcc2201227$62                    map_00_init
     000014D7  A$lcc2201227$66                    map_00_init
     000014D7  C$map_00_init.c$12$2_0$155         map_00_init
     000014D8  A$lcc2201227$67                    map_00_init
     000014D9  A$lcc2201227$71                    map_00_init
     000014D9  C$map_00_init.c$13$2_0$155         map_00_init
     000014DB  A$lcc2201227$75                    map_00_init
     000014DB  C$map_00_init.c$15$1_0$154         map_00_init
     000014DC  A$lcc2201227$76                    map_00_init
     000014DD  A$lcc2201227$77                    map_00_init
     000014DE  A$lcc2201227$78                    map_00_init
     000014E0  A$lcc2201227$79                    map_00_init
     000014E1  A$lcc2201227$80                    map_00_init
     000014E2  A$lcc2201227$81                    map_00_init
     000014E3  A$lcc2201227$82                    map_00_init
     000014E4  A$lcc2201227$83                    map_00_init
     000014E5  A$lcc2201227$84                    map_00_init
     000014E6  A$lcc2201227$88                    map_00_init
     000014E6  C$map_00_init.c$16$1_0$154         map_00_init
     000014E9  A$lcc2201227$89                    map_00_init
     000014EA  A$lcc2201227$90                    map_00_init
     000014EB  A$lcc2201227$91                    map_00_init
     000014EC  A$lcc2201227$92                    map_00_init
     000014ED  A$lcc2201227$96                    map_00_init
     000014ED  C$map_00_init.c$18$1_0$154         map_00_init
     000014F0  A$lcc2201227$97                    map_00_init
     000014F1  A$lcc2201227$98                    map_00_init
     000014F4  A$lcc2201227$99                    map_00_init
     000014F5  A$lcc2201227$100                   map_00_init
     000014F8  A$lcc2201227$101                   map_00_init
     000014FA  A$lcc2201227$105                   map_00_init
     000014FA  C$map_00_init.c$19$1_0$154         map_00_init
     000014FD  A$lcc2201227$106                   map_00_init
     000014FE  A$lcc2201227$107                   map_00_init
     00001501  A$lcc2201227$108                   map_00_init
     00001502  A$lcc2201227$109                   map_00_init
     00001503  A$lcc2201227$110                   map_00_init
     00001504  A$lcc2201227$111                   map_00_init
     00001505  A$lcc2201227$112                   map_00_init
     00001508  A$lcc2201227$113                   map_00_init
     0000150A  A$lcc2201227$118                   map_00_init
     0000150B  A$lcc2201227$119                   map_00_init
     0000150C  A$lcc2201227$124                   map_00_init
ASxxxx Linker V03.00/V05.40 + sdld,  page 52.
Hexadecimal  [32-Bits]

Area                                    Addr        Size        Decimal Bytes (Attributes)
--------------------------------        ----        ----        ------- ----- ------------
_CODE                               00000200    000015FF =        5631. bytes (REL,CON)

      Value  Global                              Global Defined In Module
      -----  --------------------------------   ------------------------
     0000150C  C$map_00_init.c$20$1_0$154         map_00_init
     0000150C  XG$Map_00_Init$0$0                 map_00_init
     0000150D  A$lcc2201228$58                    map_00_update
     0000150D  C$map_00_update.c$11$0_0$168       map_00_update
     0000150D  C$map_00_update.c$13$1_0$168       map_00_update
     0000150D  G$Map_00_Update$0$0                map_00_update
     0000150D  _Map_00_Update                     map_00_update
     0000150E  A$lcc2201228$59                    map_00_update
     00001511  A$lcc2201228$63                    map_00_update
     00001511  C$map_00_update.c$14$1_0$168       map_00_update
     00001514  A$lcc2201228$64                    map_00_update
     00001517  A$lcc2201228$65                    map_00_update
     00001518  A$lcc2201228$69                    map_00_update
     00001518  C$map_00_update.c$15$1_0$168       map_00_update
     0000151B  A$lcc2201228$70                    map_00_update
     0000151C  A$lcc2201228$71                    map_00_update
     0000151D  A$lcc2201228$72                    map_00_update
     0000151E  A$lcc2201228$73                    map_00_update
     0000151F  A$lcc2201228$74                    map_00_update
     00001520  A$lcc2201228$75                    map_00_update
     00001521  A$lcc2201228$76                    map_00_update
     00001522  A$lcc2201228$77                    map_00_update
     00001523  A$lcc2201228$78                    map_00_update
     00001524  A$lcc2201228$79                    map_00_update
     00001525  A$lcc2201228$80                    map_00_update
     00001526  A$lcc2201228$91                    map_00_update
     00001526  C$map_00_update.c$16$1_0$168       map_00_update
     00001526  C$map_00_update.c$17$1_0$168       map_00_update
     00001526  XG$Map_00_Update$0$0               map_00_update
     00001529  A$lcc2201229$61                    main
     00001529  C$main.c$16$0_0$178                main
     00001529  C$main.c$18$1_0$178                main
     00001529  G$main$0$0                         main
     00001529  _main                              main
     0000152B  A$lcc2201229$62                    main
     0000152D  A$lcc2201229$63                    main
     0000152F  A$lcc2201229$67                    main
     0000152F  C$main.c$19$1_0$178                main
     00001531  A$lcc2201229$68                    main
     00001533  A$lcc2201229$69                    main
     00001535  A$lcc2201229$73                    main
     00001535  C$main.c$28$1_1$179                main
     00001538  A$lcc2201229$74                    main
     0000153A  A$lcc2201229$75                    main
     0000153B  A$lcc2201229$76                    main
     0000153D  A$lcc2201229$80                    main
     0000153D  C$main.c$30$1_1$179                main
     00001540  A$lcc2201229$84                    main
     00001540  C$main.c$33$1_2$180                main
     00001543  A$lcc2201229$85                    main
     00001546  A$lcc2201229$89                    main
ASxxxx Linker V03.00/V05.40 + sdld,  page 53.
Hexadecimal  [32-Bits]

Area                                    Addr        Size        Decimal Bytes (Attributes)
--------------------------------        ----        ----        ------- ----- ------------
_CODE                               00000200    000015FF =        5631. bytes (REL,CON)

      Value  Global                              Global Defined In Module
      -----  --------------------------------   ------------------------
     00001546  C$main.c$35$1_2$180                main
     00001549  A$lcc2201229$90                    main
     0000154C  A$lcc2201229$91                    main
     0000154D  A$lcc2201229$92                    main
     0000154E  A$lcc2201229$93                    main
     0000154F  A$lcc2201229$94                    main
     00001550  A$lcc2201229$95                    main
     00001551  A$lcc2201229$96                    main
     00001552  A$lcc2201229$97                    main
     00001553  A$lcc2201229$98                    main
     00001556  A$lcc2201229$99                    main
     00001559  A$lcc2201229$100                   main
     0000155A  A$lcc2201229$101                   main
     0000155B  A$lcc2201229$102                   main
     0000155D  A$lcc2201229$103                   main
     0000155E  A$lcc2201229$104                   main
     0000155F  A$lcc2201229$105                   main
     00001562  A$lcc2201229$110                   main
     00001562  C$main.c$37$1_2$180                main
     00001565  A$lcc2201229$111                   main
     00001566  A$lcc2201229$112                   main
     00001567  A$lcc2201229$113                   main
     00001568  A$lcc2201229$117                   main
     00001568  C$main.c$39$2_2$181                main
     0000156B  A$lcc2201229$118                   main
     0000156C  A$lcc2201229$119                   main
     0000156D  A$lcc2201229$120                   main
     0000156E  A$lcc2201229$121                   main
     0000156F  A$lcc2201229$122                   main
     00001570  A$lcc2201229$123                   main
     00001571  A$lcc2201229$124                   main
     00001572  A$lcc2201229$125                   main
     00001573  A$lcc2201229$126                   main
     00001574  A$lcc2201229$127                   main
     00001575  A$lcc2201229$128                   main
     00001576  A$lcc2201229$129                   main
     00001577  A$lcc2201229$130                   main
     0000157A  A$lcc2201229$131                   main
     0000157B  A$lcc2201229$132                   main
     0000157C  A$lcc2201229$133                   main
     0000157D  A$lcc2201229$138                   main
     0000157D  C$main.c$41$2_2$181                main
     00001580  A$lcc2201229$146                   main
     00001580  C$main.c$43$1_2$178                main
     00001580  XG$main$0$0                        main
     00001582  _free                              free
     00001692  ___sdcc_heap_init                  malloc
     000016B4  _malloc                            malloc
     000017BA  __mulsuchar                        mul
     000017BD  __muluschar                        mul
     000017C6  __mulschar                         mul
ASxxxx Linker V03.00/V05.40 + sdld,  page 54.
Hexadecimal  [32-Bits]

Area                                    Addr        Size        Decimal Bytes (Attributes)
--------------------------------        ----        ----        ------- ----- ------------
_CODE                               00000200    000015FF =        5631. bytes (REL,CON)

      Value  Global                              Global Defined In Module
      -----  --------------------------------   ------------------------
     000017CE  __mulint                           mul
     000017ED  __muluchar                         mul

ASxxxx Linker V03.00/V05.40 + sdld,  page 55.
Hexadecimal  [32-Bits]

Area                                    Addr        Size        Decimal Bytes (Attributes)
--------------------------------        ----        ----        ------- ----- ------------
_HEADER0                            00000000    00000001 =           1. bytes (ABS,CON)

      Value  Global                              Global Defined In Module
      -----  --------------------------------   ------------------------
     00000020  .call_hl                           Runtime

ASxxxx Linker V03.00/V05.40 + sdld,  page 56.
Hexadecimal  [32-Bits]

Area                                    Addr        Size        Decimal Bytes (Attributes)
--------------------------------        ----        ----        ------- ----- ------------
_HEADER1                            00000000    00000005 =           5. bytes (ABS,CON)

      Value  Global                              Global Defined In Module
      -----  --------------------------------   ------------------------
     00000028  .MemsetSmall                       Runtime

ASxxxx Linker V03.00/V05.40 + sdld,  page 57.
Hexadecimal  [32-Bits]

Area                                    Addr        Size        Decimal Bytes (Attributes)
--------------------------------        ----        ----        ------- ----- ------------
_HEADER2                            00000000    00000007 =           7. bytes (ABS,CON)

      Value  Global                              Global Defined In Module
      -----  --------------------------------   ------------------------
     00000030  .MemcpySmall                       Runtime

ASxxxx Linker V03.00/V05.40 + sdld,  page 58.
Hexadecimal  [32-Bits]

Area                                    Addr        Size        Decimal Bytes (Attributes)
--------------------------------        ----        ----        ------- ----- ------------
_HEADER3                            00000000    00000008 =           8. bytes (ABS,CON)

      Value  Global                              Global Defined In Module
      -----  --------------------------------   ------------------------
ASxxxx Linker V03.00/V05.40 + sdld,  page 59.
Hexadecimal  [32-Bits]

Area                                    Addr        Size        Decimal Bytes (Attributes)
--------------------------------        ----        ----        ------- ----- ------------
_HEADER4                            00000000    00000060 =          96. bytes (ABS,CON)

      Value  Global                              Global Defined In Module
      -----  --------------------------------   ------------------------
     00000080  .int                               Runtime
     0000008F  _wait_int_handler                  Runtime
     0000009C  __standard_VBL_handler             Runtime
     000000AB  _refresh_OAM                       Runtime
     000000CC  _set_interrupts                    Runtime

ASxxxx Linker V03.00/V05.40 + sdld,  page 60.
Hexadecimal  [32-Bits]

Area                                    Addr        Size        Decimal Bytes (Attributes)
--------------------------------        ----        ----        ------- ----- ------------
_HEADER5                            00000000    00000001 =           1. bytes (ABS,CON)

      Value  Global                              Global Defined In Module
      -----  --------------------------------   ------------------------
ASxxxx Linker V03.00/V05.40 + sdld,  page 61.
Hexadecimal  [32-Bits]

Area                                    Addr        Size        Decimal Bytes (Attributes)
--------------------------------        ----        ----        ------- ----- ------------
_HEADER6                            00000000    00000002 =           2. bytes (ABS,CON)

      Value  Global                              Global Defined In Module
      -----  --------------------------------   ------------------------
ASxxxx Linker V03.00/V05.40 + sdld,  page 62.
Hexadecimal  [32-Bits]

Area                                    Addr        Size        Decimal Bytes (Attributes)
--------------------------------        ----        ----        ------- ----- ------------
_HEADER7                            00000000    00000030 =          48. bytes (ABS,CON)

      Value  Global                              Global Defined In Module
      -----  --------------------------------   ------------------------
ASxxxx Linker V03.00/V05.40 + sdld,  page 63.
Hexadecimal  [32-Bits]

Area                                    Addr        Size        Decimal Bytes (Attributes)
--------------------------------        ----        ----        ------- ----- ------------
_HEADER8                            00000000    00000006 =           6. bytes (ABS,CON)

      Value  Global                              Global Defined In Module
      -----  --------------------------------   ------------------------
ASxxxx Linker V03.00/V05.40 + sdld,  page 64.
Hexadecimal  [32-Bits]

Area                                    Addr        Size        Decimal Bytes (Attributes)
--------------------------------        ----        ----        ------- ----- ------------
_HEADER9                            00000000    00000003 =           3. bytes (ABS,CON)

      Value  Global                              Global Defined In Module
      -----  --------------------------------   ------------------------
ASxxxx Linker V03.00/V05.40 + sdld,  page 65.
Hexadecimal  [32-Bits]

Area                                    Addr        Size        Decimal Bytes (Attributes)
--------------------------------        ----        ----        ------- ----- ------------
_HEADERa                            00000000    00000001 =           1. bytes (ABS,CON)

      Value  Global                              Global Defined In Module
      -----  --------------------------------   ------------------------
ASxxxx Linker V03.00/V05.40 + sdld,  page 66.
Hexadecimal  [32-Bits]

Area                                    Addr        Size        Decimal Bytes (Attributes)
--------------------------------        ----        ----        ------- ----- ------------
_HEADERb                            00000000    00000001 =           1. bytes (ABS,CON)

      Value  Global                              Global Defined In Module
      -----  --------------------------------   ------------------------
ASxxxx Linker V03.00/V05.40 + sdld,  page 67.
Hexadecimal  [32-Bits]

Area                                    Addr        Size        Decimal Bytes (Attributes)
--------------------------------        ----        ----        ------- ----- ------------
_HEADERc                            00000000    00000001 =           1. bytes (ABS,CON)

      Value  Global                              Global Defined In Module
      -----  --------------------------------   ------------------------
ASxxxx Linker V03.00/V05.40 + sdld,  page 68.
Hexadecimal  [32-Bits]

Area                                    Addr        Size        Decimal Bytes (Attributes)
--------------------------------        ----        ----        ------- ----- ------------
_HEADERd                            00000000    00000002 =           2. bytes (ABS,CON)

      Value  Global                              Global Defined In Module
      -----  --------------------------------   ------------------------
ASxxxx Linker V03.00/V05.40 + sdld,  page 69.
Hexadecimal  [32-Bits]

Area                                    Addr        Size        Decimal Bytes (Attributes)
--------------------------------        ----        ----        ------- ----- ------------
_HEADERe                            00000000    00000001 =           1. bytes (ABS,CON)

      Value  Global                              Global Defined In Module
      -----  --------------------------------   ------------------------
ASxxxx Linker V03.00/V05.40 + sdld,  page 70.
Hexadecimal  [32-Bits]

Area                                    Addr        Size        Decimal Bytes (Attributes)
--------------------------------        ----        ----        ------- ----- ------------
_HEADERf                            00000000    00000001 =           1. bytes (ABS,CON)

      Value  Global                              Global Defined In Module
      -----  --------------------------------   ------------------------
ASxxxx Linker V03.00/V05.40 + sdld,  page 71.
Hexadecimal  [32-Bits]

Area                                    Addr        Size        Decimal Bytes (Attributes)
--------------------------------        ----        ----        ------- ----- ------------
_HEADER10                           00000000    00000002 =           2. bytes (ABS,CON)

      Value  Global                              Global Defined In Module
      -----  --------------------------------   ------------------------
ASxxxx Linker V03.00/V05.40 + sdld,  page 72.
Hexadecimal  [32-Bits]

Area                                    Addr        Size        Decimal Bytes (Attributes)
--------------------------------        ----        ----        ------- ----- ------------
_HEADER11                           00000000    000000AB =         171. bytes (ABS,CON)

      Value  Global                              Global Defined In Module
      -----  --------------------------------   ------------------------
     00000150  .reset                             Runtime
     00000150  _reset                             Runtime
     00000157  .code_start                        Runtime
     000001B9  _exit                              Runtime
     000001BD  .wait_vbl_done                     Runtime
     000001BD  _vsync                             Runtime
     000001BD  _wait_vbl_done                     Runtime
     000001CD  .remove_VBL                        Runtime
     000001CD  _remove_VBL                        Runtime
     000001D0  .remove_int                        Runtime
     000001ED  .add_VBL                           Runtime
     000001ED  _add_VBL                           Runtime
     000001F0  .add_int                           Runtime

ASxxxx Linker V03.00/V05.40 + sdld,  page 73.
Hexadecimal  [32-Bits]

Area                                    Addr        Size        Decimal Bytes (Attributes)
--------------------------------        ----        ----        ------- ----- ------------
_HOME                               000017FF    0000012C =         300. bytes (REL,CON)

      Value  Global                              Global Defined In Module
      -----  --------------------------------   ------------------------
     000017FF  .memset_simple                     Runtime
     00001808  .memcpy_simple                     Runtime
     00001825  .display_off                       Runtime
     00001825  _display_off                       Runtime
     0000183D  _set_tile_data                     
     00001842  _set_bkg_data                      
     00001842  _set_win_data                      
     0000184A  _set_sprite_data                   
     0000187A  .padup                             
     0000187A  _waitpadup                         
     0000188A  .jpad                              
     0000188A  _joypad                            
     000018B2  _waitpad                           
     000018B3  .wait_pad                          
     000018BA  ___sdcc_call_hl                    call_hl
     000018BB  _set_bkg_tiles                     
     000018CF  .set_xy_wtt                        SetTileMap
     000018D8  .set_xy_btt                        SetTileMap
     000018E7  .set_xy_tt                         SetTileMap

ASxxxx Linker V03.00/V05.40 + sdld,  page 74.
Hexadecimal  [32-Bits]

Area                                    Addr        Size        Decimal Bytes (Attributes)
--------------------------------        ----        ----        ------- ----- ------------
_INITIALIZER                        0000192B    00000188 =         392. bytes (REL,CON)

      Value  Global                              Global Defined In Module
      -----  --------------------------------   ------------------------
     0000192B  Fspr_Player_down0$__xinit_spr_Pl   spr_Player_down0
     0000193B  Fspr_Player_down0$__xinit_spr_Pl   spr_Player_down0
     0000194B  Fspr_Player_down0$__xinit_spr_Pl   spr_Player_down0
     0000195B  Fspr_Player_down0$__xinit_spr_Pl   spr_Player_down0
     0000196B  Fspr_Player_down1$__xinit_spr_Pl   spr_Player_down1
     0000197B  Fspr_Player_down1$__xinit_spr_Pl   spr_Player_down1
     0000198B  Fspr_Player_down1$__xinit_spr_Pl   spr_Player_down1
     0000199B  Fspr_Player_down1$__xinit_spr_Pl   spr_Player_down1
     000019AB  Fspr_Player_down2$__xinit_spr_Pl   spr_Player_down2
     000019BB  Fspr_Player_down2$__xinit_spr_Pl   spr_Player_down2
     000019CB  Fspr_Player_down2$__xinit_spr_Pl   spr_Player_down2
     000019DB  Fspr_Player_down2$__xinit_spr_Pl   spr_Player_down2
     000019EB  Fspr_Player_up0$__xinit_spr_Play   spr_Player_up0
     000019FB  Fspr_Player_up0$__xinit_spr_Play   spr_Player_up0
     00001A0B  Fspr_Player_up0$__xinit_spr_Play   spr_Player_up0
     00001A1B  Fspr_Player_up0$__xinit_spr_Play   spr_Player_up0
     00001A2B  Fspr_Player_up1$__xinit_spr_Play   spr_Player_up1
     00001A3B  Fspr_Player_up1$__xinit_spr_Play   spr_Player_up1
     00001A4B  Fspr_Player_up1$__xinit_spr_Play   spr_Player_up1
     00001A5B  Fspr_Player_up1$__xinit_spr_Play   spr_Player_up1
     00001A6B  Fspr_Player_up2$__xinit_spr_Play   spr_Player_up2
     00001A7B  Fspr_Player_up2$__xinit_spr_Play   spr_Player_up2
     00001A8B  Fspr_Player_up2$__xinit_spr_Play   spr_Player_up2
     00001A9B  Fspr_Player_up2$__xinit_spr_Play   spr_Player_up2
     00001AAB  Faction$__xinit_MOVE_SPEED$0_0$0   action
     00001AAC  Faction$__xinit_current_directio   action
     00001AAD  Faction$__xinit_last_keys$0_0$0    action
     00001AAE  Fentity$__xinit_next_entity_id$0   entity
     00001AB0  Fgender_selection$__xinit_GENDER   gender_selection
     00001AB1  Fload$__xinit_vram_next_index$0_   load
ASxxxx Linker V03.00/V05.40 + sdld,  page 75.
Hexadecimal  [32-Bits]

Area                                    Addr        Size        Decimal Bytes (Attributes)
--------------------------------        ----        ----        ------- ----- ------------
_GSINIT                             00001AB3    0000000F =          15. bytes (REL,CON)

      Value  Global                              Global Defined In Module
      -----  --------------------------------   ------------------------
     00001AB3  gsinit                             Runtime

ASxxxx Linker V03.00/V05.40 + sdld,  page 76.
Hexadecimal  [32-Bits]

Area                                    Addr        Size        Decimal Bytes (Attributes)
--------------------------------        ----        ----        ------- ----- ------------
_GSFINAL                            00001AC2    00000001 =           1. bytes (REL,CON)

      Value  Global                              Global Defined In Module
      -----  --------------------------------   ------------------------
ASxxxx Linker V03.00/V05.40 + sdld,  page 77.
Hexadecimal  [32-Bits]

Area                                    Addr        Size        Decimal Bytes (Attributes)
--------------------------------        ----        ----        ------- ----- ------------
_DATA                               0000C0A0    00001D2F =        7471. bytes (REL,CON)

      Value  Global                              Global Defined In Module
      -----  --------------------------------   ------------------------
     0000C0A0  __cpu                              Runtime
     0000C0A1  __is_GBA                           Runtime
     0000C0A2  .mode                              Runtime
     0000C0A3  .sys_time                          Runtime
     0000C0A3  _sys_time                          Runtime
     0000C0A5  .int_0x40                          Runtime
     0000C0B1  G$animation$0_0$0                  animation
     0000C0B1  _animation                         animation
     0000D931  G$player$0_0$0                     player
     0000D931  _player                            player
     0000D933  G$player_animations$0_0$0          player
     0000D933  _player_animations                 player
     0000D937  G$position$0_0$0                   position
     0000D937  _position                          position
     0000DC37  G$render$0_0$0                     render
     0000DC37  _render                            render
     0000DDB7  G$scene_manager$0_0$0              scene_manager
     0000DDB7  _scene_manager                     scene_manager
     0000DDB9  G$GenderSelect$0_0$0               gender_select
     0000DDB9  _GenderSelect                      gender_select
     0000DDC1  G$Map_00$0_0$0                     map_00
     0000DDC1  _Map_00                            map_00
     0000DDC9  Lmain.main$game$1_1$179            main
     0000DDCD  ___sdcc_heap_free                  malloc
ASxxxx Linker V03.00/V05.40 + sdld,  page 78.
Hexadecimal  [32-Bits]

Area                                    Addr        Size        Decimal Bytes (Attributes)
--------------------------------        ----        ----        ------- ----- ------------
_INITIALIZED                        0000DDCF    00000188 =         392. bytes (REL,CON)

      Value  Global                              Global Defined In Module
      -----  --------------------------------   ------------------------
     0000DDCF  G$spr_Player_down0_00$0_0$0        spr_Player_down0
     0000DDCF  _spr_Player_down0_00               spr_Player_down0
     0000DDDF  G$spr_Player_down0_10$0_0$0        spr_Player_down0
     0000DDDF  _spr_Player_down0_10               spr_Player_down0
     0000DDEF  G$spr_Player_down0_01$0_0$0        spr_Player_down0
     0000DDEF  _spr_Player_down0_01               spr_Player_down0
     0000DDFF  G$spr_Player_down0_11$0_0$0        spr_Player_down0
     0000DDFF  _spr_Player_down0_11               spr_Player_down0
     0000DE0F  G$spr_Player_down1_00$0_0$0        spr_Player_down1
     0000DE0F  _spr_Player_down1_00               spr_Player_down1
     0000DE1F  G$spr_Player_down1_10$0_0$0        spr_Player_down1
     0000DE1F  _spr_Player_down1_10               spr_Player_down1
     0000DE2F  G$spr_Player_down1_01$0_0$0        spr_Player_down1
     0000DE2F  _spr_Player_down1_01               spr_Player_down1
     0000DE3F  G$spr_Player_down1_11$0_0$0        spr_Player_down1
     0000DE3F  _spr_Player_down1_11               spr_Player_down1
     0000DE4F  G$spr_Player_down2_00$0_0$0        spr_Player_down2
     0000DE4F  _spr_Player_down2_00               spr_Player_down2
     0000DE5F  G$spr_Player_down2_10$0_0$0        spr_Player_down2
     0000DE5F  _spr_Player_down2_10               spr_Player_down2
     0000DE6F  G$spr_Player_down2_01$0_0$0        spr_Player_down2
     0000DE6F  _spr_Player_down2_01               spr_Player_down2
     0000DE7F  G$spr_Player_down2_11$0_0$0        spr_Player_down2
     0000DE7F  _spr_Player_down2_11               spr_Player_down2
     0000DE8F  G$spr_Player_up0_00$0_0$0          spr_Player_up0
     0000DE8F  _spr_Player_up0_00                 spr_Player_up0
     0000DE9F  G$spr_Player_up0_10$0_0$0          spr_Player_up0
     0000DE9F  _spr_Player_up0_10                 spr_Player_up0
     0000DEAF  G$spr_Player_up0_01$0_0$0          spr_Player_up0
     0000DEAF  _spr_Player_up0_01                 spr_Player_up0
     0000DEBF  G$spr_Player_up0_11$0_0$0          spr_Player_up0
     0000DEBF  _spr_Player_up0_11                 spr_Player_up0
     0000DECF  G$spr_Player_up1_00$0_0$0          spr_Player_up1
     0000DECF  _spr_Player_up1_00                 spr_Player_up1
     0000DEDF  G$spr_Player_up1_10$0_0$0          spr_Player_up1
     0000DEDF  _spr_Player_up1_10                 spr_Player_up1
     0000DEEF  G$spr_Player_up1_01$0_0$0          spr_Player_up1
     0000DEEF  _spr_Player_up1_01                 spr_Player_up1
     0000DEFF  G$spr_Player_up1_11$0_0$0          spr_Player_up1
     0000DEFF  _spr_Player_up1_11                 spr_Player_up1
     0000DF0F  G$spr_Player_up2_00$0_0$0          spr_Player_up2
     0000DF0F  _spr_Player_up2_00                 spr_Player_up2
     0000DF1F  G$spr_Player_up2_10$0_0$0          spr_Player_up2
     0000DF1F  _spr_Player_up2_10                 spr_Player_up2
     0000DF2F  G$spr_Player_up2_01$0_0$0          spr_Player_up2
     0000DF2F  _spr_Player_up2_01                 spr_Player_up2
     0000DF3F  G$spr_Player_up2_11$0_0$0          spr_Player_up2
     0000DF3F  _spr_Player_up2_11                 spr_Player_up2
     0000DF4F  G$MOVE_SPEED$0_0$0                 action
     0000DF4F  _MOVE_SPEED                        action
ASxxxx Linker V03.00/V05.40 + sdld,  page 79.
Hexadecimal  [32-Bits]

Area                                    Addr        Size        Decimal Bytes (Attributes)
--------------------------------        ----        ----        ------- ----- ------------
_INITIALIZED                        0000DDCF    00000188 =         392. bytes (REL,CON)

      Value  Global                              Global Defined In Module
      -----  --------------------------------   ------------------------
     0000DF50  G$current_direction$0_0$0          action
     0000DF50  _current_direction                 action
     0000DF51  G$last_keys$0_0$0                  action
     0000DF51  _last_keys                         action
     0000DF52  G$next_entity_id$0_0$0             entity
     0000DF52  _next_entity_id                    entity
     0000DF54  G$GENDER$0_0$0                     gender_selection
     0000DF54  _GENDER                            gender_selection
     0000DF55  G$vram_next_index$0_0$0            load
     0000DF55  _vram_next_index                   load
     0000DF56  __map_tile_offset                  SetTileMap

ASxxxx Linker V03.00/V05.40 + sdld,  page 80.
Hexadecimal  [32-Bits]

Area                                    Addr        Size        Decimal Bytes (Attributes)
--------------------------------        ----        ----        ------- ----- ------------
_HEAP                               0000DF57    000007FF =        2047. bytes (REL,CON)

      Value  Global                              Global Defined In Module
      -----  --------------------------------   ------------------------
     0000DF57  ___sdcc_heap                       

ASxxxx Linker V03.00/V05.40 + sdld,  page 81.
Hexadecimal  [32-Bits]

Area                                    Addr        Size        Decimal Bytes (Attributes)
--------------------------------        ----        ----        ------- ----- ------------
_HEAP_END                           0000E756    00000001 =           1. bytes (REL,CON)

      Value  Global                              Global Defined In Module
      -----  --------------------------------   ------------------------
     0000E756  ___sdcc_heap_end                   

ASxxxx Linker V03.00/V05.40 + sdld,  page 82.
Hexadecimal  [32-Bits]

Area                                    Addr        Size        Decimal Bytes (Attributes)
--------------------------------        ----        ----        ------- ----- ------------
_HRAM                               0000FF80    00000013 =          19. bytes (REL,CON)

      Value  Global                              Global Defined In Module
      -----  --------------------------------   ------------------------
     0000FF80  .refresh_OAM                       Runtime
     0000FF90  __current_bank                     Runtime
     0000FF91  __vbl_done                         Runtime
     0000FF92  __shadow_OAM_base                  Runtime

ASxxxx Linker V03.00/V05.40 + sdld,  page 83.

Files Linked                              [ module(s) ]

C:\Program Files\GBDK\lib/gb/crt0.o       [ Runtime ]
C:\Users\Bau_M\AppData\Local\Temp/lcc220120.o
                                          [ gender_select_tilemap ]
C:\Users\Bau_M\AppData\Local\Temp/lcc220121.o
                                          [ gender_select_tileset ]
C:\Users\Bau_M\AppData\Local\Temp/lcc220122.o
                                          [ template_tilemap ]
C:\Users\Bau_M\AppData\Local\Temp/lcc220123.o
                                          [ template_tileset ]
C:\Users\Bau_M\AppData\Local\Temp/lcc220124.o
                                          [ spr_Player_down0 ]
C:\Users\Bau_M\AppData\Local\Temp/lcc220125.o
                                          [ spr_Player_down1 ]
C:\Users\Bau_M\AppData\Local\Temp/lcc220126.o
                                          [ spr_Player_down2 ]
C:\Users\Bau_M\AppData\Local\Temp/lcc220127.o
                                          [ spr_Player_up0 ]
C:\Users\Bau_M\AppData\Local\Temp/lcc220128.o
                                          [ spr_Player_up1 ]
C:\Users\Bau_M\AppData\Local\Temp/lcc220129.o
                                          [ spr_Player_up2 ]
C:\Users\Bau_M\AppData\Local\Temp/lcc2201210.o
                                          [ action ]
C:\Users\Bau_M\AppData\Local\Temp/lcc2201211.o
                                          [ animation ]
C:\Users\Bau_M\AppData\Local\Temp/lcc2201212.o
                                          [ draw ]
C:\Users\Bau_M\AppData\Local\Temp/lcc2201213.o
                                          [ entity ]
C:\Users\Bau_M\AppData\Local\Temp/lcc2201214.o
                                          [ gender_selection ]
C:\Users\Bau_M\AppData\Local\Temp/lcc2201215.o
                                          [ global_action ]
C:\Users\Bau_M\AppData\Local\Temp/lcc2201216.o
                                          [ load ]
C:\Users\Bau_M\AppData\Local\Temp/lcc2201217.o
                                          [ map_scenes ]
C:\Users\Bau_M\AppData\Local\Temp/lcc2201218.o
                                          [ player ]
C:\Users\Bau_M\AppData\Local\Temp/lcc2201219.o
                                          [ position ]
C:\Users\Bau_M\AppData\Local\Temp/lcc2201220.o
                                          [ render ]
C:\Users\Bau_M\AppData\Local\Temp/lcc2201221.o
                                          [ scene ]
C:\Users\Bau_M\AppData\Local\Temp/lcc2201222.o
                                          [ scene_manager ]
C:\Users\Bau_M\AppData\Local\Temp/lcc2201223.o
                                          [ gender_select ]
C:\Users\Bau_M\AppData\Local\Temp/lcc2201224.o
                                          [ gender_select_init ]
C:\Users\Bau_M\AppData\Local\Temp/lcc2201225.o
                                          [ gender_select_update ]
C:\Users\Bau_M\AppData\Local\Temp/lcc2201226.o
                                          [ map_00 ]
C:\Users\Bau_M\AppData\Local\Temp/lcc2201227.o
                                          [ map_00_init ]
C:\Users\Bau_M\AppData\Local\Temp/lcc2201228.o
                                          [ map_00_update ]
C:\Users\Bau_M\AppData\Local\Temp/lcc2201229.o
                                          [ main ]


Libraries Linked                          [ object file ]

C:\Program Files\GBDK\lib/sm83/sm83.lib   [ free.o ]
C:\Program Files\GBDK\lib/sm83/sm83.lib   [ malloc.o ]
C:\Program Files\GBDK\lib/gb/gb.lib       [ set_data.o ]
C:\Program Files\GBDK\lib/sm83/sm83.lib   [ mul.o ]
C:\Program Files\GBDK\lib/gb/gb.lib       [ pad.o ]
C:\Program Files\GBDK\lib/sm83/sm83.lib   [ __sdcc_call_hl.o ]
C:\Program Files\GBDK\lib/gb/gb.lib       [ sfr.o ]
C:\Program Files\GBDK\lib/gb/gb.lib       [ heap.o ]
C:\Program Files\GBDK\lib/gb/gb.lib       [ set_bk_t.o ]
C:\Program Files\GBDK\lib/gb/gb.lib       [ set_xy_t.o ]

ASxxxx Linker V03.00/V05.40 + sdld,  page 84.

User Base Address Definitions

_DATA=0xC0A0
_CODE=0x0200
_HRAM=0xFF80
ASxxxx Linker V03.00/V05.40 + sdld,  page 85.

User Global Definitions

_shadow_OAM=0xC000
.STACK=0xE000

