ASxxxx Linker V03.00/V05.40 + sdld,  page 1.
Hexadecimal  [32-Bits]

Area                                    Addr        Size        Decimal Bytes (Attributes)
--------------------------------        ----        ----        ------- ----- ------------
.  .ABS.                            00000000    00000000 =           0. bytes (ABS,CON)

      Value  Global                              Global Defined In Module
      -----  --------------------------------   ------------------------
     00000000  .__.ABS.                           SetTileMap
     00000000  _rMBC7_SRAM_ENABLE_1               
     00000000  _rRAMG                             
     00000000  l__BASE                         
     00000000  l__BSS                          
     00000000  l__CABS                         
     00000000  l__CODE_0                       
     00000000  l__DABS                         
     00000000  l__HEADER                       
     00000000  l__LIT                          
     00000000  s__CABS                         
     00000000  s__DABS                         
     00000000  s__HEADER                       
     00000000  s__HEADER0                      
     00000000  s__HEADER1                      
     00000000  s__HEADER10                     
     00000000  s__HEADER11                     
     00000000  s__HEADER2                      
     00000000  s__HEADER3                      
     00000000  s__HEADER4                      
     00000000  s__HEADER5                      
     00000000  s__HEADER6                      
     00000000  s__HEADER7                      
     00000000  s__HEADER8                      
     00000000  s__HEADER9                      
     00000000  s__HEADERa                      
     00000000  s__HEADERb                      
     00000000  s__HEADERc                      
     00000000  s__HEADERd                      
     00000000  s__HEADERe                      
     00000000  s__HEADERf                      
     00000001  l__GSFINAL                      
     00000001  l__HEADER0                      
     00000001  l__HEADER5                      
     00000001  l__HEADERa                      
     00000001  l__HEADERb                      
     00000001  l__HEADERc                      
     00000001  l__HEADERe                      
     00000001  l__HEADERf                      
     00000001  l__HEAP_END                     
     00000002  l__HEADER10                     
     00000002  l__HEADER6                      
     00000002  l__HEADERd                      
     00000003  l__HEADER9                      
     00000005  l__HEADER1                      
     00000006  l__HEADER8                      
     00000007  l__HEADER2                      
     00000008  l__HEADER3                      
     0000000F  l__GSINIT                       
     00000013  l__HRAM                         
ASxxxx Linker V03.00/V05.40 + sdld,  page 2.
Hexadecimal  [32-Bits]

Area                                    Addr        Size        Decimal Bytes (Attributes)
--------------------------------        ----        ----        ------- ----- ------------
.  .ABS.                            00000000    00000000 =           0. bytes (ABS,CON)

      Value  Global                              Global Defined In Module
      -----  --------------------------------   ------------------------
     00000030  l__HEADER7                      
     00000060  l__HEADER4                      
     000000AB  l__HEADER11                     
     0000012C  l__HOME                         
     00000199  l__INITIALIZED                  
     00000199  l__INITIALIZER                  
     00000200  s__CODE                         
     000007FF  l__HEAP                         
     00001D39  l__DATA                         
     00002000  _rROMB0                            
     000022DC  l__CODE                         
     000024DC  s__HOME                         
     00002608  s__BASE                         
     00002608  s__CODE_0                       
     00002608  s__INITIALIZER                  
     00002608  s__LIT                          
     000027A1  s__GSINIT                       
     000027B0  s__GSFINAL                      
     00003000  _rROMB1                            
     00004000  _rMBC7_SRAM_ENABLE_2               
     00004000  _rRAMB                             
     00008000  __VRAM                             
     00008000  __VRAM8000                         
     00008800  __VRAM8800                         
     00009000  __VRAM9000                         
     00009800  __SCRN0                            
     00009C00  __SCRN1                            
     0000A000  __SRAM                             
     0000A000  _rMBC7_LATCH_1                     
     0000A010  _rMBC7_LATCH_2                     
     0000A020  _rMBC7_ACCEL_X_LO                  
     0000A030  _rMBC7_ACCEL_X_HI                  
     0000A040  _rMBC7_ACCEL_Y_LO                  
     0000A050  _rMBC7_ACCEL_Y_HI                  
     0000C000  __RAM                              
     0000C000  _shadow_OAM                     
     0000C0A0  s__DATA                         
     0000D000  __RAMBANK                          
     0000DDD9  s__BSS                          
     0000DDD9  s__INITIALIZED                  
     0000DF72  s__HEAP                         
     0000E000  .STACK                          
     0000E771  s__HEAP_END                     
     0000FE00  __OAMRAM                           
     0000FF00  _P1_REG                            
     0000FF00  __IO                               
     0000FF01  _SB_REG                            
     0000FF02  _SC_REG                            
     0000FF04  _DIV_REG                           
     0000FF05  _TIMA_REG                          
     0000FF06  _TMA_REG                           
ASxxxx Linker V03.00/V05.40 + sdld,  page 3.
Hexadecimal  [32-Bits]

Area                                    Addr        Size        Decimal Bytes (Attributes)
--------------------------------        ----        ----        ------- ----- ------------
.  .ABS.                            00000000    00000000 =           0. bytes (ABS,CON)

      Value  Global                              Global Defined In Module
      -----  --------------------------------   ------------------------
     0000FF07  _TAC_REG                           
     0000FF0F  _IF_REG                            
     0000FF10  _NR10_REG                          
     0000FF11  _NR11_REG                          
     0000FF12  _NR12_REG                          
     0000FF13  _NR13_REG                          
     0000FF14  _NR14_REG                          
     0000FF16  _NR21_REG                          
     0000FF17  _NR22_REG                          
     0000FF18  _NR23_REG                          
     0000FF19  _NR24_REG                          
     0000FF1A  _NR30_REG                          
     0000FF1B  _NR31_REG                          
     0000FF1C  _NR32_REG                          
     0000FF1D  _NR33_REG                          
     0000FF1E  _NR34_REG                          
     0000FF20  _NR41_REG                          
     0000FF21  _NR42_REG                          
     0000FF22  _NR43_REG                          
     0000FF23  _NR44_REG                          
     0000FF24  _NR50_REG                          
     0000FF25  _NR51_REG                          
     0000FF26  _NR52_REG                          
     0000FF30  _AUD3WAVE                          
     0000FF30  _PCM_SAMPLE                        
     0000FF30  __AUD3WAVERAM                      
     0000FF40  _LCDC_REG                          
     0000FF41  _STAT_REG                          
     0000FF42  _SCY_REG                           
     0000FF43  _SCX_REG                           
     0000FF44  _LY_REG                            
     0000FF45  _LYC_REG                           
     0000FF46  _DMA_REG                           
     0000FF47  _BGP_REG                           
     0000FF48  _OBP0_REG                          
     0000FF49  _OBP1_REG                          
     0000FF4A  _WY_REG                            
     0000FF4B  _WX_REG                            
     0000FF4D  _KEY1_REG                          
     0000FF4F  _VBK_REG                           
     0000FF51  _HDMA1_REG                         
     0000FF52  _HDMA2_REG                         
     0000FF53  _HDMA3_REG                         
     0000FF54  _HDMA4_REG                         
     0000FF55  _HDMA5_REG                         
     0000FF56  _RP_REG                            
     0000FF68  _BCPS_REG                          
     0000FF69  _BCPD_REG                          
     0000FF6A  _OCPS_REG                          
     0000FF6B  _OCPD_REG                          
     0000FF70  _SVBK_REG                          
ASxxxx Linker V03.00/V05.40 + sdld,  page 4.
Hexadecimal  [32-Bits]

Area                                    Addr        Size        Decimal Bytes (Attributes)
--------------------------------        ----        ----        ------- ----- ------------
.  .ABS.                            00000000    00000000 =           0. bytes (ABS,CON)

      Value  Global                              Global Defined In Module
      -----  --------------------------------   ------------------------
     0000FF76  _PCM12_REG                         
     0000FF77  _PCM34_REG                         
     0000FF80  __HRAM                             
     0000FF80  s__HRAM                         
     0000FFFF  _IE_REG                            

ASxxxx Linker V03.00/V05.40 + sdld,  page 5.
Hexadecimal  [32-Bits]

Area                                    Addr        Size        Decimal Bytes (Attributes)
--------------------------------        ----        ----        ------- ----- ------------
_CODE                               00000200    000022DC =        8924. bytes (REL,CON)

      Value  Global                              Global Defined In Module
      -----  --------------------------------   ------------------------
     00000200  G$gender_select_tilemap$0_0$0      gender_select_tilemap
     00000200  _gender_select_tilemap             gender_select_tilemap
     00000368  G$gender_select_tileset$0_0$0      gender_select_tileset
     00000368  _gender_select_tileset             gender_select_tileset
     00000658  G$inventory_bkg_tileset$0_0$0      inventory_bkg
     00000658  _inventory_bkg_tileset             inventory_bkg
     00000978  G$inventory_bkg_tilemap$0_0$0      inventory_bkg
     00000978  _inventory_bkg_tilemap             inventory_bkg
     00000AE0  G$example_tileset$0_0$0            map_example
     00000AE0  _example_tileset                   map_example
     00000F70  G$example_tilemap$0_0$0            map_example
     00000F70  _example_tilemap                   map_example
     000010D8  G$template_tilemap$0_0$0           template_tilemap
     000010D8  _template_tilemap                  template_tilemap
     00001240  G$template_tileset$0_0$0           template_tileset
     00001240  _template_tileset                  template_tileset
     00001410  G$spr_Branch$0_0$0                 spr_Branch
     00001410  _spr_Branch                        spr_Branch
     00001420  A$lcc166014$70                     action
     00001420  C$action.c$12$0_0$149              action
     00001420  G$move_up$0$0                      action
     00001420  _move_up                           action
     00001422  A$lcc166014$71                     action
     00001424  A$lcc166014$72                     action
     00001425  A$lcc166014$73                     action
     00001426  A$lcc166014$77                     action
     00001426  C$action.c$14$1_0$149              action
     00001427  A$lcc166014$78                     action
     00001428  A$lcc166014$79                     action
     00001429  A$lcc166014$80                     action
     0000142A  A$lcc166014$81                     action
     0000142B  A$lcc166014$82                     action
     0000142D  A$lcc166014$83                     action
     0000142E  A$lcc166014$84                     action
     00001431  A$lcc166014$85                     action
     00001432  A$lcc166014$86                     action
     00001433  A$lcc166014$87                     action
     00001434  A$lcc166014$88                     action
     00001435  A$lcc166014$89                     action
     00001438  A$lcc166014$90                     action
     00001439  A$lcc166014$91                     action
     0000143A  A$lcc166014$92                     action
     0000143B  A$lcc166014$93                     action
     0000143C  A$lcc166014$94                     action
     0000143D  A$lcc166014$95                     action
     0000143E  A$lcc166014$96                     action
     0000143F  A$lcc166014$97                     action
     00001440  A$lcc166014$98                     action
     00001441  A$lcc166014$99                     action
     00001443  A$lcc166014$100                    action
ASxxxx Linker V03.00/V05.40 + sdld,  page 6.
Hexadecimal  [32-Bits]

Area                                    Addr        Size        Decimal Bytes (Attributes)
--------------------------------        ----        ----        ------- ----- ------------
_CODE                               00000200    000022DC =        8924. bytes (REL,CON)

      Value  Global                              Global Defined In Module
      -----  --------------------------------   ------------------------
     00001444  A$lcc166014$101                    action
     00001445  A$lcc166014$102                    action
     00001446  A$lcc166014$103                    action
     00001447  A$lcc166014$104                    action
     00001448  A$lcc166014$105                    action
     00001449  A$lcc166014$106                    action
     0000144A  A$lcc166014$107                    action
     0000144B  A$lcc166014$108                    action
     0000144C  A$lcc166014$109                    action
     0000144D  A$lcc166014$113                    action
     0000144D  C$action.c$15$1_0$149              action
     00001450  A$lcc166014$114                    action
     00001452  A$lcc166014$115                    action
     00001453  A$lcc166014$116                    action
     00001454  A$lcc166014$117                    action
     00001455  A$lcc166014$118                    action
     00001456  A$lcc166014$119                    action
     00001457  A$lcc166014$120                    action
     00001458  A$lcc166014$121                    action
     00001459  A$lcc166014$122                    action
     0000145A  A$lcc166014$126                    action
     0000145C  A$lcc166014$131                    action
     0000145C  C$action.c$16$1_0$149              action
     0000145C  XG$move_up$0$0                     action
     0000145D  A$lcc166014$141                    action
     0000145D  C$action.c$18$1_0$151              action
     0000145D  G$move_down$0$0                    action
     0000145D  _move_down                         action
     0000145F  A$lcc166014$142                    action
     00001461  A$lcc166014$143                    action
     00001462  A$lcc166014$144                    action
     00001463  A$lcc166014$148                    action
     00001463  C$action.c$20$1_0$151              action
     00001464  A$lcc166014$149                    action
     00001465  A$lcc166014$150                    action
     00001466  A$lcc166014$151                    action
     00001467  A$lcc166014$152                    action
     00001468  A$lcc166014$153                    action
     0000146A  A$lcc166014$154                    action
     0000146C  A$lcc166014$155                    action
     0000146D  A$lcc166014$156                    action
     0000146E  A$lcc166014$157                    action
     00001470  A$lcc166014$158                    action
     00001471  A$lcc166014$159                    action
     00001474  A$lcc166014$160                    action
     00001476  A$lcc166014$161                    action
     00001477  A$lcc166014$162                    action
     00001478  A$lcc166014$163                    action
     00001479  A$lcc166014$164                    action
     0000147A  A$lcc166014$165                    action
     0000147B  A$lcc166014$166                    action
ASxxxx Linker V03.00/V05.40 + sdld,  page 7.
Hexadecimal  [32-Bits]

Area                                    Addr        Size        Decimal Bytes (Attributes)
--------------------------------        ----        ----        ------- ----- ------------
_CODE                               00000200    000022DC =        8924. bytes (REL,CON)

      Value  Global                              Global Defined In Module
      -----  --------------------------------   ------------------------
     0000147C  A$lcc166014$167                    action
     0000147D  A$lcc166014$168                    action
     0000147F  A$lcc166014$169                    action
     00001480  A$lcc166014$170                    action
     00001481  A$lcc166014$171                    action
     00001483  A$lcc166014$172                    action
     00001484  A$lcc166014$173                    action
     00001485  A$lcc166014$174                    action
     00001486  A$lcc166014$175                    action
     00001487  A$lcc166014$176                    action
     00001488  A$lcc166014$177                    action
     00001489  A$lcc166014$178                    action
     0000148A  A$lcc166014$179                    action
     0000148B  A$lcc166014$180                    action
     0000148C  A$lcc166014$181                    action
     0000148D  A$lcc166014$185                    action
     0000148D  C$action.c$21$1_0$151              action
     00001490  A$lcc166014$186                    action
     00001492  A$lcc166014$187                    action
     00001493  A$lcc166014$188                    action
     00001494  A$lcc166014$189                    action
     00001495  A$lcc166014$190                    action
     00001496  A$lcc166014$191                    action
     00001497  A$lcc166014$192                    action
     00001498  A$lcc166014$193                    action
     00001499  A$lcc166014$194                    action
     0000149A  A$lcc166014$198                    action
     0000149C  A$lcc166014$203                    action
     0000149C  C$action.c$22$1_0$151              action
     0000149C  XG$move_down$0$0                   action
     0000149D  A$lcc166014$213                    action
     0000149D  C$action.c$24$1_0$153              action
     0000149D  G$move_left$0$0                    action
     0000149D  _move_left                         action
     0000149F  A$lcc166014$214                    action
     000014A1  A$lcc166014$215                    action
     000014A2  A$lcc166014$216                    action
     000014A3  A$lcc166014$220                    action
     000014A3  C$action.c$26$1_0$153              action
     000014A4  A$lcc166014$221                    action
     000014A5  A$lcc166014$222                    action
     000014A6  A$lcc166014$223                    action
     000014A7  A$lcc166014$224                    action
     000014A8  A$lcc166014$225                    action
     000014AA  A$lcc166014$226                    action
     000014AB  A$lcc166014$227                    action
     000014AE  A$lcc166014$228                    action
     000014AF  A$lcc166014$229                    action
     000014B0  A$lcc166014$230                    action
     000014B1  A$lcc166014$231                    action
     000014B2  A$lcc166014$232                    action
ASxxxx Linker V03.00/V05.40 + sdld,  page 8.
Hexadecimal  [32-Bits]

Area                                    Addr        Size        Decimal Bytes (Attributes)
--------------------------------        ----        ----        ------- ----- ------------
_CODE                               00000200    000022DC =        8924. bytes (REL,CON)

      Value  Global                              Global Defined In Module
      -----  --------------------------------   ------------------------
     000014B5  A$lcc166014$233                    action
     000014B6  A$lcc166014$234                    action
     000014B7  A$lcc166014$235                    action
     000014B8  A$lcc166014$236                    action
     000014B9  A$lcc166014$237                    action
     000014BA  A$lcc166014$238                    action
     000014BB  A$lcc166014$239                    action
     000014BC  A$lcc166014$240                    action
     000014BD  A$lcc166014$241                    action
     000014BE  A$lcc166014$242                    action
     000014C0  A$lcc166014$243                    action
     000014C1  A$lcc166014$244                    action
     000014C2  A$lcc166014$245                    action
     000014C3  A$lcc166014$246                    action
     000014C4  A$lcc166014$247                    action
     000014C5  A$lcc166014$248                    action
     000014C6  A$lcc166014$249                    action
     000014C7  A$lcc166014$250                    action
     000014C8  A$lcc166014$251                    action
     000014C9  A$lcc166014$252                    action
     000014CA  A$lcc166014$256                    action
     000014CA  C$action.c$27$1_0$153              action
     000014CD  A$lcc166014$257                    action
     000014CF  A$lcc166014$258                    action
     000014D0  A$lcc166014$259                    action
     000014D1  A$lcc166014$260                    action
     000014D2  A$lcc166014$261                    action
     000014D3  A$lcc166014$262                    action
     000014D4  A$lcc166014$263                    action
     000014D5  A$lcc166014$264                    action
     000014D6  A$lcc166014$265                    action
     000014D7  A$lcc166014$269                    action
     000014D9  A$lcc166014$274                    action
     000014D9  C$action.c$28$1_0$153              action
     000014D9  XG$move_left$0$0                   action
     000014DA  A$lcc166014$284                    action
     000014DA  C$action.c$30$1_0$155              action
     000014DA  G$move_right$0$0                   action
     000014DA  _move_right                        action
     000014DC  A$lcc166014$285                    action
     000014DE  A$lcc166014$286                    action
     000014DF  A$lcc166014$287                    action
     000014E0  A$lcc166014$291                    action
     000014E0  C$action.c$32$1_0$155              action
     000014E1  A$lcc166014$292                    action
     000014E2  A$lcc166014$293                    action
     000014E3  A$lcc166014$294                    action
     000014E4  A$lcc166014$295                    action
     000014E5  A$lcc166014$296                    action
     000014E7  A$lcc166014$297                    action
     000014E8  A$lcc166014$298                    action
ASxxxx Linker V03.00/V05.40 + sdld,  page 9.
Hexadecimal  [32-Bits]

Area                                    Addr        Size        Decimal Bytes (Attributes)
--------------------------------        ----        ----        ------- ----- ------------
_CODE                               00000200    000022DC =        8924. bytes (REL,CON)

      Value  Global                              Global Defined In Module
      -----  --------------------------------   ------------------------
     000014EB  A$lcc166014$299                    action
     000014EC  A$lcc166014$300                    action
     000014ED  A$lcc166014$301                    action
     000014EE  A$lcc166014$302                    action
     000014EF  A$lcc166014$303                    action
     000014F2  A$lcc166014$304                    action
     000014F3  A$lcc166014$305                    action
     000014F4  A$lcc166014$306                    action
     000014F5  A$lcc166014$307                    action
     000014F6  A$lcc166014$308                    action
     000014F7  A$lcc166014$309                    action
     000014F8  A$lcc166014$310                    action
     000014F9  A$lcc166014$311                    action
     000014FA  A$lcc166014$312                    action
     000014FC  A$lcc166014$313                    action
     000014FD  A$lcc166014$314                    action
     000014FE  A$lcc166014$315                    action
     000014FF  A$lcc166014$316                    action
     00001500  A$lcc166014$317                    action
     00001501  A$lcc166014$318                    action
     00001502  A$lcc166014$319                    action
     00001503  A$lcc166014$320                    action
     00001504  A$lcc166014$324                    action
     00001504  C$action.c$33$1_0$155              action
     00001507  A$lcc166014$325                    action
     00001509  A$lcc166014$326                    action
     0000150A  A$lcc166014$327                    action
     0000150B  A$lcc166014$328                    action
     0000150C  A$lcc166014$329                    action
     0000150D  A$lcc166014$330                    action
     0000150E  A$lcc166014$331                    action
     0000150F  A$lcc166014$332                    action
     00001510  A$lcc166014$333                    action
     00001511  A$lcc166014$337                    action
     00001513  A$lcc166014$342                    action
     00001513  C$action.c$34$1_0$155              action
     00001513  XG$move_right$0$0                  action
     00001514  A$lcc166014$352                    action
     00001514  C$action.c$36$1_0$157              action
     00001514  G$check_input$0$0                  action
     00001514  _check_input                       action
     00001516  A$lcc166014$356                    action
     00001516  C$action.c$38$1_0$157              action
     00001519  A$lcc166014$357                    action
     0000151B  A$lcc166014$358                    action
     0000151C  A$lcc166014$362                    action
     0000151C  C$action.c$40$2_0$158              action
     0000151D  A$lcc166014$363                    action
     0000151F  A$lcc166014$364                    action
     00001521  A$lcc166014$365                    action
     00001522  A$lcc166014$366                    action
ASxxxx Linker V03.00/V05.40 + sdld,  page 10.
Hexadecimal  [32-Bits]

Area                                    Addr        Size        Decimal Bytes (Attributes)
--------------------------------        ----        ----        ------- ----- ------------
_CODE                               00000200    000022DC =        8924. bytes (REL,CON)

      Value  Global                              Global Defined In Module
      -----  --------------------------------   ------------------------
     00001524  A$lcc166014$367                    action
     00001527  A$lcc166014$368                    action
     00001529  A$lcc166014$369                    action
     0000152B  A$lcc166014$373                    action
     0000152B  C$action.c$42$3_0$159              action
     0000152E  A$lcc166014$374                    action
     0000152F  A$lcc166014$375                    action
     00001532  A$lcc166014$376                    action
     00001533  A$lcc166014$377                    action
     00001534  A$lcc166014$378                    action
     00001535  A$lcc166014$379                    action
     00001536  A$lcc166014$380                    action
     00001537  A$lcc166014$381                    action
     00001538  A$lcc166014$382                    action
     0000153B  A$lcc166014$383                    action
     0000153E  A$lcc166014$384                    action
     0000153F  A$lcc166014$385                    action
     00001540  A$lcc166014$386                    action
     00001542  A$lcc166014$387                    action
     00001543  A$lcc166014$388                    action
     00001544  A$lcc166014$389                    action
     00001547  A$lcc166014$394                    action
     00001547  C$action.c$48$1_0$157              action
     00001549  A$lcc166014$395                    action
     0000154A  A$lcc166014$396                    action
     0000154C  A$lcc166014$397                    action
     0000154D  A$lcc166014$401                    action
     0000154D  C$action.c$50$1_0$157              action
     0000154E  A$lcc166014$402                    action
     0000154F  A$lcc166014$403                    action
     00001550  A$lcc166014$404                    action
     00001551  A$lcc166014$405                    action
     00001553  A$lcc166014$406                    action
     00001555  A$lcc166014$407                    action
     00001556  A$lcc166014$408                    action
     00001558  A$lcc166014$412                    action
     00001558  C$action.c$52$1_0$157              action
     0000155A  A$lcc166014$413                    action
     0000155B  A$lcc166014$414                    action
     0000155D  A$lcc166014$415                    action
     0000155F  A$lcc166014$416                    action
     00001560  A$lcc166014$417                    action
     00001562  A$lcc166014$421                    action
     00001562  C$action.c$54$1_0$157              action
     00001564  A$lcc166014$422                    action
     00001565  A$lcc166014$423                    action
     00001567  A$lcc166014$424                    action
     00001569  A$lcc166014$425                    action
     0000156A  A$lcc166014$426                    action
     0000156C  A$lcc166014$430                    action
     0000156C  C$action.c$46$2_0$160              action
ASxxxx Linker V03.00/V05.40 + sdld,  page 11.
Hexadecimal  [32-Bits]

Area                                    Addr        Size        Decimal Bytes (Attributes)
--------------------------------        ----        ----        ------- ----- ------------
_CODE                               00000200    000022DC =        8924. bytes (REL,CON)

      Value  Global                              Global Defined In Module
      -----  --------------------------------   ------------------------
     0000156F  A$lcc166014$434                    action
     0000156F  C$action.c$48$4_0$162              action
     00001570  A$lcc166014$435                    action
     00001572  A$lcc166014$436                    action
     00001574  A$lcc166014$437                    action
     00001575  A$lcc166014$438                    action
     00001577  A$lcc166014$442                    action
     00001577  C$action.c$49$4_0$162              action
     0000157A  A$lcc166014$443                    action
     0000157C  A$lcc166014$444                    action
     0000157E  A$lcc166014$449                    action
     0000157E  C$action.c$50$5_0$163              action
     0000157F  A$lcc166014$450                    action
     00001581  A$lcc166014$451                    action
     00001582  A$lcc166014$452                    action
     00001584  A$lcc166014$456                    action
     00001584  C$action.c$51$5_0$163              action
     00001587  A$lcc166014$457                    action
     00001589  A$lcc166014$458                    action
     0000158B  A$lcc166014$463                    action
     0000158B  C$action.c$52$6_0$164              action
     0000158C  A$lcc166014$464                    action
     0000158E  A$lcc166014$465                    action
     0000158F  A$lcc166014$466                    action
     00001591  A$lcc166014$470                    action
     00001591  C$action.c$53$6_0$164              action
     00001594  A$lcc166014$471                    action
     00001596  A$lcc166014$472                    action
     00001598  A$lcc166014$477                    action
     00001598  C$action.c$54$7_0$165              action
     00001599  A$lcc166014$478                    action
     0000159B  A$lcc166014$479                    action
     0000159C  A$lcc166014$480                    action
     0000159E  A$lcc166014$484                    action
     0000159E  C$action.c$55$7_0$165              action
     000015A1  A$lcc166014$485                    action
     000015A3  A$lcc166014$490                    action
     000015A3  C$action.c$59$2_0$166              action
     000015A6  A$lcc166014$491                    action
     000015A7  A$lcc166014$492                    action
     000015A9  A$lcc166014$493                    action
     000015AC  A$lcc166014$494                    action
     000015AE  A$lcc166014$495                    action
     000015B0  A$lcc166014$496                    action
     000015B2  A$lcc166014$497                    action
     000015B4  A$lcc166014$498                    action
     000015B6  A$lcc166014$499                    action
     000015B8  A$lcc166014$500                    action
     000015BB  A$lcc166014$508                    action
     000015BB  C$action.c$61$3_0$167              action
     000015BB  C$action.c$62$3_0$167              action
ASxxxx Linker V03.00/V05.40 + sdld,  page 12.
Hexadecimal  [32-Bits]

Area                                    Addr        Size        Decimal Bytes (Attributes)
--------------------------------        ----        ----        ------- ----- ------------
_CODE                               00000200    000022DC =        8924. bytes (REL,CON)

      Value  Global                              Global Defined In Module
      -----  --------------------------------   ------------------------
     000015BE  A$lcc166014$509                    action
     000015BF  A$lcc166014$510                    action
     000015C2  A$lcc166014$511                    action
     000015C3  A$lcc166014$512                    action
     000015C6  A$lcc166014$516                    action
     000015C6  C$action.c$63$3_0$167              action
     000015C9  A$lcc166014$517                    action
     000015CB  A$lcc166014$518                    action
     000015CC  A$lcc166014$519                    action
     000015CF  A$lcc166014$520                    action
     000015D0  A$lcc166014$521                    action
     000015D1  A$lcc166014$522                    action
     000015D2  A$lcc166014$523                    action
     000015D3  A$lcc166014$524                    action
     000015D4  A$lcc166014$525                    action
     000015D5  A$lcc166014$526                    action
     000015D6  A$lcc166014$527                    action
     000015D7  A$lcc166014$528                    action
     000015D8  A$lcc166014$529                    action
     000015D9  A$lcc166014$530                    action
     000015DA  A$lcc166014$531                    action
     000015DB  A$lcc166014$532                    action
     000015DE  A$lcc166014$533                    action
     000015DF  A$lcc166014$534                    action
     000015E0  A$lcc166014$535                    action
     000015E1  A$lcc166014$536                    action
     000015E3  A$lcc166014$537                    action
     000015E4  A$lcc166014$538                    action
     000015E7  A$lcc166014$542                    action
     000015E7  C$action.c$64$3_0$167              action
     000015E9  A$lcc166014$550                    action
     000015E9  C$action.c$65$3_0$167              action
     000015E9  C$action.c$66$3_0$167              action
     000015EC  A$lcc166014$551                    action
     000015ED  A$lcc166014$552                    action
     000015F0  A$lcc166014$553                    action
     000015F1  A$lcc166014$554                    action
     000015F4  A$lcc166014$558                    action
     000015F4  C$action.c$67$3_0$167              action
     000015F7  A$lcc166014$559                    action
     000015F9  A$lcc166014$560                    action
     000015FA  A$lcc166014$561                    action
     000015FD  A$lcc166014$562                    action
     000015FE  A$lcc166014$563                    action
     000015FF  A$lcc166014$564                    action
     00001600  A$lcc166014$565                    action
     00001601  A$lcc166014$566                    action
     00001602  A$lcc166014$567                    action
     00001603  A$lcc166014$568                    action
     00001604  A$lcc166014$569                    action
     00001605  A$lcc166014$570                    action
ASxxxx Linker V03.00/V05.40 + sdld,  page 13.
Hexadecimal  [32-Bits]

Area                                    Addr        Size        Decimal Bytes (Attributes)
--------------------------------        ----        ----        ------- ----- ------------
_CODE                               00000200    000022DC =        8924. bytes (REL,CON)

      Value  Global                              Global Defined In Module
      -----  --------------------------------   ------------------------
     00001606  A$lcc166014$571                    action
     00001607  A$lcc166014$572                    action
     00001608  A$lcc166014$573                    action
     00001609  A$lcc166014$574                    action
     0000160A  A$lcc166014$575                    action
     0000160B  A$lcc166014$576                    action
     0000160C  A$lcc166014$577                    action
     0000160D  A$lcc166014$578                    action
     0000160E  A$lcc166014$579                    action
     00001611  A$lcc166014$580                    action
     00001612  A$lcc166014$581                    action
     00001613  A$lcc166014$582                    action
     00001614  A$lcc166014$583                    action
     00001616  A$lcc166014$584                    action
     00001617  A$lcc166014$585                    action
     00001618  A$lcc166014$586                    action
     00001619  A$lcc166014$587                    action
     0000161B  A$lcc166014$588                    action
     0000161C  A$lcc166014$589                    action
     0000161D  A$lcc166014$590                    action
     0000161E  A$lcc166014$591                    action
     0000161F  A$lcc166014$592                    action
     00001620  A$lcc166014$593                    action
     00001621  A$lcc166014$594                    action
     00001624  A$lcc166014$598                    action
     00001624  C$action.c$68$3_0$167              action
     00001626  A$lcc166014$606                    action
     00001626  C$action.c$69$3_0$167              action
     00001626  C$action.c$70$3_0$167              action
     00001629  A$lcc166014$607                    action
     0000162A  A$lcc166014$608                    action
     0000162D  A$lcc166014$609                    action
     0000162E  A$lcc166014$610                    action
     00001631  A$lcc166014$614                    action
     00001631  C$action.c$71$3_0$167              action
     00001633  A$lcc166014$622                    action
     00001633  C$action.c$72$3_0$167              action
     00001633  C$action.c$73$3_0$167              action
     00001636  A$lcc166014$623                    action
     00001637  A$lcc166014$624                    action
     0000163A  A$lcc166014$625                    action
     0000163B  A$lcc166014$626                    action
     0000163E  A$lcc166014$634                    action
     0000163E  C$action.c$77$2_0$166              action
     0000163E  C$action.c$80$2_0$168              action
     00001641  A$lcc166014$635                    action
     00001642  A$lcc166014$636                    action
     00001644  A$lcc166014$637                    action
     00001646  A$lcc166014$641                    action
     00001646  C$action.c$82$3_0$169              action
     00001647  A$lcc166014$642                    action
ASxxxx Linker V03.00/V05.40 + sdld,  page 14.
Hexadecimal  [32-Bits]

Area                                    Addr        Size        Decimal Bytes (Attributes)
--------------------------------        ----        ----        ------- ----- ------------
_CODE                               00000200    000022DC =        8924. bytes (REL,CON)

      Value  Global                              Global Defined In Module
      -----  --------------------------------   ------------------------
     00001649  A$lcc166014$643                    action
     0000164C  A$lcc166014$647                    action
     0000164C  C$action.c$83$3_0$169              action
     0000164F  A$lcc166014$648                    action
     00001651  A$lcc166014$649                    action
     00001652  A$lcc166014$650                    action
     00001655  A$lcc166014$651                    action
     00001656  A$lcc166014$652                    action
     00001657  A$lcc166014$653                    action
     00001658  A$lcc166014$654                    action
     00001659  A$lcc166014$655                    action
     0000165A  A$lcc166014$656                    action
     0000165B  A$lcc166014$657                    action
     0000165C  A$lcc166014$658                    action
     0000165D  A$lcc166014$659                    action
     0000165E  A$lcc166014$660                    action
     0000165F  A$lcc166014$661                    action
     00001660  A$lcc166014$662                    action
     00001661  A$lcc166014$663                    action
     00001662  A$lcc166014$664                    action
     00001663  A$lcc166014$665                    action
     00001665  A$lcc166014$666                    action
     00001666  A$lcc166014$667                    action
     00001667  A$lcc166014$668                    action
     00001668  A$lcc166014$669                    action
     0000166A  A$lcc166014$670                    action
     0000166B  A$lcc166014$671                    action
     0000166E  A$lcc166014$672                    action
     0000166F  A$lcc166014$673                    action
     00001670  A$lcc166014$674                    action
     00001671  A$lcc166014$675                    action
     00001672  A$lcc166014$676                    action
     00001673  A$lcc166014$677                    action
     00001674  A$lcc166014$678                    action
     00001676  A$lcc166014$679                    action
     00001677  A$lcc166014$680                    action
     00001678  A$lcc166014$681                    action
     00001679  A$lcc166014$682                    action
     0000167B  A$lcc166014$683                    action
     0000167C  A$lcc166014$684                    action
     0000167D  A$lcc166014$685                    action
     0000167E  A$lcc166014$686                    action
     0000167F  A$lcc166014$687                    action
     00001680  A$lcc166014$688                    action
     00001681  A$lcc166014$689                    action
     00001684  A$lcc166014$694                    action
     00001684  C$action.c$86$2_0$170              action
     00001687  A$lcc166014$695                    action
     00001689  A$lcc166014$696                    action
     0000168B  A$lcc166014$697                    action
     0000168C  A$lcc166014$698                    action
ASxxxx Linker V03.00/V05.40 + sdld,  page 15.
Hexadecimal  [32-Bits]

Area                                    Addr        Size        Decimal Bytes (Attributes)
--------------------------------        ----        ----        ------- ----- ------------
_CODE                               00000200    000022DC =        8924. bytes (REL,CON)

      Value  Global                              Global Defined In Module
      -----  --------------------------------   ------------------------
     0000168E  A$lcc166014$702                    action
     0000168E  C$action.c$88$3_0$171              action
     0000168F  A$lcc166014$703                    action
     00001691  A$lcc166014$704                    action
     00001694  A$lcc166014$708                    action
     00001694  C$action.c$89$3_0$171              action
     00001697  A$lcc166014$709                    action
     00001699  A$lcc166014$710                    action
     0000169A  A$lcc166014$711                    action
     0000169D  A$lcc166014$712                    action
     0000169E  A$lcc166014$713                    action
     0000169F  A$lcc166014$714                    action
     000016A0  A$lcc166014$715                    action
     000016A1  A$lcc166014$716                    action
     000016A2  A$lcc166014$717                    action
     000016A3  A$lcc166014$718                    action
     000016A4  A$lcc166014$719                    action
     000016A5  A$lcc166014$720                    action
     000016A6  A$lcc166014$721                    action
     000016A7  A$lcc166014$722                    action
     000016A8  A$lcc166014$723                    action
     000016A9  A$lcc166014$724                    action
     000016AA  A$lcc166014$725                    action
     000016AB  A$lcc166014$726                    action
     000016AD  A$lcc166014$727                    action
     000016AE  A$lcc166014$728                    action
     000016AF  A$lcc166014$729                    action
     000016B0  A$lcc166014$730                    action
     000016B2  A$lcc166014$731                    action
     000016B3  A$lcc166014$732                    action
     000016B6  A$lcc166014$733                    action
     000016B7  A$lcc166014$734                    action
     000016B8  A$lcc166014$735                    action
     000016B9  A$lcc166014$736                    action
     000016BA  A$lcc166014$737                    action
     000016BB  A$lcc166014$738                    action
     000016BC  A$lcc166014$739                    action
     000016BE  A$lcc166014$740                    action
     000016BF  A$lcc166014$741                    action
     000016C0  A$lcc166014$742                    action
     000016C1  A$lcc166014$743                    action
     000016C3  A$lcc166014$744                    action
     000016C4  A$lcc166014$745                    action
     000016C5  A$lcc166014$746                    action
     000016C6  A$lcc166014$747                    action
     000016C7  A$lcc166014$748                    action
     000016C8  A$lcc166014$749                    action
     000016C9  A$lcc166014$750                    action
     000016CC  A$lcc166014$755                    action
     000016CC  C$action.c$92$2_0$172              action
     000016CF  A$lcc166014$756                    action
ASxxxx Linker V03.00/V05.40 + sdld,  page 16.
Hexadecimal  [32-Bits]

Area                                    Addr        Size        Decimal Bytes (Attributes)
--------------------------------        ----        ----        ------- ----- ------------
_CODE                               00000200    000022DC =        8924. bytes (REL,CON)

      Value  Global                              Global Defined In Module
      -----  --------------------------------   ------------------------
     000016D1  A$lcc166014$757                    action
     000016D3  A$lcc166014$758                    action
     000016D4  A$lcc166014$759                    action
     000016D6  A$lcc166014$763                    action
     000016D6  C$action.c$93$2_0$172              action
     000016D7  A$lcc166014$764                    action
     000016D9  A$lcc166014$765                    action
     000016DC  A$lcc166014$770                    action
     000016DC  C$action.c$94$2_0$173              action
     000016DF  A$lcc166014$771                    action
     000016E1  A$lcc166014$772                    action
     000016E3  A$lcc166014$773                    action
     000016E4  A$lcc166014$774                    action
     000016E6  A$lcc166014$778                    action
     000016E6  C$action.c$95$2_0$173              action
     000016E7  A$lcc166014$779                    action
     000016E9  A$lcc166014$780                    action
     000016EC  A$lcc166014$785                    action
     000016EC  C$action.c$97$1_0$157              action
     000016EE  A$lcc166014$786                    action
     000016EF  A$lcc166014$787                    action
     000016F2  A$lcc166014$791                    action
     000016F4  A$lcc166014$796                    action
     000016F4  C$action.c$98$1_0$157              action
     000016F4  XG$check_input$0$0                 action
     000016F5  A$lcc166015$59                     animation
     000016F5  C$animation.c$7$0_0$134            animation
     000016F5  G$init_animation$0$0               animation
     000016F5  _init_animation                    animation
     000016F7  A$lcc166015$60                     animation
     000016F9  A$lcc166015$61                     animation
     000016FA  A$lcc166015$62                     animation
     000016FB  A$lcc166015$63                     animation
     000016FC  A$lcc166015$64                     animation
     000016FD  A$lcc166015$65                     animation
     000016FE  A$lcc166015$66                     animation
     000016FF  A$lcc166015$70                     animation
     000016FF  C$animation.c$12$1_0$134           animation
     00001701  A$lcc166015$71                     animation
     00001702  A$lcc166015$72                     animation
     00001703  A$lcc166015$73                     animation
     00001704  A$lcc166015$74                     animation
     00001705  A$lcc166015$75                     animation
     00001706  A$lcc166015$76                     animation
     00001707  A$lcc166015$77                     animation
     00001709  A$lcc166015$78                     animation
     0000170A  A$lcc166015$79                     animation
     0000170B  A$lcc166015$80                     animation
     0000170C  A$lcc166015$81                     animation
     0000170D  A$lcc166015$82                     animation
     0000170E  A$lcc166015$86                     animation
ASxxxx Linker V03.00/V05.40 + sdld,  page 17.
Hexadecimal  [32-Bits]

Area                                    Addr        Size        Decimal Bytes (Attributes)
--------------------------------        ----        ----        ------- ----- ------------
_CODE                               00000200    000022DC =        8924. bytes (REL,CON)

      Value  Global                              Global Defined In Module
      -----  --------------------------------   ------------------------
     0000170E  C$animation.c$14$1_0$134           animation
     0000170F  A$lcc166015$87                     animation
     00001710  A$lcc166015$88                     animation
     00001711  A$lcc166015$89                     animation
     00001713  A$lcc166015$90                     animation
     00001714  A$lcc166015$91                     animation
     00001715  A$lcc166015$95                     animation
     00001715  C$animation.c$15$1_0$134           animation
     00001716  A$lcc166015$96                     animation
     00001717  A$lcc166015$97                     animation
     00001718  A$lcc166015$98                     animation
     00001719  A$lcc166015$99                     animation
     0000171A  A$lcc166015$100                    animation
     0000171B  A$lcc166015$101                    animation
     0000171D  A$lcc166015$102                    animation
     0000171E  A$lcc166015$103                    animation
     0000171F  A$lcc166015$104                    animation
     00001720  A$lcc166015$108                    animation
     00001720  C$animation.c$16$1_0$134           animation
     00001723  A$lcc166015$109                    animation
     00001724  A$lcc166015$110                    animation
     00001726  A$lcc166015$114                    animation
     00001726  C$animation.c$17$1_0$134           animation
     00001727  A$lcc166015$115                    animation
     00001728  A$lcc166015$116                    animation
     00001729  A$lcc166015$117                    animation
     0000172A  A$lcc166015$118                    animation
     0000172C  A$lcc166015$122                    animation
     0000172C  C$animation.c$18$1_0$134           animation
     0000172F  A$lcc166015$123                    animation
     00001730  A$lcc166015$124                    animation
     00001731  A$lcc166015$125                    animation
     00001733  A$lcc166015$126                    animation
     00001734  A$lcc166015$127                    animation
     00001735  A$lcc166015$128                    animation
     00001736  A$lcc166015$132                    animation
     00001736  C$animation.c$21$1_0$134           animation
     00001737  A$lcc166015$133                    animation
     00001738  A$lcc166015$134                    animation
     00001739  A$lcc166015$135                    animation
     0000173A  A$lcc166015$136                    animation
     0000173B  A$lcc166015$137                    animation
     0000173D  A$lcc166015$138                    animation
     0000173E  A$lcc166015$139                    animation
     00001740  A$lcc166015$140                    animation
     00001741  A$lcc166015$141                    animation
     00001742  A$lcc166015$142                    animation
     00001745  A$lcc166015$143                    animation
     00001746  A$lcc166015$144                    animation
     00001747  A$lcc166015$145                    animation
     00001748  A$lcc166015$146                    animation
ASxxxx Linker V03.00/V05.40 + sdld,  page 18.
Hexadecimal  [32-Bits]

Area                                    Addr        Size        Decimal Bytes (Attributes)
--------------------------------        ----        ----        ------- ----- ------------
_CODE                               00000200    000022DC =        8924. bytes (REL,CON)

      Value  Global                              Global Defined In Module
      -----  --------------------------------   ------------------------
     00001749  A$lcc166015$147                    animation
     0000174A  A$lcc166015$148                    animation
     0000174B  A$lcc166015$149                    animation
     0000174C  A$lcc166015$150                    animation
     0000174D  A$lcc166015$151                    animation
     0000174F  A$lcc166015$152                    animation
     00001750  A$lcc166015$153                    animation
     00001752  A$lcc166015$154                    animation
     00001753  A$lcc166015$155                    animation
     00001755  A$lcc166015$156                    animation
     00001756  A$lcc166015$157                    animation
     00001758  A$lcc166015$158                    animation
     00001759  A$lcc166015$159                    animation
     0000175A  A$lcc166015$160                    animation
     0000175D  A$lcc166015$161                    animation
     0000175E  A$lcc166015$162                    animation
     0000175F  A$lcc166015$163                    animation
     00001760  A$lcc166015$167                    animation
     00001760  C$animation.c$24$2_0$134           animation
     00001762  A$lcc166015$169                    animation
     00001763  A$lcc166015$170                    animation
     00001764  A$lcc166015$171                    animation
     00001765  A$lcc166015$172                    animation
     00001766  A$lcc166015$173                    animation
     00001768  A$lcc166015$174                    animation
     00001769  A$lcc166015$175                    animation
     0000176B  A$lcc166015$180                    animation
     0000176B  C$animation.c$32$2_0$137           animation
     0000176C  A$lcc166015$181                    animation
     0000176D  A$lcc166015$182                    animation
     00001770  A$lcc166015$183                    animation
     00001771  A$lcc166015$184                    animation
     00001772  A$lcc166015$185                    animation
     00001773  A$lcc166015$186                    animation
     00001774  A$lcc166015$187                    animation
     00001775  A$lcc166015$188                    animation
     00001777  A$lcc166015$192                    animation
     00001777  C$animation.c$33$2_0$137           animation
     00001779  A$lcc166015$193                    animation
     0000177A  A$lcc166015$194                    animation
     0000177B  A$lcc166015$199                    animation
     0000177B  C$animation.c$34$2_0$134           animation
     0000177D  A$lcc166015$200                    animation
     0000177E  A$lcc166015$201                    animation
     00001780  A$lcc166015$202                    animation
     00001781  A$lcc166015$212                    animation
     00001781  C$animation.c$36$2_0$139           animation
     00001781  G$update_animation$0$0             animation
     00001781  _update_animation                  animation
     00001782  A$lcc166015$213                    animation
     00001783  A$lcc166015$214                    animation
ASxxxx Linker V03.00/V05.40 + sdld,  page 19.
Hexadecimal  [32-Bits]

Area                                    Addr        Size        Decimal Bytes (Attributes)
--------------------------------        ----        ----        ------- ----- ------------
_CODE                               00000200    000022DC =        8924. bytes (REL,CON)

      Value  Global                              Global Defined In Module
      -----  --------------------------------   ------------------------
     00001784  A$lcc166015$215                    animation
     00001785  A$lcc166015$219                    animation
     00001785  C$animation.c$38$1_0$139           animation
     00001788  A$lcc166015$220                    animation
     00001789  A$lcc166015$221                    animation
     0000178A  A$lcc166015$222                    animation
     0000178B  A$lcc166015$223                    animation
     0000178C  A$lcc166015$224                    animation
     0000178D  A$lcc166015$225                    animation
     0000178E  A$lcc166015$226                    animation
     0000178F  A$lcc166015$227                    animation
     00001790  A$lcc166015$228                    animation
     00001792  A$lcc166015$229                    animation
     00001793  A$lcc166015$230                    animation
     00001794  A$lcc166015$234                    animation
     00001794  C$animation.c$40$1_0$139           animation
     00001797  A$lcc166015$235                    animation
     00001798  A$lcc166015$236                    animation
     00001799  A$lcc166015$237                    animation
     0000179A  A$lcc166015$238                    animation
     0000179B  A$lcc166015$239                    animation
     0000179C  A$lcc166015$240                    animation
     0000179E  A$lcc166015$241                    animation
     0000179F  A$lcc166015$242                    animation
     000017A0  A$lcc166015$246                    animation
     000017A0  C$animation.c$41$2_0$140           animation
     000017A1  A$lcc166015$247                    animation
     000017A2  A$lcc166015$248                    animation
     000017A3  A$lcc166015$249                    animation
     000017A4  A$lcc166015$250                    animation
     000017A5  A$lcc166015$251                    animation
     000017A6  A$lcc166015$252                    animation
     000017A8  A$lcc166015$253                    animation
     000017A9  A$lcc166015$254                    animation
     000017AB  A$lcc166015$255                    animation
     000017AC  A$lcc166015$256                    animation
     000017AD  A$lcc166015$257                    animation
     000017AF  A$lcc166015$261                    animation
     000017AF  C$animation.c$43$3_0$141           animation
     000017B0  A$lcc166015$262                    animation
     000017B1  A$lcc166015$266                    animation
     000017B1  C$animation.c$44$3_0$141           animation
     000017B2  A$lcc166015$267                    animation
     000017B3  A$lcc166015$268                    animation
     000017B4  A$lcc166015$269                    animation
     000017B5  A$lcc166015$270                    animation
     000017B6  A$lcc166015$271                    animation
     000017B7  A$lcc166015$275                    animation
     000017B7  C$animation.c$45$4_0$142           animation
     000017B8  A$lcc166015$276                    animation
     000017B9  A$lcc166015$277                    animation
ASxxxx Linker V03.00/V05.40 + sdld,  page 20.
Hexadecimal  [32-Bits]

Area                                    Addr        Size        Decimal Bytes (Attributes)
--------------------------------        ----        ----        ------- ----- ------------
_CODE                               00000200    000022DC =        8924. bytes (REL,CON)

      Value  Global                              Global Defined In Module
      -----  --------------------------------   ------------------------
     000017BA  A$lcc166015$278                    animation
     000017BB  A$lcc166015$279                    animation
     000017BC  A$lcc166015$280                    animation
     000017BE  A$lcc166015$284                    animation
     000017BE  C$animation.c$46$4_0$142           animation
     000017C0  A$lcc166015$289                    animation
     000017C1  A$lcc166015$290                    animation
     000017C2  A$lcc166015$295                    animation
     000017C2  C$animation.c$48$2_0$139           animation
     000017C2  XG$update_animation$0$0            animation
     000017C3  A$lcc166015$305                    animation
     000017C3  C$animation.c$50$2_0$144           animation
     000017C3  G$set_animation$0$0                animation
     000017C3  _set_animation                     animation
     000017C4  A$lcc166015$306                    animation
     000017C5  A$lcc166015$307                    animation
     000017C6  A$lcc166015$311                    animation
     000017C6  C$animation.c$52$2_0$145           animation
     000017C7  A$lcc166015$312                    animation
     000017C9  A$lcc166015$313                    animation
     000017CA  A$lcc166015$314                    animation
     000017CB  A$lcc166015$315                    animation
     000017CD  A$lcc166015$316                    animation
     000017CE  A$lcc166015$317                    animation
     000017CF  A$lcc166015$318                    animation
     000017D0  A$lcc166015$319                    animation
     000017D1  A$lcc166015$326                    animation
     000017D1  C$animation.c$53$2_0$145           animation
     000017D1  C$animation.c$55$1_0$144           animation
     000017D2  A$lcc166015$327                    animation
     000017D3  A$lcc166015$331                    animation
     000017D3  C$animation.c$56$1_1$146           animation
     000017D4  A$lcc166015$332                    animation
     000017D5  A$lcc166015$333                    animation
     000017D6  A$lcc166015$334                    animation
     000017D7  A$lcc166015$335                    animation
     000017D9  A$lcc166015$336                    animation
     000017DA  A$lcc166015$340                    animation
     000017DA  C$animation.c$57$1_1$146           animation
     000017DB  A$lcc166015$341                    animation
     000017DC  A$lcc166015$342                    animation
     000017DD  A$lcc166015$343                    animation
     000017DE  A$lcc166015$344                    animation
     000017DF  A$lcc166015$345                    animation
     000017E0  A$lcc166015$349                    animation
     000017E0  C$animation.c$58$1_1$146           animation
     000017E3  A$lcc166015$350                    animation
     000017E4  A$lcc166015$351                    animation
     000017E6  A$lcc166015$359                    animation
     000017E6  C$animation.c$59$1_1$144           animation
     000017E6  XG$set_animation$0$0               animation
ASxxxx Linker V03.00/V05.40 + sdld,  page 21.
Hexadecimal  [32-Bits]

Area                                    Addr        Size        Decimal Bytes (Attributes)
--------------------------------        ----        ----        ------- ----- ------------
_CODE                               00000200    000022DC =        8924. bytes (REL,CON)

      Value  Global                              Global Defined In Module
      -----  --------------------------------   ------------------------
     000017E7  A$lcc166016$52                     draw
     000017E7  C$draw.c$6$0_0$135                 draw
     000017E7  G$draw_actor$0$0                   draw
     000017E7  _draw_actor                        draw
     000017E9  A$lcc166016$53                     draw
     000017EB  A$lcc166016$54                     draw
     000017EC  A$lcc166016$55                     draw
     000017ED  A$lcc166016$56                     draw
     000017EE  A$lcc166016$60                     draw
     000017EE  C$draw.c$8$1_0$135                 draw
     000017F1  A$lcc166016$61                     draw
     000017F2  A$lcc166016$62                     draw
     000017F3  A$lcc166016$63                     draw
     000017F4  A$lcc166016$64                     draw
     000017F5  A$lcc166016$65                     draw
     000017F6  A$lcc166016$66                     draw
     000017F7  A$lcc166016$67                     draw
     000017F8  A$lcc166016$68                     draw
     000017FA  A$lcc166016$69                     draw
     000017FB  A$lcc166016$73                     draw
     000017FB  C$draw.c$9$1_0$135                 draw
     000017FD  A$lcc166016$74                     draw
     000017FE  A$lcc166016$75                     draw
     000017FF  A$lcc166016$76                     draw
     00001800  A$lcc166016$77                     draw
     00001803  A$lcc166016$78                     draw
     00001804  A$lcc166016$79                     draw
     00001805  A$lcc166016$80                     draw
     00001806  A$lcc166016$81                     draw
     00001808  A$lcc166016$82                     draw
     00001809  A$lcc166016$83                     draw
     0000180A  A$lcc166016$84                     draw
     0000180B  A$lcc166016$85                     draw
     0000180D  A$lcc166016$86                     draw
     0000180E  A$lcc166016$87                     draw
     0000180F  A$lcc166016$88                     draw
     00001810  A$lcc166016$89                     draw
     00001811  A$lcc166016$90                     draw
     00001812  A$lcc166016$91                     draw
     00001814  A$lcc166016$92                     draw
     00001815  A$lcc166016$96                     draw
     00001815  C$draw.c$11$1_0$135                draw
     00001817  A$lcc166016$97                     draw
     00001818  A$lcc166016$98                     draw
     00001819  A$lcc166016$99                     draw
     0000181A  A$lcc166016$100                    draw
     0000181B  A$lcc166016$101                    draw
     0000181C  A$lcc166016$102                    draw
     0000181D  A$lcc166016$103                    draw
     0000181E  A$lcc166016$104                    draw
     0000181F  A$lcc166016$105                    draw
ASxxxx Linker V03.00/V05.40 + sdld,  page 22.
Hexadecimal  [32-Bits]

Area                                    Addr        Size        Decimal Bytes (Attributes)
--------------------------------        ----        ----        ------- ----- ------------
_CODE                               00000200    000022DC =        8924. bytes (REL,CON)

      Value  Global                              Global Defined In Module
      -----  --------------------------------   ------------------------
     00001820  A$lcc166016$106                    draw
     00001821  A$lcc166016$107                    draw
     00001822  A$lcc166016$108                    draw
     00001823  A$lcc166016$109                    draw
     00001826  A$lcc166016$110                    draw
     00001827  A$lcc166016$111                    draw
     00001828  A$lcc166016$112                    draw
     00001829  A$lcc166016$113                    draw
     0000182B  A$lcc166016$114                    draw
     0000182C  A$lcc166016$115                    draw
     0000182D  A$lcc166016$116                    draw
     0000182E  A$lcc166016$117                    draw
     00001830  A$lcc166016$118                    draw
     00001831  A$lcc166016$119                    draw
     00001832  A$lcc166016$120                    draw
     00001833  A$lcc166016$121                    draw
     00001834  A$lcc166016$122                    draw
     00001836  A$lcc166016$123                    draw
     00001837  A$lcc166016$124                    draw
     00001838  A$lcc166016$128                    draw
     00001838  C$draw.c$12$1_0$135                draw
     00001839  A$lcc166016$129                    draw
     0000183A  A$lcc166016$130                    draw
     0000183B  A$lcc166016$131                    draw
     0000183C  A$lcc166016$132                    draw
     0000183F  A$lcc166016$133                    draw
     00001840  A$lcc166016$134                    draw
     00001841  A$lcc166016$135                    draw
     00001842  A$lcc166016$136                    draw
     00001844  A$lcc166016$137                    draw
     00001845  A$lcc166016$138                    draw
     00001846  A$lcc166016$139                    draw
     00001847  A$lcc166016$140                    draw
     00001849  A$lcc166016$141                    draw
     0000184A  A$lcc166016$142                    draw
     0000184B  A$lcc166016$143                    draw
     0000184C  A$lcc166016$144                    draw
     0000184D  A$lcc166016$145                    draw
     0000184E  A$lcc166016$146                    draw
     0000184F  A$lcc166016$147                    draw
     00001850  A$lcc166016$148                    draw
     00001851  A$lcc166016$149                    draw
     00001852  A$lcc166016$150                    draw
     00001853  A$lcc166016$151                    draw
     00001855  A$lcc166016$152                    draw
     00001857  A$lcc166016$153                    draw
     00001858  A$lcc166016$154                    draw
     00001859  A$lcc166016$155                    draw
     0000185A  A$lcc166016$156                    draw
     0000185B  A$lcc166016$157                    draw
     0000185C  A$lcc166016$158                    draw
ASxxxx Linker V03.00/V05.40 + sdld,  page 23.
Hexadecimal  [32-Bits]

Area                                    Addr        Size        Decimal Bytes (Attributes)
--------------------------------        ----        ----        ------- ----- ------------
_CODE                               00000200    000022DC =        8924. bytes (REL,CON)

      Value  Global                              Global Defined In Module
      -----  --------------------------------   ------------------------
     0000185D  A$lcc166016$162                    draw
     0000185D  C$draw.c$14$1_0$135                draw
     00001860  A$lcc166016$163                    draw
     00001861  A$lcc166016$164                    draw
     00001862  A$lcc166016$165                    draw
     00001864  A$lcc166016$169                    draw
     00001864  C$draw.c$15$1_0$135                draw
     00001865  A$lcc166016$170                    draw
     00001866  A$lcc166016$171                    draw
     00001867  A$lcc166016$172                    draw
     00001868  A$lcc166016$173                    draw
     00001869  A$lcc166016$174                    draw
     0000186A  A$lcc166016$175                    draw
     0000186B  A$lcc166016$176                    draw
     0000186E  A$lcc166016$177                    draw
     00001870  A$lcc166016$178                    draw
     00001871  A$lcc166016$179                    draw
     00001872  A$lcc166016$180                    draw
     00001873  A$lcc166016$181                    draw
     00001874  A$lcc166016$182                    draw
     00001875  A$lcc166016$183                    draw
     00001876  A$lcc166016$184                    draw
     00001877  A$lcc166016$188                    draw
     00001877  C$draw.c$17$1_0$135                draw
     00001879  A$lcc166016$189                    draw
     0000187A  A$lcc166016$190                    draw
     0000187B  A$lcc166016$191                    draw
     0000187D  A$lcc166016$192                    draw
     0000187E  A$lcc166016$193                    draw
     00001880  A$lcc166016$194                    draw
     00001881  A$lcc166016$195                    draw
     00001883  A$lcc166016$199                    draw
     00001883  C$draw.c$20$2_0$135                draw
     00001885  A$lcc166016$201                    draw
     00001886  A$lcc166016$202                    draw
     00001888  A$lcc166016$203                    draw
     00001889  A$lcc166016$204                    draw
     0000188B  A$lcc166016$206                    draw
     0000188C  A$lcc166016$207                    draw
     0000188D  A$lcc166016$208                    draw
     0000188E  A$lcc166016$209                    draw
     0000188F  A$lcc166016$210                    draw
     00001890  A$lcc166016$211                    draw
     00001892  A$lcc166016$212                    draw
     00001895  A$lcc166016$213                    draw
     00001896  A$lcc166016$214                    draw
     00001897  A$lcc166016$215                    draw
     00001898  A$lcc166016$216                    draw
     00001899  A$lcc166016$218                    draw
     0000189A  A$lcc166016$219                    draw
     0000189B  A$lcc166016$220                    draw
ASxxxx Linker V03.00/V05.40 + sdld,  page 24.
Hexadecimal  [32-Bits]

Area                                    Addr        Size        Decimal Bytes (Attributes)
--------------------------------        ----        ----        ------- ----- ------------
_CODE                               00000200    000022DC =        8924. bytes (REL,CON)

      Value  Global                              Global Defined In Module
      -----  --------------------------------   ------------------------
     0000189C  A$lcc166016$221                    draw
     0000189D  A$lcc166016$222                    draw
     0000189E  A$lcc166016$223                    draw
     0000189F  A$lcc166016$224                    draw
     000018A2  A$lcc166016$225                    draw
     000018A3  A$lcc166016$226                    draw
     000018A4  A$lcc166016$227                    draw
     000018A5  A$lcc166016$228                    draw
     000018A6  A$lcc166016$229                    draw
     000018A7  A$lcc166016$233                    draw
     000018A7  C$draw.c$20$2_0$136                draw
     000018A8  A$lcc166016$234                    draw
     000018AA  A$lcc166016$239                    draw
     000018AA  C$draw.c$24$2_0$137                draw
     000018AC  A$lcc166016$240                    draw
     000018AD  A$lcc166016$241                    draw
     000018AE  A$lcc166016$242                    draw
     000018B0  A$lcc166016$244                    draw
     000018B2  A$lcc166016$245                    draw
     000018B3  A$lcc166016$247                    draw
     000018B5  A$lcc166016$248                    draw
     000018B6  A$lcc166016$249                    draw
     000018B7  A$lcc166016$250                    draw
     000018B8  A$lcc166016$251                    draw
     000018B9  A$lcc166016$252                    draw
     000018BA  A$lcc166016$253                    draw
     000018BB  A$lcc166016$254                    draw
     000018BC  A$lcc166016$255                    draw
     000018BE  A$lcc166016$256                    draw
     000018C0  A$lcc166016$258                    draw
     000018C2  A$lcc166016$259                    draw
     000018C4  A$lcc166016$260                    draw
     000018C5  A$lcc166016$261                    draw
     000018C7  A$lcc166016$262                    draw
     000018C8  A$lcc166016$263                    draw
     000018CA  A$lcc166016$264                    draw
     000018CB  A$lcc166016$265                    draw
     000018CC  A$lcc166016$266                    draw
     000018CD  A$lcc166016$267                    draw
     000018CE  A$lcc166016$268                    draw
     000018D1  A$lcc166016$269                    draw
     000018D2  A$lcc166016$270                    draw
     000018D3  A$lcc166016$271                    draw
     000018D4  A$lcc166016$272                    draw
     000018D6  A$lcc166016$273                    draw
     000018D7  A$lcc166016$274                    draw
     000018D8  A$lcc166016$275                    draw
     000018D9  A$lcc166016$276                    draw
     000018DB  A$lcc166016$278                    draw
     000018DC  A$lcc166016$279                    draw
     000018DD  A$lcc166016$280                    draw
ASxxxx Linker V03.00/V05.40 + sdld,  page 25.
Hexadecimal  [32-Bits]

Area                                    Addr        Size        Decimal Bytes (Attributes)
--------------------------------        ----        ----        ------- ----- ------------
_CODE                               00000200    000022DC =        8924. bytes (REL,CON)

      Value  Global                              Global Defined In Module
      -----  --------------------------------   ------------------------
     000018DE  A$lcc166016$281                    draw
     000018DF  A$lcc166016$282                    draw
     000018E1  A$lcc166016$283                    draw
     000018E2  A$lcc166016$284                    draw
     000018E3  A$lcc166016$285                    draw
     000018E5  A$lcc166016$286                    draw
     000018E6  A$lcc166016$287                    draw
     000018E7  A$lcc166016$288                    draw
     000018E8  A$lcc166016$289                    draw
     000018E9  A$lcc166016$290                    draw
     000018EB  A$lcc166016$291                    draw
     000018EC  A$lcc166016$292                    draw
     000018ED  A$lcc166016$296                    draw
     000018ED  C$draw.c$26$2_0$137                draw
     000018F0  A$lcc166016$301                    draw
     000018F0  C$draw.c$28$3_0$139                draw
     000018F2  A$lcc166016$302                    draw
     000018F3  A$lcc166016$303                    draw
     000018F5  A$lcc166016$304                    draw
     000018F8  A$lcc166016$308                    draw
     000018FB  A$lcc166016$309                    draw
     000018FD  A$lcc166016$310                    draw
     000018FE  A$lcc166016$311                    draw
     000018FF  A$lcc166016$312                    draw
     00001900  A$lcc166016$313                    draw
     00001901  A$lcc166016$314                    draw
     00001902  A$lcc166016$315                    draw
     00001903  A$lcc166016$316                    draw
     00001904  A$lcc166016$317                    draw
     00001905  A$lcc166016$321                    draw
     00001905  C$draw.c$26$2_0$135                draw
     00001907  A$lcc166016$322                    draw
     00001908  A$lcc166016$323                    draw
     0000190A  A$lcc166016$324                    draw
     0000190B  A$lcc166016$328                    draw
     0000190B  C$draw.c$30$5_0$141                draw
     0000190D  A$lcc166016$329                    draw
     00001910  A$lcc166016$332                    draw
     00001911  A$lcc166016$333                    draw
     00001912  A$lcc166016$334                    draw
     00001913  A$lcc166016$335                    draw
     00001914  A$lcc166016$336                    draw
     00001915  A$lcc166016$337                    draw
     00001916  A$lcc166016$338                    draw
     00001917  A$lcc166016$339                    draw
     00001919  A$lcc166016$340                    draw
     0000191B  A$lcc166016$342                    draw
     0000191D  A$lcc166016$343                    draw
     0000191F  A$lcc166016$344                    draw
     00001920  A$lcc166016$345                    draw
     00001922  A$lcc166016$346                    draw
ASxxxx Linker V03.00/V05.40 + sdld,  page 26.
Hexadecimal  [32-Bits]

Area                                    Addr        Size        Decimal Bytes (Attributes)
--------------------------------        ----        ----        ------- ----- ------------
_CODE                               00000200    000022DC =        8924. bytes (REL,CON)

      Value  Global                              Global Defined In Module
      -----  --------------------------------   ------------------------
     00001923  A$lcc166016$347                    draw
     00001925  A$lcc166016$348                    draw
     00001926  A$lcc166016$349                    draw
     00001927  A$lcc166016$350                    draw
     00001928  A$lcc166016$351                    draw
     00001929  A$lcc166016$352                    draw
     0000192C  A$lcc166016$353                    draw
     0000192D  A$lcc166016$354                    draw
     0000192E  A$lcc166016$355                    draw
     0000192F  A$lcc166016$356                    draw
     00001931  A$lcc166016$357                    draw
     00001932  A$lcc166016$358                    draw
     00001933  A$lcc166016$359                    draw
     00001934  A$lcc166016$360                    draw
     00001936  A$lcc166016$361                    draw
     00001937  A$lcc166016$362                    draw
     00001938  A$lcc166016$363                    draw
     00001939  A$lcc166016$364                    draw
     0000193A  A$lcc166016$365                    draw
     0000193C  A$lcc166016$366                    draw
     0000193D  A$lcc166016$367                    draw
     0000193E  A$lcc166016$369                    draw
     0000193F  A$lcc166016$370                    draw
     00001940  A$lcc166016$371                    draw
     00001941  A$lcc166016$372                    draw
     00001942  A$lcc166016$373                    draw
     00001944  A$lcc166016$374                    draw
     00001945  A$lcc166016$375                    draw
     00001946  A$lcc166016$376                    draw
     00001948  A$lcc166016$377                    draw
     00001949  A$lcc166016$378                    draw
     0000194A  A$lcc166016$379                    draw
     0000194B  A$lcc166016$380                    draw
     0000194C  A$lcc166016$381                    draw
     0000194D  A$lcc166016$382                    draw
     0000194E  A$lcc166016$383                    draw
     0000194F  A$lcc166016$384                    draw
     00001950  A$lcc166016$385                    draw
     00001952  A$lcc166016$386                    draw
     00001953  A$lcc166016$387                    draw
     00001954  A$lcc166016$388                    draw
     00001955  A$lcc166016$389                    draw
     00001957  A$lcc166016$390                    draw
     00001958  A$lcc166016$391                    draw
     00001959  A$lcc166016$392                    draw
     0000195A  A$lcc166016$393                    draw
     0000195B  A$lcc166016$394                    draw
     0000195D  A$lcc166016$395                    draw
     0000195E  A$lcc166016$396                    draw
     0000195F  A$lcc166016$398                    draw
     00001961  A$lcc166016$399                    draw
ASxxxx Linker V03.00/V05.40 + sdld,  page 27.
Hexadecimal  [32-Bits]

Area                                    Addr        Size        Decimal Bytes (Attributes)
--------------------------------        ----        ----        ------- ----- ------------
_CODE                               00000200    000022DC =        8924. bytes (REL,CON)

      Value  Global                              Global Defined In Module
      -----  --------------------------------   ------------------------
     00001962  A$lcc166016$400                    draw
     00001964  A$lcc166016$401                    draw
     00001965  A$lcc166016$402                    draw
     00001966  A$lcc166016$403                    draw
     00001967  A$lcc166016$404                    draw
     00001969  A$lcc166016$405                    draw
     0000196A  A$lcc166016$406                    draw
     0000196C  A$lcc166016$407                    draw
     0000196D  A$lcc166016$408                    draw
     0000196F  A$lcc166016$409                    draw
     00001970  A$lcc166016$411                    draw
     00001971  A$lcc166016$412                    draw
     00001972  A$lcc166016$413                    draw
     00001973  A$lcc166016$414                    draw
     00001974  A$lcc166016$415                    draw
     00001975  A$lcc166016$416                    draw
     00001977  A$lcc166016$417                    draw
     00001978  A$lcc166016$418                    draw
     0000197A  A$lcc166016$419                    draw
     0000197C  A$lcc166016$421                    draw
     0000197E  A$lcc166016$422                    draw
     00001980  A$lcc166016$423                    draw
     00001981  A$lcc166016$424                    draw
     00001983  A$lcc166016$425                    draw
     00001984  A$lcc166016$426                    draw
     00001986  A$lcc166016$427                    draw
     00001987  A$lcc166016$428                    draw
     00001988  A$lcc166016$429                    draw
     00001989  A$lcc166016$430                    draw
     0000198A  A$lcc166016$431                    draw
     0000198D  A$lcc166016$432                    draw
     0000198E  A$lcc166016$433                    draw
     0000198F  A$lcc166016$434                    draw
     00001990  A$lcc166016$435                    draw
     00001992  A$lcc166016$436                    draw
     00001993  A$lcc166016$437                    draw
     00001994  A$lcc166016$438                    draw
     00001995  A$lcc166016$439                    draw
     00001997  A$lcc166016$441                    draw
     00001998  A$lcc166016$442                    draw
     00001999  A$lcc166016$443                    draw
     0000199A  A$lcc166016$444                    draw
     0000199B  A$lcc166016$445                    draw
     0000199C  A$lcc166016$446                    draw
     0000199D  A$lcc166016$447                    draw
     0000199E  A$lcc166016$448                    draw
     0000199F  A$lcc166016$449                    draw
     000019A0  A$lcc166016$450                    draw
     000019A1  A$lcc166016$451                    draw
     000019A2  A$lcc166016$452                    draw
     000019A3  A$lcc166016$453                    draw
ASxxxx Linker V03.00/V05.40 + sdld,  page 28.
Hexadecimal  [32-Bits]

Area                                    Addr        Size        Decimal Bytes (Attributes)
--------------------------------        ----        ----        ------- ----- ------------
_CODE                               00000200    000022DC =        8924. bytes (REL,CON)

      Value  Global                              Global Defined In Module
      -----  --------------------------------   ------------------------
     000019A4  A$lcc166016$454                    draw
     000019A5  A$lcc166016$455                    draw
     000019A6  A$lcc166016$456                    draw
     000019A7  A$lcc166016$457                    draw
     000019A9  A$lcc166016$458                    draw
     000019AA  A$lcc166016$459                    draw
     000019AB  A$lcc166016$460                    draw
     000019AC  A$lcc166016$461                    draw
     000019AE  A$lcc166016$462                    draw
     000019AF  A$lcc166016$463                    draw
     000019B0  A$lcc166016$464                    draw
     000019B1  A$lcc166016$465                    draw
     000019B2  A$lcc166016$466                    draw
     000019B4  A$lcc166016$467                    draw
     000019B5  A$lcc166016$468                    draw
     000019B6  A$lcc166016$472                    draw
     000019B6  C$draw.c$33$5_0$141                draw
     000019B9  A$lcc166016$475                    draw
     000019BB  A$lcc166016$477                    draw
     000019BC  A$lcc166016$478                    draw
     000019BD  A$lcc166016$479                    draw
     000019BE  A$lcc166016$480                    draw
     000019BF  A$lcc166016$481                    draw
     000019C0  A$lcc166016$482                    draw
     000019C1  A$lcc166016$483                    draw
     000019C2  A$lcc166016$484                    draw
     000019C4  A$lcc166016$485                    draw
     000019C6  A$lcc166016$487                    draw
     000019C8  A$lcc166016$488                    draw
     000019CA  A$lcc166016$489                    draw
     000019CB  A$lcc166016$490                    draw
     000019CD  A$lcc166016$491                    draw
     000019CE  A$lcc166016$492                    draw
     000019D0  A$lcc166016$493                    draw
     000019D1  A$lcc166016$494                    draw
     000019D2  A$lcc166016$495                    draw
     000019D3  A$lcc166016$496                    draw
     000019D4  A$lcc166016$497                    draw
     000019D7  A$lcc166016$498                    draw
     000019D8  A$lcc166016$499                    draw
     000019D9  A$lcc166016$500                    draw
     000019DA  A$lcc166016$501                    draw
     000019DC  A$lcc166016$502                    draw
     000019DD  A$lcc166016$503                    draw
     000019DE  A$lcc166016$504                    draw
     000019DF  A$lcc166016$505                    draw
     000019E1  A$lcc166016$507                    draw
     000019E2  A$lcc166016$508                    draw
     000019E3  A$lcc166016$509                    draw
     000019E4  A$lcc166016$510                    draw
     000019E5  A$lcc166016$511                    draw
ASxxxx Linker V03.00/V05.40 + sdld,  page 29.
Hexadecimal  [32-Bits]

Area                                    Addr        Size        Decimal Bytes (Attributes)
--------------------------------        ----        ----        ------- ----- ------------
_CODE                               00000200    000022DC =        8924. bytes (REL,CON)

      Value  Global                              Global Defined In Module
      -----  --------------------------------   ------------------------
     000019E7  A$lcc166016$512                    draw
     000019E8  A$lcc166016$513                    draw
     000019E9  A$lcc166016$514                    draw
     000019EB  A$lcc166016$515                    draw
     000019EC  A$lcc166016$516                    draw
     000019ED  A$lcc166016$517                    draw
     000019EE  A$lcc166016$518                    draw
     000019EF  A$lcc166016$519                    draw
     000019F1  A$lcc166016$520                    draw
     000019F2  A$lcc166016$521                    draw
     000019F3  A$lcc166016$523                    draw
     000019F4  A$lcc166016$524                    draw
     000019F6  A$lcc166016$525                    draw
     000019F8  A$lcc166016$526                    draw
     000019F9  A$lcc166016$527                    draw
     000019FB  A$lcc166016$528                    draw
     000019FC  A$lcc166016$530                    draw
     000019FE  A$lcc166016$531                    draw
     000019FF  A$lcc166016$532                    draw
     00001A00  A$lcc166016$533                    draw
     00001A01  A$lcc166016$534                    draw
     00001A02  A$lcc166016$535                    draw
     00001A03  A$lcc166016$536                    draw
     00001A05  A$lcc166016$537                    draw
     00001A06  A$lcc166016$538                    draw
     00001A08  A$lcc166016$539                    draw
     00001A0A  A$lcc166016$541                    draw
     00001A0C  A$lcc166016$542                    draw
     00001A0E  A$lcc166016$543                    draw
     00001A0F  A$lcc166016$544                    draw
     00001A11  A$lcc166016$545                    draw
     00001A12  A$lcc166016$546                    draw
     00001A14  A$lcc166016$547                    draw
     00001A15  A$lcc166016$548                    draw
     00001A16  A$lcc166016$549                    draw
     00001A17  A$lcc166016$550                    draw
     00001A18  A$lcc166016$551                    draw
     00001A1B  A$lcc166016$552                    draw
     00001A1C  A$lcc166016$553                    draw
     00001A1D  A$lcc166016$554                    draw
     00001A1E  A$lcc166016$555                    draw
     00001A20  A$lcc166016$556                    draw
     00001A21  A$lcc166016$557                    draw
     00001A22  A$lcc166016$558                    draw
     00001A23  A$lcc166016$559                    draw
     00001A25  A$lcc166016$561                    draw
     00001A26  A$lcc166016$562                    draw
     00001A27  A$lcc166016$563                    draw
     00001A28  A$lcc166016$564                    draw
     00001A29  A$lcc166016$565                    draw
     00001A2B  A$lcc166016$566                    draw
ASxxxx Linker V03.00/V05.40 + sdld,  page 30.
Hexadecimal  [32-Bits]

Area                                    Addr        Size        Decimal Bytes (Attributes)
--------------------------------        ----        ----        ------- ----- ------------
_CODE                               00000200    000022DC =        8924. bytes (REL,CON)

      Value  Global                              Global Defined In Module
      -----  --------------------------------   ------------------------
     00001A2C  A$lcc166016$567                    draw
     00001A2D  A$lcc166016$568                    draw
     00001A2F  A$lcc166016$569                    draw
     00001A30  A$lcc166016$570                    draw
     00001A31  A$lcc166016$571                    draw
     00001A32  A$lcc166016$572                    draw
     00001A33  A$lcc166016$573                    draw
     00001A34  A$lcc166016$574                    draw
     00001A35  A$lcc166016$575                    draw
     00001A36  A$lcc166016$576                    draw
     00001A37  A$lcc166016$577                    draw
     00001A39  A$lcc166016$578                    draw
     00001A3A  A$lcc166016$579                    draw
     00001A3B  A$lcc166016$580                    draw
     00001A3C  A$lcc166016$581                    draw
     00001A3E  A$lcc166016$582                    draw
     00001A3F  A$lcc166016$583                    draw
     00001A40  A$lcc166016$584                    draw
     00001A41  A$lcc166016$585                    draw
     00001A42  A$lcc166016$586                    draw
     00001A43  A$lcc166016$587                    draw
     00001A44  A$lcc166016$588                    draw
     00001A45  A$lcc166016$592                    draw
     00001A45  C$draw.c$38$3_0$139                draw
     00001A48  A$lcc166016$597                    draw
     00001A48  C$draw.c$41$4_0$144                draw
     00001A4A  A$lcc166016$598                    draw
     00001A4B  A$lcc166016$599                    draw
     00001A4D  A$lcc166016$600                    draw
     00001A50  A$lcc166016$602                    draw
     00001A52  A$lcc166016$603                    draw
     00001A53  A$lcc166016$605                    draw
     00001A55  A$lcc166016$606                    draw
     00001A56  A$lcc166016$607                    draw
     00001A57  A$lcc166016$608                    draw
     00001A58  A$lcc166016$609                    draw
     00001A59  A$lcc166016$610                    draw
     00001A5A  A$lcc166016$611                    draw
     00001A5B  A$lcc166016$612                    draw
     00001A5C  A$lcc166016$613                    draw
     00001A5E  A$lcc166016$614                    draw
     00001A60  A$lcc166016$616                    draw
     00001A62  A$lcc166016$617                    draw
     00001A64  A$lcc166016$618                    draw
     00001A65  A$lcc166016$619                    draw
     00001A67  A$lcc166016$620                    draw
     00001A68  A$lcc166016$621                    draw
     00001A6A  A$lcc166016$622                    draw
     00001A6B  A$lcc166016$623                    draw
     00001A6C  A$lcc166016$624                    draw
     00001A6D  A$lcc166016$625                    draw
ASxxxx Linker V03.00/V05.40 + sdld,  page 31.
Hexadecimal  [32-Bits]

Area                                    Addr        Size        Decimal Bytes (Attributes)
--------------------------------        ----        ----        ------- ----- ------------
_CODE                               00000200    000022DC =        8924. bytes (REL,CON)

      Value  Global                              Global Defined In Module
      -----  --------------------------------   ------------------------
     00001A6E  A$lcc166016$626                    draw
     00001A71  A$lcc166016$627                    draw
     00001A72  A$lcc166016$628                    draw
     00001A73  A$lcc166016$629                    draw
     00001A74  A$lcc166016$630                    draw
     00001A76  A$lcc166016$631                    draw
     00001A77  A$lcc166016$632                    draw
     00001A78  A$lcc166016$633                    draw
     00001A79  A$lcc166016$634                    draw
     00001A7B  A$lcc166016$636                    draw
     00001A7C  A$lcc166016$637                    draw
     00001A7D  A$lcc166016$638                    draw
     00001A7E  A$lcc166016$639                    draw
     00001A7F  A$lcc166016$640                    draw
     00001A81  A$lcc166016$641                    draw
     00001A82  A$lcc166016$642                    draw
     00001A83  A$lcc166016$643                    draw
     00001A85  A$lcc166016$644                    draw
     00001A86  A$lcc166016$645                    draw
     00001A87  A$lcc166016$646                    draw
     00001A88  A$lcc166016$647                    draw
     00001A89  A$lcc166016$648                    draw
     00001A8B  A$lcc166016$649                    draw
     00001A8C  A$lcc166016$650                    draw
     00001A8D  A$lcc166016$652                    draw
     00001A8E  A$lcc166016$653                    draw
     00001A90  A$lcc166016$654                    draw
     00001A91  A$lcc166016$655                    draw
     00001A92  A$lcc166016$656                    draw
     00001A94  A$lcc166016$657                    draw
     00001A95  A$lcc166016$658                    draw
     00001A96  A$lcc166016$659                    draw
     00001A97  A$lcc166016$661                    draw
     00001A99  A$lcc166016$662                    draw
     00001A9A  A$lcc166016$663                    draw
     00001A9B  A$lcc166016$664                    draw
     00001A9C  A$lcc166016$665                    draw
     00001A9D  A$lcc166016$666                    draw
     00001A9E  A$lcc166016$667                    draw
     00001A9F  A$lcc166016$668                    draw
     00001AA0  A$lcc166016$669                    draw
     00001AA2  A$lcc166016$670                    draw
     00001AA4  A$lcc166016$672                    draw
     00001AA6  A$lcc166016$673                    draw
     00001AA8  A$lcc166016$674                    draw
     00001AA9  A$lcc166016$675                    draw
     00001AAB  A$lcc166016$676                    draw
     00001AAC  A$lcc166016$677                    draw
     00001AAE  A$lcc166016$678                    draw
     00001AB1  A$lcc166016$679                    draw
     00001AB2  A$lcc166016$680                    draw
ASxxxx Linker V03.00/V05.40 + sdld,  page 32.
Hexadecimal  [32-Bits]

Area                                    Addr        Size        Decimal Bytes (Attributes)
--------------------------------        ----        ----        ------- ----- ------------
_CODE                               00000200    000022DC =        8924. bytes (REL,CON)

      Value  Global                              Global Defined In Module
      -----  --------------------------------   ------------------------
     00001AB3  A$lcc166016$681                    draw
     00001AB4  A$lcc166016$682                    draw
     00001AB5  A$lcc166016$683                    draw
     00001AB6  A$lcc166016$684                    draw
     00001AB7  A$lcc166016$685                    draw
     00001AB9  A$lcc166016$686                    draw
     00001ABA  A$lcc166016$687                    draw
     00001ABB  A$lcc166016$688                    draw
     00001ABC  A$lcc166016$689                    draw
     00001ABE  A$lcc166016$690                    draw
     00001ABF  A$lcc166016$691                    draw
     00001AC0  A$lcc166016$692                    draw
     00001AC1  A$lcc166016$693                    draw
     00001AC2  A$lcc166016$694                    draw
     00001AC4  A$lcc166016$695                    draw
     00001AC5  A$lcc166016$696                    draw
     00001AC6  A$lcc166016$698                    draw
     00001AC7  A$lcc166016$699                    draw
     00001AC8  A$lcc166016$700                    draw
     00001AC9  A$lcc166016$701                    draw
     00001ACA  A$lcc166016$702                    draw
     00001ACC  A$lcc166016$703                    draw
     00001ACD  A$lcc166016$704                    draw
     00001ACE  A$lcc166016$705                    draw
     00001AD0  A$lcc166016$706                    draw
     00001AD1  A$lcc166016$707                    draw
     00001AD2  A$lcc166016$708                    draw
     00001AD3  A$lcc166016$709                    draw
     00001AD4  A$lcc166016$710                    draw
     00001AD5  A$lcc166016$711                    draw
     00001AD6  A$lcc166016$712                    draw
     00001AD7  A$lcc166016$713                    draw
     00001AD8  A$lcc166016$714                    draw
     00001ADA  A$lcc166016$715                    draw
     00001ADB  A$lcc166016$716                    draw
     00001ADC  A$lcc166016$717                    draw
     00001ADD  A$lcc166016$718                    draw
     00001ADF  A$lcc166016$719                    draw
     00001AE0  A$lcc166016$720                    draw
     00001AE1  A$lcc166016$721                    draw
     00001AE2  A$lcc166016$722                    draw
     00001AE3  A$lcc166016$723                    draw
     00001AE5  A$lcc166016$725                    draw
     00001AE6  A$lcc166016$726                    draw
     00001AE7  A$lcc166016$727                    draw
     00001AE8  A$lcc166016$728                    draw
     00001AEA  A$lcc166016$729                    draw
     00001AEB  A$lcc166016$730                    draw
     00001AEC  A$lcc166016$731                    draw
     00001AEE  A$lcc166016$732                    draw
     00001AF0  A$lcc166016$733                    draw
ASxxxx Linker V03.00/V05.40 + sdld,  page 33.
Hexadecimal  [32-Bits]

Area                                    Addr        Size        Decimal Bytes (Attributes)
--------------------------------        ----        ----        ------- ----- ------------
_CODE                               00000200    000022DC =        8924. bytes (REL,CON)

      Value  Global                              Global Defined In Module
      -----  --------------------------------   ------------------------
     00001AF1  A$lcc166016$734                    draw
     00001AF2  A$lcc166016$735                    draw
     00001AF3  A$lcc166016$736                    draw
     00001AF5  A$lcc166016$737                    draw
     00001AF6  A$lcc166016$739                    draw
     00001AF8  A$lcc166016$740                    draw
     00001AF9  A$lcc166016$741                    draw
     00001AFA  A$lcc166016$742                    draw
     00001AFB  A$lcc166016$743                    draw
     00001AFC  A$lcc166016$744                    draw
     00001AFD  A$lcc166016$745                    draw
     00001AFF  A$lcc166016$746                    draw
     00001B00  A$lcc166016$747                    draw
     00001B02  A$lcc166016$748                    draw
     00001B04  A$lcc166016$750                    draw
     00001B06  A$lcc166016$751                    draw
     00001B08  A$lcc166016$752                    draw
     00001B09  A$lcc166016$753                    draw
     00001B0B  A$lcc166016$754                    draw
     00001B0C  A$lcc166016$755                    draw
     00001B0E  A$lcc166016$756                    draw
     00001B0F  A$lcc166016$757                    draw
     00001B10  A$lcc166016$758                    draw
     00001B13  A$lcc166016$759                    draw
     00001B14  A$lcc166016$760                    draw
     00001B15  A$lcc166016$761                    draw
     00001B16  A$lcc166016$762                    draw
     00001B18  A$lcc166016$763                    draw
     00001B19  A$lcc166016$764                    draw
     00001B1A  A$lcc166016$765                    draw
     00001B1B  A$lcc166016$766                    draw
     00001B1D  A$lcc166016$768                    draw
     00001B1E  A$lcc166016$769                    draw
     00001B1F  A$lcc166016$770                    draw
     00001B20  A$lcc166016$771                    draw
     00001B21  A$lcc166016$772                    draw
     00001B22  A$lcc166016$773                    draw
     00001B23  A$lcc166016$774                    draw
     00001B24  A$lcc166016$775                    draw
     00001B25  A$lcc166016$776                    draw
     00001B26  A$lcc166016$777                    draw
     00001B27  A$lcc166016$778                    draw
     00001B28  A$lcc166016$779                    draw
     00001B29  A$lcc166016$780                    draw
     00001B2A  A$lcc166016$781                    draw
     00001B2B  A$lcc166016$782                    draw
     00001B2C  A$lcc166016$783                    draw
     00001B2D  A$lcc166016$784                    draw
     00001B2E  A$lcc166016$785                    draw
     00001B2F  A$lcc166016$786                    draw
     00001B30  A$lcc166016$787                    draw
ASxxxx Linker V03.00/V05.40 + sdld,  page 34.
Hexadecimal  [32-Bits]

Area                                    Addr        Size        Decimal Bytes (Attributes)
--------------------------------        ----        ----        ------- ----- ------------
_CODE                               00000200    000022DC =        8924. bytes (REL,CON)

      Value  Global                              Global Defined In Module
      -----  --------------------------------   ------------------------
     00001B32  A$lcc166016$789                    draw
     00001B33  A$lcc166016$790                    draw
     00001B34  A$lcc166016$791                    draw
     00001B35  A$lcc166016$793                    draw
     00001B37  A$lcc166016$794                    draw
     00001B38  A$lcc166016$795                    draw
     00001B39  A$lcc166016$796                    draw
     00001B3A  A$lcc166016$797                    draw
     00001B3B  A$lcc166016$798                    draw
     00001B3C  A$lcc166016$799                    draw
     00001B3E  A$lcc166016$800                    draw
     00001B3F  A$lcc166016$801                    draw
     00001B41  A$lcc166016$802                    draw
     00001B43  A$lcc166016$804                    draw
     00001B45  A$lcc166016$805                    draw
     00001B47  A$lcc166016$806                    draw
     00001B48  A$lcc166016$807                    draw
     00001B4A  A$lcc166016$808                    draw
     00001B4B  A$lcc166016$809                    draw
     00001B4D  A$lcc166016$810                    draw
     00001B4E  A$lcc166016$811                    draw
     00001B4F  A$lcc166016$812                    draw
     00001B52  A$lcc166016$813                    draw
     00001B53  A$lcc166016$814                    draw
     00001B54  A$lcc166016$815                    draw
     00001B55  A$lcc166016$816                    draw
     00001B57  A$lcc166016$817                    draw
     00001B58  A$lcc166016$818                    draw
     00001B59  A$lcc166016$819                    draw
     00001B5A  A$lcc166016$820                    draw
     00001B5C  A$lcc166016$822                    draw
     00001B5D  A$lcc166016$823                    draw
     00001B5E  A$lcc166016$824                    draw
     00001B5F  A$lcc166016$825                    draw
     00001B60  A$lcc166016$826                    draw
     00001B62  A$lcc166016$827                    draw
     00001B63  A$lcc166016$828                    draw
     00001B64  A$lcc166016$829                    draw
     00001B66  A$lcc166016$830                    draw
     00001B67  A$lcc166016$831                    draw
     00001B68  A$lcc166016$832                    draw
     00001B69  A$lcc166016$833                    draw
     00001B6A  A$lcc166016$834                    draw
     00001B6B  A$lcc166016$835                    draw
     00001B6C  A$lcc166016$836                    draw
     00001B6D  A$lcc166016$837                    draw
     00001B6E  A$lcc166016$838                    draw
     00001B70  A$lcc166016$839                    draw
     00001B71  A$lcc166016$840                    draw
     00001B72  A$lcc166016$841                    draw
     00001B73  A$lcc166016$842                    draw
ASxxxx Linker V03.00/V05.40 + sdld,  page 35.
Hexadecimal  [32-Bits]

Area                                    Addr        Size        Decimal Bytes (Attributes)
--------------------------------        ----        ----        ------- ----- ------------
_CODE                               00000200    000022DC =        8924. bytes (REL,CON)

      Value  Global                              Global Defined In Module
      -----  --------------------------------   ------------------------
     00001B75  A$lcc166016$843                    draw
     00001B76  A$lcc166016$844                    draw
     00001B77  A$lcc166016$845                    draw
     00001B78  A$lcc166016$846                    draw
     00001B79  A$lcc166016$847                    draw
     00001B7A  A$lcc166016$848                    draw
     00001B7B  A$lcc166016$849                    draw
     00001B7C  A$lcc166016$850                    draw
     00001B7D  A$lcc166016$858                    draw
     00001B7D  C$draw.c$46$2_0$135                draw
     00001B7F  A$lcc166016$863                    draw
     00001B7F  C$draw.c$48$2_0$135                draw
     00001B7F  XG$draw_actor$0$0                  draw
     00001B80  A$lcc166017$59                     entity
     00001B80  C$entity.c$7$0_0$2                 entity
     00001B80  C$entity.c$9$1_0$2                 entity
     00001B80  G$create_entity$0$0                entity
     00001B80  _create_entity                     entity
     00001B83  A$lcc166017$60                     entity
     00001B84  A$lcc166017$61                     entity
     00001B87  A$lcc166017$62                     entity
     00001B88  A$lcc166017$63                     entity
     00001B89  A$lcc166017$64                     entity
     00001B8A  A$lcc166017$65                     entity
     00001B8B  A$lcc166017$66                     entity
     00001B8C  A$lcc166017$67                     entity
     00001B8D  A$lcc166017$75                     entity
     00001B8D  C$entity.c$10$1_0$2                entity
     00001B8D  XG$create_entity$0$0               entity
     00001B8E  A$lcc166019$56                     global_action
     00001B8E  C$global_action.c$3$0_0$141        global_action
     00001B8E  C$global_action.c$5$1_0$141        global_action
     00001B8E  G$check_global_input$0$0           global_action
     00001B8E  _check_global_input                global_action
     00001B91  A$lcc166019$60                     global_action
     00001B91  C$global_action.c$8$1_0$141        global_action
     00001B94  A$lcc166019$68                     global_action
     00001B94  C$global_action.c$9$1_0$141        global_action
     00001B94  XG$check_global_input$0$0          global_action
     00001B95  A$lcc166020$58                     inventory
     00001B95  C$inventory.c$9$0_0$135            inventory
     00001B95  G$init_arrow$0$0                   inventory
     00001B95  _init_arrow                        inventory
     00001B96  A$lcc166020$59                     inventory
     00001B97  A$lcc166020$63                     inventory
     00001B97  C$inventory.c$11$1_0$135           inventory
     00001B9A  A$lcc166020$64                     inventory
     00001B9D  A$lcc166020$65                     inventory
     00001B9E  A$lcc166020$66                     inventory
     00001B9F  A$lcc166020$67                     inventory
     00001BA0  A$lcc166020$71                     inventory
ASxxxx Linker V03.00/V05.40 + sdld,  page 36.
Hexadecimal  [32-Bits]

Area                                    Addr        Size        Decimal Bytes (Attributes)
--------------------------------        ----        ----        ------- ----- ------------
_CODE                               00000200    000022DC =        8924. bytes (REL,CON)

      Value  Global                              Global Defined In Module
      -----  --------------------------------   ------------------------
     00001BA0  C$inventory.c$13$1_0$135           inventory
     00001BA3  A$lcc166020$72                     inventory
     00001BA4  A$lcc166020$73                     inventory
     00001BA5  A$lcc166020$74                     inventory
     00001BA6  A$lcc166020$75                     inventory
     00001BA7  A$lcc166020$76                     inventory
     00001BA9  A$lcc166020$80                     inventory
     00001BA9  C$inventory.c$14$1_0$135           inventory
     00001BAC  A$lcc166020$81                     inventory
     00001BAF  A$lcc166020$82                     inventory
     00001BB0  A$lcc166020$83                     inventory
     00001BB1  A$lcc166020$84                     inventory
     00001BB4  A$lcc166020$85                     inventory
     00001BB5  A$lcc166020$86                     inventory
     00001BB7  A$lcc166020$90                     inventory
     00001BB7  C$inventory.c$16$1_0$135           inventory
     00001BBA  A$lcc166020$91                     inventory
     00001BBD  A$lcc166020$92                     inventory
     00001BBE  A$lcc166020$93                     inventory
     00001BBF  A$lcc166020$94                     inventory
     00001BC1  A$lcc166020$95                     inventory
     00001BC3  A$lcc166020$96                     inventory
     00001BC4  A$lcc166020$97                     inventory
     00001BC5  A$lcc166020$98                     inventory
     00001BC7  A$lcc166020$99                     inventory
     00001BC8  A$lcc166020$100                    inventory
     00001BC9  A$lcc166020$101                    inventory
     00001BCA  A$lcc166020$102                    inventory
     00001BCB  A$lcc166020$103                    inventory
     00001BCC  A$lcc166020$104                    inventory
     00001BCD  A$lcc166020$105                    inventory
     00001BCE  A$lcc166020$106                    inventory
     00001BCF  A$lcc166020$107                    inventory
     00001BD0  A$lcc166020$108                    inventory
     00001BD1  A$lcc166020$109                    inventory
     00001BD2  A$lcc166020$113                    inventory
     00001BD2  C$inventory.c$17$1_0$135           inventory
     00001BD5  A$lcc166020$114                    inventory
     00001BD8  A$lcc166020$115                    inventory
     00001BD9  A$lcc166020$116                    inventory
     00001BDA  A$lcc166020$117                    inventory
     00001BDC  A$lcc166020$118                    inventory
     00001BDE  A$lcc166020$119                    inventory
     00001BDF  A$lcc166020$120                    inventory
     00001BE0  A$lcc166020$121                    inventory
     00001BE2  A$lcc166020$122                    inventory
     00001BE3  A$lcc166020$123                    inventory
     00001BE4  A$lcc166020$124                    inventory
     00001BE5  A$lcc166020$125                    inventory
     00001BE6  A$lcc166020$126                    inventory
     00001BE9  A$lcc166020$127                    inventory
ASxxxx Linker V03.00/V05.40 + sdld,  page 37.
Hexadecimal  [32-Bits]

Area                                    Addr        Size        Decimal Bytes (Attributes)
--------------------------------        ----        ----        ------- ----- ------------
_CODE                               00000200    000022DC =        8924. bytes (REL,CON)

      Value  Global                              Global Defined In Module
      -----  --------------------------------   ------------------------
     00001BEA  A$lcc166020$128                    inventory
     00001BEB  A$lcc166020$129                    inventory
     00001BEC  A$lcc166020$130                    inventory
     00001BED  A$lcc166020$131                    inventory
     00001BEE  A$lcc166020$132                    inventory
     00001BEF  A$lcc166020$133                    inventory
     00001BF0  A$lcc166020$137                    inventory
     00001BF0  C$inventory.c$19$1_0$135           inventory
     00001BF3  A$lcc166020$138                    inventory
     00001BF6  A$lcc166020$139                    inventory
     00001BF9  A$lcc166020$140                    inventory
     00001BFA  A$lcc166020$141                    inventory
     00001BFB  A$lcc166020$142                    inventory
     00001BFC  A$lcc166020$143                    inventory
     00001BFE  A$lcc166020$147                    inventory
     00001BFE  C$inventory.c$20$1_0$135           inventory
     00001C01  A$lcc166020$148                    inventory
     00001C04  A$lcc166020$149                    inventory
     00001C05  A$lcc166020$150                    inventory
     00001C06  A$lcc166020$151                    inventory
     00001C09  A$lcc166020$152                    inventory
     00001C0A  A$lcc166020$153                    inventory
     00001C0C  A$lcc166020$157                    inventory
     00001C0C  C$inventory.c$21$1_0$135           inventory
     00001C0D  A$lcc166020$158                    inventory
     00001C10  A$lcc166020$159                    inventory
     00001C13  A$lcc166020$160                    inventory
     00001C14  A$lcc166020$161                    inventory
     00001C15  A$lcc166020$162                    inventory
     00001C16  A$lcc166020$163                    inventory
     00001C18  A$lcc166020$167                    inventory
     00001C18  C$inventory.c$23$2_0$136           inventory
     00001C1A  A$lcc166020$168                    inventory
     00001C1C  A$lcc166020$169                    inventory
     00001C1D  A$lcc166020$170                    inventory
     00001C1F  A$lcc166020$174                    inventory
     00001C1F  C$inventory.c$25$1_1$136           inventory
     00001C22  A$lcc166020$175                    inventory
     00001C23  A$lcc166020$176                    inventory
     00001C24  A$lcc166020$177                    inventory
     00001C25  A$lcc166020$178                    inventory
     00001C26  A$lcc166020$179                    inventory
     00001C27  A$lcc166020$180                    inventory
     00001C28  A$lcc166020$181                    inventory
     00001C29  A$lcc166020$182                    inventory
     00001C2A  A$lcc166020$183                    inventory
     00001C2B  A$lcc166020$184                    inventory
     00001C2C  A$lcc166020$185                    inventory
     00001C2D  A$lcc166020$186                    inventory
     00001C2E  A$lcc166020$187                    inventory
     00001C2F  A$lcc166020$188                    inventory
ASxxxx Linker V03.00/V05.40 + sdld,  page 38.
Hexadecimal  [32-Bits]

Area                                    Addr        Size        Decimal Bytes (Attributes)
--------------------------------        ----        ----        ------- ----- ------------
_CODE                               00000200    000022DC =        8924. bytes (REL,CON)

      Value  Global                              Global Defined In Module
      -----  --------------------------------   ------------------------
     00001C32  A$lcc166020$189                    inventory
     00001C33  A$lcc166020$190                    inventory
     00001C34  A$lcc166020$191                    inventory
     00001C35  A$lcc166020$192                    inventory
     00001C38  A$lcc166020$193                    inventory
     00001C39  A$lcc166020$194                    inventory
     00001C3B  A$lcc166020$195                    inventory
     00001C3C  A$lcc166020$196                    inventory
     00001C3D  A$lcc166020$197                    inventory
     00001C40  A$lcc166020$198                    inventory
     00001C41  A$lcc166020$199                    inventory
     00001C42  A$lcc166020$200                    inventory
     00001C43  A$lcc166020$201                    inventory
     00001C44  A$lcc166020$202                    inventory
     00001C45  A$lcc166020$203                    inventory
     00001C46  A$lcc166020$204                    inventory
     00001C49  A$lcc166020$205                    inventory
     00001C4A  A$lcc166020$206                    inventory
     00001C4D  A$lcc166020$207                    inventory
     00001C4E  A$lcc166020$211                    inventory
     00001C51  A$lcc166020$212                    inventory
     00001C52  A$lcc166020$217                    inventory
     00001C52  C$inventory.c$26$1_1$135           inventory
     00001C52  XG$init_arrow$0$0                  inventory
     00001C53  A$lcc166021$66                     inventory_input
     00001C53  C$inventory_input.c$18$0_0$143     inventory_input
     00001C53  C$inventory_input.c$20$1_0$143     inventory_input
     00001C53  G$inventory_input$0$0              inventory_input
     00001C53  _inventory_input                   inventory_input
     00001C56  A$lcc166021$67                     inventory_input
     00001C57  A$lcc166021$71                     inventory_input
     00001C57  C$inventory_input.c$22$2_0$144     inventory_input
     00001C59  A$lcc166021$72                     inventory_input
     00001C5B  A$lcc166021$73                     inventory_input
     00001C5E  A$lcc166021$74                     inventory_input
     00001C60  A$lcc166021$75                     inventory_input
     00001C62  A$lcc166021$79                     inventory_input
     00001C62  C$inventory_input.c$24$3_0$145     inventory_input
     00001C65  A$lcc166021$80                     inventory_input
     00001C68  A$lcc166021$81                     inventory_input
     00001C69  A$lcc166021$82                     inventory_input
     00001C6A  A$lcc166021$83                     inventory_input
     00001C6B  A$lcc166021$84                     inventory_input
     00001C6C  A$lcc166021$85                     inventory_input
     00001C6D  A$lcc166021$86                     inventory_input
     00001C6E  A$lcc166021$87                     inventory_input
     00001C6F  A$lcc166021$88                     inventory_input
     00001C72  A$lcc166021$89                     inventory_input
     00001C73  A$lcc166021$90                     inventory_input
     00001C76  A$lcc166021$91                     inventory_input
     00001C77  A$lcc166021$92                     inventory_input
ASxxxx Linker V03.00/V05.40 + sdld,  page 39.
Hexadecimal  [32-Bits]

Area                                    Addr        Size        Decimal Bytes (Attributes)
--------------------------------        ----        ----        ------- ----- ------------
_CODE                               00000200    000022DC =        8924. bytes (REL,CON)

      Value  Global                              Global Defined In Module
      -----  --------------------------------   ------------------------
     00001C78  A$lcc166021$93                     inventory_input
     00001C79  A$lcc166021$94                     inventory_input
     00001C7A  A$lcc166021$95                     inventory_input
     00001C7C  A$lcc166021$96                     inventory_input
     00001C7F  A$lcc166021$97                     inventory_input
     00001C80  A$lcc166021$98                     inventory_input
     00001C81  A$lcc166021$99                     inventory_input
     00001C82  A$lcc166021$101                    inventory_input
     00001C83  A$lcc166021$106                    inventory_input
     00001C83  C$inventory_input.c$27$1_1$146     inventory_input
     00001C86  A$lcc166021$107                    inventory_input
     00001C87  A$lcc166021$108                    inventory_input
     00001C8A  A$lcc166021$109                    inventory_input
     00001C8B  A$lcc166021$110                    inventory_input
     00001C8E  A$lcc166021$111                    inventory_input
     00001C8F  A$lcc166021$112                    inventory_input
     00001C90  A$lcc166021$116                    inventory_input
     00001C90  C$inventory_input.c$28$1_1$146     inventory_input
     00001C93  A$lcc166021$117                    inventory_input
     00001C94  A$lcc166021$118                    inventory_input
     00001C95  A$lcc166021$122                    inventory_input
     00001C95  C$inventory_input.c$22$1_1$143     inventory_input
     00001C98  A$lcc166021$126                    inventory_input
     00001C98  C$inventory_input.c$30$2_1$147     inventory_input
     00001C9A  A$lcc166021$127                    inventory_input
     00001C9C  A$lcc166021$128                    inventory_input
     00001C9E  A$lcc166021$129                    inventory_input
     00001CA0  A$lcc166021$133                    inventory_input
     00001CA0  C$inventory_input.c$32$3_1$148     inventory_input
     00001CA1  A$lcc166021$134                    inventory_input
     00001CA3  A$lcc166021$135                    inventory_input
     00001CA4  A$lcc166021$136                    inventory_input
     00001CA6  A$lcc166021$141                    inventory_input
     00001CA6  C$inventory_input.c$34$3_1$149     inventory_input
     00001CA8  A$lcc166021$142                    inventory_input
     00001CAA  A$lcc166021$143                    inventory_input
     00001CAC  A$lcc166021$144                    inventory_input
     00001CAE  A$lcc166021$148                    inventory_input
     00001CAE  C$inventory_input.c$36$4_1$150     inventory_input
     00001CAF  A$lcc166021$149                    inventory_input
     00001CB1  A$lcc166021$150                    inventory_input
     00001CB2  A$lcc166021$151                    inventory_input
     00001CB4  A$lcc166021$156                    inventory_input
     00001CB4  C$inventory_input.c$38$4_1$151     inventory_input
     00001CB6  A$lcc166021$157                    inventory_input
     00001CB8  A$lcc166021$158                    inventory_input
     00001CBA  A$lcc166021$159                    inventory_input
     00001CBC  A$lcc166021$163                    inventory_input
     00001CBC  C$inventory_input.c$40$5_1$152     inventory_input
     00001CBD  A$lcc166021$164                    inventory_input
     00001CBF  A$lcc166021$165                    inventory_input
ASxxxx Linker V03.00/V05.40 + sdld,  page 40.
Hexadecimal  [32-Bits]

Area                                    Addr        Size        Decimal Bytes (Attributes)
--------------------------------        ----        ----        ------- ----- ------------
_CODE                               00000200    000022DC =        8924. bytes (REL,CON)

      Value  Global                              Global Defined In Module
      -----  --------------------------------   ------------------------
     00001CC0  A$lcc166021$166                    inventory_input
     00001CC2  A$lcc166021$171                    inventory_input
     00001CC2  C$inventory_input.c$42$5_1$153     inventory_input
     00001CC4  A$lcc166021$172                    inventory_input
     00001CC6  A$lcc166021$173                    inventory_input
     00001CC8  A$lcc166021$174                    inventory_input
     00001CCA  A$lcc166021$178                    inventory_input
     00001CCA  C$inventory_input.c$44$6_1$154     inventory_input
     00001CCB  A$lcc166021$179                    inventory_input
     00001CCD  A$lcc166021$180                    inventory_input
     00001CCE  A$lcc166021$185                    inventory_input
     00001CCE  C$inventory_input.c$47$2_1$155     inventory_input
     00001CD0  A$lcc166021$186                    inventory_input
     00001CD1  A$lcc166021$187                    inventory_input
     00001CD3  A$lcc166021$191                    inventory_input
     00001CD3  C$inventory_input.c$48$2_1$155     inventory_input
     00001CD5  A$lcc166021$196                    inventory_input
     00001CD5  C$inventory_input.c$49$2_1$156     inventory_input
     00001CD6  A$lcc166021$197                    inventory_input
     00001CD8  A$lcc166021$198                    inventory_input
     00001CDA  A$lcc166021$202                    inventory_input
     00001CDA  C$inventory_input.c$50$2_1$156     inventory_input
     00001CDC  A$lcc166021$207                    inventory_input
     00001CDC  C$inventory_input.c$52$2_1$157     inventory_input
     00001CDE  A$lcc166021$208                    inventory_input
     00001CDF  A$lcc166021$209                    inventory_input
     00001CE1  A$lcc166021$213                    inventory_input
     00001CE1  C$inventory_input.c$53$2_1$157     inventory_input
     00001CE3  A$lcc166021$218                    inventory_input
     00001CE3  C$inventory_input.c$54$2_1$158     inventory_input
     00001CE4  A$lcc166021$219                    inventory_input
     00001CE6  A$lcc166021$220                    inventory_input
     00001CE8  A$lcc166021$224                    inventory_input
     00001CE8  C$inventory_input.c$55$2_1$158     inventory_input
     00001CEA  A$lcc166021$229                    inventory_input
     00001CEA  C$inventory_input.c$57$1_1$146     inventory_input
     00001CEB  A$lcc166021$233                    inventory_input
     00001CEB  C$inventory_input.c$58$1_1$146     inventory_input
     00001CEE  A$lcc166021$234                    inventory_input
     00001CF1  A$lcc166021$235                    inventory_input
     00001CF2  A$lcc166021$236                    inventory_input
     00001CF3  A$lcc166021$237                    inventory_input
     00001CF6  A$lcc166021$238                    inventory_input
     00001CF7  A$lcc166021$239                    inventory_input
     00001CF8  A$lcc166021$243                    inventory_input
     00001CF8  C$inventory_input.c$60$1_1$146     inventory_input
     00001CFB  A$lcc166021$244                    inventory_input
     00001CFC  A$lcc166021$252                    inventory_input
     00001CFC  C$inventory_input.c$61$1_1$143     inventory_input
     00001CFC  XG$inventory_input$0$0             inventory_input
     00001CFD  G$top_limit$0_0$0                  inventory_input
ASxxxx Linker V03.00/V05.40 + sdld,  page 41.
Hexadecimal  [32-Bits]

Area                                    Addr        Size        Decimal Bytes (Attributes)
--------------------------------        ----        ----        ------- ----- ------------
_CODE                               00000200    000022DC =        8924. bytes (REL,CON)

      Value  Global                              Global Defined In Module
      -----  --------------------------------   ------------------------
     00001CFD  _top_limit                         inventory_input
     00001CFE  G$bottom_limit$0_0$0               inventory_input
     00001CFE  _bottom_limit                      inventory_input
     00001CFF  G$left_limit$0_0$0                 inventory_input
     00001CFF  _left_limit                        inventory_input
     00001D00  G$right_limit$0_0$0                inventory_input
     00001D00  _right_limit                       inventory_input
     00001D01  G$VERTICAL_MOVEMENT$0_0$0          inventory_input
     00001D01  _VERTICAL_MOVEMENT                 inventory_input
     00001D02  G$HORIZONTAL_MOVEMENT$0_0$0        inventory_input
     00001D02  _HORIZONTAL_MOVEMENT               inventory_input
     00001D03  A$lcc166022$58                     load
     00001D03  C$load.c$8$0_0$131                 load
     00001D03  G$load_actor_tiles$0$0             load
     00001D03  _load_actor_tiles                  load
     00001D05  A$lcc166022$59                     load
     00001D07  A$lcc166022$60                     load
     00001D08  A$lcc166022$61                     load
     00001D09  A$lcc166022$62                     load
     00001D0A  A$lcc166022$66                     load
     00001D0A  C$load.c$9$2_0$131                 load
     00001D0D  A$lcc166022$67                     load
     00001D0F  A$lcc166022$68                     load
     00001D10  A$lcc166022$72                     load
     00001D10  C$load.c$12$1_0$131                load
     00001D12  A$lcc166022$73                     load
     00001D14  A$lcc166022$75                     load
     00001D16  A$lcc166022$76                     load
     00001D17  A$lcc166022$77                     load
     00001D19  A$lcc166022$78                     load
     00001D1A  A$lcc166022$79                     load
     00001D1C  A$lcc166022$83                     load
     00001D1C  C$load.c$13$3_0$133                load
     00001D1E  A$lcc166022$84                     load
     00001D1F  A$lcc166022$85                     load
     00001D20  A$lcc166022$86                     load
     00001D21  A$lcc166022$87                     load
     00001D22  A$lcc166022$88                     load
     00001D23  A$lcc166022$89                     load
     00001D24  A$lcc166022$90                     load
     00001D25  A$lcc166022$91                     load
     00001D26  A$lcc166022$92                     load
     00001D27  A$lcc166022$93                     load
     00001D29  A$lcc166022$94                     load
     00001D2A  A$lcc166022$95                     load
     00001D2B  A$lcc166022$96                     load
     00001D2C  A$lcc166022$97                     load
     00001D2D  A$lcc166022$98                     load
     00001D2F  A$lcc166022$99                     load
     00001D30  A$lcc166022$100                    load
     00001D32  A$lcc166022$101                    load
ASxxxx Linker V03.00/V05.40 + sdld,  page 42.
Hexadecimal  [32-Bits]

Area                                    Addr        Size        Decimal Bytes (Attributes)
--------------------------------        ----        ----        ------- ----- ------------
_CODE                               00000200    000022DC =        8924. bytes (REL,CON)

      Value  Global                              Global Defined In Module
      -----  --------------------------------   ------------------------
     00001D33  A$lcc166022$102                    load
     00001D35  A$lcc166022$103                    load
     00001D36  A$lcc166022$104                    load
     00001D37  A$lcc166022$105                    load
     00001D38  A$lcc166022$106                    load
     00001D39  A$lcc166022$107                    load
     00001D3B  A$lcc166022$108                    load
     00001D3C  A$lcc166022$109                    load
     00001D3D  A$lcc166022$110                    load
     00001D3E  A$lcc166022$111                    load
     00001D3F  A$lcc166022$112                    load
     00001D42  A$lcc166022$113                    load
     00001D44  A$lcc166022$117                    load
     00001D44  C$load.c$12$2_0$132                load
     00001D46  A$lcc166022$118                    load
     00001D47  A$lcc166022$119                    load
     00001D49  A$lcc166022$124                    load
     00001D49  C$load.c$17$1_0$131                load
     00001D4C  A$lcc166022$125                    load
     00001D4E  A$lcc166022$126                    load
     00001D4F  A$lcc166022$127                    load
     00001D50  A$lcc166022$128                    load
     00001D51  A$lcc166022$129                    load
     00001D52  A$lcc166022$130                    load
     00001D53  A$lcc166022$131                    load
     00001D54  A$lcc166022$132                    load
     00001D56  A$lcc166022$133                    load
     00001D57  A$lcc166022$134                    load
     00001D58  A$lcc166022$138                    load
     00001D58  C$load.c$18$1_0$131                load
     00001D5B  A$lcc166022$139                    load
     00001D5D  A$lcc166022$140                    load
     00001D5E  A$lcc166022$141                    load
     00001D5F  A$lcc166022$142                    load
     00001D60  A$lcc166022$143                    load
     00001D61  A$lcc166022$144                    load
     00001D62  A$lcc166022$145                    load
     00001D63  A$lcc166022$146                    load
     00001D65  A$lcc166022$147                    load
     00001D66  A$lcc166022$148                    load
     00001D67  A$lcc166022$149                    load
     00001D68  A$lcc166022$150                    load
     00001D6A  A$lcc166022$151                    load
     00001D6B  A$lcc166022$152                    load
     00001D6C  A$lcc166022$153                    load
     00001D6D  A$lcc166022$154                    load
     00001D6E  A$lcc166022$155                    load
     00001D70  A$lcc166022$156                    load
     00001D71  A$lcc166022$157                    load
     00001D72  A$lcc166022$161                    load
     00001D72  C$load.c$21$1_0$131                load
ASxxxx Linker V03.00/V05.40 + sdld,  page 43.
Hexadecimal  [32-Bits]

Area                                    Addr        Size        Decimal Bytes (Attributes)
--------------------------------        ----        ----        ------- ----- ------------
_CODE                               00000200    000022DC =        8924. bytes (REL,CON)

      Value  Global                              Global Defined In Module
      -----  --------------------------------   ------------------------
     00001D75  A$lcc166022$162                    load
     00001D77  A$lcc166022$163                    load
     00001D78  A$lcc166022$164                    load
     00001D7B  A$lcc166022$168                    load
     00001D7B  C$load.c$23$1_0$131                load
     00001D7D  A$lcc166022$169                    load
     00001D7E  A$lcc166022$173                    load
     00001D7E  C$load.c$24$1_0$131                load
     00001D80  A$lcc166022$174                    load
     00001D81  A$lcc166022$175                    load
     00001D82  A$lcc166022$176                    load
     00001D83  A$lcc166022$189                    load
     00001D83  C$load.c$26$1_0$135                load
     00001D83  C$load.c$27$3_0$137                load
     00001D83  G$reset_render_component$0$0       load
     00001D83  _reset_render_component            load
     00001D86  A$lcc166022$191                    load
     00001D89  A$lcc166022$192                    load
     00001D8A  A$lcc166022$193                    load
     00001D8B  A$lcc166022$194                    load
     00001D8C  A$lcc166022$195                    load
     00001D8D  A$lcc166022$196                    load
     00001D8E  A$lcc166022$197                    load
     00001D90  A$lcc166022$201                    load
     00001D90  C$load.c$28$3_0$137                load
     00001D93  A$lcc166022$202                    load
     00001D94  A$lcc166022$203                    load
     00001D96  A$lcc166022$207                    load
     00001D96  C$load.c$29$3_0$137                load
     00001D99  A$lcc166022$208                    load
     00001D9A  A$lcc166022$209                    load
     00001D9C  A$lcc166022$213                    load
     00001D9C  C$load.c$27$2_0$136                load
     00001D9D  A$lcc166022$214                    load
     00001D9F  A$lcc166022$219                    load
     00001D9F  C$load.c$32$1_0$135                load
     00001DA0  A$lcc166022$220                    load
     00001DA3  A$lcc166022$228                    load
     00001DA3  C$load.c$33$1_0$135                load
     00001DA3  XG$reset_render_component$0$0      load
     00001DA4  A$lcc166023$58                     map_scenes
     00001DA4  C$map_scenes.c$11$2_0$36           map_scenes
     00001DA4  C$map_scenes.c$9$0_0$36            map_scenes
     00001DA4  G$scene_manager_MapScene$0$0       map_scenes
     00001DA4  _scene_manager_MapScene            map_scenes
     00001DA6  A$lcc166023$59                     map_scenes
     00001DA8  A$lcc166023$60                     map_scenes
     00001DAA  A$lcc166023$61                     map_scenes
     00001DAC  A$lcc166023$62                     map_scenes
     00001DAE  A$lcc166023$63                     map_scenes
     00001DB0  A$lcc166023$64                     map_scenes
ASxxxx Linker V03.00/V05.40 + sdld,  page 44.
Hexadecimal  [32-Bits]

Area                                    Addr        Size        Decimal Bytes (Attributes)
--------------------------------        ----        ----        ------- ----- ------------
_CODE                               00000200    000022DC =        8924. bytes (REL,CON)

      Value  Global                              Global Defined In Module
      -----  --------------------------------   ------------------------
     00001DB2  A$lcc166023$72                     map_scenes
     00001DB2  C$map_scenes.c$13$3_0$37           map_scenes
     00001DB2  C$map_scenes.c$14$3_0$37           map_scenes
     00001DB5  A$lcc166023$76                     map_scenes
     00001DB5  C$map_scenes.c$15$3_0$37           map_scenes
     00001DB8  A$lcc166023$77                     map_scenes
     00001DB9  A$lcc166023$85                     map_scenes
     00001DB9  C$map_scenes.c$16$3_0$37           map_scenes
     00001DB9  C$map_scenes.c$17$3_0$37           map_scenes
     00001DBC  A$lcc166023$89                     map_scenes
     00001DBC  C$map_scenes.c$18$3_0$37           map_scenes
     00001DBF  A$lcc166023$90                     map_scenes
     00001DC0  A$lcc166023$98                     map_scenes
     00001DC0  C$map_scenes.c$19$3_0$37           map_scenes
     00001DC0  C$map_scenes.c$20$3_0$37           map_scenes
     00001DC3  A$lcc166023$102                    map_scenes
     00001DC3  C$map_scenes.c$21$3_0$37           map_scenes
     00001DC6  A$lcc166023$103                    map_scenes
     00001DC7  A$lcc166023$111                    map_scenes
     00001DC7  C$map_scenes.c$22$3_0$37           map_scenes
     00001DC7  C$map_scenes.c$23$3_0$37           map_scenes
     00001DCA  A$lcc166023$122                    map_scenes
     00001DCA  C$map_scenes.c$24$2_0$36           map_scenes
     00001DCA  C$map_scenes.c$25$2_0$36           map_scenes
     00001DCA  XG$scene_manager_MapScene$0$0      map_scenes
     00001DCB  A$lcc166024$62                     player
     00001DCB  C$player.c$6$0_0$135               player
     00001DCB  G$init_player$0$0                  player
     00001DCB  _init_player                       player
     00001DCD  A$lcc166024$66                     player
     00001DCD  C$player.c$8$1_0$135               player
     00001DD0  A$lcc166024$67                     player
     00001DD3  A$lcc166024$68                     player
     00001DD4  A$lcc166024$69                     player
     00001DD5  A$lcc166024$70                     player
     00001DD6  A$lcc166024$74                     player
     00001DD6  C$player.c$10$1_0$135              player
     00001DD9  A$lcc166024$75                     player
     00001DDA  A$lcc166024$76                     player
     00001DDB  A$lcc166024$77                     player
     00001DDC  A$lcc166024$78                     player
     00001DDD  A$lcc166024$79                     player
     00001DDF  A$lcc166024$83                     player
     00001DDF  C$player.c$11$1_0$135              player
     00001DE2  A$lcc166024$84                     player
     00001DE5  A$lcc166024$85                     player
     00001DE6  A$lcc166024$86                     player
     00001DE7  A$lcc166024$87                     player
     00001DEA  A$lcc166024$88                     player
     00001DEB  A$lcc166024$89                     player
     00001DED  A$lcc166024$93                     player
ASxxxx Linker V03.00/V05.40 + sdld,  page 45.
Hexadecimal  [32-Bits]

Area                                    Addr        Size        Decimal Bytes (Attributes)
--------------------------------        ----        ----        ------- ----- ------------
_CODE                               00000200    000022DC =        8924. bytes (REL,CON)

      Value  Global                              Global Defined In Module
      -----  --------------------------------   ------------------------
     00001DED  C$player.c$13$1_0$135              player
     00001DF0  A$lcc166024$94                     player
     00001DF3  A$lcc166024$95                     player
     00001DF4  A$lcc166024$96                     player
     00001DF5  A$lcc166024$97                     player
     00001DF6  A$lcc166024$98                     player
     00001DF8  A$lcc166024$99                     player
     00001DFA  A$lcc166024$100                    player
     00001DFB  A$lcc166024$101                    player
     00001DFC  A$lcc166024$102                    player
     00001DFE  A$lcc166024$103                    player
     00001DFF  A$lcc166024$104                    player
     00001E00  A$lcc166024$105                    player
     00001E03  A$lcc166024$106                    player
     00001E04  A$lcc166024$107                    player
     00001E05  A$lcc166024$108                    player
     00001E06  A$lcc166024$109                    player
     00001E07  A$lcc166024$110                    player
     00001E08  A$lcc166024$111                    player
     00001E09  A$lcc166024$112                    player
     00001E0A  A$lcc166024$113                    player
     00001E0B  A$lcc166024$117                    player
     00001E0B  C$player.c$14$1_0$135              player
     00001E0E  A$lcc166024$118                    player
     00001E11  A$lcc166024$119                    player
     00001E12  A$lcc166024$120                    player
     00001E13  A$lcc166024$121                    player
     00001E14  A$lcc166024$122                    player
     00001E16  A$lcc166024$123                    player
     00001E18  A$lcc166024$124                    player
     00001E19  A$lcc166024$125                    player
     00001E1A  A$lcc166024$126                    player
     00001E1C  A$lcc166024$127                    player
     00001E1D  A$lcc166024$128                    player
     00001E1E  A$lcc166024$129                    player
     00001E21  A$lcc166024$130                    player
     00001E22  A$lcc166024$131                    player
     00001E25  A$lcc166024$132                    player
     00001E26  A$lcc166024$133                    player
     00001E27  A$lcc166024$134                    player
     00001E28  A$lcc166024$135                    player
     00001E29  A$lcc166024$136                    player
     00001E2A  A$lcc166024$137                    player
     00001E2B  A$lcc166024$138                    player
     00001E2C  A$lcc166024$142                    player
     00001E2C  C$player.c$16$1_0$135              player
     00001E2F  A$lcc166024$143                    player
     00001E32  A$lcc166024$144                    player
     00001E35  A$lcc166024$145                    player
     00001E36  A$lcc166024$146                    player
     00001E37  A$lcc166024$147                    player
ASxxxx Linker V03.00/V05.40 + sdld,  page 46.
Hexadecimal  [32-Bits]

Area                                    Addr        Size        Decimal Bytes (Attributes)
--------------------------------        ----        ----        ------- ----- ------------
_CODE                               00000200    000022DC =        8924. bytes (REL,CON)

      Value  Global                              Global Defined In Module
      -----  --------------------------------   ------------------------
     00001E38  A$lcc166024$148                    player
     00001E3A  A$lcc166024$152                    player
     00001E3A  C$player.c$17$1_0$135              player
     00001E3D  A$lcc166024$153                    player
     00001E40  A$lcc166024$154                    player
     00001E41  A$lcc166024$155                    player
     00001E42  A$lcc166024$156                    player
     00001E45  A$lcc166024$157                    player
     00001E46  A$lcc166024$158                    player
     00001E48  A$lcc166024$162                    player
     00001E48  C$player.c$18$1_0$135              player
     00001E49  A$lcc166024$163                    player
     00001E4C  A$lcc166024$164                    player
     00001E4F  A$lcc166024$165                    player
     00001E50  A$lcc166024$166                    player
     00001E51  A$lcc166024$167                    player
     00001E52  A$lcc166024$168                    player
     00001E54  A$lcc166024$172                    player
     00001E54  C$player.c$21$2_0$136              player
     00001E56  A$lcc166024$173                    player
     00001E58  A$lcc166024$174                    player
     00001E59  A$lcc166024$175                    player
     00001E5B  A$lcc166024$176                    player
     00001E5C  A$lcc166024$177                    player
     00001E5E  A$lcc166024$178                    player
     00001E5F  A$lcc166024$179                    player
     00001E61  A$lcc166024$180                    player
     00001E62  A$lcc166024$181                    player
     00001E64  A$lcc166024$182                    player
     00001E65  A$lcc166024$183                    player
     00001E67  A$lcc166024$184                    player
     00001E68  A$lcc166024$185                    player
     00001E6B  A$lcc166024$186                    player
     00001E6C  A$lcc166024$187                    player
     00001E6D  A$lcc166024$188                    player
     00001E6E  A$lcc166024$192                    player
     00001E6E  C$player.c$27$2_0$136              player
     00001E6F  A$lcc166024$193                    player
     00001E71  A$lcc166024$194                    player
     00001E72  A$lcc166024$195                    player
     00001E74  A$lcc166024$196                    player
     00001E75  A$lcc166024$197                    player
     00001E77  A$lcc166024$198                    player
     00001E78  A$lcc166024$199                    player
     00001E7A  A$lcc166024$200                    player
     00001E7B  A$lcc166024$201                    player
     00001E7D  A$lcc166024$202                    player
     00001E7E  A$lcc166024$203                    player
     00001E80  A$lcc166024$204                    player
     00001E81  A$lcc166024$205                    player
     00001E83  A$lcc166024$206                    player
ASxxxx Linker V03.00/V05.40 + sdld,  page 47.
Hexadecimal  [32-Bits]

Area                                    Addr        Size        Decimal Bytes (Attributes)
--------------------------------        ----        ----        ------- ----- ------------
_CODE                               00000200    000022DC =        8924. bytes (REL,CON)

      Value  Global                              Global Defined In Module
      -----  --------------------------------   ------------------------
     00001E84  A$lcc166024$207                    player
     00001E86  A$lcc166024$208                    player
     00001E87  A$lcc166024$209                    player
     00001E89  A$lcc166024$210                    player
     00001E8A  A$lcc166024$211                    player
     00001E8C  A$lcc166024$212                    player
     00001E8D  A$lcc166024$213                    player
     00001E8F  A$lcc166024$214                    player
     00001E90  A$lcc166024$215                    player
     00001E92  A$lcc166024$216                    player
     00001E93  A$lcc166024$217                    player
     00001E95  A$lcc166024$218                    player
     00001E96  A$lcc166024$219                    player
     00001E98  A$lcc166024$220                    player
     00001E99  A$lcc166024$221                    player
     00001E9A  A$lcc166024$222                    player
     00001E9B  A$lcc166024$223                    player
     00001E9C  A$lcc166024$224                    player
     00001E9D  A$lcc166024$225                    player
     00001E9F  A$lcc166024$226                    player
     00001EA0  A$lcc166024$227                    player
     00001EA2  A$lcc166024$228                    player
     00001EA3  A$lcc166024$229                    player
     00001EA5  A$lcc166024$230                    player
     00001EA6  A$lcc166024$231                    player
     00001EA8  A$lcc166024$232                    player
     00001EA9  A$lcc166024$233                    player
     00001EAB  A$lcc166024$234                    player
     00001EAC  A$lcc166024$235                    player
     00001EAE  A$lcc166024$236                    player
     00001EAF  A$lcc166024$237                    player
     00001EB1  A$lcc166024$238                    player
     00001EB2  A$lcc166024$239                    player
     00001EB4  A$lcc166024$240                    player
     00001EB5  A$lcc166024$241                    player
     00001EB7  A$lcc166024$242                    player
     00001EB8  A$lcc166024$243                    player
     00001EBA  A$lcc166024$244                    player
     00001EBB  A$lcc166024$245                    player
     00001EBD  A$lcc166024$246                    player
     00001EBE  A$lcc166024$247                    player
     00001EC0  A$lcc166024$248                    player
     00001EC1  A$lcc166024$249                    player
     00001EC3  A$lcc166024$250                    player
     00001EC4  A$lcc166024$251                    player
     00001EC6  A$lcc166024$252                    player
     00001EC7  A$lcc166024$253                    player
     00001EC8  A$lcc166024$254                    player
     00001EC9  A$lcc166024$255                    player
     00001ECA  A$lcc166024$259                    player
     00001ECA  C$player.c$50$2_0$136              player
ASxxxx Linker V03.00/V05.40 + sdld,  page 48.
Hexadecimal  [32-Bits]

Area                                    Addr        Size        Decimal Bytes (Attributes)
--------------------------------        ----        ----        ------- ----- ------------
_CODE                               00000200    000022DC =        8924. bytes (REL,CON)

      Value  Global                              Global Defined In Module
      -----  --------------------------------   ------------------------
     00001ECB  A$lcc166024$260                    player
     00001ECD  A$lcc166024$261                    player
     00001ECE  A$lcc166024$262                    player
     00001ED0  A$lcc166024$263                    player
     00001ED1  A$lcc166024$264                    player
     00001ED3  A$lcc166024$265                    player
     00001ED4  A$lcc166024$266                    player
     00001ED6  A$lcc166024$267                    player
     00001ED7  A$lcc166024$268                    player
     00001ED9  A$lcc166024$269                    player
     00001EDA  A$lcc166024$270                    player
     00001EDC  A$lcc166024$271                    player
     00001EDD  A$lcc166024$272                    player
     00001EE0  A$lcc166024$273                    player
     00001EE1  A$lcc166024$274                    player
     00001EE2  A$lcc166024$275                    player
     00001EE3  A$lcc166024$279                    player
     00001EE3  C$player.c$56$2_0$136              player
     00001EE4  A$lcc166024$280                    player
     00001EE6  A$lcc166024$281                    player
     00001EE7  A$lcc166024$282                    player
     00001EE9  A$lcc166024$283                    player
     00001EEA  A$lcc166024$284                    player
     00001EEC  A$lcc166024$285                    player
     00001EED  A$lcc166024$286                    player
     00001EEF  A$lcc166024$287                    player
     00001EF0  A$lcc166024$288                    player
     00001EF2  A$lcc166024$289                    player
     00001EF3  A$lcc166024$290                    player
     00001EF5  A$lcc166024$291                    player
     00001EF6  A$lcc166024$292                    player
     00001EF8  A$lcc166024$293                    player
     00001EF9  A$lcc166024$294                    player
     00001EFB  A$lcc166024$295                    player
     00001EFC  A$lcc166024$296                    player
     00001EFE  A$lcc166024$297                    player
     00001EFF  A$lcc166024$298                    player
     00001F01  A$lcc166024$299                    player
     00001F02  A$lcc166024$300                    player
     00001F04  A$lcc166024$301                    player
     00001F05  A$lcc166024$302                    player
     00001F07  A$lcc166024$303                    player
     00001F08  A$lcc166024$304                    player
     00001F0A  A$lcc166024$305                    player
     00001F0B  A$lcc166024$306                    player
     00001F0D  A$lcc166024$307                    player
     00001F0E  A$lcc166024$308                    player
     00001F0F  A$lcc166024$309                    player
     00001F10  A$lcc166024$310                    player
     00001F11  A$lcc166024$311                    player
     00001F12  A$lcc166024$312                    player
ASxxxx Linker V03.00/V05.40 + sdld,  page 49.
Hexadecimal  [32-Bits]

Area                                    Addr        Size        Decimal Bytes (Attributes)
--------------------------------        ----        ----        ------- ----- ------------
_CODE                               00000200    000022DC =        8924. bytes (REL,CON)

      Value  Global                              Global Defined In Module
      -----  --------------------------------   ------------------------
     00001F14  A$lcc166024$313                    player
     00001F15  A$lcc166024$314                    player
     00001F17  A$lcc166024$315                    player
     00001F18  A$lcc166024$316                    player
     00001F1A  A$lcc166024$317                    player
     00001F1B  A$lcc166024$318                    player
     00001F1D  A$lcc166024$319                    player
     00001F1E  A$lcc166024$320                    player
     00001F20  A$lcc166024$321                    player
     00001F21  A$lcc166024$322                    player
     00001F23  A$lcc166024$323                    player
     00001F24  A$lcc166024$324                    player
     00001F26  A$lcc166024$325                    player
     00001F27  A$lcc166024$326                    player
     00001F29  A$lcc166024$327                    player
     00001F2A  A$lcc166024$328                    player
     00001F2C  A$lcc166024$329                    player
     00001F2D  A$lcc166024$330                    player
     00001F2F  A$lcc166024$331                    player
     00001F30  A$lcc166024$332                    player
     00001F32  A$lcc166024$333                    player
     00001F33  A$lcc166024$334                    player
     00001F35  A$lcc166024$335                    player
     00001F36  A$lcc166024$336                    player
     00001F38  A$lcc166024$337                    player
     00001F39  A$lcc166024$338                    player
     00001F3B  A$lcc166024$339                    player
     00001F3C  A$lcc166024$340                    player
     00001F3D  A$lcc166024$341                    player
     00001F3E  A$lcc166024$342                    player
     00001F3F  A$lcc166024$346                    player
     00001F3F  C$player.c$78$1_1$136              player
     00001F42  A$lcc166024$347                    player
     00001F43  A$lcc166024$348                    player
     00001F44  A$lcc166024$349                    player
     00001F45  A$lcc166024$350                    player
     00001F46  A$lcc166024$351                    player
     00001F47  A$lcc166024$352                    player
     00001F48  A$lcc166024$353                    player
     00001F49  A$lcc166024$354                    player
     00001F4A  A$lcc166024$355                    player
     00001F4B  A$lcc166024$356                    player
     00001F4C  A$lcc166024$357                    player
     00001F4D  A$lcc166024$358                    player
     00001F4E  A$lcc166024$359                    player
     00001F4F  A$lcc166024$360                    player
     00001F52  A$lcc166024$361                    player
     00001F53  A$lcc166024$362                    player
     00001F54  A$lcc166024$363                    player
     00001F55  A$lcc166024$364                    player
     00001F58  A$lcc166024$365                    player
ASxxxx Linker V03.00/V05.40 + sdld,  page 50.
Hexadecimal  [32-Bits]

Area                                    Addr        Size        Decimal Bytes (Attributes)
--------------------------------        ----        ----        ------- ----- ------------
_CODE                               00000200    000022DC =        8924. bytes (REL,CON)

      Value  Global                              Global Defined In Module
      -----  --------------------------------   ------------------------
     00001F59  A$lcc166024$366                    player
     00001F5B  A$lcc166024$367                    player
     00001F5C  A$lcc166024$368                    player
     00001F5D  A$lcc166024$369                    player
     00001F60  A$lcc166024$370                    player
     00001F61  A$lcc166024$371                    player
     00001F62  A$lcc166024$372                    player
     00001F63  A$lcc166024$373                    player
     00001F64  A$lcc166024$374                    player
     00001F65  A$lcc166024$375                    player
     00001F68  A$lcc166024$376                    player
     00001F69  A$lcc166024$377                    player
     00001F6C  A$lcc166024$378                    player
     00001F6D  A$lcc166024$379                    player
     00001F70  A$lcc166024$383                    player
     00001F70  C$player.c$79$1_1$136              player
     00001F73  A$lcc166024$384                    player
     00001F74  A$lcc166024$385                    player
     00001F75  A$lcc166024$386                    player
     00001F76  A$lcc166024$387                    player
     00001F77  A$lcc166024$388                    player
     00001F78  A$lcc166024$389                    player
     00001F79  A$lcc166024$390                    player
     00001F7A  A$lcc166024$391                    player
     00001F7B  A$lcc166024$392                    player
     00001F7C  A$lcc166024$393                    player
     00001F7D  A$lcc166024$394                    player
     00001F7E  A$lcc166024$395                    player
     00001F7F  A$lcc166024$396                    player
     00001F80  A$lcc166024$397                    player
     00001F83  A$lcc166024$398                    player
     00001F84  A$lcc166024$399                    player
     00001F85  A$lcc166024$400                    player
     00001F86  A$lcc166024$401                    player
     00001F89  A$lcc166024$402                    player
     00001F8A  A$lcc166024$403                    player
     00001F8C  A$lcc166024$404                    player
     00001F8D  A$lcc166024$405                    player
     00001F8E  A$lcc166024$406                    player
     00001F91  A$lcc166024$407                    player
     00001F92  A$lcc166024$408                    player
     00001F93  A$lcc166024$409                    player
     00001F95  A$lcc166024$410                    player
     00001F96  A$lcc166024$411                    player
     00001F97  A$lcc166024$412                    player
     00001F9A  A$lcc166024$413                    player
     00001F9B  A$lcc166024$414                    player
     00001F9E  A$lcc166024$415                    player
     00001F9F  A$lcc166024$416                    player
     00001FA2  A$lcc166024$420                    player
     00001FA2  C$player.c$80$1_1$136              player
ASxxxx Linker V03.00/V05.40 + sdld,  page 51.
Hexadecimal  [32-Bits]

Area                                    Addr        Size        Decimal Bytes (Attributes)
--------------------------------        ----        ----        ------- ----- ------------
_CODE                               00000200    000022DC =        8924. bytes (REL,CON)

      Value  Global                              Global Defined In Module
      -----  --------------------------------   ------------------------
     00001FA5  A$lcc166024$421                    player
     00001FA6  A$lcc166024$422                    player
     00001FA7  A$lcc166024$423                    player
     00001FA8  A$lcc166024$424                    player
     00001FA9  A$lcc166024$425                    player
     00001FAA  A$lcc166024$426                    player
     00001FAB  A$lcc166024$427                    player
     00001FAC  A$lcc166024$428                    player
     00001FAD  A$lcc166024$429                    player
     00001FAE  A$lcc166024$430                    player
     00001FAF  A$lcc166024$431                    player
     00001FB0  A$lcc166024$432                    player
     00001FB1  A$lcc166024$433                    player
     00001FB2  A$lcc166024$434                    player
     00001FB5  A$lcc166024$435                    player
     00001FB6  A$lcc166024$436                    player
     00001FB7  A$lcc166024$437                    player
     00001FB8  A$lcc166024$438                    player
     00001FBB  A$lcc166024$439                    player
     00001FBC  A$lcc166024$440                    player
     00001FBE  A$lcc166024$441                    player
     00001FBF  A$lcc166024$442                    player
     00001FC0  A$lcc166024$443                    player
     00001FC3  A$lcc166024$444                    player
     00001FC4  A$lcc166024$445                    player
     00001FC5  A$lcc166024$446                    player
     00001FC7  A$lcc166024$447                    player
     00001FC8  A$lcc166024$448                    player
     00001FC9  A$lcc166024$449                    player
     00001FCC  A$lcc166024$450                    player
     00001FCD  A$lcc166024$451                    player
     00001FD0  A$lcc166024$452                    player
     00001FD1  A$lcc166024$453                    player
     00001FD4  A$lcc166024$457                    player
     00001FD4  C$player.c$81$1_1$136              player
     00001FD7  A$lcc166024$458                    player
     00001FD8  A$lcc166024$459                    player
     00001FD9  A$lcc166024$460                    player
     00001FDA  A$lcc166024$461                    player
     00001FDB  A$lcc166024$462                    player
     00001FDC  A$lcc166024$463                    player
     00001FDD  A$lcc166024$464                    player
     00001FDE  A$lcc166024$465                    player
     00001FDF  A$lcc166024$466                    player
     00001FE0  A$lcc166024$467                    player
     00001FE1  A$lcc166024$468                    player
     00001FE2  A$lcc166024$469                    player
     00001FE3  A$lcc166024$470                    player
     00001FE4  A$lcc166024$471                    player
     00001FE7  A$lcc166024$472                    player
     00001FE8  A$lcc166024$473                    player
ASxxxx Linker V03.00/V05.40 + sdld,  page 52.
Hexadecimal  [32-Bits]

Area                                    Addr        Size        Decimal Bytes (Attributes)
--------------------------------        ----        ----        ------- ----- ------------
_CODE                               00000200    000022DC =        8924. bytes (REL,CON)

      Value  Global                              Global Defined In Module
      -----  --------------------------------   ------------------------
     00001FE9  A$lcc166024$474                    player
     00001FEA  A$lcc166024$475                    player
     00001FED  A$lcc166024$476                    player
     00001FEE  A$lcc166024$477                    player
     00001FF0  A$lcc166024$478                    player
     00001FF1  A$lcc166024$479                    player
     00001FF2  A$lcc166024$480                    player
     00001FF5  A$lcc166024$481                    player
     00001FF6  A$lcc166024$482                    player
     00001FF7  A$lcc166024$483                    player
     00001FF9  A$lcc166024$484                    player
     00001FFA  A$lcc166024$485                    player
     00001FFB  A$lcc166024$486                    player
     00001FFE  A$lcc166024$487                    player
     00001FFF  A$lcc166024$488                    player
     00002002  A$lcc166024$489                    player
     00002003  A$lcc166024$490                    player
     00002006  A$lcc166024$494                    player
     00002006  C$player.c$83$1_1$136              player
     00002009  A$lcc166024$498                    player
     00002009  C$player.c$84$1_1$136              player
     0000200A  A$lcc166024$499                    player
     0000200B  A$lcc166024$500                    player
     0000200D  A$lcc166024$504                    player
     0000200D  C$player.c$85$1_1$136              player
     00002010  A$lcc166024$505                    player
     00002012  A$lcc166024$509                    player
     00002012  C$player.c$86$1_1$136              player
     00002015  A$lcc166024$510                    player
     00002017  A$lcc166024$514                    player
     00002017  C$player.c$88$1_1$136              player
     0000201A  A$lcc166024$518                    player
     0000201C  A$lcc166024$523                    player
     0000201C  C$player.c$89$1_1$135              player
     0000201C  XG$init_player$0$0                 player
     0000201D  A$lcc166026$59                     render
     0000201D  C$render.c$5$0_0$129               render
     0000201D  C$render.c$6$1_0$129               render
     0000201D  G$render_reset$0$0                 render
     0000201D  _render_reset                      render
     00002020  A$lcc166026$60                     render
     00002021  A$lcc166026$61                     render
     00002023  A$lcc166026$65                     render
     00002023  C$render.c$7$1_0$129               render
     00002026  A$lcc166026$66                     render
     00002027  A$lcc166026$67                     render
     00002029  A$lcc166026$75                     render
     00002029  C$render.c$8$1_0$129               render
     00002029  XG$render_reset$0$0                render
     0000202A  A$lcc166027$56                     scene
     0000202A  C$scene.c$6$0_0$26                 scene
ASxxxx Linker V03.00/V05.40 + sdld,  page 53.
Hexadecimal  [32-Bits]

Area                                    Addr        Size        Decimal Bytes (Attributes)
--------------------------------        ----        ----        ------- ----- ------------
_CODE                               00000200    000022DC =        8924. bytes (REL,CON)

      Value  Global                              Global Defined In Module
      -----  --------------------------------   ------------------------
     0000202A  C$scene.c$8$2_0$27                 scene
     0000202A  G$Scene_Destroy$0$0                scene
     0000202A  _Scene_Destroy                     scene
     0000202D  A$lcc166027$57                     scene
     0000202E  A$lcc166027$58                     scene
     0000202F  A$lcc166027$59                     scene
     00002030  A$lcc166027$60                     scene
     00002031  A$lcc166027$61                     scene
     00002032  A$lcc166027$62                     scene
     00002033  A$lcc166027$63                     scene
     00002034  A$lcc166027$67                     scene
     00002034  C$scene.c$9$2_0$27                 scene
     00002035  A$lcc166027$71                     scene
     00002035  C$scene.c$11$1_0$26                scene
     00002036  A$lcc166027$72                     scene
     00002037  A$lcc166027$73                     scene
     00002038  A$lcc166027$74                     scene
     0000203B  A$lcc166027$75                     scene
     0000203C  A$lcc166027$79                     scene
     0000203C  C$scene.c$12$1_0$26                scene
     0000203D  A$lcc166027$80                     scene
     0000203E  A$lcc166027$81                     scene
     0000203F  A$lcc166027$82                     scene
     00002040  A$lcc166027$90                     scene
     00002040  C$scene.c$13$1_0$26                scene
     00002040  XG$Scene_Destroy$0$0               scene
     00002041  A$lcc166028$62                     scene_manager
     00002041  C$scene_manager.c$11$1_0$155       scene_manager
     00002041  C$scene_manager.c$9$0_0$155        scene_manager
     00002041  G$SceneManager_Create$0$0          scene_manager
     00002041  _SceneManager_Create               scene_manager
     00002042  A$lcc166028$63                     scene_manager
     00002045  A$lcc166028$64                     scene_manager
     00002048  A$lcc166028$65                     scene_manager
     00002049  A$lcc166028$66                     scene_manager
     0000204C  A$lcc166028$67                     scene_manager
     0000204D  A$lcc166028$68                     scene_manager
     0000204E  A$lcc166028$72                     scene_manager
     0000204E  C$scene_manager.c$13$1_0$155       scene_manager
     0000204F  A$lcc166028$73                     scene_manager
     00002050  A$lcc166028$74                     scene_manager
     00002051  A$lcc166028$75                     scene_manager
     00002054  A$lcc166028$76                     scene_manager
     00002055  A$lcc166028$77                     scene_manager
     00002056  A$lcc166028$78                     scene_manager
     00002057  A$lcc166028$79                     scene_manager
     00002058  A$lcc166028$83                     scene_manager
     00002058  C$scene_manager.c$14$1_0$155       scene_manager
     0000205B  A$lcc166028$84                     scene_manager
     0000205E  A$lcc166028$85                     scene_manager
     0000205F  A$lcc166028$86                     scene_manager
ASxxxx Linker V03.00/V05.40 + sdld,  page 54.
Hexadecimal  [32-Bits]

Area                                    Addr        Size        Decimal Bytes (Attributes)
--------------------------------        ----        ----        ------- ----- ------------
_CODE                               00000200    000022DC =        8924. bytes (REL,CON)

      Value  Global                              Global Defined In Module
      -----  --------------------------------   ------------------------
     00002060  A$lcc166028$87                     scene_manager
     00002061  A$lcc166028$88                     scene_manager
     00002062  A$lcc166028$89                     scene_manager
     00002064  A$lcc166028$90                     scene_manager
     00002065  A$lcc166028$91                     scene_manager
     00002067  A$lcc166028$99                     scene_manager
     00002067  C$scene_manager.c$15$1_0$155       scene_manager
     00002067  XG$SceneManager_Create$0$0         scene_manager
     00002068  A$lcc166028$109                    scene_manager
     00002068  C$scene_manager.c$17$1_0$157       scene_manager
     00002068  G$SceneManager_ChangeScene$0$0     scene_manager
     00002068  _SceneManager_ChangeScene          scene_manager
     0000206A  A$lcc166028$110                    scene_manager
     0000206C  A$lcc166028$111                    scene_manager
     0000206D  A$lcc166028$112                    scene_manager
     0000206E  A$lcc166028$113                    scene_manager
     0000206F  A$lcc166028$114                    scene_manager
     00002070  A$lcc166028$115                    scene_manager
     00002071  A$lcc166028$119                    scene_manager
     00002074  A$lcc166028$120                    scene_manager
     00002075  A$lcc166028$121                    scene_manager
     00002076  A$lcc166028$122                    scene_manager
     00002077  A$lcc166028$123                    scene_manager
     00002078  A$lcc166028$124                    scene_manager
     00002079  A$lcc166028$125                    scene_manager
     0000207A  A$lcc166028$126                    scene_manager
     0000207B  A$lcc166028$127                    scene_manager
     0000207C  A$lcc166028$131                    scene_manager
     0000207C  C$scene_manager.c$20$2_0$158       scene_manager
     0000207E  A$lcc166028$135                    scene_manager
     0000207F  A$lcc166028$136                    scene_manager
     00002080  A$lcc166028$137                    scene_manager
     00002081  A$lcc166028$138                    scene_manager
     00002082  A$lcc166028$139                    scene_manager
     00002083  A$lcc166028$140                    scene_manager
     00002084  A$lcc166028$141                    scene_manager
     00002085  A$lcc166028$142                    scene_manager
     00002087  A$lcc166028$143                    scene_manager
     0000208A  A$lcc166028$144                    scene_manager
     0000208B  A$lcc166028$145                    scene_manager
     0000208C  A$lcc166028$146                    scene_manager
     0000208D  A$lcc166028$147                    scene_manager
     0000208E  A$lcc166028$148                    scene_manager
     0000208F  A$lcc166028$149                    scene_manager
     00002091  A$lcc166028$153                    scene_manager
     00002091  C$scene_manager.c$23$2_0$159       scene_manager
     00002092  A$lcc166028$154                    scene_manager
     00002093  A$lcc166028$155                    scene_manager
     00002096  A$lcc166028$156                    scene_manager
     00002097  A$lcc166028$157                    scene_manager
     00002098  A$lcc166028$158                    scene_manager
ASxxxx Linker V03.00/V05.40 + sdld,  page 55.
Hexadecimal  [32-Bits]

Area                                    Addr        Size        Decimal Bytes (Attributes)
--------------------------------        ----        ----        ------- ----- ------------
_CODE                               00000200    000022DC =        8924. bytes (REL,CON)

      Value  Global                              Global Defined In Module
      -----  --------------------------------   ------------------------
     00002099  A$lcc166028$159                    scene_manager
     0000209A  A$lcc166028$160                    scene_manager
     0000209B  A$lcc166028$166                    scene_manager
     0000209B  C$scene_manager.c$25$1_0$157       scene_manager
     0000209E  A$lcc166028$167                    scene_manager
     0000209F  A$lcc166028$168                    scene_manager
     000020A0  A$lcc166028$169                    scene_manager
     000020A1  A$lcc166028$170                    scene_manager
     000020A2  A$lcc166028$171                    scene_manager
     000020A3  A$lcc166028$172                    scene_manager
     000020A4  A$lcc166028$173                    scene_manager
     000020A5  A$lcc166028$174                    scene_manager
     000020A7  A$lcc166028$175                    scene_manager
     000020A8  A$lcc166028$176                    scene_manager
     000020AB  A$lcc166028$177                    scene_manager
     000020AC  A$lcc166028$178                    scene_manager
     000020AD  A$lcc166028$179                    scene_manager
     000020AE  A$lcc166028$180                    scene_manager
     000020AF  A$lcc166028$181                    scene_manager
     000020B0  A$lcc166028$182                    scene_manager
     000020B1  A$lcc166028$183                    scene_manager
     000020B2  A$lcc166028$184                    scene_manager
     000020B3  A$lcc166028$188                    scene_manager
     000020B3  C$scene_manager.c$19$1_0$157       scene_manager
     000020B6  A$lcc166028$189                    scene_manager
     000020B7  A$lcc166028$190                    scene_manager
     000020B8  A$lcc166028$191                    scene_manager
     000020B9  A$lcc166028$192                    scene_manager
     000020BA  A$lcc166028$193                    scene_manager
     000020BB  A$lcc166028$194                    scene_manager
     000020BC  A$lcc166028$198                    scene_manager
     000020BC  C$scene_manager.c$22$1_0$157       scene_manager
     000020BD  A$lcc166028$199                    scene_manager
     000020BE  A$lcc166028$200                    scene_manager
     000020BF  A$lcc166028$201                    scene_manager
     000020C1  A$lcc166028$202                    scene_manager
     000020C2  A$lcc166028$203                    scene_manager
     000020C3  A$lcc166028$204                    scene_manager
     000020C4  A$lcc166028$208                    scene_manager
     000020C4  C$scene_manager.c$27$1_0$157       scene_manager
     000020C5  A$lcc166028$209                    scene_manager
     000020C6  A$lcc166028$210                    scene_manager
     000020C7  A$lcc166028$211                    scene_manager
     000020C8  A$lcc166028$212                    scene_manager
     000020C9  A$lcc166028$213                    scene_manager
     000020CA  A$lcc166028$214                    scene_manager
     000020CB  A$lcc166028$215                    scene_manager
     000020CC  A$lcc166028$216                    scene_manager
     000020CD  A$lcc166028$217                    scene_manager
     000020CE  A$lcc166028$218                    scene_manager
     000020CF  A$lcc166028$219                    scene_manager
ASxxxx Linker V03.00/V05.40 + sdld,  page 56.
Hexadecimal  [32-Bits]

Area                                    Addr        Size        Decimal Bytes (Attributes)
--------------------------------        ----        ----        ------- ----- ------------
_CODE                               00000200    000022DC =        8924. bytes (REL,CON)

      Value  Global                              Global Defined In Module
      -----  --------------------------------   ------------------------
     000020D0  A$lcc166028$220                    scene_manager
     000020D1  A$lcc166028$221                    scene_manager
     000020D3  A$lcc166028$222                    scene_manager
     000020D4  A$lcc166028$223                    scene_manager
     000020D5  A$lcc166028$224                    scene_manager
     000020D6  A$lcc166028$225                    scene_manager
     000020D9  A$lcc166028$229                    scene_manager
     000020D9  C$scene_manager.c$29$1_0$157       scene_manager
     000020DB  A$lcc166028$230                    scene_manager
     000020DD  A$lcc166028$231                    scene_manager
     000020DF  A$lcc166028$236                    scene_manager
     000020E1  A$lcc166028$241                    scene_manager
     000020E1  C$scene_manager.c$30$1_0$157       scene_manager
     000020E1  XG$SceneManager_ChangeScene$0$0    scene_manager
     000020E2  A$lcc166029$61                     gender_select
     000020E2  C$gender_select.c$6$0_0$29         gender_select
     000020E2  C$gender_select.c$8$1_0$29         gender_select
     000020E2  G$GenderSelect_Create$0$0          gender_select
     000020E2  _GenderSelect_Create               gender_select
     000020E5  A$lcc166029$62                     gender_select
     000020E7  A$lcc166029$63                     gender_select
     000020E8  A$lcc166029$64                     gender_select
     000020EA  A$lcc166029$68                     gender_select
     000020EA  C$gender_select.c$9$1_0$29         gender_select
     000020EB  A$lcc166029$69                     gender_select
     000020ED  A$lcc166029$70                     gender_select
     000020EE  A$lcc166029$71                     gender_select
     000020F0  A$lcc166029$75                     gender_select
     000020F0  C$gender_select.c$11$1_0$29        gender_select
     000020F3  A$lcc166029$76                     gender_select
     000020F4  A$lcc166029$77                     gender_select
     000020F5  A$lcc166029$78                     gender_select
     000020F6  A$lcc166029$86                     gender_select
     000020F6  C$gender_select.c$12$1_0$29        gender_select
     000020F6  XG$GenderSelect_Create$0$0         gender_select
     000020F7  A$lcc166030$58                     gender_select_init
     000020F7  C$gender_select_init.c$11$1_0$15   gender_select_init
     000020F7  C$gender_select_init.c$9$0_0$154   gender_select_init
     000020F7  G$GenderSelect_Init$0$0            gender_select_init
     000020F7  _GenderSelect_Init                 gender_select_init
     000020F8  A$lcc166030$59                     gender_select_init
     000020FB  A$lcc166030$60                     gender_select_init
     000020FE  A$lcc166030$61                     gender_select_init
     000020FF  A$lcc166030$62                     gender_select_init
     00002100  A$lcc166030$63                     gender_select_init
     00002101  A$lcc166030$67                     gender_select_init
     00002101  C$gender_select_init.c$12$2_0$15   gender_select_init
     00002102  A$lcc166030$68                     gender_select_init
     00002103  A$lcc166030$72                     gender_select_init
     00002103  C$gender_select_init.c$13$2_0$15   gender_select_init
     00002104  A$lcc166030$76                     gender_select_init
ASxxxx Linker V03.00/V05.40 + sdld,  page 57.
Hexadecimal  [32-Bits]

Area                                    Addr        Size        Decimal Bytes (Attributes)
--------------------------------        ----        ----        ------- ----- ------------
_CODE                               00000200    000022DC =        8924. bytes (REL,CON)

      Value  Global                              Global Defined In Module
      -----  --------------------------------   ------------------------
     00002104  C$gender_select_init.c$15$1_0$15   gender_select_init
     00002105  A$lcc166030$77                     gender_select_init
     00002106  A$lcc166030$81                     gender_select_init
     00002106  C$gender_select_init.c$16$1_0$15   gender_select_init
     00002109  A$lcc166030$82                     gender_select_init
     0000210A  A$lcc166030$83                     gender_select_init
     0000210B  A$lcc166030$84                     gender_select_init
     0000210C  A$lcc166030$85                     gender_select_init
     0000210D  A$lcc166030$89                     gender_select_init
     0000210D  C$gender_select_init.c$18$1_0$15   gender_select_init
     00002110  A$lcc166030$90                     gender_select_init
     00002111  A$lcc166030$91                     gender_select_init
     00002114  A$lcc166030$92                     gender_select_init
     00002115  A$lcc166030$93                     gender_select_init
     00002118  A$lcc166030$94                     gender_select_init
     0000211A  A$lcc166030$98                     gender_select_init
     0000211A  C$gender_select_init.c$19$1_0$15   gender_select_init
     0000211D  A$lcc166030$99                     gender_select_init
     0000211E  A$lcc166030$100                    gender_select_init
     00002121  A$lcc166030$101                    gender_select_init
     00002122  A$lcc166030$102                    gender_select_init
     00002123  A$lcc166030$103                    gender_select_init
     00002124  A$lcc166030$104                    gender_select_init
     00002125  A$lcc166030$105                    gender_select_init
     00002128  A$lcc166030$106                    gender_select_init
     0000212A  A$lcc166030$114                    gender_select_init
     0000212A  C$gender_select_init.c$20$1_0$15   gender_select_init
     0000212A  XG$GenderSelect_Init$0$0           gender_select_init
     0000212B  A$lcc166031$62                     gender_select_update
     0000212B  C$gender_select_update.c$6$0_0$1   gender_select_update
     0000212B  C$gender_select_update.c$8$1_0$1   gender_select_update
     0000212B  C$gender_select_update.c$9$1_0$1   gender_select_update
     0000212B  G$GenderSelect_Update$0$0          gender_select_update
     0000212B  XG$GenderSelect_Update$0$0         gender_select_update
     0000212B  _GenderSelect_Update               gender_select_update
     0000212C  A$lcc166032$61                     inventory_scene
     0000212C  C$inventory_scene.c$6$0_0$29       inventory_scene
     0000212C  C$inventory_scene.c$8$1_0$29       inventory_scene
     0000212C  G$InventoryScene_Create$0$0        inventory_scene
     0000212C  _InventoryScene_Create             inventory_scene
     0000212F  A$lcc166032$62                     inventory_scene
     00002131  A$lcc166032$63                     inventory_scene
     00002132  A$lcc166032$64                     inventory_scene
     00002134  A$lcc166032$68                     inventory_scene
     00002134  C$inventory_scene.c$9$1_0$29       inventory_scene
     00002135  A$lcc166032$69                     inventory_scene
     00002137  A$lcc166032$70                     inventory_scene
     00002138  A$lcc166032$71                     inventory_scene
     0000213A  A$lcc166032$75                     inventory_scene
     0000213A  C$inventory_scene.c$11$1_0$29      inventory_scene
     0000213D  A$lcc166032$76                     inventory_scene
ASxxxx Linker V03.00/V05.40 + sdld,  page 58.
Hexadecimal  [32-Bits]

Area                                    Addr        Size        Decimal Bytes (Attributes)
--------------------------------        ----        ----        ------- ----- ------------
_CODE                               00000200    000022DC =        8924. bytes (REL,CON)

      Value  Global                              Global Defined In Module
      -----  --------------------------------   ------------------------
     0000213E  A$lcc166032$77                     inventory_scene
     0000213F  A$lcc166032$78                     inventory_scene
     00002140  A$lcc166032$86                     inventory_scene
     00002140  C$inventory_scene.c$12$1_0$29      inventory_scene
     00002140  XG$InventoryScene_Create$0$0       inventory_scene
     00002141  A$lcc166033$54                     inventory_scene_init
     00002141  C$inventory_scene_init.c$9$0_0$1   inventory_scene_init
     00002141  G$InventoryScene_Init$0$0          inventory_scene_init
     00002141  _InventoryScene_Init               inventory_scene_init
     00002142  A$lcc166033$58                     inventory_scene_init
     00002142  C$inventory_scene_init.c$11$1_0$   inventory_scene_init
     00002145  A$lcc166033$59                     inventory_scene_init
     00002146  A$lcc166033$60                     inventory_scene_init
     00002147  A$lcc166033$61                     inventory_scene_init
     00002148  A$lcc166033$62                     inventory_scene_init
     00002149  A$lcc166033$66                     inventory_scene_init
     00002149  C$inventory_scene_init.c$13$2_0$   inventory_scene_init
     0000214B  A$lcc166033$67                     inventory_scene_init
     0000214D  A$lcc166033$71                     inventory_scene_init
     0000214D  C$inventory_scene_init.c$15$1_1$   inventory_scene_init
     00002150  A$lcc166033$72                     inventory_scene_init
     00002151  A$lcc166033$73                     inventory_scene_init
     00002154  A$lcc166033$74                     inventory_scene_init
     00002155  A$lcc166033$75                     inventory_scene_init
     00002158  A$lcc166033$76                     inventory_scene_init
     0000215A  A$lcc166033$80                     inventory_scene_init
     0000215A  C$inventory_scene_init.c$16$1_1$   inventory_scene_init
     0000215D  A$lcc166033$81                     inventory_scene_init
     0000215E  A$lcc166033$82                     inventory_scene_init
     00002161  A$lcc166033$83                     inventory_scene_init
     00002162  A$lcc166033$84                     inventory_scene_init
     00002163  A$lcc166033$85                     inventory_scene_init
     00002164  A$lcc166033$86                     inventory_scene_init
     00002165  A$lcc166033$87                     inventory_scene_init
     00002168  A$lcc166033$88                     inventory_scene_init
     0000216A  A$lcc166033$92                     inventory_scene_init
     0000216A  C$inventory_scene_init.c$18$1_1$   inventory_scene_init
     0000216D  A$lcc166033$93                     inventory_scene_init
     0000216E  A$lcc166033$94                     inventory_scene_init
     00002171  A$lcc166033$95                     inventory_scene_init
     00002172  A$lcc166033$96                     inventory_scene_init
     00002175  A$lcc166033$97                     inventory_scene_init
     00002177  A$lcc166033$101                    inventory_scene_init
     00002177  C$inventory_scene_init.c$19$1_1$   inventory_scene_init
     00002179  A$lcc166033$102                    inventory_scene_init
     0000217A  A$lcc166033$103                    inventory_scene_init
     0000217D  A$lcc166033$104                    inventory_scene_init
     0000217E  A$lcc166033$105                    inventory_scene_init
     00002181  A$lcc166033$106                    inventory_scene_init
     00002182  A$lcc166033$107                    inventory_scene_init
     00002185  A$lcc166033$111                    inventory_scene_init
ASxxxx Linker V03.00/V05.40 + sdld,  page 59.
Hexadecimal  [32-Bits]

Area                                    Addr        Size        Decimal Bytes (Attributes)
--------------------------------        ----        ----        ------- ----- ------------
_CODE                               00000200    000022DC =        8924. bytes (REL,CON)

      Value  Global                              Global Defined In Module
      -----  --------------------------------   ------------------------
     00002187  A$lcc166033$116                    inventory_scene_init
     00002187  C$inventory_scene_init.c$20$1_1$   inventory_scene_init
     00002187  XG$InventoryScene_Init$0$0         inventory_scene_init
     00002188  A$lcc166034$57                     inventory_scene_update
     00002188  C$inventory_scene_update.c$6$0_0   inventory_scene_update
     00002188  C$inventory_scene_update.c$7$1_0   inventory_scene_update
     00002188  G$InventoryScene_Update$0$0        inventory_scene_update
     00002188  _InventoryScene_Update             inventory_scene_update
     0000218B  A$lcc166034$61                     inventory_scene_update
     0000218B  C$inventory_scene_update.c$8$1_0   inventory_scene_update
     0000218E  A$lcc166034$62                     inventory_scene_update
     0000218F  A$lcc166034$63                     inventory_scene_update
     00002192  A$lcc166034$64                     inventory_scene_update
     00002193  A$lcc166034$72                     inventory_scene_update
     00002193  C$inventory_scene_update.c$9$1_0   inventory_scene_update
     00002193  XG$InventoryScene_Update$0$0       inventory_scene_update
     00002196  A$lcc166035$61                     map_00
     00002196  C$map_00.c$6$0_0$29                map_00
     00002196  C$map_00.c$7$1_0$29                map_00
     00002196  G$Map_00_Create$0$0                map_00
     00002196  _Map_00_Create                     map_00
     00002199  A$lcc166035$62                     map_00
     0000219B  A$lcc166035$63                     map_00
     0000219C  A$lcc166035$64                     map_00
     0000219E  A$lcc166035$68                     map_00
     0000219E  C$map_00.c$8$1_0$29                map_00
     0000219F  A$lcc166035$69                     map_00
     000021A1  A$lcc166035$70                     map_00
     000021A2  A$lcc166035$71                     map_00
     000021A4  A$lcc166035$75                     map_00
     000021A4  C$map_00.c$10$1_0$29               map_00
     000021A7  A$lcc166035$76                     map_00
     000021A8  A$lcc166035$77                     map_00
     000021A9  A$lcc166035$78                     map_00
     000021AA  A$lcc166035$86                     map_00
     000021AA  C$map_00.c$11$1_0$29               map_00
     000021AA  XG$Map_00_Create$0$0               map_00
     000021AB  A$lcc166036$55                     map_00_init
     000021AB  C$map_00_init.c$9$0_0$154          map_00_init
     000021AB  G$Map_00_Init$0$0                  map_00_init
     000021AB  _Map_00_Init                       map_00_init
     000021AC  A$lcc166036$59                     map_00_init
     000021AC  C$map_00_init.c$11$1_0$154         map_00_init
     000021AD  A$lcc166036$60                     map_00_init
     000021B0  A$lcc166036$61                     map_00_init
     000021B3  A$lcc166036$62                     map_00_init
     000021B4  A$lcc166036$66                     map_00_init
     000021B4  C$map_00_init.c$12$2_0$155         map_00_init
     000021B5  A$lcc166036$67                     map_00_init
     000021B6  A$lcc166036$71                     map_00_init
     000021B6  C$map_00_init.c$13$2_0$155         map_00_init
ASxxxx Linker V03.00/V05.40 + sdld,  page 60.
Hexadecimal  [32-Bits]

Area                                    Addr        Size        Decimal Bytes (Attributes)
--------------------------------        ----        ----        ------- ----- ------------
_CODE                               00000200    000022DC =        8924. bytes (REL,CON)

      Value  Global                              Global Defined In Module
      -----  --------------------------------   ------------------------
     000021B8  A$lcc166036$75                     map_00_init
     000021B8  C$map_00_init.c$15$1_0$154         map_00_init
     000021B9  A$lcc166036$76                     map_00_init
     000021BA  A$lcc166036$77                     map_00_init
     000021BB  A$lcc166036$78                     map_00_init
     000021BD  A$lcc166036$79                     map_00_init
     000021BE  A$lcc166036$80                     map_00_init
     000021BF  A$lcc166036$81                     map_00_init
     000021C0  A$lcc166036$82                     map_00_init
     000021C1  A$lcc166036$83                     map_00_init
     000021C2  A$lcc166036$84                     map_00_init
     000021C3  A$lcc166036$88                     map_00_init
     000021C3  C$map_00_init.c$16$1_0$154         map_00_init
     000021C6  A$lcc166036$89                     map_00_init
     000021C7  A$lcc166036$90                     map_00_init
     000021C8  A$lcc166036$91                     map_00_init
     000021C9  A$lcc166036$92                     map_00_init
     000021CA  A$lcc166036$96                     map_00_init
     000021CA  C$map_00_init.c$18$1_0$154         map_00_init
     000021CD  A$lcc166036$97                     map_00_init
     000021CE  A$lcc166036$98                     map_00_init
     000021D1  A$lcc166036$99                     map_00_init
     000021D2  A$lcc166036$100                    map_00_init
     000021D5  A$lcc166036$101                    map_00_init
     000021D7  A$lcc166036$105                    map_00_init
     000021D7  C$map_00_init.c$19$1_0$154         map_00_init
     000021DA  A$lcc166036$106                    map_00_init
     000021DB  A$lcc166036$107                    map_00_init
     000021DE  A$lcc166036$108                    map_00_init
     000021DF  A$lcc166036$109                    map_00_init
     000021E0  A$lcc166036$110                    map_00_init
     000021E1  A$lcc166036$111                    map_00_init
     000021E2  A$lcc166036$112                    map_00_init
     000021E5  A$lcc166036$113                    map_00_init
     000021E7  A$lcc166036$118                    map_00_init
     000021E8  A$lcc166036$119                    map_00_init
     000021E9  A$lcc166036$124                    map_00_init
     000021E9  C$map_00_init.c$20$1_0$154         map_00_init
     000021E9  XG$Map_00_Init$0$0                 map_00_init
     000021EA  A$lcc166037$58                     map_00_update
     000021EA  C$map_00_update.c$11$0_0$168       map_00_update
     000021EA  C$map_00_update.c$13$1_0$168       map_00_update
     000021EA  G$Map_00_Update$0$0                map_00_update
     000021EA  _Map_00_Update                     map_00_update
     000021EB  A$lcc166037$59                     map_00_update
     000021EE  A$lcc166037$63                     map_00_update
     000021EE  C$map_00_update.c$14$1_0$168       map_00_update
     000021F1  A$lcc166037$64                     map_00_update
     000021F4  A$lcc166037$65                     map_00_update
     000021F5  A$lcc166037$69                     map_00_update
     000021F5  C$map_00_update.c$16$1_1$169       map_00_update
ASxxxx Linker V03.00/V05.40 + sdld,  page 61.
Hexadecimal  [32-Bits]

Area                                    Addr        Size        Decimal Bytes (Attributes)
--------------------------------        ----        ----        ------- ----- ------------
_CODE                               00000200    000022DC =        8924. bytes (REL,CON)

      Value  Global                              Global Defined In Module
      -----  --------------------------------   ------------------------
     000021F8  A$lcc166037$70                     map_00_update
     000021F9  A$lcc166037$71                     map_00_update
     000021FA  A$lcc166037$72                     map_00_update
     000021FB  A$lcc166037$73                     map_00_update
     000021FC  A$lcc166037$77                     map_00_update
     000021FC  C$map_00_update.c$17$1_1$169       map_00_update
     000021FD  A$lcc166037$78                     map_00_update
     000021FE  A$lcc166037$79                     map_00_update
     000021FF  A$lcc166037$80                     map_00_update
     00002200  A$lcc166037$91                     map_00_update
     00002200  C$map_00_update.c$18$1_1$169       map_00_update
     00002200  C$map_00_update.c$19$1_1$168       map_00_update
     00002200  XG$Map_00_Update$0$0               map_00_update
     00002203  A$lcc166038$62                     main
     00002203  C$main.c$18$0_0$179                main
     00002203  C$main.c$20$1_0$179                main
     00002203  G$main$0$0                         main
     00002203  _main                              main
     00002205  A$lcc166038$63                     main
     00002207  A$lcc166038$64                     main
     00002209  A$lcc166038$68                     main
     00002209  C$main.c$21$1_0$179                main
     0000220B  A$lcc166038$69                     main
     0000220D  A$lcc166038$70                     main
     0000220F  A$lcc166038$74                     main
     0000220F  C$main.c$30$1_1$180                main
     00002212  A$lcc166038$75                     main
     00002214  A$lcc166038$76                     main
     00002215  A$lcc166038$77                     main
     00002217  A$lcc166038$81                     main
     00002217  C$main.c$32$1_1$180                main
     0000221A  A$lcc166038$85                     main
     0000221A  C$main.c$34$1_1$180                main
     0000221D  A$lcc166038$89                     main
     0000221D  C$main.c$37$1_2$181                main
     00002220  A$lcc166038$90                     main
     00002223  A$lcc166038$94                     main
     00002223  C$main.c$39$1_2$181                main
     00002226  A$lcc166038$95                     main
     00002229  A$lcc166038$96                     main
     0000222A  A$lcc166038$97                     main
     0000222B  A$lcc166038$98                     main
     0000222C  A$lcc166038$99                     main
     0000222D  A$lcc166038$100                    main
     0000222E  A$lcc166038$101                    main
     0000222F  A$lcc166038$102                    main
     00002230  A$lcc166038$103                    main
     00002233  A$lcc166038$104                    main
     00002236  A$lcc166038$105                    main
     00002237  A$lcc166038$106                    main
     00002238  A$lcc166038$107                    main
ASxxxx Linker V03.00/V05.40 + sdld,  page 62.
Hexadecimal  [32-Bits]

Area                                    Addr        Size        Decimal Bytes (Attributes)
--------------------------------        ----        ----        ------- ----- ------------
_CODE                               00000200    000022DC =        8924. bytes (REL,CON)

      Value  Global                              Global Defined In Module
      -----  --------------------------------   ------------------------
     0000223A  A$lcc166038$108                    main
     0000223B  A$lcc166038$109                    main
     0000223C  A$lcc166038$110                    main
     0000223F  A$lcc166038$115                    main
     0000223F  C$main.c$41$1_2$181                main
     00002242  A$lcc166038$116                    main
     00002243  A$lcc166038$117                    main
     00002244  A$lcc166038$118                    main
     00002245  A$lcc166038$122                    main
     00002245  C$main.c$43$2_2$182                main
     00002248  A$lcc166038$123                    main
     00002249  A$lcc166038$124                    main
     0000224A  A$lcc166038$125                    main
     0000224B  A$lcc166038$126                    main
     0000224C  A$lcc166038$127                    main
     0000224D  A$lcc166038$128                    main
     0000224E  A$lcc166038$129                    main
     0000224F  A$lcc166038$130                    main
     00002250  A$lcc166038$131                    main
     00002251  A$lcc166038$132                    main
     00002252  A$lcc166038$133                    main
     00002253  A$lcc166038$134                    main
     00002254  A$lcc166038$135                    main
     00002257  A$lcc166038$136                    main
     00002258  A$lcc166038$137                    main
     00002259  A$lcc166038$138                    main
     0000225A  A$lcc166038$143                    main
     0000225A  C$main.c$45$2_2$182                main
     0000225D  A$lcc166038$151                    main
     0000225D  C$main.c$47$1_2$179                main
     0000225D  XG$main$0$0                        main
     0000225F  _free                              free
     0000236F  ___sdcc_heap_init                  malloc
     00002391  _malloc                            malloc
     00002497  __mulsuchar                        mul
     0000249A  __muluschar                        mul
     000024A3  __mulschar                         mul
     000024AB  __mulint                           mul
     000024CA  __muluchar                         mul

ASxxxx Linker V03.00/V05.40 + sdld,  page 63.
Hexadecimal  [32-Bits]

Area                                    Addr        Size        Decimal Bytes (Attributes)
--------------------------------        ----        ----        ------- ----- ------------
_HEADER0                            00000000    00000001 =           1. bytes (ABS,CON)

      Value  Global                              Global Defined In Module
      -----  --------------------------------   ------------------------
     00000020  .call_hl                           Runtime

ASxxxx Linker V03.00/V05.40 + sdld,  page 64.
Hexadecimal  [32-Bits]

Area                                    Addr        Size        Decimal Bytes (Attributes)
--------------------------------        ----        ----        ------- ----- ------------
_HEADER1                            00000000    00000005 =           5. bytes (ABS,CON)

      Value  Global                              Global Defined In Module
      -----  --------------------------------   ------------------------
     00000028  .MemsetSmall                       Runtime

ASxxxx Linker V03.00/V05.40 + sdld,  page 65.
Hexadecimal  [32-Bits]

Area                                    Addr        Size        Decimal Bytes (Attributes)
--------------------------------        ----        ----        ------- ----- ------------
_HEADER2                            00000000    00000007 =           7. bytes (ABS,CON)

      Value  Global                              Global Defined In Module
      -----  --------------------------------   ------------------------
     00000030  .MemcpySmall                       Runtime

ASxxxx Linker V03.00/V05.40 + sdld,  page 66.
Hexadecimal  [32-Bits]

Area                                    Addr        Size        Decimal Bytes (Attributes)
--------------------------------        ----        ----        ------- ----- ------------
_HEADER3                            00000000    00000008 =           8. bytes (ABS,CON)

      Value  Global                              Global Defined In Module
      -----  --------------------------------   ------------------------
ASxxxx Linker V03.00/V05.40 + sdld,  page 67.
Hexadecimal  [32-Bits]

Area                                    Addr        Size        Decimal Bytes (Attributes)
--------------------------------        ----        ----        ------- ----- ------------
_HEADER4                            00000000    00000060 =          96. bytes (ABS,CON)

      Value  Global                              Global Defined In Module
      -----  --------------------------------   ------------------------
     00000080  .int                               Runtime
     0000008F  _wait_int_handler                  Runtime
     0000009C  __standard_VBL_handler             Runtime
     000000AB  _refresh_OAM                       Runtime
     000000CC  _set_interrupts                    Runtime

ASxxxx Linker V03.00/V05.40 + sdld,  page 68.
Hexadecimal  [32-Bits]

Area                                    Addr        Size        Decimal Bytes (Attributes)
--------------------------------        ----        ----        ------- ----- ------------
_HEADER5                            00000000    00000001 =           1. bytes (ABS,CON)

      Value  Global                              Global Defined In Module
      -----  --------------------------------   ------------------------
ASxxxx Linker V03.00/V05.40 + sdld,  page 69.
Hexadecimal  [32-Bits]

Area                                    Addr        Size        Decimal Bytes (Attributes)
--------------------------------        ----        ----        ------- ----- ------------
_HEADER6                            00000000    00000002 =           2. bytes (ABS,CON)

      Value  Global                              Global Defined In Module
      -----  --------------------------------   ------------------------
ASxxxx Linker V03.00/V05.40 + sdld,  page 70.
Hexadecimal  [32-Bits]

Area                                    Addr        Size        Decimal Bytes (Attributes)
--------------------------------        ----        ----        ------- ----- ------------
_HEADER7                            00000000    00000030 =          48. bytes (ABS,CON)

      Value  Global                              Global Defined In Module
      -----  --------------------------------   ------------------------
ASxxxx Linker V03.00/V05.40 + sdld,  page 71.
Hexadecimal  [32-Bits]

Area                                    Addr        Size        Decimal Bytes (Attributes)
--------------------------------        ----        ----        ------- ----- ------------
_HEADER8                            00000000    00000006 =           6. bytes (ABS,CON)

      Value  Global                              Global Defined In Module
      -----  --------------------------------   ------------------------
ASxxxx Linker V03.00/V05.40 + sdld,  page 72.
Hexadecimal  [32-Bits]

Area                                    Addr        Size        Decimal Bytes (Attributes)
--------------------------------        ----        ----        ------- ----- ------------
_HEADER9                            00000000    00000003 =           3. bytes (ABS,CON)

      Value  Global                              Global Defined In Module
      -----  --------------------------------   ------------------------
ASxxxx Linker V03.00/V05.40 + sdld,  page 73.
Hexadecimal  [32-Bits]

Area                                    Addr        Size        Decimal Bytes (Attributes)
--------------------------------        ----        ----        ------- ----- ------------
_HEADERa                            00000000    00000001 =           1. bytes (ABS,CON)

      Value  Global                              Global Defined In Module
      -----  --------------------------------   ------------------------
ASxxxx Linker V03.00/V05.40 + sdld,  page 74.
Hexadecimal  [32-Bits]

Area                                    Addr        Size        Decimal Bytes (Attributes)
--------------------------------        ----        ----        ------- ----- ------------
_HEADERb                            00000000    00000001 =           1. bytes (ABS,CON)

      Value  Global                              Global Defined In Module
      -----  --------------------------------   ------------------------
ASxxxx Linker V03.00/V05.40 + sdld,  page 75.
Hexadecimal  [32-Bits]

Area                                    Addr        Size        Decimal Bytes (Attributes)
--------------------------------        ----        ----        ------- ----- ------------
_HEADERc                            00000000    00000001 =           1. bytes (ABS,CON)

      Value  Global                              Global Defined In Module
      -----  --------------------------------   ------------------------
ASxxxx Linker V03.00/V05.40 + sdld,  page 76.
Hexadecimal  [32-Bits]

Area                                    Addr        Size        Decimal Bytes (Attributes)
--------------------------------        ----        ----        ------- ----- ------------
_HEADERd                            00000000    00000002 =           2. bytes (ABS,CON)

      Value  Global                              Global Defined In Module
      -----  --------------------------------   ------------------------
ASxxxx Linker V03.00/V05.40 + sdld,  page 77.
Hexadecimal  [32-Bits]

Area                                    Addr        Size        Decimal Bytes (Attributes)
--------------------------------        ----        ----        ------- ----- ------------
_HEADERe                            00000000    00000001 =           1. bytes (ABS,CON)

      Value  Global                              Global Defined In Module
      -----  --------------------------------   ------------------------
ASxxxx Linker V03.00/V05.40 + sdld,  page 78.
Hexadecimal  [32-Bits]

Area                                    Addr        Size        Decimal Bytes (Attributes)
--------------------------------        ----        ----        ------- ----- ------------
_HEADERf                            00000000    00000001 =           1. bytes (ABS,CON)

      Value  Global                              Global Defined In Module
      -----  --------------------------------   ------------------------
ASxxxx Linker V03.00/V05.40 + sdld,  page 79.
Hexadecimal  [32-Bits]

Area                                    Addr        Size        Decimal Bytes (Attributes)
--------------------------------        ----        ----        ------- ----- ------------
_HEADER10                           00000000    00000002 =           2. bytes (ABS,CON)

      Value  Global                              Global Defined In Module
      -----  --------------------------------   ------------------------
ASxxxx Linker V03.00/V05.40 + sdld,  page 80.
Hexadecimal  [32-Bits]

Area                                    Addr        Size        Decimal Bytes (Attributes)
--------------------------------        ----        ----        ------- ----- ------------
_HEADER11                           00000000    000000AB =         171. bytes (ABS,CON)

      Value  Global                              Global Defined In Module
      -----  --------------------------------   ------------------------
     00000150  .reset                             Runtime
     00000150  _reset                             Runtime
     00000157  .code_start                        Runtime
     000001B9  _exit                              Runtime
     000001BD  .wait_vbl_done                     Runtime
     000001BD  _vsync                             Runtime
     000001BD  _wait_vbl_done                     Runtime
     000001CD  .remove_VBL                        Runtime
     000001CD  _remove_VBL                        Runtime
     000001D0  .remove_int                        Runtime
     000001ED  .add_VBL                           Runtime
     000001ED  _add_VBL                           Runtime
     000001F0  .add_int                           Runtime

ASxxxx Linker V03.00/V05.40 + sdld,  page 81.
Hexadecimal  [32-Bits]

Area                                    Addr        Size        Decimal Bytes (Attributes)
--------------------------------        ----        ----        ------- ----- ------------
_HOME                               000024DC    0000012C =         300. bytes (REL,CON)

      Value  Global                              Global Defined In Module
      -----  --------------------------------   ------------------------
     000024DC  .memset_simple                     Runtime
     000024E5  .memcpy_simple                     Runtime
     00002502  .display_off                       Runtime
     00002502  _display_off                       Runtime
     0000251A  _set_tile_data                     
     0000251F  _set_bkg_data                      
     0000251F  _set_win_data                      
     00002527  _set_sprite_data                   
     00002557  .padup                             
     00002557  _waitpadup                         
     00002567  .jpad                              
     00002567  _joypad                            
     0000258F  _waitpad                           
     00002590  .wait_pad                          
     00002597  ___sdcc_call_hl                    call_hl
     00002598  _set_bkg_tiles                     
     000025AC  .set_xy_wtt                        SetTileMap
     000025B5  .set_xy_btt                        SetTileMap
     000025C4  .set_xy_tt                         SetTileMap

ASxxxx Linker V03.00/V05.40 + sdld,  page 82.
Hexadecimal  [32-Bits]

Area                                    Addr        Size        Decimal Bytes (Attributes)
--------------------------------        ----        ----        ------- ----- ------------
_INITIALIZER                        00002608    00000199 =         409. bytes (REL,CON)

      Value  Global                              Global Defined In Module
      -----  --------------------------------   ------------------------
     00002608  Fspr_InventoryArrow_idle$__xinit   spr_InventoryArrow_idle
     00002618  Fspr_Player_down0$__xinit_spr_Pl   spr_Player_down0
     00002628  Fspr_Player_down0$__xinit_spr_Pl   spr_Player_down0
     00002638  Fspr_Player_down0$__xinit_spr_Pl   spr_Player_down0
     00002648  Fspr_Player_down0$__xinit_spr_Pl   spr_Player_down0
     00002658  Fspr_Player_down1$__xinit_spr_Pl   spr_Player_down1
     00002668  Fspr_Player_down1$__xinit_spr_Pl   spr_Player_down1
     00002678  Fspr_Player_down1$__xinit_spr_Pl   spr_Player_down1
     00002688  Fspr_Player_down1$__xinit_spr_Pl   spr_Player_down1
     00002698  Fspr_Player_down2$__xinit_spr_Pl   spr_Player_down2
     000026A8  Fspr_Player_down2$__xinit_spr_Pl   spr_Player_down2
     000026B8  Fspr_Player_down2$__xinit_spr_Pl   spr_Player_down2
     000026C8  Fspr_Player_down2$__xinit_spr_Pl   spr_Player_down2
     000026D8  Fspr_Player_up0$__xinit_spr_Play   spr_Player_up0
     000026E8  Fspr_Player_up0$__xinit_spr_Play   spr_Player_up0
     000026F8  Fspr_Player_up0$__xinit_spr_Play   spr_Player_up0
     00002708  Fspr_Player_up0$__xinit_spr_Play   spr_Player_up0
     00002718  Fspr_Player_up1$__xinit_spr_Play   spr_Player_up1
     00002728  Fspr_Player_up1$__xinit_spr_Play   spr_Player_up1
     00002738  Fspr_Player_up1$__xinit_spr_Play   spr_Player_up1
     00002748  Fspr_Player_up1$__xinit_spr_Play   spr_Player_up1
     00002758  Fspr_Player_up2$__xinit_spr_Play   spr_Player_up2
     00002768  Fspr_Player_up2$__xinit_spr_Play   spr_Player_up2
     00002778  Fspr_Player_up2$__xinit_spr_Play   spr_Player_up2
     00002788  Fspr_Player_up2$__xinit_spr_Play   spr_Player_up2
     00002798  Faction$__xinit_MOVE_SPEED$0_0$0   action
     00002799  Faction$__xinit_current_directio   action
     0000279A  Faction$__xinit_last_keys$0_0$0    action
     0000279B  Fentity$__xinit_next_entity_id$0   entity
     0000279D  Fgender_selection$__xinit_GENDER   gender_selection
     0000279E  Finventory_input$__xinit_prev_ke   inventory_input
     0000279F  Fload$__xinit_vram_next_index$0_   load

ASxxxx Linker V03.00/V05.40 + sdld,  page 83.
Hexadecimal  [32-Bits]

Area                                    Addr        Size        Decimal Bytes (Attributes)
--------------------------------        ----        ----        ------- ----- ------------
_GSINIT                             000027A1    0000000F =          15. bytes (REL,CON)

      Value  Global                              Global Defined In Module
      -----  --------------------------------   ------------------------
     000027A1  gsinit                             Runtime

ASxxxx Linker V03.00/V05.40 + sdld,  page 84.
Hexadecimal  [32-Bits]

Area                                    Addr        Size        Decimal Bytes (Attributes)
--------------------------------        ----        ----        ------- ----- ------------
_GSFINAL                            000027B0    00000001 =           1. bytes (REL,CON)

      Value  Global                              Global Defined In Module
      -----  --------------------------------   ------------------------
ASxxxx Linker V03.00/V05.40 + sdld,  page 85.
Hexadecimal  [32-Bits]

Area                                    Addr        Size        Decimal Bytes (Attributes)
--------------------------------        ----        ----        ------- ----- ------------
_DATA                               0000C0A0    00001D39 =        7481. bytes (REL,CON)

      Value  Global                              Global Defined In Module
      -----  --------------------------------   ------------------------
     0000C0A0  __cpu                              Runtime
     0000C0A1  __is_GBA                           Runtime
     0000C0A2  .mode                              Runtime
     0000C0A3  .sys_time                          Runtime
     0000C0A3  _sys_time                          Runtime
     0000C0A5  .int_0x40                          Runtime
     0000C0B1  G$animation$0_0$0                  animation
     0000C0B1  _animation                         animation
     0000D931  G$arrow$0_0$0                      inventory
     0000D931  _arrow                             inventory
     0000D933  G$player$0_0$0                     player
     0000D933  _player                            player
     0000D935  G$player_animations$0_0$0          player
     0000D935  _player_animations                 player
     0000D939  G$position$0_0$0                   position
     0000D939  _position                          position
     0000DC39  G$render$0_0$0                     render
     0000DC39  _render                            render
     0000DDB9  G$scene_manager$0_0$0              scene_manager
     0000DDB9  _scene_manager                     scene_manager
     0000DDBB  G$GenderSelect$0_0$0               gender_select
     0000DDBB  _GenderSelect                      gender_select
     0000DDC3  G$InventoryScene$0_0$0             inventory_scene
     0000DDC3  _InventoryScene                    inventory_scene
     0000DDCB  G$Map_00$0_0$0                     map_00
     0000DDCB  _Map_00                            map_00
     0000DDD3  Lmain.main$game$1_1$180            main
     0000DDD7  ___sdcc_heap_free                  malloc

ASxxxx Linker V03.00/V05.40 + sdld,  page 86.
Hexadecimal  [32-Bits]

Area                                    Addr        Size        Decimal Bytes (Attributes)
--------------------------------        ----        ----        ------- ----- ------------
_INITIALIZED                        0000DDD9    00000199 =         409. bytes (REL,CON)

      Value  Global                              Global Defined In Module
      -----  --------------------------------   ------------------------
     0000DDD9  G$spr_InventoryArrow_idle$0_0$0    spr_InventoryArrow_idle
     0000DDD9  _spr_InventoryArrow_idle           spr_InventoryArrow_idle
     0000DDE9  G$spr_Player_down0_00$0_0$0        spr_Player_down0
     0000DDE9  _spr_Player_down0_00               spr_Player_down0
     0000DDF9  G$spr_Player_down0_10$0_0$0        spr_Player_down0
     0000DDF9  _spr_Player_down0_10               spr_Player_down0
     0000DE09  G$spr_Player_down0_01$0_0$0        spr_Player_down0
     0000DE09  _spr_Player_down0_01               spr_Player_down0
     0000DE19  G$spr_Player_down0_11$0_0$0        spr_Player_down0
     0000DE19  _spr_Player_down0_11               spr_Player_down0
     0000DE29  G$spr_Player_down1_00$0_0$0        spr_Player_down1
     0000DE29  _spr_Player_down1_00               spr_Player_down1
     0000DE39  G$spr_Player_down1_10$0_0$0        spr_Player_down1
     0000DE39  _spr_Player_down1_10               spr_Player_down1
     0000DE49  G$spr_Player_down1_01$0_0$0        spr_Player_down1
     0000DE49  _spr_Player_down1_01               spr_Player_down1
     0000DE59  G$spr_Player_down1_11$0_0$0        spr_Player_down1
     0000DE59  _spr_Player_down1_11               spr_Player_down1
     0000DE69  G$spr_Player_down2_00$0_0$0        spr_Player_down2
     0000DE69  _spr_Player_down2_00               spr_Player_down2
     0000DE79  G$spr_Player_down2_10$0_0$0        spr_Player_down2
     0000DE79  _spr_Player_down2_10               spr_Player_down2
     0000DE89  G$spr_Player_down2_01$0_0$0        spr_Player_down2
     0000DE89  _spr_Player_down2_01               spr_Player_down2
     0000DE99  G$spr_Player_down2_11$0_0$0        spr_Player_down2
     0000DE99  _spr_Player_down2_11               spr_Player_down2
     0000DEA9  G$spr_Player_up0_00$0_0$0          spr_Player_up0
     0000DEA9  _spr_Player_up0_00                 spr_Player_up0
     0000DEB9  G$spr_Player_up0_10$0_0$0          spr_Player_up0
     0000DEB9  _spr_Player_up0_10                 spr_Player_up0
     0000DEC9  G$spr_Player_up0_01$0_0$0          spr_Player_up0
     0000DEC9  _spr_Player_up0_01                 spr_Player_up0
     0000DED9  G$spr_Player_up0_11$0_0$0          spr_Player_up0
     0000DED9  _spr_Player_up0_11                 spr_Player_up0
     0000DEE9  G$spr_Player_up1_00$0_0$0          spr_Player_up1
     0000DEE9  _spr_Player_up1_00                 spr_Player_up1
     0000DEF9  G$spr_Player_up1_10$0_0$0          spr_Player_up1
     0000DEF9  _spr_Player_up1_10                 spr_Player_up1
     0000DF09  G$spr_Player_up1_01$0_0$0          spr_Player_up1
     0000DF09  _spr_Player_up1_01                 spr_Player_up1
     0000DF19  G$spr_Player_up1_11$0_0$0          spr_Player_up1
     0000DF19  _spr_Player_up1_11                 spr_Player_up1
     0000DF29  G$spr_Player_up2_00$0_0$0          spr_Player_up2
     0000DF29  _spr_Player_up2_00                 spr_Player_up2
     0000DF39  G$spr_Player_up2_10$0_0$0          spr_Player_up2
     0000DF39  _spr_Player_up2_10                 spr_Player_up2
     0000DF49  G$spr_Player_up2_01$0_0$0          spr_Player_up2
     0000DF49  _spr_Player_up2_01                 spr_Player_up2
     0000DF59  G$spr_Player_up2_11$0_0$0          spr_Player_up2
     0000DF59  _spr_Player_up2_11                 spr_Player_up2
ASxxxx Linker V03.00/V05.40 + sdld,  page 87.
Hexadecimal  [32-Bits]

Area                                    Addr        Size        Decimal Bytes (Attributes)
--------------------------------        ----        ----        ------- ----- ------------
_INITIALIZED                        0000DDD9    00000199 =         409. bytes (REL,CON)

      Value  Global                              Global Defined In Module
      -----  --------------------------------   ------------------------
     0000DF69  G$MOVE_SPEED$0_0$0                 action
     0000DF69  _MOVE_SPEED                        action
     0000DF6A  G$current_direction$0_0$0          action
     0000DF6A  _current_direction                 action
     0000DF6B  G$last_keys$0_0$0                  action
     0000DF6B  _last_keys                         action
     0000DF6C  G$next_entity_id$0_0$0             entity
     0000DF6C  _next_entity_id                    entity
     0000DF6E  G$GENDER$0_0$0                     gender_selection
     0000DF6E  _GENDER                            gender_selection
     0000DF6F  G$prev_keys$0_0$0                  inventory_input
     0000DF6F  _prev_keys                         inventory_input
     0000DF70  G$vram_next_index$0_0$0            load
     0000DF70  _vram_next_index                   load
     0000DF71  __map_tile_offset                  SetTileMap

ASxxxx Linker V03.00/V05.40 + sdld,  page 88.
Hexadecimal  [32-Bits]

Area                                    Addr        Size        Decimal Bytes (Attributes)
--------------------------------        ----        ----        ------- ----- ------------
_HEAP                               0000DF72    000007FF =        2047. bytes (REL,CON)

      Value  Global                              Global Defined In Module
      -----  --------------------------------   ------------------------
     0000DF72  ___sdcc_heap                       

ASxxxx Linker V03.00/V05.40 + sdld,  page 89.
Hexadecimal  [32-Bits]

Area                                    Addr        Size        Decimal Bytes (Attributes)
--------------------------------        ----        ----        ------- ----- ------------
_HEAP_END                           0000E771    00000001 =           1. bytes (REL,CON)

      Value  Global                              Global Defined In Module
      -----  --------------------------------   ------------------------
     0000E771  ___sdcc_heap_end                   

ASxxxx Linker V03.00/V05.40 + sdld,  page 90.
Hexadecimal  [32-Bits]

Area                                    Addr        Size        Decimal Bytes (Attributes)
--------------------------------        ----        ----        ------- ----- ------------
_HRAM                               0000FF80    00000013 =          19. bytes (REL,CON)

      Value  Global                              Global Defined In Module
      -----  --------------------------------   ------------------------
     0000FF80  .refresh_OAM                       Runtime
     0000FF90  __current_bank                     Runtime
     0000FF91  __vbl_done                         Runtime
     0000FF92  __shadow_OAM_base                  Runtime

ASxxxx Linker V03.00/V05.40 + sdld,  page 91.

Files Linked                              [ module(s) ]

C:\Program Files\GBDK\lib/gb/crt0.o       [ Runtime ]
C:\Users\Bau_M\AppData\Local\Temp/lcc16600.o
                                          [ gender_select_tilemap ]
C:\Users\Bau_M\AppData\Local\Temp/lcc16601.o
                                          [ gender_select_tileset ]
C:\Users\Bau_M\AppData\Local\Temp/lcc16602.o
                                          [ inventory_bkg ]
C:\Users\Bau_M\AppData\Local\Temp/lcc16603.o
                                          [ map_example ]
C:\Users\Bau_M\AppData\Local\Temp/lcc16604.o
                                          [ template_tilemap ]
C:\Users\Bau_M\AppData\Local\Temp/lcc16605.o
                                          [ template_tileset ]
C:\Users\Bau_M\AppData\Local\Temp/lcc16606.o
                                          [ spr_InventoryArrow_idle ]
C:\Users\Bau_M\AppData\Local\Temp/lcc16607.o
                                          [ spr_Branch ]
C:\Users\Bau_M\AppData\Local\Temp/lcc16608.o
                                          [ spr_Player_down0 ]
C:\Users\Bau_M\AppData\Local\Temp/lcc16609.o
                                          [ spr_Player_down1 ]
C:\Users\Bau_M\AppData\Local\Temp/lcc166010.o
                                          [ spr_Player_down2 ]
C:\Users\Bau_M\AppData\Local\Temp/lcc166011.o
                                          [ spr_Player_up0 ]
C:\Users\Bau_M\AppData\Local\Temp/lcc166012.o
                                          [ spr_Player_up1 ]
C:\Users\Bau_M\AppData\Local\Temp/lcc166013.o
                                          [ spr_Player_up2 ]
C:\Users\Bau_M\AppData\Local\Temp/lcc166014.o
                                          [ action ]
C:\Users\Bau_M\AppData\Local\Temp/lcc166015.o
                                          [ animation ]
C:\Users\Bau_M\AppData\Local\Temp/lcc166016.o
                                          [ draw ]
C:\Users\Bau_M\AppData\Local\Temp/lcc166017.o
                                          [ entity ]
C:\Users\Bau_M\AppData\Local\Temp/lcc166018.o
                                          [ gender_selection ]
C:\Users\Bau_M\AppData\Local\Temp/lcc166019.o
                                          [ global_action ]
C:\Users\Bau_M\AppData\Local\Temp/lcc166020.o
                                          [ inventory ]
C:\Users\Bau_M\AppData\Local\Temp/lcc166021.o
                                          [ inventory_input ]
C:\Users\Bau_M\AppData\Local\Temp/lcc166022.o
                                          [ load ]
C:\Users\Bau_M\AppData\Local\Temp/lcc166023.o
                                          [ map_scenes ]
C:\Users\Bau_M\AppData\Local\Temp/lcc166024.o
                                          [ player ]
C:\Users\Bau_M\AppData\Local\Temp/lcc166025.o
                                          [ position ]
C:\Users\Bau_M\AppData\Local\Temp/lcc166026.o
                                          [ render ]
C:\Users\Bau_M\AppData\Local\Temp/lcc166027.o
                                          [ scene ]
C:\Users\Bau_M\AppData\Local\Temp/lcc166028.o
                                          [ scene_manager ]
C:\Users\Bau_M\AppData\Local\Temp/lcc166029.o
                                          [ gender_select ]
C:\Users\Bau_M\AppData\Local\Temp/lcc166030.o
                                          [ gender_select_init ]
C:\Users\Bau_M\AppData\Local\Temp/lcc166031.o
                                          [ gender_select_update ]
C:\Users\Bau_M\AppData\Local\Temp/lcc166032.o
                                          [ inventory_scene ]
C:\Users\Bau_M\AppData\Local\Temp/lcc166033.o
                                          [ inventory_scene_init ]
C:\Users\Bau_M\AppData\Local\Temp/lcc166034.o
                                          [ inventory_scene_update ]
C:\Users\Bau_M\AppData\Local\Temp/lcc166035.o
                                          [ map_00 ]
C:\Users\Bau_M\AppData\Local\Temp/lcc166036.o
                                          [ map_00_init ]
C:\Users\Bau_M\AppData\Local\Temp/lcc166037.o
                                          [ map_00_update ]
C:\Users\Bau_M\AppData\Local\Temp/lcc166038.o
                                          [ main ]


Libraries Linked                          [ object file ]

C:\Program Files\GBDK\lib/sm83/sm83.lib   [ free.o ]
C:\Program Files\GBDK\lib/sm83/sm83.lib   [ malloc.o ]
C:\Program Files\GBDK\lib/gb/gb.lib       [ set_data.o ]
C:\Program Files\GBDK\lib/sm83/sm83.lib   [ mul.o ]
C:\Program Files\GBDK\lib/gb/gb.lib       [ pad.o ]
C:\Program Files\GBDK\lib/sm83/sm83.lib   [ __sdcc_call_hl.o ]
C:\Program Files\GBDK\lib/gb/gb.lib       [ sfr.o ]
C:\Program Files\GBDK\lib/gb/gb.lib       [ heap.o ]
C:\Program Files\GBDK\lib/gb/gb.lib       [ set_bk_t.o ]
C:\Program Files\GBDK\lib/gb/gb.lib       [ set_xy_t.o ]

ASxxxx Linker V03.00/V05.40 + sdld,  page 92.

User Base Address Definitions

_DATA=0xC0A0
_CODE=0x0200
_HRAM=0xFF80
ASxxxx Linker V03.00/V05.40 + sdld,  page 93.

User Global Definitions

_shadow_OAM=0xC000
.STACK=0xE000

