ASxxxx Linker V03.00/V05.40 + sdld,  page 1.
Hexadecimal  [32-Bits]

Area                                    Addr        Size        Decimal Bytes (Attributes)
--------------------------------        ----        ----        ------- ----- ------------
.  .ABS.                            00000000    00000000 =           0. bytes (ABS,CON)

      Value  Global                              Global Defined In Module
      -----  --------------------------------   ------------------------
     00000000  .__.ABS.                           SetTileMap
     00000000  _rMBC7_SRAM_ENABLE_1               
     00000000  _rRAMG                             
     00000000  l__BASE                         
     00000000  l__BSS                          
     00000000  l__CABS                         
     00000000  l__CODE_0                       
     00000000  l__DABS                         
     00000000  l__HEADER                       
     00000000  l__LIT                          
     00000000  s__CABS                         
     00000000  s__DABS                         
     00000000  s__HEADER                       
     00000000  s__HEADER0                      
     00000000  s__HEADER1                      
     00000000  s__HEADER10                     
     00000000  s__HEADER11                     
     00000000  s__HEADER2                      
     00000000  s__HEADER3                      
     00000000  s__HEADER4                      
     00000000  s__HEADER5                      
     00000000  s__HEADER6                      
     00000000  s__HEADER7                      
     00000000  s__HEADER8                      
     00000000  s__HEADER9                      
     00000000  s__HEADERa                      
     00000000  s__HEADERb                      
     00000000  s__HEADERc                      
     00000000  s__HEADERd                      
     00000000  s__HEADERe                      
     00000000  s__HEADERf                      
     00000001  l__GSFINAL                      
     00000001  l__HEADER0                      
     00000001  l__HEADER5                      
     00000001  l__HEADERa                      
     00000001  l__HEADERb                      
     00000001  l__HEADERc                      
     00000001  l__HEADERe                      
     00000001  l__HEADERf                      
     00000001  l__HEAP_END                     
     00000002  l__HEADER10                     
     00000002  l__HEADER6                      
     00000002  l__HEADERd                      
     00000003  l__HEADER9                      
     00000005  l__HEADER1                      
     00000006  l__HEADER8                      
     00000007  l__HEADER2                      
     00000008  l__HEADER3                      
     0000000F  l__GSINIT                       
     00000013  l__HRAM                         
ASxxxx Linker V03.00/V05.40 + sdld,  page 2.
Hexadecimal  [32-Bits]

Area                                    Addr        Size        Decimal Bytes (Attributes)
--------------------------------        ----        ----        ------- ----- ------------
.  .ABS.                            00000000    00000000 =           0. bytes (ABS,CON)

      Value  Global                              Global Defined In Module
      -----  --------------------------------   ------------------------
     00000030  l__HEADER7                      
     00000060  l__HEADER4                      
     000000AB  l__HEADER11                     
     0000012C  l__HOME                         
     0000016C  l__DATA                         
     000001DC  l__INITIALIZED                  
     000001DC  l__INITIALIZER                  
     00000200  s__CODE                         
     000007FF  l__HEAP                         
     00002000  _rROMB0                            
     000028FB  l__CODE                         
     00002AFB  s__HOME                         
     00002C27  s__BASE                         
     00002C27  s__CODE_0                       
     00002C27  s__INITIALIZER                  
     00002C27  s__LIT                          
     00002E03  s__GSINIT                       
     00002E12  s__GSFINAL                      
     00003000  _rROMB1                            
     00004000  _rMBC7_SRAM_ENABLE_2               
     00004000  _rRAMB                             
     00008000  __VRAM                             
     00008000  __VRAM8000                         
     00008800  __VRAM8800                         
     00009000  __VRAM9000                         
     00009800  __SCRN0                            
     00009C00  __SCRN1                            
     0000A000  __SRAM                             
     0000A000  _rMBC7_LATCH_1                     
     0000A010  _rMBC7_LATCH_2                     
     0000A020  _rMBC7_ACCEL_X_LO                  
     0000A030  _rMBC7_ACCEL_X_HI                  
     0000A040  _rMBC7_ACCEL_Y_LO                  
     0000A050  _rMBC7_ACCEL_Y_HI                  
     0000C000  __RAM                              
     0000C000  _shadow_OAM                     
     0000C0A0  s__DATA                         
     0000C20C  s__BSS                          
     0000C20C  s__INITIALIZED                  
     0000C3E8  s__HEAP                         
     0000CBE7  s__HEAP_END                     
     0000D000  __RAMBANK                          
     0000E000  .STACK                          
     0000FE00  __OAMRAM                           
     0000FF00  _P1_REG                            
     0000FF00  __IO                               
     0000FF01  _SB_REG                            
     0000FF02  _SC_REG                            
     0000FF04  _DIV_REG                           
     0000FF05  _TIMA_REG                          
     0000FF06  _TMA_REG                           
ASxxxx Linker V03.00/V05.40 + sdld,  page 3.
Hexadecimal  [32-Bits]

Area                                    Addr        Size        Decimal Bytes (Attributes)
--------------------------------        ----        ----        ------- ----- ------------
.  .ABS.                            00000000    00000000 =           0. bytes (ABS,CON)

      Value  Global                              Global Defined In Module
      -----  --------------------------------   ------------------------
     0000FF07  _TAC_REG                           
     0000FF0F  _IF_REG                            
     0000FF10  _NR10_REG                          
     0000FF11  _NR11_REG                          
     0000FF12  _NR12_REG                          
     0000FF13  _NR13_REG                          
     0000FF14  _NR14_REG                          
     0000FF16  _NR21_REG                          
     0000FF17  _NR22_REG                          
     0000FF18  _NR23_REG                          
     0000FF19  _NR24_REG                          
     0000FF1A  _NR30_REG                          
     0000FF1B  _NR31_REG                          
     0000FF1C  _NR32_REG                          
     0000FF1D  _NR33_REG                          
     0000FF1E  _NR34_REG                          
     0000FF20  _NR41_REG                          
     0000FF21  _NR42_REG                          
     0000FF22  _NR43_REG                          
     0000FF23  _NR44_REG                          
     0000FF24  _NR50_REG                          
     0000FF25  _NR51_REG                          
     0000FF26  _NR52_REG                          
     0000FF30  _AUD3WAVE                          
     0000FF30  _PCM_SAMPLE                        
     0000FF30  __AUD3WAVERAM                      
     0000FF40  _LCDC_REG                          
     0000FF41  _STAT_REG                          
     0000FF42  _SCY_REG                           
     0000FF43  _SCX_REG                           
     0000FF44  _LY_REG                            
     0000FF45  _LYC_REG                           
     0000FF46  _DMA_REG                           
     0000FF47  _BGP_REG                           
     0000FF48  _OBP0_REG                          
     0000FF49  _OBP1_REG                          
     0000FF4A  _WY_REG                            
     0000FF4B  _WX_REG                            
     0000FF4D  _KEY1_REG                          
     0000FF4F  _VBK_REG                           
     0000FF51  _HDMA1_REG                         
     0000FF52  _HDMA2_REG                         
     0000FF53  _HDMA3_REG                         
     0000FF54  _HDMA4_REG                         
     0000FF55  _HDMA5_REG                         
     0000FF56  _RP_REG                            
     0000FF68  _BCPS_REG                          
     0000FF69  _BCPD_REG                          
     0000FF6A  _OCPS_REG                          
     0000FF6B  _OCPD_REG                          
     0000FF70  _SVBK_REG                          
ASxxxx Linker V03.00/V05.40 + sdld,  page 4.
Hexadecimal  [32-Bits]

Area                                    Addr        Size        Decimal Bytes (Attributes)
--------------------------------        ----        ----        ------- ----- ------------
.  .ABS.                            00000000    00000000 =           0. bytes (ABS,CON)

      Value  Global                              Global Defined In Module
      -----  --------------------------------   ------------------------
     0000FF76  _PCM12_REG                         
     0000FF77  _PCM34_REG                         
     0000FF80  __HRAM                             
     0000FF80  s__HRAM                         
     0000FFFF  _IE_REG                            

ASxxxx Linker V03.00/V05.40 + sdld,  page 5.
Hexadecimal  [32-Bits]

Area                                    Addr        Size        Decimal Bytes (Attributes)
--------------------------------        ----        ----        ------- ----- ------------
_CODE                               00000200    000028FB =       10491. bytes (REL,CON)

      Value  Global                              Global Defined In Module
      -----  --------------------------------   ------------------------
     00000200  G$chars_tileset$0_0$0              chars
     00000200  _chars_tileset                     chars
     000003F0  G$chars_tilemap$0_0$0              chars
     000003F0  _chars_tilemap                     chars
     0000040E  G$numbers_tileset$0_0$0            numbers
     0000040E  _numbers_tileset                   numbers
     000004BE  G$numbers_tilemap$0_0$0            numbers
     000004BE  _numbers_tilemap                   numbers
     000004C8  G$gender_select_tilemap$0_0$0      gender_select_tilemap
     000004C8  _gender_select_tilemap             gender_select_tilemap
     00000630  G$gender_select_tileset$0_0$0      gender_select_tileset
     00000630  _gender_select_tileset             gender_select_tileset
     00000920  G$inventory_bkg_tileset$0_0$0      inventory_bkg
     00000920  _inventory_bkg_tileset             inventory_bkg
     00000C40  G$inventory_bkg_tilemap$0_0$0      inventory_bkg
     00000C40  _inventory_bkg_tilemap             inventory_bkg
     00000DA8  G$example_tileset$0_0$0            map_example
     00000DA8  _example_tileset                   map_example
     00001258  G$example_tilemap$0_0$0            map_example
     00001258  _example_tilemap                   map_example
     000013C0  G$template_tilemap$0_0$0           template_tilemap
     000013C0  _template_tilemap                  template_tilemap
     00001528  G$template_tileset$0_0$0           template_tileset
     00001528  _template_tileset                  template_tileset
     000016F8  G$spr_Branch$0_0$0                 spr_Branch
     000016F8  _spr_Branch                        spr_Branch
     00001708  A$lcc1026417$70                    action
     00001708  C$action.c$13$0_0$150              action
     00001708  G$move_up$0$0                      action
     00001708  _move_up                           action
     0000170A  A$lcc1026417$71                    action
     0000170C  A$lcc1026417$72                    action
     0000170D  A$lcc1026417$76                    action
     0000170D  C$action.c$15$2_0$151              action
     00001710  A$lcc1026417$77                    action
     00001712  A$lcc1026417$81                    action
     00001712  C$action.c$16$2_0$151              action
     00001714  A$lcc1026417$85                    action
     00001714  C$action.c$18$1_0$150              action
     00001716  A$lcc1026417$86                    action
     00001717  A$lcc1026417$87                    action
     00001718  A$lcc1026417$88                    action
     0000171A  A$lcc1026417$89                    action
     0000171B  A$lcc1026417$90                    action
     0000171D  A$lcc1026417$91                    action
     0000171F  A$lcc1026417$92                    action
     00001720  A$lcc1026417$93                    action
     00001723  A$lcc1026417$94                    action
     00001725  A$lcc1026417$95                    action
     00001726  A$lcc1026417$96                    action
ASxxxx Linker V03.00/V05.40 + sdld,  page 6.
Hexadecimal  [32-Bits]

Area                                    Addr        Size        Decimal Bytes (Attributes)
--------------------------------        ----        ----        ------- ----- ------------
_CODE                               00000200    000028FB =       10491. bytes (REL,CON)

      Value  Global                              Global Defined In Module
      -----  --------------------------------   ------------------------
     00001727  A$lcc1026417$97                    action
     00001728  A$lcc1026417$98                    action
     00001729  A$lcc1026417$99                    action
     0000172A  A$lcc1026417$100                   action
     0000172B  A$lcc1026417$101                   action
     0000172C  A$lcc1026417$102                   action
     0000172D  A$lcc1026417$103                   action
     0000172E  A$lcc1026417$104                   action
     0000172F  A$lcc1026417$105                   action
     00001731  A$lcc1026417$106                   action
     00001732  A$lcc1026417$107                   action
     00001734  A$lcc1026417$108                   action
     00001735  A$lcc1026417$109                   action
     00001737  A$lcc1026417$110                   action
     00001738  A$lcc1026417$111                   action
     0000173A  A$lcc1026417$112                   action
     0000173B  A$lcc1026417$113                   action
     0000173D  A$lcc1026417$114                   action
     0000173E  A$lcc1026417$115                   action
     00001740  A$lcc1026417$116                   action
     00001741  A$lcc1026417$117                   action
     00001742  A$lcc1026417$118                   action
     00001743  A$lcc1026417$119                   action
     00001744  A$lcc1026417$120                   action
     00001745  A$lcc1026417$121                   action
     00001746  A$lcc1026417$122                   action
     00001747  A$lcc1026417$123                   action
     00001748  A$lcc1026417$124                   action
     00001749  A$lcc1026417$125                   action
     0000174A  A$lcc1026417$126                   action
     0000174C  A$lcc1026417$127                   action
     0000174D  A$lcc1026417$128                   action
     0000174E  A$lcc1026417$129                   action
     0000174F  A$lcc1026417$130                   action
     00001750  A$lcc1026417$131                   action
     00001751  A$lcc1026417$132                   action
     00001752  A$lcc1026417$133                   action
     00001753  A$lcc1026417$134                   action
     00001754  A$lcc1026417$135                   action
     00001755  A$lcc1026417$136                   action
     00001756  A$lcc1026417$140                   action
     00001756  C$action.c$19$1_0$150              action
     00001759  A$lcc1026417$141                   action
     0000175A  A$lcc1026417$142                   action
     0000175B  A$lcc1026417$143                   action
     0000175D  A$lcc1026417$144                   action
     0000175E  A$lcc1026417$145                   action
     0000175F  A$lcc1026417$146                   action
     00001760  A$lcc1026417$147                   action
     00001761  A$lcc1026417$148                   action
     00001762  A$lcc1026417$153                   action
ASxxxx Linker V03.00/V05.40 + sdld,  page 7.
Hexadecimal  [32-Bits]

Area                                    Addr        Size        Decimal Bytes (Attributes)
--------------------------------        ----        ----        ------- ----- ------------
_CODE                               00000200    000028FB =       10491. bytes (REL,CON)

      Value  Global                              Global Defined In Module
      -----  --------------------------------   ------------------------
     00001764  A$lcc1026417$158                   action
     00001764  C$action.c$20$1_0$150              action
     00001764  XG$move_up$0$0                     action
     00001765  A$lcc1026417$168                   action
     00001765  C$action.c$22$1_0$153              action
     00001765  G$move_down$0$0                    action
     00001765  _move_down                         action
     00001767  A$lcc1026417$169                   action
     00001769  A$lcc1026417$170                   action
     0000176A  A$lcc1026417$174                   action
     0000176A  C$action.c$24$2_0$154              action
     0000176D  A$lcc1026417$175                   action
     0000176F  A$lcc1026417$179                   action
     0000176F  C$action.c$25$2_0$154              action
     00001771  A$lcc1026417$183                   action
     00001771  C$action.c$27$1_0$153              action
     00001773  A$lcc1026417$184                   action
     00001774  A$lcc1026417$185                   action
     00001775  A$lcc1026417$186                   action
     00001777  A$lcc1026417$187                   action
     00001778  A$lcc1026417$188                   action
     0000177A  A$lcc1026417$189                   action
     0000177C  A$lcc1026417$190                   action
     0000177D  A$lcc1026417$191                   action
     00001780  A$lcc1026417$192                   action
     00001782  A$lcc1026417$193                   action
     00001783  A$lcc1026417$194                   action
     00001784  A$lcc1026417$195                   action
     00001785  A$lcc1026417$196                   action
     00001786  A$lcc1026417$197                   action
     00001787  A$lcc1026417$198                   action
     00001788  A$lcc1026417$199                   action
     00001789  A$lcc1026417$200                   action
     0000178B  A$lcc1026417$201                   action
     0000178C  A$lcc1026417$202                   action
     0000178D  A$lcc1026417$203                   action
     0000178F  A$lcc1026417$204                   action
     00001790  A$lcc1026417$205                   action
     00001791  A$lcc1026417$206                   action
     00001792  A$lcc1026417$207                   action
     00001793  A$lcc1026417$208                   action
     00001794  A$lcc1026417$209                   action
     00001795  A$lcc1026417$210                   action
     00001796  A$lcc1026417$211                   action
     00001797  A$lcc1026417$212                   action
     00001798  A$lcc1026417$213                   action
     00001799  A$lcc1026417$217                   action
     00001799  C$action.c$28$1_0$153              action
     0000179C  A$lcc1026417$218                   action
     0000179E  A$lcc1026417$219                   action
     0000179F  A$lcc1026417$220                   action
ASxxxx Linker V03.00/V05.40 + sdld,  page 8.
Hexadecimal  [32-Bits]

Area                                    Addr        Size        Decimal Bytes (Attributes)
--------------------------------        ----        ----        ------- ----- ------------
_CODE                               00000200    000028FB =       10491. bytes (REL,CON)

      Value  Global                              Global Defined In Module
      -----  --------------------------------   ------------------------
     000017A1  A$lcc1026417$221                   action
     000017A2  A$lcc1026417$222                   action
     000017A3  A$lcc1026417$223                   action
     000017A4  A$lcc1026417$224                   action
     000017A5  A$lcc1026417$225                   action
     000017A6  A$lcc1026417$230                   action
     000017A8  A$lcc1026417$235                   action
     000017A8  C$action.c$29$1_0$153              action
     000017A8  XG$move_down$0$0                   action
     000017A9  A$lcc1026417$245                   action
     000017A9  C$action.c$31$1_0$156              action
     000017A9  G$move_left$0$0                    action
     000017A9  _move_left                         action
     000017AB  A$lcc1026417$246                   action
     000017AD  A$lcc1026417$247                   action
     000017AE  A$lcc1026417$251                   action
     000017AE  C$action.c$33$2_0$157              action
     000017B1  A$lcc1026417$252                   action
     000017B3  A$lcc1026417$256                   action
     000017B3  C$action.c$34$2_0$157              action
     000017B5  A$lcc1026417$260                   action
     000017B5  C$action.c$36$1_0$156              action
     000017B7  A$lcc1026417$261                   action
     000017B8  A$lcc1026417$262                   action
     000017B9  A$lcc1026417$263                   action
     000017BB  A$lcc1026417$264                   action
     000017BC  A$lcc1026417$265                   action
     000017BE  A$lcc1026417$266                   action
     000017C0  A$lcc1026417$267                   action
     000017C1  A$lcc1026417$268                   action
     000017C4  A$lcc1026417$269                   action
     000017C6  A$lcc1026417$270                   action
     000017C7  A$lcc1026417$271                   action
     000017C8  A$lcc1026417$272                   action
     000017C9  A$lcc1026417$273                   action
     000017CA  A$lcc1026417$274                   action
     000017CB  A$lcc1026417$275                   action
     000017CC  A$lcc1026417$276                   action
     000017CD  A$lcc1026417$277                   action
     000017CE  A$lcc1026417$278                   action
     000017CF  A$lcc1026417$279                   action
     000017D0  A$lcc1026417$280                   action
     000017D2  A$lcc1026417$281                   action
     000017D3  A$lcc1026417$282                   action
     000017D5  A$lcc1026417$283                   action
     000017D6  A$lcc1026417$284                   action
     000017D8  A$lcc1026417$285                   action
     000017D9  A$lcc1026417$286                   action
     000017DB  A$lcc1026417$287                   action
     000017DC  A$lcc1026417$288                   action
     000017DE  A$lcc1026417$289                   action
ASxxxx Linker V03.00/V05.40 + sdld,  page 9.
Hexadecimal  [32-Bits]

Area                                    Addr        Size        Decimal Bytes (Attributes)
--------------------------------        ----        ----        ------- ----- ------------
_CODE                               00000200    000028FB =       10491. bytes (REL,CON)

      Value  Global                              Global Defined In Module
      -----  --------------------------------   ------------------------
     000017DF  A$lcc1026417$290                   action
     000017E1  A$lcc1026417$291                   action
     000017E2  A$lcc1026417$292                   action
     000017E3  A$lcc1026417$293                   action
     000017E4  A$lcc1026417$294                   action
     000017E5  A$lcc1026417$295                   action
     000017E6  A$lcc1026417$296                   action
     000017E7  A$lcc1026417$297                   action
     000017E8  A$lcc1026417$298                   action
     000017E9  A$lcc1026417$299                   action
     000017EA  A$lcc1026417$300                   action
     000017EB  A$lcc1026417$301                   action
     000017ED  A$lcc1026417$302                   action
     000017EE  A$lcc1026417$303                   action
     000017EF  A$lcc1026417$304                   action
     000017F0  A$lcc1026417$305                   action
     000017F1  A$lcc1026417$309                   action
     000017F1  C$action.c$37$1_0$156              action
     000017F2  A$lcc1026417$310                   action
     000017F3  A$lcc1026417$311                   action
     000017F4  A$lcc1026417$312                   action
     000017F5  A$lcc1026417$313                   action
     000017F6  A$lcc1026417$314                   action
     000017F7  A$lcc1026417$315                   action
     000017F8  A$lcc1026417$316                   action
     000017F9  A$lcc1026417$317                   action
     000017FC  A$lcc1026417$318                   action
     000017FD  A$lcc1026417$319                   action
     000017FF  A$lcc1026417$320                   action
     00001800  A$lcc1026417$321                   action
     00001801  A$lcc1026417$322                   action
     00001802  A$lcc1026417$323                   action
     00001803  A$lcc1026417$324                   action
     00001804  A$lcc1026417$325                   action
     00001805  A$lcc1026417$330                   action
     00001807  A$lcc1026417$335                   action
     00001807  C$action.c$38$1_0$156              action
     00001807  XG$move_left$0$0                   action
     00001808  A$lcc1026417$345                   action
     00001808  C$action.c$40$1_0$159              action
     00001808  G$move_right$0$0                   action
     00001808  _move_right                        action
     0000180A  A$lcc1026417$346                   action
     0000180C  A$lcc1026417$347                   action
     0000180D  A$lcc1026417$351                   action
     0000180D  C$action.c$42$2_0$160              action
     00001810  A$lcc1026417$352                   action
     00001812  A$lcc1026417$356                   action
     00001812  C$action.c$43$2_0$160              action
     00001814  A$lcc1026417$360                   action
     00001814  C$action.c$45$1_0$159              action
ASxxxx Linker V03.00/V05.40 + sdld,  page 10.
Hexadecimal  [32-Bits]

Area                                    Addr        Size        Decimal Bytes (Attributes)
--------------------------------        ----        ----        ------- ----- ------------
_CODE                               00000200    000028FB =       10491. bytes (REL,CON)

      Value  Global                              Global Defined In Module
      -----  --------------------------------   ------------------------
     00001816  A$lcc1026417$361                   action
     00001817  A$lcc1026417$362                   action
     00001818  A$lcc1026417$363                   action
     0000181A  A$lcc1026417$364                   action
     0000181B  A$lcc1026417$365                   action
     0000181D  A$lcc1026417$366                   action
     0000181F  A$lcc1026417$367                   action
     00001820  A$lcc1026417$368                   action
     00001823  A$lcc1026417$369                   action
     00001825  A$lcc1026417$370                   action
     00001826  A$lcc1026417$371                   action
     00001827  A$lcc1026417$372                   action
     00001828  A$lcc1026417$373                   action
     00001829  A$lcc1026417$374                   action
     0000182A  A$lcc1026417$375                   action
     0000182B  A$lcc1026417$376                   action
     0000182C  A$lcc1026417$377                   action
     0000182E  A$lcc1026417$378                   action
     0000182F  A$lcc1026417$379                   action
     00001830  A$lcc1026417$380                   action
     00001832  A$lcc1026417$381                   action
     00001833  A$lcc1026417$382                   action
     00001834  A$lcc1026417$383                   action
     00001835  A$lcc1026417$384                   action
     00001836  A$lcc1026417$385                   action
     00001837  A$lcc1026417$386                   action
     00001838  A$lcc1026417$387                   action
     00001839  A$lcc1026417$388                   action
     0000183A  A$lcc1026417$389                   action
     0000183B  A$lcc1026417$390                   action
     0000183C  A$lcc1026417$394                   action
     0000183C  C$action.c$46$1_0$159              action
     0000183D  A$lcc1026417$395                   action
     00001840  A$lcc1026417$396                   action
     00001842  A$lcc1026417$397                   action
     00001843  A$lcc1026417$398                   action
     00001845  A$lcc1026417$399                   action
     00001846  A$lcc1026417$400                   action
     00001847  A$lcc1026417$401                   action
     00001848  A$lcc1026417$402                   action
     00001849  A$lcc1026417$403                   action
     0000184A  A$lcc1026417$404                   action
     0000184B  A$lcc1026417$409                   action
     0000184D  A$lcc1026417$414                   action
     0000184D  C$action.c$47$1_0$159              action
     0000184D  XG$move_right$0$0                  action
     0000184E  A$lcc1026417$424                   action
     0000184E  C$action.c$49$1_0$162              action
     0000184E  G$check_input$0$0                  action
     0000184E  _check_input                       action
     00001850  A$lcc1026417$428                   action
ASxxxx Linker V03.00/V05.40 + sdld,  page 11.
Hexadecimal  [32-Bits]

Area                                    Addr        Size        Decimal Bytes (Attributes)
--------------------------------        ----        ----        ------- ----- ------------
_CODE                               00000200    000028FB =       10491. bytes (REL,CON)

      Value  Global                              Global Defined In Module
      -----  --------------------------------   ------------------------
     00001850  C$action.c$51$1_0$162              action
     00001853  A$lcc1026417$429                   action
     00001855  A$lcc1026417$430                   action
     00001856  A$lcc1026417$434                   action
     00001856  C$action.c$53$2_0$163              action
     00001857  A$lcc1026417$435                   action
     00001859  A$lcc1026417$436                   action
     0000185B  A$lcc1026417$437                   action
     0000185C  A$lcc1026417$438                   action
     0000185E  A$lcc1026417$439                   action
     00001861  A$lcc1026417$440                   action
     00001863  A$lcc1026417$441                   action
     00001865  A$lcc1026417$445                   action
     00001865  C$action.c$55$3_0$164              action
     00001868  A$lcc1026417$446                   action
     00001869  A$lcc1026417$447                   action
     0000186C  A$lcc1026417$448                   action
     0000186D  A$lcc1026417$449                   action
     0000186E  A$lcc1026417$450                   action
     0000186F  A$lcc1026417$451                   action
     00001870  A$lcc1026417$452                   action
     00001871  A$lcc1026417$453                   action
     00001872  A$lcc1026417$454                   action
     00001875  A$lcc1026417$455                   action
     00001877  A$lcc1026417$456                   action
     00001878  A$lcc1026417$457                   action
     0000187A  A$lcc1026417$458                   action
     0000187B  A$lcc1026417$459                   action
     0000187C  A$lcc1026417$460                   action
     0000187F  A$lcc1026417$465                   action
     0000187F  C$action.c$61$1_0$162              action
     00001881  A$lcc1026417$466                   action
     00001882  A$lcc1026417$467                   action
     00001884  A$lcc1026417$468                   action
     00001885  A$lcc1026417$472                   action
     00001885  C$action.c$63$1_0$162              action
     00001886  A$lcc1026417$473                   action
     00001887  A$lcc1026417$474                   action
     00001888  A$lcc1026417$475                   action
     00001889  A$lcc1026417$476                   action
     0000188B  A$lcc1026417$477                   action
     0000188D  A$lcc1026417$478                   action
     0000188E  A$lcc1026417$479                   action
     00001890  A$lcc1026417$483                   action
     00001890  C$action.c$65$1_0$162              action
     00001892  A$lcc1026417$484                   action
     00001893  A$lcc1026417$485                   action
     00001895  A$lcc1026417$486                   action
     00001897  A$lcc1026417$487                   action
     00001898  A$lcc1026417$488                   action
     0000189A  A$lcc1026417$492                   action
ASxxxx Linker V03.00/V05.40 + sdld,  page 12.
Hexadecimal  [32-Bits]

Area                                    Addr        Size        Decimal Bytes (Attributes)
--------------------------------        ----        ----        ------- ----- ------------
_CODE                               00000200    000028FB =       10491. bytes (REL,CON)

      Value  Global                              Global Defined In Module
      -----  --------------------------------   ------------------------
     0000189A  C$action.c$67$1_0$162              action
     0000189C  A$lcc1026417$493                   action
     0000189D  A$lcc1026417$494                   action
     0000189F  A$lcc1026417$495                   action
     000018A1  A$lcc1026417$496                   action
     000018A2  A$lcc1026417$497                   action
     000018A4  A$lcc1026417$501                   action
     000018A4  C$action.c$59$2_0$165              action
     000018A7  A$lcc1026417$505                   action
     000018A7  C$action.c$61$4_0$167              action
     000018A8  A$lcc1026417$506                   action
     000018AA  A$lcc1026417$507                   action
     000018AC  A$lcc1026417$508                   action
     000018AD  A$lcc1026417$509                   action
     000018AF  A$lcc1026417$513                   action
     000018AF  C$action.c$62$4_0$167              action
     000018B2  A$lcc1026417$514                   action
     000018B4  A$lcc1026417$515                   action
     000018B6  A$lcc1026417$520                   action
     000018B6  C$action.c$63$5_0$168              action
     000018B7  A$lcc1026417$521                   action
     000018B9  A$lcc1026417$522                   action
     000018BA  A$lcc1026417$523                   action
     000018BC  A$lcc1026417$527                   action
     000018BC  C$action.c$64$5_0$168              action
     000018BF  A$lcc1026417$528                   action
     000018C1  A$lcc1026417$529                   action
     000018C3  A$lcc1026417$534                   action
     000018C3  C$action.c$65$6_0$169              action
     000018C4  A$lcc1026417$535                   action
     000018C6  A$lcc1026417$536                   action
     000018C7  A$lcc1026417$537                   action
     000018C9  A$lcc1026417$541                   action
     000018C9  C$action.c$66$6_0$169              action
     000018CC  A$lcc1026417$542                   action
     000018CE  A$lcc1026417$543                   action
     000018D0  A$lcc1026417$548                   action
     000018D0  C$action.c$67$7_0$170              action
     000018D1  A$lcc1026417$549                   action
     000018D3  A$lcc1026417$550                   action
     000018D4  A$lcc1026417$551                   action
     000018D6  A$lcc1026417$555                   action
     000018D6  C$action.c$68$7_0$170              action
     000018D9  A$lcc1026417$556                   action
     000018DB  A$lcc1026417$561                   action
     000018DB  C$action.c$72$2_0$171              action
     000018DE  A$lcc1026417$562                   action
     000018DF  A$lcc1026417$563                   action
     000018E1  A$lcc1026417$564                   action
     000018E4  A$lcc1026417$565                   action
     000018E6  A$lcc1026417$566                   action
ASxxxx Linker V03.00/V05.40 + sdld,  page 13.
Hexadecimal  [32-Bits]

Area                                    Addr        Size        Decimal Bytes (Attributes)
--------------------------------        ----        ----        ------- ----- ------------
_CODE                               00000200    000028FB =       10491. bytes (REL,CON)

      Value  Global                              Global Defined In Module
      -----  --------------------------------   ------------------------
     000018E8  A$lcc1026417$567                   action
     000018EA  A$lcc1026417$568                   action
     000018EC  A$lcc1026417$569                   action
     000018EE  A$lcc1026417$570                   action
     000018F0  A$lcc1026417$571                   action
     000018F2  A$lcc1026417$579                   action
     000018F2  C$action.c$74$3_0$172              action
     000018F2  C$action.c$75$3_0$172              action
     000018F5  A$lcc1026417$580                   action
     000018F8  A$lcc1026417$584                   action
     000018F8  C$action.c$76$3_0$172              action
     000018FB  A$lcc1026417$585                   action
     000018FD  A$lcc1026417$586                   action
     000018FE  A$lcc1026417$587                   action
     00001901  A$lcc1026417$588                   action
     00001902  A$lcc1026417$589                   action
     00001904  A$lcc1026417$590                   action
     00001905  A$lcc1026417$591                   action
     00001906  A$lcc1026417$592                   action
     00001907  A$lcc1026417$593                   action
     00001908  A$lcc1026417$594                   action
     00001909  A$lcc1026417$595                   action
     0000190A  A$lcc1026417$596                   action
     0000190B  A$lcc1026417$597                   action
     0000190C  A$lcc1026417$598                   action
     0000190D  A$lcc1026417$599                   action
     00001910  A$lcc1026417$600                   action
     00001911  A$lcc1026417$601                   action
     00001912  A$lcc1026417$602                   action
     00001913  A$lcc1026417$603                   action
     00001915  A$lcc1026417$604                   action
     00001916  A$lcc1026417$605                   action
     00001919  A$lcc1026417$609                   action
     00001919  C$action.c$77$3_0$172              action
     0000191B  A$lcc1026417$617                   action
     0000191B  C$action.c$78$3_0$172              action
     0000191B  C$action.c$79$3_0$172              action
     0000191E  A$lcc1026417$618                   action
     00001921  A$lcc1026417$622                   action
     00001921  C$action.c$80$3_0$172              action
     00001924  A$lcc1026417$623                   action
     00001926  A$lcc1026417$624                   action
     00001927  A$lcc1026417$625                   action
     0000192A  A$lcc1026417$626                   action
     0000192B  A$lcc1026417$627                   action
     0000192D  A$lcc1026417$628                   action
     0000192E  A$lcc1026417$629                   action
     0000192F  A$lcc1026417$630                   action
     00001930  A$lcc1026417$631                   action
     00001931  A$lcc1026417$632                   action
     00001932  A$lcc1026417$633                   action
ASxxxx Linker V03.00/V05.40 + sdld,  page 14.
Hexadecimal  [32-Bits]

Area                                    Addr        Size        Decimal Bytes (Attributes)
--------------------------------        ----        ----        ------- ----- ------------
_CODE                               00000200    000028FB =       10491. bytes (REL,CON)

      Value  Global                              Global Defined In Module
      -----  --------------------------------   ------------------------
     00001933  A$lcc1026417$634                   action
     00001934  A$lcc1026417$635                   action
     00001935  A$lcc1026417$636                   action
     00001936  A$lcc1026417$637                   action
     00001937  A$lcc1026417$638                   action
     00001938  A$lcc1026417$639                   action
     00001939  A$lcc1026417$640                   action
     0000193A  A$lcc1026417$641                   action
     0000193B  A$lcc1026417$642                   action
     0000193E  A$lcc1026417$643                   action
     0000193F  A$lcc1026417$644                   action
     00001940  A$lcc1026417$645                   action
     00001941  A$lcc1026417$646                   action
     00001943  A$lcc1026417$647                   action
     00001944  A$lcc1026417$648                   action
     00001945  A$lcc1026417$649                   action
     00001946  A$lcc1026417$650                   action
     00001948  A$lcc1026417$651                   action
     00001949  A$lcc1026417$652                   action
     0000194A  A$lcc1026417$653                   action
     0000194B  A$lcc1026417$654                   action
     0000194C  A$lcc1026417$655                   action
     0000194D  A$lcc1026417$656                   action
     0000194E  A$lcc1026417$657                   action
     00001951  A$lcc1026417$661                   action
     00001951  C$action.c$81$3_0$172              action
     00001953  A$lcc1026417$669                   action
     00001953  C$action.c$82$3_0$172              action
     00001953  C$action.c$83$3_0$172              action
     00001956  A$lcc1026417$670                   action
     00001959  A$lcc1026417$674                   action
     00001959  C$action.c$84$3_0$172              action
     0000195B  A$lcc1026417$682                   action
     0000195B  C$action.c$85$3_0$172              action
     0000195B  C$action.c$86$3_0$172              action
     0000195E  A$lcc1026417$683                   action
     00001961  A$lcc1026417$691                   action
     00001961  C$action.c$90$2_0$171              action
     00001961  C$action.c$93$2_0$173              action
     00001964  A$lcc1026417$692                   action
     00001965  A$lcc1026417$693                   action
     00001967  A$lcc1026417$694                   action
     00001969  A$lcc1026417$698                   action
     00001969  C$action.c$95$3_0$174              action
     0000196A  A$lcc1026417$699                   action
     0000196C  A$lcc1026417$700                   action
     0000196F  A$lcc1026417$704                   action
     0000196F  C$action.c$96$3_0$174              action
     00001972  A$lcc1026417$705                   action
     00001974  A$lcc1026417$706                   action
     00001975  A$lcc1026417$707                   action
ASxxxx Linker V03.00/V05.40 + sdld,  page 15.
Hexadecimal  [32-Bits]

Area                                    Addr        Size        Decimal Bytes (Attributes)
--------------------------------        ----        ----        ------- ----- ------------
_CODE                               00000200    000028FB =       10491. bytes (REL,CON)

      Value  Global                              Global Defined In Module
      -----  --------------------------------   ------------------------
     00001978  A$lcc1026417$708                   action
     00001979  A$lcc1026417$709                   action
     0000197B  A$lcc1026417$710                   action
     0000197C  A$lcc1026417$711                   action
     0000197D  A$lcc1026417$712                   action
     0000197E  A$lcc1026417$713                   action
     0000197F  A$lcc1026417$714                   action
     00001980  A$lcc1026417$715                   action
     00001981  A$lcc1026417$716                   action
     00001982  A$lcc1026417$717                   action
     00001983  A$lcc1026417$718                   action
     00001984  A$lcc1026417$719                   action
     00001985  A$lcc1026417$720                   action
     00001986  A$lcc1026417$721                   action
     00001988  A$lcc1026417$722                   action
     00001989  A$lcc1026417$723                   action
     0000198A  A$lcc1026417$724                   action
     0000198B  A$lcc1026417$725                   action
     0000198D  A$lcc1026417$726                   action
     0000198E  A$lcc1026417$727                   action
     00001991  A$lcc1026417$728                   action
     00001992  A$lcc1026417$729                   action
     00001993  A$lcc1026417$730                   action
     00001994  A$lcc1026417$731                   action
     00001995  A$lcc1026417$732                   action
     00001996  A$lcc1026417$733                   action
     00001997  A$lcc1026417$734                   action
     00001999  A$lcc1026417$735                   action
     0000199A  A$lcc1026417$736                   action
     0000199B  A$lcc1026417$737                   action
     0000199C  A$lcc1026417$738                   action
     0000199E  A$lcc1026417$739                   action
     0000199F  A$lcc1026417$740                   action
     000019A0  A$lcc1026417$741                   action
     000019A1  A$lcc1026417$742                   action
     000019A2  A$lcc1026417$743                   action
     000019A3  A$lcc1026417$744                   action
     000019A4  A$lcc1026417$745                   action
     000019A7  A$lcc1026417$750                   action
     000019A7  C$action.c$99$2_0$175              action
     000019AA  A$lcc1026417$751                   action
     000019AC  A$lcc1026417$752                   action
     000019AE  A$lcc1026417$753                   action
     000019AF  A$lcc1026417$754                   action
     000019B1  A$lcc1026417$758                   action
     000019B1  C$action.c$101$3_0$176             action
     000019B2  A$lcc1026417$759                   action
     000019B4  A$lcc1026417$760                   action
     000019B7  A$lcc1026417$764                   action
     000019B7  C$action.c$102$3_0$176             action
     000019BA  A$lcc1026417$765                   action
ASxxxx Linker V03.00/V05.40 + sdld,  page 16.
Hexadecimal  [32-Bits]

Area                                    Addr        Size        Decimal Bytes (Attributes)
--------------------------------        ----        ----        ------- ----- ------------
_CODE                               00000200    000028FB =       10491. bytes (REL,CON)

      Value  Global                              Global Defined In Module
      -----  --------------------------------   ------------------------
     000019BC  A$lcc1026417$766                   action
     000019BD  A$lcc1026417$767                   action
     000019C0  A$lcc1026417$768                   action
     000019C1  A$lcc1026417$769                   action
     000019C3  A$lcc1026417$770                   action
     000019C4  A$lcc1026417$771                   action
     000019C5  A$lcc1026417$772                   action
     000019C6  A$lcc1026417$773                   action
     000019C7  A$lcc1026417$774                   action
     000019C8  A$lcc1026417$775                   action
     000019C9  A$lcc1026417$776                   action
     000019CA  A$lcc1026417$777                   action
     000019CB  A$lcc1026417$778                   action
     000019CC  A$lcc1026417$779                   action
     000019CD  A$lcc1026417$780                   action
     000019CE  A$lcc1026417$781                   action
     000019D0  A$lcc1026417$782                   action
     000019D1  A$lcc1026417$783                   action
     000019D2  A$lcc1026417$784                   action
     000019D3  A$lcc1026417$785                   action
     000019D5  A$lcc1026417$786                   action
     000019D6  A$lcc1026417$787                   action
     000019D9  A$lcc1026417$788                   action
     000019DA  A$lcc1026417$789                   action
     000019DB  A$lcc1026417$790                   action
     000019DC  A$lcc1026417$791                   action
     000019DD  A$lcc1026417$792                   action
     000019DE  A$lcc1026417$793                   action
     000019DF  A$lcc1026417$794                   action
     000019E1  A$lcc1026417$795                   action
     000019E2  A$lcc1026417$796                   action
     000019E3  A$lcc1026417$797                   action
     000019E4  A$lcc1026417$798                   action
     000019E6  A$lcc1026417$799                   action
     000019E7  A$lcc1026417$800                   action
     000019E8  A$lcc1026417$801                   action
     000019E9  A$lcc1026417$802                   action
     000019EA  A$lcc1026417$803                   action
     000019EB  A$lcc1026417$804                   action
     000019EC  A$lcc1026417$805                   action
     000019EF  A$lcc1026417$810                   action
     000019EF  C$action.c$105$2_0$177             action
     000019F2  A$lcc1026417$811                   action
     000019F4  A$lcc1026417$812                   action
     000019F6  A$lcc1026417$813                   action
     000019F7  A$lcc1026417$814                   action
     000019F9  A$lcc1026417$818                   action
     000019F9  C$action.c$106$2_0$177             action
     000019FA  A$lcc1026417$819                   action
     000019FC  A$lcc1026417$820                   action
     000019FF  A$lcc1026417$825                   action
ASxxxx Linker V03.00/V05.40 + sdld,  page 17.
Hexadecimal  [32-Bits]

Area                                    Addr        Size        Decimal Bytes (Attributes)
--------------------------------        ----        ----        ------- ----- ------------
_CODE                               00000200    000028FB =       10491. bytes (REL,CON)

      Value  Global                              Global Defined In Module
      -----  --------------------------------   ------------------------
     000019FF  C$action.c$107$2_0$178             action
     00001A02  A$lcc1026417$826                   action
     00001A04  A$lcc1026417$827                   action
     00001A06  A$lcc1026417$828                   action
     00001A07  A$lcc1026417$829                   action
     00001A09  A$lcc1026417$833                   action
     00001A09  C$action.c$108$2_0$178             action
     00001A0A  A$lcc1026417$834                   action
     00001A0C  A$lcc1026417$835                   action
     00001A0F  A$lcc1026417$840                   action
     00001A0F  C$action.c$110$1_0$162             action
     00001A11  A$lcc1026417$841                   action
     00001A12  A$lcc1026417$842                   action
     00001A15  A$lcc1026417$846                   action
     00001A17  A$lcc1026417$851                   action
     00001A17  C$action.c$111$1_0$162             action
     00001A17  XG$check_input$0$0                 action
     00001A18  A$lcc1026418$59                    animation
     00001A18  C$animation.c$7$0_0$135            animation
     00001A18  G$init_animation$0$0               animation
     00001A18  _init_animation                    animation
     00001A1A  A$lcc1026418$60                    animation
     00001A1C  A$lcc1026418$61                    animation
     00001A1D  A$lcc1026418$62                    animation
     00001A1E  A$lcc1026418$63                    animation
     00001A1F  A$lcc1026418$64                    animation
     00001A20  A$lcc1026418$65                    animation
     00001A21  A$lcc1026418$69                    animation
     00001A21  C$animation.c$12$1_0$135           animation
     00001A23  A$lcc1026418$70                    animation
     00001A24  A$lcc1026418$71                    animation
     00001A25  A$lcc1026418$72                    animation
     00001A26  A$lcc1026418$73                    animation
     00001A27  A$lcc1026418$74                    animation
     00001A28  A$lcc1026418$75                    animation
     00001A29  A$lcc1026418$76                    animation
     00001A2B  A$lcc1026418$77                    animation
     00001A2D  A$lcc1026418$78                    animation
     00001A2E  A$lcc1026418$79                    animation
     00001A2F  A$lcc1026418$80                    animation
     00001A30  A$lcc1026418$81                    animation
     00001A31  A$lcc1026418$82                    animation
     00001A32  A$lcc1026418$83                    animation
     00001A33  A$lcc1026418$87                    animation
     00001A33  C$animation.c$14$1_0$135           animation
     00001A34  A$lcc1026418$88                    animation
     00001A35  A$lcc1026418$89                    animation
     00001A36  A$lcc1026418$90                    animation
     00001A38  A$lcc1026418$91                    animation
     00001A39  A$lcc1026418$92                    animation
     00001A3A  A$lcc1026418$96                    animation
ASxxxx Linker V03.00/V05.40 + sdld,  page 18.
Hexadecimal  [32-Bits]

Area                                    Addr        Size        Decimal Bytes (Attributes)
--------------------------------        ----        ----        ------- ----- ------------
_CODE                               00000200    000028FB =       10491. bytes (REL,CON)

      Value  Global                              Global Defined In Module
      -----  --------------------------------   ------------------------
     00001A3A  C$animation.c$15$1_0$135           animation
     00001A3B  A$lcc1026418$97                    animation
     00001A3C  A$lcc1026418$98                    animation
     00001A3D  A$lcc1026418$99                    animation
     00001A3E  A$lcc1026418$100                   animation
     00001A3F  A$lcc1026418$101                   animation
     00001A40  A$lcc1026418$102                   animation
     00001A42  A$lcc1026418$103                   animation
     00001A43  A$lcc1026418$104                   animation
     00001A44  A$lcc1026418$105                   animation
     00001A45  A$lcc1026418$109                   animation
     00001A45  C$animation.c$16$1_0$135           animation
     00001A48  A$lcc1026418$110                   animation
     00001A49  A$lcc1026418$111                   animation
     00001A4B  A$lcc1026418$115                   animation
     00001A4B  C$animation.c$17$1_0$135           animation
     00001A4C  A$lcc1026418$116                   animation
     00001A4D  A$lcc1026418$117                   animation
     00001A4E  A$lcc1026418$118                   animation
     00001A4F  A$lcc1026418$119                   animation
     00001A51  A$lcc1026418$123                   animation
     00001A51  C$animation.c$18$1_0$135           animation
     00001A54  A$lcc1026418$124                   animation
     00001A55  A$lcc1026418$125                   animation
     00001A56  A$lcc1026418$126                   animation
     00001A58  A$lcc1026418$127                   animation
     00001A59  A$lcc1026418$128                   animation
     00001A5A  A$lcc1026418$129                   animation
     00001A5B  A$lcc1026418$133                   animation
     00001A5B  C$animation.c$21$1_0$135           animation
     00001A5C  A$lcc1026418$134                   animation
     00001A5D  A$lcc1026418$135                   animation
     00001A5E  A$lcc1026418$136                   animation
     00001A5F  A$lcc1026418$137                   animation
     00001A61  A$lcc1026418$138                   animation
     00001A62  A$lcc1026418$139                   animation
     00001A63  A$lcc1026418$140                   animation
     00001A64  A$lcc1026418$141                   animation
     00001A65  A$lcc1026418$142                   animation
     00001A68  A$lcc1026418$143                   animation
     00001A69  A$lcc1026418$144                   animation
     00001A6A  A$lcc1026418$145                   animation
     00001A6B  A$lcc1026418$146                   animation
     00001A6D  A$lcc1026418$147                   animation
     00001A6E  A$lcc1026418$148                   animation
     00001A6F  A$lcc1026418$149                   animation
     00001A70  A$lcc1026418$150                   animation
     00001A72  A$lcc1026418$151                   animation
     00001A73  A$lcc1026418$152                   animation
     00001A76  A$lcc1026418$153                   animation
     00001A77  A$lcc1026418$154                   animation
ASxxxx Linker V03.00/V05.40 + sdld,  page 19.
Hexadecimal  [32-Bits]

Area                                    Addr        Size        Decimal Bytes (Attributes)
--------------------------------        ----        ----        ------- ----- ------------
_CODE                               00000200    000028FB =       10491. bytes (REL,CON)

      Value  Global                              Global Defined In Module
      -----  --------------------------------   ------------------------
     00001A78  A$lcc1026418$155                   animation
     00001A79  A$lcc1026418$156                   animation
     00001A7A  A$lcc1026418$160                   animation
     00001A7A  C$animation.c$24$2_0$135           animation
     00001A7C  A$lcc1026418$162                   animation
     00001A7D  A$lcc1026418$163                   animation
     00001A7E  A$lcc1026418$164                   animation
     00001A7F  A$lcc1026418$165                   animation
     00001A80  A$lcc1026418$166                   animation
     00001A82  A$lcc1026418$167                   animation
     00001A83  A$lcc1026418$168                   animation
     00001A85  A$lcc1026418$173                   animation
     00001A85  C$animation.c$32$2_0$138           animation
     00001A87  A$lcc1026418$174                   animation
     00001A88  A$lcc1026418$175                   animation
     00001A89  A$lcc1026418$176                   animation
     00001A8A  A$lcc1026418$177                   animation
     00001A8D  A$lcc1026418$178                   animation
     00001A8E  A$lcc1026418$179                   animation
     00001A8F  A$lcc1026418$180                   animation
     00001A90  A$lcc1026418$181                   animation
     00001A91  A$lcc1026418$182                   animation
     00001A92  A$lcc1026418$183                   animation
     00001A94  A$lcc1026418$187                   animation
     00001A94  C$animation.c$33$2_0$138           animation
     00001A96  A$lcc1026418$188                   animation
     00001A97  A$lcc1026418$189                   animation
     00001A98  A$lcc1026418$194                   animation
     00001A98  C$animation.c$34$2_0$135           animation
     00001A9A  A$lcc1026418$195                   animation
     00001A9B  A$lcc1026418$196                   animation
     00001A9D  A$lcc1026418$197                   animation
     00001A9E  A$lcc1026418$207                   animation
     00001A9E  C$animation.c$36$2_0$140           animation
     00001A9E  G$update_animation$0$0             animation
     00001A9E  _update_animation                  animation
     00001A9F  A$lcc1026418$208                   animation
     00001AA0  A$lcc1026418$209                   animation
     00001AA1  A$lcc1026418$210                   animation
     00001AA2  A$lcc1026418$214                   animation
     00001AA2  C$animation.c$38$1_0$140           animation
     00001AA5  A$lcc1026418$215                   animation
     00001AA6  A$lcc1026418$216                   animation
     00001AA7  A$lcc1026418$217                   animation
     00001AA8  A$lcc1026418$218                   animation
     00001AA9  A$lcc1026418$219                   animation
     00001AAA  A$lcc1026418$220                   animation
     00001AAB  A$lcc1026418$221                   animation
     00001AAC  A$lcc1026418$222                   animation
     00001AAD  A$lcc1026418$223                   animation
     00001AAF  A$lcc1026418$224                   animation
ASxxxx Linker V03.00/V05.40 + sdld,  page 20.
Hexadecimal  [32-Bits]

Area                                    Addr        Size        Decimal Bytes (Attributes)
--------------------------------        ----        ----        ------- ----- ------------
_CODE                               00000200    000028FB =       10491. bytes (REL,CON)

      Value  Global                              Global Defined In Module
      -----  --------------------------------   ------------------------
     00001AB0  A$lcc1026418$225                   animation
     00001AB1  A$lcc1026418$229                   animation
     00001AB1  C$animation.c$40$1_0$140           animation
     00001AB4  A$lcc1026418$230                   animation
     00001AB5  A$lcc1026418$231                   animation
     00001AB6  A$lcc1026418$232                   animation
     00001AB7  A$lcc1026418$233                   animation
     00001AB8  A$lcc1026418$234                   animation
     00001AB9  A$lcc1026418$235                   animation
     00001ABB  A$lcc1026418$236                   animation
     00001ABC  A$lcc1026418$237                   animation
     00001ABD  A$lcc1026418$241                   animation
     00001ABD  C$animation.c$41$2_0$141           animation
     00001ABE  A$lcc1026418$242                   animation
     00001ABF  A$lcc1026418$243                   animation
     00001AC0  A$lcc1026418$244                   animation
     00001AC1  A$lcc1026418$245                   animation
     00001AC2  A$lcc1026418$246                   animation
     00001AC3  A$lcc1026418$247                   animation
     00001AC5  A$lcc1026418$248                   animation
     00001AC6  A$lcc1026418$249                   animation
     00001AC8  A$lcc1026418$250                   animation
     00001AC9  A$lcc1026418$251                   animation
     00001ACA  A$lcc1026418$252                   animation
     00001ACC  A$lcc1026418$256                   animation
     00001ACC  C$animation.c$43$3_0$142           animation
     00001ACD  A$lcc1026418$257                   animation
     00001ACE  A$lcc1026418$261                   animation
     00001ACE  C$animation.c$44$3_0$142           animation
     00001ACF  A$lcc1026418$262                   animation
     00001AD0  A$lcc1026418$263                   animation
     00001AD1  A$lcc1026418$264                   animation
     00001AD2  A$lcc1026418$265                   animation
     00001AD3  A$lcc1026418$266                   animation
     00001AD4  A$lcc1026418$270                   animation
     00001AD4  C$animation.c$45$4_0$143           animation
     00001AD5  A$lcc1026418$271                   animation
     00001AD6  A$lcc1026418$272                   animation
     00001AD7  A$lcc1026418$273                   animation
     00001AD8  A$lcc1026418$274                   animation
     00001AD9  A$lcc1026418$275                   animation
     00001ADB  A$lcc1026418$279                   animation
     00001ADB  C$animation.c$46$4_0$143           animation
     00001ADD  A$lcc1026418$284                   animation
     00001ADE  A$lcc1026418$285                   animation
     00001ADF  A$lcc1026418$290                   animation
     00001ADF  C$animation.c$48$2_0$140           animation
     00001ADF  XG$update_animation$0$0            animation
     00001AE0  A$lcc1026418$300                   animation
     00001AE0  C$animation.c$50$2_0$145           animation
     00001AE0  G$set_animation$0$0                animation
ASxxxx Linker V03.00/V05.40 + sdld,  page 21.
Hexadecimal  [32-Bits]

Area                                    Addr        Size        Decimal Bytes (Attributes)
--------------------------------        ----        ----        ------- ----- ------------
_CODE                               00000200    000028FB =       10491. bytes (REL,CON)

      Value  Global                              Global Defined In Module
      -----  --------------------------------   ------------------------
     00001AE0  _set_animation                     animation
     00001AE1  A$lcc1026418$301                   animation
     00001AE2  A$lcc1026418$302                   animation
     00001AE3  A$lcc1026418$306                   animation
     00001AE3  C$animation.c$52$2_0$146           animation
     00001AE4  A$lcc1026418$307                   animation
     00001AE6  A$lcc1026418$308                   animation
     00001AE7  A$lcc1026418$309                   animation
     00001AE8  A$lcc1026418$310                   animation
     00001AEA  A$lcc1026418$311                   animation
     00001AEB  A$lcc1026418$312                   animation
     00001AEC  A$lcc1026418$313                   animation
     00001AED  A$lcc1026418$314                   animation
     00001AEE  A$lcc1026418$321                   animation
     00001AEE  C$animation.c$53$2_0$146           animation
     00001AEE  C$animation.c$55$1_0$145           animation
     00001AEF  A$lcc1026418$322                   animation
     00001AF0  A$lcc1026418$326                   animation
     00001AF0  C$animation.c$56$1_1$147           animation
     00001AF1  A$lcc1026418$327                   animation
     00001AF2  A$lcc1026418$328                   animation
     00001AF3  A$lcc1026418$329                   animation
     00001AF4  A$lcc1026418$330                   animation
     00001AF6  A$lcc1026418$331                   animation
     00001AF7  A$lcc1026418$335                   animation
     00001AF7  C$animation.c$57$1_1$147           animation
     00001AF8  A$lcc1026418$336                   animation
     00001AF9  A$lcc1026418$337                   animation
     00001AFA  A$lcc1026418$338                   animation
     00001AFB  A$lcc1026418$339                   animation
     00001AFC  A$lcc1026418$340                   animation
     00001AFD  A$lcc1026418$344                   animation
     00001AFD  C$animation.c$58$1_1$147           animation
     00001B00  A$lcc1026418$345                   animation
     00001B01  A$lcc1026418$346                   animation
     00001B03  A$lcc1026418$354                   animation
     00001B03  C$animation.c$59$1_1$145           animation
     00001B03  XG$set_animation$0$0               animation
     00001B04  A$lcc1026420$52                    char_to_tile
     00001B04  C$char_to_tile.c$3$0_0$3           char_to_tile
     00001B04  G$char_to_tile$0$0                 char_to_tile
     00001B04  _char_to_tile                      char_to_tile
     00001B06  A$lcc1026420$53                    char_to_tile
     00001B08  A$lcc1026420$54                    char_to_tile
     00001B09  A$lcc1026420$58                    char_to_tile
     00001B09  C$char_to_tile.c$4$2_0$3           char_to_tile
     00001B0B  A$lcc1026420$59                    char_to_tile
     00001B0D  A$lcc1026420$60                    char_to_tile
     00001B0E  A$lcc1026420$61                    char_to_tile
     00001B10  A$lcc1026420$62                    char_to_tile
     00001B11  A$lcc1026420$63                    char_to_tile
ASxxxx Linker V03.00/V05.40 + sdld,  page 22.
Hexadecimal  [32-Bits]

Area                                    Addr        Size        Decimal Bytes (Attributes)
--------------------------------        ----        ----        ------- ----- ------------
_CODE                               00000200    000028FB =       10491. bytes (REL,CON)

      Value  Global                              Global Defined In Module
      -----  --------------------------------   ------------------------
     00001B13  A$lcc1026420$64                    char_to_tile
     00001B14  A$lcc1026420$65                    char_to_tile
     00001B16  A$lcc1026420$66                    char_to_tile
     00001B17  A$lcc1026420$67                    char_to_tile
     00001B19  A$lcc1026420$68                    char_to_tile
     00001B1A  A$lcc1026420$69                    char_to_tile
     00001B1C  A$lcc1026420$70                    char_to_tile
     00001B1D  A$lcc1026420$71                    char_to_tile
     00001B1F  A$lcc1026420$72                    char_to_tile
     00001B20  A$lcc1026420$73                    char_to_tile
     00001B22  A$lcc1026420$74                    char_to_tile
     00001B23  A$lcc1026420$75                    char_to_tile
     00001B25  A$lcc1026420$76                    char_to_tile
     00001B26  A$lcc1026420$77                    char_to_tile
     00001B28  A$lcc1026420$78                    char_to_tile
     00001B29  A$lcc1026420$79                    char_to_tile
     00001B2B  A$lcc1026420$80                    char_to_tile
     00001B2C  A$lcc1026420$81                    char_to_tile
     00001B2E  A$lcc1026420$82                    char_to_tile
     00001B2F  A$lcc1026420$83                    char_to_tile
     00001B31  A$lcc1026420$84                    char_to_tile
     00001B32  A$lcc1026420$85                    char_to_tile
     00001B34  A$lcc1026420$86                    char_to_tile
     00001B35  A$lcc1026420$87                    char_to_tile
     00001B37  A$lcc1026420$88                    char_to_tile
     00001B38  A$lcc1026420$89                    char_to_tile
     00001B3A  A$lcc1026420$90                    char_to_tile
     00001B3B  A$lcc1026420$91                    char_to_tile
     00001B3D  A$lcc1026420$92                    char_to_tile
     00001B3E  A$lcc1026420$93                    char_to_tile
     00001B40  A$lcc1026420$94                    char_to_tile
     00001B41  A$lcc1026420$95                    char_to_tile
     00001B43  A$lcc1026420$96                    char_to_tile
     00001B44  A$lcc1026420$97                    char_to_tile
     00001B46  A$lcc1026420$98                    char_to_tile
     00001B47  A$lcc1026420$99                    char_to_tile
     00001B49  A$lcc1026420$100                   char_to_tile
     00001B4A  A$lcc1026420$101                   char_to_tile
     00001B4C  A$lcc1026420$102                   char_to_tile
     00001B4D  A$lcc1026420$103                   char_to_tile
     00001B4F  A$lcc1026420$104                   char_to_tile
     00001B50  A$lcc1026420$105                   char_to_tile
     00001B52  A$lcc1026420$106                   char_to_tile
     00001B53  A$lcc1026420$107                   char_to_tile
     00001B55  A$lcc1026420$108                   char_to_tile
     00001B56  A$lcc1026420$109                   char_to_tile
     00001B58  A$lcc1026420$110                   char_to_tile
     00001B59  A$lcc1026420$111                   char_to_tile
     00001B5B  A$lcc1026420$112                   char_to_tile
     00001B5C  A$lcc1026420$113                   char_to_tile
     00001B5E  A$lcc1026420$114                   char_to_tile
ASxxxx Linker V03.00/V05.40 + sdld,  page 23.
Hexadecimal  [32-Bits]

Area                                    Addr        Size        Decimal Bytes (Attributes)
--------------------------------        ----        ----        ------- ----- ------------
_CODE                               00000200    000028FB =       10491. bytes (REL,CON)

      Value  Global                              Global Defined In Module
      -----  --------------------------------   ------------------------
     00001B5F  A$lcc1026420$115                   char_to_tile
     00001B61  A$lcc1026420$116                   char_to_tile
     00001B62  A$lcc1026420$117                   char_to_tile
     00001B64  A$lcc1026420$118                   char_to_tile
     00001B65  A$lcc1026420$122                   char_to_tile
     00001B65  C$char_to_tile.c$5$3_0$4           char_to_tile
     00001B66  A$lcc1026420$123                   char_to_tile
     00001B67  A$lcc1026420$124                   char_to_tile
     00001B68  A$lcc1026420$125                   char_to_tile
     00001B69  A$lcc1026420$126                   char_to_tile
     00001B6C  A$lcc1026420$128                   char_to_tile
     00001B6D  A$lcc1026420$129                   char_to_tile
     00001B6F  A$lcc1026420$130                   char_to_tile
     00001B71  A$lcc1026420$134                   char_to_tile
     00001B71  C$char_to_tile.c$6$4_0$6           char_to_tile
     00001B74  A$lcc1026420$135                   char_to_tile
     00001B75  A$lcc1026420$136                   char_to_tile
     00001B76  A$lcc1026420$137                   char_to_tile
     00001B77  A$lcc1026420$138                   char_to_tile
     00001B79  A$lcc1026420$139                   char_to_tile
     00001B7A  A$lcc1026420$140                   char_to_tile
     00001B7B  A$lcc1026420$141                   char_to_tile
     00001B7D  A$lcc1026420$145                   char_to_tile
     00001B7D  C$char_to_tile.c$7$5_0$7           char_to_tile
     00001B7F  A$lcc1026420$146                   char_to_tile
     00001B80  A$lcc1026420$147                   char_to_tile
     00001B82  A$lcc1026420$148                   char_to_tile
     00001B83  A$lcc1026420$149                   char_to_tile
     00001B85  A$lcc1026420$154                   char_to_tile
     00001B85  C$char_to_tile.c$5$2_0$4           char_to_tile
     00001B86  A$lcc1026420$155                   char_to_tile
     00001B88  A$lcc1026420$156                   char_to_tile
     00001B89  A$lcc1026420$157                   char_to_tile
     00001B8A  A$lcc1026420$158                   char_to_tile
     00001B8B  A$lcc1026420$159                   char_to_tile
     00001B8D  A$lcc1026420$164                   char_to_tile
     00001B8D  C$char_to_tile.c$11$1_0$3          char_to_tile
     00001B90  A$lcc1026420$169                   char_to_tile
     00001B92  A$lcc1026420$174                   char_to_tile
     00001B92  C$char_to_tile.c$12$1_0$3          char_to_tile
     00001B92  XG$char_to_tile$0$0                char_to_tile
     00001B93  A$lcc1026421$52                    draw
     00001B93  C$draw.c$6$0_0$136                 draw
     00001B93  G$draw_actor$0$0                   draw
     00001B93  _draw_actor                        draw
     00001B95  A$lcc1026421$53                    draw
     00001B97  A$lcc1026421$54                    draw
     00001B98  A$lcc1026421$58                    draw
     00001B98  C$draw.c$8$1_0$136                 draw
     00001B9B  A$lcc1026421$59                    draw
     00001B9C  A$lcc1026421$60                    draw
ASxxxx Linker V03.00/V05.40 + sdld,  page 24.
Hexadecimal  [32-Bits]

Area                                    Addr        Size        Decimal Bytes (Attributes)
--------------------------------        ----        ----        ------- ----- ------------
_CODE                               00000200    000028FB =       10491. bytes (REL,CON)

      Value  Global                              Global Defined In Module
      -----  --------------------------------   ------------------------
     00001B9E  A$lcc1026421$61                    draw
     00001B9F  A$lcc1026421$62                    draw
     00001BA0  A$lcc1026421$63                    draw
     00001BA1  A$lcc1026421$64                    draw
     00001BA2  A$lcc1026421$65                    draw
     00001BA4  A$lcc1026421$66                    draw
     00001BA5  A$lcc1026421$70                    draw
     00001BA5  C$draw.c$9$1_0$136                 draw
     00001BA8  A$lcc1026421$71                    draw
     00001BAA  A$lcc1026421$72                    draw
     00001BAB  A$lcc1026421$73                    draw
     00001BAD  A$lcc1026421$74                    draw
     00001BAE  A$lcc1026421$75                    draw
     00001BAF  A$lcc1026421$76                    draw
     00001BB0  A$lcc1026421$77                    draw
     00001BB1  A$lcc1026421$78                    draw
     00001BB3  A$lcc1026421$79                    draw
     00001BB4  A$lcc1026421$83                    draw
     00001BB4  C$draw.c$11$1_0$136                draw
     00001BB7  A$lcc1026421$84                    draw
     00001BB9  A$lcc1026421$85                    draw
     00001BBA  A$lcc1026421$86                    draw
     00001BBC  A$lcc1026421$87                    draw
     00001BBD  A$lcc1026421$88                    draw
     00001BBE  A$lcc1026421$89                    draw
     00001BBF  A$lcc1026421$90                    draw
     00001BC0  A$lcc1026421$91                    draw
     00001BC1  A$lcc1026421$92                    draw
     00001BC2  A$lcc1026421$93                    draw
     00001BC3  A$lcc1026421$94                    draw
     00001BC4  A$lcc1026421$95                    draw
     00001BC5  A$lcc1026421$96                    draw
     00001BC6  A$lcc1026421$97                    draw
     00001BC7  A$lcc1026421$98                    draw
     00001BC8  A$lcc1026421$102                   draw
     00001BC8  C$draw.c$12$1_0$136                draw
     00001BCB  A$lcc1026421$103                   draw
     00001BCC  A$lcc1026421$104                   draw
     00001BCD  A$lcc1026421$105                   draw
     00001BCE  A$lcc1026421$106                   draw
     00001BCF  A$lcc1026421$107                   draw
     00001BD0  A$lcc1026421$108                   draw
     00001BD1  A$lcc1026421$109                   draw
     00001BD2  A$lcc1026421$110                   draw
     00001BD3  A$lcc1026421$111                   draw
     00001BD5  A$lcc1026421$112                   draw
     00001BD6  A$lcc1026421$113                   draw
     00001BD7  A$lcc1026421$117                   draw
     00001BD7  C$draw.c$14$1_0$136                draw
     00001BDA  A$lcc1026421$118                   draw
     00001BDB  A$lcc1026421$119                   draw
ASxxxx Linker V03.00/V05.40 + sdld,  page 25.
Hexadecimal  [32-Bits]

Area                                    Addr        Size        Decimal Bytes (Attributes)
--------------------------------        ----        ----        ------- ----- ------------
_CODE                               00000200    000028FB =       10491. bytes (REL,CON)

      Value  Global                              Global Defined In Module
      -----  --------------------------------   ------------------------
     00001BDC  A$lcc1026421$120                   draw
     00001BDE  A$lcc1026421$121                   draw
     00001BDF  A$lcc1026421$125                   draw
     00001BDF  C$draw.c$15$1_0$136                draw
     00001BE0  A$lcc1026421$126                   draw
     00001BE1  A$lcc1026421$127                   draw
     00001BE2  A$lcc1026421$128                   draw
     00001BE3  A$lcc1026421$129                   draw
     00001BE4  A$lcc1026421$130                   draw
     00001BE5  A$lcc1026421$131                   draw
     00001BE8  A$lcc1026421$132                   draw
     00001BE9  A$lcc1026421$133                   draw
     00001BEA  A$lcc1026421$134                   draw
     00001BEB  A$lcc1026421$135                   draw
     00001BED  A$lcc1026421$139                   draw
     00001BED  C$draw.c$17$1_0$136                draw
     00001BEE  A$lcc1026421$140                   draw
     00001BEF  A$lcc1026421$141                   draw
     00001BF0  A$lcc1026421$142                   draw
     00001BF1  A$lcc1026421$143                   draw
     00001BF2  A$lcc1026421$147                   draw
     00001BF2  C$draw.c$18$1_0$136                draw
     00001BF4  A$lcc1026421$148                   draw
     00001BF5  A$lcc1026421$149                   draw
     00001BF6  A$lcc1026421$150                   draw
     00001BF7  A$lcc1026421$151                   draw
     00001BF8  A$lcc1026421$152                   draw
     00001BF9  A$lcc1026421$153                   draw
     00001BFA  A$lcc1026421$154                   draw
     00001BFB  A$lcc1026421$155                   draw
     00001BFC  A$lcc1026421$156                   draw
     00001BFD  A$lcc1026421$157                   draw
     00001BFE  A$lcc1026421$158                   draw
     00001BFF  A$lcc1026421$159                   draw
     00001C00  A$lcc1026421$160                   draw
     00001C01  A$lcc1026421$161                   draw
     00001C02  A$lcc1026421$165                   draw
     00001C02  C$draw.c$20$2_0$137                draw
     00001C04  A$lcc1026421$166                   draw
     00001C05  A$lcc1026421$170                   draw
     00001C05  C$draw.c$23$2_0$136                draw
     00001C08  A$lcc1026421$171                   draw
     00001C0A  A$lcc1026421$173                   draw
     00001C0B  A$lcc1026421$174                   draw
     00001C0D  A$lcc1026421$175                   draw
     00001C0E  A$lcc1026421$176                   draw
     00001C10  A$lcc1026421$178                   draw
     00001C11  A$lcc1026421$179                   draw
     00001C12  A$lcc1026421$180                   draw
     00001C13  A$lcc1026421$181                   draw
     00001C14  A$lcc1026421$182                   draw
ASxxxx Linker V03.00/V05.40 + sdld,  page 26.
Hexadecimal  [32-Bits]

Area                                    Addr        Size        Decimal Bytes (Attributes)
--------------------------------        ----        ----        ------- ----- ------------
_CODE                               00000200    000028FB =       10491. bytes (REL,CON)

      Value  Global                              Global Defined In Module
      -----  --------------------------------   ------------------------
     00001C15  A$lcc1026421$183                   draw
     00001C17  A$lcc1026421$184                   draw
     00001C1A  A$lcc1026421$185                   draw
     00001C1B  A$lcc1026421$186                   draw
     00001C1C  A$lcc1026421$187                   draw
     00001C1D  A$lcc1026421$188                   draw
     00001C1E  A$lcc1026421$190                   draw
     00001C1F  A$lcc1026421$191                   draw
     00001C20  A$lcc1026421$192                   draw
     00001C21  A$lcc1026421$193                   draw
     00001C22  A$lcc1026421$194                   draw
     00001C23  A$lcc1026421$195                   draw
     00001C24  A$lcc1026421$196                   draw
     00001C27  A$lcc1026421$197                   draw
     00001C28  A$lcc1026421$198                   draw
     00001C29  A$lcc1026421$199                   draw
     00001C2A  A$lcc1026421$200                   draw
     00001C2B  A$lcc1026421$201                   draw
     00001C2C  A$lcc1026421$205                   draw
     00001C2C  C$draw.c$23$2_0$138                draw
     00001C2D  A$lcc1026421$206                   draw
     00001C2F  A$lcc1026421$211                   draw
     00001C2F  C$draw.c$27$2_0$139                draw
     00001C31  A$lcc1026421$212                   draw
     00001C32  A$lcc1026421$213                   draw
     00001C33  A$lcc1026421$214                   draw
     00001C35  A$lcc1026421$216                   draw
     00001C37  A$lcc1026421$217                   draw
     00001C38  A$lcc1026421$219                   draw
     00001C39  A$lcc1026421$220                   draw
     00001C3A  A$lcc1026421$221                   draw
     00001C3B  A$lcc1026421$222                   draw
     00001C3C  A$lcc1026421$223                   draw
     00001C3D  A$lcc1026421$224                   draw
     00001C40  A$lcc1026421$225                   draw
     00001C41  A$lcc1026421$226                   draw
     00001C42  A$lcc1026421$227                   draw
     00001C43  A$lcc1026421$229                   draw
     00001C45  A$lcc1026421$230                   draw
     00001C46  A$lcc1026421$231                   draw
     00001C47  A$lcc1026421$232                   draw
     00001C48  A$lcc1026421$233                   draw
     00001C49  A$lcc1026421$234                   draw
     00001C4A  A$lcc1026421$238                   draw
     00001C4A  C$draw.c$29$2_0$139                draw
     00001C4D  A$lcc1026421$243                   draw
     00001C4D  C$draw.c$31$3_0$141                draw
     00001C4F  A$lcc1026421$244                   draw
     00001C50  A$lcc1026421$245                   draw
     00001C52  A$lcc1026421$246                   draw
     00001C54  A$lcc1026421$250                   draw
ASxxxx Linker V03.00/V05.40 + sdld,  page 27.
Hexadecimal  [32-Bits]

Area                                    Addr        Size        Decimal Bytes (Attributes)
--------------------------------        ----        ----        ------- ----- ------------
_CODE                               00000200    000028FB =       10491. bytes (REL,CON)

      Value  Global                              Global Defined In Module
      -----  --------------------------------   ------------------------
     00001C57  A$lcc1026421$251                   draw
     00001C59  A$lcc1026421$252                   draw
     00001C5A  A$lcc1026421$253                   draw
     00001C5C  A$lcc1026421$254                   draw
     00001C5D  A$lcc1026421$255                   draw
     00001C5E  A$lcc1026421$256                   draw
     00001C5F  A$lcc1026421$257                   draw
     00001C60  A$lcc1026421$258                   draw
     00001C61  A$lcc1026421$262                   draw
     00001C61  C$draw.c$29$2_0$136                draw
     00001C63  A$lcc1026421$263                   draw
     00001C64  A$lcc1026421$267                   draw
     00001C64  C$draw.c$33$5_0$143                draw
     00001C66  A$lcc1026421$268                   draw
     00001C68  A$lcc1026421$271                   draw
     00001C69  A$lcc1026421$272                   draw
     00001C6A  A$lcc1026421$273                   draw
     00001C6B  A$lcc1026421$274                   draw
     00001C6C  A$lcc1026421$275                   draw
     00001C6D  A$lcc1026421$276                   draw
     00001C70  A$lcc1026421$277                   draw
     00001C71  A$lcc1026421$278                   draw
     00001C72  A$lcc1026421$279                   draw
     00001C73  A$lcc1026421$281                   draw
     00001C75  A$lcc1026421$282                   draw
     00001C76  A$lcc1026421$283                   draw
     00001C77  A$lcc1026421$284                   draw
     00001C78  A$lcc1026421$286                   draw
     00001C79  A$lcc1026421$287                   draw
     00001C7A  A$lcc1026421$288                   draw
     00001C7B  A$lcc1026421$289                   draw
     00001C7D  A$lcc1026421$290                   draw
     00001C7E  A$lcc1026421$291                   draw
     00001C80  A$lcc1026421$293                   draw
     00001C81  A$lcc1026421$294                   draw
     00001C84  A$lcc1026421$295                   draw
     00001C85  A$lcc1026421$296                   draw
     00001C86  A$lcc1026421$297                   draw
     00001C87  A$lcc1026421$298                   draw
     00001C88  A$lcc1026421$299                   draw
     00001C89  A$lcc1026421$300                   draw
     00001C8A  A$lcc1026421$301                   draw
     00001C8B  A$lcc1026421$303                   draw
     00001C8C  A$lcc1026421$304                   draw
     00001C8D  A$lcc1026421$305                   draw
     00001C8E  A$lcc1026421$306                   draw
     00001C90  A$lcc1026421$307                   draw
     00001C91  A$lcc1026421$308                   draw
     00001C92  A$lcc1026421$312                   draw
     00001C92  C$draw.c$36$5_0$143                draw
     00001C95  A$lcc1026421$316                   draw
ASxxxx Linker V03.00/V05.40 + sdld,  page 28.
Hexadecimal  [32-Bits]

Area                                    Addr        Size        Decimal Bytes (Attributes)
--------------------------------        ----        ----        ------- ----- ------------
_CODE                               00000200    000028FB =       10491. bytes (REL,CON)

      Value  Global                              Global Defined In Module
      -----  --------------------------------   ------------------------
     00001C96  A$lcc1026421$317                   draw
     00001C97  A$lcc1026421$318                   draw
     00001C98  A$lcc1026421$319                   draw
     00001C99  A$lcc1026421$320                   draw
     00001C9A  A$lcc1026421$321                   draw
     00001C9D  A$lcc1026421$322                   draw
     00001C9E  A$lcc1026421$323                   draw
     00001C9F  A$lcc1026421$324                   draw
     00001CA0  A$lcc1026421$326                   draw
     00001CA2  A$lcc1026421$327                   draw
     00001CA3  A$lcc1026421$328                   draw
     00001CA4  A$lcc1026421$329                   draw
     00001CA5  A$lcc1026421$330                   draw
     00001CA6  A$lcc1026421$331                   draw
     00001CA7  A$lcc1026421$333                   draw
     00001CA8  A$lcc1026421$334                   draw
     00001CAA  A$lcc1026421$335                   draw
     00001CAB  A$lcc1026421$336                   draw
     00001CAD  A$lcc1026421$338                   draw
     00001CAE  A$lcc1026421$339                   draw
     00001CAF  A$lcc1026421$340                   draw
     00001CB0  A$lcc1026421$341                   draw
     00001CB1  A$lcc1026421$342                   draw
     00001CB2  A$lcc1026421$343                   draw
     00001CB5  A$lcc1026421$344                   draw
     00001CB6  A$lcc1026421$346                   draw
     00001CB7  A$lcc1026421$347                   draw
     00001CB9  A$lcc1026421$348                   draw
     00001CBA  A$lcc1026421$349                   draw
     00001CBB  A$lcc1026421$350                   draw
     00001CBC  A$lcc1026421$351                   draw
     00001CBD  A$lcc1026421$355                   draw
     00001CBD  C$draw.c$41$3_0$141                draw
     00001CBF  A$lcc1026421$360                   draw
     00001CBF  C$draw.c$44$4_0$146                draw
     00001CC1  A$lcc1026421$361                   draw
     00001CC2  A$lcc1026421$362                   draw
     00001CC4  A$lcc1026421$363                   draw
     00001CC6  A$lcc1026421$365                   draw
     00001CC8  A$lcc1026421$366                   draw
     00001CC9  A$lcc1026421$368                   draw
     00001CCA  A$lcc1026421$369                   draw
     00001CCB  A$lcc1026421$370                   draw
     00001CCC  A$lcc1026421$371                   draw
     00001CCD  A$lcc1026421$372                   draw
     00001CCE  A$lcc1026421$373                   draw
     00001CD1  A$lcc1026421$374                   draw
     00001CD2  A$lcc1026421$375                   draw
     00001CD3  A$lcc1026421$376                   draw
     00001CD4  A$lcc1026421$378                   draw
     00001CD6  A$lcc1026421$379                   draw
ASxxxx Linker V03.00/V05.40 + sdld,  page 29.
Hexadecimal  [32-Bits]

Area                                    Addr        Size        Decimal Bytes (Attributes)
--------------------------------        ----        ----        ------- ----- ------------
_CODE                               00000200    000028FB =       10491. bytes (REL,CON)

      Value  Global                              Global Defined In Module
      -----  --------------------------------   ------------------------
     00001CD7  A$lcc1026421$380                   draw
     00001CD8  A$lcc1026421$381                   draw
     00001CD9  A$lcc1026421$382                   draw
     00001CDA  A$lcc1026421$383                   draw
     00001CDB  A$lcc1026421$385                   draw
     00001CDC  A$lcc1026421$386                   draw
     00001CDE  A$lcc1026421$387                   draw
     00001CE0  A$lcc1026421$388                   draw
     00001CE1  A$lcc1026421$389                   draw
     00001CE2  A$lcc1026421$390                   draw
     00001CE4  A$lcc1026421$392                   draw
     00001CE5  A$lcc1026421$393                   draw
     00001CE6  A$lcc1026421$394                   draw
     00001CE7  A$lcc1026421$395                   draw
     00001CE8  A$lcc1026421$396                   draw
     00001CE9  A$lcc1026421$397                   draw
     00001CEC  A$lcc1026421$398                   draw
     00001CED  A$lcc1026421$400                   draw
     00001CEE  A$lcc1026421$401                   draw
     00001CF0  A$lcc1026421$402                   draw
     00001CF1  A$lcc1026421$403                   draw
     00001CF2  A$lcc1026421$404                   draw
     00001CF3  A$lcc1026421$405                   draw
     00001CF4  A$lcc1026421$407                   draw
     00001CF6  A$lcc1026421$408                   draw
     00001CF7  A$lcc1026421$409                   draw
     00001CF9  A$lcc1026421$410                   draw
     00001CFA  A$lcc1026421$411                   draw
     00001CFB  A$lcc1026421$412                   draw
     00001CFD  A$lcc1026421$414                   draw
     00001CFE  A$lcc1026421$415                   draw
     00001CFF  A$lcc1026421$416                   draw
     00001D00  A$lcc1026421$417                   draw
     00001D01  A$lcc1026421$418                   draw
     00001D02  A$lcc1026421$419                   draw
     00001D05  A$lcc1026421$420                   draw
     00001D06  A$lcc1026421$421                   draw
     00001D07  A$lcc1026421$422                   draw
     00001D08  A$lcc1026421$424                   draw
     00001D0A  A$lcc1026421$425                   draw
     00001D0B  A$lcc1026421$426                   draw
     00001D0C  A$lcc1026421$427                   draw
     00001D0D  A$lcc1026421$428                   draw
     00001D0E  A$lcc1026421$430                   draw
     00001D0F  A$lcc1026421$431                   draw
     00001D10  A$lcc1026421$433                   draw
     00001D11  A$lcc1026421$434                   draw
     00001D14  A$lcc1026421$435                   draw
     00001D15  A$lcc1026421$436                   draw
     00001D16  A$lcc1026421$437                   draw
     00001D17  A$lcc1026421$438                   draw
ASxxxx Linker V03.00/V05.40 + sdld,  page 30.
Hexadecimal  [32-Bits]

Area                                    Addr        Size        Decimal Bytes (Attributes)
--------------------------------        ----        ----        ------- ----- ------------
_CODE                               00000200    000028FB =       10491. bytes (REL,CON)

      Value  Global                              Global Defined In Module
      -----  --------------------------------   ------------------------
     00001D18  A$lcc1026421$439                   draw
     00001D19  A$lcc1026421$440                   draw
     00001D1A  A$lcc1026421$441                   draw
     00001D1B  A$lcc1026421$443                   draw
     00001D1C  A$lcc1026421$444                   draw
     00001D1D  A$lcc1026421$445                   draw
     00001D1E  A$lcc1026421$446                   draw
     00001D20  A$lcc1026421$447                   draw
     00001D21  A$lcc1026421$448                   draw
     00001D22  A$lcc1026421$456                   draw
     00001D22  C$draw.c$49$2_0$136                draw
     00001D24  A$lcc1026421$461                   draw
     00001D24  C$draw.c$51$2_0$136                draw
     00001D24  XG$draw_actor$0$0                  draw
     00001D25  A$lcc1026422$60                    entity
     00001D25  C$entity.c$7$0_0$3                 entity
     00001D25  C$entity.c$9$2_0$4                 entity
     00001D25  G$create_entity$0$0                entity
     00001D25  _create_entity                     entity
     00001D28  A$lcc1026422$61                    entity
     00001D2A  A$lcc1026422$62                    entity
     00001D2C  A$lcc1026422$66                    entity
     00001D2C  C$entity.c$10$3_0$5                entity
     00001D2D  A$lcc1026422$67                    entity
     00001D2E  A$lcc1026422$72                    entity
     00001D2E  C$entity.c$13$1_0$3                entity
     00001D31  A$lcc1026422$73                    entity
     00001D32  A$lcc1026422$74                    entity
     00001D35  A$lcc1026422$75                    entity
     00001D36  A$lcc1026422$76                    entity
     00001D37  A$lcc1026422$84                    entity
     00001D37  C$entity.c$14$1_0$3                entity
     00001D37  XG$create_entity$0$0               entity
     00001D38  A$lcc1026422$97                    entity
     00001D38  C$entity.c$16$1_0$6                entity
     00001D38  C$entity.c$18$1_0$6                entity
     00001D38  G$reset_entities$0$0               entity
     00001D38  _reset_entities                    entity
     00001D3B  A$lcc1026422$98                    entity
     00001D3D  A$lcc1026422$106                   entity
     00001D3D  C$entity.c$19$1_0$6                entity
     00001D3D  XG$reset_entities$0$0              entity
     00001D3E  A$lcc1026424$56                    global_action
     00001D3E  C$global_action.c$3$0_0$142        global_action
     00001D3E  C$global_action.c$5$1_0$142        global_action
     00001D3E  G$check_global_input$0$0           global_action
     00001D3E  _check_global_input                global_action
     00001D41  A$lcc1026424$60                    global_action
     00001D41  C$global_action.c$8$1_0$142        global_action
     00001D44  A$lcc1026424$68                    global_action
     00001D44  C$global_action.c$9$1_0$142        global_action
ASxxxx Linker V03.00/V05.40 + sdld,  page 31.
Hexadecimal  [32-Bits]

Area                                    Addr        Size        Decimal Bytes (Attributes)
--------------------------------        ----        ----        ------- ----- ------------
_CODE                               00000200    000028FB =       10491. bytes (REL,CON)

      Value  Global                              Global Defined In Module
      -----  --------------------------------   ------------------------
     00001D44  XG$check_global_input$0$0          global_action
     00001D45  A$lcc1026425$58                    inventory
     00001D45  C$inventory.c$9$0_0$136            inventory
     00001D45  G$init_arrow$0$0                   inventory
     00001D45  _init_arrow                        inventory
     00001D46  A$lcc1026425$59                    inventory
     00001D47  A$lcc1026425$63                    inventory
     00001D47  C$inventory.c$11$1_0$136           inventory
     00001D4A  A$lcc1026425$64                    inventory
     00001D4D  A$lcc1026425$65                    inventory
     00001D4E  A$lcc1026425$69                    inventory
     00001D4E  C$inventory.c$13$1_0$136           inventory
     00001D4F  A$lcc1026425$70                    inventory
     00001D51  A$lcc1026425$71                    inventory
     00001D54  A$lcc1026425$72                    inventory
     00001D55  A$lcc1026425$73                    inventory
     00001D57  A$lcc1026425$77                    inventory
     00001D57  C$inventory.c$14$1_0$136           inventory
     00001D5A  A$lcc1026425$78                    inventory
     00001D5D  A$lcc1026425$79                    inventory
     00001D5E  A$lcc1026425$80                    inventory
     00001D60  A$lcc1026425$81                    inventory
     00001D61  A$lcc1026425$82                    inventory
     00001D63  A$lcc1026425$86                    inventory
     00001D63  C$inventory.c$16$1_0$136           inventory
     00001D66  A$lcc1026425$87                    inventory
     00001D69  A$lcc1026425$88                    inventory
     00001D6A  A$lcc1026425$89                    inventory
     00001D6B  A$lcc1026425$90                    inventory
     00001D6D  A$lcc1026425$91                    inventory
     00001D6E  A$lcc1026425$92                    inventory
     00001D71  A$lcc1026425$93                    inventory
     00001D73  A$lcc1026425$94                    inventory
     00001D74  A$lcc1026425$95                    inventory
     00001D76  A$lcc1026425$96                    inventory
     00001D78  A$lcc1026425$97                    inventory
     00001D79  A$lcc1026425$98                    inventory
     00001D7A  A$lcc1026425$99                    inventory
     00001D7B  A$lcc1026425$100                   inventory
     00001D7C  A$lcc1026425$101                   inventory
     00001D7D  A$lcc1026425$102                   inventory
     00001D7E  A$lcc1026425$106                   inventory
     00001D7E  C$inventory.c$17$1_0$136           inventory
     00001D81  A$lcc1026425$107                   inventory
     00001D82  A$lcc1026425$108                   inventory
     00001D83  A$lcc1026425$109                   inventory
     00001D85  A$lcc1026425$110                   inventory
     00001D86  A$lcc1026425$111                   inventory
     00001D88  A$lcc1026425$112                   inventory
     00001D8A  A$lcc1026425$113                   inventory
     00001D8B  A$lcc1026425$114                   inventory
ASxxxx Linker V03.00/V05.40 + sdld,  page 32.
Hexadecimal  [32-Bits]

Area                                    Addr        Size        Decimal Bytes (Attributes)
--------------------------------        ----        ----        ------- ----- ------------
_CODE                               00000200    000028FB =       10491. bytes (REL,CON)

      Value  Global                              Global Defined In Module
      -----  --------------------------------   ------------------------
     00001D8C  A$lcc1026425$115                   inventory
     00001D8E  A$lcc1026425$116                   inventory
     00001D8F  A$lcc1026425$117                   inventory
     00001D90  A$lcc1026425$118                   inventory
     00001D91  A$lcc1026425$119                   inventory
     00001D92  A$lcc1026425$120                   inventory
     00001D93  A$lcc1026425$121                   inventory
     00001D94  A$lcc1026425$122                   inventory
     00001D95  A$lcc1026425$126                   inventory
     00001D95  C$inventory.c$19$1_0$136           inventory
     00001D98  A$lcc1026425$127                   inventory
     00001D99  A$lcc1026425$128                   inventory
     00001D9B  A$lcc1026425$129                   inventory
     00001D9E  A$lcc1026425$130                   inventory
     00001D9F  A$lcc1026425$131                   inventory
     00001DA1  A$lcc1026425$135                   inventory
     00001DA1  C$inventory.c$20$1_0$136           inventory
     00001DA4  A$lcc1026425$136                   inventory
     00001DA7  A$lcc1026425$137                   inventory
     00001DA8  A$lcc1026425$138                   inventory
     00001DAA  A$lcc1026425$139                   inventory
     00001DAB  A$lcc1026425$140                   inventory
     00001DAD  A$lcc1026425$144                   inventory
     00001DAD  C$inventory.c$21$1_0$136           inventory
     00001DB0  A$lcc1026425$145                   inventory
     00001DB3  A$lcc1026425$146                   inventory
     00001DB4  A$lcc1026425$147                   inventory
     00001DB6  A$lcc1026425$148                   inventory
     00001DB7  A$lcc1026425$149                   inventory
     00001DB9  A$lcc1026425$153                   inventory
     00001DB9  C$inventory.c$23$2_0$137           inventory
     00001DBB  A$lcc1026425$154                   inventory
     00001DBD  A$lcc1026425$155                   inventory
     00001DBE  A$lcc1026425$156                   inventory
     00001DC0  A$lcc1026425$160                   inventory
     00001DC0  C$inventory.c$25$1_1$137           inventory
     00001DC3  A$lcc1026425$161                   inventory
     00001DC4  A$lcc1026425$162                   inventory
     00001DC6  A$lcc1026425$163                   inventory
     00001DC7  A$lcc1026425$164                   inventory
     00001DC8  A$lcc1026425$165                   inventory
     00001DC9  A$lcc1026425$166                   inventory
     00001DCA  A$lcc1026425$167                   inventory
     00001DCB  A$lcc1026425$168                   inventory
     00001DCC  A$lcc1026425$169                   inventory
     00001DCD  A$lcc1026425$170                   inventory
     00001DCE  A$lcc1026425$171                   inventory
     00001DCF  A$lcc1026425$172                   inventory
     00001DD2  A$lcc1026425$173                   inventory
     00001DD3  A$lcc1026425$174                   inventory
     00001DD4  A$lcc1026425$175                   inventory
ASxxxx Linker V03.00/V05.40 + sdld,  page 33.
Hexadecimal  [32-Bits]

Area                                    Addr        Size        Decimal Bytes (Attributes)
--------------------------------        ----        ----        ------- ----- ------------
_CODE                               00000200    000028FB =       10491. bytes (REL,CON)

      Value  Global                              Global Defined In Module
      -----  --------------------------------   ------------------------
     00001DD5  A$lcc1026425$176                   inventory
     00001DD8  A$lcc1026425$177                   inventory
     00001DD9  A$lcc1026425$178                   inventory
     00001DDB  A$lcc1026425$179                   inventory
     00001DDC  A$lcc1026425$180                   inventory
     00001DDD  A$lcc1026425$181                   inventory
     00001DE0  A$lcc1026425$182                   inventory
     00001DE1  A$lcc1026425$183                   inventory
     00001DE2  A$lcc1026425$184                   inventory
     00001DE3  A$lcc1026425$185                   inventory
     00001DE4  A$lcc1026425$186                   inventory
     00001DE5  A$lcc1026425$187                   inventory
     00001DE6  A$lcc1026425$188                   inventory
     00001DE9  A$lcc1026425$192                   inventory
     00001DEC  A$lcc1026425$193                   inventory
     00001DED  A$lcc1026425$198                   inventory
     00001DED  C$inventory.c$26$1_1$136           inventory
     00001DED  XG$init_arrow$0$0                  inventory
     00001DEE  A$lcc1026426$66                    inventory_input
     00001DEE  C$inventory_input.c$18$0_0$144     inventory_input
     00001DEE  C$inventory_input.c$20$1_0$144     inventory_input
     00001DEE  G$inventory_input$0$0              inventory_input
     00001DEE  _inventory_input                   inventory_input
     00001DF1  A$lcc1026426$67                    inventory_input
     00001DF2  A$lcc1026426$71                    inventory_input
     00001DF2  C$inventory_input.c$22$2_0$145     inventory_input
     00001DF4  A$lcc1026426$72                    inventory_input
     00001DF6  A$lcc1026426$73                    inventory_input
     00001DF9  A$lcc1026426$74                    inventory_input
     00001DFB  A$lcc1026426$75                    inventory_input
     00001DFD  A$lcc1026426$79                    inventory_input
     00001DFD  C$inventory_input.c$24$3_0$146     inventory_input
     00001E00  A$lcc1026426$80                    inventory_input
     00001E03  A$lcc1026426$81                    inventory_input
     00001E04  A$lcc1026426$82                    inventory_input
     00001E05  A$lcc1026426$83                    inventory_input
     00001E06  A$lcc1026426$84                    inventory_input
     00001E07  A$lcc1026426$85                    inventory_input
     00001E08  A$lcc1026426$86                    inventory_input
     00001E09  A$lcc1026426$87                    inventory_input
     00001E0A  A$lcc1026426$88                    inventory_input
     00001E0D  A$lcc1026426$89                    inventory_input
     00001E0F  A$lcc1026426$90                    inventory_input
     00001E10  A$lcc1026426$91                    inventory_input
     00001E11  A$lcc1026426$92                    inventory_input
     00001E13  A$lcc1026426$93                    inventory_input
     00001E16  A$lcc1026426$94                    inventory_input
     00001E17  A$lcc1026426$95                    inventory_input
     00001E18  A$lcc1026426$96                    inventory_input
     00001E19  A$lcc1026426$98                    inventory_input
     00001E1A  A$lcc1026426$103                   inventory_input
ASxxxx Linker V03.00/V05.40 + sdld,  page 34.
Hexadecimal  [32-Bits]

Area                                    Addr        Size        Decimal Bytes (Attributes)
--------------------------------        ----        ----        ------- ----- ------------
_CODE                               00000200    000028FB =       10491. bytes (REL,CON)

      Value  Global                              Global Defined In Module
      -----  --------------------------------   ------------------------
     00001E1A  C$inventory_input.c$27$1_1$147     inventory_input
     00001E1D  A$lcc1026426$104                   inventory_input
     00001E1E  A$lcc1026426$105                   inventory_input
     00001E21  A$lcc1026426$106                   inventory_input
     00001E23  A$lcc1026426$107                   inventory_input
     00001E24  A$lcc1026426$108                   inventory_input
     00001E25  A$lcc1026426$112                   inventory_input
     00001E25  C$inventory_input.c$28$1_1$147     inventory_input
     00001E28  A$lcc1026426$113                   inventory_input
     00001E2A  A$lcc1026426$114                   inventory_input
     00001E2B  A$lcc1026426$115                   inventory_input
     00001E2C  A$lcc1026426$119                   inventory_input
     00001E2C  C$inventory_input.c$22$1_1$144     inventory_input
     00001E2F  A$lcc1026426$123                   inventory_input
     00001E2F  C$inventory_input.c$30$2_1$148     inventory_input
     00001E31  A$lcc1026426$124                   inventory_input
     00001E33  A$lcc1026426$125                   inventory_input
     00001E35  A$lcc1026426$126                   inventory_input
     00001E37  A$lcc1026426$130                   inventory_input
     00001E37  C$inventory_input.c$32$3_1$149     inventory_input
     00001E38  A$lcc1026426$131                   inventory_input
     00001E3A  A$lcc1026426$132                   inventory_input
     00001E3B  A$lcc1026426$133                   inventory_input
     00001E3D  A$lcc1026426$138                   inventory_input
     00001E3D  C$inventory_input.c$34$3_1$150     inventory_input
     00001E3F  A$lcc1026426$139                   inventory_input
     00001E41  A$lcc1026426$140                   inventory_input
     00001E43  A$lcc1026426$141                   inventory_input
     00001E45  A$lcc1026426$145                   inventory_input
     00001E45  C$inventory_input.c$36$4_1$151     inventory_input
     00001E46  A$lcc1026426$146                   inventory_input
     00001E48  A$lcc1026426$147                   inventory_input
     00001E49  A$lcc1026426$148                   inventory_input
     00001E4B  A$lcc1026426$153                   inventory_input
     00001E4B  C$inventory_input.c$38$4_1$152     inventory_input
     00001E4D  A$lcc1026426$154                   inventory_input
     00001E4F  A$lcc1026426$155                   inventory_input
     00001E51  A$lcc1026426$156                   inventory_input
     00001E53  A$lcc1026426$160                   inventory_input
     00001E53  C$inventory_input.c$40$5_1$153     inventory_input
     00001E54  A$lcc1026426$161                   inventory_input
     00001E56  A$lcc1026426$162                   inventory_input
     00001E57  A$lcc1026426$163                   inventory_input
     00001E59  A$lcc1026426$168                   inventory_input
     00001E59  C$inventory_input.c$42$5_1$154     inventory_input
     00001E5B  A$lcc1026426$169                   inventory_input
     00001E5D  A$lcc1026426$170                   inventory_input
     00001E5F  A$lcc1026426$171                   inventory_input
     00001E61  A$lcc1026426$175                   inventory_input
     00001E61  C$inventory_input.c$44$6_1$155     inventory_input
     00001E62  A$lcc1026426$176                   inventory_input
ASxxxx Linker V03.00/V05.40 + sdld,  page 35.
Hexadecimal  [32-Bits]

Area                                    Addr        Size        Decimal Bytes (Attributes)
--------------------------------        ----        ----        ------- ----- ------------
_CODE                               00000200    000028FB =       10491. bytes (REL,CON)

      Value  Global                              Global Defined In Module
      -----  --------------------------------   ------------------------
     00001E64  A$lcc1026426$177                   inventory_input
     00001E65  A$lcc1026426$182                   inventory_input
     00001E65  C$inventory_input.c$47$2_1$156     inventory_input
     00001E67  A$lcc1026426$183                   inventory_input
     00001E68  A$lcc1026426$184                   inventory_input
     00001E6A  A$lcc1026426$188                   inventory_input
     00001E6A  C$inventory_input.c$48$2_1$156     inventory_input
     00001E6C  A$lcc1026426$193                   inventory_input
     00001E6C  C$inventory_input.c$49$2_1$157     inventory_input
     00001E6D  A$lcc1026426$194                   inventory_input
     00001E6F  A$lcc1026426$195                   inventory_input
     00001E71  A$lcc1026426$199                   inventory_input
     00001E71  C$inventory_input.c$50$2_1$157     inventory_input
     00001E73  A$lcc1026426$204                   inventory_input
     00001E73  C$inventory_input.c$52$2_1$158     inventory_input
     00001E75  A$lcc1026426$205                   inventory_input
     00001E76  A$lcc1026426$206                   inventory_input
     00001E78  A$lcc1026426$210                   inventory_input
     00001E78  C$inventory_input.c$53$2_1$158     inventory_input
     00001E7A  A$lcc1026426$215                   inventory_input
     00001E7A  C$inventory_input.c$54$2_1$159     inventory_input
     00001E7B  A$lcc1026426$216                   inventory_input
     00001E7D  A$lcc1026426$217                   inventory_input
     00001E7F  A$lcc1026426$221                   inventory_input
     00001E7F  C$inventory_input.c$55$2_1$159     inventory_input
     00001E81  A$lcc1026426$226                   inventory_input
     00001E81  C$inventory_input.c$57$1_1$147     inventory_input
     00001E82  A$lcc1026426$230                   inventory_input
     00001E82  C$inventory_input.c$58$1_1$147     inventory_input
     00001E85  A$lcc1026426$231                   inventory_input
     00001E86  A$lcc1026426$232                   inventory_input
     00001E88  A$lcc1026426$233                   inventory_input
     00001E8B  A$lcc1026426$234                   inventory_input
     00001E8C  A$lcc1026426$235                   inventory_input
     00001E8D  A$lcc1026426$239                   inventory_input
     00001E8D  C$inventory_input.c$60$1_1$147     inventory_input
     00001E90  A$lcc1026426$240                   inventory_input
     00001E91  A$lcc1026426$248                   inventory_input
     00001E91  C$inventory_input.c$61$1_1$144     inventory_input
     00001E91  XG$inventory_input$0$0             inventory_input
     00001E92  G$top_limit$0_0$0                  inventory_input
     00001E92  _top_limit                         inventory_input
     00001E93  G$bottom_limit$0_0$0               inventory_input
     00001E93  _bottom_limit                      inventory_input
     00001E94  G$left_limit$0_0$0                 inventory_input
     00001E94  _left_limit                        inventory_input
     00001E95  G$right_limit$0_0$0                inventory_input
     00001E95  _right_limit                       inventory_input
     00001E96  G$VERTICAL_MOVEMENT$0_0$0          inventory_input
     00001E96  _VERTICAL_MOVEMENT                 inventory_input
     00001E97  G$HORIZONTAL_MOVEMENT$0_0$0        inventory_input
ASxxxx Linker V03.00/V05.40 + sdld,  page 36.
Hexadecimal  [32-Bits]

Area                                    Addr        Size        Decimal Bytes (Attributes)
--------------------------------        ----        ----        ------- ----- ------------
_CODE                               00000200    000028FB =       10491. bytes (REL,CON)

      Value  Global                              Global Defined In Module
      -----  --------------------------------   ------------------------
     00001E97  _HORIZONTAL_MOVEMENT               inventory_input
     00001E98  A$lcc1026427$58                    load
     00001E98  C$load.c$8$0_0$132                 load
     00001E98  G$load_actor_tiles$0$0             load
     00001E98  _load_actor_tiles                  load
     00001E9A  A$lcc1026427$59                    load
     00001E9C  A$lcc1026427$60                    load
     00001E9D  A$lcc1026427$61                    load
     00001E9E  A$lcc1026427$62                    load
     00001E9F  A$lcc1026427$63                    load
     00001EA0  A$lcc1026427$64                    load
     00001EA1  A$lcc1026427$68                    load
     00001EA1  C$load.c$9$2_0$132                 load
     00001EA4  A$lcc1026427$69                    load
     00001EA5  A$lcc1026427$73                    load
     00001EA5  C$load.c$12$1_0$132                load
     00001EA7  A$lcc1026427$75                    load
     00001EA8  A$lcc1026427$76                    load
     00001EAA  A$lcc1026427$77                    load
     00001EAB  A$lcc1026427$78                    load
     00001EAD  A$lcc1026427$82                    load
     00001EAD  C$load.c$13$3_0$134                load
     00001EAE  A$lcc1026427$83                    load
     00001EB0  A$lcc1026427$84                    load
     00001EB1  A$lcc1026427$85                    load
     00001EB2  A$lcc1026427$86                    load
     00001EB3  A$lcc1026427$87                    load
     00001EB5  A$lcc1026427$88                    load
     00001EB6  A$lcc1026427$89                    load
     00001EB7  A$lcc1026427$90                    load
     00001EB8  A$lcc1026427$91                    load
     00001EB9  A$lcc1026427$92                    load
     00001EBA  A$lcc1026427$93                    load
     00001EBB  A$lcc1026427$94                    load
     00001EBC  A$lcc1026427$95                    load
     00001EBD  A$lcc1026427$96                    load
     00001EBE  A$lcc1026427$97                    load
     00001EBF  A$lcc1026427$98                    load
     00001EC0  A$lcc1026427$99                    load
     00001EC1  A$lcc1026427$100                   load
     00001EC2  A$lcc1026427$101                   load
     00001EC3  A$lcc1026427$102                   load
     00001EC4  A$lcc1026427$103                   load
     00001EC5  A$lcc1026427$104                   load
     00001EC6  A$lcc1026427$105                   load
     00001EC8  A$lcc1026427$106                   load
     00001EC9  A$lcc1026427$107                   load
     00001ECA  A$lcc1026427$108                   load
     00001ECB  A$lcc1026427$109                   load
     00001ECC  A$lcc1026427$110                   load
     00001ECF  A$lcc1026427$111                   load
ASxxxx Linker V03.00/V05.40 + sdld,  page 37.
Hexadecimal  [32-Bits]

Area                                    Addr        Size        Decimal Bytes (Attributes)
--------------------------------        ----        ----        ------- ----- ------------
_CODE                               00000200    000028FB =       10491. bytes (REL,CON)

      Value  Global                              Global Defined In Module
      -----  --------------------------------   ------------------------
     00001ED1  A$lcc1026427$115                   load
     00001ED1  C$load.c$12$2_0$133                load
     00001ED2  A$lcc1026427$116                   load
     00001ED4  A$lcc1026427$121                   load
     00001ED4  C$load.c$17$1_0$132                load
     00001ED7  A$lcc1026427$122                   load
     00001ED9  A$lcc1026427$123                   load
     00001EDA  A$lcc1026427$124                   load
     00001EDC  A$lcc1026427$125                   load
     00001EDD  A$lcc1026427$126                   load
     00001EDE  A$lcc1026427$127                   load
     00001EDF  A$lcc1026427$128                   load
     00001EE0  A$lcc1026427$129                   load
     00001EE1  A$lcc1026427$133                   load
     00001EE1  C$load.c$18$1_0$132                load
     00001EE4  A$lcc1026427$134                   load
     00001EE6  A$lcc1026427$135                   load
     00001EE7  A$lcc1026427$136                   load
     00001EE9  A$lcc1026427$137                   load
     00001EEA  A$lcc1026427$138                   load
     00001EEB  A$lcc1026427$139                   load
     00001EEC  A$lcc1026427$140                   load
     00001EEE  A$lcc1026427$141                   load
     00001EEF  A$lcc1026427$142                   load
     00001EF0  A$lcc1026427$146                   load
     00001EF0  C$load.c$21$1_0$132                load
     00001EF3  A$lcc1026427$147                   load
     00001EF5  A$lcc1026427$148                   load
     00001EF6  A$lcc1026427$149                   load
     00001EF9  A$lcc1026427$153                   load
     00001EF9  C$load.c$23$1_0$132                load
     00001EFA  A$lcc1026427$157                   load
     00001EFA  C$load.c$24$1_0$132                load
     00001EFC  A$lcc1026427$158                   load
     00001EFD  A$lcc1026427$159                   load
     00001EFE  A$lcc1026427$160                   load
     00001EFF  A$lcc1026427$173                   load
     00001EFF  C$load.c$26$1_0$136                load
     00001EFF  C$load.c$27$3_0$138                load
     00001EFF  G$reset_render_component$0$0       load
     00001EFF  _reset_render_component            load
     00001F01  A$lcc1026427$175                   load
     00001F02  A$lcc1026427$176                   load
     00001F05  A$lcc1026427$177                   load
     00001F06  A$lcc1026427$178                   load
     00001F08  A$lcc1026427$182                   load
     00001F08  C$load.c$28$3_0$138                load
     00001F0B  A$lcc1026427$183                   load
     00001F0D  A$lcc1026427$184                   load
     00001F0E  A$lcc1026427$185                   load
     00001F10  A$lcc1026427$189                   load
ASxxxx Linker V03.00/V05.40 + sdld,  page 38.
Hexadecimal  [32-Bits]

Area                                    Addr        Size        Decimal Bytes (Attributes)
--------------------------------        ----        ----        ------- ----- ------------
_CODE                               00000200    000028FB =       10491. bytes (REL,CON)

      Value  Global                              Global Defined In Module
      -----  --------------------------------   ------------------------
     00001F10  C$load.c$29$3_0$138                load
     00001F13  A$lcc1026427$190                   load
     00001F15  A$lcc1026427$191                   load
     00001F16  A$lcc1026427$192                   load
     00001F18  A$lcc1026427$196                   load
     00001F18  C$load.c$27$2_0$137                load
     00001F19  A$lcc1026427$197                   load
     00001F1B  A$lcc1026427$202                   load
     00001F1B  C$load.c$32$1_0$136                load
     00001F1C  A$lcc1026427$203                   load
     00001F1F  A$lcc1026427$211                   load
     00001F1F  C$load.c$33$1_0$136                load
     00001F1F  XG$reset_render_component$0$0      load
     00001F20  A$lcc1026428$58                    map_scenes
     00001F20  C$map_scenes.c$11$2_0$39           map_scenes
     00001F20  C$map_scenes.c$9$0_0$39            map_scenes
     00001F20  G$scene_manager_MapScene$0$0       map_scenes
     00001F20  _scene_manager_MapScene            map_scenes
     00001F22  A$lcc1026428$59                    map_scenes
     00001F24  A$lcc1026428$60                    map_scenes
     00001F26  A$lcc1026428$61                    map_scenes
     00001F28  A$lcc1026428$62                    map_scenes
     00001F2A  A$lcc1026428$63                    map_scenes
     00001F2C  A$lcc1026428$64                    map_scenes
     00001F2E  A$lcc1026428$72                    map_scenes
     00001F2E  C$map_scenes.c$13$3_0$40           map_scenes
     00001F2E  C$map_scenes.c$14$3_0$40           map_scenes
     00001F31  A$lcc1026428$76                    map_scenes
     00001F31  C$map_scenes.c$15$3_0$40           map_scenes
     00001F34  A$lcc1026428$77                    map_scenes
     00001F35  A$lcc1026428$85                    map_scenes
     00001F35  C$map_scenes.c$16$3_0$40           map_scenes
     00001F35  C$map_scenes.c$17$3_0$40           map_scenes
     00001F38  A$lcc1026428$89                    map_scenes
     00001F38  C$map_scenes.c$18$3_0$40           map_scenes
     00001F3B  A$lcc1026428$90                    map_scenes
     00001F3C  A$lcc1026428$98                    map_scenes
     00001F3C  C$map_scenes.c$19$3_0$40           map_scenes
     00001F3C  C$map_scenes.c$20$3_0$40           map_scenes
     00001F3F  A$lcc1026428$102                   map_scenes
     00001F3F  C$map_scenes.c$21$3_0$40           map_scenes
     00001F42  A$lcc1026428$103                   map_scenes
     00001F43  A$lcc1026428$111                   map_scenes
     00001F43  C$map_scenes.c$22$3_0$40           map_scenes
     00001F43  C$map_scenes.c$23$3_0$40           map_scenes
     00001F46  A$lcc1026428$122                   map_scenes
     00001F46  C$map_scenes.c$24$2_0$39           map_scenes
     00001F46  C$map_scenes.c$25$2_0$39           map_scenes
     00001F46  XG$scene_manager_MapScene$0$0      map_scenes
     00001F47  A$lcc1026429$62                    player
     00001F47  C$player.c$6$0_0$136               player
ASxxxx Linker V03.00/V05.40 + sdld,  page 39.
Hexadecimal  [32-Bits]

Area                                    Addr        Size        Decimal Bytes (Attributes)
--------------------------------        ----        ----        ------- ----- ------------
_CODE                               00000200    000028FB =       10491. bytes (REL,CON)

      Value  Global                              Global Defined In Module
      -----  --------------------------------   ------------------------
     00001F47  G$init_player$0$0                  player
     00001F47  _init_player                       player
     00001F49  A$lcc1026429$66                    player
     00001F49  C$player.c$8$1_0$136               player
     00001F4C  A$lcc1026429$67                    player
     00001F4F  A$lcc1026429$68                    player
     00001F50  A$lcc1026429$72                    player
     00001F50  C$player.c$10$1_0$136              player
     00001F51  A$lcc1026429$73                    player
     00001F53  A$lcc1026429$74                    player
     00001F56  A$lcc1026429$75                    player
     00001F57  A$lcc1026429$76                    player
     00001F59  A$lcc1026429$80                    player
     00001F59  C$player.c$11$1_0$136              player
     00001F5C  A$lcc1026429$81                    player
     00001F5F  A$lcc1026429$82                    player
     00001F60  A$lcc1026429$83                    player
     00001F62  A$lcc1026429$84                    player
     00001F63  A$lcc1026429$85                    player
     00001F65  A$lcc1026429$89                    player
     00001F65  C$player.c$13$1_0$136              player
     00001F68  A$lcc1026429$90                    player
     00001F6B  A$lcc1026429$91                    player
     00001F6C  A$lcc1026429$92                    player
     00001F6D  A$lcc1026429$93                    player
     00001F6F  A$lcc1026429$94                    player
     00001F70  A$lcc1026429$95                    player
     00001F73  A$lcc1026429$96                    player
     00001F75  A$lcc1026429$97                    player
     00001F76  A$lcc1026429$98                    player
     00001F78  A$lcc1026429$99                    player
     00001F7A  A$lcc1026429$100                   player
     00001F7B  A$lcc1026429$101                   player
     00001F7C  A$lcc1026429$102                   player
     00001F7D  A$lcc1026429$103                   player
     00001F7E  A$lcc1026429$104                   player
     00001F7F  A$lcc1026429$105                   player
     00001F80  A$lcc1026429$109                   player
     00001F80  C$player.c$14$1_0$136              player
     00001F83  A$lcc1026429$110                   player
     00001F84  A$lcc1026429$111                   player
     00001F85  A$lcc1026429$112                   player
     00001F87  A$lcc1026429$113                   player
     00001F88  A$lcc1026429$114                   player
     00001F8A  A$lcc1026429$115                   player
     00001F8C  A$lcc1026429$116                   player
     00001F8D  A$lcc1026429$117                   player
     00001F8E  A$lcc1026429$118                   player
     00001F90  A$lcc1026429$119                   player
     00001F91  A$lcc1026429$120                   player
     00001F92  A$lcc1026429$121                   player
ASxxxx Linker V03.00/V05.40 + sdld,  page 40.
Hexadecimal  [32-Bits]

Area                                    Addr        Size        Decimal Bytes (Attributes)
--------------------------------        ----        ----        ------- ----- ------------
_CODE                               00000200    000028FB =       10491. bytes (REL,CON)

      Value  Global                              Global Defined In Module
      -----  --------------------------------   ------------------------
     00001F93  A$lcc1026429$122                   player
     00001F94  A$lcc1026429$123                   player
     00001F95  A$lcc1026429$124                   player
     00001F96  A$lcc1026429$125                   player
     00001F97  A$lcc1026429$129                   player
     00001F97  C$player.c$16$1_0$136              player
     00001F9A  A$lcc1026429$130                   player
     00001F9B  A$lcc1026429$131                   player
     00001F9D  A$lcc1026429$132                   player
     00001FA0  A$lcc1026429$133                   player
     00001FA1  A$lcc1026429$134                   player
     00001FA3  A$lcc1026429$138                   player
     00001FA3  C$player.c$17$1_0$136              player
     00001FA6  A$lcc1026429$139                   player
     00001FA9  A$lcc1026429$140                   player
     00001FAA  A$lcc1026429$141                   player
     00001FAC  A$lcc1026429$142                   player
     00001FAD  A$lcc1026429$143                   player
     00001FAF  A$lcc1026429$147                   player
     00001FAF  C$player.c$18$1_0$136              player
     00001FB2  A$lcc1026429$148                   player
     00001FB5  A$lcc1026429$149                   player
     00001FB6  A$lcc1026429$150                   player
     00001FB8  A$lcc1026429$151                   player
     00001FB9  A$lcc1026429$152                   player
     00001FBB  A$lcc1026429$156                   player
     00001FBB  C$player.c$21$2_0$137              player
     00001FBE  A$lcc1026429$157                   player
     00001FBF  A$lcc1026429$158                   player
     00001FC0  A$lcc1026429$159                   player
     00001FC1  A$lcc1026429$160                   player
     00001FC3  A$lcc1026429$161                   player
     00001FC5  A$lcc1026429$162                   player
     00001FC6  A$lcc1026429$163                   player
     00001FC8  A$lcc1026429$164                   player
     00001FC9  A$lcc1026429$165                   player
     00001FCB  A$lcc1026429$166                   player
     00001FCC  A$lcc1026429$167                   player
     00001FCE  A$lcc1026429$168                   player
     00001FCF  A$lcc1026429$169                   player
     00001FD1  A$lcc1026429$170                   player
     00001FD2  A$lcc1026429$171                   player
     00001FD4  A$lcc1026429$175                   player
     00001FD4  C$player.c$27$2_0$137              player
     00001FD5  A$lcc1026429$176                   player
     00001FD7  A$lcc1026429$177                   player
     00001FD8  A$lcc1026429$178                   player
     00001FDA  A$lcc1026429$179                   player
     00001FDB  A$lcc1026429$180                   player
     00001FDD  A$lcc1026429$181                   player
     00001FDE  A$lcc1026429$182                   player
ASxxxx Linker V03.00/V05.40 + sdld,  page 41.
Hexadecimal  [32-Bits]

Area                                    Addr        Size        Decimal Bytes (Attributes)
--------------------------------        ----        ----        ------- ----- ------------
_CODE                               00000200    000028FB =       10491. bytes (REL,CON)

      Value  Global                              Global Defined In Module
      -----  --------------------------------   ------------------------
     00001FE0  A$lcc1026429$183                   player
     00001FE1  A$lcc1026429$184                   player
     00001FE3  A$lcc1026429$185                   player
     00001FE4  A$lcc1026429$186                   player
     00001FE6  A$lcc1026429$187                   player
     00001FE7  A$lcc1026429$188                   player
     00001FE9  A$lcc1026429$189                   player
     00001FEA  A$lcc1026429$190                   player
     00001FEC  A$lcc1026429$191                   player
     00001FED  A$lcc1026429$192                   player
     00001FEE  A$lcc1026429$193                   player
     00001FEF  A$lcc1026429$194                   player
     00001FF0  A$lcc1026429$195                   player
     00001FF1  A$lcc1026429$196                   player
     00001FF3  A$lcc1026429$197                   player
     00001FF4  A$lcc1026429$198                   player
     00001FF6  A$lcc1026429$199                   player
     00001FF7  A$lcc1026429$200                   player
     00001FF9  A$lcc1026429$201                   player
     00001FFA  A$lcc1026429$202                   player
     00001FFC  A$lcc1026429$203                   player
     00001FFD  A$lcc1026429$204                   player
     00001FFF  A$lcc1026429$205                   player
     00002000  A$lcc1026429$206                   player
     00002002  A$lcc1026429$207                   player
     00002003  A$lcc1026429$208                   player
     00002005  A$lcc1026429$209                   player
     00002006  A$lcc1026429$210                   player
     00002008  A$lcc1026429$211                   player
     00002009  A$lcc1026429$212                   player
     0000200B  A$lcc1026429$213                   player
     0000200C  A$lcc1026429$214                   player
     0000200E  A$lcc1026429$215                   player
     0000200F  A$lcc1026429$216                   player
     00002011  A$lcc1026429$217                   player
     00002012  A$lcc1026429$218                   player
     00002014  A$lcc1026429$219                   player
     00002015  A$lcc1026429$220                   player
     00002017  A$lcc1026429$221                   player
     00002018  A$lcc1026429$222                   player
     0000201A  A$lcc1026429$223                   player
     0000201B  A$lcc1026429$224                   player
     0000201C  A$lcc1026429$225                   player
     0000201D  A$lcc1026429$226                   player
     0000201E  A$lcc1026429$227                   player
     0000201F  A$lcc1026429$228                   player
     00002021  A$lcc1026429$229                   player
     00002022  A$lcc1026429$230                   player
     00002024  A$lcc1026429$231                   player
     00002025  A$lcc1026429$232                   player
     00002027  A$lcc1026429$233                   player
ASxxxx Linker V03.00/V05.40 + sdld,  page 42.
Hexadecimal  [32-Bits]

Area                                    Addr        Size        Decimal Bytes (Attributes)
--------------------------------        ----        ----        ------- ----- ------------
_CODE                               00000200    000028FB =       10491. bytes (REL,CON)

      Value  Global                              Global Defined In Module
      -----  --------------------------------   ------------------------
     00002028  A$lcc1026429$234                   player
     0000202A  A$lcc1026429$235                   player
     0000202B  A$lcc1026429$236                   player
     0000202D  A$lcc1026429$237                   player
     0000202E  A$lcc1026429$238                   player
     00002030  A$lcc1026429$242                   player
     00002030  C$player.c$50$2_0$137              player
     00002031  A$lcc1026429$243                   player
     00002034  A$lcc1026429$244                   player
     00002035  A$lcc1026429$245                   player
     00002036  A$lcc1026429$246                   player
     00002037  A$lcc1026429$247                   player
     00002038  A$lcc1026429$248                   player
     0000203A  A$lcc1026429$249                   player
     0000203B  A$lcc1026429$250                   player
     0000203D  A$lcc1026429$251                   player
     0000203E  A$lcc1026429$252                   player
     00002040  A$lcc1026429$253                   player
     00002041  A$lcc1026429$254                   player
     00002043  A$lcc1026429$255                   player
     00002044  A$lcc1026429$256                   player
     00002046  A$lcc1026429$257                   player
     00002047  A$lcc1026429$258                   player
     00002049  A$lcc1026429$262                   player
     00002049  C$player.c$56$2_0$137              player
     0000204A  A$lcc1026429$263                   player
     0000204C  A$lcc1026429$264                   player
     0000204D  A$lcc1026429$265                   player
     0000204F  A$lcc1026429$266                   player
     00002050  A$lcc1026429$267                   player
     00002052  A$lcc1026429$268                   player
     00002053  A$lcc1026429$269                   player
     00002055  A$lcc1026429$270                   player
     00002056  A$lcc1026429$271                   player
     00002058  A$lcc1026429$272                   player
     00002059  A$lcc1026429$273                   player
     0000205B  A$lcc1026429$274                   player
     0000205C  A$lcc1026429$275                   player
     0000205E  A$lcc1026429$276                   player
     0000205F  A$lcc1026429$277                   player
     00002061  A$lcc1026429$278                   player
     00002062  A$lcc1026429$279                   player
     00002063  A$lcc1026429$280                   player
     00002064  A$lcc1026429$281                   player
     00002065  A$lcc1026429$282                   player
     00002066  A$lcc1026429$283                   player
     00002068  A$lcc1026429$284                   player
     00002069  A$lcc1026429$285                   player
     0000206B  A$lcc1026429$286                   player
     0000206C  A$lcc1026429$287                   player
     0000206E  A$lcc1026429$288                   player
ASxxxx Linker V03.00/V05.40 + sdld,  page 43.
Hexadecimal  [32-Bits]

Area                                    Addr        Size        Decimal Bytes (Attributes)
--------------------------------        ----        ----        ------- ----- ------------
_CODE                               00000200    000028FB =       10491. bytes (REL,CON)

      Value  Global                              Global Defined In Module
      -----  --------------------------------   ------------------------
     0000206F  A$lcc1026429$289                   player
     00002071  A$lcc1026429$290                   player
     00002072  A$lcc1026429$291                   player
     00002074  A$lcc1026429$292                   player
     00002075  A$lcc1026429$293                   player
     00002077  A$lcc1026429$294                   player
     00002078  A$lcc1026429$295                   player
     0000207A  A$lcc1026429$296                   player
     0000207B  A$lcc1026429$297                   player
     0000207D  A$lcc1026429$298                   player
     0000207E  A$lcc1026429$299                   player
     00002080  A$lcc1026429$300                   player
     00002081  A$lcc1026429$301                   player
     00002083  A$lcc1026429$302                   player
     00002084  A$lcc1026429$303                   player
     00002086  A$lcc1026429$304                   player
     00002087  A$lcc1026429$305                   player
     00002089  A$lcc1026429$306                   player
     0000208A  A$lcc1026429$307                   player
     0000208C  A$lcc1026429$308                   player
     0000208D  A$lcc1026429$309                   player
     0000208F  A$lcc1026429$310                   player
     00002090  A$lcc1026429$311                   player
     00002091  A$lcc1026429$312                   player
     00002092  A$lcc1026429$313                   player
     00002093  A$lcc1026429$314                   player
     00002094  A$lcc1026429$315                   player
     00002096  A$lcc1026429$316                   player
     00002097  A$lcc1026429$317                   player
     00002099  A$lcc1026429$318                   player
     0000209A  A$lcc1026429$319                   player
     0000209C  A$lcc1026429$320                   player
     0000209D  A$lcc1026429$321                   player
     0000209F  A$lcc1026429$322                   player
     000020A0  A$lcc1026429$323                   player
     000020A2  A$lcc1026429$324                   player
     000020A3  A$lcc1026429$325                   player
     000020A5  A$lcc1026429$329                   player
     000020A5  C$player.c$78$1_1$137              player
     000020A8  A$lcc1026429$330                   player
     000020A9  A$lcc1026429$331                   player
     000020AB  A$lcc1026429$332                   player
     000020AC  A$lcc1026429$333                   player
     000020AD  A$lcc1026429$334                   player
     000020AE  A$lcc1026429$335                   player
     000020AF  A$lcc1026429$336                   player
     000020B0  A$lcc1026429$337                   player
     000020B1  A$lcc1026429$338                   player
     000020B2  A$lcc1026429$339                   player
     000020B3  A$lcc1026429$340                   player
     000020B4  A$lcc1026429$341                   player
ASxxxx Linker V03.00/V05.40 + sdld,  page 44.
Hexadecimal  [32-Bits]

Area                                    Addr        Size        Decimal Bytes (Attributes)
--------------------------------        ----        ----        ------- ----- ------------
_CODE                               00000200    000028FB =       10491. bytes (REL,CON)

      Value  Global                              Global Defined In Module
      -----  --------------------------------   ------------------------
     000020B7  A$lcc1026429$342                   player
     000020B8  A$lcc1026429$343                   player
     000020B9  A$lcc1026429$344                   player
     000020BA  A$lcc1026429$345                   player
     000020BD  A$lcc1026429$346                   player
     000020BE  A$lcc1026429$347                   player
     000020C0  A$lcc1026429$348                   player
     000020C1  A$lcc1026429$349                   player
     000020C2  A$lcc1026429$350                   player
     000020C5  A$lcc1026429$351                   player
     000020C6  A$lcc1026429$352                   player
     000020C7  A$lcc1026429$353                   player
     000020C8  A$lcc1026429$354                   player
     000020C9  A$lcc1026429$355                   player
     000020CA  A$lcc1026429$356                   player
     000020CB  A$lcc1026429$357                   player
     000020CE  A$lcc1026429$358                   player
     000020D1  A$lcc1026429$362                   player
     000020D1  C$player.c$79$1_1$137              player
     000020D4  A$lcc1026429$363                   player
     000020D5  A$lcc1026429$364                   player
     000020D7  A$lcc1026429$365                   player
     000020D8  A$lcc1026429$366                   player
     000020D9  A$lcc1026429$367                   player
     000020DA  A$lcc1026429$368                   player
     000020DB  A$lcc1026429$369                   player
     000020DC  A$lcc1026429$370                   player
     000020DD  A$lcc1026429$371                   player
     000020DE  A$lcc1026429$372                   player
     000020DF  A$lcc1026429$373                   player
     000020E0  A$lcc1026429$374                   player
     000020E3  A$lcc1026429$375                   player
     000020E4  A$lcc1026429$376                   player
     000020E5  A$lcc1026429$377                   player
     000020E6  A$lcc1026429$378                   player
     000020E9  A$lcc1026429$379                   player
     000020EA  A$lcc1026429$380                   player
     000020EC  A$lcc1026429$381                   player
     000020ED  A$lcc1026429$382                   player
     000020EE  A$lcc1026429$383                   player
     000020F1  A$lcc1026429$384                   player
     000020F2  A$lcc1026429$385                   player
     000020F3  A$lcc1026429$386                   player
     000020F5  A$lcc1026429$387                   player
     000020F6  A$lcc1026429$388                   player
     000020F7  A$lcc1026429$389                   player
     000020F8  A$lcc1026429$390                   player
     000020FB  A$lcc1026429$391                   player
     000020FE  A$lcc1026429$395                   player
     000020FE  C$player.c$80$1_1$137              player
     00002101  A$lcc1026429$396                   player
ASxxxx Linker V03.00/V05.40 + sdld,  page 45.
Hexadecimal  [32-Bits]

Area                                    Addr        Size        Decimal Bytes (Attributes)
--------------------------------        ----        ----        ------- ----- ------------
_CODE                               00000200    000028FB =       10491. bytes (REL,CON)

      Value  Global                              Global Defined In Module
      -----  --------------------------------   ------------------------
     00002102  A$lcc1026429$397                   player
     00002104  A$lcc1026429$398                   player
     00002105  A$lcc1026429$399                   player
     00002106  A$lcc1026429$400                   player
     00002107  A$lcc1026429$401                   player
     00002108  A$lcc1026429$402                   player
     00002109  A$lcc1026429$403                   player
     0000210A  A$lcc1026429$404                   player
     0000210B  A$lcc1026429$405                   player
     0000210C  A$lcc1026429$406                   player
     0000210D  A$lcc1026429$407                   player
     00002110  A$lcc1026429$408                   player
     00002111  A$lcc1026429$409                   player
     00002112  A$lcc1026429$410                   player
     00002113  A$lcc1026429$411                   player
     00002116  A$lcc1026429$412                   player
     00002117  A$lcc1026429$413                   player
     00002119  A$lcc1026429$414                   player
     0000211A  A$lcc1026429$415                   player
     0000211B  A$lcc1026429$416                   player
     0000211E  A$lcc1026429$417                   player
     0000211F  A$lcc1026429$418                   player
     00002120  A$lcc1026429$419                   player
     00002122  A$lcc1026429$420                   player
     00002123  A$lcc1026429$421                   player
     00002124  A$lcc1026429$422                   player
     00002125  A$lcc1026429$423                   player
     00002128  A$lcc1026429$424                   player
     0000212B  A$lcc1026429$428                   player
     0000212B  C$player.c$81$1_1$137              player
     0000212E  A$lcc1026429$429                   player
     0000212F  A$lcc1026429$430                   player
     00002131  A$lcc1026429$431                   player
     00002132  A$lcc1026429$432                   player
     00002133  A$lcc1026429$433                   player
     00002134  A$lcc1026429$434                   player
     00002135  A$lcc1026429$435                   player
     00002136  A$lcc1026429$436                   player
     00002137  A$lcc1026429$437                   player
     00002138  A$lcc1026429$438                   player
     00002139  A$lcc1026429$439                   player
     0000213A  A$lcc1026429$440                   player
     0000213D  A$lcc1026429$441                   player
     0000213E  A$lcc1026429$442                   player
     0000213F  A$lcc1026429$443                   player
     00002140  A$lcc1026429$444                   player
     00002143  A$lcc1026429$445                   player
     00002144  A$lcc1026429$446                   player
     00002146  A$lcc1026429$447                   player
     00002147  A$lcc1026429$448                   player
     00002148  A$lcc1026429$449                   player
ASxxxx Linker V03.00/V05.40 + sdld,  page 46.
Hexadecimal  [32-Bits]

Area                                    Addr        Size        Decimal Bytes (Attributes)
--------------------------------        ----        ----        ------- ----- ------------
_CODE                               00000200    000028FB =       10491. bytes (REL,CON)

      Value  Global                              Global Defined In Module
      -----  --------------------------------   ------------------------
     0000214B  A$lcc1026429$450                   player
     0000214C  A$lcc1026429$451                   player
     0000214D  A$lcc1026429$452                   player
     0000214F  A$lcc1026429$453                   player
     00002150  A$lcc1026429$454                   player
     00002151  A$lcc1026429$455                   player
     00002152  A$lcc1026429$456                   player
     00002155  A$lcc1026429$457                   player
     00002158  A$lcc1026429$461                   player
     00002158  C$player.c$83$1_1$137              player
     0000215B  A$lcc1026429$465                   player
     0000215B  C$player.c$84$1_1$137              player
     0000215C  A$lcc1026429$466                   player
     0000215D  A$lcc1026429$467                   player
     0000215F  A$lcc1026429$471                   player
     0000215F  C$player.c$85$1_1$137              player
     00002162  A$lcc1026429$472                   player
     00002164  A$lcc1026429$476                   player
     00002164  C$player.c$86$1_1$137              player
     00002167  A$lcc1026429$477                   player
     00002169  A$lcc1026429$481                   player
     00002169  C$player.c$88$1_1$137              player
     0000216C  A$lcc1026429$485                   player
     0000216E  A$lcc1026429$490                   player
     0000216E  C$player.c$89$1_1$136              player
     0000216E  XG$init_player$0$0                 player
     0000216F  A$lcc1026431$56                    render
     0000216F  C$render.c$5$0_0$130               render
     0000216F  G$render_reset$0$0                 render
     0000216F  _render_reset                      render
     00002170  A$lcc1026431$60                    render
     00002170  C$render.c$6$1_0$130               render
     00002173  A$lcc1026431$61                    render
     00002175  A$lcc1026431$62                    render
     00002176  A$lcc1026431$63                    render
     00002178  A$lcc1026431$67                    render
     00002178  C$render.c$7$1_0$130               render
     0000217B  A$lcc1026431$68                    render
     0000217D  A$lcc1026431$69                    render
     0000217E  A$lcc1026431$70                    render
     00002180  A$lcc1026431$78                    render
     00002180  C$render.c$8$1_0$130               render
     00002180  XG$render_reset$0$0                render
     00002181  A$lcc1026432$66                    scene
     00002181  C$scene.c$10$1_0$26                scene
     00002181  C$scene.c$9$0_0$26                 scene
     00002181  G$init_NPCs$0$0                    scene
     00002181  _init_NPCs                         scene
     00002184  A$lcc1026432$67                    scene
     00002187  A$lcc1026432$71                    scene
     00002187  C$scene.c$11$1_0$26                scene
ASxxxx Linker V03.00/V05.40 + sdld,  page 47.
Hexadecimal  [32-Bits]

Area                                    Addr        Size        Decimal Bytes (Attributes)
--------------------------------        ----        ----        ------- ----- ------------
_CODE                               00000200    000028FB =       10491. bytes (REL,CON)

      Value  Global                              Global Defined In Module
      -----  --------------------------------   ------------------------
     0000218A  A$lcc1026432$72                    scene
     0000218D  A$lcc1026432$80                    scene
     0000218D  C$scene.c$12$1_0$26                scene
     0000218D  XG$init_NPCs$0$0                   scene
     0000218E  A$lcc1026432$93                    scene
     0000218E  C$scene.c$14$1_0$28                scene
     0000218E  C$scene.c$16$2_0$29                scene
     0000218E  G$Scene_Destroy$0$0                scene
     0000218E  _Scene_Destroy                     scene
     00002191  A$lcc1026432$94                    scene
     00002192  A$lcc1026432$95                    scene
     00002193  A$lcc1026432$96                    scene
     00002194  A$lcc1026432$97                    scene
     00002195  A$lcc1026432$98                    scene
     00002196  A$lcc1026432$99                    scene
     00002197  A$lcc1026432$100                   scene
     00002198  A$lcc1026432$104                   scene
     00002198  C$scene.c$17$2_0$29                scene
     00002199  A$lcc1026432$108                   scene
     00002199  C$scene.c$19$1_0$28                scene
     0000219A  A$lcc1026432$109                   scene
     0000219B  A$lcc1026432$110                   scene
     0000219C  A$lcc1026432$111                   scene
     0000219F  A$lcc1026432$112                   scene
     000021A0  A$lcc1026432$116                   scene
     000021A0  C$scene.c$20$1_0$28                scene
     000021A1  A$lcc1026432$117                   scene
     000021A2  A$lcc1026432$118                   scene
     000021A3  A$lcc1026432$119                   scene
     000021A4  A$lcc1026432$127                   scene
     000021A4  C$scene.c$21$1_0$28                scene
     000021A4  XG$Scene_Destroy$0$0               scene
     000021A5  A$lcc1026433$62                    scene_manager
     000021A5  C$scene_manager.c$11$1_0$156       scene_manager
     000021A5  C$scene_manager.c$9$0_0$156        scene_manager
     000021A5  G$SceneManager_Create$0$0          scene_manager
     000021A5  _SceneManager_Create               scene_manager
     000021A6  A$lcc1026433$63                    scene_manager
     000021A9  A$lcc1026433$64                    scene_manager
     000021AC  A$lcc1026433$65                    scene_manager
     000021AD  A$lcc1026433$66                    scene_manager
     000021B0  A$lcc1026433$67                    scene_manager
     000021B1  A$lcc1026433$68                    scene_manager
     000021B2  A$lcc1026433$72                    scene_manager
     000021B2  C$scene_manager.c$13$1_0$156       scene_manager
     000021B3  A$lcc1026433$73                    scene_manager
     000021B4  A$lcc1026433$74                    scene_manager
     000021B5  A$lcc1026433$75                    scene_manager
     000021B8  A$lcc1026433$76                    scene_manager
     000021B9  A$lcc1026433$77                    scene_manager
     000021BA  A$lcc1026433$78                    scene_manager
ASxxxx Linker V03.00/V05.40 + sdld,  page 48.
Hexadecimal  [32-Bits]

Area                                    Addr        Size        Decimal Bytes (Attributes)
--------------------------------        ----        ----        ------- ----- ------------
_CODE                               00000200    000028FB =       10491. bytes (REL,CON)

      Value  Global                              Global Defined In Module
      -----  --------------------------------   ------------------------
     000021BB  A$lcc1026433$79                    scene_manager
     000021BC  A$lcc1026433$83                    scene_manager
     000021BC  C$scene_manager.c$14$1_0$156       scene_manager
     000021BF  A$lcc1026433$84                    scene_manager
     000021C2  A$lcc1026433$85                    scene_manager
     000021C3  A$lcc1026433$86                    scene_manager
     000021C4  A$lcc1026433$87                    scene_manager
     000021C5  A$lcc1026433$88                    scene_manager
     000021C6  A$lcc1026433$89                    scene_manager
     000021C8  A$lcc1026433$90                    scene_manager
     000021C9  A$lcc1026433$91                    scene_manager
     000021CB  A$lcc1026433$99                    scene_manager
     000021CB  C$scene_manager.c$15$1_0$156       scene_manager
     000021CB  XG$SceneManager_Create$0$0         scene_manager
     000021CC  A$lcc1026433$109                   scene_manager
     000021CC  C$scene_manager.c$17$1_0$158       scene_manager
     000021CC  G$SceneManager_ChangeScene$0$0     scene_manager
     000021CC  _SceneManager_ChangeScene          scene_manager
     000021CE  A$lcc1026433$110                   scene_manager
     000021D0  A$lcc1026433$111                   scene_manager
     000021D1  A$lcc1026433$112                   scene_manager
     000021D2  A$lcc1026433$113                   scene_manager
     000021D3  A$lcc1026433$114                   scene_manager
     000021D4  A$lcc1026433$115                   scene_manager
     000021D5  A$lcc1026433$119                   scene_manager
     000021D8  A$lcc1026433$120                   scene_manager
     000021D9  A$lcc1026433$121                   scene_manager
     000021DA  A$lcc1026433$122                   scene_manager
     000021DB  A$lcc1026433$123                   scene_manager
     000021DC  A$lcc1026433$124                   scene_manager
     000021DD  A$lcc1026433$125                   scene_manager
     000021DE  A$lcc1026433$126                   scene_manager
     000021DF  A$lcc1026433$127                   scene_manager
     000021E0  A$lcc1026433$131                   scene_manager
     000021E0  C$scene_manager.c$20$2_0$159       scene_manager
     000021E2  A$lcc1026433$135                   scene_manager
     000021E3  A$lcc1026433$136                   scene_manager
     000021E4  A$lcc1026433$137                   scene_manager
     000021E5  A$lcc1026433$138                   scene_manager
     000021E6  A$lcc1026433$139                   scene_manager
     000021E7  A$lcc1026433$140                   scene_manager
     000021E8  A$lcc1026433$141                   scene_manager
     000021E9  A$lcc1026433$142                   scene_manager
     000021EB  A$lcc1026433$143                   scene_manager
     000021EE  A$lcc1026433$144                   scene_manager
     000021EF  A$lcc1026433$145                   scene_manager
     000021F0  A$lcc1026433$146                   scene_manager
     000021F1  A$lcc1026433$147                   scene_manager
     000021F2  A$lcc1026433$148                   scene_manager
     000021F3  A$lcc1026433$149                   scene_manager
     000021F5  A$lcc1026433$153                   scene_manager
ASxxxx Linker V03.00/V05.40 + sdld,  page 49.
Hexadecimal  [32-Bits]

Area                                    Addr        Size        Decimal Bytes (Attributes)
--------------------------------        ----        ----        ------- ----- ------------
_CODE                               00000200    000028FB =       10491. bytes (REL,CON)

      Value  Global                              Global Defined In Module
      -----  --------------------------------   ------------------------
     000021F5  C$scene_manager.c$23$2_0$160       scene_manager
     000021F6  A$lcc1026433$154                   scene_manager
     000021F7  A$lcc1026433$155                   scene_manager
     000021FA  A$lcc1026433$156                   scene_manager
     000021FB  A$lcc1026433$157                   scene_manager
     000021FC  A$lcc1026433$158                   scene_manager
     000021FD  A$lcc1026433$164                   scene_manager
     000021FD  C$scene_manager.c$25$1_0$158       scene_manager
     00002200  A$lcc1026433$165                   scene_manager
     00002201  A$lcc1026433$166                   scene_manager
     00002202  A$lcc1026433$167                   scene_manager
     00002203  A$lcc1026433$168                   scene_manager
     00002204  A$lcc1026433$169                   scene_manager
     00002205  A$lcc1026433$170                   scene_manager
     00002206  A$lcc1026433$171                   scene_manager
     00002207  A$lcc1026433$172                   scene_manager
     00002209  A$lcc1026433$173                   scene_manager
     0000220A  A$lcc1026433$174                   scene_manager
     0000220D  A$lcc1026433$175                   scene_manager
     0000220E  A$lcc1026433$176                   scene_manager
     0000220F  A$lcc1026433$177                   scene_manager
     00002210  A$lcc1026433$178                   scene_manager
     00002211  A$lcc1026433$179                   scene_manager
     00002212  A$lcc1026433$180                   scene_manager
     00002213  A$lcc1026433$181                   scene_manager
     00002214  A$lcc1026433$182                   scene_manager
     00002215  A$lcc1026433$186                   scene_manager
     00002215  C$scene_manager.c$19$1_0$158       scene_manager
     00002218  A$lcc1026433$187                   scene_manager
     00002219  A$lcc1026433$188                   scene_manager
     0000221A  A$lcc1026433$189                   scene_manager
     0000221B  A$lcc1026433$190                   scene_manager
     0000221C  A$lcc1026433$191                   scene_manager
     0000221D  A$lcc1026433$192                   scene_manager
     0000221E  A$lcc1026433$196                   scene_manager
     0000221E  C$scene_manager.c$22$1_0$158       scene_manager
     0000221F  A$lcc1026433$197                   scene_manager
     00002220  A$lcc1026433$198                   scene_manager
     00002221  A$lcc1026433$199                   scene_manager
     00002222  A$lcc1026433$200                   scene_manager
     00002223  A$lcc1026433$204                   scene_manager
     00002223  C$scene_manager.c$27$1_0$158       scene_manager
     00002224  A$lcc1026433$205                   scene_manager
     00002225  A$lcc1026433$206                   scene_manager
     00002226  A$lcc1026433$207                   scene_manager
     00002228  A$lcc1026433$208                   scene_manager
     00002229  A$lcc1026433$209                   scene_manager
     0000222A  A$lcc1026433$210                   scene_manager
     0000222B  A$lcc1026433$211                   scene_manager
     0000222C  A$lcc1026433$212                   scene_manager
     0000222D  A$lcc1026433$213                   scene_manager
ASxxxx Linker V03.00/V05.40 + sdld,  page 50.
Hexadecimal  [32-Bits]

Area                                    Addr        Size        Decimal Bytes (Attributes)
--------------------------------        ----        ----        ------- ----- ------------
_CODE                               00000200    000028FB =       10491. bytes (REL,CON)

      Value  Global                              Global Defined In Module
      -----  --------------------------------   ------------------------
     0000222E  A$lcc1026433$214                   scene_manager
     0000222F  A$lcc1026433$215                   scene_manager
     00002230  A$lcc1026433$216                   scene_manager
     00002231  A$lcc1026433$217                   scene_manager
     00002234  A$lcc1026433$221                   scene_manager
     00002234  C$scene_manager.c$29$1_0$158       scene_manager
     00002236  A$lcc1026433$222                   scene_manager
     00002238  A$lcc1026433$223                   scene_manager
     0000223A  A$lcc1026433$228                   scene_manager
     0000223C  A$lcc1026433$233                   scene_manager
     0000223C  C$scene_manager.c$30$1_0$158       scene_manager
     0000223C  XG$SceneManager_ChangeScene$0$0    scene_manager
     0000223D  A$lcc1026434$61                    gender_select
     0000223D  C$gender_select.c$6$0_0$30         gender_select
     0000223D  C$gender_select.c$8$1_0$30         gender_select
     0000223D  G$GenderSelect_Create$0$0          gender_select
     0000223D  _GenderSelect_Create               gender_select
     00002240  A$lcc1026434$62                    gender_select
     00002242  A$lcc1026434$63                    gender_select
     00002243  A$lcc1026434$64                    gender_select
     00002245  A$lcc1026434$68                    gender_select
     00002245  C$gender_select.c$9$1_0$30         gender_select
     00002246  A$lcc1026434$69                    gender_select
     00002248  A$lcc1026434$70                    gender_select
     00002249  A$lcc1026434$71                    gender_select
     0000224B  A$lcc1026434$75                    gender_select
     0000224B  C$gender_select.c$11$1_0$30        gender_select
     0000224E  A$lcc1026434$76                    gender_select
     0000224F  A$lcc1026434$77                    gender_select
     00002250  A$lcc1026434$78                    gender_select
     00002251  A$lcc1026434$86                    gender_select
     00002251  C$gender_select.c$12$1_0$30        gender_select
     00002251  XG$GenderSelect_Create$0$0         gender_select
     00002252  A$lcc1026435$58                    gender_select_init
     00002252  C$gender_select_init.c$11$1_0$15   gender_select_init
     00002252  C$gender_select_init.c$9$0_0$155   gender_select_init
     00002252  G$GenderSelect_Init$0$0            gender_select_init
     00002252  _GenderSelect_Init                 gender_select_init
     00002253  A$lcc1026435$59                    gender_select_init
     00002256  A$lcc1026435$60                    gender_select_init
     00002259  A$lcc1026435$61                    gender_select_init
     0000225A  A$lcc1026435$62                    gender_select_init
     0000225B  A$lcc1026435$63                    gender_select_init
     0000225C  A$lcc1026435$67                    gender_select_init
     0000225C  C$gender_select_init.c$12$2_0$15   gender_select_init
     0000225D  A$lcc1026435$68                    gender_select_init
     0000225E  A$lcc1026435$72                    gender_select_init
     0000225E  C$gender_select_init.c$13$2_0$15   gender_select_init
     0000225F  A$lcc1026435$76                    gender_select_init
     0000225F  C$gender_select_init.c$15$1_0$15   gender_select_init
     00002260  A$lcc1026435$77                    gender_select_init
ASxxxx Linker V03.00/V05.40 + sdld,  page 51.
Hexadecimal  [32-Bits]

Area                                    Addr        Size        Decimal Bytes (Attributes)
--------------------------------        ----        ----        ------- ----- ------------
_CODE                               00000200    000028FB =       10491. bytes (REL,CON)

      Value  Global                              Global Defined In Module
      -----  --------------------------------   ------------------------
     00002261  A$lcc1026435$81                    gender_select_init
     00002261  C$gender_select_init.c$16$1_0$15   gender_select_init
     00002264  A$lcc1026435$82                    gender_select_init
     00002265  A$lcc1026435$83                    gender_select_init
     00002266  A$lcc1026435$84                    gender_select_init
     00002267  A$lcc1026435$85                    gender_select_init
     00002268  A$lcc1026435$89                    gender_select_init
     00002268  C$gender_select_init.c$18$1_0$15   gender_select_init
     0000226B  A$lcc1026435$90                    gender_select_init
     0000226C  A$lcc1026435$91                    gender_select_init
     0000226F  A$lcc1026435$92                    gender_select_init
     00002270  A$lcc1026435$93                    gender_select_init
     00002273  A$lcc1026435$94                    gender_select_init
     00002275  A$lcc1026435$98                    gender_select_init
     00002275  C$gender_select_init.c$19$1_0$15   gender_select_init
     00002278  A$lcc1026435$99                    gender_select_init
     00002279  A$lcc1026435$100                   gender_select_init
     0000227C  A$lcc1026435$101                   gender_select_init
     0000227D  A$lcc1026435$102                   gender_select_init
     0000227E  A$lcc1026435$103                   gender_select_init
     0000227F  A$lcc1026435$104                   gender_select_init
     00002280  A$lcc1026435$105                   gender_select_init
     00002283  A$lcc1026435$106                   gender_select_init
     00002285  A$lcc1026435$114                   gender_select_init
     00002285  C$gender_select_init.c$20$1_0$15   gender_select_init
     00002285  XG$GenderSelect_Init$0$0           gender_select_init
     00002286  A$lcc1026436$62                    gender_select_update
     00002286  C$gender_select_update.c$6$0_0$1   gender_select_update
     00002286  C$gender_select_update.c$8$1_0$1   gender_select_update
     00002286  C$gender_select_update.c$9$1_0$1   gender_select_update
     00002286  G$GenderSelect_Update$0$0          gender_select_update
     00002286  XG$GenderSelect_Update$0$0         gender_select_update
     00002286  _GenderSelect_Update               gender_select_update
     00002287  A$lcc1026437$61                    inventory_scene
     00002287  C$inventory_scene.c$6$0_0$30       inventory_scene
     00002287  C$inventory_scene.c$8$1_0$30       inventory_scene
     00002287  G$InventoryScene_Create$0$0        inventory_scene
     00002287  _InventoryScene_Create             inventory_scene
     0000228A  A$lcc1026437$62                    inventory_scene
     0000228C  A$lcc1026437$63                    inventory_scene
     0000228D  A$lcc1026437$64                    inventory_scene
     0000228F  A$lcc1026437$68                    inventory_scene
     0000228F  C$inventory_scene.c$9$1_0$30       inventory_scene
     00002290  A$lcc1026437$69                    inventory_scene
     00002292  A$lcc1026437$70                    inventory_scene
     00002293  A$lcc1026437$71                    inventory_scene
     00002295  A$lcc1026437$75                    inventory_scene
     00002295  C$inventory_scene.c$11$1_0$30      inventory_scene
     00002298  A$lcc1026437$76                    inventory_scene
     00002299  A$lcc1026437$77                    inventory_scene
     0000229A  A$lcc1026437$78                    inventory_scene
ASxxxx Linker V03.00/V05.40 + sdld,  page 52.
Hexadecimal  [32-Bits]

Area                                    Addr        Size        Decimal Bytes (Attributes)
--------------------------------        ----        ----        ------- ----- ------------
_CODE                               00000200    000028FB =       10491. bytes (REL,CON)

      Value  Global                              Global Defined In Module
      -----  --------------------------------   ------------------------
     0000229B  A$lcc1026437$86                    inventory_scene
     0000229B  C$inventory_scene.c$12$1_0$30      inventory_scene
     0000229B  XG$InventoryScene_Create$0$0       inventory_scene
     0000229C  A$lcc1026438$54                    inventory_scene_init
     0000229C  C$inventory_scene_init.c$9$0_0$1   inventory_scene_init
     0000229C  G$InventoryScene_Init$0$0          inventory_scene_init
     0000229C  _InventoryScene_Init               inventory_scene_init
     0000229D  A$lcc1026438$58                    inventory_scene_init
     0000229D  C$inventory_scene_init.c$11$1_0$   inventory_scene_init
     000022A0  A$lcc1026438$59                    inventory_scene_init
     000022A1  A$lcc1026438$60                    inventory_scene_init
     000022A2  A$lcc1026438$61                    inventory_scene_init
     000022A3  A$lcc1026438$62                    inventory_scene_init
     000022A4  A$lcc1026438$66                    inventory_scene_init
     000022A4  C$inventory_scene_init.c$13$2_0$   inventory_scene_init
     000022A6  A$lcc1026438$67                    inventory_scene_init
     000022A8  A$lcc1026438$71                    inventory_scene_init
     000022A8  C$inventory_scene_init.c$15$1_1$   inventory_scene_init
     000022AB  A$lcc1026438$72                    inventory_scene_init
     000022AC  A$lcc1026438$73                    inventory_scene_init
     000022AF  A$lcc1026438$74                    inventory_scene_init
     000022B0  A$lcc1026438$75                    inventory_scene_init
     000022B3  A$lcc1026438$76                    inventory_scene_init
     000022B5  A$lcc1026438$80                    inventory_scene_init
     000022B5  C$inventory_scene_init.c$16$1_1$   inventory_scene_init
     000022B8  A$lcc1026438$81                    inventory_scene_init
     000022B9  A$lcc1026438$82                    inventory_scene_init
     000022BC  A$lcc1026438$83                    inventory_scene_init
     000022BD  A$lcc1026438$84                    inventory_scene_init
     000022BE  A$lcc1026438$85                    inventory_scene_init
     000022BF  A$lcc1026438$86                    inventory_scene_init
     000022C0  A$lcc1026438$87                    inventory_scene_init
     000022C3  A$lcc1026438$88                    inventory_scene_init
     000022C5  A$lcc1026438$92                    inventory_scene_init
     000022C5  C$inventory_scene_init.c$18$1_1$   inventory_scene_init
     000022C8  A$lcc1026438$93                    inventory_scene_init
     000022C9  A$lcc1026438$94                    inventory_scene_init
     000022CC  A$lcc1026438$95                    inventory_scene_init
     000022CD  A$lcc1026438$96                    inventory_scene_init
     000022D0  A$lcc1026438$97                    inventory_scene_init
     000022D2  A$lcc1026438$101                   inventory_scene_init
     000022D2  C$inventory_scene_init.c$19$1_1$   inventory_scene_init
     000022D4  A$lcc1026438$102                   inventory_scene_init
     000022D5  A$lcc1026438$103                   inventory_scene_init
     000022D8  A$lcc1026438$104                   inventory_scene_init
     000022D9  A$lcc1026438$105                   inventory_scene_init
     000022DC  A$lcc1026438$106                   inventory_scene_init
     000022DD  A$lcc1026438$107                   inventory_scene_init
     000022E0  A$lcc1026438$111                   inventory_scene_init
     000022E2  A$lcc1026438$116                   inventory_scene_init
     000022E2  C$inventory_scene_init.c$20$1_1$   inventory_scene_init
ASxxxx Linker V03.00/V05.40 + sdld,  page 53.
Hexadecimal  [32-Bits]

Area                                    Addr        Size        Decimal Bytes (Attributes)
--------------------------------        ----        ----        ------- ----- ------------
_CODE                               00000200    000028FB =       10491. bytes (REL,CON)

      Value  Global                              Global Defined In Module
      -----  --------------------------------   ------------------------
     000022E2  XG$InventoryScene_Init$0$0         inventory_scene_init
     000022E3  A$lcc1026439$57                    inventory_scene_update
     000022E3  C$inventory_scene_update.c$6$0_0   inventory_scene_update
     000022E3  C$inventory_scene_update.c$7$1_0   inventory_scene_update
     000022E3  G$InventoryScene_Update$0$0        inventory_scene_update
     000022E3  _InventoryScene_Update             inventory_scene_update
     000022E6  A$lcc1026439$61                    inventory_scene_update
     000022E6  C$inventory_scene_update.c$8$1_0   inventory_scene_update
     000022E9  A$lcc1026439$69                    inventory_scene_update
     000022E9  C$inventory_scene_update.c$9$1_0   inventory_scene_update
     000022E9  XG$InventoryScene_Update$0$0       inventory_scene_update
     000022EC  A$lcc1026440$52                    map_collision
     000022EC  C$map_collision.c$12$0_0$135       map_collision
     000022EC  Fmap_collision$get_tile$0$0        map_collision
     000022EE  A$lcc1026440$53                    map_collision
     000022F0  A$lcc1026440$54                    map_collision
     000022F1  A$lcc1026440$55                    map_collision
     000022F2  A$lcc1026440$56                    map_collision
     000022F3  A$lcc1026440$60                    map_collision
     000022F3  C$map_collision.c$14$1_0$135       map_collision
     000022F6  A$lcc1026440$61                    map_collision
     000022F7  A$lcc1026440$62                    map_collision
     000022F8  A$lcc1026440$63                    map_collision
     000022F9  A$lcc1026440$64                    map_collision
     000022FA  A$lcc1026440$65                    map_collision
     000022FC  A$lcc1026440$66                    map_collision
     000022FD  A$lcc1026440$67                    map_collision
     000022FE  A$lcc1026440$68                    map_collision
     000022FF  A$lcc1026440$69                    map_collision
     00002300  A$lcc1026440$70                    map_collision
     00002302  A$lcc1026440$71                    map_collision
     00002303  A$lcc1026440$72                    map_collision
     00002304  A$lcc1026440$73                    map_collision
     00002305  A$lcc1026440$74                    map_collision
     00002306  A$lcc1026440$75                    map_collision
     00002307  A$lcc1026440$76                    map_collision
     00002308  A$lcc1026440$77                    map_collision
     00002309  A$lcc1026440$78                    map_collision
     0000230A  A$lcc1026440$79                    map_collision
     0000230B  A$lcc1026440$80                    map_collision
     0000230C  A$lcc1026440$81                    map_collision
     0000230D  A$lcc1026440$82                    map_collision
     0000230E  A$lcc1026440$83                    map_collision
     00002310  A$lcc1026440$84                    map_collision
     00002311  A$lcc1026440$85                    map_collision
     00002312  A$lcc1026440$86                    map_collision
     00002313  A$lcc1026440$87                    map_collision
     00002314  A$lcc1026440$88                    map_collision
     00002315  A$lcc1026440$89                    map_collision
     00002316  A$lcc1026440$90                    map_collision
     00002317  A$lcc1026440$91                    map_collision
ASxxxx Linker V03.00/V05.40 + sdld,  page 54.
Hexadecimal  [32-Bits]

Area                                    Addr        Size        Decimal Bytes (Attributes)
--------------------------------        ----        ----        ------- ----- ------------
_CODE                               00000200    000028FB =       10491. bytes (REL,CON)

      Value  Global                              Global Defined In Module
      -----  --------------------------------   ------------------------
     00002318  A$lcc1026440$92                    map_collision
     00002319  A$lcc1026440$93                    map_collision
     0000231A  A$lcc1026440$94                    map_collision
     0000231B  A$lcc1026440$95                    map_collision
     0000231C  A$lcc1026440$96                    map_collision
     0000231D  A$lcc1026440$97                    map_collision
     0000231E  A$lcc1026440$98                    map_collision
     0000231F  A$lcc1026440$99                    map_collision
     00002320  A$lcc1026440$100                   map_collision
     00002321  A$lcc1026440$104                   map_collision
     00002321  C$map_collision.c$15$1_0$135       map_collision
     00002323  A$lcc1026440$105                   map_collision
     00002324  A$lcc1026440$106                   map_collision
     00002325  A$lcc1026440$107                   map_collision
     00002326  A$lcc1026440$117                   map_collision
     00002326  C$map_collision.c$18$1_0$137       map_collision
     00002326  G$Map_Collision$0$0                map_collision
     00002326  _Map_Collision                     map_collision
     00002328  A$lcc1026440$121                   map_collision
     00002328  C$map_collision.c$20$1_0$137       map_collision
     0000232B  A$lcc1026440$122                   map_collision
     0000232C  A$lcc1026440$123                   map_collision
     0000232D  A$lcc1026440$124                   map_collision
     0000232E  A$lcc1026440$125                   map_collision
     00002330  A$lcc1026440$126                   map_collision
     00002331  A$lcc1026440$127                   map_collision
     00002332  A$lcc1026440$131                   map_collision
     00002332  C$map_collision.c$21$1_0$137       map_collision
     00002333  A$lcc1026440$132                   map_collision
     00002334  A$lcc1026440$133                   map_collision
     00002335  A$lcc1026440$134                   map_collision
     00002336  A$lcc1026440$135                   map_collision
     00002337  A$lcc1026440$136                   map_collision
     00002338  A$lcc1026440$140                   map_collision
     00002338  C$map_collision.c$29$1_0$137       map_collision
     0000233B  A$lcc1026440$141                   map_collision
     0000233D  A$lcc1026440$142                   map_collision
     0000233E  A$lcc1026440$143                   map_collision
     0000233F  A$lcc1026440$144                   map_collision
     00002341  A$lcc1026440$145                   map_collision
     00002342  A$lcc1026440$146                   map_collision
     00002344  A$lcc1026440$147                   map_collision
     00002346  A$lcc1026440$148                   map_collision
     00002347  A$lcc1026440$152                   map_collision
     00002347  C$map_collision.c$30$1_0$137       map_collision
     0000234A  A$lcc1026440$153                   map_collision
     0000234C  A$lcc1026440$154                   map_collision
     0000234D  A$lcc1026440$155                   map_collision
     0000234E  A$lcc1026440$156                   map_collision
     00002350  A$lcc1026440$157                   map_collision
     00002351  A$lcc1026440$158                   map_collision
ASxxxx Linker V03.00/V05.40 + sdld,  page 55.
Hexadecimal  [32-Bits]

Area                                    Addr        Size        Decimal Bytes (Attributes)
--------------------------------        ----        ----        ------- ----- ------------
_CODE                               00000200    000028FB =       10491. bytes (REL,CON)

      Value  Global                              Global Defined In Module
      -----  --------------------------------   ------------------------
     00002353  A$lcc1026440$159                   map_collision
     00002354  A$lcc1026440$163                   map_collision
     00002354  C$map_collision.c$34$1_0$137       map_collision
     00002356  A$lcc1026440$164                   map_collision
     00002357  A$lcc1026440$165                   map_collision
     00002358  A$lcc1026440$166                   map_collision
     0000235A  A$lcc1026440$170                   map_collision
     0000235A  C$map_collision.c$64$1_0$137       map_collision
     0000235B  A$lcc1026440$171                   map_collision
     0000235C  A$lcc1026440$172                   map_collision
     0000235F  A$lcc1026440$173                   map_collision
     00002360  A$lcc1026440$174                   map_collision
     00002361  A$lcc1026440$175                   map_collision
     00002362  A$lcc1026440$176                   map_collision
     00002364  A$lcc1026440$177                   map_collision
     00002365  A$lcc1026440$178                   map_collision
     00002366  A$lcc1026440$179                   map_collision
     00002367  A$lcc1026440$180                   map_collision
     00002369  A$lcc1026440$181                   map_collision
     0000236A  A$lcc1026440$182                   map_collision
     0000236B  A$lcc1026440$183                   map_collision
     0000236C  A$lcc1026440$184                   map_collision
     0000236D  A$lcc1026440$185                   map_collision
     0000236E  A$lcc1026440$186                   map_collision
     00002370  A$lcc1026440$187                   map_collision
     00002371  A$lcc1026440$188                   map_collision
     00002372  A$lcc1026440$189                   map_collision
     00002373  A$lcc1026440$190                   map_collision
     00002374  A$lcc1026440$191                   map_collision
     00002376  A$lcc1026440$192                   map_collision
     00002377  A$lcc1026440$193                   map_collision
     00002378  A$lcc1026440$194                   map_collision
     00002379  A$lcc1026440$195                   map_collision
     0000237A  A$lcc1026440$196                   map_collision
     0000237B  A$lcc1026440$197                   map_collision
     0000237C  A$lcc1026440$198                   map_collision
     0000237D  A$lcc1026440$199                   map_collision
     0000237E  A$lcc1026440$200                   map_collision
     0000237F  A$lcc1026440$201                   map_collision
     00002381  A$lcc1026440$202                   map_collision
     00002382  A$lcc1026440$203                   map_collision
     00002383  A$lcc1026440$204                   map_collision
     00002384  A$lcc1026440$205                   map_collision
     00002386  A$lcc1026440$206                   map_collision
     00002387  A$lcc1026440$207                   map_collision
     00002388  A$lcc1026440$208                   map_collision
     00002389  A$lcc1026440$209                   map_collision
     0000238A  A$lcc1026440$210                   map_collision
     0000238B  A$lcc1026440$211                   map_collision
     0000238C  A$lcc1026440$212                   map_collision
     0000238D  A$lcc1026440$213                   map_collision
ASxxxx Linker V03.00/V05.40 + sdld,  page 56.
Hexadecimal  [32-Bits]

Area                                    Addr        Size        Decimal Bytes (Attributes)
--------------------------------        ----        ----        ------- ----- ------------
_CODE                               00000200    000028FB =       10491. bytes (REL,CON)

      Value  Global                              Global Defined In Module
      -----  --------------------------------   ------------------------
     0000238E  A$lcc1026440$214                   map_collision
     0000238F  A$lcc1026440$215                   map_collision
     00002390  A$lcc1026440$216                   map_collision
     00002391  A$lcc1026440$217                   map_collision
     00002393  A$lcc1026440$218                   map_collision
     00002394  A$lcc1026440$219                   map_collision
     00002396  A$lcc1026440$220                   map_collision
     00002397  A$lcc1026440$221                   map_collision
     00002398  A$lcc1026440$222                   map_collision
     00002399  A$lcc1026440$223                   map_collision
     0000239B  A$lcc1026440$224                   map_collision
     0000239C  A$lcc1026440$225                   map_collision
     0000239D  A$lcc1026440$226                   map_collision
     0000239E  A$lcc1026440$227                   map_collision
     000023A0  A$lcc1026440$228                   map_collision
     000023A2  A$lcc1026440$229                   map_collision
     000023A3  A$lcc1026440$231                   map_collision
     000023A5  A$lcc1026440$232                   map_collision
     000023A8  A$lcc1026440$236                   map_collision
     000023A8  C$map_collision.c$65$1_0$137       map_collision
     000023AA  A$lcc1026440$237                   map_collision
     000023AB  A$lcc1026440$238                   map_collision
     000023AC  A$lcc1026440$239                   map_collision
     000023AD  A$lcc1026440$240                   map_collision
     000023AE  A$lcc1026440$241                   map_collision
     000023AF  A$lcc1026440$242                   map_collision
     000023B0  A$lcc1026440$243                   map_collision
     000023B1  A$lcc1026440$244                   map_collision
     000023B2  A$lcc1026440$245                   map_collision
     000023B3  A$lcc1026440$246                   map_collision
     000023B4  A$lcc1026440$247                   map_collision
     000023B5  A$lcc1026440$248                   map_collision
     000023B6  A$lcc1026440$249                   map_collision
     000023B7  A$lcc1026440$250                   map_collision
     000023B8  A$lcc1026440$251                   map_collision
     000023B9  A$lcc1026440$252                   map_collision
     000023BB  A$lcc1026440$253                   map_collision
     000023BC  A$lcc1026440$254                   map_collision
     000023BD  A$lcc1026440$255                   map_collision
     000023BE  A$lcc1026440$256                   map_collision
     000023C0  A$lcc1026440$257                   map_collision
     000023C1  A$lcc1026440$258                   map_collision
     000023C2  A$lcc1026440$259                   map_collision
     000023C3  A$lcc1026440$260                   map_collision
     000023C5  A$lcc1026440$261                   map_collision
     000023C7  A$lcc1026440$262                   map_collision
     000023C8  A$lcc1026440$264                   map_collision
     000023CA  A$lcc1026440$265                   map_collision
     000023CD  A$lcc1026440$269                   map_collision
     000023CD  C$map_collision.c$66$1_0$137       map_collision
     000023CF  A$lcc1026440$270                   map_collision
ASxxxx Linker V03.00/V05.40 + sdld,  page 57.
Hexadecimal  [32-Bits]

Area                                    Addr        Size        Decimal Bytes (Attributes)
--------------------------------        ----        ----        ------- ----- ------------
_CODE                               00000200    000028FB =       10491. bytes (REL,CON)

      Value  Global                              Global Defined In Module
      -----  --------------------------------   ------------------------
     000023D0  A$lcc1026440$271                   map_collision
     000023D1  A$lcc1026440$272                   map_collision
     000023D2  A$lcc1026440$273                   map_collision
     000023D3  A$lcc1026440$274                   map_collision
     000023D5  A$lcc1026440$275                   map_collision
     000023D6  A$lcc1026440$276                   map_collision
     000023D7  A$lcc1026440$277                   map_collision
     000023D8  A$lcc1026440$278                   map_collision
     000023D9  A$lcc1026440$279                   map_collision
     000023DB  A$lcc1026440$280                   map_collision
     000023DC  A$lcc1026440$281                   map_collision
     000023DD  A$lcc1026440$282                   map_collision
     000023DE  A$lcc1026440$283                   map_collision
     000023DF  A$lcc1026440$284                   map_collision
     000023E0  A$lcc1026440$285                   map_collision
     000023E1  A$lcc1026440$286                   map_collision
     000023E2  A$lcc1026440$287                   map_collision
     000023E3  A$lcc1026440$288                   map_collision
     000023E4  A$lcc1026440$289                   map_collision
     000023E5  A$lcc1026440$290                   map_collision
     000023E6  A$lcc1026440$291                   map_collision
     000023E7  A$lcc1026440$292                   map_collision
     000023E8  A$lcc1026440$293                   map_collision
     000023EA  A$lcc1026440$294                   map_collision
     000023EB  A$lcc1026440$295                   map_collision
     000023EC  A$lcc1026440$296                   map_collision
     000023ED  A$lcc1026440$297                   map_collision
     000023EE  A$lcc1026440$298                   map_collision
     000023EF  A$lcc1026440$299                   map_collision
     000023F0  A$lcc1026440$300                   map_collision
     000023F2  A$lcc1026440$301                   map_collision
     000023F3  A$lcc1026440$302                   map_collision
     000023F5  A$lcc1026440$303                   map_collision
     000023F6  A$lcc1026440$304                   map_collision
     000023F7  A$lcc1026440$305                   map_collision
     000023F8  A$lcc1026440$306                   map_collision
     000023F9  A$lcc1026440$307                   map_collision
     000023FA  A$lcc1026440$308                   map_collision
     000023FC  A$lcc1026440$309                   map_collision
     000023FE  A$lcc1026440$310                   map_collision
     000023FF  A$lcc1026440$312                   map_collision
     00002401  A$lcc1026440$313                   map_collision
     00002404  A$lcc1026440$317                   map_collision
     00002404  C$map_collision.c$67$1_0$137       map_collision
     00002406  A$lcc1026440$318                   map_collision
     00002407  A$lcc1026440$319                   map_collision
     00002408  A$lcc1026440$320                   map_collision
     00002409  A$lcc1026440$321                   map_collision
     0000240A  A$lcc1026440$322                   map_collision
     0000240B  A$lcc1026440$323                   map_collision
     0000240C  A$lcc1026440$324                   map_collision
ASxxxx Linker V03.00/V05.40 + sdld,  page 58.
Hexadecimal  [32-Bits]

Area                                    Addr        Size        Decimal Bytes (Attributes)
--------------------------------        ----        ----        ------- ----- ------------
_CODE                               00000200    000028FB =       10491. bytes (REL,CON)

      Value  Global                              Global Defined In Module
      -----  --------------------------------   ------------------------
     0000240D  A$lcc1026440$325                   map_collision
     0000240E  A$lcc1026440$326                   map_collision
     00002410  A$lcc1026440$327                   map_collision
     00002411  A$lcc1026440$328                   map_collision
     00002413  A$lcc1026440$329                   map_collision
     00002414  A$lcc1026440$330                   map_collision
     00002415  A$lcc1026440$331                   map_collision
     00002416  A$lcc1026440$332                   map_collision
     00002417  A$lcc1026440$333                   map_collision
     00002418  A$lcc1026440$334                   map_collision
     00002419  A$lcc1026440$335                   map_collision
     0000241A  A$lcc1026440$336                   map_collision
     0000241B  A$lcc1026440$337                   map_collision
     0000241C  A$lcc1026440$338                   map_collision
     0000241D  A$lcc1026440$339                   map_collision
     0000241E  A$lcc1026440$340                   map_collision
     0000241F  A$lcc1026440$341                   map_collision
     00002421  A$lcc1026440$342                   map_collision
     00002422  A$lcc1026440$343                   map_collision
     00002424  A$lcc1026440$344                   map_collision
     00002425  A$lcc1026440$345                   map_collision
     00002426  A$lcc1026440$346                   map_collision
     00002427  A$lcc1026440$347                   map_collision
     00002428  A$lcc1026440$348                   map_collision
     00002429  A$lcc1026440$349                   map_collision
     0000242B  A$lcc1026440$350                   map_collision
     0000242D  A$lcc1026440$351                   map_collision
     0000242E  A$lcc1026440$353                   map_collision
     00002430  A$lcc1026440$354                   map_collision
     00002433  A$lcc1026440$358                   map_collision
     00002433  C$map_collision.c$85$2_0$142       map_collision
     00002435  A$lcc1026440$359                   map_collision
     00002436  A$lcc1026440$360                   map_collision
     00002437  A$lcc1026440$361                   map_collision
     00002438  A$lcc1026440$362                   map_collision
     00002439  A$lcc1026440$363                   map_collision
     0000243A  A$lcc1026440$364                   map_collision
     0000243B  A$lcc1026440$365                   map_collision
     0000243C  A$lcc1026440$366                   map_collision
     0000243D  A$lcc1026440$367                   map_collision
     0000243E  A$lcc1026440$368                   map_collision
     0000243F  A$lcc1026440$369                   map_collision
     00002440  A$lcc1026440$370                   map_collision
     00002441  A$lcc1026440$371                   map_collision
     00002442  A$lcc1026440$372                   map_collision
     00002443  A$lcc1026440$373                   map_collision
     00002444  A$lcc1026440$374                   map_collision
     00002446  A$lcc1026440$375                   map_collision
     00002447  A$lcc1026440$376                   map_collision
     00002449  A$lcc1026440$377                   map_collision
     0000244A  A$lcc1026440$378                   map_collision
ASxxxx Linker V03.00/V05.40 + sdld,  page 59.
Hexadecimal  [32-Bits]

Area                                    Addr        Size        Decimal Bytes (Attributes)
--------------------------------        ----        ----        ------- ----- ------------
_CODE                               00000200    000028FB =       10491. bytes (REL,CON)

      Value  Global                              Global Defined In Module
      -----  --------------------------------   ------------------------
     0000244B  A$lcc1026440$379                   map_collision
     0000244C  A$lcc1026440$380                   map_collision
     0000244D  A$lcc1026440$381                   map_collision
     0000244E  A$lcc1026440$382                   map_collision
     00002450  A$lcc1026440$389                   map_collision
     00002450  C$map_collision.c$87$3_0$143       map_collision
     00002450  C$map_collision.c$88$3_0$143       map_collision
     00002451  A$lcc1026440$390                   map_collision
     00002452  A$lcc1026440$391                   map_collision
     00002453  A$lcc1026440$395                   map_collision
     00002453  C$map_collision.c$90$4_0$144       map_collision
     00002454  A$lcc1026440$396                   map_collision
     00002455  A$lcc1026440$397                   map_collision
     00002458  A$lcc1026440$398                   map_collision
     00002459  A$lcc1026440$399                   map_collision
     0000245A  A$lcc1026440$400                   map_collision
     0000245B  A$lcc1026440$401                   map_collision
     0000245C  A$lcc1026440$402                   map_collision
     0000245D  A$lcc1026440$403                   map_collision
     0000245E  A$lcc1026440$404                   map_collision
     0000245F  A$lcc1026440$405                   map_collision
     00002461  A$lcc1026440$406                   map_collision
     00002463  A$lcc1026440$410                   map_collision
     00002463  C$map_collision.c$91$4_0$144       map_collision
     00002465  A$lcc1026440$414                   map_collision
     00002465  C$map_collision.c$93$4_0$145       map_collision
     00002466  A$lcc1026440$415                   map_collision
     00002467  A$lcc1026440$416                   map_collision
     0000246A  A$lcc1026440$417                   map_collision
     0000246B  A$lcc1026440$418                   map_collision
     0000246C  A$lcc1026440$419                   map_collision
     0000246D  A$lcc1026440$420                   map_collision
     0000246E  A$lcc1026440$421                   map_collision
     0000246F  A$lcc1026440$422                   map_collision
     00002470  A$lcc1026440$423                   map_collision
     00002472  A$lcc1026440$424                   map_collision
     00002473  A$lcc1026440$425                   map_collision
     00002474  A$lcc1026440$426                   map_collision
     00002475  A$lcc1026440$427                   map_collision
     00002476  A$lcc1026440$428                   map_collision
     00002477  A$lcc1026440$429                   map_collision
     00002478  A$lcc1026440$433                   map_collision
     00002478  C$map_collision.c$94$4_0$145       map_collision
     0000247A  A$lcc1026440$437                   map_collision
     0000247A  C$map_collision.c$96$3_0$143       map_collision
     0000247B  A$lcc1026440$438                   map_collision
     0000247C  A$lcc1026440$439                   map_collision
     0000247F  A$lcc1026440$444                   map_collision
     00002481  A$lcc1026440$449                   map_collision
     00002481  C$map_collision.c$98$2_0$137       map_collision
     00002481  XG$Map_Collision$0$0               map_collision
ASxxxx Linker V03.00/V05.40 + sdld,  page 60.
Hexadecimal  [32-Bits]

Area                                    Addr        Size        Decimal Bytes (Attributes)
--------------------------------        ----        ----        ------- ----- ------------
_CODE                               00000200    000028FB =       10491. bytes (REL,CON)

      Value  Global                              Global Defined In Module
      -----  --------------------------------   ------------------------
     00002482  A$lcc1026442$61                    map_00
     00002482  C$map_00.c$6$0_0$32                map_00
     00002482  C$map_00.c$7$1_0$32                map_00
     00002482  G$Map_00_Create$0$0                map_00
     00002482  _Map_00_Create                     map_00
     00002485  A$lcc1026442$62                    map_00
     00002487  A$lcc1026442$63                    map_00
     00002488  A$lcc1026442$64                    map_00
     0000248A  A$lcc1026442$68                    map_00
     0000248A  C$map_00.c$8$1_0$32                map_00
     0000248B  A$lcc1026442$69                    map_00
     0000248D  A$lcc1026442$70                    map_00
     0000248E  A$lcc1026442$71                    map_00
     00002490  A$lcc1026442$75                    map_00
     00002490  C$map_00.c$10$1_0$32               map_00
     00002493  A$lcc1026442$76                    map_00
     00002494  A$lcc1026442$77                    map_00
     00002495  A$lcc1026442$78                    map_00
     00002496  A$lcc1026442$86                    map_00
     00002496  C$map_00.c$11$1_0$32               map_00
     00002496  XG$Map_00_Create$0$0               map_00
     00002497  G$map_00_example_collision$0_0$0   map_00_collision
     00002497  _map_00_example_collision          map_00_collision
     000025FF  A$lcc1026444$57                    map_00_init
     000025FF  C$map_00_init.c$12$0_0$158         map_00_init
     000025FF  G$hello_event$0$0                  map_00_init
     000025FF  _hello_event                       map_00_init
     00002601  A$lcc1026444$61                    map_00_init
     00002601  C$map_00_init.c$13$2_0$158         map_00_init
     00002603  A$lcc1026444$62                    map_00_init
     00002605  A$lcc1026444$63                    map_00_init
     00002606  A$lcc1026444$64                    map_00_init
     00002608  A$lcc1026444$65                    map_00_init
     00002609  A$lcc1026444$66                    map_00_init
     0000260B  A$lcc1026444$67                    map_00_init
     0000260C  A$lcc1026444$68                    map_00_init
     0000260D  A$lcc1026444$69                    map_00_init
     0000260F  A$lcc1026444$70                    map_00_init
     00002610  A$lcc1026444$71                    map_00_init
     00002612  A$lcc1026444$72                    map_00_init
     00002613  A$lcc1026444$73                    map_00_init
     00002615  A$lcc1026444$74                    map_00_init
     00002616  A$lcc1026444$75                    map_00_init
     00002618  A$lcc1026444$76                    map_00_init
     00002619  A$lcc1026444$77                    map_00_init
     0000261B  A$lcc1026444$78                    map_00_init
     0000261C  A$lcc1026444$79                    map_00_init
     0000261E  A$lcc1026444$80                    map_00_init
     0000261F  A$lcc1026444$81                    map_00_init
     00002621  A$lcc1026444$82                    map_00_init
     00002622  A$lcc1026444$83                    map_00_init
ASxxxx Linker V03.00/V05.40 + sdld,  page 61.
Hexadecimal  [32-Bits]

Area                                    Addr        Size        Decimal Bytes (Attributes)
--------------------------------        ----        ----        ------- ----- ------------
_CODE                               00000200    000028FB =       10491. bytes (REL,CON)

      Value  Global                              Global Defined In Module
      -----  --------------------------------   ------------------------
     00002624  A$lcc1026444$84                    map_00_init
     00002625  A$lcc1026444$85                    map_00_init
     00002627  A$lcc1026444$86                    map_00_init
     00002628  A$lcc1026444$90                    map_00_init
     0000262B  A$lcc1026444$91                    map_00_init
     0000262C  A$lcc1026444$93                    map_00_init
     0000262F  A$lcc1026444$94                    map_00_init
     00002630  A$lcc1026444$95                    map_00_init
     00002631  A$lcc1026444$96                    map_00_init
     00002632  A$lcc1026444$97                    map_00_init
     00002633  A$lcc1026444$98                    map_00_init
     00002635  A$lcc1026444$102                   map_00_init
     00002635  C$map_00_init.c$15$3_0$159         map_00_init
     00002636  A$lcc1026444$103                   map_00_init
     00002639  A$lcc1026444$104                   map_00_init
     0000263A  A$lcc1026444$105                   map_00_init
     0000263B  A$lcc1026444$106                   map_00_init
     0000263C  A$lcc1026444$107                   map_00_init
     0000263E  A$lcc1026444$108                   map_00_init
     00002640  A$lcc1026444$109                   map_00_init
     00002641  A$lcc1026444$113                   map_00_init
     00002641  C$map_00_init.c$16$3_0$159         map_00_init
     00002644  A$lcc1026444$114                   map_00_init
     00002645  A$lcc1026444$115                   map_00_init
     00002646  A$lcc1026444$116                   map_00_init
     00002647  A$lcc1026444$117                   map_00_init
     00002648  A$lcc1026444$118                   map_00_init
     0000264A  A$lcc1026444$119                   map_00_init
     0000264B  A$lcc1026444$120                   map_00_init
     0000264C  A$lcc1026444$121                   map_00_init
     0000264E  A$lcc1026444$122                   map_00_init
     0000264F  A$lcc1026444$123                   map_00_init
     00002650  A$lcc1026444$124                   map_00_init
     00002652  A$lcc1026444$125                   map_00_init
     00002653  A$lcc1026444$126                   map_00_init
     00002654  A$lcc1026444$127                   map_00_init
     00002655  A$lcc1026444$128                   map_00_init
     00002656  A$lcc1026444$129                   map_00_init
     00002659  A$lcc1026444$130                   map_00_init
     0000265B  A$lcc1026444$134                   map_00_init
     0000265B  C$map_00_init.c$14$2_0$158         map_00_init
     0000265C  A$lcc1026444$135                   map_00_init
     0000265E  A$lcc1026444$140                   map_00_init
     00002660  A$lcc1026444$145                   map_00_init
     00002660  C$map_00_init.c$18$2_0$158         map_00_init
     00002660  XG$hello_event$0$0                 map_00_init
     00002661  A$lcc1026444$155                   map_00_init
     00002661  C$map_00_init.c$20$2_0$161         map_00_init
     00002661  G$Map_00_Init$0$0                  map_00_init
     00002661  _Map_00_Init                       map_00_init
     00002662  A$lcc1026444$156                   map_00_init
ASxxxx Linker V03.00/V05.40 + sdld,  page 62.
Hexadecimal  [32-Bits]

Area                                    Addr        Size        Decimal Bytes (Attributes)
--------------------------------        ----        ----        ------- ----- ------------
_CODE                               00000200    000028FB =       10491. bytes (REL,CON)

      Value  Global                              Global Defined In Module
      -----  --------------------------------   ------------------------
     00002663  A$lcc1026444$157                   map_00_init
     00002664  A$lcc1026444$161                   map_00_init
     00002664  C$map_00_init.c$22$1_0$161         map_00_init
     00002667  A$lcc1026444$162                   map_00_init
     00002668  A$lcc1026444$166                   map_00_init
     00002668  C$map_00_init.c$23$1_0$161         map_00_init
     0000266B  A$lcc1026444$167                   map_00_init
     0000266D  A$lcc1026444$168                   map_00_init
     0000266E  A$lcc1026444$169                   map_00_init
     00002670  A$lcc1026444$173                   map_00_init
     00002670  C$map_00_init.c$24$1_0$161         map_00_init
     00002673  A$lcc1026444$174                   map_00_init
     00002675  A$lcc1026444$178                   map_00_init
     00002675  C$map_00_init.c$25$1_0$161         map_00_init
     00002676  A$lcc1026444$179                   map_00_init
     00002677  A$lcc1026444$180                   map_00_init
     00002679  A$lcc1026444$184                   map_00_init
     00002679  C$map_00_init.c$27$1_0$161         map_00_init
     0000267C  A$lcc1026444$185                   map_00_init
     0000267E  A$lcc1026444$189                   map_00_init
     0000267E  C$map_00_init.c$28$1_0$161         map_00_init
     00002681  A$lcc1026444$190                   map_00_init
     00002683  A$lcc1026444$191                   map_00_init
     00002684  A$lcc1026444$192                   map_00_init
     00002686  A$lcc1026444$196                   map_00_init
     00002686  C$map_00_init.c$30$1_0$161         map_00_init
     00002689  A$lcc1026444$197                   map_00_init
     0000268A  A$lcc1026444$198                   map_00_init
     0000268C  A$lcc1026444$199                   map_00_init
     0000268D  A$lcc1026444$200                   map_00_init
     0000268F  A$lcc1026444$204                   map_00_init
     0000268F  C$map_00_init.c$31$1_0$161         map_00_init
     00002690  A$lcc1026444$205                   map_00_init
     00002691  A$lcc1026444$206                   map_00_init
     00002694  A$lcc1026444$210                   map_00_init
     00002694  C$map_00_init.c$33$1_0$161         map_00_init
     00002697  A$lcc1026444$211                   map_00_init
     00002698  A$lcc1026444$212                   map_00_init
     0000269B  A$lcc1026444$213                   map_00_init
     0000269C  A$lcc1026444$214                   map_00_init
     0000269F  A$lcc1026444$215                   map_00_init
     000026A1  A$lcc1026444$219                   map_00_init
     000026A1  C$map_00_init.c$34$1_0$161         map_00_init
     000026A4  A$lcc1026444$220                   map_00_init
     000026A5  A$lcc1026444$221                   map_00_init
     000026A8  A$lcc1026444$222                   map_00_init
     000026A9  A$lcc1026444$223                   map_00_init
     000026AA  A$lcc1026444$224                   map_00_init
     000026AB  A$lcc1026444$225                   map_00_init
     000026AC  A$lcc1026444$226                   map_00_init
     000026AF  A$lcc1026444$227                   map_00_init
ASxxxx Linker V03.00/V05.40 + sdld,  page 63.
Hexadecimal  [32-Bits]

Area                                    Addr        Size        Decimal Bytes (Attributes)
--------------------------------        ----        ----        ------- ----- ------------
_CODE                               00000200    000028FB =       10491. bytes (REL,CON)

      Value  Global                              Global Defined In Module
      -----  --------------------------------   ------------------------
     000026B1  A$lcc1026444$235                   map_00_init
     000026B1  C$map_00_init.c$35$1_0$161         map_00_init
     000026B1  XG$Map_00_Init$0$0                 map_00_init
     000026B2  A$lcc1026445$53                    map_00_init_npc
     000026B2  C$map_00_init_npc.c$10$0_0$163     map_00_init_npc
     000026B2  G$Map_00_NPC_Init$0$0              map_00_init_npc
     000026B2  _Map_00_NPC_Init                   map_00_init_npc
     000026B4  A$lcc1026445$57                    map_00_init_npc
     000026B4  C$map_00_init_npc.c$11$1_0$163     map_00_init_npc
     000026B7  A$lcc1026445$58                    map_00_init_npc
     000026B8  A$lcc1026445$59                    map_00_init_npc
     000026BA  A$lcc1026445$60                    map_00_init_npc
     000026BD  A$lcc1026445$61                    map_00_init_npc
     000026BE  A$lcc1026445$62                    map_00_init_npc
     000026C0  A$lcc1026445$66                    map_00_init_npc
     000026C0  C$map_00_init_npc.c$12$1_0$163     map_00_init_npc
     000026C3  A$lcc1026445$67                    map_00_init_npc
     000026C6  A$lcc1026445$68                    map_00_init_npc
     000026C7  A$lcc1026445$69                    map_00_init_npc
     000026C9  A$lcc1026445$70                    map_00_init_npc
     000026CA  A$lcc1026445$71                    map_00_init_npc
     000026CC  A$lcc1026445$75                    map_00_init_npc
     000026CC  C$map_00_init_npc.c$14$1_0$163     map_00_init_npc
     000026CF  A$lcc1026445$76                    map_00_init_npc
     000026D2  A$lcc1026445$77                    map_00_init_npc
     000026D3  A$lcc1026445$78                    map_00_init_npc
     000026D4  A$lcc1026445$79                    map_00_init_npc
     000026D6  A$lcc1026445$80                    map_00_init_npc
     000026D7  A$lcc1026445$81                    map_00_init_npc
     000026DA  A$lcc1026445$82                    map_00_init_npc
     000026DC  A$lcc1026445$83                    map_00_init_npc
     000026DD  A$lcc1026445$84                    map_00_init_npc
     000026DF  A$lcc1026445$85                    map_00_init_npc
     000026E1  A$lcc1026445$86                    map_00_init_npc
     000026E2  A$lcc1026445$87                    map_00_init_npc
     000026E3  A$lcc1026445$88                    map_00_init_npc
     000026E4  A$lcc1026445$89                    map_00_init_npc
     000026E5  A$lcc1026445$90                    map_00_init_npc
     000026E6  A$lcc1026445$91                    map_00_init_npc
     000026E7  A$lcc1026445$95                    map_00_init_npc
     000026E7  C$map_00_init_npc.c$15$1_0$163     map_00_init_npc
     000026EA  A$lcc1026445$96                    map_00_init_npc
     000026EB  A$lcc1026445$97                    map_00_init_npc
     000026EC  A$lcc1026445$98                    map_00_init_npc
     000026EE  A$lcc1026445$99                    map_00_init_npc
     000026EF  A$lcc1026445$100                   map_00_init_npc
     000026F1  A$lcc1026445$101                   map_00_init_npc
     000026F3  A$lcc1026445$102                   map_00_init_npc
     000026F4  A$lcc1026445$103                   map_00_init_npc
     000026F5  A$lcc1026445$104                   map_00_init_npc
     000026F7  A$lcc1026445$105                   map_00_init_npc
ASxxxx Linker V03.00/V05.40 + sdld,  page 64.
Hexadecimal  [32-Bits]

Area                                    Addr        Size        Decimal Bytes (Attributes)
--------------------------------        ----        ----        ------- ----- ------------
_CODE                               00000200    000028FB =       10491. bytes (REL,CON)

      Value  Global                              Global Defined In Module
      -----  --------------------------------   ------------------------
     000026F8  A$lcc1026445$106                   map_00_init_npc
     000026F9  A$lcc1026445$107                   map_00_init_npc
     000026FA  A$lcc1026445$108                   map_00_init_npc
     000026FB  A$lcc1026445$109                   map_00_init_npc
     000026FC  A$lcc1026445$110                   map_00_init_npc
     000026FD  A$lcc1026445$111                   map_00_init_npc
     000026FE  A$lcc1026445$115                   map_00_init_npc
     000026FE  C$map_00_init_npc.c$17$1_0$163     map_00_init_npc
     00002701  A$lcc1026445$116                   map_00_init_npc
     00002702  A$lcc1026445$117                   map_00_init_npc
     00002704  A$lcc1026445$118                   map_00_init_npc
     00002707  A$lcc1026445$119                   map_00_init_npc
     00002708  A$lcc1026445$120                   map_00_init_npc
     0000270A  A$lcc1026445$124                   map_00_init_npc
     0000270A  C$map_00_init_npc.c$18$1_0$163     map_00_init_npc
     0000270D  A$lcc1026445$125                   map_00_init_npc
     00002710  A$lcc1026445$126                   map_00_init_npc
     00002711  A$lcc1026445$127                   map_00_init_npc
     00002713  A$lcc1026445$128                   map_00_init_npc
     00002714  A$lcc1026445$129                   map_00_init_npc
     00002716  A$lcc1026445$133                   map_00_init_npc
     00002716  C$map_00_init_npc.c$19$1_0$163     map_00_init_npc
     00002719  A$lcc1026445$134                   map_00_init_npc
     0000271C  A$lcc1026445$135                   map_00_init_npc
     0000271D  A$lcc1026445$136                   map_00_init_npc
     0000271F  A$lcc1026445$137                   map_00_init_npc
     00002720  A$lcc1026445$138                   map_00_init_npc
     00002722  A$lcc1026445$142                   map_00_init_npc
     00002722  C$map_00_init_npc.c$22$2_0$164     map_00_init_npc
     00002724  A$lcc1026445$143                   map_00_init_npc
     00002726  A$lcc1026445$144                   map_00_init_npc
     00002727  A$lcc1026445$145                   map_00_init_npc
     00002729  A$lcc1026445$146                   map_00_init_npc
     0000272A  A$lcc1026445$147                   map_00_init_npc
     0000272C  A$lcc1026445$148                   map_00_init_npc
     0000272D  A$lcc1026445$149                   map_00_init_npc
     0000272F  A$lcc1026445$150                   map_00_init_npc
     00002730  A$lcc1026445$151                   map_00_init_npc
     00002732  A$lcc1026445$152                   map_00_init_npc
     00002733  A$lcc1026445$153                   map_00_init_npc
     00002735  A$lcc1026445$154                   map_00_init_npc
     00002736  A$lcc1026445$155                   map_00_init_npc
     00002738  A$lcc1026445$156                   map_00_init_npc
     00002739  A$lcc1026445$157                   map_00_init_npc
     0000273B  A$lcc1026445$161                   map_00_init_npc
     0000273B  C$map_00_init_npc.c$29$1_1$164     map_00_init_npc
     0000273E  A$lcc1026445$162                   map_00_init_npc
     0000273F  A$lcc1026445$163                   map_00_init_npc
     00002741  A$lcc1026445$164                   map_00_init_npc
     00002742  A$lcc1026445$165                   map_00_init_npc
     00002743  A$lcc1026445$166                   map_00_init_npc
ASxxxx Linker V03.00/V05.40 + sdld,  page 65.
Hexadecimal  [32-Bits]

Area                                    Addr        Size        Decimal Bytes (Attributes)
--------------------------------        ----        ----        ------- ----- ------------
_CODE                               00000200    000028FB =       10491. bytes (REL,CON)

      Value  Global                              Global Defined In Module
      -----  --------------------------------   ------------------------
     00002744  A$lcc1026445$167                   map_00_init_npc
     00002745  A$lcc1026445$168                   map_00_init_npc
     00002746  A$lcc1026445$169                   map_00_init_npc
     00002747  A$lcc1026445$170                   map_00_init_npc
     00002748  A$lcc1026445$171                   map_00_init_npc
     00002749  A$lcc1026445$172                   map_00_init_npc
     0000274A  A$lcc1026445$173                   map_00_init_npc
     0000274D  A$lcc1026445$174                   map_00_init_npc
     0000274E  A$lcc1026445$175                   map_00_init_npc
     0000274F  A$lcc1026445$176                   map_00_init_npc
     00002750  A$lcc1026445$177                   map_00_init_npc
     00002753  A$lcc1026445$178                   map_00_init_npc
     00002754  A$lcc1026445$179                   map_00_init_npc
     00002756  A$lcc1026445$180                   map_00_init_npc
     00002757  A$lcc1026445$181                   map_00_init_npc
     00002758  A$lcc1026445$182                   map_00_init_npc
     0000275B  A$lcc1026445$183                   map_00_init_npc
     0000275C  A$lcc1026445$184                   map_00_init_npc
     0000275D  A$lcc1026445$185                   map_00_init_npc
     0000275E  A$lcc1026445$186                   map_00_init_npc
     0000275F  A$lcc1026445$187                   map_00_init_npc
     00002760  A$lcc1026445$188                   map_00_init_npc
     00002761  A$lcc1026445$189                   map_00_init_npc
     00002764  A$lcc1026445$190                   map_00_init_npc
     00002767  A$lcc1026445$194                   map_00_init_npc
     00002769  A$lcc1026445$199                   map_00_init_npc
     00002769  C$map_00_init_npc.c$30$1_1$163     map_00_init_npc
     00002769  XG$Map_00_NPC_Init$0$0             map_00_init_npc
     0000276A  A$lcc1026446$56                    map_00_update
     0000276A  C$map_00_update.c$11$0_0$171       map_00_update
     0000276A  G$Map_00_Update$0$0                map_00_update
     0000276A  _Map_00_Update                     map_00_update
     0000276C  A$lcc1026446$57                    map_00_update
     0000276E  A$lcc1026446$58                    map_00_update
     0000276F  A$lcc1026446$59                    map_00_update
     00002770  A$lcc1026446$60                    map_00_update
     00002771  A$lcc1026446$64                    map_00_update
     00002771  C$map_00_update.c$13$1_0$171       map_00_update
     00002774  A$lcc1026446$68                    map_00_update
     00002774  C$map_00_update.c$15$1_1$172       map_00_update
     00002776  A$lcc1026446$69                    map_00_update
     00002777  A$lcc1026446$70                    map_00_update
     00002778  A$lcc1026446$71                    map_00_update
     00002779  A$lcc1026446$72                    map_00_update
     0000277C  A$lcc1026446$73                    map_00_update
     0000277D  A$lcc1026446$74                    map_00_update
     0000277E  A$lcc1026446$75                    map_00_update
     0000277F  A$lcc1026446$76                    map_00_update
     00002780  A$lcc1026446$77                    map_00_update
     00002782  A$lcc1026446$78                    map_00_update
     00002783  A$lcc1026446$79                    map_00_update
ASxxxx Linker V03.00/V05.40 + sdld,  page 66.
Hexadecimal  [32-Bits]

Area                                    Addr        Size        Decimal Bytes (Attributes)
--------------------------------        ----        ----        ------- ----- ------------
_CODE                               00000200    000028FB =       10491. bytes (REL,CON)

      Value  Global                              Global Defined In Module
      -----  --------------------------------   ------------------------
     00002784  A$lcc1026446$80                    map_00_update
     00002785  A$lcc1026446$84                    map_00_update
     00002786  A$lcc1026446$85                    map_00_update
     00002787  A$lcc1026446$86                    map_00_update
     0000278A  A$lcc1026446$87                    map_00_update
     0000278B  A$lcc1026446$88                    map_00_update
     0000278C  A$lcc1026446$89                    map_00_update
     0000278D  A$lcc1026446$90                    map_00_update
     0000278F  A$lcc1026446$91                    map_00_update
     00002790  A$lcc1026446$92                    map_00_update
     00002791  A$lcc1026446$93                    map_00_update
     00002792  A$lcc1026446$94                    map_00_update
     00002794  A$lcc1026446$95                    map_00_update
     00002795  A$lcc1026446$96                    map_00_update
     00002798  A$lcc1026446$98                    map_00_update
     0000279A  A$lcc1026446$99                    map_00_update
     0000279B  A$lcc1026446$100                   map_00_update
     0000279C  A$lcc1026446$101                   map_00_update
     0000279D  A$lcc1026446$102                   map_00_update
     0000279E  A$lcc1026446$103                   map_00_update
     0000279F  A$lcc1026446$104                   map_00_update
     000027A1  A$lcc1026446$105                   map_00_update
     000027A2  A$lcc1026446$106                   map_00_update
     000027A3  A$lcc1026446$107                   map_00_update
     000027A4  A$lcc1026446$108                   map_00_update
     000027A5  A$lcc1026446$109                   map_00_update
     000027A7  A$lcc1026446$113                   map_00_update
     000027A7  C$map_00_update.c$18$3_1$174       map_00_update
     000027A8  A$lcc1026446$114                   map_00_update
     000027A9  A$lcc1026446$115                   map_00_update
     000027AA  A$lcc1026446$116                   map_00_update
     000027AB  A$lcc1026446$117                   map_00_update
     000027AC  A$lcc1026446$118                   map_00_update
     000027AD  A$lcc1026446$119                   map_00_update
     000027AE  A$lcc1026446$120                   map_00_update
     000027B1  A$lcc1026446$121                   map_00_update
     000027B2  A$lcc1026446$125                   map_00_update
     000027B2  C$map_00_update.c$17$2_1$173       map_00_update
     000027B3  A$lcc1026446$126                   map_00_update
     000027B5  A$lcc1026446$131                   map_00_update
     000027B5  C$map_00_update.c$21$1_1$172       map_00_update
     000027B8  A$lcc1026446$132                   map_00_update
     000027BB  A$lcc1026446$136                   map_00_update
     000027BB  C$map_00_update.c$22$1_1$172       map_00_update
     000027BC  A$lcc1026446$137                   map_00_update
     000027BD  A$lcc1026446$138                   map_00_update
     000027BE  A$lcc1026446$139                   map_00_update
     000027BF  A$lcc1026446$140                   map_00_update
     000027C0  A$lcc1026446$141                   map_00_update
     000027C1  A$lcc1026446$142                   map_00_update
     000027C4  A$lcc1026446$146                   map_00_update
ASxxxx Linker V03.00/V05.40 + sdld,  page 67.
Hexadecimal  [32-Bits]

Area                                    Addr        Size        Decimal Bytes (Attributes)
--------------------------------        ----        ----        ------- ----- ------------
_CODE                               00000200    000028FB =       10491. bytes (REL,CON)

      Value  Global                              Global Defined In Module
      -----  --------------------------------   ------------------------
     000027C4  C$map_00_update.c$24$1_1$172       map_00_update
     000027C6  A$lcc1026446$147                   map_00_update
     000027C7  A$lcc1026446$148                   map_00_update
     000027C8  A$lcc1026446$149                   map_00_update
     000027C9  A$lcc1026446$150                   map_00_update
     000027CC  A$lcc1026446$157                   map_00_update
     000027CC  C$map_00_update.c$26$1_1$172       map_00_update
     000027CE  A$lcc1026446$162                   map_00_update
     000027CE  C$map_00_update.c$27$1_1$171       map_00_update
     000027CE  XG$Map_00_Update$0$0               map_00_update
     000027CF  A$lcc1026447$66                    main
     000027CF  C$main.c$23$0_0$179                main
     000027CF  C$main.c$25$1_0$179                main
     000027CF  G$load_number_tiles$0$0            main
     000027CF  _load_number_tiles                 main
     000027D2  A$lcc1026447$67                    main
     000027D3  A$lcc1026447$68                    main
     000027D6  A$lcc1026447$69                    main
     000027D7  A$lcc1026447$70                    main
     000027DA  A$lcc1026447$71                    main
     000027DC  A$lcc1026447$75                    main
     000027DC  C$main.c$26$1_0$179                main
     000027DF  A$lcc1026447$76                    main
     000027E0  A$lcc1026447$77                    main
     000027E3  A$lcc1026447$78                    main
     000027E4  A$lcc1026447$79                    main
     000027E7  A$lcc1026447$80                    main
     000027E9  A$lcc1026447$88                    main
     000027E9  C$main.c$27$1_0$179                main
     000027E9  XG$load_number_tiles$0$0           main
     000027EA  A$lcc1026447$98                    main
     000027EA  C$main.c$29$1_0$181                main
     000027EA  G$main$0$0                         main
     000027EA  _main                              main
     000027EB  A$lcc1026447$99                    main
     000027EC  A$lcc1026447$103                   main
     000027EC  C$main.c$31$1_0$181                main
     000027EE  A$lcc1026447$104                   main
     000027F0  A$lcc1026447$105                   main
     000027F2  A$lcc1026447$109                   main
     000027F2  C$main.c$32$1_0$181                main
     000027F4  A$lcc1026447$110                   main
     000027F6  A$lcc1026447$111                   main
     000027F8  A$lcc1026447$115                   main
     000027F8  C$main.c$41$1_1$182                main
     000027FB  A$lcc1026447$116                   main
     000027FD  A$lcc1026447$117                   main
     000027FE  A$lcc1026447$118                   main
     00002800  A$lcc1026447$122                   main
     00002800  C$main.c$43$1_1$182                main
     00002803  A$lcc1026447$126                   main
ASxxxx Linker V03.00/V05.40 + sdld,  page 68.
Hexadecimal  [32-Bits]

Area                                    Addr        Size        Decimal Bytes (Attributes)
--------------------------------        ----        ----        ------- ----- ------------
_CODE                               00000200    000028FB =       10491. bytes (REL,CON)

      Value  Global                              Global Defined In Module
      -----  --------------------------------   ------------------------
     00002803  C$main.c$44$1_1$182                main
     00002806  A$lcc1026447$130                   main
     00002806  C$main.c$45$1_1$182                main
     00002809  A$lcc1026447$134                   main
     00002809  C$main.c$48$1_2$183                main
     0000280C  A$lcc1026447$135                   main
     0000280F  A$lcc1026447$139                   main
     0000280F  C$main.c$50$1_2$183                main
     00002812  A$lcc1026447$140                   main
     00002815  A$lcc1026447$141                   main
     00002816  A$lcc1026447$142                   main
     00002817  A$lcc1026447$143                   main
     00002818  A$lcc1026447$144                   main
     00002819  A$lcc1026447$145                   main
     0000281A  A$lcc1026447$146                   main
     0000281B  A$lcc1026447$147                   main
     0000281C  A$lcc1026447$148                   main
     0000281F  A$lcc1026447$149                   main
     00002821  A$lcc1026447$150                   main
     00002822  A$lcc1026447$151                   main
     00002824  A$lcc1026447$152                   main
     00002825  A$lcc1026447$153                   main
     00002826  A$lcc1026447$154                   main
     00002829  A$lcc1026447$158                   main
     00002829  C$main.c$52$1_2$183                main
     0000282C  A$lcc1026447$162                   main
     0000282C  C$main.c$53$1_3$184                main
     0000282F  A$lcc1026447$163                   main
     00002831  A$lcc1026447$164                   main
     00002833  A$lcc1026447$168                   main
     00002833  C$main.c$54$1_3$184                main
     00002834  A$lcc1026447$169                   main
     00002837  A$lcc1026447$170                   main
     00002839  A$lcc1026447$171                   main
     0000283A  A$lcc1026447$175                   main
     0000283A  C$main.c$55$1_3$184                main
     0000283C  A$lcc1026447$176                   main
     0000283D  A$lcc1026447$177                   main
     00002840  A$lcc1026447$178                   main
     00002841  A$lcc1026447$179                   main
     00002844  A$lcc1026447$180                   main
     00002845  A$lcc1026447$181                   main
     00002848  A$lcc1026447$182                   main
     0000284A  A$lcc1026447$186                   main
     0000284A  C$main.c$56$1_3$184                main
     0000284C  A$lcc1026447$187                   main
     0000284D  A$lcc1026447$188                   main
     00002850  A$lcc1026447$189                   main
     00002851  A$lcc1026447$190                   main
     00002854  A$lcc1026447$191                   main
     00002855  A$lcc1026447$192                   main
ASxxxx Linker V03.00/V05.40 + sdld,  page 69.
Hexadecimal  [32-Bits]

Area                                    Addr        Size        Decimal Bytes (Attributes)
--------------------------------        ----        ----        ------- ----- ------------
_CODE                               00000200    000028FB =       10491. bytes (REL,CON)

      Value  Global                              Global Defined In Module
      -----  --------------------------------   ------------------------
     00002858  A$lcc1026447$193                   main
     0000285A  A$lcc1026447$198                   main
     0000285A  C$main.c$58$1_3$184                main
     0000285D  A$lcc1026447$199                   main
     0000285E  A$lcc1026447$200                   main
     0000285F  A$lcc1026447$201                   main
     00002861  A$lcc1026447$205                   main
     00002861  C$main.c$60$2_3$185                main
     00002864  A$lcc1026447$206                   main
     00002865  A$lcc1026447$207                   main
     00002866  A$lcc1026447$208                   main
     00002867  A$lcc1026447$209                   main
     00002868  A$lcc1026447$210                   main
     00002869  A$lcc1026447$211                   main
     0000286A  A$lcc1026447$212                   main
     0000286B  A$lcc1026447$213                   main
     0000286C  A$lcc1026447$214                   main
     0000286D  A$lcc1026447$215                   main
     0000286E  A$lcc1026447$216                   main
     0000286F  A$lcc1026447$217                   main
     00002870  A$lcc1026447$218                   main
     00002873  A$lcc1026447$219                   main
     00002874  A$lcc1026447$220                   main
     00002875  A$lcc1026447$221                   main
     00002876  A$lcc1026447$226                   main
     00002876  C$main.c$62$2_3$185                main
     00002879  A$lcc1026447$227                   main
     0000287B  A$lcc1026447$232                   main
     0000287C  A$lcc1026447$233                   main
     0000287D  A$lcc1026447$238                   main
     0000287D  C$main.c$64$1_3$181                main
     0000287D  XG$main$0$0                        main
     0000287E  _free                              free
     0000298E  ___sdcc_heap_init                  malloc
     000029B0  _malloc                            malloc
     00002AB6  __mulsuchar                        mul
     00002AB9  __muluschar                        mul
     00002AC2  __mulschar                         mul
     00002ACA  __mulint                           mul
     00002AE9  __muluchar                         mul
ASxxxx Linker V03.00/V05.40 + sdld,  page 70.
Hexadecimal  [32-Bits]

Area                                    Addr        Size        Decimal Bytes (Attributes)
--------------------------------        ----        ----        ------- ----- ------------
_HEADER0                            00000000    00000001 =           1. bytes (ABS,CON)

      Value  Global                              Global Defined In Module
      -----  --------------------------------   ------------------------
     00000020  .call_hl                           Runtime

ASxxxx Linker V03.00/V05.40 + sdld,  page 71.
Hexadecimal  [32-Bits]

Area                                    Addr        Size        Decimal Bytes (Attributes)
--------------------------------        ----        ----        ------- ----- ------------
_HEADER1                            00000000    00000005 =           5. bytes (ABS,CON)

      Value  Global                              Global Defined In Module
      -----  --------------------------------   ------------------------
     00000028  .MemsetSmall                       Runtime

ASxxxx Linker V03.00/V05.40 + sdld,  page 72.
Hexadecimal  [32-Bits]

Area                                    Addr        Size        Decimal Bytes (Attributes)
--------------------------------        ----        ----        ------- ----- ------------
_HEADER2                            00000000    00000007 =           7. bytes (ABS,CON)

      Value  Global                              Global Defined In Module
      -----  --------------------------------   ------------------------
     00000030  .MemcpySmall                       Runtime

ASxxxx Linker V03.00/V05.40 + sdld,  page 73.
Hexadecimal  [32-Bits]

Area                                    Addr        Size        Decimal Bytes (Attributes)
--------------------------------        ----        ----        ------- ----- ------------
_HEADER3                            00000000    00000008 =           8. bytes (ABS,CON)

      Value  Global                              Global Defined In Module
      -----  --------------------------------   ------------------------
ASxxxx Linker V03.00/V05.40 + sdld,  page 74.
Hexadecimal  [32-Bits]

Area                                    Addr        Size        Decimal Bytes (Attributes)
--------------------------------        ----        ----        ------- ----- ------------
_HEADER4                            00000000    00000060 =          96. bytes (ABS,CON)

      Value  Global                              Global Defined In Module
      -----  --------------------------------   ------------------------
     00000080  .int                               Runtime
     0000008F  _wait_int_handler                  Runtime
     0000009C  __standard_VBL_handler             Runtime
     000000AB  _refresh_OAM                       Runtime
     000000CC  _set_interrupts                    Runtime

ASxxxx Linker V03.00/V05.40 + sdld,  page 75.
Hexadecimal  [32-Bits]

Area                                    Addr        Size        Decimal Bytes (Attributes)
--------------------------------        ----        ----        ------- ----- ------------
_HEADER5                            00000000    00000001 =           1. bytes (ABS,CON)

      Value  Global                              Global Defined In Module
      -----  --------------------------------   ------------------------
ASxxxx Linker V03.00/V05.40 + sdld,  page 76.
Hexadecimal  [32-Bits]

Area                                    Addr        Size        Decimal Bytes (Attributes)
--------------------------------        ----        ----        ------- ----- ------------
_HEADER6                            00000000    00000002 =           2. bytes (ABS,CON)

      Value  Global                              Global Defined In Module
      -----  --------------------------------   ------------------------
ASxxxx Linker V03.00/V05.40 + sdld,  page 77.
Hexadecimal  [32-Bits]

Area                                    Addr        Size        Decimal Bytes (Attributes)
--------------------------------        ----        ----        ------- ----- ------------
_HEADER7                            00000000    00000030 =          48. bytes (ABS,CON)

      Value  Global                              Global Defined In Module
      -----  --------------------------------   ------------------------
ASxxxx Linker V03.00/V05.40 + sdld,  page 78.
Hexadecimal  [32-Bits]

Area                                    Addr        Size        Decimal Bytes (Attributes)
--------------------------------        ----        ----        ------- ----- ------------
_HEADER8                            00000000    00000006 =           6. bytes (ABS,CON)

      Value  Global                              Global Defined In Module
      -----  --------------------------------   ------------------------
ASxxxx Linker V03.00/V05.40 + sdld,  page 79.
Hexadecimal  [32-Bits]

Area                                    Addr        Size        Decimal Bytes (Attributes)
--------------------------------        ----        ----        ------- ----- ------------
_HEADER9                            00000000    00000003 =           3. bytes (ABS,CON)

      Value  Global                              Global Defined In Module
      -----  --------------------------------   ------------------------
ASxxxx Linker V03.00/V05.40 + sdld,  page 80.
Hexadecimal  [32-Bits]

Area                                    Addr        Size        Decimal Bytes (Attributes)
--------------------------------        ----        ----        ------- ----- ------------
_HEADERa                            00000000    00000001 =           1. bytes (ABS,CON)

      Value  Global                              Global Defined In Module
      -----  --------------------------------   ------------------------
ASxxxx Linker V03.00/V05.40 + sdld,  page 81.
Hexadecimal  [32-Bits]

Area                                    Addr        Size        Decimal Bytes (Attributes)
--------------------------------        ----        ----        ------- ----- ------------
_HEADERb                            00000000    00000001 =           1. bytes (ABS,CON)

      Value  Global                              Global Defined In Module
      -----  --------------------------------   ------------------------
ASxxxx Linker V03.00/V05.40 + sdld,  page 82.
Hexadecimal  [32-Bits]

Area                                    Addr        Size        Decimal Bytes (Attributes)
--------------------------------        ----        ----        ------- ----- ------------
_HEADERc                            00000000    00000001 =           1. bytes (ABS,CON)

      Value  Global                              Global Defined In Module
      -----  --------------------------------   ------------------------
ASxxxx Linker V03.00/V05.40 + sdld,  page 83.
Hexadecimal  [32-Bits]

Area                                    Addr        Size        Decimal Bytes (Attributes)
--------------------------------        ----        ----        ------- ----- ------------
_HEADERd                            00000000    00000002 =           2. bytes (ABS,CON)

      Value  Global                              Global Defined In Module
      -----  --------------------------------   ------------------------
ASxxxx Linker V03.00/V05.40 + sdld,  page 84.
Hexadecimal  [32-Bits]

Area                                    Addr        Size        Decimal Bytes (Attributes)
--------------------------------        ----        ----        ------- ----- ------------
_HEADERe                            00000000    00000001 =           1. bytes (ABS,CON)

      Value  Global                              Global Defined In Module
      -----  --------------------------------   ------------------------
ASxxxx Linker V03.00/V05.40 + sdld,  page 85.
Hexadecimal  [32-Bits]

Area                                    Addr        Size        Decimal Bytes (Attributes)
--------------------------------        ----        ----        ------- ----- ------------
_HEADERf                            00000000    00000001 =           1. bytes (ABS,CON)

      Value  Global                              Global Defined In Module
      -----  --------------------------------   ------------------------
ASxxxx Linker V03.00/V05.40 + sdld,  page 86.
Hexadecimal  [32-Bits]

Area                                    Addr        Size        Decimal Bytes (Attributes)
--------------------------------        ----        ----        ------- ----- ------------
_HEADER10                           00000000    00000002 =           2. bytes (ABS,CON)

      Value  Global                              Global Defined In Module
      -----  --------------------------------   ------------------------
ASxxxx Linker V03.00/V05.40 + sdld,  page 87.
Hexadecimal  [32-Bits]

Area                                    Addr        Size        Decimal Bytes (Attributes)
--------------------------------        ----        ----        ------- ----- ------------
_HEADER11                           00000000    000000AB =         171. bytes (ABS,CON)

      Value  Global                              Global Defined In Module
      -----  --------------------------------   ------------------------
     00000150  .reset                             Runtime
     00000150  _reset                             Runtime
     00000157  .code_start                        Runtime
     000001B9  _exit                              Runtime
     000001BD  .wait_vbl_done                     Runtime
     000001BD  _vsync                             Runtime
     000001BD  _wait_vbl_done                     Runtime
     000001CD  .remove_VBL                        Runtime
     000001CD  _remove_VBL                        Runtime
     000001D0  .remove_int                        Runtime
     000001ED  .add_VBL                           Runtime
     000001ED  _add_VBL                           Runtime
     000001F0  .add_int                           Runtime

ASxxxx Linker V03.00/V05.40 + sdld,  page 88.
Hexadecimal  [32-Bits]

Area                                    Addr        Size        Decimal Bytes (Attributes)
--------------------------------        ----        ----        ------- ----- ------------
_HOME                               00002AFB    0000012C =         300. bytes (REL,CON)

      Value  Global                              Global Defined In Module
      -----  --------------------------------   ------------------------
     00002AFB  .memset_simple                     Runtime
     00002B04  .memcpy_simple                     Runtime
     00002B21  .display_off                       Runtime
     00002B21  _display_off                       Runtime
     00002B39  _set_tile_data                     
     00002B3E  _set_bkg_data                      
     00002B3E  _set_win_data                      
     00002B46  _set_sprite_data                   
     00002B76  .padup                             
     00002B76  _waitpadup                         
     00002B86  .jpad                              
     00002B86  _joypad                            
     00002BAE  _waitpad                           
     00002BAF  .wait_pad                          
     00002BB6  ___sdcc_call_hl                    call_hl
     00002BB7  _set_bkg_tiles                     
     00002BCB  .set_xy_wtt                        SetTileMap
     00002BD4  .set_xy_btt                        SetTileMap
     00002BE3  .set_xy_tt                         SetTileMap

ASxxxx Linker V03.00/V05.40 + sdld,  page 89.
Hexadecimal  [32-Bits]

Area                                    Addr        Size        Decimal Bytes (Attributes)
--------------------------------        ----        ----        ------- ----- ------------
_INITIALIZER                        00002C27    000001DC =         476. bytes (REL,CON)

      Value  Global                              Global Defined In Module
      -----  --------------------------------   ------------------------
     00002C27  Fspr_InventoryArrow_idle$__xinit   spr_InventoryArrow_idle
     00002C37  Fexample_npc$__xinit_spr_adolfit   example_npc
     00002C47  Fexample_npc$__xinit_spr_adolfit   example_npc
     00002C57  Fexample_npc$__xinit_spr_adolfit   example_npc
     00002C67  Fexample_npc$__xinit_spr_adolfit   example_npc
     00002C77  Fspr_Player_down0$__xinit_spr_Pl   spr_Player_down0
     00002C87  Fspr_Player_down0$__xinit_spr_Pl   spr_Player_down0
     00002C97  Fspr_Player_down0$__xinit_spr_Pl   spr_Player_down0
     00002CA7  Fspr_Player_down0$__xinit_spr_Pl   spr_Player_down0
     00002CB7  Fspr_Player_down1$__xinit_spr_Pl   spr_Player_down1
     00002CC7  Fspr_Player_down1$__xinit_spr_Pl   spr_Player_down1
     00002CD7  Fspr_Player_down1$__xinit_spr_Pl   spr_Player_down1
     00002CE7  Fspr_Player_down1$__xinit_spr_Pl   spr_Player_down1
     00002CF7  Fspr_Player_down2$__xinit_spr_Pl   spr_Player_down2
     00002D07  Fspr_Player_down2$__xinit_spr_Pl   spr_Player_down2
     00002D17  Fspr_Player_down2$__xinit_spr_Pl   spr_Player_down2
     00002D27  Fspr_Player_down2$__xinit_spr_Pl   spr_Player_down2
     00002D37  Fspr_Player_up0$__xinit_spr_Play   spr_Player_up0
     00002D47  Fspr_Player_up0$__xinit_spr_Play   spr_Player_up0
     00002D57  Fspr_Player_up0$__xinit_spr_Play   spr_Player_up0
     00002D67  Fspr_Player_up0$__xinit_spr_Play   spr_Player_up0
     00002D77  Fspr_Player_up1$__xinit_spr_Play   spr_Player_up1
     00002D87  Fspr_Player_up1$__xinit_spr_Play   spr_Player_up1
     00002D97  Fspr_Player_up1$__xinit_spr_Play   spr_Player_up1
     00002DA7  Fspr_Player_up1$__xinit_spr_Play   spr_Player_up1
     00002DB7  Fspr_Player_up2$__xinit_spr_Play   spr_Player_up2
     00002DC7  Fspr_Player_up2$__xinit_spr_Play   spr_Player_up2
     00002DD7  Fspr_Player_up2$__xinit_spr_Play   spr_Player_up2
     00002DE7  Fspr_Player_up2$__xinit_spr_Play   spr_Player_up2
     00002DF7  Faction$__xinit_MOVE_SPEED$0_0$0   action
     00002DF8  Faction$__xinit_current_directio   action
     00002DF9  Faction$__xinit_last_keys$0_0$0    action
     00002DFA  Fcan_move$__xinit_can_move$0_0$0   can_move
     00002DFE  Fentity$__xinit_next_entity_id$0   entity
     00002DFF  Fgender_selection$__xinit_GENDER   gender_selection
     00002E00  Finventory_input$__xinit_prev_ke   inventory_input
     00002E01  Fload$__xinit_vram_next_index$0_   load

ASxxxx Linker V03.00/V05.40 + sdld,  page 90.
Hexadecimal  [32-Bits]

Area                                    Addr        Size        Decimal Bytes (Attributes)
--------------------------------        ----        ----        ------- ----- ------------
_GSINIT                             00002E03    0000000F =          15. bytes (REL,CON)

      Value  Global                              Global Defined In Module
      -----  --------------------------------   ------------------------
     00002E03  gsinit                             Runtime

ASxxxx Linker V03.00/V05.40 + sdld,  page 91.
Hexadecimal  [32-Bits]

Area                                    Addr        Size        Decimal Bytes (Attributes)
--------------------------------        ----        ----        ------- ----- ------------
_GSFINAL                            00002E12    00000001 =           1. bytes (REL,CON)

      Value  Global                              Global Defined In Module
      -----  --------------------------------   ------------------------
ASxxxx Linker V03.00/V05.40 + sdld,  page 92.
Hexadecimal  [32-Bits]

Area                                    Addr        Size        Decimal Bytes (Attributes)
--------------------------------        ----        ----        ------- ----- ------------
_DATA                               0000C0A0    0000016C =         364. bytes (REL,CON)

      Value  Global                              Global Defined In Module
      -----  --------------------------------   ------------------------
     0000C0A0  __cpu                              Runtime
     0000C0A1  __is_GBA                           Runtime
     0000C0A2  .mode                              Runtime
     0000C0A3  .sys_time                          Runtime
     0000C0A3  _sys_time                          Runtime
     0000C0A5  .int_0x40                          Runtime
     0000C0B1  G$animation$0_0$0                  animation
     0000C0B1  _animation                         animation
     0000C1A6  G$arrow$0_0$0                      inventory
     0000C1A6  _arrow                             inventory
     0000C1A7  G$player$0_0$0                     player
     0000C1A7  _player                            player
     0000C1A8  G$player_animations$0_0$0          player
     0000C1A8  _player_animations                 player
     0000C1AC  G$position$0_0$0                   position
     0000C1AC  _position                          position
     0000C1CA  G$render$0_0$0                     render
     0000C1CA  _render                            render
     0000C1D9  G$npc_1$0_0$0                      scene
     0000C1D9  _npc_1                             scene
     0000C1DA  G$npc_2$0_0$0                      scene
     0000C1DA  _npc_2                             scene
     0000C1DB  G$scene_manager$0_0$0              scene_manager
     0000C1DB  _scene_manager                     scene_manager
     0000C1DD  G$GenderSelect$0_0$0               gender_select
     0000C1DD  _GenderSelect                      gender_select
     0000C1E5  G$InventoryScene$0_0$0             inventory_scene
     0000C1E5  _InventoryScene                    inventory_scene
     0000C1ED  G$CurrentMapData$0_0$0             map_data
     0000C1ED  _CurrentMapData                    map_data
     0000C1FE  G$Map_00$0_0$0                     map_00
     0000C1FE  _Map_00                            map_00
     0000C206  Lmain.main$game$1_1$182            main
     0000C20A  ___sdcc_heap_free                  malloc

ASxxxx Linker V03.00/V05.40 + sdld,  page 93.
Hexadecimal  [32-Bits]

Area                                    Addr        Size        Decimal Bytes (Attributes)
--------------------------------        ----        ----        ------- ----- ------------
_INITIALIZED                        0000C20C    000001DC =         476. bytes (REL,CON)

      Value  Global                              Global Defined In Module
      -----  --------------------------------   ------------------------
     0000C20C  G$spr_InventoryArrow_idle$0_0$0    spr_InventoryArrow_idle
     0000C20C  _spr_InventoryArrow_idle           spr_InventoryArrow_idle
     0000C21C  G$spr_adolfito_00$0_0$0            example_npc
     0000C21C  _spr_adolfito_00                   example_npc
     0000C22C  G$spr_adolfito_01$0_0$0            example_npc
     0000C22C  _spr_adolfito_01                   example_npc
     0000C23C  G$spr_adolfito_10$0_0$0            example_npc
     0000C23C  _spr_adolfito_10                   example_npc
     0000C24C  G$spr_adolfito_11$0_0$0            example_npc
     0000C24C  _spr_adolfito_11                   example_npc
     0000C25C  G$spr_Player_down0_00$0_0$0        spr_Player_down0
     0000C25C  _spr_Player_down0_00               spr_Player_down0
     0000C26C  G$spr_Player_down0_10$0_0$0        spr_Player_down0
     0000C26C  _spr_Player_down0_10               spr_Player_down0
     0000C27C  G$spr_Player_down0_01$0_0$0        spr_Player_down0
     0000C27C  _spr_Player_down0_01               spr_Player_down0
     0000C28C  G$spr_Player_down0_11$0_0$0        spr_Player_down0
     0000C28C  _spr_Player_down0_11               spr_Player_down0
     0000C29C  G$spr_Player_down1_00$0_0$0        spr_Player_down1
     0000C29C  _spr_Player_down1_00               spr_Player_down1
     0000C2AC  G$spr_Player_down1_10$0_0$0        spr_Player_down1
     0000C2AC  _spr_Player_down1_10               spr_Player_down1
     0000C2BC  G$spr_Player_down1_01$0_0$0        spr_Player_down1
     0000C2BC  _spr_Player_down1_01               spr_Player_down1
     0000C2CC  G$spr_Player_down1_11$0_0$0        spr_Player_down1
     0000C2CC  _spr_Player_down1_11               spr_Player_down1
     0000C2DC  G$spr_Player_down2_00$0_0$0        spr_Player_down2
     0000C2DC  _spr_Player_down2_00               spr_Player_down2
     0000C2EC  G$spr_Player_down2_10$0_0$0        spr_Player_down2
     0000C2EC  _spr_Player_down2_10               spr_Player_down2
     0000C2FC  G$spr_Player_down2_01$0_0$0        spr_Player_down2
     0000C2FC  _spr_Player_down2_01               spr_Player_down2
     0000C30C  G$spr_Player_down2_11$0_0$0        spr_Player_down2
     0000C30C  _spr_Player_down2_11               spr_Player_down2
     0000C31C  G$spr_Player_up0_00$0_0$0          spr_Player_up0
     0000C31C  _spr_Player_up0_00                 spr_Player_up0
     0000C32C  G$spr_Player_up0_10$0_0$0          spr_Player_up0
     0000C32C  _spr_Player_up0_10                 spr_Player_up0
     0000C33C  G$spr_Player_up0_01$0_0$0          spr_Player_up0
     0000C33C  _spr_Player_up0_01                 spr_Player_up0
     0000C34C  G$spr_Player_up0_11$0_0$0          spr_Player_up0
     0000C34C  _spr_Player_up0_11                 spr_Player_up0
     0000C35C  G$spr_Player_up1_00$0_0$0          spr_Player_up1
     0000C35C  _spr_Player_up1_00                 spr_Player_up1
     0000C36C  G$spr_Player_up1_10$0_0$0          spr_Player_up1
     0000C36C  _spr_Player_up1_10                 spr_Player_up1
     0000C37C  G$spr_Player_up1_01$0_0$0          spr_Player_up1
     0000C37C  _spr_Player_up1_01                 spr_Player_up1
     0000C38C  G$spr_Player_up1_11$0_0$0          spr_Player_up1
     0000C38C  _spr_Player_up1_11                 spr_Player_up1
ASxxxx Linker V03.00/V05.40 + sdld,  page 94.
Hexadecimal  [32-Bits]

Area                                    Addr        Size        Decimal Bytes (Attributes)
--------------------------------        ----        ----        ------- ----- ------------
_INITIALIZED                        0000C20C    000001DC =         476. bytes (REL,CON)

      Value  Global                              Global Defined In Module
      -----  --------------------------------   ------------------------
     0000C39C  G$spr_Player_up2_00$0_0$0          spr_Player_up2
     0000C39C  _spr_Player_up2_00                 spr_Player_up2
     0000C3AC  G$spr_Player_up2_10$0_0$0          spr_Player_up2
     0000C3AC  _spr_Player_up2_10                 spr_Player_up2
     0000C3BC  G$spr_Player_up2_01$0_0$0          spr_Player_up2
     0000C3BC  _spr_Player_up2_01                 spr_Player_up2
     0000C3CC  G$spr_Player_up2_11$0_0$0          spr_Player_up2
     0000C3CC  _spr_Player_up2_11                 spr_Player_up2
     0000C3DC  G$MOVE_SPEED$0_0$0                 action
     0000C3DC  _MOVE_SPEED                        action
     0000C3DD  G$current_direction$0_0$0          action
     0000C3DD  _current_direction                 action
     0000C3DE  G$last_keys$0_0$0                  action
     0000C3DE  _last_keys                         action
     0000C3DF  G$can_move$0_0$0                   can_move
     0000C3DF  _can_move                          can_move
     0000C3E3  G$next_entity_id$0_0$0             entity
     0000C3E3  _next_entity_id                    entity
     0000C3E4  G$GENDER$0_0$0                     gender_selection
     0000C3E4  _GENDER                            gender_selection
     0000C3E5  G$prev_keys$0_0$0                  inventory_input
     0000C3E5  _prev_keys                         inventory_input
     0000C3E6  G$vram_next_index$0_0$0            load
     0000C3E6  _vram_next_index                   load
     0000C3E7  __map_tile_offset                  SetTileMap
ASxxxx Linker V03.00/V05.40 + sdld,  page 95.
Hexadecimal  [32-Bits]

Area                                    Addr        Size        Decimal Bytes (Attributes)
--------------------------------        ----        ----        ------- ----- ------------
_HEAP                               0000C3E8    000007FF =        2047. bytes (REL,CON)

      Value  Global                              Global Defined In Module
      -----  --------------------------------   ------------------------
     0000C3E8  ___sdcc_heap                       

ASxxxx Linker V03.00/V05.40 + sdld,  page 96.
Hexadecimal  [32-Bits]

Area                                    Addr        Size        Decimal Bytes (Attributes)
--------------------------------        ----        ----        ------- ----- ------------
_HEAP_END                           0000CBE7    00000001 =           1. bytes (REL,CON)

      Value  Global                              Global Defined In Module
      -----  --------------------------------   ------------------------
     0000CBE7  ___sdcc_heap_end                   

ASxxxx Linker V03.00/V05.40 + sdld,  page 97.
Hexadecimal  [32-Bits]

Area                                    Addr        Size        Decimal Bytes (Attributes)
--------------------------------        ----        ----        ------- ----- ------------
_HRAM                               0000FF80    00000013 =          19. bytes (REL,CON)

      Value  Global                              Global Defined In Module
      -----  --------------------------------   ------------------------
     0000FF80  .refresh_OAM                       Runtime
     0000FF90  __current_bank                     Runtime
     0000FF91  __vbl_done                         Runtime
     0000FF92  __shadow_OAM_base                  Runtime

ASxxxx Linker V03.00/V05.40 + sdld,  page 98.

Files Linked                              [ module(s) ]

C:\Program Files\GBDK\lib/gb/crt0.o       [ Runtime ]
C:\Users\Bau_M\AppData\Local\Temp/lcc102640.o
                                          [ chars ]
C:\Users\Bau_M\AppData\Local\Temp/lcc102641.o
                                          [ numbers ]
C:\Users\Bau_M\AppData\Local\Temp/lcc102642.o
                                          [ gender_select_tilemap ]
C:\Users\Bau_M\AppData\Local\Temp/lcc102643.o
                                          [ gender_select_tileset ]
C:\Users\Bau_M\AppData\Local\Temp/lcc102644.o
                                          [ inventory_bkg ]
C:\Users\Bau_M\AppData\Local\Temp/lcc102645.o
                                          [ map_example ]
C:\Users\Bau_M\AppData\Local\Temp/lcc102646.o
                                          [ template_tilemap ]
C:\Users\Bau_M\AppData\Local\Temp/lcc102647.o
                                          [ template_tileset ]
C:\Users\Bau_M\AppData\Local\Temp/lcc102648.o
                                          [ spr_InventoryArrow_idle ]
C:\Users\Bau_M\AppData\Local\Temp/lcc102649.o
                                          [ spr_Branch ]
C:\Users\Bau_M\AppData\Local\Temp/lcc1026410.o
                                          [ example_npc ]
C:\Users\Bau_M\AppData\Local\Temp/lcc1026411.o
                                          [ spr_Player_down0 ]
C:\Users\Bau_M\AppData\Local\Temp/lcc1026412.o
                                          [ spr_Player_down1 ]
C:\Users\Bau_M\AppData\Local\Temp/lcc1026413.o
                                          [ spr_Player_down2 ]
C:\Users\Bau_M\AppData\Local\Temp/lcc1026414.o
                                          [ spr_Player_up0 ]
C:\Users\Bau_M\AppData\Local\Temp/lcc1026415.o
                                          [ spr_Player_up1 ]
C:\Users\Bau_M\AppData\Local\Temp/lcc1026416.o
                                          [ spr_Player_up2 ]
C:\Users\Bau_M\AppData\Local\Temp/lcc1026417.o
                                          [ action ]
C:\Users\Bau_M\AppData\Local\Temp/lcc1026418.o
                                          [ animation ]
C:\Users\Bau_M\AppData\Local\Temp/lcc1026419.o
                                          [ can_move ]
C:\Users\Bau_M\AppData\Local\Temp/lcc1026420.o
                                          [ char_to_tile ]
C:\Users\Bau_M\AppData\Local\Temp/lcc1026421.o
                                          [ draw ]
C:\Users\Bau_M\AppData\Local\Temp/lcc1026422.o
                                          [ entity ]
C:\Users\Bau_M\AppData\Local\Temp/lcc1026423.o
                                          [ gender_selection ]
C:\Users\Bau_M\AppData\Local\Temp/lcc1026424.o
                                          [ global_action ]
C:\Users\Bau_M\AppData\Local\Temp/lcc1026425.o
                                          [ inventory ]
C:\Users\Bau_M\AppData\Local\Temp/lcc1026426.o
                                          [ inventory_input ]
C:\Users\Bau_M\AppData\Local\Temp/lcc1026427.o
                                          [ load ]
C:\Users\Bau_M\AppData\Local\Temp/lcc1026428.o
                                          [ map_scenes ]
C:\Users\Bau_M\AppData\Local\Temp/lcc1026429.o
                                          [ player ]
C:\Users\Bau_M\AppData\Local\Temp/lcc1026430.o
                                          [ position ]
C:\Users\Bau_M\AppData\Local\Temp/lcc1026431.o
                                          [ render ]
C:\Users\Bau_M\AppData\Local\Temp/lcc1026432.o
                                          [ scene ]
C:\Users\Bau_M\AppData\Local\Temp/lcc1026433.o
                                          [ scene_manager ]
C:\Users\Bau_M\AppData\Local\Temp/lcc1026434.o
                                          [ gender_select ]
C:\Users\Bau_M\AppData\Local\Temp/lcc1026435.o
                                          [ gender_select_init ]
C:\Users\Bau_M\AppData\Local\Temp/lcc1026436.o
                                          [ gender_select_update ]
C:\Users\Bau_M\AppData\Local\Temp/lcc1026437.o
                                          [ inventory_scene ]
C:\Users\Bau_M\AppData\Local\Temp/lcc1026438.o
                                          [ inventory_scene_init ]
C:\Users\Bau_M\AppData\Local\Temp/lcc1026439.o
                                          [ inventory_scene_update ]
C:\Users\Bau_M\AppData\Local\Temp/lcc1026440.o
                                          [ map_collision ]
C:\Users\Bau_M\AppData\Local\Temp/lcc1026441.o
                                          [ map_data ]
C:\Users\Bau_M\AppData\Local\Temp/lcc1026442.o
                                          [ map_00 ]
C:\Users\Bau_M\AppData\Local\Temp/lcc1026443.o
                                          [ map_00_collision ]
C:\Users\Bau_M\AppData\Local\Temp/lcc1026444.o
                                          [ map_00_init ]
C:\Users\Bau_M\AppData\Local\Temp/lcc1026445.o
                                          [ map_00_init_npc ]
C:\Users\Bau_M\AppData\Local\Temp/lcc1026446.o
                                          [ map_00_update ]
C:\Users\Bau_M\AppData\Local\Temp/lcc1026447.o
                                          [ main ]


Libraries Linked                          [ object file ]

C:\Program Files\GBDK\lib/sm83/sm83.lib   [ free.o ]
C:\Program Files\GBDK\lib/sm83/sm83.lib   [ malloc.o ]
C:\Program Files\GBDK\lib/gb/gb.lib       [ set_data.o ]
C:\Program Files\GBDK\lib/sm83/sm83.lib   [ mul.o ]
C:\Program Files\GBDK\lib/gb/gb.lib       [ pad.o ]
C:\Program Files\GBDK\lib/sm83/sm83.lib   [ __sdcc_call_hl.o ]
C:\Program Files\GBDK\lib/gb/gb.lib       [ sfr.o ]
C:\Program Files\GBDK\lib/gb/gb.lib       [ heap.o ]
C:\Program Files\GBDK\lib/gb/gb.lib       [ set_bk_t.o ]
C:\Program Files\GBDK\lib/gb/gb.lib       [ set_xy_t.o ]

ASxxxx Linker V03.00/V05.40 + sdld,  page 99.

User Base Address Definitions

_DATA=0xC0A0
_CODE=0x0200
_HRAM=0xFF80
ASxxxx Linker V03.00/V05.40 + sdld,  page 100.

User Global Definitions

_shadow_OAM=0xC000
.STACK=0xE000

