ASxxxx Linker V03.00/V05.40 + sdld,  page 1.
Hexadecimal  [32-Bits]

Area                                    Addr        Size        Decimal Bytes (Attributes)
--------------------------------        ----        ----        ------- ----- ------------
.  .ABS.                            00000000    00000000 =           0. bytes (ABS,CON)

      Value  Global                              Global Defined In Module
      -----  --------------------------------   ------------------------
     00000000  .__.ABS.                           SetTileMap
     00000000  _rMBC7_SRAM_ENABLE_1               
     00000000  _rRAMG                             
     00000000  l__BASE                         
     00000000  l__BSS                          
     00000000  l__CABS                         
     00000000  l__CODE_0                       
     00000000  l__DABS                         
     00000000  l__HEADER                       
     00000000  l__LIT                          
     00000000  s__CABS                         
     00000000  s__DABS                         
     00000000  s__HEADER                       
     00000000  s__HEADER0                      
     00000000  s__HEADER1                      
     00000000  s__HEADER10                     
     00000000  s__HEADER11                     
     00000000  s__HEADER2                      
     00000000  s__HEADER3                      
     00000000  s__HEADER4                      
     00000000  s__HEADER5                      
     00000000  s__HEADER6                      
     00000000  s__HEADER7                      
     00000000  s__HEADER8                      
     00000000  s__HEADER9                      
     00000000  s__HEADERa                      
     00000000  s__HEADERb                      
     00000000  s__HEADERc                      
     00000000  s__HEADERd                      
     00000000  s__HEADERe                      
     00000000  s__HEADERf                      
     00000001  l__GSFINAL                      
     00000001  l__HEADER0                      
     00000001  l__HEADER5                      
     00000001  l__HEADERa                      
     00000001  l__HEADERb                      
     00000001  l__HEADERc                      
     00000001  l__HEADERe                      
     00000001  l__HEADERf                      
     00000001  l__HEAP_END                     
     00000002  l__HEADER10                     
     00000002  l__HEADER6                      
     00000002  l__HEADERd                      
     00000003  l__HEADER9                      
     00000005  l__HEADER1                      
     00000006  l__HEADER8                      
     00000007  l__HEADER2                      
     00000008  l__HEADER3                      
     0000000F  l__GSINIT                       
     00000013  l__HRAM                         
ASxxxx Linker V03.00/V05.40 + sdld,  page 2.
Hexadecimal  [32-Bits]

Area                                    Addr        Size        Decimal Bytes (Attributes)
--------------------------------        ----        ----        ------- ----- ------------
.  .ABS.                            00000000    00000000 =           0. bytes (ABS,CON)

      Value  Global                              Global Defined In Module
      -----  --------------------------------   ------------------------
     00000030  l__HEADER7                      
     00000060  l__HEADER4                      
     000000AB  l__HEADER11                     
     0000012C  l__HOME                         
     00000200  s__CODE                         
     00000216  l__INITIALIZED                  
     00000216  l__INITIALIZER                  
     000002BF  l__DATA                         
     000007FF  l__HEAP                         
     00001220  l__CODE_1                       
     00002000  _rROMB0                            
     0000289F  l__CODE                         
     00002A9F  s__HOME                         
     00002BCB  s__BASE                         
     00002BCB  s__CODE_0                       
     00002BCB  s__INITIALIZER                  
     00002BCB  s__LIT                          
     00002DE1  s__GSINIT                       
     00002DF0  s__GSFINAL                      
     00003000  _rROMB1                            
     00004000  _rMBC7_SRAM_ENABLE_2               
     00004000  _rRAMB                             
     00008000  __VRAM                             
     00008000  __VRAM8000                         
     00008800  __VRAM8800                         
     00009000  __VRAM9000                         
     00009800  __SCRN0                            
     00009C00  __SCRN1                            
     0000A000  __SRAM                             
     0000A000  _rMBC7_LATCH_1                     
     0000A010  _rMBC7_LATCH_2                     
     0000A020  _rMBC7_ACCEL_X_LO                  
     0000A030  _rMBC7_ACCEL_X_HI                  
     0000A040  _rMBC7_ACCEL_Y_LO                  
     0000A050  _rMBC7_ACCEL_Y_HI                  
     0000C000  __RAM                              
     0000C000  _shadow_OAM                     
     0000C0A0  s__DATA                         
     0000C35F  s__BSS                          
     0000C35F  s__INITIALIZED                  
     0000C575  s__HEAP                         
     0000CD74  s__HEAP_END                     
     0000D000  __RAMBANK                          
     0000E000  .STACK                          
     0000FE00  __OAMRAM                           
     0000FF00  _P1_REG                            
     0000FF00  __IO                               
     0000FF01  _SB_REG                            
     0000FF02  _SC_REG                            
     0000FF04  _DIV_REG                           
     0000FF05  _TIMA_REG                          
ASxxxx Linker V03.00/V05.40 + sdld,  page 3.
Hexadecimal  [32-Bits]

Area                                    Addr        Size        Decimal Bytes (Attributes)
--------------------------------        ----        ----        ------- ----- ------------
.  .ABS.                            00000000    00000000 =           0. bytes (ABS,CON)

      Value  Global                              Global Defined In Module
      -----  --------------------------------   ------------------------
     0000FF06  _TMA_REG                           
     0000FF07  _TAC_REG                           
     0000FF0F  _IF_REG                            
     0000FF10  _NR10_REG                          
     0000FF11  _NR11_REG                          
     0000FF12  _NR12_REG                          
     0000FF13  _NR13_REG                          
     0000FF14  _NR14_REG                          
     0000FF16  _NR21_REG                          
     0000FF17  _NR22_REG                          
     0000FF18  _NR23_REG                          
     0000FF19  _NR24_REG                          
     0000FF1A  _NR30_REG                          
     0000FF1B  _NR31_REG                          
     0000FF1C  _NR32_REG                          
     0000FF1D  _NR33_REG                          
     0000FF1E  _NR34_REG                          
     0000FF20  _NR41_REG                          
     0000FF21  _NR42_REG                          
     0000FF22  _NR43_REG                          
     0000FF23  _NR44_REG                          
     0000FF24  _NR50_REG                          
     0000FF25  _NR51_REG                          
     0000FF26  _NR52_REG                          
     0000FF30  _AUD3WAVE                          
     0000FF30  _PCM_SAMPLE                        
     0000FF30  __AUD3WAVERAM                      
     0000FF40  _LCDC_REG                          
     0000FF41  _STAT_REG                          
     0000FF42  _SCY_REG                           
     0000FF43  _SCX_REG                           
     0000FF44  _LY_REG                            
     0000FF45  _LYC_REG                           
     0000FF46  _DMA_REG                           
     0000FF47  _BGP_REG                           
     0000FF48  _OBP0_REG                          
     0000FF49  _OBP1_REG                          
     0000FF4A  _WY_REG                            
     0000FF4B  _WX_REG                            
     0000FF4D  _KEY1_REG                          
     0000FF4F  _VBK_REG                           
     0000FF51  _HDMA1_REG                         
     0000FF52  _HDMA2_REG                         
     0000FF53  _HDMA3_REG                         
     0000FF54  _HDMA4_REG                         
     0000FF55  _HDMA5_REG                         
     0000FF56  _RP_REG                            
     0000FF68  _BCPS_REG                          
     0000FF69  _BCPD_REG                          
     0000FF6A  _OCPS_REG                          
     0000FF6B  _OCPD_REG                          
ASxxxx Linker V03.00/V05.40 + sdld,  page 4.
Hexadecimal  [32-Bits]

Area                                    Addr        Size        Decimal Bytes (Attributes)
--------------------------------        ----        ----        ------- ----- ------------
.  .ABS.                            00000000    00000000 =           0. bytes (ABS,CON)

      Value  Global                              Global Defined In Module
      -----  --------------------------------   ------------------------
     0000FF70  _SVBK_REG                          
     0000FF76  _PCM12_REG                         
     0000FF77  _PCM34_REG                         
     0000FF80  __HRAM                             
     0000FF80  s__HRAM                         
     0000FFFF  _IE_REG                            
     00014000  s__CODE_1                       
ASxxxx Linker V03.00/V05.40 + sdld,  page 5.
Hexadecimal  [32-Bits]

Area                                    Addr        Size        Decimal Bytes (Attributes)
--------------------------------        ----        ----        ------- ----- ------------
_CODE                               00000200    0000289F =       10399. bytes (REL,CON)

      Value  Global                              Global Defined In Module
      -----  --------------------------------   ------------------------
     00000200  G$chars_tileset$0_0$0              chars
     00000200  _chars_tileset                     chars
     00000400  G$chars_tilemap$0_0$0              chars
     00000400  _chars_tilemap                     chars
     0000041F  G$numbers_tileset$0_0$0            numbers
     0000041F  _numbers_tileset                   numbers
     000004BF  G$numbers_tilemap$0_0$0            numbers
     000004BF  _numbers_tilemap                   numbers
     000004C9  G$gender_select_tilemap$0_0$0      gender_select_tilemap
     000004C9  _gender_select_tilemap             gender_select_tilemap
     00000631  G$gender_select_tileset$0_0$0      gender_select_tileset
     00000631  _gender_select_tileset             gender_select_tileset
     00000921  A$lcc256167$58                     npc_icons
     00000921  C$npc_icons.c$27$0_0$127           npc_icons
     00000921  C$npc_icons.c$28$1_0$127           npc_icons
     00000921  G$InitNPCIcons$0$0                 npc_icons
     00000921  _InitNPCIcons                      npc_icons
     00000924  A$lcc256167$59                     npc_icons
     00000925  A$lcc256167$60                     npc_icons
     00000928  A$lcc256167$61                     npc_icons
     00000929  A$lcc256167$62                     npc_icons
     0000092C  A$lcc256167$63                     npc_icons
     0000092E  A$lcc256167$71                     npc_icons
     0000092E  C$npc_icons.c$29$1_0$127           npc_icons
     0000092E  XG$InitNPCIcons$0$0                npc_icons
     0000092F  G$npc_icons_tileset$0_0$0          npc_icons
     0000092F  _npc_icons_tileset                 npc_icons
     0000098F  G$npc_icons_tilemap$0_0$0          npc_icons
     0000098F  _npc_icons_tilemap                 npc_icons
     00000995  G$spr_Branch$0_0$0                 spr_Branch
     00000995  _spr_Branch                        spr_Branch
     000009A5  A$lcc2561620$59                    action
     000009A5  C$action.c$11$0_0$169              action
     000009A5  G$move_up$0$0                      action
     000009A5  _move_up                           action
     000009A7  A$lcc2561620$60                    action
     000009A9  A$lcc2561620$61                    action
     000009AA  A$lcc2561620$65                    action
     000009AA  C$action.c$13$2_0$170              action
     000009AD  A$lcc2561620$66                    action
     000009AF  A$lcc2561620$70                    action
     000009AF  C$action.c$14$2_0$170              action
     000009B1  A$lcc2561620$74                    action
     000009B1  C$action.c$16$1_0$169              action
     000009B3  A$lcc2561620$75                    action
     000009B4  A$lcc2561620$76                    action
     000009B5  A$lcc2561620$77                    action
     000009B7  A$lcc2561620$78                    action
     000009B8  A$lcc2561620$79                    action
     000009BA  A$lcc2561620$80                    action
ASxxxx Linker V03.00/V05.40 + sdld,  page 6.
Hexadecimal  [32-Bits]

Area                                    Addr        Size        Decimal Bytes (Attributes)
--------------------------------        ----        ----        ------- ----- ------------
_CODE                               00000200    0000289F =       10399. bytes (REL,CON)

      Value  Global                              Global Defined In Module
      -----  --------------------------------   ------------------------
     000009BC  A$lcc2561620$81                    action
     000009BD  A$lcc2561620$82                    action
     000009BE  A$lcc2561620$83                    action
     000009BF  A$lcc2561620$84                    action
     000009C0  A$lcc2561620$85                    action
     000009C1  A$lcc2561620$86                    action
     000009C2  A$lcc2561620$87                    action
     000009C5  A$lcc2561620$88                    action
     000009C6  A$lcc2561620$89                    action
     000009C7  A$lcc2561620$90                    action
     000009C8  A$lcc2561620$91                    action
     000009C9  A$lcc2561620$92                    action
     000009CB  A$lcc2561620$93                    action
     000009CC  A$lcc2561620$94                    action
     000009CD  A$lcc2561620$95                    action
     000009CE  A$lcc2561620$96                    action
     000009CF  A$lcc2561620$97                    action
     000009D0  A$lcc2561620$98                    action
     000009D1  A$lcc2561620$99                    action
     000009D2  A$lcc2561620$100                   action
     000009D4  A$lcc2561620$101                   action
     000009D5  A$lcc2561620$102                   action
     000009D6  A$lcc2561620$103                   action
     000009D7  A$lcc2561620$104                   action
     000009D8  A$lcc2561620$105                   action
     000009D9  A$lcc2561620$106                   action
     000009DA  A$lcc2561620$107                   action
     000009DB  A$lcc2561620$108                   action
     000009DC  A$lcc2561620$109                   action
     000009DD  A$lcc2561620$110                   action
     000009DE  A$lcc2561620$111                   action
     000009DF  A$lcc2561620$112                   action
     000009E0  A$lcc2561620$113                   action
     000009E1  A$lcc2561620$114                   action
     000009E2  A$lcc2561620$115                   action
     000009E4  A$lcc2561620$116                   action
     000009E5  A$lcc2561620$117                   action
     000009E6  A$lcc2561620$118                   action
     000009E7  A$lcc2561620$119                   action
     000009E8  A$lcc2561620$120                   action
     000009E9  A$lcc2561620$124                   action
     000009E9  C$action.c$17$1_0$169              action
     000009EA  A$lcc2561620$125                   action
     000009EB  A$lcc2561620$126                   action
     000009EE  A$lcc2561620$127                   action
     000009EF  A$lcc2561620$128                   action
     000009F1  A$lcc2561620$129                   action
     000009F2  A$lcc2561620$130                   action
     000009F3  A$lcc2561620$131                   action
     000009F4  A$lcc2561620$132                   action
     000009F6  A$lcc2561620$133                   action
ASxxxx Linker V03.00/V05.40 + sdld,  page 7.
Hexadecimal  [32-Bits]

Area                                    Addr        Size        Decimal Bytes (Attributes)
--------------------------------        ----        ----        ------- ----- ------------
_CODE                               00000200    0000289F =       10399. bytes (REL,CON)

      Value  Global                              Global Defined In Module
      -----  --------------------------------   ------------------------
     000009F7  A$lcc2561620$134                   action
     000009F8  A$lcc2561620$139                   action
     000009FA  A$lcc2561620$144                   action
     000009FA  C$action.c$18$1_0$169              action
     000009FA  XG$move_up$0$0                     action
     000009FB  A$lcc2561620$154                   action
     000009FB  C$action.c$20$1_0$172              action
     000009FB  G$move_down$0$0                    action
     000009FB  _move_down                         action
     000009FD  A$lcc2561620$155                   action
     000009FF  A$lcc2561620$156                   action
     00000A00  A$lcc2561620$160                   action
     00000A00  C$action.c$22$2_0$173              action
     00000A03  A$lcc2561620$161                   action
     00000A05  A$lcc2561620$165                   action
     00000A05  C$action.c$23$2_0$173              action
     00000A07  A$lcc2561620$169                   action
     00000A07  C$action.c$25$1_0$172              action
     00000A09  A$lcc2561620$170                   action
     00000A0A  A$lcc2561620$171                   action
     00000A0B  A$lcc2561620$172                   action
     00000A0D  A$lcc2561620$173                   action
     00000A0E  A$lcc2561620$174                   action
     00000A10  A$lcc2561620$175                   action
     00000A12  A$lcc2561620$176                   action
     00000A13  A$lcc2561620$177                   action
     00000A14  A$lcc2561620$178                   action
     00000A15  A$lcc2561620$179                   action
     00000A16  A$lcc2561620$180                   action
     00000A17  A$lcc2561620$181                   action
     00000A18  A$lcc2561620$182                   action
     00000A1B  A$lcc2561620$183                   action
     00000A1C  A$lcc2561620$184                   action
     00000A1D  A$lcc2561620$185                   action
     00000A1E  A$lcc2561620$186                   action
     00000A1F  A$lcc2561620$187                   action
     00000A21  A$lcc2561620$188                   action
     00000A22  A$lcc2561620$189                   action
     00000A23  A$lcc2561620$190                   action
     00000A24  A$lcc2561620$191                   action
     00000A25  A$lcc2561620$192                   action
     00000A26  A$lcc2561620$193                   action
     00000A27  A$lcc2561620$194                   action
     00000A28  A$lcc2561620$195                   action
     00000A2A  A$lcc2561620$196                   action
     00000A2B  A$lcc2561620$197                   action
     00000A2C  A$lcc2561620$198                   action
     00000A2D  A$lcc2561620$199                   action
     00000A2E  A$lcc2561620$200                   action
     00000A2F  A$lcc2561620$201                   action
     00000A30  A$lcc2561620$202                   action
ASxxxx Linker V03.00/V05.40 + sdld,  page 8.
Hexadecimal  [32-Bits]

Area                                    Addr        Size        Decimal Bytes (Attributes)
--------------------------------        ----        ----        ------- ----- ------------
_CODE                               00000200    0000289F =       10399. bytes (REL,CON)

      Value  Global                              Global Defined In Module
      -----  --------------------------------   ------------------------
     00000A31  A$lcc2561620$203                   action
     00000A32  A$lcc2561620$204                   action
     00000A33  A$lcc2561620$205                   action
     00000A34  A$lcc2561620$206                   action
     00000A35  A$lcc2561620$207                   action
     00000A36  A$lcc2561620$208                   action
     00000A37  A$lcc2561620$209                   action
     00000A38  A$lcc2561620$210                   action
     00000A39  A$lcc2561620$211                   action
     00000A3A  A$lcc2561620$212                   action
     00000A3B  A$lcc2561620$216                   action
     00000A3B  C$action.c$26$1_0$172              action
     00000A3E  A$lcc2561620$217                   action
     00000A40  A$lcc2561620$218                   action
     00000A41  A$lcc2561620$219                   action
     00000A43  A$lcc2561620$220                   action
     00000A44  A$lcc2561620$221                   action
     00000A45  A$lcc2561620$222                   action
     00000A46  A$lcc2561620$223                   action
     00000A47  A$lcc2561620$224                   action
     00000A48  A$lcc2561620$229                   action
     00000A4A  A$lcc2561620$234                   action
     00000A4A  C$action.c$27$1_0$172              action
     00000A4A  XG$move_down$0$0                   action
     00000A4B  A$lcc2561620$244                   action
     00000A4B  C$action.c$29$1_0$175              action
     00000A4B  G$move_left$0$0                    action
     00000A4B  _move_left                         action
     00000A4D  A$lcc2561620$245                   action
     00000A4F  A$lcc2561620$246                   action
     00000A50  A$lcc2561620$250                   action
     00000A50  C$action.c$31$2_0$176              action
     00000A53  A$lcc2561620$251                   action
     00000A55  A$lcc2561620$255                   action
     00000A55  C$action.c$32$2_0$176              action
     00000A57  A$lcc2561620$259                   action
     00000A57  C$action.c$34$1_0$175              action
     00000A59  A$lcc2561620$260                   action
     00000A5A  A$lcc2561620$261                   action
     00000A5B  A$lcc2561620$262                   action
     00000A5D  A$lcc2561620$263                   action
     00000A5E  A$lcc2561620$264                   action
     00000A60  A$lcc2561620$265                   action
     00000A62  A$lcc2561620$266                   action
     00000A63  A$lcc2561620$267                   action
     00000A64  A$lcc2561620$268                   action
     00000A65  A$lcc2561620$269                   action
     00000A66  A$lcc2561620$270                   action
     00000A67  A$lcc2561620$271                   action
     00000A68  A$lcc2561620$272                   action
     00000A6B  A$lcc2561620$273                   action
ASxxxx Linker V03.00/V05.40 + sdld,  page 9.
Hexadecimal  [32-Bits]

Area                                    Addr        Size        Decimal Bytes (Attributes)
--------------------------------        ----        ----        ------- ----- ------------
_CODE                               00000200    0000289F =       10399. bytes (REL,CON)

      Value  Global                              Global Defined In Module
      -----  --------------------------------   ------------------------
     00000A6C  A$lcc2561620$274                   action
     00000A6D  A$lcc2561620$275                   action
     00000A6E  A$lcc2561620$276                   action
     00000A6F  A$lcc2561620$277                   action
     00000A71  A$lcc2561620$278                   action
     00000A72  A$lcc2561620$279                   action
     00000A73  A$lcc2561620$280                   action
     00000A74  A$lcc2561620$281                   action
     00000A75  A$lcc2561620$282                   action
     00000A76  A$lcc2561620$283                   action
     00000A77  A$lcc2561620$284                   action
     00000A78  A$lcc2561620$285                   action
     00000A7A  A$lcc2561620$286                   action
     00000A7B  A$lcc2561620$287                   action
     00000A7C  A$lcc2561620$288                   action
     00000A7D  A$lcc2561620$289                   action
     00000A7E  A$lcc2561620$290                   action
     00000A7F  A$lcc2561620$291                   action
     00000A80  A$lcc2561620$292                   action
     00000A81  A$lcc2561620$293                   action
     00000A82  A$lcc2561620$294                   action
     00000A83  A$lcc2561620$295                   action
     00000A84  A$lcc2561620$296                   action
     00000A85  A$lcc2561620$297                   action
     00000A86  A$lcc2561620$298                   action
     00000A87  A$lcc2561620$299                   action
     00000A88  A$lcc2561620$300                   action
     00000A8A  A$lcc2561620$301                   action
     00000A8B  A$lcc2561620$302                   action
     00000A8C  A$lcc2561620$303                   action
     00000A8D  A$lcc2561620$304                   action
     00000A8E  A$lcc2561620$305                   action
     00000A8F  A$lcc2561620$309                   action
     00000A8F  C$action.c$35$1_0$175              action
     00000A90  A$lcc2561620$310                   action
     00000A91  A$lcc2561620$311                   action
     00000A94  A$lcc2561620$312                   action
     00000A95  A$lcc2561620$313                   action
     00000A97  A$lcc2561620$314                   action
     00000A98  A$lcc2561620$315                   action
     00000A99  A$lcc2561620$316                   action
     00000A9A  A$lcc2561620$317                   action
     00000A9C  A$lcc2561620$318                   action
     00000A9D  A$lcc2561620$319                   action
     00000A9E  A$lcc2561620$324                   action
     00000AA0  A$lcc2561620$329                   action
     00000AA0  C$action.c$36$1_0$175              action
     00000AA0  XG$move_left$0$0                   action
     00000AA1  A$lcc2561620$339                   action
     00000AA1  C$action.c$38$1_0$178              action
     00000AA1  G$move_right$0$0                   action
ASxxxx Linker V03.00/V05.40 + sdld,  page 10.
Hexadecimal  [32-Bits]

Area                                    Addr        Size        Decimal Bytes (Attributes)
--------------------------------        ----        ----        ------- ----- ------------
_CODE                               00000200    0000289F =       10399. bytes (REL,CON)

      Value  Global                              Global Defined In Module
      -----  --------------------------------   ------------------------
     00000AA1  _move_right                        action
     00000AA3  A$lcc2561620$340                   action
     00000AA5  A$lcc2561620$341                   action
     00000AA6  A$lcc2561620$345                   action
     00000AA6  C$action.c$40$2_0$179              action
     00000AA9  A$lcc2561620$346                   action
     00000AAB  A$lcc2561620$350                   action
     00000AAB  C$action.c$41$2_0$179              action
     00000AAD  A$lcc2561620$354                   action
     00000AAD  C$action.c$43$1_0$178              action
     00000AAF  A$lcc2561620$355                   action
     00000AB0  A$lcc2561620$356                   action
     00000AB1  A$lcc2561620$357                   action
     00000AB3  A$lcc2561620$358                   action
     00000AB4  A$lcc2561620$359                   action
     00000AB6  A$lcc2561620$360                   action
     00000AB8  A$lcc2561620$361                   action
     00000AB9  A$lcc2561620$362                   action
     00000ABA  A$lcc2561620$363                   action
     00000ABB  A$lcc2561620$364                   action
     00000ABC  A$lcc2561620$365                   action
     00000ABD  A$lcc2561620$366                   action
     00000ABE  A$lcc2561620$367                   action
     00000AC1  A$lcc2561620$368                   action
     00000AC2  A$lcc2561620$369                   action
     00000AC3  A$lcc2561620$370                   action
     00000AC4  A$lcc2561620$371                   action
     00000AC5  A$lcc2561620$372                   action
     00000AC7  A$lcc2561620$373                   action
     00000AC8  A$lcc2561620$374                   action
     00000AC9  A$lcc2561620$375                   action
     00000ACA  A$lcc2561620$376                   action
     00000ACB  A$lcc2561620$377                   action
     00000ACC  A$lcc2561620$378                   action
     00000ACD  A$lcc2561620$379                   action
     00000ACE  A$lcc2561620$380                   action
     00000AD0  A$lcc2561620$381                   action
     00000AD1  A$lcc2561620$382                   action
     00000AD2  A$lcc2561620$383                   action
     00000AD3  A$lcc2561620$384                   action
     00000AD4  A$lcc2561620$385                   action
     00000AD5  A$lcc2561620$386                   action
     00000AD6  A$lcc2561620$387                   action
     00000AD7  A$lcc2561620$388                   action
     00000AD8  A$lcc2561620$389                   action
     00000AD9  A$lcc2561620$390                   action
     00000ADA  A$lcc2561620$391                   action
     00000ADB  A$lcc2561620$392                   action
     00000ADC  A$lcc2561620$393                   action
     00000ADD  A$lcc2561620$394                   action
     00000ADE  A$lcc2561620$395                   action
ASxxxx Linker V03.00/V05.40 + sdld,  page 11.
Hexadecimal  [32-Bits]

Area                                    Addr        Size        Decimal Bytes (Attributes)
--------------------------------        ----        ----        ------- ----- ------------
_CODE                               00000200    0000289F =       10399. bytes (REL,CON)

      Value  Global                              Global Defined In Module
      -----  --------------------------------   ------------------------
     00000ADF  A$lcc2561620$396                   action
     00000AE0  A$lcc2561620$397                   action
     00000AE1  A$lcc2561620$401                   action
     00000AE1  C$action.c$44$1_0$178              action
     00000AE2  A$lcc2561620$402                   action
     00000AE5  A$lcc2561620$403                   action
     00000AE7  A$lcc2561620$404                   action
     00000AE8  A$lcc2561620$405                   action
     00000AEA  A$lcc2561620$406                   action
     00000AEB  A$lcc2561620$407                   action
     00000AEC  A$lcc2561620$408                   action
     00000AED  A$lcc2561620$409                   action
     00000AEE  A$lcc2561620$410                   action
     00000AEF  A$lcc2561620$411                   action
     00000AF0  A$lcc2561620$416                   action
     00000AF2  A$lcc2561620$421                   action
     00000AF2  C$action.c$45$1_0$178              action
     00000AF2  XG$move_right$0$0                  action
     00000AF3  A$lcc2561621$59                    animation
     00000AF3  C$animation.c$7$0_0$137            animation
     00000AF3  G$init_animation$0$0               animation
     00000AF3  _init_animation                    animation
     00000AF5  A$lcc2561621$60                    animation
     00000AF7  A$lcc2561621$61                    animation
     00000AF8  A$lcc2561621$62                    animation
     00000AF9  A$lcc2561621$63                    animation
     00000AFA  A$lcc2561621$64                    animation
     00000AFB  A$lcc2561621$65                    animation
     00000AFC  A$lcc2561621$69                    animation
     00000AFC  C$animation.c$12$1_0$137           animation
     00000AFE  A$lcc2561621$70                    animation
     00000AFF  A$lcc2561621$71                    animation
     00000B00  A$lcc2561621$72                    animation
     00000B01  A$lcc2561621$73                    animation
     00000B02  A$lcc2561621$74                    animation
     00000B03  A$lcc2561621$75                    animation
     00000B04  A$lcc2561621$76                    animation
     00000B06  A$lcc2561621$77                    animation
     00000B08  A$lcc2561621$78                    animation
     00000B09  A$lcc2561621$79                    animation
     00000B0A  A$lcc2561621$80                    animation
     00000B0B  A$lcc2561621$81                    animation
     00000B0C  A$lcc2561621$82                    animation
     00000B0D  A$lcc2561621$83                    animation
     00000B0E  A$lcc2561621$87                    animation
     00000B0E  C$animation.c$14$1_0$137           animation
     00000B0F  A$lcc2561621$88                    animation
     00000B10  A$lcc2561621$89                    animation
     00000B11  A$lcc2561621$90                    animation
     00000B13  A$lcc2561621$91                    animation
     00000B14  A$lcc2561621$92                    animation
ASxxxx Linker V03.00/V05.40 + sdld,  page 12.
Hexadecimal  [32-Bits]

Area                                    Addr        Size        Decimal Bytes (Attributes)
--------------------------------        ----        ----        ------- ----- ------------
_CODE                               00000200    0000289F =       10399. bytes (REL,CON)

      Value  Global                              Global Defined In Module
      -----  --------------------------------   ------------------------
     00000B15  A$lcc2561621$96                    animation
     00000B15  C$animation.c$15$1_0$137           animation
     00000B16  A$lcc2561621$97                    animation
     00000B17  A$lcc2561621$98                    animation
     00000B18  A$lcc2561621$99                    animation
     00000B19  A$lcc2561621$100                   animation
     00000B1A  A$lcc2561621$101                   animation
     00000B1B  A$lcc2561621$102                   animation
     00000B1D  A$lcc2561621$103                   animation
     00000B1E  A$lcc2561621$104                   animation
     00000B1F  A$lcc2561621$105                   animation
     00000B20  A$lcc2561621$109                   animation
     00000B20  C$animation.c$16$1_0$137           animation
     00000B23  A$lcc2561621$110                   animation
     00000B24  A$lcc2561621$111                   animation
     00000B26  A$lcc2561621$115                   animation
     00000B26  C$animation.c$17$1_0$137           animation
     00000B27  A$lcc2561621$116                   animation
     00000B28  A$lcc2561621$117                   animation
     00000B29  A$lcc2561621$118                   animation
     00000B2A  A$lcc2561621$119                   animation
     00000B2C  A$lcc2561621$123                   animation
     00000B2C  C$animation.c$18$1_0$137           animation
     00000B2F  A$lcc2561621$124                   animation
     00000B30  A$lcc2561621$125                   animation
     00000B31  A$lcc2561621$126                   animation
     00000B33  A$lcc2561621$127                   animation
     00000B34  A$lcc2561621$128                   animation
     00000B35  A$lcc2561621$129                   animation
     00000B36  A$lcc2561621$133                   animation
     00000B36  C$animation.c$21$1_0$137           animation
     00000B37  A$lcc2561621$134                   animation
     00000B38  A$lcc2561621$135                   animation
     00000B39  A$lcc2561621$136                   animation
     00000B3A  A$lcc2561621$137                   animation
     00000B3C  A$lcc2561621$138                   animation
     00000B3D  A$lcc2561621$139                   animation
     00000B3E  A$lcc2561621$140                   animation
     00000B3F  A$lcc2561621$141                   animation
     00000B40  A$lcc2561621$142                   animation
     00000B43  A$lcc2561621$143                   animation
     00000B44  A$lcc2561621$144                   animation
     00000B45  A$lcc2561621$145                   animation
     00000B46  A$lcc2561621$146                   animation
     00000B48  A$lcc2561621$147                   animation
     00000B49  A$lcc2561621$148                   animation
     00000B4A  A$lcc2561621$149                   animation
     00000B4B  A$lcc2561621$150                   animation
     00000B4D  A$lcc2561621$151                   animation
     00000B4E  A$lcc2561621$152                   animation
     00000B51  A$lcc2561621$153                   animation
ASxxxx Linker V03.00/V05.40 + sdld,  page 13.
Hexadecimal  [32-Bits]

Area                                    Addr        Size        Decimal Bytes (Attributes)
--------------------------------        ----        ----        ------- ----- ------------
_CODE                               00000200    0000289F =       10399. bytes (REL,CON)

      Value  Global                              Global Defined In Module
      -----  --------------------------------   ------------------------
     00000B52  A$lcc2561621$154                   animation
     00000B53  A$lcc2561621$155                   animation
     00000B54  A$lcc2561621$156                   animation
     00000B55  A$lcc2561621$160                   animation
     00000B55  C$animation.c$24$2_0$137           animation
     00000B57  A$lcc2561621$162                   animation
     00000B58  A$lcc2561621$163                   animation
     00000B59  A$lcc2561621$164                   animation
     00000B5A  A$lcc2561621$165                   animation
     00000B5B  A$lcc2561621$166                   animation
     00000B5D  A$lcc2561621$167                   animation
     00000B5E  A$lcc2561621$168                   animation
     00000B60  A$lcc2561621$173                   animation
     00000B60  C$animation.c$32$2_0$140           animation
     00000B62  A$lcc2561621$174                   animation
     00000B63  A$lcc2561621$175                   animation
     00000B64  A$lcc2561621$176                   animation
     00000B65  A$lcc2561621$177                   animation
     00000B68  A$lcc2561621$178                   animation
     00000B69  A$lcc2561621$179                   animation
     00000B6A  A$lcc2561621$180                   animation
     00000B6B  A$lcc2561621$181                   animation
     00000B6C  A$lcc2561621$182                   animation
     00000B6D  A$lcc2561621$183                   animation
     00000B6F  A$lcc2561621$187                   animation
     00000B6F  C$animation.c$33$2_0$140           animation
     00000B71  A$lcc2561621$188                   animation
     00000B72  A$lcc2561621$189                   animation
     00000B73  A$lcc2561621$194                   animation
     00000B73  C$animation.c$34$2_0$137           animation
     00000B75  A$lcc2561621$195                   animation
     00000B76  A$lcc2561621$196                   animation
     00000B78  A$lcc2561621$197                   animation
     00000B79  A$lcc2561621$207                   animation
     00000B79  C$animation.c$36$2_0$142           animation
     00000B79  G$update_animation$0$0             animation
     00000B79  _update_animation                  animation
     00000B7A  A$lcc2561621$208                   animation
     00000B7B  A$lcc2561621$209                   animation
     00000B7C  A$lcc2561621$210                   animation
     00000B7D  A$lcc2561621$214                   animation
     00000B7D  C$animation.c$38$1_0$142           animation
     00000B80  A$lcc2561621$215                   animation
     00000B81  A$lcc2561621$216                   animation
     00000B82  A$lcc2561621$217                   animation
     00000B83  A$lcc2561621$218                   animation
     00000B84  A$lcc2561621$219                   animation
     00000B85  A$lcc2561621$220                   animation
     00000B86  A$lcc2561621$221                   animation
     00000B87  A$lcc2561621$222                   animation
     00000B88  A$lcc2561621$223                   animation
ASxxxx Linker V03.00/V05.40 + sdld,  page 14.
Hexadecimal  [32-Bits]

Area                                    Addr        Size        Decimal Bytes (Attributes)
--------------------------------        ----        ----        ------- ----- ------------
_CODE                               00000200    0000289F =       10399. bytes (REL,CON)

      Value  Global                              Global Defined In Module
      -----  --------------------------------   ------------------------
     00000B8A  A$lcc2561621$224                   animation
     00000B8B  A$lcc2561621$225                   animation
     00000B8C  A$lcc2561621$229                   animation
     00000B8C  C$animation.c$40$1_0$142           animation
     00000B8F  A$lcc2561621$230                   animation
     00000B90  A$lcc2561621$231                   animation
     00000B91  A$lcc2561621$232                   animation
     00000B92  A$lcc2561621$233                   animation
     00000B93  A$lcc2561621$234                   animation
     00000B94  A$lcc2561621$235                   animation
     00000B96  A$lcc2561621$236                   animation
     00000B97  A$lcc2561621$237                   animation
     00000B98  A$lcc2561621$241                   animation
     00000B98  C$animation.c$41$2_0$143           animation
     00000B99  A$lcc2561621$242                   animation
     00000B9A  A$lcc2561621$243                   animation
     00000B9B  A$lcc2561621$244                   animation
     00000B9C  A$lcc2561621$245                   animation
     00000B9D  A$lcc2561621$246                   animation
     00000B9E  A$lcc2561621$247                   animation
     00000BA0  A$lcc2561621$248                   animation
     00000BA1  A$lcc2561621$249                   animation
     00000BA3  A$lcc2561621$250                   animation
     00000BA4  A$lcc2561621$251                   animation
     00000BA5  A$lcc2561621$252                   animation
     00000BA7  A$lcc2561621$256                   animation
     00000BA7  C$animation.c$43$3_0$144           animation
     00000BA8  A$lcc2561621$257                   animation
     00000BA9  A$lcc2561621$261                   animation
     00000BA9  C$animation.c$44$3_0$144           animation
     00000BAA  A$lcc2561621$262                   animation
     00000BAB  A$lcc2561621$263                   animation
     00000BAC  A$lcc2561621$264                   animation
     00000BAD  A$lcc2561621$265                   animation
     00000BAE  A$lcc2561621$266                   animation
     00000BAF  A$lcc2561621$270                   animation
     00000BAF  C$animation.c$45$4_0$145           animation
     00000BB0  A$lcc2561621$271                   animation
     00000BB1  A$lcc2561621$272                   animation
     00000BB2  A$lcc2561621$273                   animation
     00000BB3  A$lcc2561621$274                   animation
     00000BB4  A$lcc2561621$275                   animation
     00000BB6  A$lcc2561621$279                   animation
     00000BB6  C$animation.c$46$4_0$145           animation
     00000BB8  A$lcc2561621$284                   animation
     00000BB9  A$lcc2561621$285                   animation
     00000BBA  A$lcc2561621$290                   animation
     00000BBA  C$animation.c$48$2_0$142           animation
     00000BBA  XG$update_animation$0$0            animation
     00000BBB  A$lcc2561621$300                   animation
     00000BBB  C$animation.c$50$2_0$147           animation
ASxxxx Linker V03.00/V05.40 + sdld,  page 15.
Hexadecimal  [32-Bits]

Area                                    Addr        Size        Decimal Bytes (Attributes)
--------------------------------        ----        ----        ------- ----- ------------
_CODE                               00000200    0000289F =       10399. bytes (REL,CON)

      Value  Global                              Global Defined In Module
      -----  --------------------------------   ------------------------
     00000BBB  G$set_animation$0$0                animation
     00000BBB  _set_animation                     animation
     00000BBC  A$lcc2561621$301                   animation
     00000BBD  A$lcc2561621$302                   animation
     00000BBE  A$lcc2561621$306                   animation
     00000BBE  C$animation.c$52$2_0$148           animation
     00000BBF  A$lcc2561621$307                   animation
     00000BC1  A$lcc2561621$308                   animation
     00000BC2  A$lcc2561621$309                   animation
     00000BC3  A$lcc2561621$310                   animation
     00000BC5  A$lcc2561621$311                   animation
     00000BC6  A$lcc2561621$312                   animation
     00000BC7  A$lcc2561621$313                   animation
     00000BC8  A$lcc2561621$314                   animation
     00000BC9  A$lcc2561621$321                   animation
     00000BC9  C$animation.c$53$2_0$148           animation
     00000BC9  C$animation.c$55$1_0$147           animation
     00000BCA  A$lcc2561621$322                   animation
     00000BCB  A$lcc2561621$326                   animation
     00000BCB  C$animation.c$56$1_1$149           animation
     00000BCC  A$lcc2561621$327                   animation
     00000BCD  A$lcc2561621$328                   animation
     00000BCE  A$lcc2561621$329                   animation
     00000BCF  A$lcc2561621$330                   animation
     00000BD1  A$lcc2561621$331                   animation
     00000BD2  A$lcc2561621$335                   animation
     00000BD2  C$animation.c$57$1_1$149           animation
     00000BD3  A$lcc2561621$336                   animation
     00000BD4  A$lcc2561621$337                   animation
     00000BD5  A$lcc2561621$338                   animation
     00000BD6  A$lcc2561621$339                   animation
     00000BD7  A$lcc2561621$340                   animation
     00000BD8  A$lcc2561621$344                   animation
     00000BD8  C$animation.c$58$1_1$149           animation
     00000BDB  A$lcc2561621$345                   animation
     00000BDC  A$lcc2561621$346                   animation
     00000BDE  A$lcc2561621$354                   animation
     00000BDE  C$animation.c$59$1_1$147           animation
     00000BDE  XG$set_animation$0$0               animation
     00000BDF  A$lcc2561623$52                    char_to_tile
     00000BDF  C$char_to_tile.c$3$0_0$3           char_to_tile
     00000BDF  G$char_to_tile$0$0                 char_to_tile
     00000BDF  _char_to_tile                      char_to_tile
     00000BE1  A$lcc2561623$53                    char_to_tile
     00000BE3  A$lcc2561623$54                    char_to_tile
     00000BE4  A$lcc2561623$58                    char_to_tile
     00000BE4  C$char_to_tile.c$4$2_0$3           char_to_tile
     00000BE6  A$lcc2561623$59                    char_to_tile
     00000BE8  A$lcc2561623$60                    char_to_tile
     00000BE9  A$lcc2561623$61                    char_to_tile
     00000BEB  A$lcc2561623$62                    char_to_tile
ASxxxx Linker V03.00/V05.40 + sdld,  page 16.
Hexadecimal  [32-Bits]

Area                                    Addr        Size        Decimal Bytes (Attributes)
--------------------------------        ----        ----        ------- ----- ------------
_CODE                               00000200    0000289F =       10399. bytes (REL,CON)

      Value  Global                              Global Defined In Module
      -----  --------------------------------   ------------------------
     00000BEC  A$lcc2561623$63                    char_to_tile
     00000BEE  A$lcc2561623$64                    char_to_tile
     00000BEF  A$lcc2561623$65                    char_to_tile
     00000BF1  A$lcc2561623$66                    char_to_tile
     00000BF2  A$lcc2561623$67                    char_to_tile
     00000BF4  A$lcc2561623$68                    char_to_tile
     00000BF5  A$lcc2561623$69                    char_to_tile
     00000BF7  A$lcc2561623$70                    char_to_tile
     00000BF8  A$lcc2561623$71                    char_to_tile
     00000BFA  A$lcc2561623$72                    char_to_tile
     00000BFB  A$lcc2561623$73                    char_to_tile
     00000BFD  A$lcc2561623$74                    char_to_tile
     00000BFE  A$lcc2561623$75                    char_to_tile
     00000C00  A$lcc2561623$76                    char_to_tile
     00000C01  A$lcc2561623$77                    char_to_tile
     00000C03  A$lcc2561623$78                    char_to_tile
     00000C04  A$lcc2561623$79                    char_to_tile
     00000C06  A$lcc2561623$80                    char_to_tile
     00000C07  A$lcc2561623$81                    char_to_tile
     00000C09  A$lcc2561623$82                    char_to_tile
     00000C0A  A$lcc2561623$83                    char_to_tile
     00000C0C  A$lcc2561623$84                    char_to_tile
     00000C0D  A$lcc2561623$85                    char_to_tile
     00000C0F  A$lcc2561623$86                    char_to_tile
     00000C10  A$lcc2561623$87                    char_to_tile
     00000C12  A$lcc2561623$88                    char_to_tile
     00000C13  A$lcc2561623$89                    char_to_tile
     00000C15  A$lcc2561623$90                    char_to_tile
     00000C16  A$lcc2561623$91                    char_to_tile
     00000C18  A$lcc2561623$92                    char_to_tile
     00000C19  A$lcc2561623$93                    char_to_tile
     00000C1B  A$lcc2561623$94                    char_to_tile
     00000C1C  A$lcc2561623$95                    char_to_tile
     00000C1E  A$lcc2561623$96                    char_to_tile
     00000C1F  A$lcc2561623$97                    char_to_tile
     00000C21  A$lcc2561623$98                    char_to_tile
     00000C22  A$lcc2561623$99                    char_to_tile
     00000C24  A$lcc2561623$100                   char_to_tile
     00000C25  A$lcc2561623$101                   char_to_tile
     00000C27  A$lcc2561623$102                   char_to_tile
     00000C28  A$lcc2561623$103                   char_to_tile
     00000C2A  A$lcc2561623$104                   char_to_tile
     00000C2B  A$lcc2561623$105                   char_to_tile
     00000C2D  A$lcc2561623$106                   char_to_tile
     00000C2E  A$lcc2561623$107                   char_to_tile
     00000C30  A$lcc2561623$108                   char_to_tile
     00000C31  A$lcc2561623$109                   char_to_tile
     00000C33  A$lcc2561623$110                   char_to_tile
     00000C34  A$lcc2561623$111                   char_to_tile
     00000C36  A$lcc2561623$112                   char_to_tile
     00000C37  A$lcc2561623$113                   char_to_tile
ASxxxx Linker V03.00/V05.40 + sdld,  page 17.
Hexadecimal  [32-Bits]

Area                                    Addr        Size        Decimal Bytes (Attributes)
--------------------------------        ----        ----        ------- ----- ------------
_CODE                               00000200    0000289F =       10399. bytes (REL,CON)

      Value  Global                              Global Defined In Module
      -----  --------------------------------   ------------------------
     00000C39  A$lcc2561623$114                   char_to_tile
     00000C3A  A$lcc2561623$115                   char_to_tile
     00000C3C  A$lcc2561623$116                   char_to_tile
     00000C3D  A$lcc2561623$117                   char_to_tile
     00000C3F  A$lcc2561623$118                   char_to_tile
     00000C40  A$lcc2561623$119                   char_to_tile
     00000C42  A$lcc2561623$120                   char_to_tile
     00000C43  A$lcc2561623$124                   char_to_tile
     00000C43  C$char_to_tile.c$5$3_0$4           char_to_tile
     00000C44  A$lcc2561623$125                   char_to_tile
     00000C45  A$lcc2561623$126                   char_to_tile
     00000C46  A$lcc2561623$127                   char_to_tile
     00000C47  A$lcc2561623$128                   char_to_tile
     00000C4A  A$lcc2561623$130                   char_to_tile
     00000C4B  A$lcc2561623$131                   char_to_tile
     00000C4D  A$lcc2561623$132                   char_to_tile
     00000C4F  A$lcc2561623$136                   char_to_tile
     00000C4F  C$char_to_tile.c$6$4_0$6           char_to_tile
     00000C52  A$lcc2561623$137                   char_to_tile
     00000C53  A$lcc2561623$138                   char_to_tile
     00000C54  A$lcc2561623$139                   char_to_tile
     00000C55  A$lcc2561623$140                   char_to_tile
     00000C57  A$lcc2561623$141                   char_to_tile
     00000C58  A$lcc2561623$142                   char_to_tile
     00000C59  A$lcc2561623$143                   char_to_tile
     00000C5B  A$lcc2561623$147                   char_to_tile
     00000C5B  C$char_to_tile.c$7$5_0$7           char_to_tile
     00000C5D  A$lcc2561623$148                   char_to_tile
     00000C5E  A$lcc2561623$149                   char_to_tile
     00000C60  A$lcc2561623$150                   char_to_tile
     00000C61  A$lcc2561623$151                   char_to_tile
     00000C63  A$lcc2561623$156                   char_to_tile
     00000C63  C$char_to_tile.c$5$2_0$4           char_to_tile
     00000C64  A$lcc2561623$157                   char_to_tile
     00000C66  A$lcc2561623$158                   char_to_tile
     00000C67  A$lcc2561623$159                   char_to_tile
     00000C68  A$lcc2561623$160                   char_to_tile
     00000C69  A$lcc2561623$161                   char_to_tile
     00000C6B  A$lcc2561623$166                   char_to_tile
     00000C6B  C$char_to_tile.c$11$1_0$3          char_to_tile
     00000C6E  A$lcc2561623$171                   char_to_tile
     00000C70  A$lcc2561623$176                   char_to_tile
     00000C70  C$char_to_tile.c$12$1_0$3          char_to_tile
     00000C70  XG$char_to_tile$0$0                char_to_tile
     00000C71  A$lcc2561624$52                    collision
     00000C71  C$collision.c$3$0_0$3              collision
     00000C71  G$check_collision$0$0              collision
     00000C71  _check_collision                   collision
     00000C73  A$lcc2561624$53                    collision
     00000C74  A$lcc2561624$54                    collision
     00000C76  A$lcc2561624$55                    collision
ASxxxx Linker V03.00/V05.40 + sdld,  page 18.
Hexadecimal  [32-Bits]

Area                                    Addr        Size        Decimal Bytes (Attributes)
--------------------------------        ----        ----        ------- ----- ------------
_CODE                               00000200    0000289F =       10399. bytes (REL,CON)

      Value  Global                              Global Defined In Module
      -----  --------------------------------   ------------------------
     00000C77  A$lcc2561624$59                    collision
     00000C77  C$collision.c$8$1_0$3              collision
     00000C79  A$lcc2561624$60                    collision
     00000C7A  A$lcc2561624$61                    collision
     00000C7C  A$lcc2561624$62                    collision
     00000C7D  A$lcc2561624$63                    collision
     00000C7F  A$lcc2561624$64                    collision
     00000C81  A$lcc2561624$65                    collision
     00000C82  A$lcc2561624$66                    collision
     00000C84  A$lcc2561624$67                    collision
     00000C85  A$lcc2561624$68                    collision
     00000C86  A$lcc2561624$69                    collision
     00000C87  A$lcc2561624$70                    collision
     00000C88  A$lcc2561624$71                    collision
     00000C89  A$lcc2561624$72                    collision
     00000C8A  A$lcc2561624$73                    collision
     00000C8B  A$lcc2561624$74                    collision
     00000C8C  A$lcc2561624$75                    collision
     00000C8D  A$lcc2561624$76                    collision
     00000C8E  A$lcc2561624$77                    collision
     00000C8F  A$lcc2561624$78                    collision
     00000C91  A$lcc2561624$79                    collision
     00000C92  A$lcc2561624$80                    collision
     00000C93  A$lcc2561624$81                    collision
     00000C94  A$lcc2561624$82                    collision
     00000C96  A$lcc2561624$83                    collision
     00000C97  A$lcc2561624$84                    collision
     00000C99  A$lcc2561624$85                    collision
     00000C9A  A$lcc2561624$86                    collision
     00000C9B  A$lcc2561624$87                    collision
     00000C9C  A$lcc2561624$88                    collision
     00000C9D  A$lcc2561624$89                    collision
     00000C9E  A$lcc2561624$90                    collision
     00000CA0  A$lcc2561624$94                    collision
     00000CA0  C$collision.c$9$1_0$3              collision
     00000CA1  A$lcc2561624$95                    collision
     00000CA2  A$lcc2561624$96                    collision
     00000CA3  A$lcc2561624$97                    collision
     00000CA4  A$lcc2561624$98                    collision
     00000CA5  A$lcc2561624$99                    collision
     00000CA7  A$lcc2561624$100                   collision
     00000CA8  A$lcc2561624$101                   collision
     00000CA9  A$lcc2561624$102                   collision
     00000CAA  A$lcc2561624$103                   collision
     00000CAB  A$lcc2561624$104                   collision
     00000CAD  A$lcc2561624$108                   collision
     00000CAD  C$collision.c$10$1_0$3             collision
     00000CAF  A$lcc2561624$109                   collision
     00000CB0  A$lcc2561624$110                   collision
     00000CB2  A$lcc2561624$111                   collision
     00000CB3  A$lcc2561624$112                   collision
ASxxxx Linker V03.00/V05.40 + sdld,  page 19.
Hexadecimal  [32-Bits]

Area                                    Addr        Size        Decimal Bytes (Attributes)
--------------------------------        ----        ----        ------- ----- ------------
_CODE                               00000200    0000289F =       10399. bytes (REL,CON)

      Value  Global                              Global Defined In Module
      -----  --------------------------------   ------------------------
     00000CB4  A$lcc2561624$113                   collision
     00000CB5  A$lcc2561624$114                   collision
     00000CB6  A$lcc2561624$115                   collision
     00000CB7  A$lcc2561624$116                   collision
     00000CB8  A$lcc2561624$117                   collision
     00000CB9  A$lcc2561624$118                   collision
     00000CBA  A$lcc2561624$119                   collision
     00000CBB  A$lcc2561624$120                   collision
     00000CBC  A$lcc2561624$121                   collision
     00000CBD  A$lcc2561624$122                   collision
     00000CBF  A$lcc2561624$123                   collision
     00000CC0  A$lcc2561624$124                   collision
     00000CC1  A$lcc2561624$125                   collision
     00000CC2  A$lcc2561624$126                   collision
     00000CC4  A$lcc2561624$127                   collision
     00000CC5  A$lcc2561624$128                   collision
     00000CC6  A$lcc2561624$129                   collision
     00000CC7  A$lcc2561624$130                   collision
     00000CC8  A$lcc2561624$131                   collision
     00000CCA  A$lcc2561624$132                   collision
     00000CCB  A$lcc2561624$133                   collision
     00000CCC  A$lcc2561624$134                   collision
     00000CCD  A$lcc2561624$135                   collision
     00000CCE  A$lcc2561624$136                   collision
     00000CCF  A$lcc2561624$137                   collision
     00000CD1  A$lcc2561624$141                   collision
     00000CD1  C$collision.c$11$1_0$3             collision
     00000CD2  A$lcc2561624$142                   collision
     00000CD3  A$lcc2561624$143                   collision
     00000CD4  A$lcc2561624$144                   collision
     00000CD5  A$lcc2561624$145                   collision
     00000CD6  A$lcc2561624$146                   collision
     00000CD8  A$lcc2561624$147                   collision
     00000CD9  A$lcc2561624$148                   collision
     00000CDA  A$lcc2561624$149                   collision
     00000CDB  A$lcc2561624$150                   collision
     00000CDC  A$lcc2561624$151                   collision
     00000CDE  A$lcc2561624$153                   collision
     00000CDF  A$lcc2561624$154                   collision
     00000CE1  A$lcc2561624$156                   collision
     00000CE3  A$lcc2561624$161                   collision
     00000CE3  C$collision.c$12$1_0$3             collision
     00000CE5  A$lcc2561624$162                   collision
     00000CE6  A$lcc2561624$163                   collision
     00000CE8  A$lcc2561624$164                   collision
     00000CE9  A$lcc2561625$53                    draw
     00000CE9  C$draw.c$7$0_0$139                 draw
     00000CE9  G$draw_actor$0$0                   draw
     00000CE9  _draw_actor                        draw
     00000CEB  A$lcc2561625$54                    draw
     00000CED  A$lcc2561625$55                    draw
ASxxxx Linker V03.00/V05.40 + sdld,  page 20.
Hexadecimal  [32-Bits]

Area                                    Addr        Size        Decimal Bytes (Attributes)
--------------------------------        ----        ----        ------- ----- ------------
_CODE                               00000200    0000289F =       10399. bytes (REL,CON)

      Value  Global                              Global Defined In Module
      -----  --------------------------------   ------------------------
     00000CEE  A$lcc2561625$59                    draw
     00000CEE  C$draw.c$9$1_0$139                 draw
     00000CF1  A$lcc2561625$60                    draw
     00000CF2  A$lcc2561625$61                    draw
     00000CF4  A$lcc2561625$62                    draw
     00000CF5  A$lcc2561625$63                    draw
     00000CF6  A$lcc2561625$64                    draw
     00000CF7  A$lcc2561625$65                    draw
     00000CF8  A$lcc2561625$66                    draw
     00000CFA  A$lcc2561625$67                    draw
     00000CFB  A$lcc2561625$71                    draw
     00000CFB  C$draw.c$10$1_0$139                draw
     00000CFE  A$lcc2561625$72                    draw
     00000D00  A$lcc2561625$73                    draw
     00000D01  A$lcc2561625$74                    draw
     00000D03  A$lcc2561625$75                    draw
     00000D04  A$lcc2561625$76                    draw
     00000D05  A$lcc2561625$77                    draw
     00000D06  A$lcc2561625$78                    draw
     00000D07  A$lcc2561625$79                    draw
     00000D09  A$lcc2561625$80                    draw
     00000D0A  A$lcc2561625$84                    draw
     00000D0A  C$draw.c$12$1_0$139                draw
     00000D0D  A$lcc2561625$85                    draw
     00000D0F  A$lcc2561625$86                    draw
     00000D10  A$lcc2561625$87                    draw
     00000D12  A$lcc2561625$88                    draw
     00000D13  A$lcc2561625$89                    draw
     00000D14  A$lcc2561625$90                    draw
     00000D15  A$lcc2561625$91                    draw
     00000D16  A$lcc2561625$92                    draw
     00000D17  A$lcc2561625$93                    draw
     00000D18  A$lcc2561625$94                    draw
     00000D19  A$lcc2561625$95                    draw
     00000D1A  A$lcc2561625$96                    draw
     00000D1B  A$lcc2561625$97                    draw
     00000D1C  A$lcc2561625$98                    draw
     00000D1D  A$lcc2561625$99                    draw
     00000D1E  A$lcc2561625$103                   draw
     00000D1E  C$draw.c$13$1_0$139                draw
     00000D21  A$lcc2561625$104                   draw
     00000D22  A$lcc2561625$105                   draw
     00000D23  A$lcc2561625$106                   draw
     00000D24  A$lcc2561625$107                   draw
     00000D25  A$lcc2561625$108                   draw
     00000D26  A$lcc2561625$109                   draw
     00000D27  A$lcc2561625$110                   draw
     00000D28  A$lcc2561625$111                   draw
     00000D29  A$lcc2561625$112                   draw
     00000D2B  A$lcc2561625$113                   draw
     00000D2C  A$lcc2561625$114                   draw
ASxxxx Linker V03.00/V05.40 + sdld,  page 21.
Hexadecimal  [32-Bits]

Area                                    Addr        Size        Decimal Bytes (Attributes)
--------------------------------        ----        ----        ------- ----- ------------
_CODE                               00000200    0000289F =       10399. bytes (REL,CON)

      Value  Global                              Global Defined In Module
      -----  --------------------------------   ------------------------
     00000D2D  A$lcc2561625$118                   draw
     00000D2D  C$draw.c$15$1_0$139                draw
     00000D30  A$lcc2561625$119                   draw
     00000D31  A$lcc2561625$120                   draw
     00000D32  A$lcc2561625$121                   draw
     00000D34  A$lcc2561625$122                   draw
     00000D35  A$lcc2561625$126                   draw
     00000D35  C$draw.c$16$1_0$139                draw
     00000D36  A$lcc2561625$127                   draw
     00000D37  A$lcc2561625$128                   draw
     00000D38  A$lcc2561625$129                   draw
     00000D39  A$lcc2561625$130                   draw
     00000D3A  A$lcc2561625$131                   draw
     00000D3B  A$lcc2561625$132                   draw
     00000D3E  A$lcc2561625$133                   draw
     00000D3F  A$lcc2561625$134                   draw
     00000D40  A$lcc2561625$135                   draw
     00000D41  A$lcc2561625$136                   draw
     00000D43  A$lcc2561625$140                   draw
     00000D43  C$draw.c$18$1_0$139                draw
     00000D44  A$lcc2561625$141                   draw
     00000D45  A$lcc2561625$142                   draw
     00000D46  A$lcc2561625$143                   draw
     00000D47  A$lcc2561625$144                   draw
     00000D48  A$lcc2561625$148                   draw
     00000D48  C$draw.c$19$1_0$139                draw
     00000D4A  A$lcc2561625$149                   draw
     00000D4B  A$lcc2561625$150                   draw
     00000D4C  A$lcc2561625$151                   draw
     00000D4D  A$lcc2561625$152                   draw
     00000D4E  A$lcc2561625$153                   draw
     00000D4F  A$lcc2561625$154                   draw
     00000D50  A$lcc2561625$155                   draw
     00000D51  A$lcc2561625$156                   draw
     00000D52  A$lcc2561625$157                   draw
     00000D53  A$lcc2561625$158                   draw
     00000D54  A$lcc2561625$159                   draw
     00000D55  A$lcc2561625$160                   draw
     00000D56  A$lcc2561625$161                   draw
     00000D57  A$lcc2561625$162                   draw
     00000D58  A$lcc2561625$166                   draw
     00000D58  C$draw.c$21$2_0$140                draw
     00000D5A  A$lcc2561625$167                   draw
     00000D5B  A$lcc2561625$174                   draw
     00000D5B  C$draw.c$22$2_0$140                draw
     00000D5B  C$draw.c$25$2_0$139                draw
     00000D5E  A$lcc2561625$175                   draw
     00000D60  A$lcc2561625$177                   draw
     00000D61  A$lcc2561625$178                   draw
     00000D63  A$lcc2561625$179                   draw
     00000D64  A$lcc2561625$180                   draw
ASxxxx Linker V03.00/V05.40 + sdld,  page 22.
Hexadecimal  [32-Bits]

Area                                    Addr        Size        Decimal Bytes (Attributes)
--------------------------------        ----        ----        ------- ----- ------------
_CODE                               00000200    0000289F =       10399. bytes (REL,CON)

      Value  Global                              Global Defined In Module
      -----  --------------------------------   ------------------------
     00000D66  A$lcc2561625$182                   draw
     00000D67  A$lcc2561625$183                   draw
     00000D68  A$lcc2561625$184                   draw
     00000D69  A$lcc2561625$185                   draw
     00000D6A  A$lcc2561625$186                   draw
     00000D6B  A$lcc2561625$187                   draw
     00000D6D  A$lcc2561625$188                   draw
     00000D70  A$lcc2561625$189                   draw
     00000D71  A$lcc2561625$190                   draw
     00000D72  A$lcc2561625$191                   draw
     00000D73  A$lcc2561625$192                   draw
     00000D74  A$lcc2561625$194                   draw
     00000D75  A$lcc2561625$195                   draw
     00000D76  A$lcc2561625$196                   draw
     00000D77  A$lcc2561625$197                   draw
     00000D78  A$lcc2561625$198                   draw
     00000D79  A$lcc2561625$199                   draw
     00000D7A  A$lcc2561625$200                   draw
     00000D7D  A$lcc2561625$201                   draw
     00000D7E  A$lcc2561625$202                   draw
     00000D7F  A$lcc2561625$203                   draw
     00000D80  A$lcc2561625$204                   draw
     00000D81  A$lcc2561625$205                   draw
     00000D82  A$lcc2561625$209                   draw
     00000D82  C$draw.c$25$2_0$141                draw
     00000D83  A$lcc2561625$210                   draw
     00000D85  A$lcc2561625$215                   draw
     00000D85  C$draw.c$29$2_0$142                draw
     00000D87  A$lcc2561625$216                   draw
     00000D88  A$lcc2561625$217                   draw
     00000D89  A$lcc2561625$218                   draw
     00000D8B  A$lcc2561625$220                   draw
     00000D8D  A$lcc2561625$221                   draw
     00000D8E  A$lcc2561625$223                   draw
     00000D8F  A$lcc2561625$224                   draw
     00000D90  A$lcc2561625$225                   draw
     00000D91  A$lcc2561625$226                   draw
     00000D92  A$lcc2561625$227                   draw
     00000D93  A$lcc2561625$228                   draw
     00000D96  A$lcc2561625$229                   draw
     00000D97  A$lcc2561625$230                   draw
     00000D98  A$lcc2561625$231                   draw
     00000D99  A$lcc2561625$233                   draw
     00000D9B  A$lcc2561625$234                   draw
     00000D9C  A$lcc2561625$235                   draw
     00000D9D  A$lcc2561625$236                   draw
     00000D9E  A$lcc2561625$237                   draw
     00000D9F  A$lcc2561625$238                   draw
     00000DA0  A$lcc2561625$242                   draw
     00000DA0  C$draw.c$31$2_0$142                draw
     00000DA3  A$lcc2561625$247                   draw
ASxxxx Linker V03.00/V05.40 + sdld,  page 23.
Hexadecimal  [32-Bits]

Area                                    Addr        Size        Decimal Bytes (Attributes)
--------------------------------        ----        ----        ------- ----- ------------
_CODE                               00000200    0000289F =       10399. bytes (REL,CON)

      Value  Global                              Global Defined In Module
      -----  --------------------------------   ------------------------
     00000DA3  C$draw.c$33$3_0$144                draw
     00000DA5  A$lcc2561625$248                   draw
     00000DA6  A$lcc2561625$249                   draw
     00000DA8  A$lcc2561625$250                   draw
     00000DAA  A$lcc2561625$254                   draw
     00000DAD  A$lcc2561625$255                   draw
     00000DAF  A$lcc2561625$256                   draw
     00000DB0  A$lcc2561625$257                   draw
     00000DB2  A$lcc2561625$258                   draw
     00000DB3  A$lcc2561625$259                   draw
     00000DB4  A$lcc2561625$260                   draw
     00000DB5  A$lcc2561625$261                   draw
     00000DB6  A$lcc2561625$262                   draw
     00000DB7  A$lcc2561625$266                   draw
     00000DB7  C$draw.c$31$2_0$139                draw
     00000DB9  A$lcc2561625$267                   draw
     00000DBA  A$lcc2561625$271                   draw
     00000DBA  C$draw.c$35$5_0$146                draw
     00000DBC  A$lcc2561625$272                   draw
     00000DBE  A$lcc2561625$275                   draw
     00000DBF  A$lcc2561625$276                   draw
     00000DC0  A$lcc2561625$277                   draw
     00000DC1  A$lcc2561625$278                   draw
     00000DC2  A$lcc2561625$279                   draw
     00000DC3  A$lcc2561625$280                   draw
     00000DC6  A$lcc2561625$281                   draw
     00000DC7  A$lcc2561625$282                   draw
     00000DC8  A$lcc2561625$283                   draw
     00000DC9  A$lcc2561625$285                   draw
     00000DCB  A$lcc2561625$286                   draw
     00000DCC  A$lcc2561625$287                   draw
     00000DCD  A$lcc2561625$288                   draw
     00000DCE  A$lcc2561625$290                   draw
     00000DCF  A$lcc2561625$291                   draw
     00000DD0  A$lcc2561625$292                   draw
     00000DD1  A$lcc2561625$293                   draw
     00000DD3  A$lcc2561625$294                   draw
     00000DD4  A$lcc2561625$295                   draw
     00000DD6  A$lcc2561625$297                   draw
     00000DD7  A$lcc2561625$298                   draw
     00000DDA  A$lcc2561625$299                   draw
     00000DDB  A$lcc2561625$300                   draw
     00000DDC  A$lcc2561625$301                   draw
     00000DDD  A$lcc2561625$302                   draw
     00000DDE  A$lcc2561625$303                   draw
     00000DDF  A$lcc2561625$304                   draw
     00000DE0  A$lcc2561625$305                   draw
     00000DE1  A$lcc2561625$307                   draw
     00000DE2  A$lcc2561625$308                   draw
     00000DE3  A$lcc2561625$309                   draw
     00000DE4  A$lcc2561625$310                   draw
ASxxxx Linker V03.00/V05.40 + sdld,  page 24.
Hexadecimal  [32-Bits]

Area                                    Addr        Size        Decimal Bytes (Attributes)
--------------------------------        ----        ----        ------- ----- ------------
_CODE                               00000200    0000289F =       10399. bytes (REL,CON)

      Value  Global                              Global Defined In Module
      -----  --------------------------------   ------------------------
     00000DE6  A$lcc2561625$311                   draw
     00000DE7  A$lcc2561625$312                   draw
     00000DE8  A$lcc2561625$316                   draw
     00000DE8  C$draw.c$38$5_0$146                draw
     00000DEB  A$lcc2561625$320                   draw
     00000DEC  A$lcc2561625$321                   draw
     00000DED  A$lcc2561625$322                   draw
     00000DEE  A$lcc2561625$323                   draw
     00000DEF  A$lcc2561625$324                   draw
     00000DF0  A$lcc2561625$325                   draw
     00000DF3  A$lcc2561625$326                   draw
     00000DF4  A$lcc2561625$327                   draw
     00000DF5  A$lcc2561625$328                   draw
     00000DF6  A$lcc2561625$330                   draw
     00000DF8  A$lcc2561625$331                   draw
     00000DF9  A$lcc2561625$332                   draw
     00000DFA  A$lcc2561625$333                   draw
     00000DFB  A$lcc2561625$334                   draw
     00000DFC  A$lcc2561625$335                   draw
     00000DFD  A$lcc2561625$337                   draw
     00000DFE  A$lcc2561625$338                   draw
     00000E00  A$lcc2561625$339                   draw
     00000E01  A$lcc2561625$340                   draw
     00000E03  A$lcc2561625$342                   draw
     00000E04  A$lcc2561625$343                   draw
     00000E05  A$lcc2561625$344                   draw
     00000E06  A$lcc2561625$345                   draw
     00000E07  A$lcc2561625$346                   draw
     00000E08  A$lcc2561625$347                   draw
     00000E0B  A$lcc2561625$348                   draw
     00000E0C  A$lcc2561625$350                   draw
     00000E0D  A$lcc2561625$351                   draw
     00000E0F  A$lcc2561625$352                   draw
     00000E10  A$lcc2561625$353                   draw
     00000E11  A$lcc2561625$354                   draw
     00000E12  A$lcc2561625$355                   draw
     00000E13  A$lcc2561625$359                   draw
     00000E13  C$draw.c$43$3_0$144                draw
     00000E15  A$lcc2561625$364                   draw
     00000E15  C$draw.c$46$4_0$149                draw
     00000E17  A$lcc2561625$365                   draw
     00000E18  A$lcc2561625$366                   draw
     00000E1A  A$lcc2561625$367                   draw
     00000E1C  A$lcc2561625$369                   draw
     00000E1E  A$lcc2561625$370                   draw
     00000E1F  A$lcc2561625$372                   draw
     00000E20  A$lcc2561625$373                   draw
     00000E21  A$lcc2561625$374                   draw
     00000E22  A$lcc2561625$375                   draw
     00000E23  A$lcc2561625$376                   draw
     00000E24  A$lcc2561625$377                   draw
ASxxxx Linker V03.00/V05.40 + sdld,  page 25.
Hexadecimal  [32-Bits]

Area                                    Addr        Size        Decimal Bytes (Attributes)
--------------------------------        ----        ----        ------- ----- ------------
_CODE                               00000200    0000289F =       10399. bytes (REL,CON)

      Value  Global                              Global Defined In Module
      -----  --------------------------------   ------------------------
     00000E27  A$lcc2561625$378                   draw
     00000E28  A$lcc2561625$379                   draw
     00000E29  A$lcc2561625$380                   draw
     00000E2A  A$lcc2561625$382                   draw
     00000E2C  A$lcc2561625$383                   draw
     00000E2D  A$lcc2561625$384                   draw
     00000E2E  A$lcc2561625$385                   draw
     00000E2F  A$lcc2561625$386                   draw
     00000E30  A$lcc2561625$387                   draw
     00000E31  A$lcc2561625$389                   draw
     00000E32  A$lcc2561625$390                   draw
     00000E34  A$lcc2561625$391                   draw
     00000E36  A$lcc2561625$392                   draw
     00000E37  A$lcc2561625$393                   draw
     00000E38  A$lcc2561625$394                   draw
     00000E3A  A$lcc2561625$396                   draw
     00000E3B  A$lcc2561625$397                   draw
     00000E3C  A$lcc2561625$398                   draw
     00000E3D  A$lcc2561625$399                   draw
     00000E3E  A$lcc2561625$400                   draw
     00000E3F  A$lcc2561625$401                   draw
     00000E42  A$lcc2561625$402                   draw
     00000E43  A$lcc2561625$404                   draw
     00000E44  A$lcc2561625$405                   draw
     00000E46  A$lcc2561625$406                   draw
     00000E47  A$lcc2561625$407                   draw
     00000E48  A$lcc2561625$408                   draw
     00000E49  A$lcc2561625$409                   draw
     00000E4A  A$lcc2561625$411                   draw
     00000E4C  A$lcc2561625$412                   draw
     00000E4D  A$lcc2561625$413                   draw
     00000E4F  A$lcc2561625$414                   draw
     00000E50  A$lcc2561625$415                   draw
     00000E51  A$lcc2561625$416                   draw
     00000E53  A$lcc2561625$418                   draw
     00000E54  A$lcc2561625$419                   draw
     00000E55  A$lcc2561625$420                   draw
     00000E56  A$lcc2561625$421                   draw
     00000E57  A$lcc2561625$422                   draw
     00000E58  A$lcc2561625$423                   draw
     00000E5B  A$lcc2561625$424                   draw
     00000E5C  A$lcc2561625$425                   draw
     00000E5D  A$lcc2561625$426                   draw
     00000E5E  A$lcc2561625$428                   draw
     00000E60  A$lcc2561625$429                   draw
     00000E61  A$lcc2561625$430                   draw
     00000E62  A$lcc2561625$431                   draw
     00000E63  A$lcc2561625$432                   draw
     00000E64  A$lcc2561625$434                   draw
     00000E65  A$lcc2561625$435                   draw
     00000E66  A$lcc2561625$437                   draw
ASxxxx Linker V03.00/V05.40 + sdld,  page 26.
Hexadecimal  [32-Bits]

Area                                    Addr        Size        Decimal Bytes (Attributes)
--------------------------------        ----        ----        ------- ----- ------------
_CODE                               00000200    0000289F =       10399. bytes (REL,CON)

      Value  Global                              Global Defined In Module
      -----  --------------------------------   ------------------------
     00000E67  A$lcc2561625$438                   draw
     00000E6A  A$lcc2561625$439                   draw
     00000E6B  A$lcc2561625$440                   draw
     00000E6C  A$lcc2561625$441                   draw
     00000E6D  A$lcc2561625$442                   draw
     00000E6E  A$lcc2561625$443                   draw
     00000E6F  A$lcc2561625$444                   draw
     00000E70  A$lcc2561625$445                   draw
     00000E71  A$lcc2561625$447                   draw
     00000E72  A$lcc2561625$448                   draw
     00000E73  A$lcc2561625$449                   draw
     00000E74  A$lcc2561625$450                   draw
     00000E76  A$lcc2561625$451                   draw
     00000E77  A$lcc2561625$452                   draw
     00000E78  A$lcc2561625$460                   draw
     00000E78  C$draw.c$51$2_0$139                draw
     00000E7A  A$lcc2561625$465                   draw
     00000E7A  C$draw.c$53$2_0$139                draw
     00000E7A  XG$draw_actor$0$0                  draw
     00000E7B  A$lcc2561625$475                   draw
     00000E7B  C$draw.c$55$2_0$182                draw
     00000E7B  G$draw_extra$0$0                   draw
     00000E7B  _draw_extra                        draw
     00000E7D  A$lcc2561625$476                   draw
     00000E7E  A$lcc2561625$477                   draw
     00000E80  A$lcc2561625$478                   draw
     00000E81  A$lcc2561625$482                   draw
     00000E81  C$draw.c$58$1_0$182                draw
     00000E83  A$lcc2561625$483                   draw
     00000E84  A$lcc2561625$484                   draw
     00000E85  A$lcc2561625$485                   draw
     00000E86  A$lcc2561625$486                   draw
     00000E87  A$lcc2561625$487                   draw
     00000E8A  A$lcc2561625$488                   draw
     00000E8B  A$lcc2561625$489                   draw
     00000E8C  A$lcc2561625$490                   draw
     00000E8D  A$lcc2561625$491                   draw
     00000E8F  A$lcc2561625$492                   draw
     00000E90  A$lcc2561625$496                   draw
     00000E90  C$draw.c$72$2_0$182                draw
     00000E92  A$lcc2561625$497                   draw
     00000E93  A$lcc2561625$498                   draw
     00000E94  A$lcc2561625$499                   draw
     00000E97  A$lcc2561625$500                   draw
     00000E98  A$lcc2561625$501                   draw
     00000E9A  A$lcc2561625$502                   draw
     00000E9C  A$lcc2561625$503                   draw
     00000E9D  A$lcc2561625$507                   draw
     00000E9D  C$draw.c$75$2_0$183                draw
     00000E9E  A$lcc2561625$508                   draw
     00000EA0  A$lcc2561625$509                   draw
ASxxxx Linker V03.00/V05.40 + sdld,  page 27.
Hexadecimal  [32-Bits]

Area                                    Addr        Size        Decimal Bytes (Attributes)
--------------------------------        ----        ----        ------- ----- ------------
_CODE                               00000200    0000289F =       10399. bytes (REL,CON)

      Value  Global                              Global Defined In Module
      -----  --------------------------------   ------------------------
     00000EA2  A$lcc2561625$510                   draw
     00000EA3  A$lcc2561625$511                   draw
     00000EA5  A$lcc2561625$512                   draw
     00000EA6  A$lcc2561625$513                   draw
     00000EA7  A$lcc2561625$514                   draw
     00000EA9  A$lcc2561625$515                   draw
     00000EAA  A$lcc2561625$516                   draw
     00000EAC  A$lcc2561625$517                   draw
     00000EAD  A$lcc2561625$524                   draw
     00000EAD  C$draw.c$76$2_0$183                draw
     00000EAD  C$draw.c$79$2_0$182                draw
     00000EB0  A$lcc2561625$525                   draw
     00000EB2  A$lcc2561625$527                   draw
     00000EB3  A$lcc2561625$528                   draw
     00000EB5  A$lcc2561625$529                   draw
     00000EB6  A$lcc2561625$530                   draw
     00000EB8  A$lcc2561625$532                   draw
     00000EBA  A$lcc2561625$533                   draw
     00000EBB  A$lcc2561625$534                   draw
     00000EBC  A$lcc2561625$535                   draw
     00000EBD  A$lcc2561625$536                   draw
     00000EBE  A$lcc2561625$537                   draw
     00000EBF  A$lcc2561625$538                   draw
     00000EC0  A$lcc2561625$540                   draw
     00000EC1  A$lcc2561625$541                   draw
     00000EC2  A$lcc2561625$542                   draw
     00000EC3  A$lcc2561625$543                   draw
     00000EC4  A$lcc2561625$544                   draw
     00000EC5  A$lcc2561625$545                   draw
     00000EC6  A$lcc2561625$546                   draw
     00000EC9  A$lcc2561625$547                   draw
     00000ECA  A$lcc2561625$548                   draw
     00000ECB  A$lcc2561625$549                   draw
     00000ECC  A$lcc2561625$550                   draw
     00000ECD  A$lcc2561625$551                   draw
     00000ECE  A$lcc2561625$552                   draw
     00000ED0  A$lcc2561625$553                   draw
     00000ED1  A$lcc2561625$554                   draw
     00000ED2  A$lcc2561625$555                   draw
     00000ED3  A$lcc2561625$559                   draw
     00000ED3  C$draw.c$79$2_0$184                draw
     00000ED4  A$lcc2561625$560                   draw
     00000ED6  A$lcc2561625$565                   draw
     00000ED6  C$draw.c$85$2_0$182                draw
     00000ED8  A$lcc2561625$566                   draw
     00000ED9  A$lcc2561625$567                   draw
     00000EDB  A$lcc2561625$568                   draw
     00000EDC  A$lcc2561625$572                   draw
     00000EDC  C$draw.c$83$2_0$185                draw
     00000EDE  A$lcc2561625$573                   draw
     00000EDF  A$lcc2561625$574                   draw
ASxxxx Linker V03.00/V05.40 + sdld,  page 28.
Hexadecimal  [32-Bits]

Area                                    Addr        Size        Decimal Bytes (Attributes)
--------------------------------        ----        ----        ------- ----- ------------
_CODE                               00000200    0000289F =       10399. bytes (REL,CON)

      Value  Global                              Global Defined In Module
      -----  --------------------------------   ------------------------
     00000EE0  A$lcc2561625$575                   draw
     00000EE2  A$lcc2561625$577                   draw
     00000EE3  A$lcc2561625$578                   draw
     00000EE4  A$lcc2561625$579                   draw
     00000EE5  A$lcc2561625$580                   draw
     00000EE6  A$lcc2561625$581                   draw
     00000EE9  A$lcc2561625$582                   draw
     00000EEA  A$lcc2561625$583                   draw
     00000EEB  A$lcc2561625$584                   draw
     00000EEC  A$lcc2561625$586                   draw
     00000EEE  A$lcc2561625$587                   draw
     00000EEF  A$lcc2561625$588                   draw
     00000EF0  A$lcc2561625$589                   draw
     00000EF1  A$lcc2561625$590                   draw
     00000EF3  A$lcc2561625$591                   draw
     00000EF4  A$lcc2561625$592                   draw
     00000EF5  A$lcc2561625$596                   draw
     00000EF5  C$draw.c$85$2_0$185                draw
     00000EF8  A$lcc2561625$601                   draw
     00000EF8  C$draw.c$87$3_0$187                draw
     00000EFA  A$lcc2561625$602                   draw
     00000EFB  A$lcc2561625$603                   draw
     00000EFD  A$lcc2561625$604                   draw
     00000EFF  A$lcc2561625$608                   draw
     00000EFF  C$draw.c$89$5_0$189                draw
     00000F01  A$lcc2561625$609                   draw
     00000F02  A$lcc2561625$610                   draw
     00000F03  A$lcc2561625$611                   draw
     00000F05  A$lcc2561625$613                   draw
     00000F06  A$lcc2561625$614                   draw
     00000F07  A$lcc2561625$615                   draw
     00000F08  A$lcc2561625$616                   draw
     00000F09  A$lcc2561625$617                   draw
     00000F0C  A$lcc2561625$618                   draw
     00000F0D  A$lcc2561625$619                   draw
     00000F0E  A$lcc2561625$620                   draw
     00000F0F  A$lcc2561625$622                   draw
     00000F11  A$lcc2561625$623                   draw
     00000F12  A$lcc2561625$624                   draw
     00000F13  A$lcc2561625$625                   draw
     00000F14  A$lcc2561625$626                   draw
     00000F16  A$lcc2561625$627                   draw
     00000F17  A$lcc2561625$628                   draw
     00000F18  A$lcc2561625$630                   draw
     00000F1A  A$lcc2561625$631                   draw
     00000F1B  A$lcc2561625$632                   draw
     00000F1C  A$lcc2561625$633                   draw
     00000F1E  A$lcc2561625$634                   draw
     00000F1F  A$lcc2561625$635                   draw
     00000F20  A$lcc2561625$636                   draw
     00000F21  A$lcc2561625$638                   draw
ASxxxx Linker V03.00/V05.40 + sdld,  page 29.
Hexadecimal  [32-Bits]

Area                                    Addr        Size        Decimal Bytes (Attributes)
--------------------------------        ----        ----        ------- ----- ------------
_CODE                               00000200    0000289F =       10399. bytes (REL,CON)

      Value  Global                              Global Defined In Module
      -----  --------------------------------   ------------------------
     00000F22  A$lcc2561625$639                   draw
     00000F23  A$lcc2561625$640                   draw
     00000F24  A$lcc2561625$641                   draw
     00000F25  A$lcc2561625$642                   draw
     00000F26  A$lcc2561625$643                   draw
     00000F29  A$lcc2561625$644                   draw
     00000F2A  A$lcc2561625$646                   draw
     00000F2B  A$lcc2561625$647                   draw
     00000F2C  A$lcc2561625$648                   draw
     00000F2D  A$lcc2561625$649                   draw
     00000F2E  A$lcc2561625$650                   draw
     00000F30  A$lcc2561625$651                   draw
     00000F31  A$lcc2561625$652                   draw
     00000F32  A$lcc2561625$656                   draw
     00000F32  C$draw.c$92$5_0$189                draw
     00000F35  A$lcc2561625$659                   draw
     00000F36  A$lcc2561625$660                   draw
     00000F37  A$lcc2561625$661                   draw
     00000F38  A$lcc2561625$662                   draw
     00000F39  A$lcc2561625$663                   draw
     00000F3C  A$lcc2561625$664                   draw
     00000F3D  A$lcc2561625$665                   draw
     00000F3E  A$lcc2561625$666                   draw
     00000F3F  A$lcc2561625$668                   draw
     00000F41  A$lcc2561625$669                   draw
     00000F42  A$lcc2561625$670                   draw
     00000F43  A$lcc2561625$671                   draw
     00000F44  A$lcc2561625$672                   draw
     00000F46  A$lcc2561625$673                   draw
     00000F47  A$lcc2561625$674                   draw
     00000F48  A$lcc2561625$676                   draw
     00000F49  A$lcc2561625$677                   draw
     00000F4B  A$lcc2561625$678                   draw
     00000F4C  A$lcc2561625$679                   draw
     00000F4D  A$lcc2561625$680                   draw
     00000F4E  A$lcc2561625$682                   draw
     00000F4F  A$lcc2561625$683                   draw
     00000F50  A$lcc2561625$684                   draw
     00000F51  A$lcc2561625$685                   draw
     00000F52  A$lcc2561625$686                   draw
     00000F53  A$lcc2561625$687                   draw
     00000F56  A$lcc2561625$688                   draw
     00000F57  A$lcc2561625$690                   draw
     00000F58  A$lcc2561625$691                   draw
     00000F5A  A$lcc2561625$692                   draw
     00000F5B  A$lcc2561625$693                   draw
     00000F5C  A$lcc2561625$694                   draw
     00000F5D  A$lcc2561625$695                   draw
     00000F5E  A$lcc2561625$699                   draw
     00000F5E  C$draw.c$97$3_0$187                draw
     00000F60  A$lcc2561625$704                   draw
ASxxxx Linker V03.00/V05.40 + sdld,  page 30.
Hexadecimal  [32-Bits]

Area                                    Addr        Size        Decimal Bytes (Attributes)
--------------------------------        ----        ----        ------- ----- ------------
_CODE                               00000200    0000289F =       10399. bytes (REL,CON)

      Value  Global                              Global Defined In Module
      -----  --------------------------------   ------------------------
     00000F60  C$draw.c$100$4_0$192               draw
     00000F62  A$lcc2561625$705                   draw
     00000F63  A$lcc2561625$706                   draw
     00000F65  A$lcc2561625$707                   draw
     00000F67  A$lcc2561625$709                   draw
     00000F68  A$lcc2561625$710                   draw
     00000F69  A$lcc2561625$711                   draw
     00000F6A  A$lcc2561625$712                   draw
     00000F6B  A$lcc2561625$713                   draw
     00000F6E  A$lcc2561625$714                   draw
     00000F6F  A$lcc2561625$715                   draw
     00000F70  A$lcc2561625$716                   draw
     00000F71  A$lcc2561625$718                   draw
     00000F73  A$lcc2561625$719                   draw
     00000F74  A$lcc2561625$720                   draw
     00000F75  A$lcc2561625$721                   draw
     00000F76  A$lcc2561625$722                   draw
     00000F78  A$lcc2561625$723                   draw
     00000F79  A$lcc2561625$724                   draw
     00000F7A  A$lcc2561625$726                   draw
     00000F7B  A$lcc2561625$727                   draw
     00000F7C  A$lcc2561625$728                   draw
     00000F7E  A$lcc2561625$729                   draw
     00000F7F  A$lcc2561625$730                   draw
     00000F80  A$lcc2561625$731                   draw
     00000F81  A$lcc2561625$732                   draw
     00000F82  A$lcc2561625$733                   draw
     00000F83  A$lcc2561625$735                   draw
     00000F84  A$lcc2561625$736                   draw
     00000F85  A$lcc2561625$737                   draw
     00000F86  A$lcc2561625$738                   draw
     00000F87  A$lcc2561625$739                   draw
     00000F88  A$lcc2561625$740                   draw
     00000F8B  A$lcc2561625$741                   draw
     00000F8C  A$lcc2561625$743                   draw
     00000F8D  A$lcc2561625$744                   draw
     00000F8F  A$lcc2561625$745                   draw
     00000F90  A$lcc2561625$746                   draw
     00000F91  A$lcc2561625$747                   draw
     00000F92  A$lcc2561625$748                   draw
     00000F93  A$lcc2561625$750                   draw
     00000F95  A$lcc2561625$751                   draw
     00000F96  A$lcc2561625$752                   draw
     00000F98  A$lcc2561625$753                   draw
     00000F99  A$lcc2561625$754                   draw
     00000F9A  A$lcc2561625$755                   draw
     00000F9B  A$lcc2561625$756                   draw
     00000F9C  A$lcc2561625$757                   draw
     00000F9D  A$lcc2561625$758                   draw
     00000F9E  A$lcc2561625$760                   draw
     00000FA1  A$lcc2561625$761                   draw
ASxxxx Linker V03.00/V05.40 + sdld,  page 31.
Hexadecimal  [32-Bits]

Area                                    Addr        Size        Decimal Bytes (Attributes)
--------------------------------        ----        ----        ------- ----- ------------
_CODE                               00000200    0000289F =       10399. bytes (REL,CON)

      Value  Global                              Global Defined In Module
      -----  --------------------------------   ------------------------
     00000FA2  A$lcc2561625$762                   draw
     00000FA3  A$lcc2561625$763                   draw
     00000FA4  A$lcc2561625$764                   draw
     00000FA5  A$lcc2561625$765                   draw
     00000FA6  A$lcc2561625$766                   draw
     00000FA7  A$lcc2561625$767                   draw
     00000FA8  A$lcc2561625$768                   draw
     00000FA9  A$lcc2561625$770                   draw
     00000FAB  A$lcc2561625$771                   draw
     00000FAC  A$lcc2561625$772                   draw
     00000FAD  A$lcc2561625$773                   draw
     00000FAE  A$lcc2561625$774                   draw
     00000FB0  A$lcc2561625$776                   draw
     00000FB1  A$lcc2561625$777                   draw
     00000FB2  A$lcc2561625$778                   draw
     00000FB3  A$lcc2561625$779                   draw
     00000FB4  A$lcc2561625$780                   draw
     00000FB5  A$lcc2561625$781                   draw
     00000FB6  A$lcc2561625$783                   draw
     00000FB9  A$lcc2561625$784                   draw
     00000FBA  A$lcc2561625$785                   draw
     00000FBB  A$lcc2561625$786                   draw
     00000FBC  A$lcc2561625$787                   draw
     00000FBD  A$lcc2561625$788                   draw
     00000FBE  A$lcc2561625$789                   draw
     00000FBF  A$lcc2561625$790                   draw
     00000FC0  A$lcc2561625$791                   draw
     00000FC1  A$lcc2561625$793                   draw
     00000FC2  A$lcc2561625$794                   draw
     00000FC3  A$lcc2561625$795                   draw
     00000FC4  A$lcc2561625$796                   draw
     00000FC6  A$lcc2561625$797                   draw
     00000FC7  A$lcc2561625$798                   draw
     00000FC8  A$lcc2561625$806                   draw
     00000FC8  C$draw.c$105$2_0$182               draw
     00000FC8  C$draw.c$107$2_0$182               draw
     00000FCA  A$lcc2561625$807                   draw
     00000FCB  A$lcc2561625$808                   draw
     00000FCD  A$lcc2561625$809                   draw
     00000FCE  A$lcc2561626$60                    entity
     00000FCE  C$entity.c$7$0_0$3                 entity
     00000FCE  C$entity.c$9$2_0$4                 entity
     00000FCE  G$create_entity$0$0                entity
     00000FCE  _create_entity                     entity
     00000FD1  A$lcc2561626$61                    entity
     00000FD3  A$lcc2561626$62                    entity
     00000FD5  A$lcc2561626$66                    entity
     00000FD5  C$entity.c$10$3_0$5                entity
     00000FD6  A$lcc2561626$67                    entity
     00000FD7  A$lcc2561626$72                    entity
     00000FD7  C$entity.c$13$1_0$3                entity
ASxxxx Linker V03.00/V05.40 + sdld,  page 32.
Hexadecimal  [32-Bits]

Area                                    Addr        Size        Decimal Bytes (Attributes)
--------------------------------        ----        ----        ------- ----- ------------
_CODE                               00000200    0000289F =       10399. bytes (REL,CON)

      Value  Global                              Global Defined In Module
      -----  --------------------------------   ------------------------
     00000FDA  A$lcc2561626$73                    entity
     00000FDB  A$lcc2561626$74                    entity
     00000FDE  A$lcc2561626$75                    entity
     00000FDF  A$lcc2561626$76                    entity
     00000FE0  A$lcc2561626$84                    entity
     00000FE0  C$entity.c$14$1_0$3                entity
     00000FE0  XG$create_entity$0$0               entity
     00000FE1  A$lcc2561626$97                    entity
     00000FE1  C$entity.c$16$1_0$6                entity
     00000FE1  C$entity.c$18$1_0$6                entity
     00000FE1  G$reset_entities$0$0               entity
     00000FE1  _reset_entities                    entity
     00000FE4  A$lcc2561626$98                    entity
     00000FE6  A$lcc2561626$106                   entity
     00000FE6  C$entity.c$19$1_0$6                entity
     00000FE6  XG$reset_entities$0$0              entity
     00000FE7  A$lcc2561630$57                    inventory
     00000FE7  C$inventory.c$11$0_0$143           inventory
     00000FE7  G$init_arrow$0$0                   inventory
     00000FE7  _init_arrow                        inventory
     00000FE8  A$lcc2561630$58                    inventory
     00000FE9  A$lcc2561630$62                    inventory
     00000FE9  C$inventory.c$13$1_0$143           inventory
     00000FEC  A$lcc2561630$63                    inventory
     00000FED  A$lcc2561630$64                    inventory
     00000FEF  A$lcc2561630$65                    inventory
     00000FF2  A$lcc2561630$66                    inventory
     00000FF3  A$lcc2561630$67                    inventory
     00000FF5  A$lcc2561630$71                    inventory
     00000FF5  C$inventory.c$14$1_0$143           inventory
     00000FF8  A$lcc2561630$72                    inventory
     00000FFB  A$lcc2561630$73                    inventory
     00000FFC  A$lcc2561630$74                    inventory
     00000FFE  A$lcc2561630$75                    inventory
     00000FFF  A$lcc2561630$76                    inventory
     00001001  A$lcc2561630$80                    inventory
     00001001  C$inventory.c$16$1_0$143           inventory
     00001004  A$lcc2561630$81                    inventory
     00001007  A$lcc2561630$82                    inventory
     00001008  A$lcc2561630$83                    inventory
     00001009  A$lcc2561630$84                    inventory
     0000100B  A$lcc2561630$85                    inventory
     0000100C  A$lcc2561630$86                    inventory
     0000100F  A$lcc2561630$87                    inventory
     00001011  A$lcc2561630$88                    inventory
     00001012  A$lcc2561630$89                    inventory
     00001014  A$lcc2561630$90                    inventory
     00001016  A$lcc2561630$91                    inventory
     00001017  A$lcc2561630$92                    inventory
     00001018  A$lcc2561630$93                    inventory
     00001019  A$lcc2561630$94                    inventory
ASxxxx Linker V03.00/V05.40 + sdld,  page 33.
Hexadecimal  [32-Bits]

Area                                    Addr        Size        Decimal Bytes (Attributes)
--------------------------------        ----        ----        ------- ----- ------------
_CODE                               00000200    0000289F =       10399. bytes (REL,CON)

      Value  Global                              Global Defined In Module
      -----  --------------------------------   ------------------------
     0000101A  A$lcc2561630$95                    inventory
     0000101B  A$lcc2561630$96                    inventory
     0000101C  A$lcc2561630$100                   inventory
     0000101C  C$inventory.c$17$1_0$143           inventory
     0000101F  A$lcc2561630$101                   inventory
     00001020  A$lcc2561630$102                   inventory
     00001021  A$lcc2561630$103                   inventory
     00001023  A$lcc2561630$104                   inventory
     00001024  A$lcc2561630$105                   inventory
     00001026  A$lcc2561630$106                   inventory
     00001028  A$lcc2561630$107                   inventory
     00001029  A$lcc2561630$108                   inventory
     0000102A  A$lcc2561630$109                   inventory
     0000102C  A$lcc2561630$110                   inventory
     0000102D  A$lcc2561630$111                   inventory
     0000102E  A$lcc2561630$112                   inventory
     0000102F  A$lcc2561630$113                   inventory
     00001030  A$lcc2561630$114                   inventory
     00001031  A$lcc2561630$115                   inventory
     00001032  A$lcc2561630$116                   inventory
     00001033  A$lcc2561630$120                   inventory
     00001033  C$inventory.c$19$1_0$143           inventory
     00001036  A$lcc2561630$121                   inventory
     00001037  A$lcc2561630$122                   inventory
     00001039  A$lcc2561630$123                   inventory
     0000103C  A$lcc2561630$124                   inventory
     0000103D  A$lcc2561630$125                   inventory
     0000103F  A$lcc2561630$129                   inventory
     0000103F  C$inventory.c$20$1_0$143           inventory
     00001042  A$lcc2561630$130                   inventory
     00001045  A$lcc2561630$131                   inventory
     00001046  A$lcc2561630$132                   inventory
     00001048  A$lcc2561630$133                   inventory
     00001049  A$lcc2561630$134                   inventory
     0000104B  A$lcc2561630$138                   inventory
     0000104B  C$inventory.c$21$1_0$143           inventory
     0000104E  A$lcc2561630$139                   inventory
     00001051  A$lcc2561630$140                   inventory
     00001052  A$lcc2561630$141                   inventory
     00001054  A$lcc2561630$142                   inventory
     00001055  A$lcc2561630$143                   inventory
     00001057  A$lcc2561630$147                   inventory
     00001057  C$inventory.c$23$2_0$144           inventory
     00001059  A$lcc2561630$148                   inventory
     0000105B  A$lcc2561630$149                   inventory
     0000105C  A$lcc2561630$150                   inventory
     0000105E  A$lcc2561630$154                   inventory
     0000105E  C$inventory.c$25$1_1$144           inventory
     00001061  A$lcc2561630$155                   inventory
     00001062  A$lcc2561630$156                   inventory
     00001064  A$lcc2561630$157                   inventory
ASxxxx Linker V03.00/V05.40 + sdld,  page 34.
Hexadecimal  [32-Bits]

Area                                    Addr        Size        Decimal Bytes (Attributes)
--------------------------------        ----        ----        ------- ----- ------------
_CODE                               00000200    0000289F =       10399. bytes (REL,CON)

      Value  Global                              Global Defined In Module
      -----  --------------------------------   ------------------------
     00001065  A$lcc2561630$158                   inventory
     00001066  A$lcc2561630$159                   inventory
     00001067  A$lcc2561630$160                   inventory
     00001068  A$lcc2561630$161                   inventory
     00001069  A$lcc2561630$162                   inventory
     0000106A  A$lcc2561630$163                   inventory
     0000106B  A$lcc2561630$164                   inventory
     0000106C  A$lcc2561630$165                   inventory
     0000106D  A$lcc2561630$166                   inventory
     00001070  A$lcc2561630$167                   inventory
     00001071  A$lcc2561630$168                   inventory
     00001072  A$lcc2561630$169                   inventory
     00001073  A$lcc2561630$170                   inventory
     00001076  A$lcc2561630$171                   inventory
     00001077  A$lcc2561630$172                   inventory
     00001079  A$lcc2561630$173                   inventory
     0000107A  A$lcc2561630$174                   inventory
     0000107B  A$lcc2561630$175                   inventory
     0000107E  A$lcc2561630$176                   inventory
     0000107F  A$lcc2561630$177                   inventory
     00001080  A$lcc2561630$178                   inventory
     00001081  A$lcc2561630$179                   inventory
     00001082  A$lcc2561630$180                   inventory
     00001083  A$lcc2561630$181                   inventory
     00001084  A$lcc2561630$182                   inventory
     00001087  A$lcc2561630$186                   inventory
     0000108A  A$lcc2561630$187                   inventory
     0000108B  A$lcc2561630$192                   inventory
     0000108B  C$inventory.c$26$1_1$143           inventory
     0000108B  XG$init_arrow$0$0                  inventory
     0000108C  A$lcc2561631$62                    inventory_input
     0000108C  C$inventory_input.c$19$0_0$149     inventory_input
     0000108C  C$inventory_input.c$23$2_0$150     inventory_input
     0000108C  G$inventory_input$0$0              inventory_input
     0000108C  _inventory_input                   inventory_input
     0000108F  A$lcc2561631$63                    inventory_input
     00001091  A$lcc2561631$64                    inventory_input
     00001093  A$lcc2561631$65                    inventory_input
     00001096  A$lcc2561631$66                    inventory_input
     00001098  A$lcc2561631$67                    inventory_input
     0000109A  A$lcc2561631$71                    inventory_input
     0000109A  C$inventory_input.c$25$3_0$151     inventory_input
     0000109D  A$lcc2561631$72                    inventory_input
     000010A0  A$lcc2561631$73                    inventory_input
     000010A1  A$lcc2561631$74                    inventory_input
     000010A2  A$lcc2561631$75                    inventory_input
     000010A3  A$lcc2561631$76                    inventory_input
     000010A4  A$lcc2561631$77                    inventory_input
     000010A5  A$lcc2561631$78                    inventory_input
     000010A6  A$lcc2561631$79                    inventory_input
     000010A7  A$lcc2561631$80                    inventory_input
ASxxxx Linker V03.00/V05.40 + sdld,  page 35.
Hexadecimal  [32-Bits]

Area                                    Addr        Size        Decimal Bytes (Attributes)
--------------------------------        ----        ----        ------- ----- ------------
_CODE                               00000200    0000289F =       10399. bytes (REL,CON)

      Value  Global                              Global Defined In Module
      -----  --------------------------------   ------------------------
     000010AA  A$lcc2561631$81                    inventory_input
     000010AC  A$lcc2561631$82                    inventory_input
     000010AD  A$lcc2561631$83                    inventory_input
     000010AF  A$lcc2561631$84                    inventory_input
     000010B0  A$lcc2561631$85                    inventory_input
     000010B1  A$lcc2561631$86                    inventory_input
     000010B4  A$lcc2561631$90                    inventory_input
     000010B4  C$inventory_input.c$26$3_0$151     inventory_input
     000010B7  A$lcc2561631$91                    inventory_input
     000010BA  A$lcc2561631$92                    inventory_input
     000010BB  A$lcc2561631$93                    inventory_input
     000010BD  A$lcc2561631$94                    inventory_input
     000010BE  A$lcc2561631$95                    inventory_input
     000010C0  A$lcc2561631$99                    inventory_input
     000010C0  C$inventory_input.c$27$3_0$151     inventory_input
     000010C3  A$lcc2561631$100                   inventory_input
     000010C6  A$lcc2561631$108                   inventory_input
     000010C6  C$inventory_input.c$26$1_1$149     inventory_input
     000010C9  A$lcc2561631$109                   inventory_input
     000010CA  A$lcc2561631$113                   inventory_input
     000010CA  C$inventory_input.c$30$1_1$152     inventory_input
     000010CD  A$lcc2561631$114                   inventory_input
     000010CF  A$lcc2561631$115                   inventory_input
     000010D0  A$lcc2561631$116                   inventory_input
     000010D1  A$lcc2561631$120                   inventory_input
     000010D1  C$inventory_input.c$31$1_1$152     inventory_input
     000010D4  A$lcc2561631$121                   inventory_input
     000010D6  A$lcc2561631$122                   inventory_input
     000010D7  A$lcc2561631$123                   inventory_input
     000010D8  A$lcc2561631$127                   inventory_input
     000010D8  C$inventory_input.c$23$1_1$149     inventory_input
     000010DB  A$lcc2561631$128                   inventory_input
     000010DC  A$lcc2561631$129                   inventory_input
     000010DF  A$lcc2561631$133                   inventory_input
     000010DF  C$inventory_input.c$33$2_1$153     inventory_input
     000010E1  A$lcc2561631$134                   inventory_input
     000010E3  A$lcc2561631$135                   inventory_input
     000010E5  A$lcc2561631$136                   inventory_input
     000010E7  A$lcc2561631$140                   inventory_input
     000010E7  C$inventory_input.c$35$3_1$154     inventory_input
     000010E8  A$lcc2561631$141                   inventory_input
     000010EA  A$lcc2561631$142                   inventory_input
     000010EB  A$lcc2561631$143                   inventory_input
     000010ED  A$lcc2561631$148                   inventory_input
     000010ED  C$inventory_input.c$37$3_1$155     inventory_input
     000010EF  A$lcc2561631$149                   inventory_input
     000010F1  A$lcc2561631$150                   inventory_input
     000010F3  A$lcc2561631$151                   inventory_input
     000010F5  A$lcc2561631$155                   inventory_input
     000010F5  C$inventory_input.c$39$4_1$156     inventory_input
     000010F6  A$lcc2561631$156                   inventory_input
ASxxxx Linker V03.00/V05.40 + sdld,  page 36.
Hexadecimal  [32-Bits]

Area                                    Addr        Size        Decimal Bytes (Attributes)
--------------------------------        ----        ----        ------- ----- ------------
_CODE                               00000200    0000289F =       10399. bytes (REL,CON)

      Value  Global                              Global Defined In Module
      -----  --------------------------------   ------------------------
     000010F8  A$lcc2561631$157                   inventory_input
     000010F9  A$lcc2561631$158                   inventory_input
     000010FB  A$lcc2561631$163                   inventory_input
     000010FB  C$inventory_input.c$41$4_1$157     inventory_input
     000010FD  A$lcc2561631$164                   inventory_input
     000010FF  A$lcc2561631$165                   inventory_input
     00001101  A$lcc2561631$166                   inventory_input
     00001103  A$lcc2561631$170                   inventory_input
     00001103  C$inventory_input.c$43$5_1$158     inventory_input
     00001104  A$lcc2561631$171                   inventory_input
     00001106  A$lcc2561631$172                   inventory_input
     00001107  A$lcc2561631$173                   inventory_input
     00001109  A$lcc2561631$178                   inventory_input
     00001109  C$inventory_input.c$45$5_1$159     inventory_input
     0000110B  A$lcc2561631$179                   inventory_input
     0000110D  A$lcc2561631$180                   inventory_input
     0000110F  A$lcc2561631$181                   inventory_input
     00001111  A$lcc2561631$185                   inventory_input
     00001111  C$inventory_input.c$47$6_1$160     inventory_input
     00001112  A$lcc2561631$186                   inventory_input
     00001114  A$lcc2561631$187                   inventory_input
     00001115  A$lcc2561631$192                   inventory_input
     00001115  C$inventory_input.c$50$2_1$161     inventory_input
     00001117  A$lcc2561631$193                   inventory_input
     00001118  A$lcc2561631$194                   inventory_input
     0000111A  A$lcc2561631$198                   inventory_input
     0000111A  C$inventory_input.c$51$2_1$161     inventory_input
     0000111C  A$lcc2561631$203                   inventory_input
     0000111C  C$inventory_input.c$52$2_1$162     inventory_input
     0000111D  A$lcc2561631$204                   inventory_input
     0000111F  A$lcc2561631$205                   inventory_input
     00001121  A$lcc2561631$209                   inventory_input
     00001121  C$inventory_input.c$53$2_1$162     inventory_input
     00001123  A$lcc2561631$214                   inventory_input
     00001123  C$inventory_input.c$55$2_1$163     inventory_input
     00001125  A$lcc2561631$215                   inventory_input
     00001126  A$lcc2561631$216                   inventory_input
     00001128  A$lcc2561631$220                   inventory_input
     00001128  C$inventory_input.c$56$2_1$163     inventory_input
     0000112A  A$lcc2561631$225                   inventory_input
     0000112A  C$inventory_input.c$57$2_1$164     inventory_input
     0000112B  A$lcc2561631$226                   inventory_input
     0000112D  A$lcc2561631$227                   inventory_input
     0000112F  A$lcc2561631$231                   inventory_input
     0000112F  C$inventory_input.c$58$2_1$164     inventory_input
     00001131  A$lcc2561631$236                   inventory_input
     00001131  C$inventory_input.c$60$1_1$152     inventory_input
     00001132  A$lcc2561631$240                   inventory_input
     00001132  C$inventory_input.c$61$1_1$152     inventory_input
     00001135  A$lcc2561631$241                   inventory_input
     00001136  A$lcc2561631$242                   inventory_input
ASxxxx Linker V03.00/V05.40 + sdld,  page 37.
Hexadecimal  [32-Bits]

Area                                    Addr        Size        Decimal Bytes (Attributes)
--------------------------------        ----        ----        ------- ----- ------------
_CODE                               00000200    0000289F =       10399. bytes (REL,CON)

      Value  Global                              Global Defined In Module
      -----  --------------------------------   ------------------------
     00001138  A$lcc2561631$243                   inventory_input
     0000113B  A$lcc2561631$244                   inventory_input
     0000113C  A$lcc2561631$245                   inventory_input
     0000113D  A$lcc2561631$253                   inventory_input
     0000113D  C$inventory_input.c$64$1_1$149     inventory_input
     0000113D  XG$inventory_input$0$0             inventory_input
     0000113E  G$top_limit$0_0$0                  inventory_input
     0000113E  _top_limit                         inventory_input
     0000113F  G$bottom_limit$0_0$0               inventory_input
     0000113F  _bottom_limit                      inventory_input
     00001140  G$left_limit$0_0$0                 inventory_input
     00001140  _left_limit                        inventory_input
     00001141  G$right_limit$0_0$0                inventory_input
     00001141  _right_limit                       inventory_input
     00001142  G$VERTICAL_MOVEMENT$0_0$0          inventory_input
     00001142  _VERTICAL_MOVEMENT                 inventory_input
     00001143  G$HORIZONTAL_MOVEMENT$0_0$0        inventory_input
     00001143  _HORIZONTAL_MOVEMENT               inventory_input
     00001144  A$lcc2561632$64                    load
     00001144  C$load.c$10$0_0$134                load
     00001144  G$load_actor_tiles$0$0             load
     00001144  _load_actor_tiles                  load
     00001146  A$lcc2561632$65                    load
     00001148  A$lcc2561632$66                    load
     00001149  A$lcc2561632$67                    load
     0000114A  A$lcc2561632$68                    load
     0000114B  A$lcc2561632$69                    load
     0000114C  A$lcc2561632$70                    load
     0000114D  A$lcc2561632$74                    load
     0000114D  C$load.c$12$2_0$134                load
     00001150  A$lcc2561632$75                    load
     00001151  A$lcc2561632$79                    load
     00001151  C$load.c$15$1_0$134                load
     00001153  A$lcc2561632$81                    load
     00001154  A$lcc2561632$82                    load
     00001156  A$lcc2561632$83                    load
     00001157  A$lcc2561632$84                    load
     00001159  A$lcc2561632$88                    load
     00001159  C$load.c$17$3_0$136                load
     0000115A  A$lcc2561632$89                    load
     0000115C  A$lcc2561632$90                    load
     0000115D  A$lcc2561632$91                    load
     0000115E  A$lcc2561632$92                    load
     0000115F  A$lcc2561632$93                    load
     00001161  A$lcc2561632$94                    load
     00001162  A$lcc2561632$95                    load
     00001163  A$lcc2561632$96                    load
     00001164  A$lcc2561632$97                    load
     00001165  A$lcc2561632$98                    load
     00001166  A$lcc2561632$99                    load
     00001167  A$lcc2561632$100                   load
ASxxxx Linker V03.00/V05.40 + sdld,  page 38.
Hexadecimal  [32-Bits]

Area                                    Addr        Size        Decimal Bytes (Attributes)
--------------------------------        ----        ----        ------- ----- ------------
_CODE                               00000200    0000289F =       10399. bytes (REL,CON)

      Value  Global                              Global Defined In Module
      -----  --------------------------------   ------------------------
     00001168  A$lcc2561632$101                   load
     00001169  A$lcc2561632$102                   load
     0000116A  A$lcc2561632$103                   load
     0000116B  A$lcc2561632$104                   load
     0000116C  A$lcc2561632$105                   load
     0000116D  A$lcc2561632$106                   load
     0000116E  A$lcc2561632$107                   load
     0000116F  A$lcc2561632$108                   load
     00001170  A$lcc2561632$109                   load
     00001171  A$lcc2561632$110                   load
     00001172  A$lcc2561632$111                   load
     00001174  A$lcc2561632$112                   load
     00001175  A$lcc2561632$113                   load
     00001176  A$lcc2561632$114                   load
     00001177  A$lcc2561632$115                   load
     00001178  A$lcc2561632$116                   load
     0000117B  A$lcc2561632$117                   load
     0000117D  A$lcc2561632$121                   load
     0000117D  C$load.c$15$2_0$135                load
     0000117E  A$lcc2561632$122                   load
     00001180  A$lcc2561632$127                   load
     00001180  C$load.c$21$1_0$134                load
     00001183  A$lcc2561632$128                   load
     00001185  A$lcc2561632$129                   load
     00001186  A$lcc2561632$130                   load
     00001188  A$lcc2561632$131                   load
     00001189  A$lcc2561632$132                   load
     0000118A  A$lcc2561632$133                   load
     0000118B  A$lcc2561632$134                   load
     0000118C  A$lcc2561632$135                   load
     0000118D  A$lcc2561632$139                   load
     0000118D  C$load.c$22$1_0$134                load
     00001190  A$lcc2561632$140                   load
     00001192  A$lcc2561632$141                   load
     00001193  A$lcc2561632$142                   load
     00001195  A$lcc2561632$143                   load
     00001196  A$lcc2561632$144                   load
     00001197  A$lcc2561632$145                   load
     00001198  A$lcc2561632$146                   load
     0000119A  A$lcc2561632$147                   load
     0000119B  A$lcc2561632$148                   load
     0000119C  A$lcc2561632$152                   load
     0000119C  C$load.c$25$1_0$134                load
     0000119F  A$lcc2561632$153                   load
     000011A1  A$lcc2561632$154                   load
     000011A2  A$lcc2561632$155                   load
     000011A5  A$lcc2561632$159                   load
     000011A5  C$load.c$27$1_0$134                load
     000011A6  A$lcc2561632$163                   load
     000011A6  C$load.c$28$1_0$134                load
     000011A8  A$lcc2561632$164                   load
ASxxxx Linker V03.00/V05.40 + sdld,  page 39.
Hexadecimal  [32-Bits]

Area                                    Addr        Size        Decimal Bytes (Attributes)
--------------------------------        ----        ----        ------- ----- ------------
_CODE                               00000200    0000289F =       10399. bytes (REL,CON)

      Value  Global                              Global Defined In Module
      -----  --------------------------------   ------------------------
     000011A9  A$lcc2561632$165                   load
     000011AA  A$lcc2561632$166                   load
     000011AB  A$lcc2561632$176                   load
     000011AB  C$load.c$30$1_0$138                load
     000011AB  G$load_extra_tiles$0$0             load
     000011AB  _load_extra_tiles                  load
     000011AD  A$lcc2561632$177                   load
     000011AE  A$lcc2561632$181                   load
     000011AE  C$load.c$32$2_0$139                load
     000011B1  A$lcc2561632$182                   load
     000011B2  A$lcc2561632$183                   load
     000011B4  A$lcc2561632$184                   load
     000011B6  A$lcc2561632$188                   load
     000011B6  C$load.c$33$2_0$139                load
     000011B8  A$lcc2561632$193                   load
     000011B8  C$load.c$35$2_0$140                load
     000011BB  A$lcc2561632$194                   load
     000011BC  A$lcc2561632$198                   load
     000011BC  C$load.c$37$1_1$140                load
     000011BD  A$lcc2561632$199                   load
     000011BF  A$lcc2561632$200                   load
     000011C0  A$lcc2561632$201                   load
     000011C1  A$lcc2561632$202                   load
     000011C2  A$lcc2561632$203                   load
     000011C3  A$lcc2561632$204                   load
     000011C4  A$lcc2561632$205                   load
     000011C7  A$lcc2561632$206                   load
     000011C9  A$lcc2561632$210                   load
     000011C9  C$load.c$39$1_1$140                load
     000011CC  A$lcc2561632$211                   load
     000011CE  A$lcc2561632$212                   load
     000011CF  A$lcc2561632$213                   load
     000011D2  A$lcc2561632$217                   load
     000011D2  C$load.c$42$1_2$141                load
     000011D4  A$lcc2561632$218                   load
     000011D5  A$lcc2561632$222                   load
     000011D5  C$load.c$43$1_2$141                load
     000011D7  A$lcc2561632$223                   load
     000011D8  A$lcc2561632$224                   load
     000011DA  A$lcc2561632$228                   load
     000011DA  C$load.c$44$1_2$141                load
     000011DB  A$lcc2561632$229                   load
     000011DC  A$lcc2561632$233                   load
     000011DC  C$load.c$46$1_2$141                load
     000011DF  A$lcc2561632$234                   load
     000011E0  A$lcc2561632$235                   load
     000011E2  A$lcc2561632$236                   load
     000011E3  A$lcc2561632$237                   load
     000011E4  A$lcc2561632$238                   load
     000011E5  A$lcc2561632$239                   load
     000011E6  A$lcc2561632$240                   load
ASxxxx Linker V03.00/V05.40 + sdld,  page 40.
Hexadecimal  [32-Bits]

Area                                    Addr        Size        Decimal Bytes (Attributes)
--------------------------------        ----        ----        ------- ----- ------------
_CODE                               00000200    0000289F =       10399. bytes (REL,CON)

      Value  Global                              Global Defined In Module
      -----  --------------------------------   ------------------------
     000011E9  A$lcc2561632$241                   load
     000011EA  A$lcc2561632$242                   load
     000011EB  A$lcc2561632$243                   load
     000011EC  A$lcc2561632$244                   load
     000011EF  A$lcc2561632$245                   load
     000011F0  A$lcc2561632$246                   load
     000011F3  A$lcc2561632$247                   load
     000011F4  A$lcc2561632$248                   load
     000011F5  A$lcc2561632$249                   load
     000011F6  A$lcc2561632$250                   load
     000011F9  A$lcc2561632$254                   load
     000011F9  C$load.c$48$1_2$141                load
     000011FC  A$lcc2561632$255                   load
     000011FD  A$lcc2561632$256                   load
     00001200  A$lcc2561632$257                   load
     00001201  A$lcc2561632$258                   load
     00001202  A$lcc2561632$262                   load
     00001202  C$load.c$49$1_2$138                load
     00001204  A$lcc2561632$263                   load
     00001205  A$lcc2561632$264                   load
     00001206  A$lcc2561632$265                   load
     00001207  A$lcc2561632$278                   load
     00001207  C$load.c$51$1_2$142                load
     00001207  C$load.c$53$1_0$142                load
     00001207  G$reset_extra_tiles$0$0            load
     00001207  _reset_extra_tiles                 load
     0000120A  A$lcc2561632$279                   load
     0000120C  A$lcc2561632$287                   load
     0000120C  C$load.c$54$1_0$142                load
     0000120C  XG$reset_extra_tiles$0$0           load
     0000120D  A$lcc2561632$300                   load
     0000120D  C$load.c$56$1_0$144                load
     0000120D  C$load.c$58$3_0$146                load
     0000120D  G$reset_render_component$0$0       load
     0000120D  _reset_render_component            load
     0000120F  A$lcc2561632$302                   load
     00001210  A$lcc2561632$303                   load
     00001213  A$lcc2561632$304                   load
     00001214  A$lcc2561632$305                   load
     00001216  A$lcc2561632$309                   load
     00001216  C$load.c$60$3_0$146                load
     00001219  A$lcc2561632$310                   load
     0000121B  A$lcc2561632$311                   load
     0000121C  A$lcc2561632$312                   load
     0000121E  A$lcc2561632$316                   load
     0000121E  C$load.c$61$3_0$146                load
     00001221  A$lcc2561632$317                   load
     00001223  A$lcc2561632$318                   load
     00001224  A$lcc2561632$319                   load
     00001226  A$lcc2561632$323                   load
     00001226  C$load.c$58$2_0$145                load
ASxxxx Linker V03.00/V05.40 + sdld,  page 41.
Hexadecimal  [32-Bits]

Area                                    Addr        Size        Decimal Bytes (Attributes)
--------------------------------        ----        ----        ------- ----- ------------
_CODE                               00000200    0000289F =       10399. bytes (REL,CON)

      Value  Global                              Global Defined In Module
      -----  --------------------------------   ------------------------
     00001227  A$lcc2561632$324                   load
     00001229  A$lcc2561632$329                   load
     00001229  C$load.c$64$1_0$144                load
     0000122A  A$lcc2561632$330                   load
     0000122D  A$lcc2561632$338                   load
     0000122D  C$load.c$65$1_0$144                load
     0000122D  XG$reset_render_component$0$0      load
     0000122E  A$lcc2561633$57                    map_scenes
     0000122E  C$map_scenes.c$15$0_0$48           map_scenes
     0000122E  G$scene_manager_MapScene$0$0       map_scenes
     0000122E  _scene_manager_MapScene            map_scenes
     0000122F  A$lcc2561633$61                    map_scenes
     0000122F  C$map_scenes.c$17$2_0$48           map_scenes
     00001231  A$lcc2561633$62                    map_scenes
     00001232  A$lcc2561633$63                    map_scenes
     00001234  A$lcc2561633$64                    map_scenes
     00001236  A$lcc2561633$65                    map_scenes
     00001239  A$lcc2561633$66                    map_scenes
     0000123A  A$lcc2561633$67                    map_scenes
     0000123B  A$lcc2561633$68                    map_scenes
     0000123C  A$lcc2561633$69                    map_scenes
     0000123D  A$lcc2561633$70                    map_scenes
     0000123E  A$lcc2561633$71                    map_scenes
     0000123F  A$lcc2561633$72                    map_scenes
     0000124A  A$lcc2561633$86                    map_scenes
     0000124A  C$map_scenes.c$19$3_0$49           map_scenes
     0000124A  C$map_scenes.c$20$3_0$49           map_scenes
     0000124D  A$lcc2561633$90                    map_scenes
     0000124D  C$map_scenes.c$21$3_0$49           map_scenes
     00001250  A$lcc2561633$91                    map_scenes
     00001251  A$lcc2561633$99                    map_scenes
     00001251  C$map_scenes.c$22$3_0$49           map_scenes
     00001251  C$map_scenes.c$23$3_0$49           map_scenes
     00001254  A$lcc2561633$103                   map_scenes
     00001254  C$map_scenes.c$24$3_0$49           map_scenes
     00001257  A$lcc2561633$104                   map_scenes
     00001258  A$lcc2561633$112                   map_scenes
     00001258  C$map_scenes.c$25$3_0$49           map_scenes
     00001258  C$map_scenes.c$26$3_0$49           map_scenes
     0000125B  A$lcc2561633$116                   map_scenes
     0000125B  C$map_scenes.c$27$3_0$49           map_scenes
     0000125E  A$lcc2561633$117                   map_scenes
     0000125F  A$lcc2561633$125                   map_scenes
     0000125F  C$map_scenes.c$30$3_0$49           map_scenes
     0000125F  C$map_scenes.c$31$3_0$49           map_scenes
     00001262  A$lcc2561633$129                   map_scenes
     00001262  C$map_scenes.c$32$3_0$49           map_scenes
     00001265  A$lcc2561633$130                   map_scenes
     00001266  A$lcc2561633$138                   map_scenes
     00001266  C$map_scenes.c$35$3_0$49           map_scenes
     00001266  C$map_scenes.c$36$3_0$49           map_scenes
ASxxxx Linker V03.00/V05.40 + sdld,  page 42.
Hexadecimal  [32-Bits]

Area                                    Addr        Size        Decimal Bytes (Attributes)
--------------------------------        ----        ----        ------- ----- ------------
_CODE                               00000200    0000289F =       10399. bytes (REL,CON)

      Value  Global                              Global Defined In Module
      -----  --------------------------------   ------------------------
     00001269  A$lcc2561633$142                   map_scenes
     00001269  C$map_scenes.c$37$3_0$49           map_scenes
     0000126C  A$lcc2561633$143                   map_scenes
     0000126D  A$lcc2561633$151                   map_scenes
     0000126D  C$map_scenes.c$38$3_0$49           map_scenes
     0000126D  C$map_scenes.c$39$3_0$49           map_scenes
     00001270  A$lcc2561633$162                   map_scenes
     00001270  C$map_scenes.c$40$2_0$48           map_scenes
     00001270  C$map_scenes.c$41$2_0$48           map_scenes
     00001270  XG$scene_manager_MapScene$0$0      map_scenes
     00001271  A$lcc2561634$56                    money
     00001271  C$money.c$5$0_0$3                  money
     00001271  G$add_money$0$0                    money
     00001271  _add_money                         money
     00001272  A$lcc2561634$60                    money
     00001272  C$money.c$6$1_0$3                  money
     00001273  A$lcc2561634$61                    money
     00001275  A$lcc2561634$62                    money
     00001276  A$lcc2561634$63                    money
     00001277  A$lcc2561634$64                    money
     00001278  A$lcc2561634$65                    money
     00001279  A$lcc2561634$66                    money
     0000127A  A$lcc2561634$67                    money
     0000127B  A$lcc2561634$68                    money
     0000127C  A$lcc2561634$69                    money
     0000127D  A$lcc2561634$70                    money
     0000127E  A$lcc2561634$71                    money
     00001281  A$lcc2561634$72                    money
     00001282  A$lcc2561634$73                    money
     00001285  A$lcc2561634$74                    money
     00001286  A$lcc2561634$75                    money
     00001287  A$lcc2561634$76                    money
     00001288  A$lcc2561634$77                    money
     00001289  A$lcc2561634$78                    money
     0000128A  A$lcc2561634$79                    money
     0000128B  A$lcc2561634$80                    money
     0000128E  A$lcc2561634$81                    money
     0000128F  A$lcc2561634$82                    money
     00001290  A$lcc2561634$83                    money
     00001291  A$lcc2561634$87                    money
     00001291  C$money.c$7$1_0$3                  money
     00001293  A$lcc2561634$88                    money
     00001294  A$lcc2561634$89                    money
     00001295  A$lcc2561634$90                    money
     00001296  A$lcc2561634$91                    money
     00001297  A$lcc2561634$92                    money
     00001298  A$lcc2561634$93                    money
     00001299  A$lcc2561634$94                    money
     0000129A  A$lcc2561634$95                    money
     0000129B  A$lcc2561634$96                    money
     0000129C  A$lcc2561634$97                    money
ASxxxx Linker V03.00/V05.40 + sdld,  page 43.
Hexadecimal  [32-Bits]

Area                                    Addr        Size        Decimal Bytes (Attributes)
--------------------------------        ----        ----        ------- ----- ------------
_CODE                               00000200    0000289F =       10399. bytes (REL,CON)

      Value  Global                              Global Defined In Module
      -----  --------------------------------   ------------------------
     0000129D  A$lcc2561634$98                    money
     0000129E  A$lcc2561634$99                    money
     0000129F  A$lcc2561634$100                   money
     000012A2  A$lcc2561634$101                   money
     000012A5  A$lcc2561634$102                   money
     000012A6  A$lcc2561634$103                   money
     000012A7  A$lcc2561634$104                   money
     000012A8  A$lcc2561634$105                   money
     000012A9  A$lcc2561634$106                   money
     000012AA  A$lcc2561634$107                   money
     000012AB  A$lcc2561634$108                   money
     000012AC  A$lcc2561634$109                   money
     000012AD  A$lcc2561634$110                   money
     000012AE  A$lcc2561634$118                   money
     000012AE  C$money.c$8$1_0$3                  money
     000012AE  XG$add_money$0$0                   money
     000012AF  A$lcc2561636$75                    npcs
     000012AF  C$npcs.c$21$0_0$135                npcs
     000012AF  C$npcs.c$23$1_0$135                npcs
     000012AF  G$init_NPCs$0$0                    npcs
     000012AF  _init_NPCs                         npcs
     000012B2  A$lcc2561636$76                    npcs
     000012B5  A$lcc2561636$80                    npcs
     000012B5  C$npcs.c$24$1_0$135                npcs
     000012B8  A$lcc2561636$81                    npcs
     000012BB  A$lcc2561636$85                    npcs
     000012BB  C$npcs.c$25$1_0$135                npcs
     000012BE  A$lcc2561636$86                    npcs
     000012C1  A$lcc2561636$94                    npcs
     000012C1  C$npcs.c$26$1_0$135                npcs
     000012C1  XG$init_NPCs$0$0                   npcs
     000012C2  A$lcc2561636$104                   npcs
     000012C2  C$npcs.c$28$1_0$137                npcs
     000012C2  G$Scene_DrawNPCLine$0$0            npcs
     000012C2  _Scene_DrawNPCLine                 npcs
     000012C4  A$lcc2561636$105                   npcs
     000012C6  A$lcc2561636$106                   npcs
     000012C7  A$lcc2561636$110                   npcs
     000012C7  C$npcs.c$36$1_0$137                npcs
     000012C9  A$lcc2561636$111                   npcs
     000012CC  A$lcc2561636$112                   npcs
     000012CD  A$lcc2561636$113                   npcs
     000012CE  A$lcc2561636$114                   npcs
     000012CF  A$lcc2561636$115                   npcs
     000012D1  A$lcc2561636$116                   npcs
     000012D2  A$lcc2561636$117                   npcs
     000012D3  A$lcc2561636$118                   npcs
     000012D4  A$lcc2561636$119                   npcs
     000012D6  A$lcc2561636$120                   npcs
     000012D7  A$lcc2561636$121                   npcs
     000012D8  A$lcc2561636$122                   npcs
ASxxxx Linker V03.00/V05.40 + sdld,  page 44.
Hexadecimal  [32-Bits]

Area                                    Addr        Size        Decimal Bytes (Attributes)
--------------------------------        ----        ----        ------- ----- ------------
_CODE                               00000200    0000289F =       10399. bytes (REL,CON)

      Value  Global                              Global Defined In Module
      -----  --------------------------------   ------------------------
     000012D9  A$lcc2561636$123                   npcs
     000012DA  A$lcc2561636$124                   npcs
     000012DB  A$lcc2561636$125                   npcs
     000012DD  A$lcc2561636$126                   npcs
     000012DE  A$lcc2561636$130                   npcs
     000012DE  C$npcs.c$38$1_0$137                npcs
     000012E1  A$lcc2561636$131                   npcs
     000012E3  A$lcc2561636$132                   npcs
     000012E4  A$lcc2561636$133                   npcs
     000012E5  A$lcc2561636$134                   npcs
     000012E6  A$lcc2561636$135                   npcs
     000012E7  A$lcc2561636$136                   npcs
     000012E8  A$lcc2561636$137                   npcs
     000012E9  A$lcc2561636$138                   npcs
     000012EA  A$lcc2561636$139                   npcs
     000012EB  A$lcc2561636$140                   npcs
     000012EC  A$lcc2561636$144                   npcs
     000012EC  C$npcs.c$40$1_0$137                npcs
     000012EF  A$lcc2561636$145                   npcs
     000012F0  A$lcc2561636$146                   npcs
     000012F1  A$lcc2561636$147                   npcs
     000012F2  A$lcc2561636$148                   npcs
     000012F4  A$lcc2561636$149                   npcs
     000012F5  A$lcc2561636$150                   npcs
     000012F6  A$lcc2561636$151                   npcs
     000012F7  A$lcc2561636$152                   npcs
     000012F8  A$lcc2561636$153                   npcs
     000012F9  A$lcc2561636$154                   npcs
     000012FA  A$lcc2561636$155                   npcs
     000012FB  A$lcc2561636$156                   npcs
     000012FC  A$lcc2561636$157                   npcs
     000012FD  A$lcc2561636$158                   npcs
     000012FE  A$lcc2561636$159                   npcs
     00001300  A$lcc2561636$160                   npcs
     00001301  A$lcc2561636$161                   npcs
     00001302  A$lcc2561636$162                   npcs
     00001303  A$lcc2561636$163                   npcs
     00001304  A$lcc2561636$164                   npcs
     00001305  A$lcc2561636$168                   npcs
     00001305  C$npcs.c$41$1_0$137                npcs
     00001308  A$lcc2561636$169                   npcs
     00001309  A$lcc2561636$170                   npcs
     0000130A  A$lcc2561636$171                   npcs
     0000130B  A$lcc2561636$175                   npcs
     0000130B  C$npcs.c$44$1_2$137                npcs
     0000130C  A$lcc2561636$176                   npcs
     0000130E  A$lcc2561636$177                   npcs
     0000130F  A$lcc2561636$178                   npcs
     00001310  A$lcc2561636$180                   npcs
     00001311  A$lcc2561636$181                   npcs
     00001313  A$lcc2561636$182                   npcs
ASxxxx Linker V03.00/V05.40 + sdld,  page 45.
Hexadecimal  [32-Bits]

Area                                    Addr        Size        Decimal Bytes (Attributes)
--------------------------------        ----        ----        ------- ----- ------------
_CODE                               00000200    0000289F =       10399. bytes (REL,CON)

      Value  Global                              Global Defined In Module
      -----  --------------------------------   ------------------------
     00001314  A$lcc2561636$183                   npcs
     00001315  A$lcc2561636$184                   npcs
     00001316  A$lcc2561636$185                   npcs
     00001318  A$lcc2561636$186                   npcs
     00001319  A$lcc2561636$187                   npcs
     0000131A  A$lcc2561636$188                   npcs
     0000131B  A$lcc2561636$189                   npcs
     0000131C  A$lcc2561636$190                   npcs
     0000131D  A$lcc2561636$191                   npcs
     0000131E  A$lcc2561636$192                   npcs
     0000131F  A$lcc2561636$193                   npcs
     00001320  A$lcc2561636$194                   npcs
     00001321  A$lcc2561636$195                   npcs
     00001323  A$lcc2561636$199                   npcs
     00001323  C$npcs.c$46$3_0$139                npcs
     00001324  A$lcc2561636$200                   npcs
     00001327  A$lcc2561636$201                   npcs
     00001328  A$lcc2561636$202                   npcs
     00001329  A$lcc2561636$203                   npcs
     0000132B  A$lcc2561636$204                   npcs
     0000132D  A$lcc2561636$205                   npcs
     0000132E  A$lcc2561636$209                   npcs
     0000132E  C$npcs.c$47$3_0$139                npcs
     00001330  A$lcc2561636$210                   npcs
     00001331  A$lcc2561636$211                   npcs
     00001332  A$lcc2561636$212                   npcs
     00001333  A$lcc2561636$213                   npcs
     00001336  A$lcc2561636$214                   npcs
     00001337  A$lcc2561636$215                   npcs
     00001338  A$lcc2561636$216                   npcs
     0000133B  A$lcc2561636$217                   npcs
     0000133C  A$lcc2561636$218                   npcs
     0000133E  A$lcc2561636$219                   npcs
     0000133F  A$lcc2561636$220                   npcs
     00001340  A$lcc2561636$221                   npcs
     00001341  A$lcc2561636$222                   npcs
     00001342  A$lcc2561636$223                   npcs
     00001345  A$lcc2561636$224                   npcs
     00001347  A$lcc2561636$225                   npcs
     00001348  A$lcc2561636$229                   npcs
     00001348  C$npcs.c$44$2_0$138                npcs
     0000134A  A$lcc2561636$230                   npcs
     0000134B  A$lcc2561636$231                   npcs
     0000134D  A$lcc2561636$232                   npcs
     0000134E  A$lcc2561636$233                   npcs
     0000134F  A$lcc2561636$234                   npcs
     00001351  A$lcc2561636$239                   npcs
     00001351  C$npcs.c$51$1_2$137                npcs
     00001352  A$lcc2561636$240                   npcs
     00001354  A$lcc2561636$241                   npcs
     00001355  A$lcc2561636$242                   npcs
ASxxxx Linker V03.00/V05.40 + sdld,  page 46.
Hexadecimal  [32-Bits]

Area                                    Addr        Size        Decimal Bytes (Attributes)
--------------------------------        ----        ----        ------- ----- ------------
_CODE                               00000200    0000289F =       10399. bytes (REL,CON)

      Value  Global                              Global Defined In Module
      -----  --------------------------------   ------------------------
     00001356  A$lcc2561636$244                   npcs
     00001357  A$lcc2561636$245                   npcs
     00001359  A$lcc2561636$246                   npcs
     0000135A  A$lcc2561636$247                   npcs
     0000135B  A$lcc2561636$248                   npcs
     0000135C  A$lcc2561636$249                   npcs
     0000135D  A$lcc2561636$250                   npcs
     0000135E  A$lcc2561636$251                   npcs
     0000135F  A$lcc2561636$252                   npcs
     00001360  A$lcc2561636$253                   npcs
     00001361  A$lcc2561636$254                   npcs
     00001362  A$lcc2561636$255                   npcs
     00001364  A$lcc2561636$259                   npcs
     00001364  C$npcs.c$53$3_0$141                npcs
     00001365  A$lcc2561636$260                   npcs
     00001368  A$lcc2561636$261                   npcs
     00001369  A$lcc2561636$262                   npcs
     0000136A  A$lcc2561636$263                   npcs
     0000136C  A$lcc2561636$267                   npcs
     0000136C  C$npcs.c$54$3_0$141                npcs
     0000136E  A$lcc2561636$268                   npcs
     0000136F  A$lcc2561636$269                   npcs
     00001370  A$lcc2561636$270                   npcs
     00001371  A$lcc2561636$271                   npcs
     00001373  A$lcc2561636$272                   npcs
     00001374  A$lcc2561636$273                   npcs
     00001375  A$lcc2561636$274                   npcs
     00001376  A$lcc2561636$275                   npcs
     00001377  A$lcc2561636$276                   npcs
     00001379  A$lcc2561636$277                   npcs
     0000137A  A$lcc2561636$278                   npcs
     0000137B  A$lcc2561636$279                   npcs
     0000137D  A$lcc2561636$280                   npcs
     0000137E  A$lcc2561636$281                   npcs
     0000137F  A$lcc2561636$282                   npcs
     00001381  A$lcc2561636$283                   npcs
     00001382  A$lcc2561636$284                   npcs
     00001383  A$lcc2561636$285                   npcs
     00001384  A$lcc2561636$286                   npcs
     00001385  A$lcc2561636$287                   npcs
     00001388  A$lcc2561636$288                   npcs
     0000138A  A$lcc2561636$289                   npcs
     0000138B  A$lcc2561636$293                   npcs
     0000138B  C$npcs.c$51$2_0$140                npcs
     0000138D  A$lcc2561636$294                   npcs
     0000138E  A$lcc2561636$295                   npcs
     00001390  A$lcc2561636$296                   npcs
     00001391  A$lcc2561636$297                   npcs
     00001392  A$lcc2561636$298                   npcs
     00001394  A$lcc2561636$303                   npcs
     00001396  A$lcc2561636$304                   npcs
ASxxxx Linker V03.00/V05.40 + sdld,  page 47.
Hexadecimal  [32-Bits]

Area                                    Addr        Size        Decimal Bytes (Attributes)
--------------------------------        ----        ----        ------- ----- ------------
_CODE                               00000200    0000289F =       10399. bytes (REL,CON)

      Value  Global                              Global Defined In Module
      -----  --------------------------------   ------------------------
     00001397  A$lcc2561636$305                   npcs
     00001399  A$lcc2561636$306                   npcs
     0000139A  A$lcc2561636$307                   npcs
     0000139B  A$lcc2561636$308                   npcs
     0000139C  A$lcc2561636$309                   npcs
     0000139D  A$lcc2561636$310                   npcs
     0000139E  A$lcc2561636$311                   npcs
     0000139F  A$lcc2561636$312                   npcs
     000013A2  A$lcc2561636$313                   npcs
     000013A3  A$lcc2561636$314                   npcs
     000013A4  A$lcc2561636$315                   npcs
     000013A5  A$lcc2561636$316                   npcs
     000013A7  A$lcc2561636$317                   npcs
     000013A8  A$lcc2561636$318                   npcs
     000013A9  A$lcc2561636$319                   npcs
     000013AA  A$lcc2561636$320                   npcs
     000013AC  A$lcc2561636$321                   npcs
     000013AD  A$lcc2561636$322                   npcs
     000013B0  A$lcc2561636$324                   npcs
     000013B2  A$lcc2561636$325                   npcs
     000013B3  A$lcc2561636$326                   npcs
     000013B4  A$lcc2561636$327                   npcs
     000013B5  A$lcc2561636$328                   npcs
     000013B6  A$lcc2561636$329                   npcs
     000013B7  A$lcc2561636$330                   npcs
     000013B8  A$lcc2561636$331                   npcs
     000013B9  A$lcc2561636$332                   npcs
     000013BA  A$lcc2561636$333                   npcs
     000013BC  A$lcc2561636$337                   npcs
     000013BC  C$npcs.c$60$3_0$143                npcs
     000013BD  A$lcc2561636$338                   npcs
     000013C0  A$lcc2561636$339                   npcs
     000013C1  A$lcc2561636$340                   npcs
     000013C2  A$lcc2561636$341                   npcs
     000013C3  A$lcc2561636$342                   npcs
     000013C5  A$lcc2561636$343                   npcs
     000013C7  A$lcc2561636$344                   npcs
     000013C8  A$lcc2561636$348                   npcs
     000013C8  C$npcs.c$61$3_0$143                npcs
     000013C9  A$lcc2561636$349                   npcs
     000013CA  A$lcc2561636$350                   npcs
     000013CD  A$lcc2561636$351                   npcs
     000013CE  A$lcc2561636$352                   npcs
     000013CF  A$lcc2561636$353                   npcs
     000013D2  A$lcc2561636$354                   npcs
     000013D3  A$lcc2561636$355                   npcs
     000013D5  A$lcc2561636$356                   npcs
     000013D6  A$lcc2561636$357                   npcs
     000013D9  A$lcc2561636$358                   npcs
     000013DB  A$lcc2561636$362                   npcs
     000013DB  C$npcs.c$58$2_0$142                npcs
ASxxxx Linker V03.00/V05.40 + sdld,  page 48.
Hexadecimal  [32-Bits]

Area                                    Addr        Size        Decimal Bytes (Attributes)
--------------------------------        ----        ----        ------- ----- ------------
_CODE                               00000200    0000289F =       10399. bytes (REL,CON)

      Value  Global                              Global Defined In Module
      -----  --------------------------------   ------------------------
     000013DC  A$lcc2561636$363                   npcs
     000013DE  A$lcc2561636$368                   npcs
     000013DE  C$npcs.c$65$1_1$144                npcs
     000013E0  A$lcc2561636$369                   npcs
     000013E1  A$lcc2561636$370                   npcs
     000013E2  A$lcc2561636$371                   npcs
     000013E3  A$lcc2561636$372                   npcs
     000013E4  A$lcc2561636$373                   npcs
     000013E6  A$lcc2561636$374                   npcs
     000013E8  A$lcc2561636$375                   npcs
     000013E9  A$lcc2561636$379                   npcs
     000013E9  C$npcs.c$66$1_1$144                npcs
     000013EC  A$lcc2561636$380                   npcs
     000013ED  A$lcc2561636$381                   npcs
     000013EE  A$lcc2561636$382                   npcs
     000013F1  A$lcc2561636$383                   npcs
     000013F2  A$lcc2561636$384                   npcs
     000013F5  A$lcc2561636$385                   npcs
     000013F6  A$lcc2561636$386                   npcs
     000013F9  A$lcc2561636$387                   npcs
     000013FB  A$lcc2561636$391                   npcs
     000013FB  C$npcs.c$69$2_1$145                npcs
     000013FD  A$lcc2561636$392                   npcs
     000013FF  A$lcc2561636$396                   npcs
     000013FF  C$npcs.c$70$1_2$145                npcs
     00001402  A$lcc2561636$397                   npcs
     00001403  A$lcc2561636$398                   npcs
     00001404  A$lcc2561636$399                   npcs
     00001407  A$lcc2561636$400                   npcs
     00001408  A$lcc2561636$401                   npcs
     0000140B  A$lcc2561636$402                   npcs
     0000140C  A$lcc2561636$403                   npcs
     0000140F  A$lcc2561636$407                   npcs
     0000140F  C$npcs.c$71$1_2$137                npcs
     00001411  A$lcc2561636$408                   npcs
     00001412  A$lcc2561636$409                   npcs
     00001414  A$lcc2561636$410                   npcs
     00001415  A$lcc2561638$70                    player
     00001415  C$player.c$10$0_0$157              player
     00001415  G$init_player$0$0                  player
     00001415  _init_player                       player
     00001417  A$lcc2561638$74                    player
     00001417  C$player.c$12$1_0$157              player
     0000141A  A$lcc2561638$75                    player
     0000141D  A$lcc2561638$79                    player
     0000141D  C$player.c$13$1_0$157              player
     00001420  A$lcc2561638$80                    player
     00001423  A$lcc2561638$84                    player
     00001423  C$player.c$15$1_0$157              player
     00001426  A$lcc2561638$85                    player
     00001427  A$lcc2561638$86                    player
ASxxxx Linker V03.00/V05.40 + sdld,  page 49.
Hexadecimal  [32-Bits]

Area                                    Addr        Size        Decimal Bytes (Attributes)
--------------------------------        ----        ----        ------- ----- ------------
_CODE                               00000200    0000289F =       10399. bytes (REL,CON)

      Value  Global                              Global Defined In Module
      -----  --------------------------------   ------------------------
     00001429  A$lcc2561638$87                    player
     0000142C  A$lcc2561638$88                    player
     0000142D  A$lcc2561638$89                    player
     0000142F  A$lcc2561638$93                    player
     0000142F  C$player.c$16$1_0$157              player
     00001432  A$lcc2561638$94                    player
     00001435  A$lcc2561638$95                    player
     00001436  A$lcc2561638$96                    player
     00001438  A$lcc2561638$97                    player
     00001439  A$lcc2561638$98                    player
     0000143B  A$lcc2561638$102                   player
     0000143B  C$player.c$18$1_0$157              player
     0000143E  A$lcc2561638$103                   player
     00001441  A$lcc2561638$104                   player
     00001442  A$lcc2561638$105                   player
     00001443  A$lcc2561638$106                   player
     00001444  A$lcc2561638$107                   player
     00001445  A$lcc2561638$108                   player
     00001446  A$lcc2561638$109                   player
     00001448  A$lcc2561638$110                   player
     00001449  A$lcc2561638$111                   player
     0000144B  A$lcc2561638$115                   player
     0000144B  C$player.c$15$1_1$157              player
     0000144E  A$lcc2561638$116                   player
     0000144F  A$lcc2561638$120                   player
     0000144F  C$player.c$20$1_0$157              player
     00001450  A$lcc2561638$121                   player
     00001452  A$lcc2561638$122                   player
     00001453  A$lcc2561638$123                   player
     00001454  A$lcc2561638$124                   player
     00001457  A$lcc2561638$128                   player
     00001457  C$player.c$22$1_0$157              player
     0000145A  A$lcc2561638$129                   player
     0000145B  A$lcc2561638$130                   player
     0000145D  A$lcc2561638$131                   player
     0000145E  A$lcc2561638$132                   player
     00001460  A$lcc2561638$133                   player
     00001462  A$lcc2561638$134                   player
     00001463  A$lcc2561638$135                   player
     00001465  A$lcc2561638$136                   player
     00001466  A$lcc2561638$137                   player
     00001467  A$lcc2561638$138                   player
     00001469  A$lcc2561638$139                   player
     0000146B  A$lcc2561638$140                   player
     0000146C  A$lcc2561638$141                   player
     0000146D  A$lcc2561638$142                   player
     0000146E  A$lcc2561638$143                   player
     0000146F  A$lcc2561638$144                   player
     00001470  A$lcc2561638$145                   player
     00001471  A$lcc2561638$149                   player
     00001471  C$player.c$23$1_0$157              player
ASxxxx Linker V03.00/V05.40 + sdld,  page 50.
Hexadecimal  [32-Bits]

Area                                    Addr        Size        Decimal Bytes (Attributes)
--------------------------------        ----        ----        ------- ----- ------------
_CODE                               00000200    0000289F =       10399. bytes (REL,CON)

      Value  Global                              Global Defined In Module
      -----  --------------------------------   ------------------------
     00001474  A$lcc2561638$150                   player
     00001475  A$lcc2561638$151                   player
     00001476  A$lcc2561638$152                   player
     00001478  A$lcc2561638$153                   player
     00001479  A$lcc2561638$154                   player
     0000147B  A$lcc2561638$155                   player
     0000147D  A$lcc2561638$156                   player
     0000147E  A$lcc2561638$157                   player
     0000147F  A$lcc2561638$158                   player
     00001481  A$lcc2561638$159                   player
     00001482  A$lcc2561638$160                   player
     00001483  A$lcc2561638$161                   player
     00001484  A$lcc2561638$162                   player
     00001485  A$lcc2561638$163                   player
     00001486  A$lcc2561638$164                   player
     00001487  A$lcc2561638$165                   player
     00001488  A$lcc2561638$169                   player
     00001488  C$player.c$25$1_0$157              player
     0000148B  A$lcc2561638$170                   player
     0000148C  A$lcc2561638$171                   player
     0000148E  A$lcc2561638$172                   player
     00001491  A$lcc2561638$173                   player
     00001492  A$lcc2561638$174                   player
     00001494  A$lcc2561638$178                   player
     00001494  C$player.c$26$1_0$157              player
     00001497  A$lcc2561638$179                   player
     0000149A  A$lcc2561638$180                   player
     0000149B  A$lcc2561638$181                   player
     0000149D  A$lcc2561638$182                   player
     0000149E  A$lcc2561638$183                   player
     000014A0  A$lcc2561638$187                   player
     000014A0  C$player.c$27$1_0$157              player
     000014A3  A$lcc2561638$188                   player
     000014A6  A$lcc2561638$189                   player
     000014A7  A$lcc2561638$190                   player
     000014A9  A$lcc2561638$191                   player
     000014AA  A$lcc2561638$192                   player
     000014AC  A$lcc2561638$196                   player
     000014AC  C$player.c$30$2_0$158              player
     000014AF  A$lcc2561638$197                   player
     000014B0  A$lcc2561638$198                   player
     000014B1  A$lcc2561638$199                   player
     000014B2  A$lcc2561638$200                   player
     000014B4  A$lcc2561638$201                   player
     000014B6  A$lcc2561638$202                   player
     000014B7  A$lcc2561638$203                   player
     000014B9  A$lcc2561638$204                   player
     000014BA  A$lcc2561638$205                   player
     000014BC  A$lcc2561638$206                   player
     000014BD  A$lcc2561638$207                   player
     000014BF  A$lcc2561638$208                   player
ASxxxx Linker V03.00/V05.40 + sdld,  page 51.
Hexadecimal  [32-Bits]

Area                                    Addr        Size        Decimal Bytes (Attributes)
--------------------------------        ----        ----        ------- ----- ------------
_CODE                               00000200    0000289F =       10399. bytes (REL,CON)

      Value  Global                              Global Defined In Module
      -----  --------------------------------   ------------------------
     000014C0  A$lcc2561638$209                   player
     000014C2  A$lcc2561638$210                   player
     000014C3  A$lcc2561638$211                   player
     000014C5  A$lcc2561638$215                   player
     000014C5  C$player.c$36$2_0$158              player
     000014C6  A$lcc2561638$216                   player
     000014C8  A$lcc2561638$217                   player
     000014C9  A$lcc2561638$218                   player
     000014CB  A$lcc2561638$219                   player
     000014CC  A$lcc2561638$220                   player
     000014CE  A$lcc2561638$221                   player
     000014CF  A$lcc2561638$222                   player
     000014D1  A$lcc2561638$223                   player
     000014D2  A$lcc2561638$224                   player
     000014D4  A$lcc2561638$225                   player
     000014D5  A$lcc2561638$226                   player
     000014D7  A$lcc2561638$227                   player
     000014D8  A$lcc2561638$228                   player
     000014DA  A$lcc2561638$229                   player
     000014DB  A$lcc2561638$230                   player
     000014DD  A$lcc2561638$231                   player
     000014DE  A$lcc2561638$232                   player
     000014DF  A$lcc2561638$233                   player
     000014E0  A$lcc2561638$234                   player
     000014E1  A$lcc2561638$235                   player
     000014E2  A$lcc2561638$236                   player
     000014E4  A$lcc2561638$237                   player
     000014E5  A$lcc2561638$238                   player
     000014E7  A$lcc2561638$239                   player
     000014E8  A$lcc2561638$240                   player
     000014EA  A$lcc2561638$241                   player
     000014EB  A$lcc2561638$242                   player
     000014ED  A$lcc2561638$243                   player
     000014EE  A$lcc2561638$244                   player
     000014F0  A$lcc2561638$245                   player
     000014F1  A$lcc2561638$246                   player
     000014F3  A$lcc2561638$247                   player
     000014F4  A$lcc2561638$248                   player
     000014F6  A$lcc2561638$249                   player
     000014F7  A$lcc2561638$250                   player
     000014F9  A$lcc2561638$251                   player
     000014FA  A$lcc2561638$252                   player
     000014FC  A$lcc2561638$253                   player
     000014FD  A$lcc2561638$254                   player
     000014FF  A$lcc2561638$255                   player
     00001500  A$lcc2561638$256                   player
     00001502  A$lcc2561638$257                   player
     00001503  A$lcc2561638$258                   player
     00001505  A$lcc2561638$259                   player
     00001506  A$lcc2561638$260                   player
     00001508  A$lcc2561638$261                   player
ASxxxx Linker V03.00/V05.40 + sdld,  page 52.
Hexadecimal  [32-Bits]

Area                                    Addr        Size        Decimal Bytes (Attributes)
--------------------------------        ----        ----        ------- ----- ------------
_CODE                               00000200    0000289F =       10399. bytes (REL,CON)

      Value  Global                              Global Defined In Module
      -----  --------------------------------   ------------------------
     00001509  A$lcc2561638$262                   player
     0000150B  A$lcc2561638$263                   player
     0000150C  A$lcc2561638$264                   player
     0000150D  A$lcc2561638$265                   player
     0000150E  A$lcc2561638$266                   player
     0000150F  A$lcc2561638$267                   player
     00001510  A$lcc2561638$268                   player
     00001512  A$lcc2561638$269                   player
     00001513  A$lcc2561638$270                   player
     00001515  A$lcc2561638$271                   player
     00001516  A$lcc2561638$272                   player
     00001518  A$lcc2561638$273                   player
     00001519  A$lcc2561638$274                   player
     0000151B  A$lcc2561638$275                   player
     0000151C  A$lcc2561638$276                   player
     0000151E  A$lcc2561638$277                   player
     0000151F  A$lcc2561638$278                   player
     00001521  A$lcc2561638$282                   player
     00001521  C$player.c$59$2_0$158              player
     00001522  A$lcc2561638$283                   player
     00001525  A$lcc2561638$284                   player
     00001526  A$lcc2561638$285                   player
     00001527  A$lcc2561638$286                   player
     00001528  A$lcc2561638$287                   player
     00001529  A$lcc2561638$288                   player
     0000152B  A$lcc2561638$289                   player
     0000152C  A$lcc2561638$290                   player
     0000152E  A$lcc2561638$291                   player
     0000152F  A$lcc2561638$292                   player
     00001531  A$lcc2561638$293                   player
     00001532  A$lcc2561638$294                   player
     00001534  A$lcc2561638$295                   player
     00001535  A$lcc2561638$296                   player
     00001537  A$lcc2561638$297                   player
     00001538  A$lcc2561638$298                   player
     0000153A  A$lcc2561638$302                   player
     0000153A  C$player.c$65$2_0$158              player
     0000153B  A$lcc2561638$303                   player
     0000153D  A$lcc2561638$304                   player
     0000153E  A$lcc2561638$305                   player
     00001540  A$lcc2561638$306                   player
     00001541  A$lcc2561638$307                   player
     00001543  A$lcc2561638$308                   player
     00001544  A$lcc2561638$309                   player
     00001546  A$lcc2561638$310                   player
     00001547  A$lcc2561638$311                   player
     00001549  A$lcc2561638$312                   player
     0000154A  A$lcc2561638$313                   player
     0000154C  A$lcc2561638$314                   player
     0000154D  A$lcc2561638$315                   player
     0000154F  A$lcc2561638$316                   player
ASxxxx Linker V03.00/V05.40 + sdld,  page 53.
Hexadecimal  [32-Bits]

Area                                    Addr        Size        Decimal Bytes (Attributes)
--------------------------------        ----        ----        ------- ----- ------------
_CODE                               00000200    0000289F =       10399. bytes (REL,CON)

      Value  Global                              Global Defined In Module
      -----  --------------------------------   ------------------------
     00001550  A$lcc2561638$317                   player
     00001552  A$lcc2561638$318                   player
     00001553  A$lcc2561638$319                   player
     00001554  A$lcc2561638$320                   player
     00001555  A$lcc2561638$321                   player
     00001556  A$lcc2561638$322                   player
     00001557  A$lcc2561638$323                   player
     00001559  A$lcc2561638$324                   player
     0000155A  A$lcc2561638$325                   player
     0000155C  A$lcc2561638$326                   player
     0000155D  A$lcc2561638$327                   player
     0000155F  A$lcc2561638$328                   player
     00001560  A$lcc2561638$329                   player
     00001562  A$lcc2561638$330                   player
     00001563  A$lcc2561638$331                   player
     00001565  A$lcc2561638$332                   player
     00001566  A$lcc2561638$333                   player
     00001568  A$lcc2561638$334                   player
     00001569  A$lcc2561638$335                   player
     0000156B  A$lcc2561638$336                   player
     0000156C  A$lcc2561638$337                   player
     0000156E  A$lcc2561638$338                   player
     0000156F  A$lcc2561638$339                   player
     00001571  A$lcc2561638$340                   player
     00001572  A$lcc2561638$341                   player
     00001574  A$lcc2561638$342                   player
     00001575  A$lcc2561638$343                   player
     00001577  A$lcc2561638$344                   player
     00001578  A$lcc2561638$345                   player
     0000157A  A$lcc2561638$346                   player
     0000157B  A$lcc2561638$347                   player
     0000157D  A$lcc2561638$348                   player
     0000157E  A$lcc2561638$349                   player
     00001580  A$lcc2561638$350                   player
     00001581  A$lcc2561638$351                   player
     00001582  A$lcc2561638$352                   player
     00001583  A$lcc2561638$353                   player
     00001584  A$lcc2561638$354                   player
     00001585  A$lcc2561638$355                   player
     00001587  A$lcc2561638$356                   player
     00001588  A$lcc2561638$357                   player
     0000158A  A$lcc2561638$358                   player
     0000158B  A$lcc2561638$359                   player
     0000158D  A$lcc2561638$360                   player
     0000158E  A$lcc2561638$361                   player
     00001590  A$lcc2561638$362                   player
     00001591  A$lcc2561638$363                   player
     00001593  A$lcc2561638$364                   player
     00001594  A$lcc2561638$365                   player
     00001596  A$lcc2561638$369                   player
     00001596  C$player.c$87$1_1$158              player
ASxxxx Linker V03.00/V05.40 + sdld,  page 54.
Hexadecimal  [32-Bits]

Area                                    Addr        Size        Decimal Bytes (Attributes)
--------------------------------        ----        ----        ------- ----- ------------
_CODE                               00000200    0000289F =       10399. bytes (REL,CON)

      Value  Global                              Global Defined In Module
      -----  --------------------------------   ------------------------
     00001599  A$lcc2561638$370                   player
     0000159A  A$lcc2561638$371                   player
     0000159C  A$lcc2561638$372                   player
     0000159D  A$lcc2561638$373                   player
     0000159E  A$lcc2561638$374                   player
     0000159F  A$lcc2561638$375                   player
     000015A0  A$lcc2561638$376                   player
     000015A1  A$lcc2561638$377                   player
     000015A2  A$lcc2561638$378                   player
     000015A3  A$lcc2561638$379                   player
     000015A4  A$lcc2561638$380                   player
     000015A5  A$lcc2561638$381                   player
     000015A8  A$lcc2561638$382                   player
     000015A9  A$lcc2561638$383                   player
     000015AA  A$lcc2561638$384                   player
     000015AB  A$lcc2561638$385                   player
     000015AE  A$lcc2561638$386                   player
     000015AF  A$lcc2561638$387                   player
     000015B1  A$lcc2561638$388                   player
     000015B2  A$lcc2561638$389                   player
     000015B3  A$lcc2561638$390                   player
     000015B6  A$lcc2561638$391                   player
     000015B7  A$lcc2561638$392                   player
     000015B8  A$lcc2561638$393                   player
     000015B9  A$lcc2561638$394                   player
     000015BA  A$lcc2561638$395                   player
     000015BB  A$lcc2561638$396                   player
     000015BC  A$lcc2561638$397                   player
     000015BF  A$lcc2561638$398                   player
     000015C2  A$lcc2561638$402                   player
     000015C2  C$player.c$88$1_1$158              player
     000015C5  A$lcc2561638$403                   player
     000015C6  A$lcc2561638$404                   player
     000015C8  A$lcc2561638$405                   player
     000015C9  A$lcc2561638$406                   player
     000015CA  A$lcc2561638$407                   player
     000015CB  A$lcc2561638$408                   player
     000015CC  A$lcc2561638$409                   player
     000015CD  A$lcc2561638$410                   player
     000015CE  A$lcc2561638$411                   player
     000015CF  A$lcc2561638$412                   player
     000015D0  A$lcc2561638$413                   player
     000015D1  A$lcc2561638$414                   player
     000015D4  A$lcc2561638$415                   player
     000015D5  A$lcc2561638$416                   player
     000015D6  A$lcc2561638$417                   player
     000015D7  A$lcc2561638$418                   player
     000015DA  A$lcc2561638$419                   player
     000015DB  A$lcc2561638$420                   player
     000015DD  A$lcc2561638$421                   player
     000015DE  A$lcc2561638$422                   player
ASxxxx Linker V03.00/V05.40 + sdld,  page 55.
Hexadecimal  [32-Bits]

Area                                    Addr        Size        Decimal Bytes (Attributes)
--------------------------------        ----        ----        ------- ----- ------------
_CODE                               00000200    0000289F =       10399. bytes (REL,CON)

      Value  Global                              Global Defined In Module
      -----  --------------------------------   ------------------------
     000015DF  A$lcc2561638$423                   player
     000015E2  A$lcc2561638$424                   player
     000015E3  A$lcc2561638$425                   player
     000015E4  A$lcc2561638$426                   player
     000015E6  A$lcc2561638$427                   player
     000015E7  A$lcc2561638$428                   player
     000015E8  A$lcc2561638$429                   player
     000015E9  A$lcc2561638$430                   player
     000015EC  A$lcc2561638$431                   player
     000015EF  A$lcc2561638$435                   player
     000015EF  C$player.c$89$1_1$158              player
     000015F2  A$lcc2561638$436                   player
     000015F3  A$lcc2561638$437                   player
     000015F5  A$lcc2561638$438                   player
     000015F6  A$lcc2561638$439                   player
     000015F7  A$lcc2561638$440                   player
     000015F8  A$lcc2561638$441                   player
     000015F9  A$lcc2561638$442                   player
     000015FA  A$lcc2561638$443                   player
     000015FB  A$lcc2561638$444                   player
     000015FC  A$lcc2561638$445                   player
     000015FD  A$lcc2561638$446                   player
     000015FE  A$lcc2561638$447                   player
     00001601  A$lcc2561638$448                   player
     00001602  A$lcc2561638$449                   player
     00001603  A$lcc2561638$450                   player
     00001604  A$lcc2561638$451                   player
     00001607  A$lcc2561638$452                   player
     00001608  A$lcc2561638$453                   player
     0000160A  A$lcc2561638$454                   player
     0000160B  A$lcc2561638$455                   player
     0000160C  A$lcc2561638$456                   player
     0000160F  A$lcc2561638$457                   player
     00001610  A$lcc2561638$458                   player
     00001611  A$lcc2561638$459                   player
     00001613  A$lcc2561638$460                   player
     00001614  A$lcc2561638$461                   player
     00001615  A$lcc2561638$462                   player
     00001616  A$lcc2561638$463                   player
     00001619  A$lcc2561638$464                   player
     0000161C  A$lcc2561638$468                   player
     0000161C  C$player.c$90$1_1$158              player
     0000161F  A$lcc2561638$469                   player
     00001620  A$lcc2561638$470                   player
     00001622  A$lcc2561638$471                   player
     00001623  A$lcc2561638$472                   player
     00001624  A$lcc2561638$473                   player
     00001625  A$lcc2561638$474                   player
     00001626  A$lcc2561638$475                   player
     00001627  A$lcc2561638$476                   player
     00001628  A$lcc2561638$477                   player
ASxxxx Linker V03.00/V05.40 + sdld,  page 56.
Hexadecimal  [32-Bits]

Area                                    Addr        Size        Decimal Bytes (Attributes)
--------------------------------        ----        ----        ------- ----- ------------
_CODE                               00000200    0000289F =       10399. bytes (REL,CON)

      Value  Global                              Global Defined In Module
      -----  --------------------------------   ------------------------
     00001629  A$lcc2561638$478                   player
     0000162A  A$lcc2561638$479                   player
     0000162B  A$lcc2561638$480                   player
     0000162E  A$lcc2561638$481                   player
     0000162F  A$lcc2561638$482                   player
     00001630  A$lcc2561638$483                   player
     00001631  A$lcc2561638$484                   player
     00001634  A$lcc2561638$485                   player
     00001635  A$lcc2561638$486                   player
     00001637  A$lcc2561638$487                   player
     00001638  A$lcc2561638$488                   player
     00001639  A$lcc2561638$489                   player
     0000163C  A$lcc2561638$490                   player
     0000163D  A$lcc2561638$491                   player
     0000163E  A$lcc2561638$492                   player
     00001640  A$lcc2561638$493                   player
     00001641  A$lcc2561638$494                   player
     00001642  A$lcc2561638$495                   player
     00001643  A$lcc2561638$496                   player
     00001646  A$lcc2561638$497                   player
     00001649  A$lcc2561638$501                   player
     00001649  C$player.c$92$1_1$158              player
     0000164C  A$lcc2561638$505                   player
     0000164C  C$player.c$93$1_1$158              player
     0000164D  A$lcc2561638$506                   player
     0000164E  A$lcc2561638$507                   player
     00001650  A$lcc2561638$511                   player
     00001650  C$player.c$94$1_1$158              player
     00001653  A$lcc2561638$512                   player
     00001655  A$lcc2561638$516                   player
     00001655  C$player.c$95$1_1$158              player
     00001658  A$lcc2561638$517                   player
     0000165A  A$lcc2561638$521                   player
     0000165A  C$player.c$97$1_1$158              player
     0000165D  A$lcc2561638$525                   player
     0000165F  A$lcc2561638$530                   player
     0000165F  C$player.c$98$1_1$157              player
     0000165F  XG$init_player$0$0                 player
     00001660  A$lcc2561640$59                    random
     00001660  C$random.c$5$0_0$1                 random
     00001660  C$random.c$7$1_0$1                 random
     00001660  G$my_rand$0$0                      random
     00001660  _my_rand                           random
     00001663  A$lcc2561640$60                    random
     00001664  A$lcc2561640$61                    random
     00001665  A$lcc2561640$62                    random
     00001666  A$lcc2561640$63                    random
     00001667  A$lcc2561640$64                    random
     00001668  A$lcc2561640$65                    random
     00001669  A$lcc2561640$66                    random
     0000166A  A$lcc2561640$67                    random
ASxxxx Linker V03.00/V05.40 + sdld,  page 57.
Hexadecimal  [32-Bits]

Area                                    Addr        Size        Decimal Bytes (Attributes)
--------------------------------        ----        ----        ------- ----- ------------
_CODE                               00000200    0000289F =       10399. bytes (REL,CON)

      Value  Global                              Global Defined In Module
      -----  --------------------------------   ------------------------
     0000166B  A$lcc2561640$68                    random
     0000166C  A$lcc2561640$69                    random
     0000166D  A$lcc2561640$70                    random
     0000166E  A$lcc2561640$71                    random
     0000166F  A$lcc2561640$72                    random
     00001670  A$lcc2561640$73                    random
     00001671  A$lcc2561640$74                    random
     00001672  A$lcc2561640$75                    random
     00001673  A$lcc2561640$76                    random
     00001674  A$lcc2561640$77                    random
     00001675  A$lcc2561640$78                    random
     00001676  A$lcc2561640$79                    random
     00001677  A$lcc2561640$80                    random
     00001678  A$lcc2561640$81                    random
     00001679  A$lcc2561640$82                    random
     0000167A  A$lcc2561640$83                    random
     0000167B  A$lcc2561640$84                    random
     0000167C  A$lcc2561640$85                    random
     0000167D  A$lcc2561640$86                    random
     0000167E  A$lcc2561640$87                    random
     0000167F  A$lcc2561640$88                    random
     00001681  A$lcc2561640$89                    random
     00001684  A$lcc2561640$90                    random
     00001685  A$lcc2561640$91                    random
     00001686  A$lcc2561640$92                    random
     00001688  A$lcc2561640$96                    random
     00001688  C$random.c$8$1_0$1                 random
     00001689  A$lcc2561640$97                    random
     0000168A  A$lcc2561640$98                    random
     0000168B  A$lcc2561640$99                    random
     0000168C  A$lcc2561640$107                   random
     0000168C  C$random.c$9$1_0$1                 random
     0000168C  XG$my_rand$0$0                     random
     0000168D  A$lcc2561641$56                    render
     0000168D  C$render.c$5$0_0$130               render
     0000168D  G$render_reset$0$0                 render
     0000168D  _render_reset                      render
     0000168E  A$lcc2561641$60                    render
     0000168E  C$render.c$6$1_0$130               render
     00001691  A$lcc2561641$61                    render
     00001693  A$lcc2561641$62                    render
     00001694  A$lcc2561641$63                    render
     00001696  A$lcc2561641$67                    render
     00001696  C$render.c$7$1_0$130               render
     00001699  A$lcc2561641$68                    render
     0000169B  A$lcc2561641$69                    render
     0000169C  A$lcc2561641$70                    render
     0000169E  A$lcc2561641$78                    render
     0000169E  C$render.c$8$1_0$130               render
     0000169E  XG$render_reset$0$0                render
     0000169F  A$lcc2561642$56                    scene
ASxxxx Linker V03.00/V05.40 + sdld,  page 58.
Hexadecimal  [32-Bits]

Area                                    Addr        Size        Decimal Bytes (Attributes)
--------------------------------        ----        ----        ------- ----- ------------
_CODE                               00000200    0000289F =       10399. bytes (REL,CON)

      Value  Global                              Global Defined In Module
      -----  --------------------------------   ------------------------
     0000169F  C$scene.c$6$0_0$27                 scene
     0000169F  C$scene.c$8$2_0$28                 scene
     0000169F  G$Scene_Destroy$0$0                scene
     0000169F  _Scene_Destroy                     scene
     000016A2  A$lcc2561642$57                    scene
     000016A3  A$lcc2561642$58                    scene
     000016A4  A$lcc2561642$59                    scene
     000016A5  A$lcc2561642$60                    scene
     000016A6  A$lcc2561642$61                    scene
     000016A7  A$lcc2561642$62                    scene
     000016A8  A$lcc2561642$63                    scene
     000016A9  A$lcc2561642$67                    scene
     000016A9  C$scene.c$9$2_0$28                 scene
     000016AA  A$lcc2561642$71                    scene
     000016AA  C$scene.c$11$1_0$27                scene
     000016AB  A$lcc2561642$72                    scene
     000016AC  A$lcc2561642$73                    scene
     000016AD  A$lcc2561642$74                    scene
     000016B0  A$lcc2561642$75                    scene
     000016B1  A$lcc2561642$79                    scene
     000016B1  C$scene.c$12$1_0$27                scene
     000016B2  A$lcc2561642$80                    scene
     000016B3  A$lcc2561642$81                    scene
     000016B4  A$lcc2561642$82                    scene
     000016B5  A$lcc2561642$90                    scene
     000016B5  C$scene.c$13$1_0$27                scene
     000016B5  XG$Scene_Destroy$0$0               scene
     000016B6  A$lcc2561643$64                    scene_manager
     000016B6  C$scene_manager.c$14$0_0$167       scene_manager
     000016B6  C$scene_manager.c$17$1_0$167       scene_manager
     000016B6  G$SceneManager_CleanScreen$0$0     scene_manager
     000016B6  _SceneManager_CleanScreen          scene_manager
     000016B9  A$lcc2561643$65                    scene_manager
     000016BC  A$lcc2561643$66                    scene_manager
     000016BD  A$lcc2561643$67                    scene_manager
     000016BF  A$lcc2561643$68                    scene_manager
     000016C0  A$lcc2561643$69                    scene_manager
     000016C2  A$lcc2561643$73                    scene_manager
     000016C2  C$scene_manager.c$18$1_0$167       scene_manager
     000016C5  A$lcc2561643$74                    scene_manager
     000016C6  A$lcc2561643$75                    scene_manager
     000016C8  A$lcc2561643$76                    scene_manager
     000016C9  A$lcc2561643$77                    scene_manager
     000016CB  A$lcc2561643$81                    scene_manager
     000016CB  C$scene_manager.c$19$1_0$167       scene_manager
     000016CE  A$lcc2561643$82                    scene_manager
     000016CF  A$lcc2561643$83                    scene_manager
     000016D1  A$lcc2561643$84                    scene_manager
     000016D2  A$lcc2561643$85                    scene_manager
     000016D4  A$lcc2561643$89                    scene_manager
     000016D4  C$scene_manager.c$20$1_0$167       scene_manager
ASxxxx Linker V03.00/V05.40 + sdld,  page 59.
Hexadecimal  [32-Bits]

Area                                    Addr        Size        Decimal Bytes (Attributes)
--------------------------------        ----        ----        ------- ----- ------------
_CODE                               00000200    0000289F =       10399. bytes (REL,CON)

      Value  Global                              Global Defined In Module
      -----  --------------------------------   ------------------------
     000016D7  A$lcc2561643$90                    scene_manager
     000016D8  A$lcc2561643$91                    scene_manager
     000016DA  A$lcc2561643$92                    scene_manager
     000016DB  A$lcc2561643$93                    scene_manager
     000016DD  A$lcc2561643$97                    scene_manager
     000016DD  C$scene_manager.c$22$1_0$167       scene_manager
     000016E0  A$lcc2561643$98                    scene_manager
     000016E3  A$lcc2561643$102                   scene_manager
     000016E3  C$scene_manager.c$23$1_0$167       scene_manager
     000016E6  A$lcc2561643$103                   scene_manager
     000016E9  A$lcc2561643$107                   scene_manager
     000016E9  C$scene_manager.c$24$1_0$167       scene_manager
     000016EC  A$lcc2561643$108                   scene_manager
     000016EF  A$lcc2561643$112                   scene_manager
     000016EF  C$scene_manager.c$25$1_0$167       scene_manager
     000016F2  A$lcc2561643$120                   scene_manager
     000016F2  C$scene_manager.c$26$1_0$167       scene_manager
     000016F2  XG$SceneManager_CleanScreen$0$0    scene_manager
     000016F5  A$lcc2561643$133                   scene_manager
     000016F5  C$scene_manager.c$28$1_0$169       scene_manager
     000016F5  C$scene_manager.c$30$1_0$169       scene_manager
     000016F5  G$SceneManager_Create$0$0          scene_manager
     000016F5  _SceneManager_Create               scene_manager
     000016F6  A$lcc2561643$134                   scene_manager
     000016F9  A$lcc2561643$135                   scene_manager
     000016FC  A$lcc2561643$136                   scene_manager
     000016FD  A$lcc2561643$137                   scene_manager
     00001700  A$lcc2561643$138                   scene_manager
     00001701  A$lcc2561643$139                   scene_manager
     00001702  A$lcc2561643$143                   scene_manager
     00001702  C$scene_manager.c$32$1_0$169       scene_manager
     00001703  A$lcc2561643$144                   scene_manager
     00001704  A$lcc2561643$145                   scene_manager
     00001705  A$lcc2561643$146                   scene_manager
     00001708  A$lcc2561643$147                   scene_manager
     00001709  A$lcc2561643$148                   scene_manager
     0000170A  A$lcc2561643$149                   scene_manager
     0000170B  A$lcc2561643$150                   scene_manager
     0000170C  A$lcc2561643$154                   scene_manager
     0000170C  C$scene_manager.c$33$1_0$169       scene_manager
     0000170F  A$lcc2561643$155                   scene_manager
     00001712  A$lcc2561643$156                   scene_manager
     00001713  A$lcc2561643$157                   scene_manager
     00001714  A$lcc2561643$158                   scene_manager
     00001715  A$lcc2561643$159                   scene_manager
     00001716  A$lcc2561643$160                   scene_manager
     00001718  A$lcc2561643$161                   scene_manager
     00001719  A$lcc2561643$162                   scene_manager
     0000171B  A$lcc2561643$170                   scene_manager
     0000171B  C$scene_manager.c$34$1_0$169       scene_manager
     0000171B  XG$SceneManager_Create$0$0         scene_manager
ASxxxx Linker V03.00/V05.40 + sdld,  page 60.
Hexadecimal  [32-Bits]

Area                                    Addr        Size        Decimal Bytes (Attributes)
--------------------------------        ----        ----        ------- ----- ------------
_CODE                               00000200    0000289F =       10399. bytes (REL,CON)

      Value  Global                              Global Defined In Module
      -----  --------------------------------   ------------------------
     0000171C  A$lcc2561643$180                   scene_manager
     0000171C  C$scene_manager.c$36$1_0$171       scene_manager
     0000171C  G$SceneManager_ChangeScene$0$0     scene_manager
     0000171C  _SceneManager_ChangeScene          scene_manager
     0000171E  A$lcc2561643$181                   scene_manager
     00001720  A$lcc2561643$182                   scene_manager
     00001721  A$lcc2561643$183                   scene_manager
     00001722  A$lcc2561643$184                   scene_manager
     00001723  A$lcc2561643$185                   scene_manager
     00001724  A$lcc2561643$186                   scene_manager
     00001725  A$lcc2561643$190                   scene_manager
     00001728  A$lcc2561643$191                   scene_manager
     00001729  A$lcc2561643$192                   scene_manager
     0000172A  A$lcc2561643$193                   scene_manager
     0000172B  A$lcc2561643$194                   scene_manager
     0000172C  A$lcc2561643$195                   scene_manager
     0000172D  A$lcc2561643$196                   scene_manager
     0000172E  A$lcc2561643$197                   scene_manager
     0000172F  A$lcc2561643$198                   scene_manager
     00001730  A$lcc2561643$202                   scene_manager
     00001730  C$scene_manager.c$39$2_0$172       scene_manager
     00001732  A$lcc2561643$206                   scene_manager
     00001733  A$lcc2561643$207                   scene_manager
     00001734  A$lcc2561643$208                   scene_manager
     00001735  A$lcc2561643$209                   scene_manager
     00001736  A$lcc2561643$210                   scene_manager
     00001737  A$lcc2561643$211                   scene_manager
     00001738  A$lcc2561643$212                   scene_manager
     00001739  A$lcc2561643$213                   scene_manager
     0000173B  A$lcc2561643$214                   scene_manager
     0000173E  A$lcc2561643$215                   scene_manager
     0000173F  A$lcc2561643$216                   scene_manager
     00001740  A$lcc2561643$217                   scene_manager
     00001741  A$lcc2561643$218                   scene_manager
     00001742  A$lcc2561643$219                   scene_manager
     00001743  A$lcc2561643$220                   scene_manager
     00001745  A$lcc2561643$224                   scene_manager
     00001745  C$scene_manager.c$42$2_0$173       scene_manager
     00001746  A$lcc2561643$225                   scene_manager
     00001747  A$lcc2561643$226                   scene_manager
     0000174A  A$lcc2561643$227                   scene_manager
     0000174B  A$lcc2561643$228                   scene_manager
     0000174C  A$lcc2561643$229                   scene_manager
     0000174D  A$lcc2561643$235                   scene_manager
     0000174D  C$scene_manager.c$44$1_0$171       scene_manager
     00001750  A$lcc2561643$236                   scene_manager
     00001751  A$lcc2561643$237                   scene_manager
     00001752  A$lcc2561643$238                   scene_manager
     00001753  A$lcc2561643$239                   scene_manager
     00001754  A$lcc2561643$240                   scene_manager
     00001755  A$lcc2561643$241                   scene_manager
ASxxxx Linker V03.00/V05.40 + sdld,  page 61.
Hexadecimal  [32-Bits]

Area                                    Addr        Size        Decimal Bytes (Attributes)
--------------------------------        ----        ----        ------- ----- ------------
_CODE                               00000200    0000289F =       10399. bytes (REL,CON)

      Value  Global                              Global Defined In Module
      -----  --------------------------------   ------------------------
     00001756  A$lcc2561643$242                   scene_manager
     00001757  A$lcc2561643$243                   scene_manager
     00001759  A$lcc2561643$244                   scene_manager
     0000175A  A$lcc2561643$245                   scene_manager
     0000175D  A$lcc2561643$246                   scene_manager
     0000175E  A$lcc2561643$247                   scene_manager
     0000175F  A$lcc2561643$248                   scene_manager
     00001760  A$lcc2561643$249                   scene_manager
     00001761  A$lcc2561643$250                   scene_manager
     00001762  A$lcc2561643$251                   scene_manager
     00001763  A$lcc2561643$252                   scene_manager
     00001764  A$lcc2561643$253                   scene_manager
     00001765  A$lcc2561643$257                   scene_manager
     00001765  C$scene_manager.c$46$1_0$171       scene_manager
     00001768  A$lcc2561643$261                   scene_manager
     00001768  C$scene_manager.c$38$1_0$171       scene_manager
     0000176B  A$lcc2561643$262                   scene_manager
     0000176C  A$lcc2561643$263                   scene_manager
     0000176D  A$lcc2561643$264                   scene_manager
     0000176E  A$lcc2561643$265                   scene_manager
     0000176F  A$lcc2561643$266                   scene_manager
     00001770  A$lcc2561643$267                   scene_manager
     00001771  A$lcc2561643$271                   scene_manager
     00001771  C$scene_manager.c$41$1_0$171       scene_manager
     00001772  A$lcc2561643$272                   scene_manager
     00001773  A$lcc2561643$273                   scene_manager
     00001774  A$lcc2561643$274                   scene_manager
     00001775  A$lcc2561643$275                   scene_manager
     00001776  A$lcc2561643$279                   scene_manager
     00001776  C$scene_manager.c$47$1_0$171       scene_manager
     00001777  A$lcc2561643$280                   scene_manager
     00001778  A$lcc2561643$281                   scene_manager
     00001779  A$lcc2561643$282                   scene_manager
     0000177B  A$lcc2561643$283                   scene_manager
     0000177C  A$lcc2561643$284                   scene_manager
     0000177D  A$lcc2561643$285                   scene_manager
     0000177E  A$lcc2561643$286                   scene_manager
     0000177F  A$lcc2561643$287                   scene_manager
     00001780  A$lcc2561643$288                   scene_manager
     00001781  A$lcc2561643$289                   scene_manager
     00001782  A$lcc2561643$290                   scene_manager
     00001783  A$lcc2561643$291                   scene_manager
     00001784  A$lcc2561643$292                   scene_manager
     00001787  A$lcc2561643$296                   scene_manager
     00001787  C$scene_manager.c$49$1_0$171       scene_manager
     00001789  A$lcc2561643$297                   scene_manager
     0000178B  A$lcc2561643$298                   scene_manager
     0000178D  A$lcc2561643$303                   scene_manager
     0000178F  A$lcc2561643$308                   scene_manager
     0000178F  C$scene_manager.c$50$1_0$171       scene_manager
     0000178F  XG$SceneManager_ChangeScene$0$0    scene_manager
ASxxxx Linker V03.00/V05.40 + sdld,  page 62.
Hexadecimal  [32-Bits]

Area                                    Addr        Size        Decimal Bytes (Attributes)
--------------------------------        ----        ----        ------- ----- ------------
_CODE                               00000200    0000289F =       10399. bytes (REL,CON)

      Value  Global                              Global Defined In Module
      -----  --------------------------------   ------------------------
     00001790  A$lcc2561645$61                    gender_select
     00001790  C$gender_select.c$6$0_0$30         gender_select
     00001790  C$gender_select.c$8$1_0$30         gender_select
     00001790  G$GenderSelect_Create$0$0          gender_select
     00001790  _GenderSelect_Create               gender_select
     00001793  A$lcc2561645$62                    gender_select
     00001795  A$lcc2561645$63                    gender_select
     00001796  A$lcc2561645$64                    gender_select
     00001798  A$lcc2561645$68                    gender_select
     00001798  C$gender_select.c$9$1_0$30         gender_select
     00001799  A$lcc2561645$69                    gender_select
     0000179B  A$lcc2561645$70                    gender_select
     0000179C  A$lcc2561645$71                    gender_select
     0000179E  A$lcc2561645$75                    gender_select
     0000179E  C$gender_select.c$11$1_0$30        gender_select
     000017A1  A$lcc2561645$76                    gender_select
     000017A2  A$lcc2561645$77                    gender_select
     000017A3  A$lcc2561645$78                    gender_select
     000017A4  A$lcc2561645$86                    gender_select
     000017A4  C$gender_select.c$12$1_0$30        gender_select
     000017A4  XG$GenderSelect_Create$0$0         gender_select
     000017A5  A$lcc2561646$58                    gender_select_init
     000017A5  C$gender_select_init.c$11$1_0$15   gender_select_init
     000017A5  C$gender_select_init.c$9$0_0$155   gender_select_init
     000017A5  G$GenderSelect_Init$0$0            gender_select_init
     000017A5  _GenderSelect_Init                 gender_select_init
     000017A6  A$lcc2561646$59                    gender_select_init
     000017A9  A$lcc2561646$60                    gender_select_init
     000017AC  A$lcc2561646$61                    gender_select_init
     000017AD  A$lcc2561646$62                    gender_select_init
     000017AE  A$lcc2561646$63                    gender_select_init
     000017AF  A$lcc2561646$67                    gender_select_init
     000017AF  C$gender_select_init.c$12$2_0$15   gender_select_init
     000017B0  A$lcc2561646$68                    gender_select_init
     000017B1  A$lcc2561646$72                    gender_select_init
     000017B1  C$gender_select_init.c$13$2_0$15   gender_select_init
     000017B2  A$lcc2561646$76                    gender_select_init
     000017B2  C$gender_select_init.c$15$1_0$15   gender_select_init
     000017B3  A$lcc2561646$77                    gender_select_init
     000017B4  A$lcc2561646$81                    gender_select_init
     000017B4  C$gender_select_init.c$16$1_0$15   gender_select_init
     000017B7  A$lcc2561646$82                    gender_select_init
     000017B8  A$lcc2561646$83                    gender_select_init
     000017B9  A$lcc2561646$84                    gender_select_init
     000017BA  A$lcc2561646$85                    gender_select_init
     000017BB  A$lcc2561646$89                    gender_select_init
     000017BB  C$gender_select_init.c$18$1_0$15   gender_select_init
     000017BE  A$lcc2561646$90                    gender_select_init
     000017BF  A$lcc2561646$91                    gender_select_init
     000017C2  A$lcc2561646$92                    gender_select_init
     000017C3  A$lcc2561646$93                    gender_select_init
ASxxxx Linker V03.00/V05.40 + sdld,  page 63.
Hexadecimal  [32-Bits]

Area                                    Addr        Size        Decimal Bytes (Attributes)
--------------------------------        ----        ----        ------- ----- ------------
_CODE                               00000200    0000289F =       10399. bytes (REL,CON)

      Value  Global                              Global Defined In Module
      -----  --------------------------------   ------------------------
     000017C6  A$lcc2561646$94                    gender_select_init
     000017C8  A$lcc2561646$98                    gender_select_init
     000017C8  C$gender_select_init.c$19$1_0$15   gender_select_init
     000017CB  A$lcc2561646$99                    gender_select_init
     000017CC  A$lcc2561646$100                   gender_select_init
     000017CF  A$lcc2561646$101                   gender_select_init
     000017D0  A$lcc2561646$102                   gender_select_init
     000017D1  A$lcc2561646$103                   gender_select_init
     000017D2  A$lcc2561646$104                   gender_select_init
     000017D3  A$lcc2561646$105                   gender_select_init
     000017D6  A$lcc2561646$106                   gender_select_init
     000017D8  A$lcc2561646$114                   gender_select_init
     000017D8  C$gender_select_init.c$20$1_0$15   gender_select_init
     000017D8  XG$GenderSelect_Init$0$0           gender_select_init
     000017D9  A$lcc2561647$62                    gender_select_update
     000017D9  C$gender_select_update.c$6$0_0$1   gender_select_update
     000017D9  C$gender_select_update.c$8$1_0$1   gender_select_update
     000017D9  C$gender_select_update.c$9$1_0$1   gender_select_update
     000017D9  G$GenderSelect_Update$0$0          gender_select_update
     000017D9  XG$GenderSelect_Update$0$0         gender_select_update
     000017D9  _GenderSelect_Update               gender_select_update
     000017DA  A$lcc2561648$61                    inventory_scene
     000017DA  C$inventory_scene.c$6$0_0$30       inventory_scene
     000017DA  C$inventory_scene.c$8$1_0$30       inventory_scene
     000017DA  G$InventoryScene_Create$0$0        inventory_scene
     000017DA  _InventoryScene_Create             inventory_scene
     000017DD  A$lcc2561648$62                    inventory_scene
     000017DF  A$lcc2561648$63                    inventory_scene
     000017E0  A$lcc2561648$64                    inventory_scene
     000017E2  A$lcc2561648$68                    inventory_scene
     000017E2  C$inventory_scene.c$9$1_0$30       inventory_scene
     000017E3  A$lcc2561648$69                    inventory_scene
     000017E5  A$lcc2561648$70                    inventory_scene
     000017E6  A$lcc2561648$71                    inventory_scene
     000017E8  A$lcc2561648$75                    inventory_scene
     000017E8  C$inventory_scene.c$11$1_0$30      inventory_scene
     000017EB  A$lcc2561648$76                    inventory_scene
     000017EC  A$lcc2561648$77                    inventory_scene
     000017ED  A$lcc2561648$78                    inventory_scene
     000017EE  A$lcc2561648$86                    inventory_scene
     000017EE  C$inventory_scene.c$12$1_0$30      inventory_scene
     000017EE  XG$InventoryScene_Create$0$0       inventory_scene
     000017EF  A$lcc2561649$56                    inventory_scene_init
     000017EF  C$inventory_scene_init.c$13$0_0$   inventory_scene_init
     000017EF  G$InventoryScene_DrawCoins$0$0     inventory_scene_init
     000017EF  _InventoryScene_DrawCoins          inventory_scene_init
     000017F1  A$lcc2561649$60                    inventory_scene_init
     000017F1  C$inventory_scene_init.c$15$1_0$   inventory_scene_init
     000017F4  A$lcc2561649$61                    inventory_scene_init
     000017F6  A$lcc2561649$62                    inventory_scene_init
     000017F7  A$lcc2561649$63                    inventory_scene_init
ASxxxx Linker V03.00/V05.40 + sdld,  page 64.
Hexadecimal  [32-Bits]

Area                                    Addr        Size        Decimal Bytes (Attributes)
--------------------------------        ----        ----        ------- ----- ------------
_CODE                               00000200    0000289F =       10399. bytes (REL,CON)

      Value  Global                              Global Defined In Module
      -----  --------------------------------   ------------------------
     000017FA  A$lcc2561649$64                    inventory_scene_init
     000017FC  A$lcc2561649$65                    inventory_scene_init
     000017FD  A$lcc2561649$66                    inventory_scene_init
     00001800  A$lcc2561649$67                    inventory_scene_init
     00001801  A$lcc2561649$68                    inventory_scene_init
     00001802  A$lcc2561649$69                    inventory_scene_init
     00001803  A$lcc2561649$70                    inventory_scene_init
     00001806  A$lcc2561649$71                    inventory_scene_init
     00001807  A$lcc2561649$72                    inventory_scene_init
     00001809  A$lcc2561649$73                    inventory_scene_init
     0000180C  A$lcc2561649$74                    inventory_scene_init
     0000180D  A$lcc2561649$75                    inventory_scene_init
     0000180F  A$lcc2561649$76                    inventory_scene_init
     00001811  A$lcc2561649$77                    inventory_scene_init
     00001812  A$lcc2561649$81                    inventory_scene_init
     00001812  C$inventory_scene_init.c$16$1_0$   inventory_scene_init
     00001815  A$lcc2561649$82                    inventory_scene_init
     00001817  A$lcc2561649$83                    inventory_scene_init
     00001818  A$lcc2561649$84                    inventory_scene_init
     00001819  A$lcc2561649$85                    inventory_scene_init
     0000181A  A$lcc2561649$86                    inventory_scene_init
     0000181D  A$lcc2561649$87                    inventory_scene_init
     0000181E  A$lcc2561649$88                    inventory_scene_init
     0000181F  A$lcc2561649$89                    inventory_scene_init
     00001822  A$lcc2561649$90                    inventory_scene_init
     00001825  A$lcc2561649$91                    inventory_scene_init
     00001826  A$lcc2561649$92                    inventory_scene_init
     00001828  A$lcc2561649$93                    inventory_scene_init
     0000182A  A$lcc2561649$94                    inventory_scene_init
     0000182B  A$lcc2561649$98                    inventory_scene_init
     0000182B  C$inventory_scene_init.c$17$1_0$   inventory_scene_init
     0000182E  A$lcc2561649$99                    inventory_scene_init
     00001830  A$lcc2561649$100                   inventory_scene_init
     00001831  A$lcc2561649$101                   inventory_scene_init
     00001832  A$lcc2561649$102                   inventory_scene_init
     00001833  A$lcc2561649$103                   inventory_scene_init
     00001836  A$lcc2561649$104                   inventory_scene_init
     00001837  A$lcc2561649$105                   inventory_scene_init
     00001838  A$lcc2561649$106                   inventory_scene_init
     0000183B  A$lcc2561649$107                   inventory_scene_init
     0000183E  A$lcc2561649$108                   inventory_scene_init
     0000183F  A$lcc2561649$109                   inventory_scene_init
     00001841  A$lcc2561649$110                   inventory_scene_init
     00001843  A$lcc2561649$114                   inventory_scene_init
     00001843  C$inventory_scene_init.c$18$1_0$   inventory_scene_init
     00001844  A$lcc2561649$115                   inventory_scene_init
     00001845  A$lcc2561649$116                   inventory_scene_init
     00001848  A$lcc2561649$117                   inventory_scene_init
     00001849  A$lcc2561649$118                   inventory_scene_init
     0000184A  A$lcc2561649$119                   inventory_scene_init
     0000184B  A$lcc2561649$120                   inventory_scene_init
ASxxxx Linker V03.00/V05.40 + sdld,  page 65.
Hexadecimal  [32-Bits]

Area                                    Addr        Size        Decimal Bytes (Attributes)
--------------------------------        ----        ----        ------- ----- ------------
_CODE                               00000200    0000289F =       10399. bytes (REL,CON)

      Value  Global                              Global Defined In Module
      -----  --------------------------------   ------------------------
     0000184E  A$lcc2561649$121                   inventory_scene_init
     0000184F  A$lcc2561649$122                   inventory_scene_init
     00001851  A$lcc2561649$123                   inventory_scene_init
     00001853  A$lcc2561649$124                   inventory_scene_init
     00001854  A$lcc2561649$128                   inventory_scene_init
     00001854  C$inventory_scene_init.c$20$1_0$   inventory_scene_init
     00001856  A$lcc2561649$129                   inventory_scene_init
     00001857  A$lcc2561649$130                   inventory_scene_init
     0000185A  A$lcc2561649$131                   inventory_scene_init
     0000185B  A$lcc2561649$132                   inventory_scene_init
     0000185E  A$lcc2561649$133                   inventory_scene_init
     0000185F  A$lcc2561649$134                   inventory_scene_init
     00001862  A$lcc2561649$135                   inventory_scene_init
     00001864  A$lcc2561649$139                   inventory_scene_init
     00001864  C$inventory_scene_init.c$21$1_0$   inventory_scene_init
     00001866  A$lcc2561649$140                   inventory_scene_init
     00001867  A$lcc2561649$141                   inventory_scene_init
     0000186A  A$lcc2561649$142                   inventory_scene_init
     0000186B  A$lcc2561649$143                   inventory_scene_init
     0000186E  A$lcc2561649$144                   inventory_scene_init
     0000186F  A$lcc2561649$145                   inventory_scene_init
     00001872  A$lcc2561649$146                   inventory_scene_init
     00001874  A$lcc2561649$150                   inventory_scene_init
     00001874  C$inventory_scene_init.c$22$1_0$   inventory_scene_init
     00001876  A$lcc2561649$151                   inventory_scene_init
     00001877  A$lcc2561649$152                   inventory_scene_init
     0000187A  A$lcc2561649$153                   inventory_scene_init
     0000187B  A$lcc2561649$154                   inventory_scene_init
     0000187E  A$lcc2561649$155                   inventory_scene_init
     0000187F  A$lcc2561649$156                   inventory_scene_init
     00001882  A$lcc2561649$157                   inventory_scene_init
     00001884  A$lcc2561649$161                   inventory_scene_init
     00001884  C$inventory_scene_init.c$23$1_0$   inventory_scene_init
     00001886  A$lcc2561649$162                   inventory_scene_init
     00001887  A$lcc2561649$163                   inventory_scene_init
     00001888  A$lcc2561649$164                   inventory_scene_init
     00001889  A$lcc2561649$165                   inventory_scene_init
     0000188C  A$lcc2561649$166                   inventory_scene_init
     0000188D  A$lcc2561649$167                   inventory_scene_init
     00001890  A$lcc2561649$168                   inventory_scene_init
     00001891  A$lcc2561649$169                   inventory_scene_init
     00001894  A$lcc2561649$173                   inventory_scene_init
     00001896  A$lcc2561649$178                   inventory_scene_init
     00001896  C$inventory_scene_init.c$24$1_0$   inventory_scene_init
     00001896  XG$InventoryScene_DrawCoins$0$0    inventory_scene_init
     00001897  A$lcc2561649$188                   inventory_scene_init
     00001897  C$inventory_scene_init.c$26$1_0$   inventory_scene_init
     00001897  G$InventoryScene_Init$0$0          inventory_scene_init
     00001897  _InventoryScene_Init               inventory_scene_init
     00001898  A$lcc2561649$192                   inventory_scene_init
     00001898  C$inventory_scene_init.c$28$1_0$   inventory_scene_init
ASxxxx Linker V03.00/V05.40 + sdld,  page 66.
Hexadecimal  [32-Bits]

Area                                    Addr        Size        Decimal Bytes (Attributes)
--------------------------------        ----        ----        ------- ----- ------------
_CODE                               00000200    0000289F =       10399. bytes (REL,CON)

      Value  Global                              Global Defined In Module
      -----  --------------------------------   ------------------------
     0000189B  A$lcc2561649$193                   inventory_scene_init
     0000189C  A$lcc2561649$194                   inventory_scene_init
     0000189D  A$lcc2561649$195                   inventory_scene_init
     0000189E  A$lcc2561649$196                   inventory_scene_init
     0000189F  A$lcc2561649$200                   inventory_scene_init
     0000189F  C$inventory_scene_init.c$29$1_0$   inventory_scene_init
     000018A2  A$lcc2561649$204                   inventory_scene_init
     000018A2  C$inventory_scene_init.c$31$2_0$   inventory_scene_init
     000018A4  A$lcc2561649$205                   inventory_scene_init
     000018A6  A$lcc2561649$209                   inventory_scene_init
     000018A6  C$inventory_scene_init.c$33$2_0$   inventory_scene_init
     000018A8  A$lcc2561649$210                   inventory_scene_init
     000018A9  A$lcc2561649$214                   inventory_scene_init
     000018A9  C$inventory_scene_init.c$34$1_1$   inventory_scene_init
     000018AB  A$lcc2561649$215                   inventory_scene_init
     000018AD  A$lcc2561649$216                   inventory_scene_init
     000018B0  A$lcc2561649$217                   inventory_scene_init
     000018B2  A$lcc2561649$221                   inventory_scene_init
     000018B2  C$inventory_scene_init.c$36$1_1$   inventory_scene_init
     000018B5  A$lcc2561649$222                   inventory_scene_init
     000018B6  A$lcc2561649$223                   inventory_scene_init
     000018B9  A$lcc2561649$224                   inventory_scene_init
     000018BA  A$lcc2561649$225                   inventory_scene_init
     000018BD  A$lcc2561649$226                   inventory_scene_init
     000018BF  A$lcc2561649$230                   inventory_scene_init
     000018BF  C$inventory_scene_init.c$37$1_1$   inventory_scene_init
     000018C2  A$lcc2561649$231                   inventory_scene_init
     000018C3  A$lcc2561649$232                   inventory_scene_init
     000018C6  A$lcc2561649$233                   inventory_scene_init
     000018C7  A$lcc2561649$234                   inventory_scene_init
     000018C8  A$lcc2561649$235                   inventory_scene_init
     000018C9  A$lcc2561649$236                   inventory_scene_init
     000018CA  A$lcc2561649$237                   inventory_scene_init
     000018CD  A$lcc2561649$238                   inventory_scene_init
     000018CF  A$lcc2561649$242                   inventory_scene_init
     000018CF  C$inventory_scene_init.c$39$1_1$   inventory_scene_init
     000018D2  A$lcc2561649$243                   inventory_scene_init
     000018D3  A$lcc2561649$244                   inventory_scene_init
     000018D6  A$lcc2561649$245                   inventory_scene_init
     000018D7  A$lcc2561649$246                   inventory_scene_init
     000018DA  A$lcc2561649$247                   inventory_scene_init
     000018DC  A$lcc2561649$251                   inventory_scene_init
     000018DC  C$inventory_scene_init.c$40$1_1$   inventory_scene_init
     000018DF  A$lcc2561649$252                   inventory_scene_init
     000018E0  A$lcc2561649$253                   inventory_scene_init
     000018E1  A$lcc2561649$254                   inventory_scene_init
     000018E4  A$lcc2561649$255                   inventory_scene_init
     000018E5  A$lcc2561649$256                   inventory_scene_init
     000018E8  A$lcc2561649$257                   inventory_scene_init
     000018E9  A$lcc2561649$258                   inventory_scene_init
     000018EC  A$lcc2561649$259                   inventory_scene_init
ASxxxx Linker V03.00/V05.40 + sdld,  page 67.
Hexadecimal  [32-Bits]

Area                                    Addr        Size        Decimal Bytes (Attributes)
--------------------------------        ----        ----        ------- ----- ------------
_CODE                               00000200    0000289F =       10399. bytes (REL,CON)

      Value  Global                              Global Defined In Module
      -----  --------------------------------   ------------------------
     000018EE  A$lcc2561649$263                   inventory_scene_init
     000018EE  C$inventory_scene_init.c$42$1_1$   inventory_scene_init
     000018EF  A$lcc2561649$264                   inventory_scene_init
     000018F2  A$lcc2561649$265                   inventory_scene_init
     000018F3  A$lcc2561649$269                   inventory_scene_init
     000018F3  C$inventory_scene_init.c$44$1_1$   inventory_scene_init
     000018F4  A$lcc2561649$270                   inventory_scene_init
     000018F6  A$lcc2561649$271                   inventory_scene_init
     000018F9  A$lcc2561649$272                   inventory_scene_init
     000018FA  A$lcc2561649$276                   inventory_scene_init
     000018FB  A$lcc2561649$281                   inventory_scene_init
     000018FB  C$inventory_scene_init.c$45$1_1$   inventory_scene_init
     000018FB  XG$InventoryScene_Init$0$0         inventory_scene_init
     000018FC  A$lcc2561650$57                    inventory_scene_update
     000018FC  C$inventory_scene_update.c$8$0_0   inventory_scene_update
     000018FC  C$inventory_scene_update.c$9$1_0   inventory_scene_update
     000018FC  G$InventoryScene_Update$0$0        inventory_scene_update
     000018FC  _InventoryScene_Update             inventory_scene_update
     000018FF  A$lcc2561650$58                    inventory_scene_update
     00001902  A$lcc2561650$69                    inventory_scene_update
     00001902  C$inventory_scene_update.c$10$1_   inventory_scene_update
     00001902  C$inventory_scene_update.c$11$1_   inventory_scene_update
     00001902  XG$InventoryScene_Update$0$0       inventory_scene_update
     00001905  A$lcc2561651$73                    main_menu
     00001905  C$main_menu.c$10$1_0$31            main_menu
     00001905  C$main_menu.c$9$0_0$31             main_menu
     00001905  G$MainMenu_Create$0$0              main_menu
     00001905  _MainMenu_Create                   main_menu
     00001908  A$lcc2561651$74                    main_menu
     0000190A  A$lcc2561651$75                    main_menu
     0000190B  A$lcc2561651$76                    main_menu
     0000190D  A$lcc2561651$80                    main_menu
     0000190D  C$main_menu.c$11$1_0$31            main_menu
     0000190E  A$lcc2561651$81                    main_menu
     00001910  A$lcc2561651$82                    main_menu
     00001911  A$lcc2561651$83                    main_menu
     00001913  A$lcc2561651$87                    main_menu
     00001913  C$main_menu.c$13$1_0$31            main_menu
     00001916  A$lcc2561651$88                    main_menu
     00001917  A$lcc2561651$89                    main_menu
     00001918  A$lcc2561651$90                    main_menu
     00001919  A$lcc2561651$98                    main_menu
     00001919  C$main_menu.c$14$1_0$31            main_menu
     00001919  XG$MainMenu_Create$0$0             main_menu
     0000191A  A$lcc2561652$57                    main_menu_init
     0000191A  C$main_menu_init.c$10$1_0$165      main_menu_init
     0000191A  C$main_menu_init.c$8$0_0$165       main_menu_init
     0000191A  G$MainMenu_Init$0$0                main_menu_init
     0000191A  _MainMenu_Init                     main_menu_init
     0000191D  A$lcc2561652$58                    main_menu_init
     0000191E  A$lcc2561652$59                    main_menu_init
ASxxxx Linker V03.00/V05.40 + sdld,  page 68.
Hexadecimal  [32-Bits]

Area                                    Addr        Size        Decimal Bytes (Attributes)
--------------------------------        ----        ----        ------- ----- ------------
_CODE                               00000200    0000289F =       10399. bytes (REL,CON)

      Value  Global                              Global Defined In Module
      -----  --------------------------------   ------------------------
     0000191F  A$lcc2561652$60                    main_menu_init
     00001920  A$lcc2561652$61                    main_menu_init
     00001921  A$lcc2561652$65                    main_menu_init
     00001921  C$main_menu_init.c$12$2_0$166      main_menu_init
     00001923  A$lcc2561652$66                    main_menu_init
     00001924  A$lcc2561652$70                    main_menu_init
     00001924  C$main_menu_init.c$13$1_1$166      main_menu_init
     00001926  A$lcc2561652$71                    main_menu_init
     00001928  A$lcc2561652$72                    main_menu_init
     0000192B  A$lcc2561652$73                    main_menu_init
     0000192D  A$lcc2561652$77                    main_menu_init
     0000192D  C$main_menu_init.c$15$1_1$166      main_menu_init
     00001930  A$lcc2561652$78                    main_menu_init
     00001931  A$lcc2561652$79                    main_menu_init
     00001934  A$lcc2561652$80                    main_menu_init
     00001935  A$lcc2561652$81                    main_menu_init
     00001938  A$lcc2561652$82                    main_menu_init
     0000193A  A$lcc2561652$86                    main_menu_init
     0000193A  C$main_menu_init.c$16$1_1$166      main_menu_init
     0000193D  A$lcc2561652$87                    main_menu_init
     0000193E  A$lcc2561652$88                    main_menu_init
     00001941  A$lcc2561652$89                    main_menu_init
     00001942  A$lcc2561652$90                    main_menu_init
     00001943  A$lcc2561652$91                    main_menu_init
     00001944  A$lcc2561652$92                    main_menu_init
     00001945  A$lcc2561652$93                    main_menu_init
     00001948  A$lcc2561652$94                    main_menu_init
     0000194A  A$lcc2561652$98                    main_menu_init
     0000194A  C$main_menu_init.c$18$1_1$166      main_menu_init
     0000194B  A$lcc2561652$99                    main_menu_init
     0000194D  A$lcc2561652$100                   main_menu_init
     00001950  A$lcc2561652$101                   main_menu_init
     00001951  A$lcc2561652$109                   main_menu_init
     00001951  C$main_menu_init.c$19$1_1$165      main_menu_init
     00001951  XG$MainMenu_Init$0$0               main_menu_init
     00001952  A$lcc2561653$59                    main_menu_init_stats
     00001952  C$main_menu_init_stats.c$3$0_0$3   main_menu_init_stats
     00001952  C$main_menu_init_stats.c$5$0_0$3   main_menu_init_stats
     00001952  G$MainMenu_InitRandomStats$0$0     main_menu_init_stats
     00001952  XG$MainMenu_InitRandomStats$0$0    main_menu_init_stats
     00001952  _MainMenu_InitRandomStats          main_menu_init_stats
     00001953  A$lcc2561654$53                    main_menu_input
     00001953  C$main_menu_input.c$12$0_0$171     main_menu_input
     00001953  G$MainMenu_CheckInput$0$0          main_menu_input
     00001953  _MainMenu_CheckInput               main_menu_input
     00001954  A$lcc2561654$57                    main_menu_input
     00001954  C$main_menu_input.c$14$2_0$171     main_menu_input
     00001957  A$lcc2561654$58                    main_menu_input
     00001958  A$lcc2561654$59                    main_menu_input
     0000195A  A$lcc2561654$60                    main_menu_input
     0000195D  A$lcc2561654$61                    main_menu_input
ASxxxx Linker V03.00/V05.40 + sdld,  page 69.
Hexadecimal  [32-Bits]

Area                                    Addr        Size        Decimal Bytes (Attributes)
--------------------------------        ----        ----        ------- ----- ------------
_CODE                               00000200    0000289F =       10399. bytes (REL,CON)

      Value  Global                              Global Defined In Module
      -----  --------------------------------   ------------------------
     0000195E  A$lcc2561654$62                    main_menu_input
     00001960  A$lcc2561654$66                    main_menu_input
     00001960  C$main_menu_input.c$16$3_0$172     main_menu_input
     00001962  A$lcc2561654$67                    main_menu_input
     00001965  A$lcc2561654$68                    main_menu_input
     00001966  A$lcc2561654$69                    main_menu_input
     00001968  A$lcc2561654$73                    main_menu_input
     00001968  C$main_menu_input.c$17$3_0$172     main_menu_input
     0000196A  A$lcc2561654$74                    main_menu_input
     0000196B  A$lcc2561654$75                    main_menu_input
     0000196C  A$lcc2561654$79                    main_menu_input
     0000196C  C$main_menu_input.c$19$5_0$174     main_menu_input
     0000196E  A$lcc2561654$80                    main_menu_input
     00001970  A$lcc2561654$82                    main_menu_input
     00001972  A$lcc2561654$83                    main_menu_input
     00001973  A$lcc2561654$84                    main_menu_input
     00001975  A$lcc2561654$85                    main_menu_input
     00001977  A$lcc2561654$89                    main_menu_input
     00001977  C$main_menu_input.c$21$5_0$174     main_menu_input
     0000197A  A$lcc2561654$90                    main_menu_input
     0000197B  A$lcc2561654$91                    main_menu_input
     0000197D  A$lcc2561654$92                    main_menu_input
     0000197E  A$lcc2561654$93                    main_menu_input
     0000197F  A$lcc2561654$94                    main_menu_input
     00001982  A$lcc2561654$95                    main_menu_input
     00001983  A$lcc2561654$96                    main_menu_input
     00001984  A$lcc2561654$97                    main_menu_input
     00001987  A$lcc2561654$98                    main_menu_input
     00001988  A$lcc2561654$99                    main_menu_input
     00001989  A$lcc2561654$100                   main_menu_input
     0000198C  A$lcc2561654$101                   main_menu_input
     0000198D  A$lcc2561654$102                   main_menu_input
     0000198E  A$lcc2561654$103                   main_menu_input
     0000198F  A$lcc2561654$107                   main_menu_input
     0000198F  C$main_menu_input.c$19$4_0$173     main_menu_input
     00001991  A$lcc2561654$108                   main_menu_input
     00001992  A$lcc2561654$109                   main_menu_input
     00001994  A$lcc2561654$114                   main_menu_input
     00001994  C$main_menu_input.c$24$3_0$172     main_menu_input
     00001997  A$lcc2561654$115                   main_menu_input
     0000199A  A$lcc2561654$116                   main_menu_input
     0000199B  A$lcc2561654$117                   main_menu_input
     0000199C  A$lcc2561654$118                   main_menu_input
     0000199D  A$lcc2561654$119                   main_menu_input
     0000199E  A$lcc2561654$120                   main_menu_input
     0000199F  A$lcc2561654$121                   main_menu_input
     000019A0  A$lcc2561654$122                   main_menu_input
     000019A1  A$lcc2561654$123                   main_menu_input
     000019A4  A$lcc2561654$124                   main_menu_input
     000019A6  A$lcc2561654$125                   main_menu_input
     000019A7  A$lcc2561654$126                   main_menu_input
ASxxxx Linker V03.00/V05.40 + sdld,  page 70.
Hexadecimal  [32-Bits]

Area                                    Addr        Size        Decimal Bytes (Attributes)
--------------------------------        ----        ----        ------- ----- ------------
_CODE                               00000200    0000289F =       10399. bytes (REL,CON)

      Value  Global                              Global Defined In Module
      -----  --------------------------------   ------------------------
     000019A9  A$lcc2561654$127                   main_menu_input
     000019AA  A$lcc2561654$128                   main_menu_input
     000019AB  A$lcc2561654$129                   main_menu_input
     000019AC  A$lcc2561654$130                   main_menu_input
     000019AD  A$lcc2561654$135                   main_menu_input
     000019AE  A$lcc2561654$140                   main_menu_input
     000019AE  C$main_menu_input.c$26$2_0$171     main_menu_input
     000019AE  XG$MainMenu_CheckInput$0$0         main_menu_input
     000019AF  A$lcc2561655$55                    main_menu_update
     000019AF  C$main_menu_update.c$7$0_0$157     main_menu_update
     000019AF  G$MainMenu_Update$0$0              main_menu_update
     000019AF  _MainMenu_Update                   main_menu_update
     000019B1  A$lcc2561655$59                    main_menu_update
     000019B1  C$main_menu_update.c$9$1_0$157     main_menu_update
     000019B4  A$lcc2561655$60                    main_menu_update
     000019B5  A$lcc2561655$61                    main_menu_update
     000019B7  A$lcc2561655$62                    main_menu_update
     000019B8  A$lcc2561655$63                    main_menu_update
     000019B9  A$lcc2561655$68                    main_menu_update
     000019B9  C$main_menu_update.c$10$1_0$157    main_menu_update
     000019BC  A$lcc2561655$72                    main_menu_update
     000019BC  C$main_menu_update.c$12$2_0$158    main_menu_update
     000019BF  A$lcc2561655$73                    main_menu_update
     000019C0  A$lcc2561655$74                    main_menu_update
     000019C2  A$lcc2561655$75                    main_menu_update
     000019C5  A$lcc2561655$76                    main_menu_update
     000019C6  A$lcc2561655$77                    main_menu_update
     000019C7  A$lcc2561655$78                    main_menu_update
     000019C8  A$lcc2561655$79                    main_menu_update
     000019C9  A$lcc2561655$80                    main_menu_update
     000019CC  A$lcc2561655$84                    main_menu_update
     000019CC  C$main_menu_update.c$14$3_0$159    main_menu_update
     000019CD  A$lcc2561655$85                    main_menu_update
     000019CE  A$lcc2561655$86                    main_menu_update
     000019CF  A$lcc2561655$87                    main_menu_update
     000019D0  A$lcc2561655$91                    main_menu_update
     000019D0  C$main_menu_update.c$16$4_0$160    main_menu_update
     000019D3  A$lcc2561655$95                    main_menu_update
     000019D3  C$main_menu_update.c$18$5_0$161    main_menu_update
     000019D4  A$lcc2561655$96                    main_menu_update
     000019D6  A$lcc2561655$97                    main_menu_update
     000019D9  A$lcc2561655$101                   main_menu_update
     000019D9  C$main_menu_update.c$20$6_0$163    main_menu_update
     000019DB  A$lcc2561655$102                   main_menu_update
     000019DD  A$lcc2561655$106                   main_menu_update
     000019DD  C$main_menu_update.c$21$2_0$157    main_menu_update
     000019DF  A$lcc2561655$108                   main_menu_update
     000019E0  A$lcc2561655$109                   main_menu_update
     000019E2  A$lcc2561655$110                   main_menu_update
     000019E4  A$lcc2561655$114                   main_menu_update
     000019E4  C$main_menu_update.c$23$7_1$164    main_menu_update
ASxxxx Linker V03.00/V05.40 + sdld,  page 71.
Hexadecimal  [32-Bits]

Area                                    Addr        Size        Decimal Bytes (Attributes)
--------------------------------        ----        ----        ------- ----- ------------
_CODE                               00000200    0000289F =       10399. bytes (REL,CON)

      Value  Global                              Global Defined In Module
      -----  --------------------------------   ------------------------
     000019E5  A$lcc2561655$115                   main_menu_update
     000019E8  A$lcc2561655$116                   main_menu_update
     000019E9  A$lcc2561655$117                   main_menu_update
     000019EA  A$lcc2561655$118                   main_menu_update
     000019ED  A$lcc2561655$119                   main_menu_update
     000019EE  A$lcc2561655$120                   main_menu_update
     000019F0  A$lcc2561655$121                   main_menu_update
     000019F1  A$lcc2561655$122                   main_menu_update
     000019F2  A$lcc2561655$123                   main_menu_update
     000019F3  A$lcc2561655$124                   main_menu_update
     000019F4  A$lcc2561655$125                   main_menu_update
     000019F7  A$lcc2561655$126                   main_menu_update
     000019F9  A$lcc2561655$130                   main_menu_update
     000019F9  C$main_menu_update.c$21$6_1$163    main_menu_update
     000019FA  A$lcc2561655$131                   main_menu_update
     000019FC  A$lcc2561655$136                   main_menu_update
     000019FC  C$main_menu_update.c$28$5_0$165    main_menu_update
     000019FF  A$lcc2561655$137                   main_menu_update
     00001A01  A$lcc2561655$141                   main_menu_update
     00001A01  C$main_menu_update.c$30$6_0$167    main_menu_update
     00001A03  A$lcc2561655$142                   main_menu_update
     00001A05  A$lcc2561655$143                   main_menu_update
     00001A06  A$lcc2561655$144                   main_menu_update
     00001A08  A$lcc2561655$145                   main_menu_update
     00001A09  A$lcc2561655$146                   main_menu_update
     00001A0B  A$lcc2561655$147                   main_menu_update
     00001A0C  A$lcc2561655$148                   main_menu_update
     00001A0E  A$lcc2561655$149                   main_menu_update
     00001A0F  A$lcc2561655$150                   main_menu_update
     00001A10  A$lcc2561655$151                   main_menu_update
     00001A12  A$lcc2561655$152                   main_menu_update
     00001A13  A$lcc2561655$153                   main_menu_update
     00001A14  A$lcc2561655$154                   main_menu_update
     00001A16  A$lcc2561655$155                   main_menu_update
     00001A17  A$lcc2561655$156                   main_menu_update
     00001A19  A$lcc2561655$157                   main_menu_update
     00001A1A  A$lcc2561655$158                   main_menu_update
     00001A1C  A$lcc2561655$159                   main_menu_update
     00001A1D  A$lcc2561655$160                   main_menu_update
     00001A1F  A$lcc2561655$161                   main_menu_update
     00001A20  A$lcc2561655$162                   main_menu_update
     00001A22  A$lcc2561655$163                   main_menu_update
     00001A23  A$lcc2561655$167                   main_menu_update
     00001A23  C$main_menu_update.c$33$2_0$157    main_menu_update
     00001A26  A$lcc2561655$168                   main_menu_update
     00001A27  A$lcc2561655$170                   main_menu_update
     00001A28  A$lcc2561655$171                   main_menu_update
     00001A2A  A$lcc2561655$172                   main_menu_update
     00001A2C  A$lcc2561655$176                   main_menu_update
     00001A2C  C$main_menu_update.c$35$7_1$168    main_menu_update
     00001A2D  A$lcc2561655$177                   main_menu_update
ASxxxx Linker V03.00/V05.40 + sdld,  page 72.
Hexadecimal  [32-Bits]

Area                                    Addr        Size        Decimal Bytes (Attributes)
--------------------------------        ----        ----        ------- ----- ------------
_CODE                               00000200    0000289F =       10399. bytes (REL,CON)

      Value  Global                              Global Defined In Module
      -----  --------------------------------   ------------------------
     00001A2F  A$lcc2561655$178                   main_menu_update
     00001A32  A$lcc2561655$179                   main_menu_update
     00001A33  A$lcc2561655$180                   main_menu_update
     00001A34  A$lcc2561655$181                   main_menu_update
     00001A35  A$lcc2561655$182                   main_menu_update
     00001A36  A$lcc2561655$183                   main_menu_update
     00001A39  A$lcc2561655$184                   main_menu_update
     00001A3A  A$lcc2561655$185                   main_menu_update
     00001A3B  A$lcc2561655$186                   main_menu_update
     00001A3C  A$lcc2561655$187                   main_menu_update
     00001A3E  A$lcc2561655$191                   main_menu_update
     00001A3E  C$main_menu_update.c$36$7_1$168    main_menu_update
     00001A40  A$lcc2561655$192                   main_menu_update
     00001A41  A$lcc2561655$193                   main_menu_update
     00001A42  A$lcc2561655$194                   main_menu_update
     00001A45  A$lcc2561655$195                   main_menu_update
     00001A46  A$lcc2561655$196                   main_menu_update
     00001A48  A$lcc2561655$197                   main_menu_update
     00001A49  A$lcc2561655$198                   main_menu_update
     00001A4A  A$lcc2561655$199                   main_menu_update
     00001A4B  A$lcc2561655$200                   main_menu_update
     00001A4C  A$lcc2561655$201                   main_menu_update
     00001A4F  A$lcc2561655$202                   main_menu_update
     00001A51  A$lcc2561655$206                   main_menu_update
     00001A51  C$main_menu_update.c$37$7_1$168    main_menu_update
     00001A52  A$lcc2561655$210                   main_menu_update
     00001A52  C$main_menu_update.c$33$6_1$167    main_menu_update
     00001A53  A$lcc2561655$211                   main_menu_update
     00001A55  A$lcc2561655$216                   main_menu_update
     00001A57  A$lcc2561655$221                   main_menu_update
     00001A57  C$main_menu_update.c$41$2_0$157    main_menu_update
     00001A57  XG$MainMenu_Update$0$0             main_menu_update
     00001A58  A$lcc2561656$57                    clean_text
     00001A58  C$clean_text.c$7$0_0$133           clean_text
     00001A58  C$clean_text.c$9$1_0$133           clean_text
     00001A58  G$clean$0$0                        clean_text
     00001A58  _clean                             clean_text
     00001A5B  A$lcc2561656$58                    clean_text
     00001A5D  A$lcc2561656$62                    clean_text
     00001A5D  C$clean_text.c$11$1_0$133          clean_text
     00001A5F  A$lcc2561656$64                    clean_text
     00001A61  A$lcc2561656$65                    clean_text
     00001A62  A$lcc2561656$66                    clean_text
     00001A64  A$lcc2561656$70                    clean_text
     00001A64  C$clean_text.c$13$3_0$135          clean_text
     00001A67  A$lcc2561656$71                    clean_text
     00001A68  A$lcc2561656$72                    clean_text
     00001A69  A$lcc2561656$73                    clean_text
     00001A6A  A$lcc2561656$74                    clean_text
     00001A6D  A$lcc2561656$75                    clean_text
     00001A6E  A$lcc2561656$76                    clean_text
ASxxxx Linker V03.00/V05.40 + sdld,  page 73.
Hexadecimal  [32-Bits]

Area                                    Addr        Size        Decimal Bytes (Attributes)
--------------------------------        ----        ----        ------- ----- ------------
_CODE                               00000200    0000289F =       10399. bytes (REL,CON)

      Value  Global                              Global Defined In Module
      -----  --------------------------------   ------------------------
     00001A70  A$lcc2561656$77                    clean_text
     00001A71  A$lcc2561656$78                    clean_text
     00001A72  A$lcc2561656$79                    clean_text
     00001A73  A$lcc2561656$80                    clean_text
     00001A74  A$lcc2561656$81                    clean_text
     00001A77  A$lcc2561656$82                    clean_text
     00001A79  A$lcc2561656$86                    clean_text
     00001A79  C$clean_text.c$14$3_0$135          clean_text
     00001A7C  A$lcc2561656$87                    clean_text
     00001A7D  A$lcc2561656$88                    clean_text
     00001A7F  A$lcc2561656$89                    clean_text
     00001A80  A$lcc2561656$90                    clean_text
     00001A81  A$lcc2561656$91                    clean_text
     00001A82  A$lcc2561656$92                    clean_text
     00001A83  A$lcc2561656$93                    clean_text
     00001A86  A$lcc2561656$94                    clean_text
     00001A88  A$lcc2561656$98                    clean_text
     00001A88  C$clean_text.c$11$2_0$134          clean_text
     00001A89  A$lcc2561656$99                    clean_text
     00001A8B  A$lcc2561656$104                   clean_text
     00001A8B  C$clean_text.c$17$1_0$133          clean_text
     00001A8D  A$lcc2561656$109                   clean_text
     00001A8D  C$clean_text.c$19$3_0$137          clean_text
     00001A8E  A$lcc2561656$110                   clean_text
     00001A90  A$lcc2561656$111                   clean_text
     00001A92  A$lcc2561656$112                   clean_text
     00001A95  A$lcc2561656$113                   clean_text
     00001A96  A$lcc2561656$114                   clean_text
     00001A98  A$lcc2561656$115                   clean_text
     00001A99  A$lcc2561656$116                   clean_text
     00001A9A  A$lcc2561656$117                   clean_text
     00001A9C  A$lcc2561656$118                   clean_text
     00001A9D  A$lcc2561656$119                   clean_text
     00001A9E  A$lcc2561656$120                   clean_text
     00001AA0  A$lcc2561656$121                   clean_text
     00001AA1  A$lcc2561656$122                   clean_text
     00001AA2  A$lcc2561656$123                   clean_text
     00001AA3  A$lcc2561656$124                   clean_text
     00001AA4  A$lcc2561656$125                   clean_text
     00001AA7  A$lcc2561656$126                   clean_text
     00001AA9  A$lcc2561656$130                   clean_text
     00001AA9  C$clean_text.c$17$2_0$136          clean_text
     00001AAA  A$lcc2561656$131                   clean_text
     00001AAC  A$lcc2561656$136                   clean_text
     00001AAC  C$clean_text.c$22$1_0$133          clean_text
     00001AAF  A$lcc2561656$137                   clean_text
     00001AB0  A$lcc2561656$138                   clean_text
     00001AB3  A$lcc2561656$139                   clean_text
     00001AB4  A$lcc2561656$140                   clean_text
     00001AB7  A$lcc2561656$141                   clean_text
     00001AB8  A$lcc2561656$142                   clean_text
ASxxxx Linker V03.00/V05.40 + sdld,  page 74.
Hexadecimal  [32-Bits]

Area                                    Addr        Size        Decimal Bytes (Attributes)
--------------------------------        ----        ----        ------- ----- ------------
_CODE                               00000200    0000289F =       10399. bytes (REL,CON)

      Value  Global                              Global Defined In Module
      -----  --------------------------------   ------------------------
     00001ABB  A$lcc2561656$143                   clean_text
     00001ABD  A$lcc2561656$147                   clean_text
     00001ABD  C$clean_text.c$23$1_0$133          clean_text
     00001ABE  A$lcc2561656$148                   clean_text
     00001AC1  A$lcc2561656$149                   clean_text
     00001AC2  A$lcc2561656$150                   clean_text
     00001AC5  A$lcc2561656$151                   clean_text
     00001AC6  A$lcc2561656$152                   clean_text
     00001AC9  A$lcc2561656$153                   clean_text
     00001ACB  A$lcc2561656$161                   clean_text
     00001ACB  C$clean_text.c$24$1_0$133          clean_text
     00001ACB  XG$clean$0$0                       clean_text
     00001ACC  G$empty_tile$0_0$0                 clean_text
     00001ACC  _empty_tile                        clean_text
     00001ACD  A$lcc2561657$53                    map_collision
     00001ACD  C$map_collision.c$12$0_0$135       map_collision
     00001ACD  Fmap_collision$get_tile$0$0        map_collision
     00001ACF  A$lcc2561657$54                    map_collision
     00001AD1  A$lcc2561657$55                    map_collision
     00001AD2  A$lcc2561657$56                    map_collision
     00001AD3  A$lcc2561657$57                    map_collision
     00001AD4  A$lcc2561657$61                    map_collision
     00001AD4  C$map_collision.c$14$1_0$135       map_collision
     00001AD7  A$lcc2561657$62                    map_collision
     00001AD8  A$lcc2561657$63                    map_collision
     00001AD9  A$lcc2561657$64                    map_collision
     00001ADA  A$lcc2561657$65                    map_collision
     00001ADB  A$lcc2561657$66                    map_collision
     00001ADD  A$lcc2561657$67                    map_collision
     00001ADE  A$lcc2561657$68                    map_collision
     00001ADF  A$lcc2561657$69                    map_collision
     00001AE0  A$lcc2561657$70                    map_collision
     00001AE1  A$lcc2561657$71                    map_collision
     00001AE3  A$lcc2561657$72                    map_collision
     00001AE4  A$lcc2561657$73                    map_collision
     00001AE5  A$lcc2561657$74                    map_collision
     00001AE6  A$lcc2561657$75                    map_collision
     00001AE7  A$lcc2561657$76                    map_collision
     00001AE8  A$lcc2561657$77                    map_collision
     00001AE9  A$lcc2561657$78                    map_collision
     00001AEA  A$lcc2561657$79                    map_collision
     00001AEB  A$lcc2561657$80                    map_collision
     00001AEC  A$lcc2561657$81                    map_collision
     00001AED  A$lcc2561657$82                    map_collision
     00001AEE  A$lcc2561657$83                    map_collision
     00001AEF  A$lcc2561657$84                    map_collision
     00001AF1  A$lcc2561657$85                    map_collision
     00001AF2  A$lcc2561657$86                    map_collision
     00001AF3  A$lcc2561657$87                    map_collision
     00001AF4  A$lcc2561657$88                    map_collision
     00001AF5  A$lcc2561657$89                    map_collision
ASxxxx Linker V03.00/V05.40 + sdld,  page 75.
Hexadecimal  [32-Bits]

Area                                    Addr        Size        Decimal Bytes (Attributes)
--------------------------------        ----        ----        ------- ----- ------------
_CODE                               00000200    0000289F =       10399. bytes (REL,CON)

      Value  Global                              Global Defined In Module
      -----  --------------------------------   ------------------------
     00001AF6  A$lcc2561657$90                    map_collision
     00001AF7  A$lcc2561657$91                    map_collision
     00001AF8  A$lcc2561657$92                    map_collision
     00001AF9  A$lcc2561657$93                    map_collision
     00001AFA  A$lcc2561657$94                    map_collision
     00001AFB  A$lcc2561657$95                    map_collision
     00001AFC  A$lcc2561657$96                    map_collision
     00001AFD  A$lcc2561657$97                    map_collision
     00001AFE  A$lcc2561657$98                    map_collision
     00001AFF  A$lcc2561657$99                    map_collision
     00001B00  A$lcc2561657$100                   map_collision
     00001B01  A$lcc2561657$101                   map_collision
     00001B02  A$lcc2561657$105                   map_collision
     00001B02  C$map_collision.c$15$1_0$135       map_collision
     00001B04  A$lcc2561657$106                   map_collision
     00001B05  A$lcc2561657$107                   map_collision
     00001B06  A$lcc2561657$108                   map_collision
     00001B07  A$lcc2561657$118                   map_collision
     00001B07  C$map_collision.c$18$1_0$137       map_collision
     00001B07  G$Map_Collision$0$0                map_collision
     00001B07  _Map_Collision                     map_collision
     00001B09  A$lcc2561657$122                   map_collision
     00001B09  C$map_collision.c$20$1_0$137       map_collision
     00001B0C  A$lcc2561657$123                   map_collision
     00001B0D  A$lcc2561657$124                   map_collision
     00001B0E  A$lcc2561657$125                   map_collision
     00001B0F  A$lcc2561657$126                   map_collision
     00001B11  A$lcc2561657$127                   map_collision
     00001B12  A$lcc2561657$128                   map_collision
     00001B13  A$lcc2561657$132                   map_collision
     00001B13  C$map_collision.c$21$1_0$137       map_collision
     00001B14  A$lcc2561657$133                   map_collision
     00001B15  A$lcc2561657$134                   map_collision
     00001B16  A$lcc2561657$135                   map_collision
     00001B17  A$lcc2561657$136                   map_collision
     00001B18  A$lcc2561657$137                   map_collision
     00001B19  A$lcc2561657$141                   map_collision
     00001B19  C$map_collision.c$29$1_0$137       map_collision
     00001B1C  A$lcc2561657$142                   map_collision
     00001B1E  A$lcc2561657$143                   map_collision
     00001B1F  A$lcc2561657$144                   map_collision
     00001B20  A$lcc2561657$145                   map_collision
     00001B22  A$lcc2561657$146                   map_collision
     00001B23  A$lcc2561657$147                   map_collision
     00001B25  A$lcc2561657$148                   map_collision
     00001B27  A$lcc2561657$149                   map_collision
     00001B28  A$lcc2561657$153                   map_collision
     00001B28  C$map_collision.c$30$1_0$137       map_collision
     00001B2B  A$lcc2561657$154                   map_collision
     00001B2D  A$lcc2561657$155                   map_collision
     00001B2E  A$lcc2561657$156                   map_collision
ASxxxx Linker V03.00/V05.40 + sdld,  page 76.
Hexadecimal  [32-Bits]

Area                                    Addr        Size        Decimal Bytes (Attributes)
--------------------------------        ----        ----        ------- ----- ------------
_CODE                               00000200    0000289F =       10399. bytes (REL,CON)

      Value  Global                              Global Defined In Module
      -----  --------------------------------   ------------------------
     00001B2F  A$lcc2561657$157                   map_collision
     00001B31  A$lcc2561657$158                   map_collision
     00001B32  A$lcc2561657$159                   map_collision
     00001B34  A$lcc2561657$160                   map_collision
     00001B35  A$lcc2561657$164                   map_collision
     00001B35  C$map_collision.c$35$1_0$137       map_collision
     00001B36  A$lcc2561657$165                   map_collision
     00001B37  A$lcc2561657$166                   map_collision
     00001B3A  A$lcc2561657$167                   map_collision
     00001B3B  A$lcc2561657$168                   map_collision
     00001B3C  A$lcc2561657$169                   map_collision
     00001B3D  A$lcc2561657$170                   map_collision
     00001B3F  A$lcc2561657$171                   map_collision
     00001B40  A$lcc2561657$172                   map_collision
     00001B41  A$lcc2561657$173                   map_collision
     00001B42  A$lcc2561657$174                   map_collision
     00001B44  A$lcc2561657$175                   map_collision
     00001B45  A$lcc2561657$176                   map_collision
     00001B46  A$lcc2561657$177                   map_collision
     00001B47  A$lcc2561657$178                   map_collision
     00001B48  A$lcc2561657$179                   map_collision
     00001B49  A$lcc2561657$180                   map_collision
     00001B4B  A$lcc2561657$181                   map_collision
     00001B4C  A$lcc2561657$182                   map_collision
     00001B4D  A$lcc2561657$183                   map_collision
     00001B4E  A$lcc2561657$184                   map_collision
     00001B4F  A$lcc2561657$185                   map_collision
     00001B51  A$lcc2561657$186                   map_collision
     00001B52  A$lcc2561657$187                   map_collision
     00001B53  A$lcc2561657$188                   map_collision
     00001B54  A$lcc2561657$189                   map_collision
     00001B55  A$lcc2561657$190                   map_collision
     00001B56  A$lcc2561657$191                   map_collision
     00001B57  A$lcc2561657$192                   map_collision
     00001B58  A$lcc2561657$193                   map_collision
     00001B59  A$lcc2561657$194                   map_collision
     00001B5A  A$lcc2561657$195                   map_collision
     00001B5C  A$lcc2561657$196                   map_collision
     00001B5D  A$lcc2561657$197                   map_collision
     00001B5E  A$lcc2561657$198                   map_collision
     00001B5F  A$lcc2561657$199                   map_collision
     00001B61  A$lcc2561657$200                   map_collision
     00001B62  A$lcc2561657$201                   map_collision
     00001B63  A$lcc2561657$202                   map_collision
     00001B64  A$lcc2561657$203                   map_collision
     00001B65  A$lcc2561657$204                   map_collision
     00001B67  A$lcc2561657$205                   map_collision
     00001B68  A$lcc2561657$206                   map_collision
     00001B69  A$lcc2561657$207                   map_collision
     00001B6A  A$lcc2561657$208                   map_collision
     00001B6B  A$lcc2561657$209                   map_collision
ASxxxx Linker V03.00/V05.40 + sdld,  page 77.
Hexadecimal  [32-Bits]

Area                                    Addr        Size        Decimal Bytes (Attributes)
--------------------------------        ----        ----        ------- ----- ------------
_CODE                               00000200    0000289F =       10399. bytes (REL,CON)

      Value  Global                              Global Defined In Module
      -----  --------------------------------   ------------------------
     00001B6C  A$lcc2561657$210                   map_collision
     00001B6D  A$lcc2561657$211                   map_collision
     00001B6F  A$lcc2561657$212                   map_collision
     00001B70  A$lcc2561657$213                   map_collision
     00001B71  A$lcc2561657$214                   map_collision
     00001B72  A$lcc2561657$215                   map_collision
     00001B74  A$lcc2561657$216                   map_collision
     00001B75  A$lcc2561657$217                   map_collision
     00001B76  A$lcc2561657$218                   map_collision
     00001B77  A$lcc2561657$219                   map_collision
     00001B79  A$lcc2561657$220                   map_collision
     00001B7B  A$lcc2561657$221                   map_collision
     00001B7C  A$lcc2561657$223                   map_collision
     00001B7E  A$lcc2561657$224                   map_collision
     00001B81  A$lcc2561657$228                   map_collision
     00001B81  C$map_collision.c$36$1_0$137       map_collision
     00001B83  A$lcc2561657$229                   map_collision
     00001B84  A$lcc2561657$230                   map_collision
     00001B85  A$lcc2561657$231                   map_collision
     00001B86  A$lcc2561657$232                   map_collision
     00001B87  A$lcc2561657$233                   map_collision
     00001B89  A$lcc2561657$234                   map_collision
     00001B8A  A$lcc2561657$235                   map_collision
     00001B8B  A$lcc2561657$236                   map_collision
     00001B8C  A$lcc2561657$237                   map_collision
     00001B8D  A$lcc2561657$238                   map_collision
     00001B8E  A$lcc2561657$239                   map_collision
     00001B8F  A$lcc2561657$240                   map_collision
     00001B90  A$lcc2561657$241                   map_collision
     00001B92  A$lcc2561657$242                   map_collision
     00001B93  A$lcc2561657$243                   map_collision
     00001B94  A$lcc2561657$244                   map_collision
     00001B95  A$lcc2561657$245                   map_collision
     00001B96  A$lcc2561657$246                   map_collision
     00001B97  A$lcc2561657$247                   map_collision
     00001B98  A$lcc2561657$248                   map_collision
     00001B99  A$lcc2561657$249                   map_collision
     00001B9A  A$lcc2561657$250                   map_collision
     00001B9C  A$lcc2561657$251                   map_collision
     00001B9D  A$lcc2561657$252                   map_collision
     00001B9E  A$lcc2561657$253                   map_collision
     00001B9F  A$lcc2561657$254                   map_collision
     00001BA1  A$lcc2561657$255                   map_collision
     00001BA3  A$lcc2561657$256                   map_collision
     00001BA4  A$lcc2561657$258                   map_collision
     00001BA6  A$lcc2561657$259                   map_collision
     00001BA9  A$lcc2561657$263                   map_collision
     00001BA9  C$map_collision.c$37$1_0$137       map_collision
     00001BAB  A$lcc2561657$264                   map_collision
     00001BAC  A$lcc2561657$265                   map_collision
     00001BAD  A$lcc2561657$266                   map_collision
ASxxxx Linker V03.00/V05.40 + sdld,  page 78.
Hexadecimal  [32-Bits]

Area                                    Addr        Size        Decimal Bytes (Attributes)
--------------------------------        ----        ----        ------- ----- ------------
_CODE                               00000200    0000289F =       10399. bytes (REL,CON)

      Value  Global                              Global Defined In Module
      -----  --------------------------------   ------------------------
     00001BAE  A$lcc2561657$267                   map_collision
     00001BAF  A$lcc2561657$268                   map_collision
     00001BB1  A$lcc2561657$269                   map_collision
     00001BB2  A$lcc2561657$270                   map_collision
     00001BB3  A$lcc2561657$271                   map_collision
     00001BB4  A$lcc2561657$272                   map_collision
     00001BB5  A$lcc2561657$273                   map_collision
     00001BB6  A$lcc2561657$274                   map_collision
     00001BB7  A$lcc2561657$275                   map_collision
     00001BB8  A$lcc2561657$276                   map_collision
     00001BB9  A$lcc2561657$277                   map_collision
     00001BBA  A$lcc2561657$278                   map_collision
     00001BBB  A$lcc2561657$279                   map_collision
     00001BBC  A$lcc2561657$280                   map_collision
     00001BBD  A$lcc2561657$281                   map_collision
     00001BBE  A$lcc2561657$282                   map_collision
     00001BBF  A$lcc2561657$283                   map_collision
     00001BC0  A$lcc2561657$284                   map_collision
     00001BC1  A$lcc2561657$285                   map_collision
     00001BC2  A$lcc2561657$286                   map_collision
     00001BC3  A$lcc2561657$287                   map_collision
     00001BC4  A$lcc2561657$288                   map_collision
     00001BC5  A$lcc2561657$289                   map_collision
     00001BC6  A$lcc2561657$290                   map_collision
     00001BC8  A$lcc2561657$291                   map_collision
     00001BC9  A$lcc2561657$292                   map_collision
     00001BCA  A$lcc2561657$293                   map_collision
     00001BCB  A$lcc2561657$294                   map_collision
     00001BCC  A$lcc2561657$295                   map_collision
     00001BCD  A$lcc2561657$296                   map_collision
     00001BCE  A$lcc2561657$297                   map_collision
     00001BD0  A$lcc2561657$298                   map_collision
     00001BD1  A$lcc2561657$299                   map_collision
     00001BD3  A$lcc2561657$300                   map_collision
     00001BD4  A$lcc2561657$301                   map_collision
     00001BD5  A$lcc2561657$302                   map_collision
     00001BD6  A$lcc2561657$303                   map_collision
     00001BD7  A$lcc2561657$304                   map_collision
     00001BD8  A$lcc2561657$305                   map_collision
     00001BDA  A$lcc2561657$306                   map_collision
     00001BDC  A$lcc2561657$307                   map_collision
     00001BDD  A$lcc2561657$309                   map_collision
     00001BDF  A$lcc2561657$310                   map_collision
     00001BE2  A$lcc2561657$314                   map_collision
     00001BE2  C$map_collision.c$38$1_0$137       map_collision
     00001BE4  A$lcc2561657$315                   map_collision
     00001BE5  A$lcc2561657$316                   map_collision
     00001BE6  A$lcc2561657$317                   map_collision
     00001BE7  A$lcc2561657$318                   map_collision
     00001BE8  A$lcc2561657$319                   map_collision
     00001BE9  A$lcc2561657$320                   map_collision
ASxxxx Linker V03.00/V05.40 + sdld,  page 79.
Hexadecimal  [32-Bits]

Area                                    Addr        Size        Decimal Bytes (Attributes)
--------------------------------        ----        ----        ------- ----- ------------
_CODE                               00000200    0000289F =       10399. bytes (REL,CON)

      Value  Global                              Global Defined In Module
      -----  --------------------------------   ------------------------
     00001BEA  A$lcc2561657$321                   map_collision
     00001BEB  A$lcc2561657$322                   map_collision
     00001BEC  A$lcc2561657$323                   map_collision
     00001BEE  A$lcc2561657$324                   map_collision
     00001BEF  A$lcc2561657$325                   map_collision
     00001BF1  A$lcc2561657$326                   map_collision
     00001BF2  A$lcc2561657$327                   map_collision
     00001BF3  A$lcc2561657$328                   map_collision
     00001BF4  A$lcc2561657$329                   map_collision
     00001BF5  A$lcc2561657$330                   map_collision
     00001BF6  A$lcc2561657$331                   map_collision
     00001BF7  A$lcc2561657$332                   map_collision
     00001BF8  A$lcc2561657$333                   map_collision
     00001BF9  A$lcc2561657$334                   map_collision
     00001BFA  A$lcc2561657$335                   map_collision
     00001BFB  A$lcc2561657$336                   map_collision
     00001BFC  A$lcc2561657$337                   map_collision
     00001BFD  A$lcc2561657$338                   map_collision
     00001BFF  A$lcc2561657$339                   map_collision
     00001C00  A$lcc2561657$340                   map_collision
     00001C02  A$lcc2561657$341                   map_collision
     00001C03  A$lcc2561657$342                   map_collision
     00001C04  A$lcc2561657$343                   map_collision
     00001C05  A$lcc2561657$344                   map_collision
     00001C06  A$lcc2561657$345                   map_collision
     00001C07  A$lcc2561657$346                   map_collision
     00001C09  A$lcc2561657$347                   map_collision
     00001C0B  A$lcc2561657$348                   map_collision
     00001C0C  A$lcc2561657$350                   map_collision
     00001C0E  A$lcc2561657$351                   map_collision
     00001C11  A$lcc2561657$355                   map_collision
     00001C11  C$map_collision.c$44$2_0$138       map_collision
     00001C13  A$lcc2561657$356                   map_collision
     00001C14  A$lcc2561657$357                   map_collision
     00001C15  A$lcc2561657$358                   map_collision
     00001C16  A$lcc2561657$359                   map_collision
     00001C17  A$lcc2561657$360                   map_collision
     00001C18  A$lcc2561657$361                   map_collision
     00001C19  A$lcc2561657$362                   map_collision
     00001C1A  A$lcc2561657$363                   map_collision
     00001C1B  A$lcc2561657$364                   map_collision
     00001C1C  A$lcc2561657$365                   map_collision
     00001C1D  A$lcc2561657$366                   map_collision
     00001C1E  A$lcc2561657$367                   map_collision
     00001C1F  A$lcc2561657$368                   map_collision
     00001C20  A$lcc2561657$369                   map_collision
     00001C21  A$lcc2561657$370                   map_collision
     00001C22  A$lcc2561657$371                   map_collision
     00001C24  A$lcc2561657$372                   map_collision
     00001C25  A$lcc2561657$373                   map_collision
     00001C27  A$lcc2561657$374                   map_collision
ASxxxx Linker V03.00/V05.40 + sdld,  page 80.
Hexadecimal  [32-Bits]

Area                                    Addr        Size        Decimal Bytes (Attributes)
--------------------------------        ----        ----        ------- ----- ------------
_CODE                               00000200    0000289F =       10399. bytes (REL,CON)

      Value  Global                              Global Defined In Module
      -----  --------------------------------   ------------------------
     00001C28  A$lcc2561657$375                   map_collision
     00001C29  A$lcc2561657$376                   map_collision
     00001C2A  A$lcc2561657$377                   map_collision
     00001C2B  A$lcc2561657$378                   map_collision
     00001C2C  A$lcc2561657$379                   map_collision
     00001C2E  A$lcc2561657$380                   map_collision
     00001C30  A$lcc2561657$381                   map_collision
     00001C31  A$lcc2561657$383                   map_collision
     00001C32  A$lcc2561657$384                   map_collision
     00001C35  A$lcc2561657$385                   map_collision
     00001C36  A$lcc2561657$386                   map_collision
     00001C38  A$lcc2561657$387                   map_collision
     00001C3A  A$lcc2561657$388                   map_collision
     00001C3B  A$lcc2561657$390                   map_collision
     00001C3C  A$lcc2561657$391                   map_collision
     00001C3E  A$lcc2561657$395                   map_collision
     00001C3E  C$map_collision.c$46$3_0$139       map_collision
     00001C41  A$lcc2561657$400                   map_collision
     00001C41  C$map_collision.c$49$2_0$140       map_collision
     00001C43  A$lcc2561657$401                   map_collision
     00001C44  A$lcc2561657$402                   map_collision
     00001C45  A$lcc2561657$403                   map_collision
     00001C46  A$lcc2561657$404                   map_collision
     00001C47  A$lcc2561657$405                   map_collision
     00001C48  A$lcc2561657$406                   map_collision
     00001C49  A$lcc2561657$407                   map_collision
     00001C4A  A$lcc2561657$408                   map_collision
     00001C4B  A$lcc2561657$409                   map_collision
     00001C4C  A$lcc2561657$410                   map_collision
     00001C4D  A$lcc2561657$411                   map_collision
     00001C4E  A$lcc2561657$412                   map_collision
     00001C4F  A$lcc2561657$413                   map_collision
     00001C50  A$lcc2561657$414                   map_collision
     00001C51  A$lcc2561657$415                   map_collision
     00001C52  A$lcc2561657$416                   map_collision
     00001C54  A$lcc2561657$417                   map_collision
     00001C55  A$lcc2561657$418                   map_collision
     00001C57  A$lcc2561657$419                   map_collision
     00001C58  A$lcc2561657$420                   map_collision
     00001C59  A$lcc2561657$421                   map_collision
     00001C5A  A$lcc2561657$422                   map_collision
     00001C5B  A$lcc2561657$423                   map_collision
     00001C5C  A$lcc2561657$424                   map_collision
     00001C5E  A$lcc2561657$431                   map_collision
     00001C5E  C$map_collision.c$51$3_0$141       map_collision
     00001C5E  C$map_collision.c$52$3_0$141       map_collision
     00001C5F  A$lcc2561657$432                   map_collision
     00001C60  A$lcc2561657$433                   map_collision
     00001C61  A$lcc2561657$437                   map_collision
     00001C61  C$map_collision.c$54$4_0$142       map_collision
     00001C62  A$lcc2561657$438                   map_collision
ASxxxx Linker V03.00/V05.40 + sdld,  page 81.
Hexadecimal  [32-Bits]

Area                                    Addr        Size        Decimal Bytes (Attributes)
--------------------------------        ----        ----        ------- ----- ------------
_CODE                               00000200    0000289F =       10399. bytes (REL,CON)

      Value  Global                              Global Defined In Module
      -----  --------------------------------   ------------------------
     00001C63  A$lcc2561657$439                   map_collision
     00001C66  A$lcc2561657$440                   map_collision
     00001C67  A$lcc2561657$441                   map_collision
     00001C68  A$lcc2561657$442                   map_collision
     00001C69  A$lcc2561657$443                   map_collision
     00001C6A  A$lcc2561657$444                   map_collision
     00001C6B  A$lcc2561657$445                   map_collision
     00001C6C  A$lcc2561657$446                   map_collision
     00001C6D  A$lcc2561657$447                   map_collision
     00001C6F  A$lcc2561657$448                   map_collision
     00001C71  A$lcc2561657$452                   map_collision
     00001C71  C$map_collision.c$55$4_0$142       map_collision
     00001C73  A$lcc2561657$456                   map_collision
     00001C73  C$map_collision.c$57$4_0$143       map_collision
     00001C74  A$lcc2561657$457                   map_collision
     00001C75  A$lcc2561657$458                   map_collision
     00001C78  A$lcc2561657$459                   map_collision
     00001C79  A$lcc2561657$460                   map_collision
     00001C7A  A$lcc2561657$461                   map_collision
     00001C7B  A$lcc2561657$462                   map_collision
     00001C7C  A$lcc2561657$463                   map_collision
     00001C7D  A$lcc2561657$464                   map_collision
     00001C7E  A$lcc2561657$465                   map_collision
     00001C80  A$lcc2561657$466                   map_collision
     00001C81  A$lcc2561657$467                   map_collision
     00001C82  A$lcc2561657$468                   map_collision
     00001C83  A$lcc2561657$469                   map_collision
     00001C84  A$lcc2561657$470                   map_collision
     00001C85  A$lcc2561657$471                   map_collision
     00001C86  A$lcc2561657$475                   map_collision
     00001C86  C$map_collision.c$58$4_0$143       map_collision
     00001C88  A$lcc2561657$479                   map_collision
     00001C88  C$map_collision.c$60$3_0$141       map_collision
     00001C89  A$lcc2561657$480                   map_collision
     00001C8A  A$lcc2561657$481                   map_collision
     00001C8D  A$lcc2561657$486                   map_collision
     00001C8F  A$lcc2561657$491                   map_collision
     00001C8F  C$map_collision.c$62$2_0$137       map_collision
     00001C8F  XG$Map_Collision$0$0               map_collision
     00001C90  A$lcc2561659$57                    map_player_movement
     00001C90  C$map_player_movement.c$10$0_0$1   map_player_movement
     00001C90  G$Map_PlayerMovement$0$0           map_player_movement
     00001C90  _Map_PlayerMovement                map_player_movement
     00001C91  A$lcc2561659$61                    map_player_movement
     00001C91  C$map_player_movement.c$12$2_0$1   map_player_movement
     00001C94  A$lcc2561659$62                    map_player_movement
     00001C96  A$lcc2561659$63                    map_player_movement
     00001C98  A$lcc2561659$64                    map_player_movement
     00001C9B  A$lcc2561659$65                    map_player_movement
     00001C9D  A$lcc2561659$66                    map_player_movement
     00001C9F  A$lcc2561659$70                    map_player_movement
ASxxxx Linker V03.00/V05.40 + sdld,  page 82.
Hexadecimal  [32-Bits]

Area                                    Addr        Size        Decimal Bytes (Attributes)
--------------------------------        ----        ----        ------- ----- ------------
_CODE                               00000200    0000289F =       10399. bytes (REL,CON)

      Value  Global                              Global Defined In Module
      -----  --------------------------------   ------------------------
     00001C9F  C$map_player_movement.c$14$3_0$1   map_player_movement
     00001CA2  A$lcc2561659$71                    map_player_movement
     00001CA5  A$lcc2561659$72                    map_player_movement
     00001CA6  A$lcc2561659$73                    map_player_movement
     00001CA7  A$lcc2561659$74                    map_player_movement
     00001CA8  A$lcc2561659$75                    map_player_movement
     00001CA9  A$lcc2561659$76                    map_player_movement
     00001CAA  A$lcc2561659$77                    map_player_movement
     00001CAB  A$lcc2561659$78                    map_player_movement
     00001CAC  A$lcc2561659$79                    map_player_movement
     00001CAF  A$lcc2561659$80                    map_player_movement
     00001CB1  A$lcc2561659$81                    map_player_movement
     00001CB2  A$lcc2561659$82                    map_player_movement
     00001CB4  A$lcc2561659$83                    map_player_movement
     00001CB5  A$lcc2561659$84                    map_player_movement
     00001CB6  A$lcc2561659$85                    map_player_movement
     00001CB9  A$lcc2561659$90                    map_player_movement
     00001CB9  C$map_player_movement.c$18$2_0$1   map_player_movement
     00001CBC  A$lcc2561659$91                    map_player_movement
     00001CBD  A$lcc2561659$92                    map_player_movement
     00001CBF  A$lcc2561659$96                    map_player_movement
     00001CC2  A$lcc2561659$100                   map_player_movement
     00001CC2  C$map_player_movement.c$20$4_0$1   map_player_movement
     00001CC4  A$lcc2561659$101                   map_player_movement
     00001CC6  A$lcc2561659$105                   map_player_movement
     00001CC6  C$map_player_movement.c$21$4_0$1   map_player_movement
     00001CC9  A$lcc2561659$106                   map_player_movement
     00001CCB  A$lcc2561659$107                   map_player_movement
     00001CCD  A$lcc2561659$112                   map_player_movement
     00001CCD  C$map_player_movement.c$22$5_0$1   map_player_movement
     00001CCF  A$lcc2561659$113                   map_player_movement
     00001CD1  A$lcc2561659$117                   map_player_movement
     00001CD1  C$map_player_movement.c$23$5_0$1   map_player_movement
     00001CD4  A$lcc2561659$118                   map_player_movement
     00001CD6  A$lcc2561659$119                   map_player_movement
     00001CD8  A$lcc2561659$124                   map_player_movement
     00001CD8  C$map_player_movement.c$24$6_0$1   map_player_movement
     00001CDA  A$lcc2561659$125                   map_player_movement
     00001CDC  A$lcc2561659$129                   map_player_movement
     00001CDC  C$map_player_movement.c$25$6_0$1   map_player_movement
     00001CDF  A$lcc2561659$130                   map_player_movement
     00001CE1  A$lcc2561659$131                   map_player_movement
     00001CE3  A$lcc2561659$136                   map_player_movement
     00001CE3  C$map_player_movement.c$26$7_0$1   map_player_movement
     00001CE4  A$lcc2561659$137                   map_player_movement
     00001CE6  A$lcc2561659$141                   map_player_movement
     00001CE6  C$map_player_movement.c$27$7_0$1   map_player_movement
     00001CE9  A$lcc2561659$142                   map_player_movement
     00001CEB  A$lcc2561659$147                   map_player_movement
     00001CEB  C$map_player_movement.c$31$2_0$1   map_player_movement
     00001CEE  A$lcc2561659$148                   map_player_movement
ASxxxx Linker V03.00/V05.40 + sdld,  page 83.
Hexadecimal  [32-Bits]

Area                                    Addr        Size        Decimal Bytes (Attributes)
--------------------------------        ----        ----        ------- ----- ------------
_CODE                               00000200    0000289F =       10399. bytes (REL,CON)

      Value  Global                              Global Defined In Module
      -----  --------------------------------   ------------------------
     00001CEF  A$lcc2561659$149                   map_player_movement
     00001CF1  A$lcc2561659$150                   map_player_movement
     00001CF4  A$lcc2561659$151                   map_player_movement
     00001CF6  A$lcc2561659$152                   map_player_movement
     00001CF8  A$lcc2561659$153                   map_player_movement
     00001CFA  A$lcc2561659$154                   map_player_movement
     00001CFC  A$lcc2561659$155                   map_player_movement
     00001CFE  A$lcc2561659$156                   map_player_movement
     00001D00  A$lcc2561659$157                   map_player_movement
     00001D02  A$lcc2561659$165                   map_player_movement
     00001D02  C$map_player_movement.c$33$3_0$1   map_player_movement
     00001D02  C$map_player_movement.c$34$3_0$1   map_player_movement
     00001D05  A$lcc2561659$166                   map_player_movement
     00001D08  A$lcc2561659$170                   map_player_movement
     00001D08  C$map_player_movement.c$35$3_0$1   map_player_movement
     00001D0B  A$lcc2561659$171                   map_player_movement
     00001D0D  A$lcc2561659$172                   map_player_movement
     00001D0E  A$lcc2561659$173                   map_player_movement
     00001D11  A$lcc2561659$174                   map_player_movement
     00001D12  A$lcc2561659$175                   map_player_movement
     00001D14  A$lcc2561659$176                   map_player_movement
     00001D15  A$lcc2561659$177                   map_player_movement
     00001D16  A$lcc2561659$178                   map_player_movement
     00001D17  A$lcc2561659$179                   map_player_movement
     00001D18  A$lcc2561659$180                   map_player_movement
     00001D19  A$lcc2561659$181                   map_player_movement
     00001D1A  A$lcc2561659$182                   map_player_movement
     00001D1B  A$lcc2561659$183                   map_player_movement
     00001D1C  A$lcc2561659$184                   map_player_movement
     00001D1D  A$lcc2561659$185                   map_player_movement
     00001D20  A$lcc2561659$186                   map_player_movement
     00001D21  A$lcc2561659$187                   map_player_movement
     00001D22  A$lcc2561659$188                   map_player_movement
     00001D23  A$lcc2561659$189                   map_player_movement
     00001D25  A$lcc2561659$190                   map_player_movement
     00001D26  A$lcc2561659$191                   map_player_movement
     00001D29  A$lcc2561659$195                   map_player_movement
     00001D29  C$map_player_movement.c$36$3_0$1   map_player_movement
     00001D2B  A$lcc2561659$203                   map_player_movement
     00001D2B  C$map_player_movement.c$37$3_0$1   map_player_movement
     00001D2B  C$map_player_movement.c$38$3_0$1   map_player_movement
     00001D2E  A$lcc2561659$204                   map_player_movement
     00001D31  A$lcc2561659$208                   map_player_movement
     00001D31  C$map_player_movement.c$39$3_0$1   map_player_movement
     00001D34  A$lcc2561659$209                   map_player_movement
     00001D36  A$lcc2561659$210                   map_player_movement
     00001D37  A$lcc2561659$211                   map_player_movement
     00001D3A  A$lcc2561659$212                   map_player_movement
     00001D3B  A$lcc2561659$213                   map_player_movement
     00001D3D  A$lcc2561659$214                   map_player_movement
     00001D3E  A$lcc2561659$215                   map_player_movement
ASxxxx Linker V03.00/V05.40 + sdld,  page 84.
Hexadecimal  [32-Bits]

Area                                    Addr        Size        Decimal Bytes (Attributes)
--------------------------------        ----        ----        ------- ----- ------------
_CODE                               00000200    0000289F =       10399. bytes (REL,CON)

      Value  Global                              Global Defined In Module
      -----  --------------------------------   ------------------------
     00001D3F  A$lcc2561659$216                   map_player_movement
     00001D40  A$lcc2561659$217                   map_player_movement
     00001D41  A$lcc2561659$218                   map_player_movement
     00001D42  A$lcc2561659$219                   map_player_movement
     00001D43  A$lcc2561659$220                   map_player_movement
     00001D44  A$lcc2561659$221                   map_player_movement
     00001D45  A$lcc2561659$222                   map_player_movement
     00001D46  A$lcc2561659$223                   map_player_movement
     00001D49  A$lcc2561659$224                   map_player_movement
     00001D4A  A$lcc2561659$225                   map_player_movement
     00001D4B  A$lcc2561659$226                   map_player_movement
     00001D4C  A$lcc2561659$227                   map_player_movement
     00001D4E  A$lcc2561659$228                   map_player_movement
     00001D4F  A$lcc2561659$229                   map_player_movement
     00001D52  A$lcc2561659$233                   map_player_movement
     00001D52  C$map_player_movement.c$40$3_0$1   map_player_movement
     00001D54  A$lcc2561659$241                   map_player_movement
     00001D54  C$map_player_movement.c$41$3_0$1   map_player_movement
     00001D54  C$map_player_movement.c$42$3_0$1   map_player_movement
     00001D57  A$lcc2561659$242                   map_player_movement
     00001D5A  A$lcc2561659$246                   map_player_movement
     00001D5A  C$map_player_movement.c$43$3_0$1   map_player_movement
     00001D5C  A$lcc2561659$254                   map_player_movement
     00001D5C  C$map_player_movement.c$44$3_0$1   map_player_movement
     00001D5C  C$map_player_movement.c$45$3_0$1   map_player_movement
     00001D5F  A$lcc2561659$255                   map_player_movement
     00001D62  A$lcc2561659$263                   map_player_movement
     00001D62  C$map_player_movement.c$49$2_0$1   map_player_movement
     00001D62  C$map_player_movement.c$52$2_0$1   map_player_movement
     00001D65  A$lcc2561659$264                   map_player_movement
     00001D66  A$lcc2561659$265                   map_player_movement
     00001D68  A$lcc2561659$266                   map_player_movement
     00001D6B  A$lcc2561659$267                   map_player_movement
     00001D6D  A$lcc2561659$268                   map_player_movement
     00001D6F  A$lcc2561659$272                   map_player_movement
     00001D6F  C$map_player_movement.c$54$3_0$1   map_player_movement
     00001D70  A$lcc2561659$273                   map_player_movement
     00001D73  A$lcc2561659$277                   map_player_movement
     00001D73  C$map_player_movement.c$55$3_0$1   map_player_movement
     00001D76  A$lcc2561659$278                   map_player_movement
     00001D78  A$lcc2561659$279                   map_player_movement
     00001D79  A$lcc2561659$280                   map_player_movement
     00001D7C  A$lcc2561659$281                   map_player_movement
     00001D7D  A$lcc2561659$282                   map_player_movement
     00001D7F  A$lcc2561659$283                   map_player_movement
     00001D80  A$lcc2561659$284                   map_player_movement
     00001D81  A$lcc2561659$285                   map_player_movement
     00001D82  A$lcc2561659$286                   map_player_movement
     00001D83  A$lcc2561659$287                   map_player_movement
     00001D84  A$lcc2561659$288                   map_player_movement
     00001D85  A$lcc2561659$289                   map_player_movement
ASxxxx Linker V03.00/V05.40 + sdld,  page 85.
Hexadecimal  [32-Bits]

Area                                    Addr        Size        Decimal Bytes (Attributes)
--------------------------------        ----        ----        ------- ----- ------------
_CODE                               00000200    0000289F =       10399. bytes (REL,CON)

      Value  Global                              Global Defined In Module
      -----  --------------------------------   ------------------------
     00001D86  A$lcc2561659$290                   map_player_movement
     00001D87  A$lcc2561659$291                   map_player_movement
     00001D88  A$lcc2561659$292                   map_player_movement
     00001D8B  A$lcc2561659$293                   map_player_movement
     00001D8C  A$lcc2561659$294                   map_player_movement
     00001D8D  A$lcc2561659$295                   map_player_movement
     00001D8E  A$lcc2561659$296                   map_player_movement
     00001D90  A$lcc2561659$297                   map_player_movement
     00001D91  A$lcc2561659$298                   map_player_movement
     00001D94  A$lcc2561659$303                   map_player_movement
     00001D94  C$map_player_movement.c$58$2_0$1   map_player_movement
     00001D97  A$lcc2561659$304                   map_player_movement
     00001D99  A$lcc2561659$305                   map_player_movement
     00001D9B  A$lcc2561659$306                   map_player_movement
     00001D9E  A$lcc2561659$307                   map_player_movement
     00001DA0  A$lcc2561659$308                   map_player_movement
     00001DA2  A$lcc2561659$312                   map_player_movement
     00001DA2  C$map_player_movement.c$60$3_0$1   map_player_movement
     00001DA3  A$lcc2561659$313                   map_player_movement
     00001DA6  A$lcc2561659$317                   map_player_movement
     00001DA6  C$map_player_movement.c$61$3_0$1   map_player_movement
     00001DA9  A$lcc2561659$318                   map_player_movement
     00001DAB  A$lcc2561659$319                   map_player_movement
     00001DAC  A$lcc2561659$320                   map_player_movement
     00001DAF  A$lcc2561659$321                   map_player_movement
     00001DB0  A$lcc2561659$322                   map_player_movement
     00001DB2  A$lcc2561659$323                   map_player_movement
     00001DB3  A$lcc2561659$324                   map_player_movement
     00001DB4  A$lcc2561659$325                   map_player_movement
     00001DB5  A$lcc2561659$326                   map_player_movement
     00001DB6  A$lcc2561659$327                   map_player_movement
     00001DB7  A$lcc2561659$328                   map_player_movement
     00001DB8  A$lcc2561659$329                   map_player_movement
     00001DB9  A$lcc2561659$330                   map_player_movement
     00001DBA  A$lcc2561659$331                   map_player_movement
     00001DBB  A$lcc2561659$332                   map_player_movement
     00001DBE  A$lcc2561659$333                   map_player_movement
     00001DBF  A$lcc2561659$334                   map_player_movement
     00001DC0  A$lcc2561659$335                   map_player_movement
     00001DC1  A$lcc2561659$336                   map_player_movement
     00001DC3  A$lcc2561659$337                   map_player_movement
     00001DC4  A$lcc2561659$338                   map_player_movement
     00001DC7  A$lcc2561659$343                   map_player_movement
     00001DC7  C$map_player_movement.c$12$2_0$1   map_player_movement
     00001DCA  A$lcc2561659$344                   map_player_movement
     00001DCB  A$lcc2561659$348                   map_player_movement
     00001DCB  C$map_player_movement.c$64$2_0$1   map_player_movement
     00001DCE  A$lcc2561659$349                   map_player_movement
     00001DD0  A$lcc2561659$350                   map_player_movement
     00001DD2  A$lcc2561659$351                   map_player_movement
     00001DD4  A$lcc2561659$352                   map_player_movement
ASxxxx Linker V03.00/V05.40 + sdld,  page 86.
Hexadecimal  [32-Bits]

Area                                    Addr        Size        Decimal Bytes (Attributes)
--------------------------------        ----        ----        ------- ----- ------------
_CODE                               00000200    0000289F =       10399. bytes (REL,CON)

      Value  Global                              Global Defined In Module
      -----  --------------------------------   ------------------------
     00001DD6  A$lcc2561659$356                   map_player_movement
     00001DD6  C$map_player_movement.c$65$2_0$1   map_player_movement
     00001DD7  A$lcc2561659$357                   map_player_movement
     00001DDA  A$lcc2561659$362                   map_player_movement
     00001DDA  C$map_player_movement.c$66$2_0$1   map_player_movement
     00001DDD  A$lcc2561659$363                   map_player_movement
     00001DDF  A$lcc2561659$364                   map_player_movement
     00001DE1  A$lcc2561659$365                   map_player_movement
     00001DE3  A$lcc2561659$366                   map_player_movement
     00001DE5  A$lcc2561659$370                   map_player_movement
     00001DE5  C$map_player_movement.c$67$2_0$1   map_player_movement
     00001DE6  A$lcc2561659$371                   map_player_movement
     00001DE9  A$lcc2561659$376                   map_player_movement
     00001DEA  A$lcc2561659$381                   map_player_movement
     00001DEA  C$map_player_movement.c$68$2_0$1   map_player_movement
     00001DEA  XG$Map_PlayerMovement$0$0          map_player_movement
     00001DEB  A$lcc2561660$61                    map_00
     00001DEB  C$map_00.c$6$0_0$34                map_00
     00001DEB  C$map_00.c$7$1_0$34                map_00
     00001DEB  G$Map_00_Create$0$0                map_00
     00001DEB  _Map_00_Create                     map_00
     00001DEE  A$lcc2561660$62                    map_00
     00001DF0  A$lcc2561660$63                    map_00
     00001DF1  A$lcc2561660$64                    map_00
     00001DF3  A$lcc2561660$68                    map_00
     00001DF3  C$map_00.c$8$1_0$34                map_00
     00001DF4  A$lcc2561660$69                    map_00
     00001DF6  A$lcc2561660$70                    map_00
     00001DF7  A$lcc2561660$71                    map_00
     00001DF9  A$lcc2561660$75                    map_00
     00001DF9  C$map_00.c$10$1_0$34               map_00
     00001DFC  A$lcc2561660$76                    map_00
     00001DFD  A$lcc2561660$77                    map_00
     00001DFE  A$lcc2561660$78                    map_00
     00001DFF  A$lcc2561660$86                    map_00
     00001DFF  C$map_00.c$11$1_0$34               map_00
     00001DFF  XG$Map_00_Create$0$0               map_00
     00001E00  G$map_00_example_collision$0_0$0   map_00_collision
     00001E00  _map_00_example_collision          map_00_collision
     00001F68  A$lcc2561662$62                    map_00_init
     00001F68  C$map_00_init.c$21$0_0$170         map_00_init
     00001F68  C$map_00_init.c$23$2_0$171         map_00_init
     00001F68  G$hello_event$0$0                  map_00_init
     00001F68  _hello_event                       map_00_init
     00001F6B  A$lcc2561662$63                    map_00_init
     00001F6C  A$lcc2561662$64                    map_00_init
     00001F6D  A$lcc2561662$65                    map_00_init
     00001F6E  A$lcc2561662$72                    map_00_init
     00001F6E  C$map_00_init.c$24$2_0$171         map_00_init
     00001F6E  C$map_00_init.c$26$1_0$170         map_00_init
     00001F70  A$lcc2561662$73                    map_00_init
ASxxxx Linker V03.00/V05.40 + sdld,  page 87.
Hexadecimal  [32-Bits]

Area                                    Addr        Size        Decimal Bytes (Attributes)
--------------------------------        ----        ----        ------- ----- ------------
_CODE                               00000200    0000289F =       10399. bytes (REL,CON)

      Value  Global                              Global Defined In Module
      -----  --------------------------------   ------------------------
     00001F71  A$lcc2561662$77                    map_00_init
     00001F71  C$map_00_init.c$27$1_0$170         map_00_init
     00001F73  A$lcc2561662$78                    map_00_init
     00001F74  A$lcc2561662$79                    map_00_init
     00001F75  A$lcc2561662$80                    map_00_init
     00001F76  A$lcc2561662$81                    map_00_init
     00001F77  A$lcc2561662$82                    map_00_init
     00001F78  A$lcc2561662$83                    map_00_init
     00001F7A  A$lcc2561662$84                    map_00_init
     00001F7D  A$lcc2561662$85                    map_00_init
     00001F80  A$lcc2561662$93                    map_00_init
     00001F80  C$map_00_init.c$28$1_0$170         map_00_init
     00001F80  XG$hello_event$0$0                 map_00_init
     00001F81  A$lcc2561662$103                   map_00_init
     00001F81  C$map_00_init.c$30$1_0$173         map_00_init
     00001F81  G$Map_00_Init$0$0                  map_00_init
     00001F81  _Map_00_Init                       map_00_init
     00001F82  A$lcc2561662$104                   map_00_init
     00001F83  A$lcc2561662$105                   map_00_init
     00001F84  A$lcc2561662$109                   map_00_init
     00001F84  C$map_00_init.c$32$1_0$173         map_00_init
     00001F87  A$lcc2561662$110                   map_00_init
     00001F89  A$lcc2561662$111                   map_00_init
     00001F8A  A$lcc2561662$112                   map_00_init
     00001F8C  A$lcc2561662$113                   map_00_init
     00001F8E  A$lcc2561662$114                   map_00_init
     00001F8F  A$lcc2561662$115                   map_00_init
     00001F92  A$lcc2561662$116                   map_00_init
     00001F93  A$lcc2561662$120                   map_00_init
     00001F93  C$map_00_init.c$33$1_0$173         map_00_init
     00001F96  A$lcc2561662$121                   map_00_init
     00001F97  A$lcc2561662$125                   map_00_init
     00001F97  C$map_00_init.c$34$1_0$173         map_00_init
     00001F9A  A$lcc2561662$126                   map_00_init
     00001F9C  A$lcc2561662$127                   map_00_init
     00001F9D  A$lcc2561662$128                   map_00_init
     00001F9F  A$lcc2561662$132                   map_00_init
     00001F9F  C$map_00_init.c$35$1_0$173         map_00_init
     00001FA2  A$lcc2561662$133                   map_00_init
     00001FA4  A$lcc2561662$137                   map_00_init
     00001FA4  C$map_00_init.c$36$1_0$173         map_00_init
     00001FA5  A$lcc2561662$138                   map_00_init
     00001FA6  A$lcc2561662$139                   map_00_init
     00001FA8  A$lcc2561662$143                   map_00_init
     00001FA8  C$map_00_init.c$38$1_0$173         map_00_init
     00001FAB  A$lcc2561662$144                   map_00_init
     00001FAD  A$lcc2561662$148                   map_00_init
     00001FAD  C$map_00_init.c$39$1_0$173         map_00_init
     00001FB0  A$lcc2561662$149                   map_00_init
     00001FB2  A$lcc2561662$150                   map_00_init
     00001FB3  A$lcc2561662$151                   map_00_init
ASxxxx Linker V03.00/V05.40 + sdld,  page 88.
Hexadecimal  [32-Bits]

Area                                    Addr        Size        Decimal Bytes (Attributes)
--------------------------------        ----        ----        ------- ----- ------------
_CODE                               00000200    0000289F =       10399. bytes (REL,CON)

      Value  Global                              Global Defined In Module
      -----  --------------------------------   ------------------------
     00001FB5  A$lcc2561662$155                   map_00_init
     00001FB5  C$map_00_init.c$40$1_0$173         map_00_init
     00001FB8  A$lcc2561662$156                   map_00_init
     00001FBA  A$lcc2561662$160                   map_00_init
     00001FBA  C$map_00_init.c$42$1_0$173         map_00_init
     00001FBD  A$lcc2561662$161                   map_00_init
     00001FBE  A$lcc2561662$162                   map_00_init
     00001FC0  A$lcc2561662$163                   map_00_init
     00001FC1  A$lcc2561662$164                   map_00_init
     00001FC3  A$lcc2561662$168                   map_00_init
     00001FC3  C$map_00_init.c$43$1_0$173         map_00_init
     00001FC4  A$lcc2561662$169                   map_00_init
     00001FC5  A$lcc2561662$170                   map_00_init
     00001FC8  A$lcc2561662$174                   map_00_init
     00001FC8  C$map_00_init.c$44$1_0$173         map_00_init
     00001FCB  A$lcc2561662$178                   map_00_init
     00001FCB  C$map_00_init.c$46$2_0$174         map_00_init
     00001FCD  A$lcc2561662$179                   map_00_init
     00001FCE  A$lcc2561662$183                   map_00_init
     00001FCE  C$map_00_init.c$47$1_1$174         map_00_init
     00001FD0  A$lcc2561662$184                   map_00_init
     00001FD2  A$lcc2561662$185                   map_00_init
     00001FD5  A$lcc2561662$186                   map_00_init
     00001FD7  A$lcc2561662$190                   map_00_init
     00001FD7  C$map_00_init.c$49$1_1$174         map_00_init
     00001FDA  A$lcc2561662$191                   map_00_init
     00001FDB  A$lcc2561662$192                   map_00_init
     00001FDE  A$lcc2561662$193                   map_00_init
     00001FDF  A$lcc2561662$194                   map_00_init
     00001FE2  A$lcc2561662$195                   map_00_init
     00001FE4  A$lcc2561662$199                   map_00_init
     00001FE4  C$map_00_init.c$50$1_1$174         map_00_init
     00001FE7  A$lcc2561662$200                   map_00_init
     00001FE8  A$lcc2561662$201                   map_00_init
     00001FEB  A$lcc2561662$202                   map_00_init
     00001FEC  A$lcc2561662$203                   map_00_init
     00001FED  A$lcc2561662$204                   map_00_init
     00001FEE  A$lcc2561662$205                   map_00_init
     00001FEF  A$lcc2561662$206                   map_00_init
     00001FF2  A$lcc2561662$207                   map_00_init
     00001FF4  A$lcc2561662$211                   map_00_init
     00001FF4  C$map_00_init.c$52$1_1$174         map_00_init
     00001FF5  A$lcc2561662$212                   map_00_init
     00001FF7  A$lcc2561662$213                   map_00_init
     00001FFA  A$lcc2561662$214                   map_00_init
     00001FFB  A$lcc2561662$218                   map_00_init
     00001FFB  C$map_00_init.c$54$1_1$174         map_00_init
     00001FFE  A$lcc2561662$226                   map_00_init
     00001FFE  C$map_00_init.c$55$1_1$173         map_00_init
     00001FFE  XG$Map_00_Init$0$0                 map_00_init
     00002001  A$lcc2561663$56                    map_00_init_dialogues
ASxxxx Linker V03.00/V05.40 + sdld,  page 89.
Hexadecimal  [32-Bits]

Area                                    Addr        Size        Decimal Bytes (Attributes)
--------------------------------        ----        ----        ------- ----- ------------
_CODE                               00000200    0000289F =       10399. bytes (REL,CON)

      Value  Global                              Global Defined In Module
      -----  --------------------------------   ------------------------
     00002001  C$map_00_init_dialogues.c$11$1_0   map_00_init_dialogues
     00002001  C$map_00_init_dialogues.c$9$0_0$   map_00_init_dialogues
     00002001  G$Map_00_InitDialogues$0$0         map_00_init_dialogues
     00002001  _Map_00_InitDialogues              map_00_init_dialogues
     00002004  A$lcc2561663$57                    map_00_init_dialogues
     00002006  A$lcc2561663$58                    map_00_init_dialogues
     00002007  A$lcc2561663$59                    map_00_init_dialogues
     00002009  A$lcc2561663$67                    map_00_init_dialogues
     00002009  C$map_00_init_dialogues.c$12$1_0   map_00_init_dialogues
     00002009  XG$Map_00_InitDialogues$0$0        map_00_init_dialogues
     0000200A  G$dialogue_00$0_0$0                map_00_init_dialogues
     0000200A  _dialogue_00                       map_00_init_dialogues
     0000214E  A$lcc2561664$53                    map_00_init_npc
     0000214E  C$map_00_init_npc.c$12$0_0$167     map_00_init_npc
     0000214E  G$Map_00_NPC_Init$0$0              map_00_init_npc
     0000214E  _Map_00_NPC_Init                   map_00_init_npc
     00002150  A$lcc2561664$57                    map_00_init_npc
     00002150  C$map_00_init_npc.c$14$1_0$167     map_00_init_npc
     00002153  A$lcc2561664$58                    map_00_init_npc
     00002154  A$lcc2561664$59                    map_00_init_npc
     00002156  A$lcc2561664$60                    map_00_init_npc
     00002159  A$lcc2561664$61                    map_00_init_npc
     0000215A  A$lcc2561664$62                    map_00_init_npc
     0000215C  A$lcc2561664$66                    map_00_init_npc
     0000215C  C$map_00_init_npc.c$15$1_0$167     map_00_init_npc
     0000215F  A$lcc2561664$67                    map_00_init_npc
     00002160  A$lcc2561664$68                    map_00_init_npc
     00002162  A$lcc2561664$69                    map_00_init_npc
     00002165  A$lcc2561664$70                    map_00_init_npc
     00002166  A$lcc2561664$71                    map_00_init_npc
     00002168  A$lcc2561664$75                    map_00_init_npc
     00002168  C$map_00_init_npc.c$17$2_0$168     map_00_init_npc
     0000216A  A$lcc2561664$76                    map_00_init_npc
     0000216C  A$lcc2561664$77                    map_00_init_npc
     0000216D  A$lcc2561664$78                    map_00_init_npc
     0000216F  A$lcc2561664$79                    map_00_init_npc
     00002170  A$lcc2561664$80                    map_00_init_npc
     00002172  A$lcc2561664$81                    map_00_init_npc
     00002173  A$lcc2561664$82                    map_00_init_npc
     00002175  A$lcc2561664$83                    map_00_init_npc
     00002176  A$lcc2561664$84                    map_00_init_npc
     00002178  A$lcc2561664$85                    map_00_init_npc
     00002179  A$lcc2561664$86                    map_00_init_npc
     0000217A  A$lcc2561664$87                    map_00_init_npc
     0000217B  A$lcc2561664$88                    map_00_init_npc
     0000217C  A$lcc2561664$89                    map_00_init_npc
     0000217D  A$lcc2561664$90                    map_00_init_npc
     0000217E  A$lcc2561664$91                    map_00_init_npc
     0000217F  A$lcc2561664$95                    map_00_init_npc
     00002182  A$lcc2561664$96                    map_00_init_npc
     00002183  A$lcc2561664$98                    map_00_init_npc
ASxxxx Linker V03.00/V05.40 + sdld,  page 90.
Hexadecimal  [32-Bits]

Area                                    Addr        Size        Decimal Bytes (Attributes)
--------------------------------        ----        ----        ------- ----- ------------
_CODE                               00000200    0000289F =       10399. bytes (REL,CON)

      Value  Global                              Global Defined In Module
      -----  --------------------------------   ------------------------
     00002186  A$lcc2561664$99                    map_00_init_npc
     00002187  A$lcc2561664$100                   map_00_init_npc
     00002188  A$lcc2561664$101                   map_00_init_npc
     00002189  A$lcc2561664$102                   map_00_init_npc
     0000218B  A$lcc2561664$103                   map_00_init_npc
     0000218C  A$lcc2561664$104                   map_00_init_npc
     0000218D  A$lcc2561664$105                   map_00_init_npc
     0000218F  A$lcc2561664$109                   map_00_init_npc
     0000218F  C$map_00_init_npc.c$19$2_1$169     map_00_init_npc
     00002192  A$lcc2561664$110                   map_00_init_npc
     00002193  A$lcc2561664$111                   map_00_init_npc
     00002195  A$lcc2561664$112                   map_00_init_npc
     00002196  A$lcc2561664$113                   map_00_init_npc
     00002197  A$lcc2561664$114                   map_00_init_npc
     00002198  A$lcc2561664$115                   map_00_init_npc
     00002199  A$lcc2561664$116                   map_00_init_npc
     0000219A  A$lcc2561664$117                   map_00_init_npc
     0000219B  A$lcc2561664$118                   map_00_init_npc
     0000219C  A$lcc2561664$119                   map_00_init_npc
     0000219D  A$lcc2561664$120                   map_00_init_npc
     0000219F  A$lcc2561664$121                   map_00_init_npc
     000021A0  A$lcc2561664$122                   map_00_init_npc
     000021A1  A$lcc2561664$123                   map_00_init_npc
     000021A2  A$lcc2561664$124                   map_00_init_npc
     000021A4  A$lcc2561664$125                   map_00_init_npc
     000021A5  A$lcc2561664$126                   map_00_init_npc
     000021A6  A$lcc2561664$127                   map_00_init_npc
     000021A7  A$lcc2561664$128                   map_00_init_npc
     000021A8  A$lcc2561664$129                   map_00_init_npc
     000021AB  A$lcc2561664$130                   map_00_init_npc
     000021AC  A$lcc2561664$131                   map_00_init_npc
     000021AD  A$lcc2561664$132                   map_00_init_npc
     000021AE  A$lcc2561664$133                   map_00_init_npc
     000021B0  A$lcc2561664$134                   map_00_init_npc
     000021B1  A$lcc2561664$135                   map_00_init_npc
     000021B2  A$lcc2561664$136                   map_00_init_npc
     000021B3  A$lcc2561664$140                   map_00_init_npc
     000021B3  C$map_00_init_npc.c$18$2_1$169     map_00_init_npc
     000021B4  A$lcc2561664$141                   map_00_init_npc
     000021B6  A$lcc2561664$146                   map_00_init_npc
     000021B6  C$map_00_init_npc.c$21$1_1$168     map_00_init_npc
     000021B9  A$lcc2561664$147                   map_00_init_npc
     000021BA  A$lcc2561664$148                   map_00_init_npc
     000021BB  A$lcc2561664$149                   map_00_init_npc
     000021BD  A$lcc2561664$150                   map_00_init_npc
     000021C0  A$lcc2561664$151                   map_00_init_npc
     000021C1  A$lcc2561664$152                   map_00_init_npc
     000021C4  A$lcc2561664$153                   map_00_init_npc
     000021C6  A$lcc2561664$154                   map_00_init_npc
     000021C7  A$lcc2561664$155                   map_00_init_npc
     000021C9  A$lcc2561664$156                   map_00_init_npc
ASxxxx Linker V03.00/V05.40 + sdld,  page 91.
Hexadecimal  [32-Bits]

Area                                    Addr        Size        Decimal Bytes (Attributes)
--------------------------------        ----        ----        ------- ----- ------------
_CODE                               00000200    0000289F =       10399. bytes (REL,CON)

      Value  Global                              Global Defined In Module
      -----  --------------------------------   ------------------------
     000021CB  A$lcc2561664$157                   map_00_init_npc
     000021CC  A$lcc2561664$158                   map_00_init_npc
     000021CD  A$lcc2561664$159                   map_00_init_npc
     000021CE  A$lcc2561664$160                   map_00_init_npc
     000021CF  A$lcc2561664$161                   map_00_init_npc
     000021D0  A$lcc2561664$162                   map_00_init_npc
     000021D1  A$lcc2561664$166                   map_00_init_npc
     000021D1  C$map_00_init_npc.c$22$1_1$168     map_00_init_npc
     000021D4  A$lcc2561664$167                   map_00_init_npc
     000021D5  A$lcc2561664$168                   map_00_init_npc
     000021D6  A$lcc2561664$169                   map_00_init_npc
     000021D8  A$lcc2561664$170                   map_00_init_npc
     000021DB  A$lcc2561664$171                   map_00_init_npc
     000021DC  A$lcc2561664$172                   map_00_init_npc
     000021DF  A$lcc2561664$173                   map_00_init_npc
     000021E1  A$lcc2561664$174                   map_00_init_npc
     000021E2  A$lcc2561664$175                   map_00_init_npc
     000021E4  A$lcc2561664$176                   map_00_init_npc
     000021E6  A$lcc2561664$177                   map_00_init_npc
     000021E7  A$lcc2561664$178                   map_00_init_npc
     000021E8  A$lcc2561664$179                   map_00_init_npc
     000021E9  A$lcc2561664$180                   map_00_init_npc
     000021EA  A$lcc2561664$181                   map_00_init_npc
     000021EB  A$lcc2561664$182                   map_00_init_npc
     000021EC  A$lcc2561664$186                   map_00_init_npc
     000021EC  C$map_00_init_npc.c$24$1_1$168     map_00_init_npc
     000021EF  A$lcc2561664$187                   map_00_init_npc
     000021F0  A$lcc2561664$188                   map_00_init_npc
     000021F2  A$lcc2561664$189                   map_00_init_npc
     000021F5  A$lcc2561664$190                   map_00_init_npc
     000021F6  A$lcc2561664$191                   map_00_init_npc
     000021F8  A$lcc2561664$195                   map_00_init_npc
     000021F8  C$map_00_init_npc.c$25$1_1$168     map_00_init_npc
     000021FB  A$lcc2561664$196                   map_00_init_npc
     000021FC  A$lcc2561664$197                   map_00_init_npc
     000021FE  A$lcc2561664$198                   map_00_init_npc
     00002201  A$lcc2561664$199                   map_00_init_npc
     00002202  A$lcc2561664$200                   map_00_init_npc
     00002204  A$lcc2561664$204                   map_00_init_npc
     00002204  C$map_00_init_npc.c$26$1_1$168     map_00_init_npc
     00002207  A$lcc2561664$205                   map_00_init_npc
     00002208  A$lcc2561664$206                   map_00_init_npc
     0000220A  A$lcc2561664$207                   map_00_init_npc
     0000220D  A$lcc2561664$208                   map_00_init_npc
     0000220E  A$lcc2561664$209                   map_00_init_npc
     00002210  A$lcc2561664$213                   map_00_init_npc
     00002210  C$map_00_init_npc.c$29$2_1$170     map_00_init_npc
     00002212  A$lcc2561664$214                   map_00_init_npc
     00002214  A$lcc2561664$215                   map_00_init_npc
     00002215  A$lcc2561664$216                   map_00_init_npc
     00002217  A$lcc2561664$217                   map_00_init_npc
ASxxxx Linker V03.00/V05.40 + sdld,  page 92.
Hexadecimal  [32-Bits]

Area                                    Addr        Size        Decimal Bytes (Attributes)
--------------------------------        ----        ----        ------- ----- ------------
_CODE                               00000200    0000289F =       10399. bytes (REL,CON)

      Value  Global                              Global Defined In Module
      -----  --------------------------------   ------------------------
     00002218  A$lcc2561664$218                   map_00_init_npc
     0000221A  A$lcc2561664$219                   map_00_init_npc
     0000221B  A$lcc2561664$220                   map_00_init_npc
     0000221D  A$lcc2561664$221                   map_00_init_npc
     0000221E  A$lcc2561664$222                   map_00_init_npc
     00002220  A$lcc2561664$223                   map_00_init_npc
     00002221  A$lcc2561664$224                   map_00_init_npc
     00002223  A$lcc2561664$225                   map_00_init_npc
     00002224  A$lcc2561664$226                   map_00_init_npc
     00002226  A$lcc2561664$227                   map_00_init_npc
     00002227  A$lcc2561664$228                   map_00_init_npc
     00002229  A$lcc2561664$232                   map_00_init_npc
     00002229  C$map_00_init_npc.c$35$1_2$170     map_00_init_npc
     0000222C  A$lcc2561664$233                   map_00_init_npc
     0000222D  A$lcc2561664$234                   map_00_init_npc
     0000222F  A$lcc2561664$235                   map_00_init_npc
     00002230  A$lcc2561664$236                   map_00_init_npc
     00002231  A$lcc2561664$237                   map_00_init_npc
     00002232  A$lcc2561664$238                   map_00_init_npc
     00002233  A$lcc2561664$239                   map_00_init_npc
     00002234  A$lcc2561664$240                   map_00_init_npc
     00002235  A$lcc2561664$241                   map_00_init_npc
     00002236  A$lcc2561664$242                   map_00_init_npc
     00002237  A$lcc2561664$243                   map_00_init_npc
     00002238  A$lcc2561664$244                   map_00_init_npc
     0000223B  A$lcc2561664$245                   map_00_init_npc
     0000223C  A$lcc2561664$246                   map_00_init_npc
     0000223D  A$lcc2561664$247                   map_00_init_npc
     0000223E  A$lcc2561664$248                   map_00_init_npc
     00002241  A$lcc2561664$249                   map_00_init_npc
     00002242  A$lcc2561664$250                   map_00_init_npc
     00002244  A$lcc2561664$251                   map_00_init_npc
     00002245  A$lcc2561664$252                   map_00_init_npc
     00002246  A$lcc2561664$253                   map_00_init_npc
     00002249  A$lcc2561664$254                   map_00_init_npc
     0000224A  A$lcc2561664$255                   map_00_init_npc
     0000224B  A$lcc2561664$256                   map_00_init_npc
     0000224C  A$lcc2561664$257                   map_00_init_npc
     0000224D  A$lcc2561664$258                   map_00_init_npc
     0000224E  A$lcc2561664$259                   map_00_init_npc
     00002251  A$lcc2561664$260                   map_00_init_npc
     00002254  A$lcc2561664$264                   map_00_init_npc
     00002256  A$lcc2561664$269                   map_00_init_npc
     00002256  C$map_00_init_npc.c$36$1_2$167     map_00_init_npc
     00002256  XG$Map_00_NPC_Init$0$0             map_00_init_npc
     00002257  A$lcc2561665$57                    map_00_update
     00002257  C$map_00_update.c$17$0_0$182       map_00_update
     00002257  G$Map_00_Update$0$0                map_00_update
     00002257  _Map_00_Update                     map_00_update
     00002259  A$lcc2561665$58                    map_00_update
     0000225B  A$lcc2561665$59                    map_00_update
ASxxxx Linker V03.00/V05.40 + sdld,  page 93.
Hexadecimal  [32-Bits]

Area                                    Addr        Size        Decimal Bytes (Attributes)
--------------------------------        ----        ----        ------- ----- ------------
_CODE                               00000200    0000289F =       10399. bytes (REL,CON)

      Value  Global                              Global Defined In Module
      -----  --------------------------------   ------------------------
     0000225C  A$lcc2561665$60                    map_00_update
     0000225D  A$lcc2561665$61                    map_00_update
     0000225E  A$lcc2561665$65                    map_00_update
     0000225E  C$map_00_update.c$19$1_0$182       map_00_update
     00002261  A$lcc2561665$69                    map_00_update
     00002261  C$map_00_update.c$21$1_1$183       map_00_update
     00002263  A$lcc2561665$70                    map_00_update
     00002264  A$lcc2561665$71                    map_00_update
     00002265  A$lcc2561665$72                    map_00_update
     00002266  A$lcc2561665$73                    map_00_update
     00002269  A$lcc2561665$74                    map_00_update
     0000226A  A$lcc2561665$75                    map_00_update
     0000226B  A$lcc2561665$76                    map_00_update
     0000226C  A$lcc2561665$77                    map_00_update
     0000226E  A$lcc2561665$78                    map_00_update
     0000226F  A$lcc2561665$79                    map_00_update
     00002270  A$lcc2561665$80                    map_00_update
     00002271  A$lcc2561665$81                    map_00_update
     00002273  A$lcc2561665$82                    map_00_update
     00002274  A$lcc2561665$83                    map_00_update
     00002275  A$lcc2561665$84                    map_00_update
     00002276  A$lcc2561665$85                    map_00_update
     00002277  A$lcc2561665$86                    map_00_update
     00002278  A$lcc2561665$87                    map_00_update
     00002279  A$lcc2561665$88                    map_00_update
     0000227A  A$lcc2561665$89                    map_00_update
     0000227B  A$lcc2561665$90                    map_00_update
     0000227C  A$lcc2561665$91                    map_00_update
     0000227D  A$lcc2561665$92                    map_00_update
     0000227E  A$lcc2561665$93                    map_00_update
     0000227F  A$lcc2561665$94                    map_00_update
     00002280  A$lcc2561665$98                    map_00_update
     00002283  A$lcc2561665$99                    map_00_update
     00002284  A$lcc2561665$100                   map_00_update
     00002285  A$lcc2561665$101                   map_00_update
     00002286  A$lcc2561665$102                   map_00_update
     00002287  A$lcc2561665$103                   map_00_update
     00002288  A$lcc2561665$104                   map_00_update
     0000228A  A$lcc2561665$105                   map_00_update
     0000228B  A$lcc2561665$106                   map_00_update
     0000228C  A$lcc2561665$108                   map_00_update
     0000228D  A$lcc2561665$109                   map_00_update
     0000228E  A$lcc2561665$110                   map_00_update
     0000228F  A$lcc2561665$111                   map_00_update
     00002290  A$lcc2561665$112                   map_00_update
     00002292  A$lcc2561665$113                   map_00_update
     00002294  A$lcc2561665$114                   map_00_update
     00002295  A$lcc2561665$115                   map_00_update
     00002296  A$lcc2561665$116                   map_00_update
     00002297  A$lcc2561665$117                   map_00_update
     00002298  A$lcc2561665$118                   map_00_update
ASxxxx Linker V03.00/V05.40 + sdld,  page 94.
Hexadecimal  [32-Bits]

Area                                    Addr        Size        Decimal Bytes (Attributes)
--------------------------------        ----        ----        ------- ----- ------------
_CODE                               00000200    0000289F =       10399. bytes (REL,CON)

      Value  Global                              Global Defined In Module
      -----  --------------------------------   ------------------------
     0000229A  A$lcc2561665$122                   map_00_update
     0000229A  C$map_00_update.c$25$3_1$185       map_00_update
     0000229B  A$lcc2561665$123                   map_00_update
     0000229C  A$lcc2561665$124                   map_00_update
     0000229D  A$lcc2561665$125                   map_00_update
     0000229E  A$lcc2561665$126                   map_00_update
     0000229F  A$lcc2561665$127                   map_00_update
     000022A0  A$lcc2561665$128                   map_00_update
     000022A1  A$lcc2561665$129                   map_00_update
     000022A2  A$lcc2561665$130                   map_00_update
     000022A5  A$lcc2561665$131                   map_00_update
     000022A6  A$lcc2561665$135                   map_00_update
     000022A6  C$map_00_update.c$23$2_1$184       map_00_update
     000022A8  A$lcc2561665$136                   map_00_update
     000022A9  A$lcc2561665$137                   map_00_update
     000022AB  A$lcc2561665$138                   map_00_update
     000022AC  A$lcc2561665$139                   map_00_update
     000022AD  A$lcc2561665$140                   map_00_update
     000022AF  A$lcc2561665$145                   map_00_update
     000022AF  C$map_00_update.c$28$1_1$183       map_00_update
     000022B0  A$lcc2561665$146                   map_00_update
     000022B3  A$lcc2561665$147                   map_00_update
     000022B6  A$lcc2561665$148                   map_00_update
     000022B7  A$lcc2561665$152                   map_00_update
     000022B7  C$map_00_update.c$29$1_1$183       map_00_update
     000022B8  A$lcc2561665$153                   map_00_update
     000022B9  A$lcc2561665$154                   map_00_update
     000022BA  A$lcc2561665$155                   map_00_update
     000022BB  A$lcc2561665$156                   map_00_update
     000022BE  A$lcc2561665$160                   map_00_update
     000022BE  C$map_00_update.c$31$1_1$183       map_00_update
     000022C0  A$lcc2561665$161                   map_00_update
     000022C1  A$lcc2561665$162                   map_00_update
     000022C2  A$lcc2561665$163                   map_00_update
     000022C3  A$lcc2561665$164                   map_00_update
     000022C6  A$lcc2561665$168                   map_00_update
     000022C6  C$map_00_update.c$33$2_1$186       map_00_update
     000022C9  A$lcc2561665$169                   map_00_update
     000022CB  A$lcc2561665$170                   map_00_update
     000022CD  A$lcc2561665$171                   map_00_update
     000022D0  A$lcc2561665$172                   map_00_update
     000022D2  A$lcc2561665$173                   map_00_update
     000022D4  A$lcc2561665$177                   map_00_update
     000022D4  C$map_00_update.c$35$3_1$187       map_00_update
     000022D6  A$lcc2561665$178                   map_00_update
     000022D9  A$lcc2561665$179                   map_00_update
     000022DA  A$lcc2561665$180                   map_00_update
     000022DC  A$lcc2561665$184                   map_00_update
     000022DC  C$map_00_update.c$36$3_1$187       map_00_update
     000022DE  A$lcc2561665$185                   map_00_update
     000022DF  A$lcc2561665$186                   map_00_update
ASxxxx Linker V03.00/V05.40 + sdld,  page 95.
Hexadecimal  [32-Bits]

Area                                    Addr        Size        Decimal Bytes (Attributes)
--------------------------------        ----        ----        ------- ----- ------------
_CODE                               00000200    0000289F =       10399. bytes (REL,CON)

      Value  Global                              Global Defined In Module
      -----  --------------------------------   ------------------------
     000022E0  A$lcc2561665$190                   map_00_update
     000022E0  C$map_00_update.c$38$5_1$189       map_00_update
     000022E3  A$lcc2561665$192                   map_00_update
     000022E4  A$lcc2561665$193                   map_00_update
     000022E6  A$lcc2561665$194                   map_00_update
     000022E8  A$lcc2561665$198                   map_00_update
     000022E8  C$map_00_update.c$40$5_1$189       map_00_update
     000022E9  A$lcc2561665$199                   map_00_update
     000022EC  A$lcc2561665$200                   map_00_update
     000022ED  A$lcc2561665$201                   map_00_update
     000022EE  A$lcc2561665$202                   map_00_update
     000022F1  A$lcc2561665$203                   map_00_update
     000022F2  A$lcc2561665$204                   map_00_update
     000022F3  A$lcc2561665$205                   map_00_update
     000022F6  A$lcc2561665$206                   map_00_update
     000022F7  A$lcc2561665$210                   map_00_update
     000022F7  C$map_00_update.c$41$5_1$189       map_00_update
     000022F8  A$lcc2561665$211                   map_00_update
     000022F9  A$lcc2561665$212                   map_00_update
     000022FA  A$lcc2561665$213                   map_00_update
     000022FB  A$lcc2561665$214                   map_00_update
     000022FE  A$lcc2561665$215                   map_00_update
     000022FF  A$lcc2561665$216                   map_00_update
     00002300  A$lcc2561665$217                   map_00_update
     00002301  A$lcc2561665$218                   map_00_update
     00002303  A$lcc2561665$219                   map_00_update
     00002304  A$lcc2561665$220                   map_00_update
     00002305  A$lcc2561665$221                   map_00_update
     00002307  A$lcc2561665$222                   map_00_update
     00002308  A$lcc2561665$223                   map_00_update
     00002309  A$lcc2561665$224                   map_00_update
     0000230A  A$lcc2561665$228                   map_00_update
     0000230A  C$map_00_update.c$38$4_1$188       map_00_update
     0000230B  A$lcc2561665$229                   map_00_update
     0000230D  A$lcc2561665$234                   map_00_update
     0000230D  C$map_00_update.c$44$3_1$187       map_00_update
     00002310  A$lcc2561665$235                   map_00_update
     00002313  A$lcc2561665$236                   map_00_update
     00002314  A$lcc2561665$237                   map_00_update
     00002315  A$lcc2561665$238                   map_00_update
     00002316  A$lcc2561665$239                   map_00_update
     00002317  A$lcc2561665$240                   map_00_update
     00002318  A$lcc2561665$241                   map_00_update
     00002319  A$lcc2561665$242                   map_00_update
     0000231A  A$lcc2561665$243                   map_00_update
     0000231D  A$lcc2561665$244                   map_00_update
     0000231F  A$lcc2561665$245                   map_00_update
     00002320  A$lcc2561665$246                   map_00_update
     00002322  A$lcc2561665$247                   map_00_update
     00002323  A$lcc2561665$248                   map_00_update
     00002324  A$lcc2561665$249                   map_00_update
ASxxxx Linker V03.00/V05.40 + sdld,  page 96.
Hexadecimal  [32-Bits]

Area                                    Addr        Size        Decimal Bytes (Attributes)
--------------------------------        ----        ----        ------- ----- ------------
_CODE                               00000200    0000289F =       10399. bytes (REL,CON)

      Value  Global                              Global Defined In Module
      -----  --------------------------------   ------------------------
     00002327  A$lcc2561665$257                   map_00_update
     00002327  C$map_00_update.c$47$1_1$183       map_00_update
     00002329  A$lcc2561665$262                   map_00_update
     00002329  C$map_00_update.c$48$1_1$182       map_00_update
     00002329  XG$Map_00_Update$0$0               map_00_update
     0000232A  A$lcc2561666$56                    mg_player_movement
     0000232A  C$mg_player_movement.c$10$0_0$15   mg_player_movement
     0000232A  G$Mg_PlayerMovement$0$0            mg_player_movement
     0000232A  _Mg_PlayerMovement                 mg_player_movement
     0000232B  A$lcc2561666$60                    mg_player_movement
     0000232B  C$mg_player_movement.c$13$2_0$15   mg_player_movement
     0000232E  A$lcc2561666$61                    mg_player_movement
     0000232F  A$lcc2561666$62                    mg_player_movement
     00002331  A$lcc2561666$66                    mg_player_movement
     00002334  A$lcc2561666$67                    mg_player_movement
     00002336  A$lcc2561666$68                    mg_player_movement
     00002338  A$lcc2561666$69                    mg_player_movement
     00002339  A$lcc2561666$70                    mg_player_movement
     0000233A  A$lcc2561666$71                    mg_player_movement
     0000233C  A$lcc2561666$75                    mg_player_movement
     0000233C  C$mg_player_movement.c$16$4_0$15   mg_player_movement
     0000233F  A$lcc2561666$76                    mg_player_movement
     00002341  A$lcc2561666$77                    mg_player_movement
     00002343  A$lcc2561666$82                    mg_player_movement
     00002343  C$mg_player_movement.c$17$5_0$15   mg_player_movement
     00002345  A$lcc2561666$83                    mg_player_movement
     00002347  A$lcc2561666$84                    mg_player_movement
     00002348  A$lcc2561666$85                    mg_player_movement
     00002349  A$lcc2561666$86                    mg_player_movement
     0000234B  A$lcc2561666$90                    mg_player_movement
     0000234B  C$mg_player_movement.c$18$5_0$15   mg_player_movement
     0000234E  A$lcc2561666$91                    mg_player_movement
     00002350  A$lcc2561666$92                    mg_player_movement
     00002352  A$lcc2561666$97                    mg_player_movement
     00002352  C$mg_player_movement.c$19$6_0$15   mg_player_movement
     00002354  A$lcc2561666$98                    mg_player_movement
     00002356  A$lcc2561666$99                    mg_player_movement
     00002357  A$lcc2561666$100                   mg_player_movement
     00002358  A$lcc2561666$101                   mg_player_movement
     0000235A  A$lcc2561666$105                   mg_player_movement
     0000235A  C$mg_player_movement.c$20$6_0$15   mg_player_movement
     0000235D  A$lcc2561666$106                   mg_player_movement
     0000235F  A$lcc2561666$107                   mg_player_movement
     00002361  A$lcc2561666$112                   mg_player_movement
     00002361  C$mg_player_movement.c$21$7_0$15   mg_player_movement
     00002362  A$lcc2561666$113                   mg_player_movement
     00002364  A$lcc2561666$114                   mg_player_movement
     00002365  A$lcc2561666$115                   mg_player_movement
     00002366  A$lcc2561666$116                   mg_player_movement
     00002368  A$lcc2561666$120                   mg_player_movement
     00002368  C$mg_player_movement.c$22$7_0$15   mg_player_movement
ASxxxx Linker V03.00/V05.40 + sdld,  page 97.
Hexadecimal  [32-Bits]

Area                                    Addr        Size        Decimal Bytes (Attributes)
--------------------------------        ----        ----        ------- ----- ------------
_CODE                               00000200    0000289F =       10399. bytes (REL,CON)

      Value  Global                              Global Defined In Module
      -----  --------------------------------   ------------------------
     0000236B  A$lcc2561666$121                   mg_player_movement
     0000236D  A$lcc2561666$126                   mg_player_movement
     0000236D  C$mg_player_movement.c$26$2_0$15   mg_player_movement
     00002370  A$lcc2561666$127                   mg_player_movement
     00002371  A$lcc2561666$128                   mg_player_movement
     00002373  A$lcc2561666$129                   mg_player_movement
     00002376  A$lcc2561666$130                   mg_player_movement
     00002378  A$lcc2561666$131                   mg_player_movement
     0000237A  A$lcc2561666$132                   mg_player_movement
     0000237C  A$lcc2561666$133                   mg_player_movement
     0000237E  A$lcc2561666$134                   mg_player_movement
     00002380  A$lcc2561666$135                   mg_player_movement
     00002382  A$lcc2561666$136                   mg_player_movement
     00002384  A$lcc2561666$144                   mg_player_movement
     00002384  C$mg_player_movement.c$28$3_0$15   mg_player_movement
     00002384  C$mg_player_movement.c$29$3_0$15   mg_player_movement
     00002387  A$lcc2561666$145                   mg_player_movement
     0000238A  A$lcc2561666$149                   mg_player_movement
     0000238A  C$mg_player_movement.c$30$3_0$15   mg_player_movement
     0000238C  A$lcc2561666$157                   mg_player_movement
     0000238C  C$mg_player_movement.c$31$3_0$15   mg_player_movement
     0000238C  C$mg_player_movement.c$32$3_0$15   mg_player_movement
     0000238F  A$lcc2561666$158                   mg_player_movement
     00002392  A$lcc2561666$162                   mg_player_movement
     00002392  C$mg_player_movement.c$33$3_0$15   mg_player_movement
     00002394  A$lcc2561666$170                   mg_player_movement
     00002394  C$mg_player_movement.c$34$3_0$15   mg_player_movement
     00002394  C$mg_player_movement.c$35$3_0$15   mg_player_movement
     00002397  A$lcc2561666$171                   mg_player_movement
     0000239A  A$lcc2561666$175                   mg_player_movement
     0000239A  C$mg_player_movement.c$36$3_0$15   mg_player_movement
     0000239C  A$lcc2561666$183                   mg_player_movement
     0000239C  C$mg_player_movement.c$37$3_0$15   mg_player_movement
     0000239C  C$mg_player_movement.c$38$3_0$15   mg_player_movement
     0000239F  A$lcc2561666$184                   mg_player_movement
     000023A2  A$lcc2561666$192                   mg_player_movement
     000023A2  C$mg_player_movement.c$15$2_0$15   mg_player_movement
     000023A2  C$mg_player_movement.c$42$2_0$15   mg_player_movement
     000023A5  A$lcc2561666$193                   mg_player_movement
     000023A6  A$lcc2561666$197                   mg_player_movement
     000023A6  C$mg_player_movement.c$45$2_0$16   mg_player_movement
     000023A9  A$lcc2561666$198                   mg_player_movement
     000023AA  A$lcc2561666$199                   mg_player_movement
     000023AC  A$lcc2561666$200                   mg_player_movement
     000023AE  A$lcc2561666$201                   mg_player_movement
     000023B0  A$lcc2561666$205                   mg_player_movement
     000023B0  C$mg_player_movement.c$46$2_0$16   mg_player_movement
     000023B1  A$lcc2561666$206                   mg_player_movement
     000023B4  A$lcc2561666$211                   mg_player_movement
     000023B4  C$mg_player_movement.c$48$2_0$16   mg_player_movement
     000023B7  A$lcc2561666$212                   mg_player_movement
ASxxxx Linker V03.00/V05.40 + sdld,  page 98.
Hexadecimal  [32-Bits]

Area                                    Addr        Size        Decimal Bytes (Attributes)
--------------------------------        ----        ----        ------- ----- ------------
_CODE                               00000200    0000289F =       10399. bytes (REL,CON)

      Value  Global                              Global Defined In Module
      -----  --------------------------------   ------------------------
     000023B9  A$lcc2561666$213                   mg_player_movement
     000023BB  A$lcc2561666$214                   mg_player_movement
     000023BD  A$lcc2561666$215                   mg_player_movement
     000023BF  A$lcc2561666$219                   mg_player_movement
     000023BF  C$mg_player_movement.c$49$2_0$16   mg_player_movement
     000023C0  A$lcc2561666$220                   mg_player_movement
     000023C3  A$lcc2561666$225                   mg_player_movement
     000023C3  C$mg_player_movement.c$51$2_0$16   mg_player_movement
     000023C6  A$lcc2561666$226                   mg_player_movement
     000023C8  A$lcc2561666$227                   mg_player_movement
     000023CA  A$lcc2561666$228                   mg_player_movement
     000023CC  A$lcc2561666$229                   mg_player_movement
     000023CE  A$lcc2561666$233                   mg_player_movement
     000023CE  C$mg_player_movement.c$52$2_0$16   mg_player_movement
     000023CF  A$lcc2561666$234                   mg_player_movement
     000023D2  A$lcc2561666$239                   mg_player_movement
     000023D2  C$mg_player_movement.c$54$2_0$16   mg_player_movement
     000023D5  A$lcc2561666$240                   mg_player_movement
     000023D7  A$lcc2561666$241                   mg_player_movement
     000023D8  A$lcc2561666$242                   mg_player_movement
     000023DA  A$lcc2561666$243                   mg_player_movement
     000023DB  A$lcc2561666$247                   mg_player_movement
     000023DB  C$mg_player_movement.c$55$2_0$16   mg_player_movement
     000023DC  A$lcc2561666$248                   mg_player_movement
     000023DF  A$lcc2561666$256                   mg_player_movement
     000023DF  C$mg_player_movement.c$56$2_0$15   mg_player_movement
     000023DF  XG$Mg_PlayerMovement$0$0           mg_player_movement
     000023E0  A$lcc2561667$54                    mini_games
     000023E0  C$mini_games.c$9$0_0$149           mini_games
     000023E0  G$Mg_SetTitle$0$0                  mini_games
     000023E0  _Mg_SetTitle                       mini_games
     000023E1  A$lcc2561667$58                    mini_games
     000023E3  A$lcc2561667$60                    mini_games
     000023E4  A$lcc2561667$61                    mini_games
     000023E6  A$lcc2561667$62                    mini_games
     000023E7  A$lcc2561667$63                    mini_games
     000023E8  A$lcc2561667$64                    mini_games
     000023E9  A$lcc2561667$65                    mini_games
     000023EB  A$lcc2561667$69                    mini_games
     000023EB  C$mini_games.c$13$3_0$150          mini_games
     000023EC  A$lcc2561667$70                    mini_games
     000023ED  A$lcc2561667$71                    mini_games
     000023F0  A$lcc2561667$72                    mini_games
     000023F1  A$lcc2561667$73                    mini_games
     000023F2  A$lcc2561667$74                    mini_games
     000023F3  A$lcc2561667$75                    mini_games
     000023F4  A$lcc2561667$76                    mini_games
     000023F6  A$lcc2561667$77                    mini_games
     000023F8  A$lcc2561667$78                    mini_games
     000023F9  A$lcc2561667$82                    mini_games
     000023F9  C$mini_games.c$14$3_0$150          mini_games
ASxxxx Linker V03.00/V05.40 + sdld,  page 99.
Hexadecimal  [32-Bits]

Area                                    Addr        Size        Decimal Bytes (Attributes)
--------------------------------        ----        ----        ------- ----- ------------
_CODE                               00000200    0000289F =       10399. bytes (REL,CON)

      Value  Global                              Global Defined In Module
      -----  --------------------------------   ------------------------
     000023FA  A$lcc2561667$83                    mini_games
     000023FB  A$lcc2561667$84                    mini_games
     000023FC  A$lcc2561667$85                    mini_games
     000023FF  A$lcc2561667$86                    mini_games
     00002400  A$lcc2561667$87                    mini_games
     00002401  A$lcc2561667$88                    mini_games
     00002403  A$lcc2561667$89                    mini_games
     00002404  A$lcc2561667$90                    mini_games
     00002405  A$lcc2561667$91                    mini_games
     00002407  A$lcc2561667$92                    mini_games
     00002408  A$lcc2561667$93                    mini_games
     00002409  A$lcc2561667$94                    mini_games
     0000240B  A$lcc2561667$95                    mini_games
     0000240C  A$lcc2561667$96                    mini_games
     0000240D  A$lcc2561667$97                    mini_games
     0000240E  A$lcc2561667$98                    mini_games
     0000240F  A$lcc2561667$99                    mini_games
     00002412  A$lcc2561667$100                   mini_games
     00002414  A$lcc2561667$101                   mini_games
     00002415  A$lcc2561667$105                   mini_games
     00002415  C$mini_games.c$11$2_0$149          mini_games
     00002416  A$lcc2561667$106                   mini_games
     00002418  A$lcc2561667$111                   mini_games
     00002419  A$lcc2561667$116                   mini_games
     00002419  C$mini_games.c$16$2_0$149          mini_games
     00002419  XG$Mg_SetTitle$0$0                 mini_games
     0000241A  A$lcc2561668$61                    mg_leaves
     0000241A  C$mg_leaves.c$6$0_0$31             mg_leaves
     0000241A  C$mg_leaves.c$7$1_0$31             mg_leaves
     0000241A  G$Mg_Leaves_Create$0$0             mg_leaves
     0000241A  _Mg_Leaves_Create                  mg_leaves
     0000241D  A$lcc2561668$62                    mg_leaves
     0000241F  A$lcc2561668$63                    mg_leaves
     00002420  A$lcc2561668$64                    mg_leaves
     00002422  A$lcc2561668$68                    mg_leaves
     00002422  C$mg_leaves.c$8$1_0$31             mg_leaves
     00002423  A$lcc2561668$69                    mg_leaves
     00002425  A$lcc2561668$70                    mg_leaves
     00002426  A$lcc2561668$71                    mg_leaves
     00002428  A$lcc2561668$75                    mg_leaves
     00002428  C$mg_leaves.c$10$1_0$31            mg_leaves
     0000242B  A$lcc2561668$76                    mg_leaves
     0000242C  A$lcc2561668$77                    mg_leaves
     0000242D  A$lcc2561668$78                    mg_leaves
     0000242E  A$lcc2561668$86                    mg_leaves
     0000242E  C$mg_leaves.c$11$1_0$31            mg_leaves
     0000242E  XG$Mg_Leaves_Create$0$0            mg_leaves
     0000242F  A$lcc2561669$89                    mg_leaves_init
     0000242F  C$mg_leaves_init.c$32$0_0$169      mg_leaves_init
     0000242F  G$Mg_Leaves_Init$0$0               mg_leaves_init
     0000242F  _Mg_Leaves_Init                    mg_leaves_init
ASxxxx Linker V03.00/V05.40 + sdld,  page 100.
Hexadecimal  [32-Bits]

Area                                    Addr        Size        Decimal Bytes (Attributes)
--------------------------------        ----        ----        ------- ----- ------------
_CODE                               00000200    0000289F =       10399. bytes (REL,CON)

      Value  Global                              Global Defined In Module
      -----  --------------------------------   ------------------------
     00002431  A$lcc2561669$93                    mg_leaves_init
     00002431  C$mg_leaves_init.c$34$1_0$169      mg_leaves_init
     00002434  A$lcc2561669$94                    mg_leaves_init
     00002436  A$lcc2561669$95                    mg_leaves_init
     00002437  A$lcc2561669$99                    mg_leaves_init
     00002437  C$mg_leaves_init.c$36$1_0$169      mg_leaves_init
     0000243A  A$lcc2561669$100                   mg_leaves_init
     0000243B  A$lcc2561669$101                   mg_leaves_init
     0000243C  A$lcc2561669$102                   mg_leaves_init
     0000243D  A$lcc2561669$103                   mg_leaves_init
     0000243E  A$lcc2561669$107                   mg_leaves_init
     0000243E  C$mg_leaves_init.c$38$2_0$170      mg_leaves_init
     00002440  A$lcc2561669$108                   mg_leaves_init
     00002441  A$lcc2561669$112                   mg_leaves_init
     00002441  C$mg_leaves_init.c$39$1_1$170      mg_leaves_init
     00002443  A$lcc2561669$113                   mg_leaves_init
     00002445  A$lcc2561669$114                   mg_leaves_init
     00002448  A$lcc2561669$115                   mg_leaves_init
     0000244A  A$lcc2561669$119                   mg_leaves_init
     0000244A  C$mg_leaves_init.c$41$1_1$170      mg_leaves_init
     0000244D  A$lcc2561669$120                   mg_leaves_init
     0000244E  A$lcc2561669$121                   mg_leaves_init
     00002451  A$lcc2561669$122                   mg_leaves_init
     00002452  A$lcc2561669$123                   mg_leaves_init
     00002455  A$lcc2561669$124                   mg_leaves_init
     00002457  A$lcc2561669$128                   mg_leaves_init
     00002457  C$mg_leaves_init.c$42$1_1$170      mg_leaves_init
     0000245A  A$lcc2561669$129                   mg_leaves_init
     0000245B  A$lcc2561669$130                   mg_leaves_init
     0000245E  A$lcc2561669$131                   mg_leaves_init
     0000245F  A$lcc2561669$132                   mg_leaves_init
     00002460  A$lcc2561669$133                   mg_leaves_init
     00002461  A$lcc2561669$134                   mg_leaves_init
     00002462  A$lcc2561669$135                   mg_leaves_init
     00002465  A$lcc2561669$136                   mg_leaves_init
     00002467  A$lcc2561669$140                   mg_leaves_init
     00002467  C$mg_leaves_init.c$44$2_1$171      mg_leaves_init
     00002469  A$lcc2561669$141                   mg_leaves_init
     0000246B  A$lcc2561669$142                   mg_leaves_init
     0000246C  A$lcc2561669$143                   mg_leaves_init
     0000246E  A$lcc2561669$144                   mg_leaves_init
     0000246F  A$lcc2561669$145                   mg_leaves_init
     00002471  A$lcc2561669$146                   mg_leaves_init
     00002472  A$lcc2561669$147                   mg_leaves_init
     00002473  A$lcc2561669$148                   mg_leaves_init
     00002475  A$lcc2561669$149                   mg_leaves_init
     00002476  A$lcc2561669$150                   mg_leaves_init
     00002478  A$lcc2561669$151                   mg_leaves_init
     00002479  A$lcc2561669$152                   mg_leaves_init
     0000247B  A$lcc2561669$153                   mg_leaves_init
     0000247C  A$lcc2561669$154                   mg_leaves_init
ASxxxx Linker V03.00/V05.40 + sdld,  page 101.
Hexadecimal  [32-Bits]

Area                                    Addr        Size        Decimal Bytes (Attributes)
--------------------------------        ----        ----        ------- ----- ------------
_CODE                               00000200    0000289F =       10399. bytes (REL,CON)

      Value  Global                              Global Defined In Module
      -----  --------------------------------   ------------------------
     0000247E  A$lcc2561669$155                   mg_leaves_init
     0000247F  A$lcc2561669$156                   mg_leaves_init
     00002481  A$lcc2561669$157                   mg_leaves_init
     00002482  A$lcc2561669$158                   mg_leaves_init
     00002483  A$lcc2561669$159                   mg_leaves_init
     00002484  A$lcc2561669$160                   mg_leaves_init
     00002485  A$lcc2561669$161                   mg_leaves_init
     00002487  A$lcc2561669$165                   mg_leaves_init
     00002487  C$mg_leaves_init.c$45$1_2$171      mg_leaves_init
     00002488  A$lcc2561669$166                   mg_leaves_init
     0000248B  A$lcc2561669$167                   mg_leaves_init
     0000248C  A$lcc2561669$168                   mg_leaves_init
     0000248D  A$lcc2561669$169                   mg_leaves_init
     0000248E  A$lcc2561669$170                   mg_leaves_init
     00002491  A$lcc2561669$171                   mg_leaves_init
     00002492  A$lcc2561669$175                   mg_leaves_init
     00002492  C$mg_leaves_init.c$47$1_2$171      mg_leaves_init
     00002493  A$lcc2561669$176                   mg_leaves_init
     00002495  A$lcc2561669$177                   mg_leaves_init
     00002498  A$lcc2561669$178                   mg_leaves_init
     00002499  A$lcc2561669$182                   mg_leaves_init
     00002499  C$mg_leaves_init.c$49$1_2$171      mg_leaves_init
     0000249C  A$lcc2561669$186                   mg_leaves_init
     0000249C  C$mg_leaves_init.c$57$3_2$173      mg_leaves_init
     0000249E  A$lcc2561669$188                   mg_leaves_init
     0000249F  A$lcc2561669$189                   mg_leaves_init
     000024A1  A$lcc2561669$190                   mg_leaves_init
     000024A3  A$lcc2561669$194                   mg_leaves_init
     000024A3  C$mg_leaves_init.c$59$3_2$173      mg_leaves_init
     000024A4  A$lcc2561669$195                   mg_leaves_init
     000024A6  A$lcc2561669$196                   mg_leaves_init
     000024A7  A$lcc2561669$197                   mg_leaves_init
     000024A8  A$lcc2561669$198                   mg_leaves_init
     000024AB  A$lcc2561669$199                   mg_leaves_init
     000024AC  A$lcc2561669$200                   mg_leaves_init
     000024AF  A$lcc2561669$201                   mg_leaves_init
     000024B0  A$lcc2561669$202                   mg_leaves_init
     000024B1  A$lcc2561669$206                   mg_leaves_init
     000024B1  C$mg_leaves_init.c$60$3_2$173      mg_leaves_init
     000024B4  A$lcc2561669$207                   mg_leaves_init
     000024B6  A$lcc2561669$208                   mg_leaves_init
     000024B7  A$lcc2561669$209                   mg_leaves_init
     000024B8  A$lcc2561669$213                   mg_leaves_init
     000024B8  C$mg_leaves_init.c$61$3_2$173      mg_leaves_init
     000024BB  A$lcc2561669$214                   mg_leaves_init
     000024BD  A$lcc2561669$215                   mg_leaves_init
     000024BE  A$lcc2561669$216                   mg_leaves_init
     000024C0  A$lcc2561669$220                   mg_leaves_init
     000024C0  C$mg_leaves_init.c$62$3_2$173      mg_leaves_init
     000024C3  A$lcc2561669$221                   mg_leaves_init
     000024C4  A$lcc2561669$222                   mg_leaves_init
ASxxxx Linker V03.00/V05.40 + sdld,  page 102.
Hexadecimal  [32-Bits]

Area                                    Addr        Size        Decimal Bytes (Attributes)
--------------------------------        ----        ----        ------- ----- ------------
_CODE                               00000200    0000289F =       10399. bytes (REL,CON)

      Value  Global                              Global Defined In Module
      -----  --------------------------------   ------------------------
     000024C6  A$lcc2561669$223                   mg_leaves_init
     000024C7  A$lcc2561669$224                   mg_leaves_init
     000024C8  A$lcc2561669$225                   mg_leaves_init
     000024C9  A$lcc2561669$226                   mg_leaves_init
     000024CB  A$lcc2561669$227                   mg_leaves_init
     000024CC  A$lcc2561669$228                   mg_leaves_init
     000024CD  A$lcc2561669$229                   mg_leaves_init
     000024CE  A$lcc2561669$230                   mg_leaves_init
     000024D0  A$lcc2561669$231                   mg_leaves_init
     000024D1  A$lcc2561669$232                   mg_leaves_init
     000024D2  A$lcc2561669$233                   mg_leaves_init
     000024D3  A$lcc2561669$234                   mg_leaves_init
     000024D4  A$lcc2561669$235                   mg_leaves_init
     000024D5  A$lcc2561669$236                   mg_leaves_init
     000024D6  A$lcc2561669$237                   mg_leaves_init
     000024D7  A$lcc2561669$238                   mg_leaves_init
     000024D9  A$lcc2561669$239                   mg_leaves_init
     000024DA  A$lcc2561669$240                   mg_leaves_init
     000024DB  A$lcc2561669$241                   mg_leaves_init
     000024DC  A$lcc2561669$242                   mg_leaves_init
     000024DD  A$lcc2561669$243                   mg_leaves_init
     000024DE  A$lcc2561669$247                   mg_leaves_init
     000024DE  C$mg_leaves_init.c$63$3_2$173      mg_leaves_init
     000024E1  A$lcc2561669$248                   mg_leaves_init
     000024E3  A$lcc2561669$249                   mg_leaves_init
     000024E4  A$lcc2561669$250                   mg_leaves_init
     000024E6  A$lcc2561669$254                   mg_leaves_init
     000024E6  C$mg_leaves_init.c$57$2_2$172      mg_leaves_init
     000024E7  A$lcc2561669$255                   mg_leaves_init
     000024E9  A$lcc2561669$260                   mg_leaves_init
     000024EB  A$lcc2561669$265                   mg_leaves_init
     000024EB  C$mg_leaves_init.c$65$2_2$169      mg_leaves_init
     000024EB  XG$Mg_Leaves_Init$0$0              mg_leaves_init
     000024EC  A$lcc2561670$53                    mg_leaves_player_init
     000024EC  C$mg_leaves_player_init.c$9$0_0$   mg_leaves_player_init
     000024EC  G$Mg_Leaves_Player_Init$0$0        mg_leaves_player_init
     000024EC  _Mg_Leaves_Player_Init             mg_leaves_player_init
     000024EE  A$lcc2561670$57                    mg_leaves_player_init
     000024EE  C$mg_leaves_player_init.c$11$1_0   mg_leaves_player_init
     000024F1  A$lcc2561670$58                    mg_leaves_player_init
     000024F2  A$lcc2561670$59                    mg_leaves_player_init
     000024F4  A$lcc2561670$60                    mg_leaves_player_init
     000024F7  A$lcc2561670$61                    mg_leaves_player_init
     000024F8  A$lcc2561670$62                    mg_leaves_player_init
     000024FA  A$lcc2561670$66                    mg_leaves_player_init
     000024FA  C$mg_leaves_player_init.c$12$1_0   mg_leaves_player_init
     000024FD  A$lcc2561670$67                    mg_leaves_player_init
     00002500  A$lcc2561670$68                    mg_leaves_player_init
     00002501  A$lcc2561670$69                    mg_leaves_player_init
     00002503  A$lcc2561670$70                    mg_leaves_player_init
     00002504  A$lcc2561670$71                    mg_leaves_player_init
ASxxxx Linker V03.00/V05.40 + sdld,  page 103.
Hexadecimal  [32-Bits]

Area                                    Addr        Size        Decimal Bytes (Attributes)
--------------------------------        ----        ----        ------- ----- ------------
_CODE                               00000200    0000289F =       10399. bytes (REL,CON)

      Value  Global                              Global Defined In Module
      -----  --------------------------------   ------------------------
     00002506  A$lcc2561670$75                    mg_leaves_player_init
     00002506  C$mg_leaves_player_init.c$13$1_0   mg_leaves_player_init
     00002509  A$lcc2561670$76                    mg_leaves_player_init
     0000250C  A$lcc2561670$77                    mg_leaves_player_init
     0000250D  A$lcc2561670$78                    mg_leaves_player_init
     0000250E  A$lcc2561670$79                    mg_leaves_player_init
     0000250F  A$lcc2561670$80                    mg_leaves_player_init
     00002510  A$lcc2561670$81                    mg_leaves_player_init
     00002511  A$lcc2561670$82                    mg_leaves_player_init
     00002513  A$lcc2561670$83                    mg_leaves_player_init
     00002514  A$lcc2561670$84                    mg_leaves_player_init
     00002516  A$lcc2561670$88                    mg_leaves_player_init
     00002516  C$mg_leaves_player_init.c$15$1_0   mg_leaves_player_init
     00002519  A$lcc2561670$89                    mg_leaves_player_init
     0000251C  A$lcc2561670$90                    mg_leaves_player_init
     0000251D  A$lcc2561670$91                    mg_leaves_player_init
     0000251E  A$lcc2561670$92                    mg_leaves_player_init
     00002520  A$lcc2561670$93                    mg_leaves_player_init
     00002521  A$lcc2561670$94                    mg_leaves_player_init
     00002524  A$lcc2561670$95                    mg_leaves_player_init
     00002526  A$lcc2561670$96                    mg_leaves_player_init
     00002527  A$lcc2561670$97                    mg_leaves_player_init
     00002529  A$lcc2561670$98                    mg_leaves_player_init
     0000252B  A$lcc2561670$99                    mg_leaves_player_init
     0000252C  A$lcc2561670$100                   mg_leaves_player_init
     0000252D  A$lcc2561670$101                   mg_leaves_player_init
     0000252E  A$lcc2561670$102                   mg_leaves_player_init
     0000252F  A$lcc2561670$103                   mg_leaves_player_init
     00002530  A$lcc2561670$104                   mg_leaves_player_init
     00002531  A$lcc2561670$108                   mg_leaves_player_init
     00002531  C$mg_leaves_player_init.c$16$1_0   mg_leaves_player_init
     00002534  A$lcc2561670$109                   mg_leaves_player_init
     00002535  A$lcc2561670$110                   mg_leaves_player_init
     00002536  A$lcc2561670$111                   mg_leaves_player_init
     00002538  A$lcc2561670$112                   mg_leaves_player_init
     00002539  A$lcc2561670$113                   mg_leaves_player_init
     0000253B  A$lcc2561670$114                   mg_leaves_player_init
     0000253D  A$lcc2561670$115                   mg_leaves_player_init
     0000253E  A$lcc2561670$116                   mg_leaves_player_init
     0000253F  A$lcc2561670$117                   mg_leaves_player_init
     00002541  A$lcc2561670$118                   mg_leaves_player_init
     00002542  A$lcc2561670$119                   mg_leaves_player_init
     00002543  A$lcc2561670$120                   mg_leaves_player_init
     00002544  A$lcc2561670$121                   mg_leaves_player_init
     00002545  A$lcc2561670$122                   mg_leaves_player_init
     00002546  A$lcc2561670$123                   mg_leaves_player_init
     00002547  A$lcc2561670$124                   mg_leaves_player_init
     00002548  A$lcc2561670$128                   mg_leaves_player_init
     00002548  C$mg_leaves_player_init.c$18$1_0   mg_leaves_player_init
     0000254B  A$lcc2561670$129                   mg_leaves_player_init
     0000254C  A$lcc2561670$130                   mg_leaves_player_init
ASxxxx Linker V03.00/V05.40 + sdld,  page 104.
Hexadecimal  [32-Bits]

Area                                    Addr        Size        Decimal Bytes (Attributes)
--------------------------------        ----        ----        ------- ----- ------------
_CODE                               00000200    0000289F =       10399. bytes (REL,CON)

      Value  Global                              Global Defined In Module
      -----  --------------------------------   ------------------------
     0000254E  A$lcc2561670$131                   mg_leaves_player_init
     00002551  A$lcc2561670$132                   mg_leaves_player_init
     00002552  A$lcc2561670$133                   mg_leaves_player_init
     00002554  A$lcc2561670$137                   mg_leaves_player_init
     00002554  C$mg_leaves_player_init.c$19$1_0   mg_leaves_player_init
     00002557  A$lcc2561670$138                   mg_leaves_player_init
     0000255A  A$lcc2561670$139                   mg_leaves_player_init
     0000255B  A$lcc2561670$140                   mg_leaves_player_init
     0000255D  A$lcc2561670$141                   mg_leaves_player_init
     0000255E  A$lcc2561670$142                   mg_leaves_player_init
     00002560  A$lcc2561670$146                   mg_leaves_player_init
     00002560  C$mg_leaves_player_init.c$20$1_0   mg_leaves_player_init
     00002563  A$lcc2561670$147                   mg_leaves_player_init
     00002566  A$lcc2561670$148                   mg_leaves_player_init
     00002567  A$lcc2561670$149                   mg_leaves_player_init
     00002569  A$lcc2561670$150                   mg_leaves_player_init
     0000256A  A$lcc2561670$151                   mg_leaves_player_init
     0000256C  A$lcc2561670$155                   mg_leaves_player_init
     0000256C  C$mg_leaves_player_init.c$23$2_0   mg_leaves_player_init
     0000256E  A$lcc2561670$156                   mg_leaves_player_init
     00002570  A$lcc2561670$157                   mg_leaves_player_init
     00002571  A$lcc2561670$158                   mg_leaves_player_init
     00002573  A$lcc2561670$159                   mg_leaves_player_init
     00002574  A$lcc2561670$160                   mg_leaves_player_init
     00002576  A$lcc2561670$161                   mg_leaves_player_init
     00002577  A$lcc2561670$162                   mg_leaves_player_init
     00002579  A$lcc2561670$166                   mg_leaves_player_init
     00002579  C$mg_leaves_player_init.c$27$1_1   mg_leaves_player_init
     0000257C  A$lcc2561670$167                   mg_leaves_player_init
     0000257D  A$lcc2561670$168                   mg_leaves_player_init
     0000257F  A$lcc2561670$169                   mg_leaves_player_init
     00002580  A$lcc2561670$170                   mg_leaves_player_init
     00002581  A$lcc2561670$171                   mg_leaves_player_init
     00002582  A$lcc2561670$172                   mg_leaves_player_init
     00002583  A$lcc2561670$173                   mg_leaves_player_init
     00002584  A$lcc2561670$174                   mg_leaves_player_init
     00002585  A$lcc2561670$175                   mg_leaves_player_init
     00002586  A$lcc2561670$176                   mg_leaves_player_init
     00002587  A$lcc2561670$177                   mg_leaves_player_init
     00002588  A$lcc2561670$178                   mg_leaves_player_init
     0000258B  A$lcc2561670$179                   mg_leaves_player_init
     0000258C  A$lcc2561670$180                   mg_leaves_player_init
     0000258D  A$lcc2561670$181                   mg_leaves_player_init
     0000258E  A$lcc2561670$182                   mg_leaves_player_init
     00002591  A$lcc2561670$183                   mg_leaves_player_init
     00002592  A$lcc2561670$184                   mg_leaves_player_init
     00002594  A$lcc2561670$185                   mg_leaves_player_init
     00002595  A$lcc2561670$186                   mg_leaves_player_init
     00002596  A$lcc2561670$187                   mg_leaves_player_init
     00002599  A$lcc2561670$188                   mg_leaves_player_init
     0000259A  A$lcc2561670$189                   mg_leaves_player_init
ASxxxx Linker V03.00/V05.40 + sdld,  page 105.
Hexadecimal  [32-Bits]

Area                                    Addr        Size        Decimal Bytes (Attributes)
--------------------------------        ----        ----        ------- ----- ------------
_CODE                               00000200    0000289F =       10399. bytes (REL,CON)

      Value  Global                              Global Defined In Module
      -----  --------------------------------   ------------------------
     0000259B  A$lcc2561670$190                   mg_leaves_player_init
     0000259C  A$lcc2561670$191                   mg_leaves_player_init
     0000259D  A$lcc2561670$192                   mg_leaves_player_init
     0000259E  A$lcc2561670$193                   mg_leaves_player_init
     0000259F  A$lcc2561670$194                   mg_leaves_player_init
     000025A2  A$lcc2561670$195                   mg_leaves_player_init
     000025A5  A$lcc2561670$199                   mg_leaves_player_init
     000025A7  A$lcc2561670$204                   mg_leaves_player_init
     000025A7  C$mg_leaves_player_init.c$28$1_1   mg_leaves_player_init
     000025A7  XG$Mg_Leaves_Player_Init$0$0       mg_leaves_player_init
     000025A8  A$lcc2561671$57                    mg_leaves_update
     000025A8  C$mg_leaves_update.c$8$0_0$168     mg_leaves_update
     000025A8  G$check_leaf_status$0$0            mg_leaves_update
     000025A8  _check_leaf_status                 mg_leaves_update
     000025AA  A$lcc2561671$61                    mg_leaves_update
     000025AA  C$mg_leaves_update.c$10$4_0$170    mg_leaves_update
     000025AC  A$lcc2561671$62                    mg_leaves_update
     000025AE  A$lcc2561671$64                    mg_leaves_update
     000025B1  A$lcc2561671$65                    mg_leaves_update
     000025B3  A$lcc2561671$66                    mg_leaves_update
     000025B4  A$lcc2561671$67                    mg_leaves_update
     000025B7  A$lcc2561671$71                    mg_leaves_update
     000025B7  C$mg_leaves_update.c$12$3_0$169    mg_leaves_update
     000025B8  A$lcc2561671$72                    mg_leaves_update
     000025B9  A$lcc2561671$73                    mg_leaves_update
     000025BA  A$lcc2561671$74                    mg_leaves_update
     000025BB  A$lcc2561671$75                    mg_leaves_update
     000025BD  A$lcc2561671$76                    mg_leaves_update
     000025BE  A$lcc2561671$80                    mg_leaves_update
     000025BE  C$mg_leaves_update.c$13$4_0$170    mg_leaves_update
     000025C1  A$lcc2561671$81                    mg_leaves_update
     000025C3  A$lcc2561671$82                    mg_leaves_update
     000025C4  A$lcc2561671$83                    mg_leaves_update
     000025C6  A$lcc2561671$84                    mg_leaves_update
     000025C7  A$lcc2561671$85                    mg_leaves_update
     000025C8  A$lcc2561671$86                    mg_leaves_update
     000025C9  A$lcc2561671$87                    mg_leaves_update
     000025CA  A$lcc2561671$88                    mg_leaves_update
     000025CB  A$lcc2561671$89                    mg_leaves_update
     000025CD  A$lcc2561671$93                    mg_leaves_update
     000025CD  C$mg_leaves_update.c$15$6_0$172    mg_leaves_update
     000025CE  A$lcc2561671$94                    mg_leaves_update
     000025D1  A$lcc2561671$95                    mg_leaves_update
     000025D2  A$lcc2561671$96                    mg_leaves_update
     000025D3  A$lcc2561671$97                    mg_leaves_update
     000025D6  A$lcc2561671$98                    mg_leaves_update
     000025D7  A$lcc2561671$99                    mg_leaves_update
     000025D8  A$lcc2561671$100                   mg_leaves_update
     000025DB  A$lcc2561671$101                   mg_leaves_update
     000025DC  A$lcc2561671$102                   mg_leaves_update
     000025DD  A$lcc2561671$103                   mg_leaves_update
ASxxxx Linker V03.00/V05.40 + sdld,  page 106.
Hexadecimal  [32-Bits]

Area                                    Addr        Size        Decimal Bytes (Attributes)
--------------------------------        ----        ----        ------- ----- ------------
_CODE                               00000200    0000289F =       10399. bytes (REL,CON)

      Value  Global                              Global Defined In Module
      -----  --------------------------------   ------------------------
     000025DE  A$lcc2561671$104                   mg_leaves_update
     000025E1  A$lcc2561671$108                   mg_leaves_update
     000025E1  C$mg_leaves_update.c$17$7_0$173    mg_leaves_update
     000025E3  A$lcc2561671$109                   mg_leaves_update
     000025E4  A$lcc2561671$113                   mg_leaves_update
     000025E4  C$mg_leaves_update.c$18$7_0$173    mg_leaves_update
     000025E7  A$lcc2561671$114                   mg_leaves_update
     000025E9  A$lcc2561671$115                   mg_leaves_update
     000025EA  A$lcc2561671$116                   mg_leaves_update
     000025EC  A$lcc2561671$117                   mg_leaves_update
     000025ED  A$lcc2561671$118                   mg_leaves_update
     000025EE  A$lcc2561671$119                   mg_leaves_update
     000025EF  A$lcc2561671$120                   mg_leaves_update
     000025F0  A$lcc2561671$121                   mg_leaves_update
     000025F1  A$lcc2561671$125                   mg_leaves_update
     000025F1  C$mg_leaves_update.c$19$7_0$173    mg_leaves_update
     000025F4  A$lcc2561671$126                   mg_leaves_update
     000025F6  A$lcc2561671$127                   mg_leaves_update
     000025F7  A$lcc2561671$128                   mg_leaves_update
     000025F9  A$lcc2561671$129                   mg_leaves_update
     000025FA  A$lcc2561671$130                   mg_leaves_update
     000025FB  A$lcc2561671$131                   mg_leaves_update
     000025FC  A$lcc2561671$132                   mg_leaves_update
     000025FE  A$lcc2561671$136                   mg_leaves_update
     000025FE  C$mg_leaves_update.c$21$7_0$173    mg_leaves_update
     00002600  A$lcc2561671$144                   mg_leaves_update
     00002600  C$mg_leaves_update.c$24$4_0$170    mg_leaves_update
     00002600  C$mg_leaves_update.c$27$4_0$174    mg_leaves_update
     00002603  A$lcc2561671$145                   mg_leaves_update
     00002605  A$lcc2561671$146                   mg_leaves_update
     00002606  A$lcc2561671$147                   mg_leaves_update
     00002608  A$lcc2561671$148                   mg_leaves_update
     00002609  A$lcc2561671$149                   mg_leaves_update
     0000260A  A$lcc2561671$150                   mg_leaves_update
     0000260B  A$lcc2561671$151                   mg_leaves_update
     0000260D  A$lcc2561671$152                   mg_leaves_update
     0000260E  A$lcc2561671$153                   mg_leaves_update
     0000260F  A$lcc2561671$154                   mg_leaves_update
     00002610  A$lcc2561671$155                   mg_leaves_update
     00002612  A$lcc2561671$156                   mg_leaves_update
     00002613  A$lcc2561671$157                   mg_leaves_update
     00002614  A$lcc2561671$158                   mg_leaves_update
     00002615  A$lcc2561671$159                   mg_leaves_update
     00002616  A$lcc2561671$160                   mg_leaves_update
     00002617  A$lcc2561671$161                   mg_leaves_update
     00002618  A$lcc2561671$162                   mg_leaves_update
     0000261A  A$lcc2561671$166                   mg_leaves_update
     0000261A  C$mg_leaves_update.c$28$4_0$174    mg_leaves_update
     0000261B  A$lcc2561671$167                   mg_leaves_update
     0000261E  A$lcc2561671$168                   mg_leaves_update
     0000261F  A$lcc2561671$169                   mg_leaves_update
ASxxxx Linker V03.00/V05.40 + sdld,  page 107.
Hexadecimal  [32-Bits]

Area                                    Addr        Size        Decimal Bytes (Attributes)
--------------------------------        ----        ----        ------- ----- ------------
_CODE                               00000200    0000289F =       10399. bytes (REL,CON)

      Value  Global                              Global Defined In Module
      -----  --------------------------------   ------------------------
     00002621  A$lcc2561671$170                   mg_leaves_update
     00002622  A$lcc2561671$171                   mg_leaves_update
     00002623  A$lcc2561671$172                   mg_leaves_update
     00002624  A$lcc2561671$173                   mg_leaves_update
     00002625  A$lcc2561671$174                   mg_leaves_update
     00002626  A$lcc2561671$175                   mg_leaves_update
     00002627  A$lcc2561671$180                   mg_leaves_update
     00002627  C$mg_leaves_update.c$30$4_0$175    mg_leaves_update
     0000262A  A$lcc2561671$181                   mg_leaves_update
     0000262C  A$lcc2561671$182                   mg_leaves_update
     0000262D  A$lcc2561671$183                   mg_leaves_update
     0000262F  A$lcc2561671$184                   mg_leaves_update
     00002630  A$lcc2561671$185                   mg_leaves_update
     00002631  A$lcc2561671$186                   mg_leaves_update
     00002632  A$lcc2561671$187                   mg_leaves_update
     00002633  A$lcc2561671$188                   mg_leaves_update
     00002635  A$lcc2561671$189                   mg_leaves_update
     00002637  A$lcc2561671$190                   mg_leaves_update
     00002639  A$lcc2561671$194                   mg_leaves_update
     00002639  C$mg_leaves_update.c$31$4_0$175    mg_leaves_update
     0000263B  A$lcc2561671$195                   mg_leaves_update
     0000263C  A$lcc2561671$196                   mg_leaves_update
     0000263D  A$lcc2561671$197                   mg_leaves_update
     0000263E  A$lcc2561671$198                   mg_leaves_update
     00002640  A$lcc2561671$203                   mg_leaves_update
     00002640  C$mg_leaves_update.c$33$3_0$169    mg_leaves_update
     00002641  A$lcc2561671$204                   mg_leaves_update
     00002642  A$lcc2561671$205                   mg_leaves_update
     00002645  A$lcc2561671$206                   mg_leaves_update
     00002647  A$lcc2561671$207                   mg_leaves_update
     00002648  A$lcc2561671$208                   mg_leaves_update
     0000264A  A$lcc2561671$209                   mg_leaves_update
     0000264B  A$lcc2561671$210                   mg_leaves_update
     0000264C  A$lcc2561671$211                   mg_leaves_update
     0000264D  A$lcc2561671$212                   mg_leaves_update
     0000264E  A$lcc2561671$213                   mg_leaves_update
     00002650  A$lcc2561671$214                   mg_leaves_update
     00002651  A$lcc2561671$215                   mg_leaves_update
     00002652  A$lcc2561671$216                   mg_leaves_update
     00002655  A$lcc2561671$217                   mg_leaves_update
     00002657  A$lcc2561671$218                   mg_leaves_update
     00002658  A$lcc2561671$219                   mg_leaves_update
     0000265A  A$lcc2561671$220                   mg_leaves_update
     0000265B  A$lcc2561671$221                   mg_leaves_update
     0000265C  A$lcc2561671$222                   mg_leaves_update
     0000265D  A$lcc2561671$223                   mg_leaves_update
     0000265E  A$lcc2561671$224                   mg_leaves_update
     00002660  A$lcc2561671$225                   mg_leaves_update
     00002661  A$lcc2561671$226                   mg_leaves_update
     00002662  A$lcc2561671$227                   mg_leaves_update
     00002664  A$lcc2561671$228                   mg_leaves_update
ASxxxx Linker V03.00/V05.40 + sdld,  page 108.
Hexadecimal  [32-Bits]

Area                                    Addr        Size        Decimal Bytes (Attributes)
--------------------------------        ----        ----        ------- ----- ------------
_CODE                               00000200    0000289F =       10399. bytes (REL,CON)

      Value  Global                              Global Defined In Module
      -----  --------------------------------   ------------------------
     00002665  A$lcc2561671$229                   mg_leaves_update
     00002666  A$lcc2561671$230                   mg_leaves_update
     00002667  A$lcc2561671$231                   mg_leaves_update
     0000266A  A$lcc2561671$236                   mg_leaves_update
     0000266A  C$mg_leaves_update.c$10$2_0$168    mg_leaves_update
     0000266C  A$lcc2561671$237                   mg_leaves_update
     0000266D  A$lcc2561671$238                   mg_leaves_update
     00002670  A$lcc2561671$243                   mg_leaves_update
     00002672  A$lcc2561671$248                   mg_leaves_update
     00002672  C$mg_leaves_update.c$35$2_0$168    mg_leaves_update
     00002672  XG$check_leaf_status$0$0           mg_leaves_update
     00002673  A$lcc2561671$261                   mg_leaves_update
     00002673  C$mg_leaves_update.c$37$2_0$177    mg_leaves_update
     00002673  C$mg_leaves_update.c$39$1_0$177    mg_leaves_update
     00002673  G$Mg_Leaves_Update$0$0             mg_leaves_update
     00002673  _Mg_Leaves_Update                  mg_leaves_update
     00002675  A$lcc2561671$262                   mg_leaves_update
     00002677  A$lcc2561671$263                   mg_leaves_update
     0000267A  A$lcc2561671$267                   mg_leaves_update
     0000267A  C$mg_leaves_update.c$41$1_0$177    mg_leaves_update
     0000267D  A$lcc2561671$271                   mg_leaves_update
     0000267D  C$mg_leaves_update.c$43$1_0$177    mg_leaves_update
     00002680  A$lcc2561671$282                   mg_leaves_update
     00002680  C$mg_leaves_update.c$45$1_0$177    mg_leaves_update
     00002680  C$mg_leaves_update.c$46$1_0$177    mg_leaves_update
     00002680  XG$Mg_Leaves_Update$0$0            mg_leaves_update
     00002683  A$lcc2561672$66                    main
     00002683  C$main.c$26$0_0$176                main
     00002683  C$main.c$28$1_0$176                main
     00002683  G$load_number_tiles$0$0            main
     00002683  _load_number_tiles                 main
     00002686  A$lcc2561672$67                    main
     00002687  A$lcc2561672$68                    main
     0000268A  A$lcc2561672$69                    main
     0000268B  A$lcc2561672$70                    main
     0000268E  A$lcc2561672$71                    main
     00002690  A$lcc2561672$75                    main
     00002690  C$main.c$29$1_0$176                main
     00002693  A$lcc2561672$76                    main
     00002694  A$lcc2561672$77                    main
     00002697  A$lcc2561672$78                    main
     00002698  A$lcc2561672$79                    main
     0000269B  A$lcc2561672$80                    main
     0000269D  A$lcc2561672$88                    main
     0000269D  C$main.c$30$1_0$176                main
     0000269D  XG$load_number_tiles$0$0           main
     0000269E  A$lcc2561672$101                   main
     0000269E  C$main.c$32$1_0$178                main
     0000269E  C$main.c$34$1_0$178                main
     0000269E  G$main$0$0                         main
     0000269E  _main                              main
ASxxxx Linker V03.00/V05.40 + sdld,  page 109.
Hexadecimal  [32-Bits]

Area                                    Addr        Size        Decimal Bytes (Attributes)
--------------------------------        ----        ----        ------- ----- ------------
_CODE                               00000200    0000289F =       10399. bytes (REL,CON)

      Value  Global                              Global Defined In Module
      -----  --------------------------------   ------------------------
     000026A0  A$lcc2561672$102                   main
     000026A2  A$lcc2561672$103                   main
     000026A4  A$lcc2561672$107                   main
     000026A4  C$main.c$35$1_0$178                main
     000026A6  A$lcc2561672$108                   main
     000026A8  A$lcc2561672$109                   main
     000026AA  A$lcc2561672$113                   main
     000026AA  C$main.c$44$1_1$179                main
     000026AD  A$lcc2561672$114                   main
     000026AF  A$lcc2561672$115                   main
     000026B0  A$lcc2561672$116                   main
     000026B2  A$lcc2561672$120                   main
     000026B2  C$main.c$46$1_1$179                main
     000026B5  A$lcc2561672$124                   main
     000026B5  C$main.c$48$1_1$179                main
     000026B8  A$lcc2561672$128                   main
     000026B8  C$main.c$49$1_1$179                main
     000026BB  A$lcc2561672$132                   main
     000026BB  C$main.c$52$1_2$180                main
     000026BE  A$lcc2561672$133                   main
     000026C1  A$lcc2561672$137                   main
     000026C1  C$main.c$54$1_2$180                main
     000026C4  A$lcc2561672$138                   main
     000026C7  A$lcc2561672$139                   main
     000026C8  A$lcc2561672$140                   main
     000026C9  A$lcc2561672$141                   main
     000026CA  A$lcc2561672$142                   main
     000026CB  A$lcc2561672$143                   main
     000026CC  A$lcc2561672$144                   main
     000026CD  A$lcc2561672$145                   main
     000026CE  A$lcc2561672$146                   main
     000026D1  A$lcc2561672$147                   main
     000026D3  A$lcc2561672$148                   main
     000026D4  A$lcc2561672$149                   main
     000026D5  A$lcc2561672$150                   main
     000026D6  A$lcc2561672$151                   main
     000026D7  A$lcc2561672$152                   main
     000026DA  A$lcc2561672$156                   main
     000026DA  C$main.c$56$1_2$180                main
     000026DD  A$lcc2561672$161                   main
     000026DD  C$main.c$58$1_2$180                main
     000026E0  A$lcc2561672$162                   main
     000026E1  A$lcc2561672$163                   main
     000026E2  A$lcc2561672$164                   main
     000026E3  A$lcc2561672$168                   main
     000026E3  C$main.c$60$2_2$181                main
     000026E6  A$lcc2561672$172                   main
     000026E6  C$main.c$62$2_2$181                main
     000026E9  A$lcc2561672$173                   main
     000026EC  A$lcc2561672$177                   main
     000026EC  C$main.c$63$2_2$181                main
ASxxxx Linker V03.00/V05.40 + sdld,  page 110.
Hexadecimal  [32-Bits]

Area                                    Addr        Size        Decimal Bytes (Attributes)
--------------------------------        ----        ----        ------- ----- ------------
_CODE                               00000200    0000289F =       10399. bytes (REL,CON)

      Value  Global                              Global Defined In Module
      -----  --------------------------------   ------------------------
     000026EF  A$lcc2561672$178                   main
     000026F2  A$lcc2561672$182                   main
     000026F2  C$main.c$65$2_2$181                main
     000026F5  A$lcc2561672$183                   main
     000026F6  A$lcc2561672$184                   main
     000026F7  A$lcc2561672$185                   main
     000026F8  A$lcc2561672$186                   main
     000026F9  A$lcc2561672$187                   main
     000026FA  A$lcc2561672$188                   main
     000026FB  A$lcc2561672$189                   main
     000026FC  A$lcc2561672$190                   main
     000026FD  A$lcc2561672$191                   main
     000026FE  A$lcc2561672$192                   main
     000026FF  A$lcc2561672$193                   main
     00002700  A$lcc2561672$194                   main
     00002701  A$lcc2561672$195                   main
     00002704  A$lcc2561672$196                   main
     00002705  A$lcc2561672$197                   main
     00002706  A$lcc2561672$198                   main
     00002707  A$lcc2561672$207                   main
     00002707  C$main.c$67$1_2$178                main
     00002707  XG$main$0$0                        main
     00002709  __divsuchar                        divmod
     0000270F  __modsuchar                        divmod
     00002718  __divuschar                        divmod
     00002721  __moduschar                        divmod
     0000272D  __divschar                         divmod
     00002732  __modschar                         divmod
     00002739  __divsint                          divmod
     00002742  __modsint                          divmod
     0000274E  __divuchar                         divmod
     00002753  __moduchar                         divmod
     0000275A  __divuint                          divmod
     00002763  __moduint                          divmod
     0000276F  .div8                              divmod
     0000276F  .mod8                              divmod
     00002777  .div16                             divmod
     00002777  .mod16                             divmod
     000027AD  .divu8                             divmod
     000027AD  .modu8                             divmod
     000027B0  .divu16                            divmod
     000027B0  .modu16                            divmod
     000027F0  _free                              free
     00002900  ___sdcc_heap_init                  malloc
     00002922  _malloc                            malloc
     00002A28  __mulsuchar                        mul
     00002A2B  __muluschar                        mul
     00002A34  __mulschar                         mul
     00002A3C  __mulint                           mul
     00002A5B  __muluchar                         mul
     00002A6D  ___memcpy                          
ASxxxx Linker V03.00/V05.40 + sdld,  page 111.
Hexadecimal  [32-Bits]

Area                                    Addr        Size        Decimal Bytes (Attributes)
--------------------------------        ----        ----        ------- ----- ------------
_CODE                               00000200    0000289F =       10399. bytes (REL,CON)

      Value  Global                              Global Defined In Module
      -----  --------------------------------   ------------------------
     00002A6D  _memcpy                            
ASxxxx Linker V03.00/V05.40 + sdld,  page 112.
Hexadecimal  [32-Bits]

Area                                    Addr        Size        Decimal Bytes (Attributes)
--------------------------------        ----        ----        ------- ----- ------------
_HEADER0                            00000000    00000001 =           1. bytes (ABS,CON)

      Value  Global                              Global Defined In Module
      -----  --------------------------------   ------------------------
     00000020  .call_hl                           Runtime

ASxxxx Linker V03.00/V05.40 + sdld,  page 113.
Hexadecimal  [32-Bits]

Area                                    Addr        Size        Decimal Bytes (Attributes)
--------------------------------        ----        ----        ------- ----- ------------
_HEADER1                            00000000    00000005 =           5. bytes (ABS,CON)

      Value  Global                              Global Defined In Module
      -----  --------------------------------   ------------------------
     00000028  .MemsetSmall                       Runtime

ASxxxx Linker V03.00/V05.40 + sdld,  page 114.
Hexadecimal  [32-Bits]

Area                                    Addr        Size        Decimal Bytes (Attributes)
--------------------------------        ----        ----        ------- ----- ------------
_HEADER2                            00000000    00000007 =           7. bytes (ABS,CON)

      Value  Global                              Global Defined In Module
      -----  --------------------------------   ------------------------
     00000030  .MemcpySmall                       Runtime

ASxxxx Linker V03.00/V05.40 + sdld,  page 115.
Hexadecimal  [32-Bits]

Area                                    Addr        Size        Decimal Bytes (Attributes)
--------------------------------        ----        ----        ------- ----- ------------
_HEADER3                            00000000    00000008 =           8. bytes (ABS,CON)

      Value  Global                              Global Defined In Module
      -----  --------------------------------   ------------------------
ASxxxx Linker V03.00/V05.40 + sdld,  page 116.
Hexadecimal  [32-Bits]

Area                                    Addr        Size        Decimal Bytes (Attributes)
--------------------------------        ----        ----        ------- ----- ------------
_HEADER4                            00000000    00000060 =          96. bytes (ABS,CON)

      Value  Global                              Global Defined In Module
      -----  --------------------------------   ------------------------
     00000080  .int                               Runtime
     0000008F  _wait_int_handler                  Runtime
     0000009C  __standard_VBL_handler             Runtime
     000000AB  _refresh_OAM                       Runtime
     000000CC  _set_interrupts                    Runtime

ASxxxx Linker V03.00/V05.40 + sdld,  page 117.
Hexadecimal  [32-Bits]

Area                                    Addr        Size        Decimal Bytes (Attributes)
--------------------------------        ----        ----        ------- ----- ------------
_HEADER5                            00000000    00000001 =           1. bytes (ABS,CON)

      Value  Global                              Global Defined In Module
      -----  --------------------------------   ------------------------
ASxxxx Linker V03.00/V05.40 + sdld,  page 118.
Hexadecimal  [32-Bits]

Area                                    Addr        Size        Decimal Bytes (Attributes)
--------------------------------        ----        ----        ------- ----- ------------
_HEADER6                            00000000    00000002 =           2. bytes (ABS,CON)

      Value  Global                              Global Defined In Module
      -----  --------------------------------   ------------------------
ASxxxx Linker V03.00/V05.40 + sdld,  page 119.
Hexadecimal  [32-Bits]

Area                                    Addr        Size        Decimal Bytes (Attributes)
--------------------------------        ----        ----        ------- ----- ------------
_HEADER7                            00000000    00000030 =          48. bytes (ABS,CON)

      Value  Global                              Global Defined In Module
      -----  --------------------------------   ------------------------
ASxxxx Linker V03.00/V05.40 + sdld,  page 120.
Hexadecimal  [32-Bits]

Area                                    Addr        Size        Decimal Bytes (Attributes)
--------------------------------        ----        ----        ------- ----- ------------
_HEADER8                            00000000    00000006 =           6. bytes (ABS,CON)

      Value  Global                              Global Defined In Module
      -----  --------------------------------   ------------------------
ASxxxx Linker V03.00/V05.40 + sdld,  page 121.
Hexadecimal  [32-Bits]

Area                                    Addr        Size        Decimal Bytes (Attributes)
--------------------------------        ----        ----        ------- ----- ------------
_HEADER9                            00000000    00000003 =           3. bytes (ABS,CON)

      Value  Global                              Global Defined In Module
      -----  --------------------------------   ------------------------
ASxxxx Linker V03.00/V05.40 + sdld,  page 122.
Hexadecimal  [32-Bits]

Area                                    Addr        Size        Decimal Bytes (Attributes)
--------------------------------        ----        ----        ------- ----- ------------
_HEADERa                            00000000    00000001 =           1. bytes (ABS,CON)

      Value  Global                              Global Defined In Module
      -----  --------------------------------   ------------------------
ASxxxx Linker V03.00/V05.40 + sdld,  page 123.
Hexadecimal  [32-Bits]

Area                                    Addr        Size        Decimal Bytes (Attributes)
--------------------------------        ----        ----        ------- ----- ------------
_HEADERb                            00000000    00000001 =           1. bytes (ABS,CON)

      Value  Global                              Global Defined In Module
      -----  --------------------------------   ------------------------
ASxxxx Linker V03.00/V05.40 + sdld,  page 124.
Hexadecimal  [32-Bits]

Area                                    Addr        Size        Decimal Bytes (Attributes)
--------------------------------        ----        ----        ------- ----- ------------
_HEADERc                            00000000    00000001 =           1. bytes (ABS,CON)

      Value  Global                              Global Defined In Module
      -----  --------------------------------   ------------------------
ASxxxx Linker V03.00/V05.40 + sdld,  page 125.
Hexadecimal  [32-Bits]

Area                                    Addr        Size        Decimal Bytes (Attributes)
--------------------------------        ----        ----        ------- ----- ------------
_HEADERd                            00000000    00000002 =           2. bytes (ABS,CON)

      Value  Global                              Global Defined In Module
      -----  --------------------------------   ------------------------
ASxxxx Linker V03.00/V05.40 + sdld,  page 126.
Hexadecimal  [32-Bits]

Area                                    Addr        Size        Decimal Bytes (Attributes)
--------------------------------        ----        ----        ------- ----- ------------
_HEADERe                            00000000    00000001 =           1. bytes (ABS,CON)

      Value  Global                              Global Defined In Module
      -----  --------------------------------   ------------------------
ASxxxx Linker V03.00/V05.40 + sdld,  page 127.
Hexadecimal  [32-Bits]

Area                                    Addr        Size        Decimal Bytes (Attributes)
--------------------------------        ----        ----        ------- ----- ------------
_HEADERf                            00000000    00000001 =           1. bytes (ABS,CON)

      Value  Global                              Global Defined In Module
      -----  --------------------------------   ------------------------
ASxxxx Linker V03.00/V05.40 + sdld,  page 128.
Hexadecimal  [32-Bits]

Area                                    Addr        Size        Decimal Bytes (Attributes)
--------------------------------        ----        ----        ------- ----- ------------
_HEADER10                           00000000    00000002 =           2. bytes (ABS,CON)

      Value  Global                              Global Defined In Module
      -----  --------------------------------   ------------------------
ASxxxx Linker V03.00/V05.40 + sdld,  page 129.
Hexadecimal  [32-Bits]

Area                                    Addr        Size        Decimal Bytes (Attributes)
--------------------------------        ----        ----        ------- ----- ------------
_HEADER11                           00000000    000000AB =         171. bytes (ABS,CON)

      Value  Global                              Global Defined In Module
      -----  --------------------------------   ------------------------
     00000150  .reset                             Runtime
     00000150  _reset                             Runtime
     00000157  .code_start                        Runtime
     000001B9  _exit                              Runtime
     000001BD  .wait_vbl_done                     Runtime
     000001BD  _vsync                             Runtime
     000001BD  _wait_vbl_done                     Runtime
     000001CD  .remove_VBL                        Runtime
     000001CD  _remove_VBL                        Runtime
     000001D0  .remove_int                        Runtime
     000001ED  .add_VBL                           Runtime
     000001ED  _add_VBL                           Runtime
     000001F0  .add_int                           Runtime

ASxxxx Linker V03.00/V05.40 + sdld,  page 130.
Hexadecimal  [32-Bits]

Area                                    Addr        Size        Decimal Bytes (Attributes)
--------------------------------        ----        ----        ------- ----- ------------
_HOME                               00002A9F    0000012C =         300. bytes (REL,CON)

      Value  Global                              Global Defined In Module
      -----  --------------------------------   ------------------------
     00002A9F  .memset_simple                     Runtime
     00002AA8  .memcpy_simple                     Runtime
     00002AC5  .display_off                       Runtime
     00002AC5  _display_off                       Runtime
     00002ADD  _set_tile_data                     
     00002AE2  _set_bkg_data                      
     00002AE2  _set_win_data                      
     00002AEA  _set_sprite_data                   
     00002B1A  .padup                             
     00002B1A  _waitpadup                         
     00002B2A  .jpad                              
     00002B2A  _joypad                            
     00002B52  _waitpad                           
     00002B53  .wait_pad                          
     00002B5A  ___sdcc_call_hl                    call_hl
     00002B5B  _set_bkg_tiles                     
     00002B6F  .set_xy_wtt                        SetTileMap
     00002B78  .set_xy_btt                        SetTileMap
     00002B87  .set_xy_tt                         SetTileMap

ASxxxx Linker V03.00/V05.40 + sdld,  page 131.
Hexadecimal  [32-Bits]

Area                                    Addr        Size        Decimal Bytes (Attributes)
--------------------------------        ----        ----        ------- ----- ------------
_INITIALIZER                        00002BCB    00000216 =         534. bytes (REL,CON)

      Value  Global                              Global Defined In Module
      -----  --------------------------------   ------------------------
     00002BCB  Fspr_InventoryArrow_idle$__xinit   spr_InventoryArrow_idle
     00002BDB  Fbroom$__xinit_spr_broom_00$0_0$   broom
     00002BEB  Fbroom$__xinit_spr_broom_01$0_0$   broom
     00002BFB  Fleaf$__xinit_spr_leaf_00$0_0$0    leaf
     00002C0B  Fexample_npc$__xinit_spr_example   example_npc
     00002C1B  Fexample_npc$__xinit_spr_example   example_npc
     00002C2B  Fexample_npc$__xinit_spr_example   example_npc
     00002C3B  Fexample_npc$__xinit_spr_example   example_npc
     00002C4B  Fspr_Player_down0$__xinit_spr_Pl   spr_Player_down0
     00002C5B  Fspr_Player_down0$__xinit_spr_Pl   spr_Player_down0
     00002C6B  Fspr_Player_down0$__xinit_spr_Pl   spr_Player_down0
     00002C7B  Fspr_Player_down0$__xinit_spr_Pl   spr_Player_down0
     00002C8B  Fspr_Player_down1$__xinit_spr_Pl   spr_Player_down1
     00002C9B  Fspr_Player_down1$__xinit_spr_Pl   spr_Player_down1
     00002CAB  Fspr_Player_down1$__xinit_spr_Pl   spr_Player_down1
     00002CBB  Fspr_Player_down1$__xinit_spr_Pl   spr_Player_down1
     00002CCB  Fspr_Player_down2$__xinit_spr_Pl   spr_Player_down2
     00002CDB  Fspr_Player_down2$__xinit_spr_Pl   spr_Player_down2
     00002CEB  Fspr_Player_down2$__xinit_spr_Pl   spr_Player_down2
     00002CFB  Fspr_Player_down2$__xinit_spr_Pl   spr_Player_down2
     00002D0B  Fspr_Player_up0$__xinit_spr_Play   spr_Player_up0
     00002D1B  Fspr_Player_up0$__xinit_spr_Play   spr_Player_up0
     00002D2B  Fspr_Player_up0$__xinit_spr_Play   spr_Player_up0
     00002D3B  Fspr_Player_up0$__xinit_spr_Play   spr_Player_up0
     00002D4B  Fspr_Player_up1$__xinit_spr_Play   spr_Player_up1
     00002D5B  Fspr_Player_up1$__xinit_spr_Play   spr_Player_up1
     00002D6B  Fspr_Player_up1$__xinit_spr_Play   spr_Player_up1
     00002D7B  Fspr_Player_up1$__xinit_spr_Play   spr_Player_up1
     00002D8B  Fspr_Player_up2$__xinit_spr_Play   spr_Player_up2
     00002D9B  Fspr_Player_up2$__xinit_spr_Play   spr_Player_up2
     00002DAB  Fspr_Player_up2$__xinit_spr_Play   spr_Player_up2
     00002DBB  Fspr_Player_up2$__xinit_spr_Play   spr_Player_up2
     00002DCB  Faction$__xinit_current_directio   action
     00002DCC  Fcan_move$__xinit_can_move$0_0$0   can_move
     00002DD0  Fentity$__xinit_next_entity_id$0   entity
     00002DD1  Fextra_actors$__xinit_extra_acto   extra_actors
     00002DD2  Fgender_selection$__xinit_GENDER   gender_selection
     00002DD3  Finput$__xinit_keys$0_0$0          input
     00002DD4  Finput$__xinit_prev_keys$0_0$0     input
     00002DD5  Finventory$__xinit_inventory_act   inventory
     00002DD6  Fload$__xinit_vram_next_index$0_   load
     00002DD7  Fload$__xinit_vram_extra_start$0   load
     00002DD8  Fmoney$__xinit_money$0_0$0         money
     00002DDA  Frandom$__xinit_seed$0_0$0         random
     00002DDC  Fmain_menu$__xinit_timer$0_0$0     main_menu
     00002DDE  Fmain_menu$__xinit_rate$0_0$0      main_menu
     00002DDF  Fmain_menu$__xinit_show_text$0_0   main_menu

ASxxxx Linker V03.00/V05.40 + sdld,  page 132.
Hexadecimal  [32-Bits]

Area                                    Addr        Size        Decimal Bytes (Attributes)
--------------------------------        ----        ----        ------- ----- ------------
_GSINIT                             00002DE1    0000000F =          15. bytes (REL,CON)

      Value  Global                              Global Defined In Module
      -----  --------------------------------   ------------------------
     00002DE1  gsinit                             Runtime

ASxxxx Linker V03.00/V05.40 + sdld,  page 133.
Hexadecimal  [32-Bits]

Area                                    Addr        Size        Decimal Bytes (Attributes)
--------------------------------        ----        ----        ------- ----- ------------
_GSFINAL                            00002DF0    00000001 =           1. bytes (REL,CON)

      Value  Global                              Global Defined In Module
      -----  --------------------------------   ------------------------
ASxxxx Linker V03.00/V05.40 + sdld,  page 134.
Hexadecimal  [32-Bits]

Area                                    Addr        Size        Decimal Bytes (Attributes)
--------------------------------        ----        ----        ------- ----- ------------
_DATA                               0000C0A0    000002BF =         703. bytes (REL,CON)

      Value  Global                              Global Defined In Module
      -----  --------------------------------   ------------------------
     0000C0A0  __cpu                              Runtime
     0000C0A1  __is_GBA                           Runtime
     0000C0A2  .mode                              Runtime
     0000C0A3  .sys_time                          Runtime
     0000C0A3  _sys_time                          Runtime
     0000C0A5  .int_0x40                          Runtime
     0000C0B1  G$animation$0_0$0                  animation
     0000C0B1  _animation                         animation
     0000C208  G$extra_actors$0_0$0               extra_actors
     0000C208  _extra_actors                      extra_actors
     0000C244  G$names$0_0$0                      name
     0000C244  _names                             name
     0000C28A  G$npc_1$0_0$0                      npcs
     0000C28A  _npc_1                             npcs
     0000C28B  G$npc_2$0_0$0                      npcs
     0000C28B  _npc_2                             npcs
     0000C28C  G$option_actor$0_0$0               npcs
     0000C28C  _option_actor                      npcs
     0000C28D  G$humor_stats$0_0$0                npcs
     0000C28D  _humor_stats                       npcs
     0000C29C  G$CurrentNPCDialogues$0_0$0        npc_lines
     0000C29C  _CurrentNPCDialogues               npc_lines
     0000C2A0  G$player$0_0$0                     player
     0000C2A0  _player                            player
     0000C2A1  G$mg_player$0_0$0                  player
     0000C2A1  _mg_player                         player
     0000C2A2  G$player_animations$0_0$0          player
     0000C2A2  _player_animations                 player
     0000C2A6  G$player_y_cache$0_0$0             player
     0000C2A6  _player_y_cache                    player
     0000C2A7  G$position$0_0$0                   position
     0000C2A7  _position                          position
     0000C2D1  G$render$0_0$0                     render
     0000C2D1  _render                            render
     0000C2E6  G$scene_manager$0_0$0              scene_manager
     0000C2E6  _scene_manager                     scene_manager
     0000C2E8  G$speed$0_0$0                      speed
     0000C2E8  _speed                             speed
     0000C2F6  G$GenderSelect$0_0$0               gender_select
     0000C2F6  _GenderSelect                      gender_select
     0000C2FE  G$InventoryScene$0_0$0             inventory_scene
     0000C2FE  _InventoryScene                    inventory_scene
     0000C306  G$MainMenu$0_0$0                   main_menu
     0000C306  _MainMenu                          main_menu
     0000C30E  G$CurrentMapData$0_0$0             map_data
     0000C30E  _CurrentMapData                    map_data
     0000C320  G$Map_00$0_0$0                     map_00
     0000C320  _Map_00                            map_00
     0000C328  G$Mg_Leaves$0_0$0                  mg_leaves
     0000C328  _Mg_Leaves                         mg_leaves
ASxxxx Linker V03.00/V05.40 + sdld,  page 135.
Hexadecimal  [32-Bits]

Area                                    Addr        Size        Decimal Bytes (Attributes)
--------------------------------        ----        ----        ------- ----- ------------
_DATA                               0000C0A0    000002BF =         703. bytes (REL,CON)

      Value  Global                              Global Defined In Module
      -----  --------------------------------   ------------------------
     0000C330  G$leaf_ids$0_0$0                   mg_leaves_init
     0000C330  _leaf_ids                          mg_leaves_init
     0000C335  G$leaf_x$0_0$0                     mg_leaves_init
     0000C335  _leaf_x                            mg_leaves_init
     0000C33A  G$leaf_y$0_0$0                     mg_leaves_init
     0000C33A  _leaf_y                            mg_leaves_init
     0000C33F  G$leaf_active$0_0$0                mg_leaves_init
     0000C33F  _leaf_active                       mg_leaves_init
     0000C344  G$leaf_timer$0_0$0                 mg_leaves_init
     0000C344  _leaf_timer                        mg_leaves_init
     0000C349  G$leaf_spawner$0_0$0               mg_leaves_init
     0000C349  _leaf_spawner                      mg_leaves_init
     0000C353  G$leaf_state$0_0$0                 mg_leaves_init
     0000C353  _leaf_state                        mg_leaves_init
     0000C358  G$mg_leaves_DATA$0_0$0             mg_leaves_init
     0000C358  _mg_leaves_DATA                    mg_leaves_init
     0000C359  Lmain.main$game$1_1$179            main
     0000C35D  ___sdcc_heap_free                  malloc

ASxxxx Linker V03.00/V05.40 + sdld,  page 136.
Hexadecimal  [32-Bits]

Area                                    Addr        Size        Decimal Bytes (Attributes)
--------------------------------        ----        ----        ------- ----- ------------
_INITIALIZED                        0000C35F    00000216 =         534. bytes (REL,CON)

      Value  Global                              Global Defined In Module
      -----  --------------------------------   ------------------------
     0000C35F  G$spr_InventoryArrow_idle$0_0$0    spr_InventoryArrow_idle
     0000C35F  _spr_InventoryArrow_idle           spr_InventoryArrow_idle
     0000C36F  G$spr_broom_00$0_0$0               broom
     0000C36F  _spr_broom_00                      broom
     0000C37F  G$spr_broom_01$0_0$0               broom
     0000C37F  _spr_broom_01                      broom
     0000C38F  G$spr_leaf_00$0_0$0                leaf
     0000C38F  _spr_leaf_00                       leaf
     0000C39F  G$spr_example_NPC_00$0_0$0         example_npc
     0000C39F  _spr_example_NPC_00                example_npc
     0000C3AF  G$spr_example_NPC_01$0_0$0         example_npc
     0000C3AF  _spr_example_NPC_01                example_npc
     0000C3BF  G$spr_example_NPC_10$0_0$0         example_npc
     0000C3BF  _spr_example_NPC_10                example_npc
     0000C3CF  G$spr_example_NPC_11$0_0$0         example_npc
     0000C3CF  _spr_example_NPC_11                example_npc
     0000C3DF  G$spr_Player_down0_00$0_0$0        spr_Player_down0
     0000C3DF  _spr_Player_down0_00               spr_Player_down0
     0000C3EF  G$spr_Player_down0_10$0_0$0        spr_Player_down0
     0000C3EF  _spr_Player_down0_10               spr_Player_down0
     0000C3FF  G$spr_Player_down0_01$0_0$0        spr_Player_down0
     0000C3FF  _spr_Player_down0_01               spr_Player_down0
     0000C40F  G$spr_Player_down0_11$0_0$0        spr_Player_down0
     0000C40F  _spr_Player_down0_11               spr_Player_down0
     0000C41F  G$spr_Player_down1_00$0_0$0        spr_Player_down1
     0000C41F  _spr_Player_down1_00               spr_Player_down1
     0000C42F  G$spr_Player_down1_10$0_0$0        spr_Player_down1
     0000C42F  _spr_Player_down1_10               spr_Player_down1
     0000C43F  G$spr_Player_down1_01$0_0$0        spr_Player_down1
     0000C43F  _spr_Player_down1_01               spr_Player_down1
     0000C44F  G$spr_Player_down1_11$0_0$0        spr_Player_down1
     0000C44F  _spr_Player_down1_11               spr_Player_down1
     0000C45F  G$spr_Player_down2_00$0_0$0        spr_Player_down2
     0000C45F  _spr_Player_down2_00               spr_Player_down2
     0000C46F  G$spr_Player_down2_10$0_0$0        spr_Player_down2
     0000C46F  _spr_Player_down2_10               spr_Player_down2
     0000C47F  G$spr_Player_down2_01$0_0$0        spr_Player_down2
     0000C47F  _spr_Player_down2_01               spr_Player_down2
     0000C48F  G$spr_Player_down2_11$0_0$0        spr_Player_down2
     0000C48F  _spr_Player_down2_11               spr_Player_down2
     0000C49F  G$spr_Player_up0_00$0_0$0          spr_Player_up0
     0000C49F  _spr_Player_up0_00                 spr_Player_up0
     0000C4AF  G$spr_Player_up0_10$0_0$0          spr_Player_up0
     0000C4AF  _spr_Player_up0_10                 spr_Player_up0
     0000C4BF  G$spr_Player_up0_01$0_0$0          spr_Player_up0
     0000C4BF  _spr_Player_up0_01                 spr_Player_up0
     0000C4CF  G$spr_Player_up0_11$0_0$0          spr_Player_up0
     0000C4CF  _spr_Player_up0_11                 spr_Player_up0
     0000C4DF  G$spr_Player_up1_00$0_0$0          spr_Player_up1
     0000C4DF  _spr_Player_up1_00                 spr_Player_up1
ASxxxx Linker V03.00/V05.40 + sdld,  page 137.
Hexadecimal  [32-Bits]

Area                                    Addr        Size        Decimal Bytes (Attributes)
--------------------------------        ----        ----        ------- ----- ------------
_INITIALIZED                        0000C35F    00000216 =         534. bytes (REL,CON)

      Value  Global                              Global Defined In Module
      -----  --------------------------------   ------------------------
     0000C4EF  G$spr_Player_up1_10$0_0$0          spr_Player_up1
     0000C4EF  _spr_Player_up1_10                 spr_Player_up1
     0000C4FF  G$spr_Player_up1_01$0_0$0          spr_Player_up1
     0000C4FF  _spr_Player_up1_01                 spr_Player_up1
     0000C50F  G$spr_Player_up1_11$0_0$0          spr_Player_up1
     0000C50F  _spr_Player_up1_11                 spr_Player_up1
     0000C51F  G$spr_Player_up2_00$0_0$0          spr_Player_up2
     0000C51F  _spr_Player_up2_00                 spr_Player_up2
     0000C52F  G$spr_Player_up2_10$0_0$0          spr_Player_up2
     0000C52F  _spr_Player_up2_10                 spr_Player_up2
     0000C53F  G$spr_Player_up2_01$0_0$0          spr_Player_up2
     0000C53F  _spr_Player_up2_01                 spr_Player_up2
     0000C54F  G$spr_Player_up2_11$0_0$0          spr_Player_up2
     0000C54F  _spr_Player_up2_11                 spr_Player_up2
     0000C55F  G$current_direction$0_0$0          action
     0000C55F  _current_direction                 action
     0000C560  G$can_move$0_0$0                   can_move
     0000C560  _can_move                          can_move
     0000C564  G$next_entity_id$0_0$0             entity
     0000C564  _next_entity_id                    entity
     0000C565  G$extra_actor_index$0_0$0          extra_actors
     0000C565  _extra_actor_index                 extra_actors
     0000C566  G$GENDER$0_0$0                     gender_selection
     0000C566  _GENDER                            gender_selection
     0000C567  G$keys$0_0$0                       input
     0000C567  _keys                              input
     0000C568  G$prev_keys$0_0$0                  input
     0000C568  _prev_keys                         input
     0000C569  G$inventory_active$0_0$0           inventory
     0000C569  _inventory_active                  inventory
     0000C56A  G$vram_next_index$0_0$0            load
     0000C56A  _vram_next_index                   load
     0000C56B  G$vram_extra_start$0_0$0           load
     0000C56B  _vram_extra_start                  load
     0000C56C  G$money$0_0$0                      money
     0000C56C  _money                             money
     0000C56E  G$seed$0_0$0                       random
     0000C56E  _seed                              random
     0000C570  G$timer$0_0$0                      main_menu
     0000C570  _timer                             main_menu
     0000C572  G$rate$0_0$0                       main_menu
     0000C572  _rate                              main_menu
     0000C573  G$show_text$0_0$0                  main_menu
     0000C573  _show_text                         main_menu
     0000C574  __map_tile_offset                  SetTileMap

ASxxxx Linker V03.00/V05.40 + sdld,  page 138.
Hexadecimal  [32-Bits]

Area                                    Addr        Size        Decimal Bytes (Attributes)
--------------------------------        ----        ----        ------- ----- ------------
_HEAP                               0000C575    000007FF =        2047. bytes (REL,CON)

      Value  Global                              Global Defined In Module
      -----  --------------------------------   ------------------------
     0000C575  ___sdcc_heap                       

ASxxxx Linker V03.00/V05.40 + sdld,  page 139.
Hexadecimal  [32-Bits]

Area                                    Addr        Size        Decimal Bytes (Attributes)
--------------------------------        ----        ----        ------- ----- ------------
_HEAP_END                           0000CD74    00000001 =           1. bytes (REL,CON)

      Value  Global                              Global Defined In Module
      -----  --------------------------------   ------------------------
     0000CD74  ___sdcc_heap_end                   

ASxxxx Linker V03.00/V05.40 + sdld,  page 140.
Hexadecimal  [32-Bits]

Area                                    Addr        Size        Decimal Bytes (Attributes)
--------------------------------        ----        ----        ------- ----- ------------
_HRAM                               0000FF80    00000013 =          19. bytes (REL,CON)

      Value  Global                              Global Defined In Module
      -----  --------------------------------   ------------------------
     0000FF80  .refresh_OAM                       Runtime
     0000FF90  __current_bank                     Runtime
     0000FF91  __vbl_done                         Runtime
     0000FF92  __shadow_OAM_base                  Runtime

ASxxxx Linker V03.00/V05.40 + sdld,  page 141.
Hexadecimal  [32-Bits]

Area                                    Addr        Size        Decimal Bytes (Attributes)
--------------------------------        ----        ----        ------- ----- ------------
_CODE_1                             00014000    00001220 =        4640. bytes (REL,CON)

      Value  Global                              Global Defined In Module
      -----  --------------------------------   ------------------------
     00014000  G$inventory_bkg_tileset$0_0$0      inventory_bkg
     00014000  _inventory_bkg_tileset             inventory_bkg
     00014340  G$inventory_bkg_tilemap$0_0$0      inventory_bkg
     00014340  _inventory_bkg_tilemap             inventory_bkg
     000144A8  G$bkg_main_menu_tileset$0_0$0      bkg_MainMenu
     000144A8  _bkg_main_menu_tileset             bkg_MainMenu
     00014768  G$bkg_main_menu_tilemap$0_0$0      bkg_MainMenu
     00014768  _bkg_main_menu_tilemap             bkg_MainMenu
     000148D0  G$example_tileset$0_0$0            map_example
     000148D0  _example_tileset                   map_example
     00014D80  G$example_tilemap$0_0$0            map_example
     00014D80  _example_tilemap                   map_example
     00014EE8  G$template_tileset$0_0$0           template_tileset
     00014EE8  _template_tileset                  template_tileset
     000150B8  G$template_tilemap$0_0$0           template_tileset
     000150B8  _template_tilemap                  template_tileset

ASxxxx Linker V03.00/V05.40 + sdld,  page 142.

Files Linked                              [ module(s) ]

C:\Program Files\GBDK\lib/gb/crt0.o       [ Runtime ]
C:\Users\Bau_M\AppData\Local\Temp/lcc256160.o
                                          [ chars ]
C:\Users\Bau_M\AppData\Local\Temp/lcc256161.o
                                          [ numbers ]
C:\Users\Bau_M\AppData\Local\Temp/lcc256162.o
                                          [ gender_select_tilemap ]
C:\Users\Bau_M\AppData\Local\Temp/lcc256163.o
                                          [ gender_select_tileset ]
C:\Users\Bau_M\AppData\Local\Temp/lcc256164.o
                                          [ inventory_bkg ]
C:\Users\Bau_M\AppData\Local\Temp/lcc256165.o
                                          [ bkg_MainMenu ]
C:\Users\Bau_M\AppData\Local\Temp/lcc256166.o
                                          [ map_example ]
C:\Users\Bau_M\AppData\Local\Temp/lcc256167.o
                                          [ npc_icons ]
C:\Users\Bau_M\AppData\Local\Temp/lcc256168.o
                                          [ template_tileset ]
C:\Users\Bau_M\AppData\Local\Temp/lcc256169.o
                                          [ spr_InventoryArrow_idle ]
C:\Users\Bau_M\AppData\Local\Temp/lcc2561610.o
                                          [ spr_Branch ]
C:\Users\Bau_M\AppData\Local\Temp/lcc2561611.o
                                          [ broom ]
C:\Users\Bau_M\AppData\Local\Temp/lcc2561612.o
                                          [ leaf ]
C:\Users\Bau_M\AppData\Local\Temp/lcc2561613.o
                                          [ example_npc ]
C:\Users\Bau_M\AppData\Local\Temp/lcc2561614.o
                                          [ spr_Player_down0 ]
C:\Users\Bau_M\AppData\Local\Temp/lcc2561615.o
                                          [ spr_Player_down1 ]
C:\Users\Bau_M\AppData\Local\Temp/lcc2561616.o
                                          [ spr_Player_down2 ]
C:\Users\Bau_M\AppData\Local\Temp/lcc2561617.o
                                          [ spr_Player_up0 ]
C:\Users\Bau_M\AppData\Local\Temp/lcc2561618.o
                                          [ spr_Player_up1 ]
C:\Users\Bau_M\AppData\Local\Temp/lcc2561619.o
                                          [ spr_Player_up2 ]
C:\Users\Bau_M\AppData\Local\Temp/lcc2561620.o
                                          [ action ]
C:\Users\Bau_M\AppData\Local\Temp/lcc2561621.o
                                          [ animation ]
C:\Users\Bau_M\AppData\Local\Temp/lcc2561622.o
                                          [ can_move ]
C:\Users\Bau_M\AppData\Local\Temp/lcc2561623.o
                                          [ char_to_tile ]
C:\Users\Bau_M\AppData\Local\Temp/lcc2561624.o
                                          [ collision ]
C:\Users\Bau_M\AppData\Local\Temp/lcc2561625.o
                                          [ draw ]
C:\Users\Bau_M\AppData\Local\Temp/lcc2561626.o
                                          [ entity ]
C:\Users\Bau_M\AppData\Local\Temp/lcc2561627.o
                                          [ extra_actors ]
C:\Users\Bau_M\AppData\Local\Temp/lcc2561628.o
                                          [ gender_selection ]
C:\Users\Bau_M\AppData\Local\Temp/lcc2561629.o
                                          [ input ]
C:\Users\Bau_M\AppData\Local\Temp/lcc2561630.o
                                          [ inventory ]
C:\Users\Bau_M\AppData\Local\Temp/lcc2561631.o
                                          [ inventory_input ]
C:\Users\Bau_M\AppData\Local\Temp/lcc2561632.o
                                          [ load ]
C:\Users\Bau_M\AppData\Local\Temp/lcc2561633.o
                                          [ map_scenes ]
C:\Users\Bau_M\AppData\Local\Temp/lcc2561634.o
                                          [ money ]
C:\Users\Bau_M\AppData\Local\Temp/lcc2561635.o
                                          [ name ]
C:\Users\Bau_M\AppData\Local\Temp/lcc2561636.o
                                          [ npcs ]
C:\Users\Bau_M\AppData\Local\Temp/lcc2561637.o
                                          [ npc_lines ]
C:\Users\Bau_M\AppData\Local\Temp/lcc2561638.o
                                          [ player ]
C:\Users\Bau_M\AppData\Local\Temp/lcc2561639.o
                                          [ position ]
C:\Users\Bau_M\AppData\Local\Temp/lcc2561640.o
                                          [ random ]
C:\Users\Bau_M\AppData\Local\Temp/lcc2561641.o
                                          [ render ]
C:\Users\Bau_M\AppData\Local\Temp/lcc2561642.o
                                          [ scene ]
C:\Users\Bau_M\AppData\Local\Temp/lcc2561643.o
                                          [ scene_manager ]
C:\Users\Bau_M\AppData\Local\Temp/lcc2561644.o
                                          [ speed ]
C:\Users\Bau_M\AppData\Local\Temp/lcc2561645.o
                                          [ gender_select ]
C:\Users\Bau_M\AppData\Local\Temp/lcc2561646.o
                                          [ gender_select_init ]
C:\Users\Bau_M\AppData\Local\Temp/lcc2561647.o
                                          [ gender_select_update ]
C:\Users\Bau_M\AppData\Local\Temp/lcc2561648.o
                                          [ inventory_scene ]
C:\Users\Bau_M\AppData\Local\Temp/lcc2561649.o
                                          [ inventory_scene_init ]
C:\Users\Bau_M\AppData\Local\Temp/lcc2561650.o
                                          [ inventory_scene_update ]
C:\Users\Bau_M\AppData\Local\Temp/lcc2561651.o
                                          [ main_menu ]
C:\Users\Bau_M\AppData\Local\Temp/lcc2561652.o
                                          [ main_menu_init ]
C:\Users\Bau_M\AppData\Local\Temp/lcc2561653.o
                                          [ main_menu_init_stats ]
C:\Users\Bau_M\AppData\Local\Temp/lcc2561654.o
                                          [ main_menu_input ]
C:\Users\Bau_M\AppData\Local\Temp/lcc2561655.o
                                          [ main_menu_update ]
C:\Users\Bau_M\AppData\Local\Temp/lcc2561656.o
                                          [ clean_text ]
C:\Users\Bau_M\AppData\Local\Temp/lcc2561657.o
                                          [ map_collision ]
C:\Users\Bau_M\AppData\Local\Temp/lcc2561658.o
                                          [ map_data ]
C:\Users\Bau_M\AppData\Local\Temp/lcc2561659.o
                                          [ map_player_movement ]
C:\Users\Bau_M\AppData\Local\Temp/lcc2561660.o
                                          [ map_00 ]
C:\Users\Bau_M\AppData\Local\Temp/lcc2561661.o
                                          [ map_00_collision ]
C:\Users\Bau_M\AppData\Local\Temp/lcc2561662.o
                                          [ map_00_init ]
C:\Users\Bau_M\AppData\Local\Temp/lcc2561663.o
                                          [ map_00_init_dialogues ]
C:\Users\Bau_M\AppData\Local\Temp/lcc2561664.o
                                          [ map_00_init_npc ]
C:\Users\Bau_M\AppData\Local\Temp/lcc2561665.o
                                          [ map_00_update ]
C:\Users\Bau_M\AppData\Local\Temp/lcc2561666.o
                                          [ mg_player_movement ]
C:\Users\Bau_M\AppData\Local\Temp/lcc2561667.o
                                          [ mini_games ]
C:\Users\Bau_M\AppData\Local\Temp/lcc2561668.o
                                          [ mg_leaves ]
C:\Users\Bau_M\AppData\Local\Temp/lcc2561669.o
                                          [ mg_leaves_init ]
C:\Users\Bau_M\AppData\Local\Temp/lcc2561670.o
                                          [ mg_leaves_player_init ]
C:\Users\Bau_M\AppData\Local\Temp/lcc2561671.o
                                          [ mg_leaves_update ]
C:\Users\Bau_M\AppData\Local\Temp/lcc2561672.o
                                          [ main ]


Libraries Linked                          [ object file ]

C:\Program Files\GBDK\lib/gb/gb.lib       [ sfr.o ]
C:\Program Files\GBDK\lib/sm83/sm83.lib   [ div.o ]
C:\Program Files\GBDK\lib/sm83/sm83.lib   [ free.o ]
C:\Program Files\GBDK\lib/sm83/sm83.lib   [ malloc.o ]
C:\Program Files\GBDK\lib/gb/gb.lib       [ set_data.o ]
C:\Program Files\GBDK\lib/sm83/sm83.lib   [ mul.o ]
C:\Program Files\GBDK\lib/gb/gb.lib       [ pad.o ]
C:\Program Files\GBDK\lib/sm83/sm83.lib   [ memcpy.o ]
C:\Program Files\GBDK\lib/sm83/sm83.lib   [ __sdcc_call_hl.o ]
C:\Program Files\GBDK\lib/gb/gb.lib       [ heap.o ]
C:\Program Files\GBDK\lib/gb/gb.lib       [ set_bk_t.o ]
C:\Program Files\GBDK\lib/gb/gb.lib       [ set_xy_t.o ]

ASxxxx Linker V03.00/V05.40 + sdld,  page 143.

User Base Address Definitions

_DATA=0xC0A0
_CODE=0x0200
_HRAM=0xFF80
ASxxxx Linker V03.00/V05.40 + sdld,  page 144.

User Global Definitions

_shadow_OAM=0xC000
.STACK=0xE000

