ASxxxx Linker V03.00/V05.40 + sdld,  page 1.
Hexadecimal  [32-Bits]

Area                       Addr        Size        Decimal Bytes (Attributes)
--------------------       ----        ----        ------- ----- ------------
.  .ABS.               00000000    00000000 =           0. bytes (ABS,CON)

        Value  Global            Value  Global            Value  Global    
        -----  ------            -----  ------            -----  ------    
     00000000  .__.ABS.  |    00000000  _rMBC7_SR |    00000000  _rRAMG   
     00000000  l__BASE   |    00000000  l__BSS    |    00000000  l__CABS  
     00000000  l__CODE_0 |    00000000  l__DABS   |    00000000  l__HEADER
     00000000  l__LIT    |    00000000  s__CABS   |    00000000  s__DABS  
     00000000  s__HEADER |    00000000  s__HEADER |    00000000  s__HEADER
     00000000  s__HEADER |    00000000  s__HEADER |    00000000  s__HEADER
     00000000  s__HEADER |    00000000  s__HEADER |    00000000  s__HEADER
     00000000  s__HEADER |    00000000  s__HEADER |    00000000  s__HEADER
     00000000  s__HEADER |    00000000  s__HEADER |    00000000  s__HEADER
     00000000  s__HEADER |    00000000  s__HEADER |    00000000  s__HEADER
     00000000  s__HEADER |    00000001  l__GSFINA |    00000001  l__HEADER
     00000001  l__HEADER |    00000001  l__HEADER |    00000001  l__HEADER
     00000001  l__HEADER |    00000001  l__HEADER |    00000001  l__HEADER
     00000001  l__HEAP_E |    00000002  l__HEADER |    00000002  l__HEADER
     00000002  l__HEADER |    00000003  l__HEADER |    00000005  l__HEADER
     00000006  l__HEADER |    00000007  l__HEADER |    00000008  l__HEADER
     0000000F  l__GSINIT |    00000013  l__HRAM   |    00000030  l__HEADER
     00000060  l__HEADER |    000000AB  l__HEADER |    0000012C  l__HOME  
     00000200  s__CODE   |    000004C4  l__DATA   |    000007FF  l__HEAP  
     00000B09  l__INITIA |    00000B09  l__INITIA |    00002000  _rROMB0  
     000022DD  l__CODE_1 |    0000258C  l__CODE_6 |    0000267B  l__CODE_5
     00002B55  l__CODE_2 |    00002D81  l__CODE   |    00002F81  s__HOME  
     00003000  _rROMB1   |    000030AD  s__BASE   |    000030AD  s__CODE_0
     000030AD  s__INITIA |    000030AD  s__LIT    |    00003736  l__CODE_3
     00003794  l__CODE_4 |    00003BB6  s__GSINIT |    00003BC5  s__GSFINA
     00004000  _rMBC7_SR |    00004000  _rRAMB    |    00008000  __VRAM   
     00008000  __VRAM800 |    00008800  __VRAM880 |    00009000  __VRAM900
     00009800  __SCRN0   |    00009C00  __SCRN1   |    0000A000  __SRAM   
     0000A000  _rMBC7_LA |    0000A010  _rMBC7_LA |    0000A020  _rMBC7_AC
     0000A030  _rMBC7_AC |    0000A040  _rMBC7_AC |    0000A050  _rMBC7_AC
     0000C000  __RAM     |    0000C000  _shadow_O |    0000C0A0  s__DATA  
     0000C564  s__BSS    |    0000C564  s__INITIA |    0000D000  __RAMBANK
     0000D06D  s__HEAP   |    0000D86C  s__HEAP_E |    0000E000  .STACK   
     0000FE00  __OAMRAM  |    0000FF00  _P1_REG   |    0000FF00  __IO     
     0000FF01  _SB_REG   |    0000FF02  _SC_REG   |    0000FF04  _DIV_REG 
     0000FF05  _TIMA_REG |    0000FF06  _TMA_REG  |    0000FF07  _TAC_REG 
     0000FF0F  _IF_REG   |    0000FF10  _NR10_REG |    0000FF11  _NR11_REG
     0000FF12  _NR12_REG |    0000FF13  _NR13_REG |    0000FF14  _NR14_REG
     0000FF16  _NR21_REG |    0000FF17  _NR22_REG |    0000FF18  _NR23_REG
     0000FF19  _NR24_REG |    0000FF1A  _NR30_REG |    0000FF1B  _NR31_REG
     0000FF1C  _NR32_REG |    0000FF1D  _NR33_REG |    0000FF1E  _NR34_REG
     0000FF20  _NR41_REG |    0000FF21  _NR42_REG |    0000FF22  _NR43_REG
     0000FF23  _NR44_REG |    0000FF24  _NR50_REG |    0000FF25  _NR51_REG
     0000FF26  _NR52_REG |    0000FF30  _AUD3WAVE |    0000FF30  _PCM_SAMP
     0000FF30  __AUD3WAV |    0000FF40  _LCDC_REG |    0000FF41  _STAT_REG
     0000FF42  _SCY_REG  |    0000FF43  _SCX_REG  |    0000FF44  _LY_REG  
     0000FF45  _LYC_REG  |    0000FF46  _DMA_REG  |    0000FF47  _BGP_REG 
     0000FF48  _OBP0_REG |    0000FF49  _OBP1_REG |    0000FF4A  _WY_REG  
     0000FF4B  _WX_REG   |    0000FF4D  _KEY1_REG |    0000FF4F  _VBK_REG 
     0000FF51  _HDMA1_RE |    0000FF52  _HDMA2_RE |    0000FF53  _HDMA3_RE
ASxxxx Linker V03.00/V05.40 + sdld,  page 2.
Hexadecimal  [32-Bits]

Area                       Addr        Size        Decimal Bytes (Attributes)
--------------------       ----        ----        ------- ----- ------------
.  .ABS.               00000000    00000000 =           0. bytes (ABS,CON)

        Value  Global            Value  Global            Value  Global    
        -----  ------            -----  ------            -----  ------    
     0000FF54  _HDMA4_RE |    0000FF55  _HDMA5_RE |    0000FF56  _RP_REG  
     0000FF68  _BCPS_REG |    0000FF69  _BCPD_REG |    0000FF6A  _OCPS_REG
     0000FF6B  _OCPD_REG |    0000FF70  _SVBK_REG |    0000FF76  _PCM12_RE
     0000FF77  _PCM34_RE |    0000FF80  __HRAM    |    0000FF80  s__HRAM  
     0000FFFF  _IE_REG   |    00014000  s__CODE_1 |    00024000  s__CODE_2
     00034000  s__CODE_3 |    00044000  s__CODE_4 |    00054000  s__CODE_5
     00064000  s__CODE_6
ASxxxx Linker V03.00/V05.40 + sdld,  page 3.
Hexadecimal  [32-Bits]

Area                       Addr        Size        Decimal Bytes (Attributes)
--------------------       ----        ----        ------- ----- ------------
_CODE                  00000200    00002D81 =       11649. bytes (REL,CON)

        Value  Global            Value  Global            Value  Global    
        -----  ------            -----  ------            -----  ------    
     00000200  _items_ti |    00000250  _items_ti |    00000254  _numbers_
     000002F4  _numbers_ |    000002FE  _init_but |    0000030C  _buttons_
     0000033C  _buttons_ |    0000033F  _chars_ti |    0000053F  _chars_ti
     0000055E  _InitNPCI |    0000056C  _npc_icon |    000005CC  _npc_icon
     000005D2  _homework |    00000602  _homework |    00000604  _template
     000007D4  _template |    0000093C  _text_fra |    00000A9C  _text_fra
     00000AB5  _TextFram |    00000AF5  _TextFram |    00000D8F  _load_num
     00000DAC  _main     |    00000E79  _Mg_SetCo |    000010B7  _correct_
     000010B8  _ItemNoUs |    00001239  _Map_Coll |    000014AF  _clean   
     00001516  _empty_ti |    00001517  _Map_Play |    00001660  _Map_Auto
     00001671  _Story_Cr |    00001685  _my_rand  |    000016B2  _Scene_De
     000016C9  _create_e |    000016DC  _reset_en |    000016E2  _check_co
     0000175A  _init_mgm |    0000177A  _init_NPC |    0000178D  _Scene_Dr
     00001BB5  _SceneMan |    00001C17  _SceneMan |    00001C26  _SceneMan
     00001D12  _Intermit |    00001D60  _render_r |    00001D72  _draw_act
     00001F21  _draw_ext |    000021B8  _init_inv |    000021E0  _scene_ma
     0000242B  _move_up  |    00002481  _move_dow |    000024D1  _move_lef
     00002527  _move_rig |    00002579  _init_ani |    000025FF  _update_a
     00002641  _set_anim |    00002665  _char_to_ |    00002769  _add_mone
     000027A7  _load_act |    0000280E  _reset_ex |    00002814  _reset_re
     00002835  _create_p |    0000284E  _init_pla |    00002B02  _cache_pl
     00002B69  _free     |    00002C79  __divsuch |    00002C7F  __modsuch
     00002C88  __divusch |    00002C91  __modusch |    00002C9D  __divscha
     00002CA2  __modscha |    00002CA9  __divsint |    00002CB2  __modsint
     00002CBE  __divucha |    00002CC3  __moducha |    00002CCA  __divuint
     00002CD3  __moduint |    00002CDF  .div8     |    00002CDF  .mod8    
     00002CE7  .div16    |    00002CE7  .mod16    |    00002D1D  .divu8   
     00002D1D  .modu8    |    00002D20  .divu16   |    00002D20  .modu16  
     00002D60  _get_vram |    00002D68  _get_win_ |    00002D70  _get_bkg_
     00002D97  ___sdcc_h |    00002DB9  _malloc   |    00002EC9  _set_vram
     00002ED2  _set_win_ |    00002EDB  _set_bkg_ |    00002F0A  __mulsuch
     00002F0D  __mulusch |    00002F16  __mulscha |    00002F1E  __mulint 
     00002F3D  __mulucha |    00002F4F  ___memcpy |    00002F4F  _memcpy  
ASxxxx Linker V03.00/V05.40 + sdld,  page 4.
Hexadecimal  [32-Bits]

Area                       Addr        Size        Decimal Bytes (Attributes)
--------------------       ----        ----        ------- ----- ------------
_HEADER0               00000000    00000001 =           1. bytes (ABS,CON)

        Value  Global            Value  Global            Value  Global    
        -----  ------            -----  ------            -----  ------    
     00000020  .call_hl 
ASxxxx Linker V03.00/V05.40 + sdld,  page 5.
Hexadecimal  [32-Bits]

Area                       Addr        Size        Decimal Bytes (Attributes)
--------------------       ----        ----        ------- ----- ------------
_HEADER1               00000000    00000005 =           5. bytes (ABS,CON)

        Value  Global            Value  Global            Value  Global    
        -----  ------            -----  ------            -----  ------    
     00000028  .MemsetSm
ASxxxx Linker V03.00/V05.40 + sdld,  page 6.
Hexadecimal  [32-Bits]

Area                       Addr        Size        Decimal Bytes (Attributes)
--------------------       ----        ----        ------- ----- ------------
_HEADER2               00000000    00000007 =           7. bytes (ABS,CON)

        Value  Global            Value  Global            Value  Global    
        -----  ------            -----  ------            -----  ------    
     00000030  .MemcpySm
ASxxxx Linker V03.00/V05.40 + sdld,  page 7.
Hexadecimal  [32-Bits]

Area                       Addr        Size        Decimal Bytes (Attributes)
--------------------       ----        ----        ------- ----- ------------
_HEADER3               00000000    00000008 =           8. bytes (ABS,CON)

        Value  Global            Value  Global            Value  Global    
        -----  ------            -----  ------            -----  ------    
ASxxxx Linker V03.00/V05.40 + sdld,  page 8.
Hexadecimal  [32-Bits]

Area                       Addr        Size        Decimal Bytes (Attributes)
--------------------       ----        ----        ------- ----- ------------
_HEADER4               00000000    00000060 =          96. bytes (ABS,CON)

        Value  Global            Value  Global            Value  Global    
        -----  ------            -----  ------            -----  ------    
     00000080  .int      |    0000008F  _wait_int |    0000009C  __standar
     000000AB  _refresh_ |    000000CC  _set_inte
ASxxxx Linker V03.00/V05.40 + sdld,  page 9.
Hexadecimal  [32-Bits]

Area                       Addr        Size        Decimal Bytes (Attributes)
--------------------       ----        ----        ------- ----- ------------
_HEADER5               00000000    00000001 =           1. bytes (ABS,CON)

        Value  Global            Value  Global            Value  Global    
        -----  ------            -----  ------            -----  ------    
ASxxxx Linker V03.00/V05.40 + sdld,  page 10.
Hexadecimal  [32-Bits]

Area                       Addr        Size        Decimal Bytes (Attributes)
--------------------       ----        ----        ------- ----- ------------
_HEADER6               00000000    00000002 =           2. bytes (ABS,CON)

        Value  Global            Value  Global            Value  Global    
        -----  ------            -----  ------            -----  ------    
ASxxxx Linker V03.00/V05.40 + sdld,  page 11.
Hexadecimal  [32-Bits]

Area                       Addr        Size        Decimal Bytes (Attributes)
--------------------       ----        ----        ------- ----- ------------
_HEADER7               00000000    00000030 =          48. bytes (ABS,CON)

        Value  Global            Value  Global            Value  Global    
        -----  ------            -----  ------            -----  ------    
ASxxxx Linker V03.00/V05.40 + sdld,  page 12.
Hexadecimal  [32-Bits]

Area                       Addr        Size        Decimal Bytes (Attributes)
--------------------       ----        ----        ------- ----- ------------
_HEADER8               00000000    00000006 =           6. bytes (ABS,CON)

        Value  Global            Value  Global            Value  Global    
        -----  ------            -----  ------            -----  ------    
ASxxxx Linker V03.00/V05.40 + sdld,  page 13.
Hexadecimal  [32-Bits]

Area                       Addr        Size        Decimal Bytes (Attributes)
--------------------       ----        ----        ------- ----- ------------
_HEADER9               00000000    00000003 =           3. bytes (ABS,CON)

        Value  Global            Value  Global            Value  Global    
        -----  ------            -----  ------            -----  ------    
ASxxxx Linker V03.00/V05.40 + sdld,  page 14.
Hexadecimal  [32-Bits]

Area                       Addr        Size        Decimal Bytes (Attributes)
--------------------       ----        ----        ------- ----- ------------
_HEADERa               00000000    00000001 =           1. bytes (ABS,CON)

        Value  Global            Value  Global            Value  Global    
        -----  ------            -----  ------            -----  ------    
ASxxxx Linker V03.00/V05.40 + sdld,  page 15.
Hexadecimal  [32-Bits]

Area                       Addr        Size        Decimal Bytes (Attributes)
--------------------       ----        ----        ------- ----- ------------
_HEADERb               00000000    00000001 =           1. bytes (ABS,CON)

        Value  Global            Value  Global            Value  Global    
        -----  ------            -----  ------            -----  ------    
ASxxxx Linker V03.00/V05.40 + sdld,  page 16.
Hexadecimal  [32-Bits]

Area                       Addr        Size        Decimal Bytes (Attributes)
--------------------       ----        ----        ------- ----- ------------
_HEADERc               00000000    00000001 =           1. bytes (ABS,CON)

        Value  Global            Value  Global            Value  Global    
        -----  ------            -----  ------            -----  ------    
ASxxxx Linker V03.00/V05.40 + sdld,  page 17.
Hexadecimal  [32-Bits]

Area                       Addr        Size        Decimal Bytes (Attributes)
--------------------       ----        ----        ------- ----- ------------
_HEADERd               00000000    00000002 =           2. bytes (ABS,CON)

        Value  Global            Value  Global            Value  Global    
        -----  ------            -----  ------            -----  ------    
ASxxxx Linker V03.00/V05.40 + sdld,  page 18.
Hexadecimal  [32-Bits]

Area                       Addr        Size        Decimal Bytes (Attributes)
--------------------       ----        ----        ------- ----- ------------
_HEADERe               00000000    00000001 =           1. bytes (ABS,CON)

        Value  Global            Value  Global            Value  Global    
        -----  ------            -----  ------            -----  ------    
ASxxxx Linker V03.00/V05.40 + sdld,  page 19.
Hexadecimal  [32-Bits]

Area                       Addr        Size        Decimal Bytes (Attributes)
--------------------       ----        ----        ------- ----- ------------
_HEADERf               00000000    00000001 =           1. bytes (ABS,CON)

        Value  Global            Value  Global            Value  Global    
        -----  ------            -----  ------            -----  ------    
ASxxxx Linker V03.00/V05.40 + sdld,  page 20.
Hexadecimal  [32-Bits]

Area                       Addr        Size        Decimal Bytes (Attributes)
--------------------       ----        ----        ------- ----- ------------
_HEADER10              00000000    00000002 =           2. bytes (ABS,CON)

        Value  Global            Value  Global            Value  Global    
        -----  ------            -----  ------            -----  ------    
ASxxxx Linker V03.00/V05.40 + sdld,  page 21.
Hexadecimal  [32-Bits]

Area                       Addr        Size        Decimal Bytes (Attributes)
--------------------       ----        ----        ------- ----- ------------
_HEADER11              00000000    000000AB =         171. bytes (ABS,CON)

        Value  Global            Value  Global            Value  Global    
        -----  ------            -----  ------            -----  ------    
     00000150  .reset    |    00000150  _reset    |    00000157  .code_sta
     000001B9  _exit     |    000001BD  .wait_vbl |    000001BD  _vsync   
     000001BD  _wait_vbl |    000001CD  .remove_V |    000001CD  _remove_V
     000001D0  .remove_i |    000001ED  .add_VBL  |    000001ED  _add_VBL 
     000001F0  .add_int 
ASxxxx Linker V03.00/V05.40 + sdld,  page 22.
Hexadecimal  [32-Bits]

Area                       Addr        Size        Decimal Bytes (Attributes)
--------------------       ----        ----        ------- ----- ------------
_HOME                  00002F81    0000012C =         300. bytes (REL,CON)

        Value  Global            Value  Global            Value  Global    
        -----  ------            -----  ------            -----  ------    
     00002F81  .memset_s |    00002F8A  .memcpy_s |    00002FA7  .display_
     00002FA7  _display_ |    00002FBF  _set_tile |    00002FC4  _set_bkg_
     00002FC4  _set_win_ |    00002FCC  _set_spri |    00002FFC  .padup   
     00002FFC  _waitpadu |    0000300C  .jpad     |    0000300C  _joypad  
     00003034  _waitpad  |    00003035  .wait_pad |    0000303C  ___sdcc_c
     0000303D  _set_bkg_ |    00003051  .set_xy_w |    0000305A  .set_xy_b
     00003069  .set_xy_t
ASxxxx Linker V03.00/V05.40 + sdld,  page 23.
Hexadecimal  [32-Bits]

Area                       Addr        Size        Decimal Bytes (Attributes)
--------------------       ----        ----        ------- ----- ------------
_INITIALIZER           000030AD    00000B09 =        2825. bytes (REL,CON)

        Value  Global            Value  Global            Value  Global    
        -----  ------            -----  ------            -----  ------    
ASxxxx Linker V03.00/V05.40 + sdld,  page 24.
Hexadecimal  [32-Bits]

Area                       Addr        Size        Decimal Bytes (Attributes)
--------------------       ----        ----        ------- ----- ------------
_GSINIT                00003BB6    0000000F =          15. bytes (REL,CON)

        Value  Global            Value  Global            Value  Global    
        -----  ------            -----  ------            -----  ------    
     00003BB6  gsinit   
ASxxxx Linker V03.00/V05.40 + sdld,  page 25.
Hexadecimal  [32-Bits]

Area                       Addr        Size        Decimal Bytes (Attributes)
--------------------       ----        ----        ------- ----- ------------
_GSFINAL               00003BC5    00000001 =           1. bytes (REL,CON)

        Value  Global            Value  Global            Value  Global    
        -----  ------            -----  ------            -----  ------    
ASxxxx Linker V03.00/V05.40 + sdld,  page 26.
Hexadecimal  [32-Bits]

Area                       Addr        Size        Decimal Bytes (Attributes)
--------------------       ----        ----        ------- ----- ------------
_DATA                  0000C0A0    000004C4 =        1220. bytes (REL,CON)

        Value  Global            Value  Global            Value  Global    
        -----  ------            -----  ------            -----  ------    
     0000C0A0  __cpu     |    0000C0A1  __is_GBA  |    0000C0A2  .mode    
     0000C0A3  .sys_time |    0000C0A3  _sys_time |    0000C0A5  .int_0x40
     0000C0B1  _backup_t |    0000C119  _Mg_Leave |    0000C122  _actor_id
     0000C127  _actor_x  |    0000C12C  _actor_y  |    0000C131  _fixed_y 
     0000C13B  _actor_ac |    0000C140  _actor_ti |    0000C145  _actor_sp
     0000C14F  _actor_sp |    0000C154  _actor_st |    0000C159  _mg_leave
     0000C15C  _availabl |    0000C161  _Mg_Homew |    0000C16A  _Map_20  
     0000C173  _Map_23   |    0000C17C  _Map_00   |    0000C185  _Map_01  
     0000C18E  _Map_33   |    0000C197  _Map_10   |    0000C1A0  _Map_21  
     0000C1A9  _Map_11   |    0000C1B2  _Map_12   |    0000C1BB  _Map_13  
     0000C1C4  _Map_32   |    0000C1CD  _Map_30   |    0000C1D6  _Map_03  
     0000C1DF  _Map_22   |    0000C1E8  _CurrentM |    0000C1FE  _Map_02  
     0000C207  _Map_31   |    0000C210  _MainMenu |    0000C219  _GenderSe
     0000C222  _Story    |    0000C22B  _story_li |    0000C273  _Inventor
     0000C27C  _Language |    0000C285  _CurrentN |    0000C289  _MGM_stat
     0000C28A  _npc_1    |    0000C28B  _npc_2    |    0000C28C  _option_a
     0000C28D  _humor_st |    0000C296  _relation |    0000C29F  _dialogue
     0000C2A8  _scene_ma |    0000C2AC  _render   |    0000C2C1  _names   
     0000C307  _position |    0000C331  _cache    |    0000C362  _actual_t
     0000C366  _inventor |    0000C3BA  _animatio |    0000C511  _extra_ac
     0000C54D  _speed    |    0000C55B  _player   |    0000C55C  _mg_playe
     0000C55D  _player_a |    0000C561  _player_y |    0000C562  ___sdcc_h
ASxxxx Linker V03.00/V05.40 + sdld,  page 27.
Hexadecimal  [32-Bits]

Area                       Addr        Size        Decimal Bytes (Attributes)
--------------------       ----        ----        ------- ----- ------------
_INITIALIZED           0000C564    00000B09 =        2825. bytes (REL,CON)

        Value  Global            Value  Global            Value  Global    
        -----  ------            -----  ------            -----  ------    
     0000C564  _spr_Righ |    0000C574  _spr_lang |    0000C584  _spr_Chic
     0000C594  _spr_Chic |    0000C5A4  _spr_Chic |    0000C5B4  _spr_Chic
     0000C5C4  _spr_Viej |    0000C5D4  _spr_Viej |    0000C5E4  _spr_Viej
     0000C5F4  _spr_Viej |    0000C604  _spr_exam |    0000C614  _spr_exam
     0000C624  _spr_exam |    0000C634  _spr_exam |    0000C644  _spr_Firu
     0000C654  _spr_Firu |    0000C664  _spr_Firu |    0000C674  _spr_Firu
     0000C684  _spr_Firu |    0000C694  _spr_Firu |    0000C6A4  _spr_Firu
     0000C6B4  _spr_Firu |    0000C6C4  _spr_Firu |    0000C6D4  _spr_Firu
     0000C6E4  _spr_Firu |    0000C6F4  _spr_Firu |    0000C704  _spr_Viej
     0000C714  _spr_Viej |    0000C724  _spr_Viej |    0000C734  _spr_Viej
     0000C744  _spr_Viej |    0000C754  _spr_Viej |    0000C764  _spr_Viej
     0000C774  _spr_Viej |    0000C784  _spr_Viej |    0000C794  _spr_Viej
     0000C7A4  _spr_Viej |    0000C7B4  _spr_Viej |    0000C7C4  _spr_Viej
     0000C7D4  _spr_Viej |    0000C7E4  _spr_Viej |    0000C7F4  _spr_Viej
     0000C804  _spr_Pend |    0000C814  _spr_Pend |    0000C824  _spr_Pend
     0000C834  _spr_Pend |    0000C844  _spr_Mart |    0000C854  _spr_Mart
     0000C864  _spr_Mart |    0000C874  _spr_Mart |    0000C884  _spr_Mart
     0000C894  _spr_Mart |    0000C8A4  _spr_Mart |    0000C8B4  _spr_Mart
     0000C8C4  _spr_Mart |    0000C8D4  _spr_Mart |    0000C8E4  _spr_Mart
     0000C8F4  _spr_Mart |    0000C904  _spr_Flag |    0000C914  _spr_Flag
     0000C924  _spr_Flag |    0000C934  _spr_Flag |    0000C944  _spr_Flag
     0000C954  _spr_Flag |    0000C964  _spr_Flag |    0000C974  _spr_Flag
     0000C984  _spr_Viej |    0000C994  _spr_Viej |    0000C9A4  _spr_Viej
     0000C9B4  _spr_Viej |    0000C9C4  _spr_Pige |    0000C9D4  _spr_Pige
     0000C9E4  _spr_Mart |    0000CA24  _spr_Mart |    0000CA64  _spr_Mart
     0000CAA4  _spr_Mart |    0000CAE4  _spr_Play |    0000CAF4  _spr_Play
     0000CB04  _spr_Play |    0000CB14  _spr_Play |    0000CB24  _spr_Play
     0000CB34  _spr_Play |    0000CB44  _spr_Play |    0000CB54  _spr_Play
     0000CB64  _spr_Play |    0000CB74  _spr_Play |    0000CB84  _spr_Play
     0000CB94  _spr_Play |    0000CBA4  _spr_Play |    0000CBB4  _spr_Play
     0000CBC4  _spr_Play |    0000CBD4  _spr_Play |    0000CBE4  _spr_Play
     0000CBF4  _spr_Play |    0000CC04  _spr_Play |    0000CC14  _spr_Play
     0000CC24  _spr_Play |    0000CC34  _spr_Play |    0000CC44  _spr_Play
     0000CC54  _spr_Play |    0000CC64  _spr_Bran |    0000CC74  _spr_leaf
     0000CC84  _spr_leaf |    0000CC94  _spr_acor |    0000CCA4  _spr_leaf
     0000CCB4  _spr_broo |    0000CCC4  _spr_broo |    0000CCD4  _spr_garb
     0000CCE4  _SWEEPING |    0000CCE5  _next_spa |    0000CCE6  _min_acor
     0000CCE7  _min_leav |    0000CCE8  _acorns_c |    0000CCE9  _leaves_c
     0000CCEA  _mgt_curr |    0000CCEC  _mgt_targ |    0000CCEE  _mgt_runn
     0000CCEF  _mgt_alar |    0000CCF0  _row_tile |    0000CCF1  _correct_
     0000CCF2  _test     |    0000CED2  _mgl_curr |    0000CED3  _mgl_targ
     0000CED4  _mgl_acti |    0000CED5  _mgl_init |    0000CED6  _purchase
     0000CED7  _dog_acti |    0000CED8  _map_12_c |    0000D040  _mg_32_tm
     0000D041  _tmp_rela |    0000D042  _tmp_rela |    0000D043  _mg_ended
     0000D044  _npc_appe |    0000D045  _temp_rel |    0000D046  _auto_cle
     0000D047  _auto_cle |    0000D048  _timer    |    0000D04A  _rate    
     0000D04B  _show_tex |    0000D04C  _story_li |    0000D04D  _story_li
     0000D04E  _story_li |    0000D04F  _actual_s |    0000D050  _actual_l
     0000D051  _ended    |    0000D052  _seed     |    0000D054  _next_ent
     0000D055  _minigame |    0000D056  _current_ |    0000D057  _prev_sce
ASxxxx Linker V03.00/V05.40 + sdld,  page 28.
Hexadecimal  [32-Bits]

Area                       Addr        Size        Decimal Bytes (Attributes)
--------------------       ----        ----        ------- ----- ------------
_INITIALIZED           0000C564    00000B09 =        2825. bytes (REL,CON)

        Value  Global            Value  Global            Value  Global    
        -----  ------            -----  ------            -----  ------    
     0000D058  _next_sce |    0000D059  _is_trans |    0000D05A  _can_move
     0000D05E  _current_ |    0000D05F  _active_i |    0000D060  _active_i
     0000D061  _selected |    0000D062  _last_sel |    0000D063  _language
     0000D064  _extra_ac |    0000D065  _money    |    0000D067  _keys    
     0000D068  _prev_key |    0000D069  _vram_nex |    0000D06A  _vram_ext
     0000D06B  _GENDER   |    0000D06C  __map_til
ASxxxx Linker V03.00/V05.40 + sdld,  page 29.
Hexadecimal  [32-Bits]

Area                       Addr        Size        Decimal Bytes (Attributes)
--------------------       ----        ----        ------- ----- ------------
_HEAP                  0000D06D    000007FF =        2047. bytes (REL,CON)

        Value  Global            Value  Global            Value  Global    
        -----  ------            -----  ------            -----  ------    
     0000D06D  ___sdcc_h
ASxxxx Linker V03.00/V05.40 + sdld,  page 30.
Hexadecimal  [32-Bits]

Area                       Addr        Size        Decimal Bytes (Attributes)
--------------------       ----        ----        ------- ----- ------------
_HEAP_END              0000D86C    00000001 =           1. bytes (REL,CON)

        Value  Global            Value  Global            Value  Global    
        -----  ------            -----  ------            -----  ------    
     0000D86C  ___sdcc_h
ASxxxx Linker V03.00/V05.40 + sdld,  page 31.
Hexadecimal  [32-Bits]

Area                       Addr        Size        Decimal Bytes (Attributes)
--------------------       ----        ----        ------- ----- ------------
_HRAM                  0000FF80    00000013 =          19. bytes (REL,CON)

        Value  Global            Value  Global            Value  Global    
        -----  ------            -----  ------            -----  ------    
     0000FF80  .refresh_ |    0000FF90  __current |    0000FF91  __vbl_don
     0000FF92  __shadow_
ASxxxx Linker V03.00/V05.40 + sdld,  page 32.
Hexadecimal  [32-Bits]

Area                       Addr        Size        Decimal Bytes (Attributes)
--------------------       ----        ----        ------- ----- ------------
_CODE_3                00034000    00003736 =       14134. bytes (REL,CON)

        Value  Global            Value  Global            Value  Global    
        -----  ------            -----  ------            -----  ------    
     00034000  _map_2_0_ |    00034490  _map_2_0_ |    000345F8  _map_2_3_
     00034CF8  _map_2_3_ |    00034E60  _map_2_1_ |    00035430  _map_2_1_
     00035598  _map_2_2_ |    00035C18  _map_2_2_ |    00035D80  _Map_20_C
     00035D9A  _Map_20_U |    00035DC6  _map_20_c |    00035F2E  _Map_20_I
     0003607A  _Map_20_I |    000360F1  _Map_23_I |    00036129  _dialogue
     0003627F  _dialogue |    000363D5  _dialogue |    0003652B  _dialogue
     00036681  _map_23_c |    000367E9  _Map_23_U |    00036818  _Map_23_C
     00036840  _Map_23_C |    00036854  _Map_23_S |    00036B03  _Map_23_I
     00036B8C  _Map_23_I |    00036CC0  _Map_21_U |    00036CE6  _Map_21_I
     00036D54  _Map_21_C |    00036D72  _map_21_c |    00036EDA  _map_22_c
     00037042  _Map_22_C |    00037068  _Map_22_I |    0003718B  _Map_22_I
     000371B5  _dialogue |    0003730B  _dialogue |    00037461  _dialogue
     000375B7  _Map_22_D |    000375DD  _Map_22_C |    000375FD  _Map_22_C
     00037614  _Map_22_I |    000376CB  _Map_22_U
ASxxxx Linker V03.00/V05.40 + sdld,  page 33.
Hexadecimal  [32-Bits]

Area                       Addr        Size        Decimal Bytes (Attributes)
--------------------       ----        ----        ------- ----- ------------
_CODE_1                00014000    000022DD =        8925. bytes (REL,CON)

        Value  Global            Value  Global            Value  Global    
        -----  ------            -----  ------            -----  ------    
     00014000  _map_0_0_ |    000141E0  _map_0_0_ |    00014348  _map_0_1_
     000149F8  _map_0_1_ |    00014B60  _map_0_3_ |    00015110  _map_0_3_
     00015278  _map_0_2_ |    000157D8  _map_0_2_ |    00015940  _map_00_c
     00015AA8  _Map_00_C |    00015AC2  _Map_00_U |    00015AE8  _Map_00_I
     00015B56  _map_01_c |    00015CBE  _Map_01_C |    00015CD8  _Map_01_U
     00015CFE  _Map_01_I |    00015D6C  _Map_03_C |    00015D86  _Map_03_I
     00015DF4  _Map_03_U |    00015E1A  _map_03_c |    00015F82  _Map_02_C
     00015F9C  _map_02_c |    00016104  _Map_02_U |    0001615A  _Map_02_I
     00016265  _Map_02_I
ASxxxx Linker V03.00/V05.40 + sdld,  page 34.
Hexadecimal  [32-Bits]

Area                       Addr        Size        Decimal Bytes (Attributes)
--------------------       ----        ----        ------- ----- ------------
_CODE_5                00054000    0000267B =        9851. bytes (REL,CON)

        Value  Global            Value  Global            Value  Global    
        -----  ------            -----  ------            -----  ------    
     00054000  _map_3_3_ |    00054660  _map_3_3_ |    000547C8  _bkg_main
     00054A88  _bkg_main |    00054BF0  _gender_s |    00054D58  _gender_s
     00055048  _inventor |    00055398  _inventor |    00055500  _bkg_lang
     000557E0  _bkg_lang |    00055948  _Map_33_I |    00055AAA  _Map_33_U
     00055B00  _Map_33_L |    00055B1E  _map_33_c |    00055C86  _Map_33_C
     00055C9A  _Map_33_I |    00055CFE  _MainMenu |    00055D70  _MainMenu
     00055D90  _MainMenu |    00055D91  _MainMenu |    00055D92  _MainMenu
     00055DB7  _MainMenu |    00055E65  _GenderSe |    00055E7A  _GenderSe
     00055EB4  _GenderSe |    00055EB5  _Story_In |    00055FBB  _Story_Up
     00056090  _Inventor |    0005623F  _Inventor |    000562E3  _Inventor
     00056390  _Inventor |    000563AA  _Inventor |    00056421  _Language
     00056424  _Language |    00056536  _Language |    00056661  _Language
ASxxxx Linker V03.00/V05.40 + sdld,  page 35.
Hexadecimal  [32-Bits]

Area                       Addr        Size        Decimal Bytes (Attributes)
--------------------       ----        ----        ------- ----- ------------
_CODE_2                00024000    00002B55 =       11093. bytes (REL,CON)

        Value  Global            Value  Global            Value  Global    
        -----  ------            -----  ------            -----  ------    
     00024000  _map_1_0_ |    00024600  _map_1_0_ |    00024768  _map_1_1_
     00024BE8  _map_1_1_ |    00024D50  _map_1_2_ |    00025470  _map_1_2_
     000255D8  _map_1_3_ |    00025B18  _map_1_3_ |    00025C80  _Map_10_C
     00025C9A  _Map_10_U |    00025CC0  _Map_10_I |    00025D2E  _map_10_c
     00025E96  _Map_11_C |    00025EB0  _Map_11_I |    00025F1E  _map_11_c
     00026086  _Map_11_U |    000260AC  _Map_12_C |    000260C6  _Map_12_U
     000260F8  _Map_12_I |    00026111  _dialogue |    00026267  _dialogue
     000263BD  _Map_12_I |    00026506  _Map_12_C |    0002652D  _Map_12_I
     000265C0  _Map_12_C |    00026693  _dialogue |    000267E9  _dialogue
     0002693F  _Map_13_U |    00026965  _Map_13_I |    000269D3  _map_13_c
     00026B3B  _Map_13_C
ASxxxx Linker V03.00/V05.40 + sdld,  page 36.
Hexadecimal  [32-Bits]

Area                       Addr        Size        Decimal Bytes (Attributes)
--------------------       ----        ----        ------- ----- ------------
_CODE_4                00044000    00003794 =       14228. bytes (REL,CON)

        Value  Global            Value  Global            Value  Global    
        -----  ------            -----  ------            -----  ------    
     00044000  _map_3_2_ |    00044530  _map_3_2_ |    00044698  _map_3_0_
     00044ED8  _map_3_0_ |    00045040  _map_3_1_ |    00045670  _map_3_1_
     000457D8  _Map_32_D |    000457F0  _Map_32_U |    0004584B  _Map_32_C
     000458AB  _map_32_c |    00045A19  _Map_32_I |    00045AA2  _Map_32_C
     00045ABC  _Map_32_I |    0004632D  _Map_32_I |    00046477  _Map_30_D
     0004649D  _Map_30_C |    000464B7  _Map_30_C |    0004650F  _Map_30_I
     0004703C  _Map_30_I |    0004719C  _Map_30_U |    00047214  _Map_30_I
     0004729D  _map_30_c |    00047405  _Map_31_U |    0004745B  _Map_31_C
     0004746F  _map_31_c |    000475D7  _Map_31_I |    00047723  _Map_31_I
ASxxxx Linker V03.00/V05.40 + sdld,  page 37.
Hexadecimal  [32-Bits]

Area                       Addr        Size        Decimal Bytes (Attributes)
--------------------       ----        ----        ------- ----- ------------
_CODE_6                00064000    0000258C =        9612. bytes (REL,CON)

        Value  Global            Value  Global            Value  Global    
        -----  ------            -----  ------            -----  ------    
     00064000  _bkg_miss |    00064270  _bkg_miss |    000643D8  _bkg_leav
     000647F8  _bkg_leav |    00064960  _bkg_home |    00064E70  _bkg_home
     00064FD8  _Mg_Playe |    0006508E  _Mg_PlayM |    0006508F  _Mg_PlayE
     00065090  _Mg_StopM |    00065091  _Mg_Instr |    000652F6  _Mg_Leave
     00065315  _Mg_Leave |    00065587  _Mg_Leave |    00065643  _is_being
     000656BE  _spawn    |    00065779  _check_ac |    00065884  _check_ac
     000659BE  _Mg_Leave |    00065B5B  _Mg_Leave |    00065B79  _Mg_SetTi
     00065BB3  _Mg_Timer |    00065BD7  _Mg_Timer |    00065BFB  _Mg_Timer
     00065C00  _Mg_Homew |    00065D60  _Mg_Homew |    00065D7E  _Mgh_clea
     00065DF8  _Mg_Homew |    00066115  _Mg_LoadS |    00066148  _Mg_LoadS
     0006619C  _Mg_Splas |    00066511  _Mg_Compl |    00066530  _load_ext
ASxxxx Linker V03.00/V05.40 + sdld,  page 38.

Files Linked                              [ module(s) ]

/usr/share/gbdk-2020//lib/gb/crt0.o       [ Runtime ]
/tmp/lcc163520.o                          [ items ]
/tmp/lcc163521.o                          [ numbers ]
/tmp/lcc163522.o                          [ buttons ]
/tmp/lcc163523.o                          [ chars ]
/tmp/lcc163524.o                          [ map_2_0 ]
/tmp/lcc163525.o                          [ map_2_3 ]
/tmp/lcc163526.o                          [ map_0_0 ]
/tmp/lcc163527.o                          [ map_0_1 ]
/tmp/lcc163528.o                          [ map_3_3 ]
/tmp/lcc163529.o                          [ map_1_0 ]
/tmp/lcc1635210.o                         [ map_2_1 ]
/tmp/lcc1635211.o                         [ map_1_1 ]
/tmp/lcc1635212.o                         [ map_1_2 ]
/tmp/lcc1635213.o                         [ map_1_3 ]
/tmp/lcc1635214.o                         [ map_3_2 ]
/tmp/lcc1635215.o                         [ map_3_0 ]
/tmp/lcc1635216.o                         [ map_0_3 ]
/tmp/lcc1635217.o                         [ map_2_2 ]
/tmp/lcc1635218.o                         [ map_0_2 ]
/tmp/lcc1635219.o                         [ map_3_1 ]
/tmp/lcc1635220.o                         [ bkg_MainMenu ]
/tmp/lcc1635221.o                         [ gender_select_tilemap ]
/tmp/lcc1635222.o                         [ gender_select_tileset ]
/tmp/lcc1635223.o                         [ npc_icons ]
/tmp/lcc1635224.o                         [ inventory_bkg ]
/tmp/lcc1635225.o                         [ bkg_mission_complete ]
/tmp/lcc1635226.o                         [ bkg_leaves_example ]
/tmp/lcc1635227.o                         [ bkg_homework ]
/tmp/lcc1635228.o                         [ correct_icons ]
/tmp/lcc1635229.o                         [ template_tileset ]
/tmp/lcc1635230.o                         [ spr_language_arrow0 ]
/tmp/lcc1635231.o                         [ bkg_LanguageSelect ]
/tmp/lcc1635232.o                         [ spr_ChicaLibro0 ]
/tmp/lcc1635233.o                         [ spr_ViejoDiario0 ]
/tmp/lcc1635234.o                         [ example_npc ]
/tmp/lcc1635235.o                         [ spr_Firulais0 ]
/tmp/lcc1635236.o                         [ spr_FirulaisRun0 ]
/tmp/lcc1635237.o                         [ spr_FirulaisRun1 ]
/tmp/lcc1635238.o                         [ spr_ViejaEscoba1 ]
/tmp/lcc1635239.o                         [ spr_ViejaEscoba0 ]
/tmp/lcc1635240.o                         [ spr_ViejoSuper1 ]
/tmp/lcc1635241.o                         [ spr_ViejoSuper0 ]
/tmp/lcc1635242.o                         [ spr_PendejoTarea ]
/tmp/lcc1635243.o                         [ martin_npc_0 ]
/tmp/lcc1635244.o                         [ martin_npc_2 ]
/tmp/lcc1635245.o                         [ martin_npc_1 ]
/tmp/lcc1635246.o                         [ spr_flag1 ]
/tmp/lcc1635247.o                         [ spr_flag0 ]
/tmp/lcc1635248.o                         [ spr_ViejaAnteojos0 ]
/tmp/lcc1635249.o                         [ spr_Pigeon0 ]
/tmp/lcc1635250.o                         [ text_frame ]
/tmp/lcc1635251.o                         [ text_frame_init ]
/tmp/lcc1635252.o                         [ spr_Martin_down0 ]
/tmp/lcc1635253.o                         [ spr_Player_up2 ]
/tmp/lcc1635254.o                         [ spr_Player_up0 ]
/tmp/lcc1635255.o                         [ spr_Player_up1 ]
/tmp/lcc1635256.o                         [ spr_Player_down2 ]
/tmp/lcc1635257.o                         [ spr_Player_down0 ]
/tmp/lcc1635258.o                         [ spr_Player_down1 ]
/tmp/lcc1635259.o                         [ spr_branch ]
/tmp/lcc1635260.o                         [ spr_leaf_a ]
/tmp/lcc1635261.o                         [ spr_leaf_b ]
/tmp/lcc1635262.o                         [ spr_acorn ]
/tmp/lcc1635263.o                         [ leaf ]
/tmp/lcc1635264.o                         [ broom ]
/tmp/lcc1635265.o                         [ spr_garbage ]
/tmp/lcc1635266.o                         [ mg_win ]
/tmp/lcc1635267.o                         [ mg_lose ]
/tmp/lcc1635268.o                         [ mg_music ]
/tmp/lcc1635269.o                         [ main ]
/tmp/lcc1635270.o                         [ mg_set_coins_reward ]
/tmp/lcc1635271.o                         [ mg_player_movement ]
/tmp/lcc1635272.o                         [ mg_play_music ]
/tmp/lcc1635273.o                         [ mg_instruction_set ]
/tmp/lcc1635274.o                         [ mg_leaves ]
/tmp/lcc1635275.o                         [ mg_leaves_create ]
/tmp/lcc1635276.o                         [ mg_leaves_init ]
/tmp/lcc1635277.o                         [ mg_leaves_player_init ]
/tmp/lcc1635278.o                         [ mg_leaves_update ]
/tmp/lcc1635279.o                         [ mg_leaves_load_bkg ]
/tmp/lcc1635280.o                         [ mini_games ]
/tmp/lcc1635281.o                         [ mg_timer ]
/tmp/lcc1635282.o                         [ mg_homework_init ]
/tmp/lcc1635283.o                         [ mg_homework_create ]
/tmp/lcc1635284.o                         [ mg_homework_update ]
/tmp/lcc1635285.o                         [ mg_homework ]
/tmp/lcc1635286.o                         [ mg_homework_init_question ]
/tmp/lcc1635287.o                         [ mg_load_screen ]
/tmp/lcc1635288.o                         [ mg_mission_complete ]
/tmp/lcc1635289.o                         [ map_20_create ]
/tmp/lcc1635290.o                         [ map_20 ]
/tmp/lcc1635291.o                         [ map_20_update ]
/tmp/lcc1635292.o                         [ map_20_collision ]
/tmp/lcc1635293.o                         [ map_20_init_npc ]
/tmp/lcc1635294.o                         [ map_20_init ]
/tmp/lcc1635295.o                         [ map_23 ]
/tmp/lcc1635296.o                         [ map_23_dialogues ]
/tmp/lcc1635297.o                         [ map_23_collision ]
/tmp/lcc1635298.o                         [ map_23_update ]
/tmp/lcc1635299.o                         [ map_23_input ]
/tmp/lcc16352100.o                        [ map_23_create ]
/tmp/lcc16352101.o                        [ map_23_show_books ]
/tmp/lcc16352102.o                        [ map_23_init ]
/tmp/lcc16352103.o                        [ map_23_init_npc ]
/tmp/lcc16352104.o                        [ item_no_use ]
/tmp/lcc16352105.o                        [ map_00_collision ]
/tmp/lcc16352106.o                        [ map_00_create ]
/tmp/lcc16352107.o                        [ map_00_update ]
/tmp/lcc16352108.o                        [ map_00 ]
/tmp/lcc16352109.o                        [ map_00_init ]
/tmp/lcc16352110.o                        [ map_collision ]
/tmp/lcc16352111.o                        [ map_01_collision ]
/tmp/lcc16352112.o                        [ map_01_create ]
/tmp/lcc16352113.o                        [ map_01_update ]
/tmp/lcc16352114.o                        [ map_01 ]
/tmp/lcc16352115.o                        [ map_01_init ]
/tmp/lcc16352116.o                        [ map_33_init_npc ]
/tmp/lcc16352117.o                        [ map_33_update ]
/tmp/lcc16352118.o                        [ map_33 ]
/tmp/lcc16352119.o                        [ map_33_bkg ]
/tmp/lcc16352120.o                        [ map_33_collision ]
/tmp/lcc16352121.o                        [ map_33_create ]
/tmp/lcc16352122.o                        [ map_33_init ]
/tmp/lcc16352123.o                        [ map_10_create ]
/tmp/lcc16352124.o                        [ map_10_update ]
/tmp/lcc16352125.o                        [ map_10_init ]
/tmp/lcc16352126.o                        [ map_10 ]
/tmp/lcc16352127.o                        [ map_10_collision ]
/tmp/lcc16352128.o                        [ map_21 ]
/tmp/lcc16352129.o                        [ map_21_update ]
/tmp/lcc16352130.o                        [ map_21_init ]
/tmp/lcc16352131.o                        [ map_21_create ]
/tmp/lcc16352132.o                        [ map_21_collision ]
/tmp/lcc16352133.o                        [ map_11_create ]
/tmp/lcc16352134.o                        [ map_11_init ]
/tmp/lcc16352135.o                        [ map_11 ]
/tmp/lcc16352136.o                        [ map_11_collision ]
/tmp/lcc16352137.o                        [ map_11_update ]
/tmp/lcc16352138.o                        [ clean_text ]
/tmp/lcc16352139.o                        [ map_12_create ]
/tmp/lcc16352140.o                        [ map_12_update ]
/tmp/lcc16352141.o                        [ map_12_dialogues ]
/tmp/lcc16352142.o                        [ map_12 ]
/tmp/lcc16352143.o                        [ map_12_init_npc ]
/tmp/lcc16352144.o                        [ map_12_collision ]
/tmp/lcc16352145.o                        [ map_12_input ]
/tmp/lcc16352146.o                        [ map_12_init ]
/tmp/lcc16352147.o                        [ map_12_check_items ]
/tmp/lcc16352148.o                        [ map_13 ]
/tmp/lcc16352149.o                        [ map_13_update ]
/tmp/lcc16352150.o                        [ map_13_init ]
/tmp/lcc16352151.o                        [ map_13_collision ]
/tmp/lcc16352152.o                        [ map_13_create ]
/tmp/lcc16352153.o                        [ map_32_destroy ]
/tmp/lcc16352154.o                        [ map_32_update ]
/tmp/lcc16352155.o                        [ map_32_input ]
/tmp/lcc16352156.o                        [ map_32 ]
/tmp/lcc16352157.o                        [ map_32_collision ]
/tmp/lcc16352158.o                        [ map_32_init ]
/tmp/lcc16352159.o                        [ map_32_create ]
/tmp/lcc16352160.o                        [ map_32_dialogue ]
/tmp/lcc16352161.o                        [ map_32_init_npc ]
/tmp/lcc16352162.o                        [ map_player_movement ]
/tmp/lcc16352163.o                        [ map_30_destroy ]
/tmp/lcc16352164.o                        [ map_30_create ]
/tmp/lcc16352165.o                        [ map_30_input ]
/tmp/lcc16352166.o                        [ map_30_dialogues ]
/tmp/lcc16352167.o                        [ map_30_init_npc ]
/tmp/lcc16352168.o                        [ map_30_update ]
/tmp/lcc16352169.o                        [ map_30_init ]
/tmp/lcc16352170.o                        [ map_30 ]
/tmp/lcc16352171.o                        [ map_30_collision ]
/tmp/lcc16352172.o                        [ map_03_create ]
/tmp/lcc16352173.o                        [ map_03_init ]
/tmp/lcc16352174.o                        [ map_03 ]
/tmp/lcc16352175.o                        [ map_03_update ]
/tmp/lcc16352176.o                        [ map_03_collision ]
/tmp/lcc16352177.o                        [ map_22_collision ]
/tmp/lcc16352178.o                        [ map_22 ]
/tmp/lcc16352179.o                        [ map_22_input ]
/tmp/lcc16352180.o                        [ map_22_init_npc ]
/tmp/lcc16352181.o                        [ map_22_dialogues ]
/tmp/lcc16352182.o                        [ map_22_destroy ]
/tmp/lcc16352183.o                        [ map_22_create ]
/tmp/lcc16352184.o                        [ map_22_check_items ]
/tmp/lcc16352185.o                        [ map_22_init ]
/tmp/lcc16352186.o                        [ map_22_update ]
/tmp/lcc16352187.o                        [ auto_clean ]
/tmp/lcc16352188.o                        [ map_data ]
/tmp/lcc16352189.o                        [ map_02 ]
/tmp/lcc16352190.o                        [ map_02_create ]
/tmp/lcc16352191.o                        [ map_02_collision ]
/tmp/lcc16352192.o                        [ map_02_update ]
/tmp/lcc16352193.o                        [ map_02_init_npc ]
/tmp/lcc16352194.o                        [ map_02_init ]
/tmp/lcc16352195.o                        [ map_31_update ]
/tmp/lcc16352196.o                        [ map_31_create ]
/tmp/lcc16352197.o                        [ map_31_collision ]
/tmp/lcc16352198.o                        [ map_31_init_npcs ]
/tmp/lcc16352199.o                        [ map_31 ]
/tmp/lcc16352200.o                        [ map_31_init ]
/tmp/lcc16352201.o                        [ main_menu ]
/tmp/lcc16352202.o                        [ main_menu_input ]
/tmp/lcc16352203.o                        [ main_menu_create ]
/tmp/lcc16352204.o                        [ main_menu_destroy ]
/tmp/lcc16352205.o                        [ main_menu_init_stats ]
/tmp/lcc16352206.o                        [ main_menu_init ]
/tmp/lcc16352207.o                        [ main_menu_update ]
/tmp/lcc16352208.o                        [ gender_select ]
/tmp/lcc16352209.o                        [ gender_select_init ]
/tmp/lcc16352210.o                        [ gender_select_update ]
/tmp/lcc16352211.o                        [ story_init ]
/tmp/lcc16352212.o                        [ story_update ]
/tmp/lcc16352213.o                        [ story ]
/tmp/lcc16352214.o                        [ inventory_scene_init ]
/tmp/lcc16352215.o                        [ inventory_scene_update ]
/tmp/lcc16352216.o                        [ inventory_scene_arrow ]
/tmp/lcc16352217.o                        [ inventory_scene_create ]
/tmp/lcc16352218.o                        [ inventory_scene_input ]
/tmp/lcc16352219.o                        [ inventory_scene ]
/tmp/lcc16352220.o                        [ language_select_update ]
/tmp/lcc16352221.o                        [ language_select ]
/tmp/lcc16352222.o                        [ language_select_init ]
/tmp/lcc16352223.o                        [ language_select_input ]
/tmp/lcc16352224.o                        [ language_select_create ]
/tmp/lcc16352225.o                        [ random ]
/tmp/lcc16352226.o                        [ scene ]
/tmp/lcc16352227.o                        [ entity ]
/tmp/lcc16352228.o                        [ npc_lines ]
/tmp/lcc16352229.o                        [ collision ]
/tmp/lcc16352230.o                        [ mgm_states ]
/tmp/lcc16352231.o                        [ minigames ]
/tmp/lcc16352232.o                        [ load_extra ]
/tmp/lcc16352233.o                        [ all_scenes ]
/tmp/lcc16352234.o                        [ npcs ]
/tmp/lcc16352235.o                        [ scene_manager ]
/tmp/lcc16352236.o                        [ intermitent_text ]
/tmp/lcc16352237.o                        [ can_move ]
/tmp/lcc16352238.o                        [ render ]
/tmp/lcc16352239.o                        [ name ]
/tmp/lcc16352240.o                        [ draw ]
/tmp/lcc16352241.o                        [ inventory_init ]
/tmp/lcc16352242.o                        [ map_scenes ]
/tmp/lcc16352243.o                        [ action ]
/tmp/lcc16352244.o                        [ position ]
/tmp/lcc16352245.o                        [ inventory ]
/tmp/lcc16352246.o                        [ animation ]
/tmp/lcc16352247.o                        [ language ]
/tmp/lcc16352248.o                        [ char_to_tile ]
/tmp/lcc16352249.o                        [ extra_actors ]
/tmp/lcc16352250.o                        [ money ]
/tmp/lcc16352251.o                        [ input ]
/tmp/lcc16352252.o                        [ load ]
/tmp/lcc16352253.o                        [ speed ]
/tmp/lcc16352254.o                        [ gender_selection ]
/tmp/lcc16352255.o                        [ player ]


Libraries Linked                          [ object file ]

/usr/share/gbdk-2020//lib/sm83/sm83.lib   [ free.o ]
/usr/share/gbdk-2020//lib/gb/gb.lib       [ sfr.o ]
/usr/share/gbdk-2020//lib/sm83/sm83.lib   [ div.o ]
/usr/share/gbdk-2020//lib/gb/gb.lib       [ get_tile.o ]
/usr/share/gbdk-2020//lib/sm83/sm83.lib   [ malloc.o ]
/usr/share/gbdk-2020//lib/gb/gb.lib       [ set_data.o ]
/usr/share/gbdk-2020//lib/gb/gb.lib       [ set_tile.o ]
/usr/share/gbdk-2020//lib/sm83/sm83.lib   [ mul.o ]
/usr/share/gbdk-2020//lib/gb/gb.lib       [ pad.o ]
/usr/share/gbdk-2020//lib/sm83/sm83.lib   [ memcpy.o ]
/usr/share/gbdk-2020//lib/sm83/sm83.lib   [ __sdcc_call_hl.o ]
/usr/share/gbdk-2020//lib/gb/gb.lib       [ heap.o ]
/usr/share/gbdk-2020//lib/gb/gb.lib       [ set_bk_t.o ]
/usr/share/gbdk-2020//lib/gb/gb.lib       [ set_xy_t.o ]

ASxxxx Linker V03.00/V05.40 + sdld,  page 39.

User Base Address Definitions

_DATA=0xC0A0
_CODE=0x0200
_HRAM=0xFF80
ASxxxx Linker V03.00/V05.40 + sdld,  page 40.

User Global Definitions

_shadow_OAM=0xC000
.STACK=0xE000

