ASxxxx Linker V03.00/V05.40 + sdld,  page 1.
Hexadecimal  [32-Bits]

Area                                    Addr        Size        Decimal Bytes (Attributes)
--------------------------------        ----        ----        ------- ----- ------------
.  .ABS.                            00000000    00000000 =           0. bytes (ABS,CON)

      Value  Global                              Global Defined In Module
      -----  --------------------------------   ------------------------
     00000000  .__.ABS.                           SetTileMap
     00000000  _rMBC7_SRAM_ENABLE_1               
     00000000  _rRAMG                             
     00000000  l__BASE                         
     00000000  l__BSS                          
     00000000  l__CABS                         
     00000000  l__CODE_0                       
     00000000  l__DABS                         
     00000000  l__HEADER                       
     00000000  l__LIT                          
     00000000  s__CABS                         
     00000000  s__DABS                         
     00000000  s__HEADER                       
     00000000  s__HEADER0                      
     00000000  s__HEADER1                      
     00000000  s__HEADER10                     
     00000000  s__HEADER11                     
     00000000  s__HEADER2                      
     00000000  s__HEADER3                      
     00000000  s__HEADER4                      
     00000000  s__HEADER5                      
     00000000  s__HEADER6                      
     00000000  s__HEADER7                      
     00000000  s__HEADER8                      
     00000000  s__HEADER9                      
     00000000  s__HEADERa                      
     00000000  s__HEADERb                      
     00000000  s__HEADERc                      
     00000000  s__HEADERd                      
     00000000  s__HEADERe                      
     00000000  s__HEADERf                      
     00000001  l__GSFINAL                      
     00000001  l__HEADER0                      
     00000001  l__HEADER5                      
     00000001  l__HEADERa                      
     00000001  l__HEADERb                      
     00000001  l__HEADERc                      
     00000001  l__HEADERe                      
     00000001  l__HEADERf                      
     00000001  l__HEAP_END                     
     00000002  l__HEADER10                     
     00000002  l__HEADER6                      
     00000002  l__HEADERd                      
     00000003  l__HEADER9                      
     00000005  l__HEADER1                      
     00000006  l__HEADER8                      
     00000007  l__HEADER2                      
     00000008  l__HEADER3                      
     0000000F  l__GSINIT                       
     00000013  l__HRAM                         
ASxxxx Linker V03.00/V05.40 + sdld,  page 2.
Hexadecimal  [32-Bits]

Area                                    Addr        Size        Decimal Bytes (Attributes)
--------------------------------        ----        ----        ------- ----- ------------
.  .ABS.                            00000000    00000000 =           0. bytes (ABS,CON)

      Value  Global                              Global Defined In Module
      -----  --------------------------------   ------------------------
     00000030  l__HEADER7                      
     00000060  l__HEADER4                      
     000000AB  l__HEADER11                     
     0000012C  l__HOME                         
     00000200  s__CODE                         
     00000239  l__INITIALIZED                  
     00000239  l__INITIALIZER                  
     00000319  l__DATA                         
     000007FF  l__HEAP                         
     00000DE1  l__CODE_2                       
     00001220  l__CODE_1                       
     00002000  _rROMB0                            
     00002A48  l__CODE                         
     00002C48  s__HOME                         
     00002D74  s__BASE                         
     00002D74  s__CODE_0                       
     00002D74  s__INITIALIZER                  
     00002D74  s__LIT                          
     00002FAD  s__GSINIT                       
     00002FBC  s__GSFINAL                      
     00003000  _rROMB1                            
     00004000  _rMBC7_SRAM_ENABLE_2               
     00004000  _rRAMB                             
     00008000  __VRAM                             
     00008000  __VRAM8000                         
     00008800  __VRAM8800                         
     00009000  __VRAM9000                         
     00009800  __SCRN0                            
     00009C00  __SCRN1                            
     0000A000  __SRAM                             
     0000A000  _rMBC7_LATCH_1                     
     0000A010  _rMBC7_LATCH_2                     
     0000A020  _rMBC7_ACCEL_X_LO                  
     0000A030  _rMBC7_ACCEL_X_HI                  
     0000A040  _rMBC7_ACCEL_Y_LO                  
     0000A050  _rMBC7_ACCEL_Y_HI                  
     0000C000  __RAM                              
     0000C000  _shadow_OAM                     
     0000C0A0  s__DATA                         
     0000C3B9  s__BSS                          
     0000C3B9  s__INITIALIZED                  
     0000C5F2  s__HEAP                         
     0000CDF1  s__HEAP_END                     
     0000D000  __RAMBANK                          
     0000E000  .STACK                          
     0000FE00  __OAMRAM                           
     0000FF00  _P1_REG                            
     0000FF00  __IO                               
     0000FF01  _SB_REG                            
     0000FF02  _SC_REG                            
     0000FF04  _DIV_REG                           
ASxxxx Linker V03.00/V05.40 + sdld,  page 3.
Hexadecimal  [32-Bits]

Area                                    Addr        Size        Decimal Bytes (Attributes)
--------------------------------        ----        ----        ------- ----- ------------
.  .ABS.                            00000000    00000000 =           0. bytes (ABS,CON)

      Value  Global                              Global Defined In Module
      -----  --------------------------------   ------------------------
     0000FF05  _TIMA_REG                          
     0000FF06  _TMA_REG                           
     0000FF07  _TAC_REG                           
     0000FF0F  _IF_REG                            
     0000FF10  _NR10_REG                          
     0000FF11  _NR11_REG                          
     0000FF12  _NR12_REG                          
     0000FF13  _NR13_REG                          
     0000FF14  _NR14_REG                          
     0000FF16  _NR21_REG                          
     0000FF17  _NR22_REG                          
     0000FF18  _NR23_REG                          
     0000FF19  _NR24_REG                          
     0000FF1A  _NR30_REG                          
     0000FF1B  _NR31_REG                          
     0000FF1C  _NR32_REG                          
     0000FF1D  _NR33_REG                          
     0000FF1E  _NR34_REG                          
     0000FF20  _NR41_REG                          
     0000FF21  _NR42_REG                          
     0000FF22  _NR43_REG                          
     0000FF23  _NR44_REG                          
     0000FF24  _NR50_REG                          
     0000FF25  _NR51_REG                          
     0000FF26  _NR52_REG                          
     0000FF30  _AUD3WAVE                          
     0000FF30  _PCM_SAMPLE                        
     0000FF30  __AUD3WAVERAM                      
     0000FF40  _LCDC_REG                          
     0000FF41  _STAT_REG                          
     0000FF42  _SCY_REG                           
     0000FF43  _SCX_REG                           
     0000FF44  _LY_REG                            
     0000FF45  _LYC_REG                           
     0000FF46  _DMA_REG                           
     0000FF47  _BGP_REG                           
     0000FF48  _OBP0_REG                          
     0000FF49  _OBP1_REG                          
     0000FF4A  _WY_REG                            
     0000FF4B  _WX_REG                            
     0000FF4D  _KEY1_REG                          
     0000FF4F  _VBK_REG                           
     0000FF51  _HDMA1_REG                         
     0000FF52  _HDMA2_REG                         
     0000FF53  _HDMA3_REG                         
     0000FF54  _HDMA4_REG                         
     0000FF55  _HDMA5_REG                         
     0000FF56  _RP_REG                            
     0000FF68  _BCPS_REG                          
     0000FF69  _BCPD_REG                          
     0000FF6A  _OCPS_REG                          
ASxxxx Linker V03.00/V05.40 + sdld,  page 4.
Hexadecimal  [32-Bits]

Area                                    Addr        Size        Decimal Bytes (Attributes)
--------------------------------        ----        ----        ------- ----- ------------
.  .ABS.                            00000000    00000000 =           0. bytes (ABS,CON)

      Value  Global                              Global Defined In Module
      -----  --------------------------------   ------------------------
     0000FF6B  _OCPD_REG                          
     0000FF70  _SVBK_REG                          
     0000FF76  _PCM12_REG                         
     0000FF77  _PCM34_REG                         
     0000FF80  __HRAM                             
     0000FF80  s__HRAM                         
     0000FFFF  _IE_REG                            
     00014000  s__CODE_1                       
     00024000  s__CODE_2                       

ASxxxx Linker V03.00/V05.40 + sdld,  page 5.
Hexadecimal  [32-Bits]

Area                                    Addr        Size        Decimal Bytes (Attributes)
--------------------------------        ----        ----        ------- ----- ------------
_CODE                               00000200    00002A48 =       10824. bytes (REL,CON)

      Value  Global                              Global Defined In Module
      -----  --------------------------------   ------------------------
     00000200  G$chars_tileset$0_0$0              chars
     00000200  _chars_tileset                     chars
     00000400  G$chars_tilemap$0_0$0              chars
     00000400  _chars_tilemap                     chars
     0000041F  G$numbers_tileset$0_0$0            numbers
     0000041F  _numbers_tileset                   numbers
     000004BF  G$numbers_tilemap$0_0$0            numbers
     000004BF  _numbers_tilemap                   numbers
     000004C9  G$gender_select_tilemap$0_0$0      gender_select_tilemap
     000004C9  _gender_select_tilemap             gender_select_tilemap
     00000631  G$gender_select_tileset$0_0$0      gender_select_tileset
     00000631  _gender_select_tileset             gender_select_tileset
     00000921  A$lcc214568$58                     npc_icons
     00000921  C$npc_icons.c$27$0_0$127           npc_icons
     00000921  C$npc_icons.c$28$1_0$127           npc_icons
     00000921  G$InitNPCIcons$0$0                 npc_icons
     00000921  _InitNPCIcons                      npc_icons
     00000924  A$lcc214568$59                     npc_icons
     00000925  A$lcc214568$60                     npc_icons
     00000928  A$lcc214568$61                     npc_icons
     00000929  A$lcc214568$62                     npc_icons
     0000092C  A$lcc214568$63                     npc_icons
     0000092E  A$lcc214568$71                     npc_icons
     0000092E  C$npc_icons.c$29$1_0$127           npc_icons
     0000092E  XG$InitNPCIcons$0$0                npc_icons
     0000092F  G$npc_icons_tileset$0_0$0          npc_icons
     0000092F  _npc_icons_tileset                 npc_icons
     0000098F  G$npc_icons_tilemap$0_0$0          npc_icons
     0000098F  _npc_icons_tilemap                 npc_icons
     00000995  G$spr_Branch$0_0$0                 spr_Branch
     00000995  _spr_Branch                        spr_Branch
     000009A5  A$lcc2145622$59                    action
     000009A5  C$action.c$11$0_0$171              action
     000009A5  G$move_up$0$0                      action
     000009A5  _move_up                           action
     000009A7  A$lcc2145622$60                    action
     000009A9  A$lcc2145622$61                    action
     000009AA  A$lcc2145622$65                    action
     000009AA  C$action.c$13$2_0$172              action
     000009AD  A$lcc2145622$66                    action
     000009AF  A$lcc2145622$70                    action
     000009AF  C$action.c$14$2_0$172              action
     000009B1  A$lcc2145622$74                    action
     000009B1  C$action.c$16$1_0$171              action
     000009B3  A$lcc2145622$75                    action
     000009B4  A$lcc2145622$76                    action
     000009B5  A$lcc2145622$77                    action
     000009B7  A$lcc2145622$78                    action
     000009B8  A$lcc2145622$79                    action
     000009BA  A$lcc2145622$80                    action
ASxxxx Linker V03.00/V05.40 + sdld,  page 6.
Hexadecimal  [32-Bits]

Area                                    Addr        Size        Decimal Bytes (Attributes)
--------------------------------        ----        ----        ------- ----- ------------
_CODE                               00000200    00002A48 =       10824. bytes (REL,CON)

      Value  Global                              Global Defined In Module
      -----  --------------------------------   ------------------------
     000009BC  A$lcc2145622$81                    action
     000009BD  A$lcc2145622$82                    action
     000009BE  A$lcc2145622$83                    action
     000009BF  A$lcc2145622$84                    action
     000009C0  A$lcc2145622$85                    action
     000009C1  A$lcc2145622$86                    action
     000009C2  A$lcc2145622$87                    action
     000009C5  A$lcc2145622$88                    action
     000009C6  A$lcc2145622$89                    action
     000009C7  A$lcc2145622$90                    action
     000009C8  A$lcc2145622$91                    action
     000009C9  A$lcc2145622$92                    action
     000009CB  A$lcc2145622$93                    action
     000009CC  A$lcc2145622$94                    action
     000009CD  A$lcc2145622$95                    action
     000009CE  A$lcc2145622$96                    action
     000009CF  A$lcc2145622$97                    action
     000009D0  A$lcc2145622$98                    action
     000009D1  A$lcc2145622$99                    action
     000009D2  A$lcc2145622$100                   action
     000009D4  A$lcc2145622$101                   action
     000009D5  A$lcc2145622$102                   action
     000009D6  A$lcc2145622$103                   action
     000009D7  A$lcc2145622$104                   action
     000009D8  A$lcc2145622$105                   action
     000009D9  A$lcc2145622$106                   action
     000009DA  A$lcc2145622$107                   action
     000009DB  A$lcc2145622$108                   action
     000009DC  A$lcc2145622$109                   action
     000009DD  A$lcc2145622$110                   action
     000009DE  A$lcc2145622$111                   action
     000009DF  A$lcc2145622$112                   action
     000009E0  A$lcc2145622$113                   action
     000009E1  A$lcc2145622$114                   action
     000009E2  A$lcc2145622$115                   action
     000009E4  A$lcc2145622$116                   action
     000009E5  A$lcc2145622$117                   action
     000009E6  A$lcc2145622$118                   action
     000009E7  A$lcc2145622$119                   action
     000009E8  A$lcc2145622$120                   action
     000009E9  A$lcc2145622$124                   action
     000009E9  C$action.c$17$1_0$171              action
     000009EA  A$lcc2145622$125                   action
     000009EB  A$lcc2145622$126                   action
     000009EE  A$lcc2145622$127                   action
     000009EF  A$lcc2145622$128                   action
     000009F1  A$lcc2145622$129                   action
     000009F2  A$lcc2145622$130                   action
     000009F3  A$lcc2145622$131                   action
     000009F4  A$lcc2145622$132                   action
     000009F6  A$lcc2145622$133                   action
ASxxxx Linker V03.00/V05.40 + sdld,  page 7.
Hexadecimal  [32-Bits]

Area                                    Addr        Size        Decimal Bytes (Attributes)
--------------------------------        ----        ----        ------- ----- ------------
_CODE                               00000200    00002A48 =       10824. bytes (REL,CON)

      Value  Global                              Global Defined In Module
      -----  --------------------------------   ------------------------
     000009F7  A$lcc2145622$134                   action
     000009F8  A$lcc2145622$139                   action
     000009FA  A$lcc2145622$144                   action
     000009FA  C$action.c$18$1_0$171              action
     000009FA  XG$move_up$0$0                     action
     000009FB  A$lcc2145622$154                   action
     000009FB  C$action.c$20$1_0$174              action
     000009FB  G$move_down$0$0                    action
     000009FB  _move_down                         action
     000009FD  A$lcc2145622$155                   action
     000009FF  A$lcc2145622$156                   action
     00000A00  A$lcc2145622$160                   action
     00000A00  C$action.c$22$2_0$175              action
     00000A03  A$lcc2145622$161                   action
     00000A05  A$lcc2145622$165                   action
     00000A05  C$action.c$23$2_0$175              action
     00000A07  A$lcc2145622$169                   action
     00000A07  C$action.c$25$1_0$174              action
     00000A09  A$lcc2145622$170                   action
     00000A0A  A$lcc2145622$171                   action
     00000A0B  A$lcc2145622$172                   action
     00000A0D  A$lcc2145622$173                   action
     00000A0E  A$lcc2145622$174                   action
     00000A10  A$lcc2145622$175                   action
     00000A12  A$lcc2145622$176                   action
     00000A13  A$lcc2145622$177                   action
     00000A14  A$lcc2145622$178                   action
     00000A15  A$lcc2145622$179                   action
     00000A16  A$lcc2145622$180                   action
     00000A17  A$lcc2145622$181                   action
     00000A18  A$lcc2145622$182                   action
     00000A1B  A$lcc2145622$183                   action
     00000A1C  A$lcc2145622$184                   action
     00000A1D  A$lcc2145622$185                   action
     00000A1E  A$lcc2145622$186                   action
     00000A1F  A$lcc2145622$187                   action
     00000A21  A$lcc2145622$188                   action
     00000A22  A$lcc2145622$189                   action
     00000A23  A$lcc2145622$190                   action
     00000A24  A$lcc2145622$191                   action
     00000A25  A$lcc2145622$192                   action
     00000A26  A$lcc2145622$193                   action
     00000A27  A$lcc2145622$194                   action
     00000A28  A$lcc2145622$195                   action
     00000A2A  A$lcc2145622$196                   action
     00000A2B  A$lcc2145622$197                   action
     00000A2C  A$lcc2145622$198                   action
     00000A2D  A$lcc2145622$199                   action
     00000A2E  A$lcc2145622$200                   action
     00000A2F  A$lcc2145622$201                   action
     00000A30  A$lcc2145622$202                   action
ASxxxx Linker V03.00/V05.40 + sdld,  page 8.
Hexadecimal  [32-Bits]

Area                                    Addr        Size        Decimal Bytes (Attributes)
--------------------------------        ----        ----        ------- ----- ------------
_CODE                               00000200    00002A48 =       10824. bytes (REL,CON)

      Value  Global                              Global Defined In Module
      -----  --------------------------------   ------------------------
     00000A31  A$lcc2145622$203                   action
     00000A32  A$lcc2145622$204                   action
     00000A33  A$lcc2145622$205                   action
     00000A34  A$lcc2145622$206                   action
     00000A35  A$lcc2145622$207                   action
     00000A36  A$lcc2145622$208                   action
     00000A37  A$lcc2145622$209                   action
     00000A38  A$lcc2145622$210                   action
     00000A39  A$lcc2145622$211                   action
     00000A3A  A$lcc2145622$212                   action
     00000A3B  A$lcc2145622$216                   action
     00000A3B  C$action.c$26$1_0$174              action
     00000A3E  A$lcc2145622$217                   action
     00000A40  A$lcc2145622$218                   action
     00000A41  A$lcc2145622$219                   action
     00000A43  A$lcc2145622$220                   action
     00000A44  A$lcc2145622$221                   action
     00000A45  A$lcc2145622$222                   action
     00000A46  A$lcc2145622$223                   action
     00000A47  A$lcc2145622$224                   action
     00000A48  A$lcc2145622$229                   action
     00000A4A  A$lcc2145622$234                   action
     00000A4A  C$action.c$27$1_0$174              action
     00000A4A  XG$move_down$0$0                   action
     00000A4B  A$lcc2145622$244                   action
     00000A4B  C$action.c$29$1_0$177              action
     00000A4B  G$move_left$0$0                    action
     00000A4B  _move_left                         action
     00000A4D  A$lcc2145622$245                   action
     00000A4F  A$lcc2145622$246                   action
     00000A50  A$lcc2145622$250                   action
     00000A50  C$action.c$31$2_0$178              action
     00000A53  A$lcc2145622$251                   action
     00000A55  A$lcc2145622$255                   action
     00000A55  C$action.c$32$2_0$178              action
     00000A57  A$lcc2145622$259                   action
     00000A57  C$action.c$34$1_0$177              action
     00000A59  A$lcc2145622$260                   action
     00000A5A  A$lcc2145622$261                   action
     00000A5B  A$lcc2145622$262                   action
     00000A5D  A$lcc2145622$263                   action
     00000A5E  A$lcc2145622$264                   action
     00000A60  A$lcc2145622$265                   action
     00000A62  A$lcc2145622$266                   action
     00000A63  A$lcc2145622$267                   action
     00000A64  A$lcc2145622$268                   action
     00000A65  A$lcc2145622$269                   action
     00000A66  A$lcc2145622$270                   action
     00000A67  A$lcc2145622$271                   action
     00000A68  A$lcc2145622$272                   action
     00000A6B  A$lcc2145622$273                   action
ASxxxx Linker V03.00/V05.40 + sdld,  page 9.
Hexadecimal  [32-Bits]

Area                                    Addr        Size        Decimal Bytes (Attributes)
--------------------------------        ----        ----        ------- ----- ------------
_CODE                               00000200    00002A48 =       10824. bytes (REL,CON)

      Value  Global                              Global Defined In Module
      -----  --------------------------------   ------------------------
     00000A6C  A$lcc2145622$274                   action
     00000A6D  A$lcc2145622$275                   action
     00000A6E  A$lcc2145622$276                   action
     00000A6F  A$lcc2145622$277                   action
     00000A71  A$lcc2145622$278                   action
     00000A72  A$lcc2145622$279                   action
     00000A73  A$lcc2145622$280                   action
     00000A74  A$lcc2145622$281                   action
     00000A75  A$lcc2145622$282                   action
     00000A76  A$lcc2145622$283                   action
     00000A77  A$lcc2145622$284                   action
     00000A78  A$lcc2145622$285                   action
     00000A7A  A$lcc2145622$286                   action
     00000A7B  A$lcc2145622$287                   action
     00000A7C  A$lcc2145622$288                   action
     00000A7D  A$lcc2145622$289                   action
     00000A7E  A$lcc2145622$290                   action
     00000A7F  A$lcc2145622$291                   action
     00000A80  A$lcc2145622$292                   action
     00000A81  A$lcc2145622$293                   action
     00000A82  A$lcc2145622$294                   action
     00000A83  A$lcc2145622$295                   action
     00000A84  A$lcc2145622$296                   action
     00000A85  A$lcc2145622$297                   action
     00000A86  A$lcc2145622$298                   action
     00000A87  A$lcc2145622$299                   action
     00000A88  A$lcc2145622$300                   action
     00000A8A  A$lcc2145622$301                   action
     00000A8B  A$lcc2145622$302                   action
     00000A8C  A$lcc2145622$303                   action
     00000A8D  A$lcc2145622$304                   action
     00000A8E  A$lcc2145622$305                   action
     00000A8F  A$lcc2145622$309                   action
     00000A8F  C$action.c$35$1_0$177              action
     00000A90  A$lcc2145622$310                   action
     00000A91  A$lcc2145622$311                   action
     00000A94  A$lcc2145622$312                   action
     00000A95  A$lcc2145622$313                   action
     00000A97  A$lcc2145622$314                   action
     00000A98  A$lcc2145622$315                   action
     00000A99  A$lcc2145622$316                   action
     00000A9A  A$lcc2145622$317                   action
     00000A9C  A$lcc2145622$318                   action
     00000A9D  A$lcc2145622$319                   action
     00000A9E  A$lcc2145622$324                   action
     00000AA0  A$lcc2145622$329                   action
     00000AA0  C$action.c$36$1_0$177              action
     00000AA0  XG$move_left$0$0                   action
     00000AA1  A$lcc2145622$339                   action
     00000AA1  C$action.c$38$1_0$180              action
     00000AA1  G$move_right$0$0                   action
ASxxxx Linker V03.00/V05.40 + sdld,  page 10.
Hexadecimal  [32-Bits]

Area                                    Addr        Size        Decimal Bytes (Attributes)
--------------------------------        ----        ----        ------- ----- ------------
_CODE                               00000200    00002A48 =       10824. bytes (REL,CON)

      Value  Global                              Global Defined In Module
      -----  --------------------------------   ------------------------
     00000AA1  _move_right                        action
     00000AA3  A$lcc2145622$340                   action
     00000AA5  A$lcc2145622$341                   action
     00000AA6  A$lcc2145622$345                   action
     00000AA6  C$action.c$40$2_0$181              action
     00000AA9  A$lcc2145622$346                   action
     00000AAB  A$lcc2145622$350                   action
     00000AAB  C$action.c$41$2_0$181              action
     00000AAD  A$lcc2145622$354                   action
     00000AAD  C$action.c$43$1_0$180              action
     00000AAF  A$lcc2145622$355                   action
     00000AB0  A$lcc2145622$356                   action
     00000AB1  A$lcc2145622$357                   action
     00000AB3  A$lcc2145622$358                   action
     00000AB4  A$lcc2145622$359                   action
     00000AB6  A$lcc2145622$360                   action
     00000AB8  A$lcc2145622$361                   action
     00000AB9  A$lcc2145622$362                   action
     00000ABA  A$lcc2145622$363                   action
     00000ABB  A$lcc2145622$364                   action
     00000ABC  A$lcc2145622$365                   action
     00000ABD  A$lcc2145622$366                   action
     00000ABE  A$lcc2145622$367                   action
     00000AC1  A$lcc2145622$368                   action
     00000AC2  A$lcc2145622$369                   action
     00000AC3  A$lcc2145622$370                   action
     00000AC4  A$lcc2145622$371                   action
     00000AC5  A$lcc2145622$372                   action
     00000AC7  A$lcc2145622$373                   action
     00000AC8  A$lcc2145622$374                   action
     00000AC9  A$lcc2145622$375                   action
     00000ACA  A$lcc2145622$376                   action
     00000ACB  A$lcc2145622$377                   action
     00000ACC  A$lcc2145622$378                   action
     00000ACD  A$lcc2145622$379                   action
     00000ACE  A$lcc2145622$380                   action
     00000AD0  A$lcc2145622$381                   action
     00000AD1  A$lcc2145622$382                   action
     00000AD2  A$lcc2145622$383                   action
     00000AD3  A$lcc2145622$384                   action
     00000AD4  A$lcc2145622$385                   action
     00000AD5  A$lcc2145622$386                   action
     00000AD6  A$lcc2145622$387                   action
     00000AD7  A$lcc2145622$388                   action
     00000AD8  A$lcc2145622$389                   action
     00000AD9  A$lcc2145622$390                   action
     00000ADA  A$lcc2145622$391                   action
     00000ADB  A$lcc2145622$392                   action
     00000ADC  A$lcc2145622$393                   action
     00000ADD  A$lcc2145622$394                   action
     00000ADE  A$lcc2145622$395                   action
ASxxxx Linker V03.00/V05.40 + sdld,  page 11.
Hexadecimal  [32-Bits]

Area                                    Addr        Size        Decimal Bytes (Attributes)
--------------------------------        ----        ----        ------- ----- ------------
_CODE                               00000200    00002A48 =       10824. bytes (REL,CON)

      Value  Global                              Global Defined In Module
      -----  --------------------------------   ------------------------
     00000ADF  A$lcc2145622$396                   action
     00000AE0  A$lcc2145622$397                   action
     00000AE1  A$lcc2145622$401                   action
     00000AE1  C$action.c$44$1_0$180              action
     00000AE2  A$lcc2145622$402                   action
     00000AE5  A$lcc2145622$403                   action
     00000AE7  A$lcc2145622$404                   action
     00000AE8  A$lcc2145622$405                   action
     00000AEA  A$lcc2145622$406                   action
     00000AEB  A$lcc2145622$407                   action
     00000AEC  A$lcc2145622$408                   action
     00000AED  A$lcc2145622$409                   action
     00000AEE  A$lcc2145622$410                   action
     00000AEF  A$lcc2145622$411                   action
     00000AF0  A$lcc2145622$416                   action
     00000AF2  A$lcc2145622$421                   action
     00000AF2  C$action.c$45$1_0$180              action
     00000AF2  XG$move_right$0$0                  action
     00000AF3  A$lcc2145623$59                    animation
     00000AF3  C$animation.c$7$0_0$137            animation
     00000AF3  G$init_animation$0$0               animation
     00000AF3  _init_animation                    animation
     00000AF5  A$lcc2145623$60                    animation
     00000AF7  A$lcc2145623$61                    animation
     00000AF8  A$lcc2145623$62                    animation
     00000AF9  A$lcc2145623$63                    animation
     00000AFA  A$lcc2145623$64                    animation
     00000AFB  A$lcc2145623$65                    animation
     00000AFC  A$lcc2145623$69                    animation
     00000AFC  C$animation.c$12$1_0$137           animation
     00000AFE  A$lcc2145623$70                    animation
     00000AFF  A$lcc2145623$71                    animation
     00000B00  A$lcc2145623$72                    animation
     00000B01  A$lcc2145623$73                    animation
     00000B02  A$lcc2145623$74                    animation
     00000B03  A$lcc2145623$75                    animation
     00000B04  A$lcc2145623$76                    animation
     00000B06  A$lcc2145623$77                    animation
     00000B08  A$lcc2145623$78                    animation
     00000B09  A$lcc2145623$79                    animation
     00000B0A  A$lcc2145623$80                    animation
     00000B0B  A$lcc2145623$81                    animation
     00000B0C  A$lcc2145623$82                    animation
     00000B0D  A$lcc2145623$83                    animation
     00000B0E  A$lcc2145623$87                    animation
     00000B0E  C$animation.c$14$1_0$137           animation
     00000B0F  A$lcc2145623$88                    animation
     00000B10  A$lcc2145623$89                    animation
     00000B11  A$lcc2145623$90                    animation
     00000B13  A$lcc2145623$91                    animation
     00000B14  A$lcc2145623$92                    animation
ASxxxx Linker V03.00/V05.40 + sdld,  page 12.
Hexadecimal  [32-Bits]

Area                                    Addr        Size        Decimal Bytes (Attributes)
--------------------------------        ----        ----        ------- ----- ------------
_CODE                               00000200    00002A48 =       10824. bytes (REL,CON)

      Value  Global                              Global Defined In Module
      -----  --------------------------------   ------------------------
     00000B15  A$lcc2145623$96                    animation
     00000B15  C$animation.c$15$1_0$137           animation
     00000B16  A$lcc2145623$97                    animation
     00000B17  A$lcc2145623$98                    animation
     00000B18  A$lcc2145623$99                    animation
     00000B19  A$lcc2145623$100                   animation
     00000B1A  A$lcc2145623$101                   animation
     00000B1B  A$lcc2145623$102                   animation
     00000B1D  A$lcc2145623$103                   animation
     00000B1E  A$lcc2145623$104                   animation
     00000B1F  A$lcc2145623$105                   animation
     00000B20  A$lcc2145623$109                   animation
     00000B20  C$animation.c$16$1_0$137           animation
     00000B23  A$lcc2145623$110                   animation
     00000B24  A$lcc2145623$111                   animation
     00000B26  A$lcc2145623$115                   animation
     00000B26  C$animation.c$17$1_0$137           animation
     00000B27  A$lcc2145623$116                   animation
     00000B28  A$lcc2145623$117                   animation
     00000B29  A$lcc2145623$118                   animation
     00000B2A  A$lcc2145623$119                   animation
     00000B2C  A$lcc2145623$123                   animation
     00000B2C  C$animation.c$18$1_0$137           animation
     00000B2F  A$lcc2145623$124                   animation
     00000B30  A$lcc2145623$125                   animation
     00000B31  A$lcc2145623$126                   animation
     00000B33  A$lcc2145623$127                   animation
     00000B34  A$lcc2145623$128                   animation
     00000B35  A$lcc2145623$129                   animation
     00000B36  A$lcc2145623$133                   animation
     00000B36  C$animation.c$21$1_0$137           animation
     00000B37  A$lcc2145623$134                   animation
     00000B38  A$lcc2145623$135                   animation
     00000B39  A$lcc2145623$136                   animation
     00000B3A  A$lcc2145623$137                   animation
     00000B3C  A$lcc2145623$138                   animation
     00000B3D  A$lcc2145623$139                   animation
     00000B3E  A$lcc2145623$140                   animation
     00000B3F  A$lcc2145623$141                   animation
     00000B40  A$lcc2145623$142                   animation
     00000B43  A$lcc2145623$143                   animation
     00000B44  A$lcc2145623$144                   animation
     00000B45  A$lcc2145623$145                   animation
     00000B46  A$lcc2145623$146                   animation
     00000B48  A$lcc2145623$147                   animation
     00000B49  A$lcc2145623$148                   animation
     00000B4A  A$lcc2145623$149                   animation
     00000B4B  A$lcc2145623$150                   animation
     00000B4D  A$lcc2145623$151                   animation
     00000B4E  A$lcc2145623$152                   animation
     00000B51  A$lcc2145623$153                   animation
ASxxxx Linker V03.00/V05.40 + sdld,  page 13.
Hexadecimal  [32-Bits]

Area                                    Addr        Size        Decimal Bytes (Attributes)
--------------------------------        ----        ----        ------- ----- ------------
_CODE                               00000200    00002A48 =       10824. bytes (REL,CON)

      Value  Global                              Global Defined In Module
      -----  --------------------------------   ------------------------
     00000B52  A$lcc2145623$154                   animation
     00000B53  A$lcc2145623$155                   animation
     00000B54  A$lcc2145623$156                   animation
     00000B55  A$lcc2145623$160                   animation
     00000B55  C$animation.c$24$2_0$137           animation
     00000B57  A$lcc2145623$162                   animation
     00000B58  A$lcc2145623$163                   animation
     00000B59  A$lcc2145623$164                   animation
     00000B5A  A$lcc2145623$165                   animation
     00000B5B  A$lcc2145623$166                   animation
     00000B5D  A$lcc2145623$167                   animation
     00000B5E  A$lcc2145623$168                   animation
     00000B60  A$lcc2145623$173                   animation
     00000B60  C$animation.c$32$2_0$140           animation
     00000B62  A$lcc2145623$174                   animation
     00000B63  A$lcc2145623$175                   animation
     00000B64  A$lcc2145623$176                   animation
     00000B65  A$lcc2145623$177                   animation
     00000B68  A$lcc2145623$178                   animation
     00000B69  A$lcc2145623$179                   animation
     00000B6A  A$lcc2145623$180                   animation
     00000B6B  A$lcc2145623$181                   animation
     00000B6C  A$lcc2145623$182                   animation
     00000B6D  A$lcc2145623$183                   animation
     00000B6F  A$lcc2145623$187                   animation
     00000B6F  C$animation.c$33$2_0$140           animation
     00000B71  A$lcc2145623$188                   animation
     00000B72  A$lcc2145623$189                   animation
     00000B73  A$lcc2145623$194                   animation
     00000B73  C$animation.c$34$2_0$137           animation
     00000B75  A$lcc2145623$195                   animation
     00000B76  A$lcc2145623$196                   animation
     00000B78  A$lcc2145623$197                   animation
     00000B79  A$lcc2145623$207                   animation
     00000B79  C$animation.c$36$2_0$142           animation
     00000B79  G$update_animation$0$0             animation
     00000B79  _update_animation                  animation
     00000B7A  A$lcc2145623$208                   animation
     00000B7B  A$lcc2145623$209                   animation
     00000B7C  A$lcc2145623$210                   animation
     00000B7D  A$lcc2145623$214                   animation
     00000B7D  C$animation.c$38$1_0$142           animation
     00000B80  A$lcc2145623$215                   animation
     00000B81  A$lcc2145623$216                   animation
     00000B82  A$lcc2145623$217                   animation
     00000B83  A$lcc2145623$218                   animation
     00000B84  A$lcc2145623$219                   animation
     00000B85  A$lcc2145623$220                   animation
     00000B86  A$lcc2145623$221                   animation
     00000B87  A$lcc2145623$222                   animation
     00000B88  A$lcc2145623$223                   animation
ASxxxx Linker V03.00/V05.40 + sdld,  page 14.
Hexadecimal  [32-Bits]

Area                                    Addr        Size        Decimal Bytes (Attributes)
--------------------------------        ----        ----        ------- ----- ------------
_CODE                               00000200    00002A48 =       10824. bytes (REL,CON)

      Value  Global                              Global Defined In Module
      -----  --------------------------------   ------------------------
     00000B8A  A$lcc2145623$224                   animation
     00000B8B  A$lcc2145623$225                   animation
     00000B8C  A$lcc2145623$229                   animation
     00000B8C  C$animation.c$40$1_0$142           animation
     00000B8F  A$lcc2145623$230                   animation
     00000B90  A$lcc2145623$231                   animation
     00000B91  A$lcc2145623$232                   animation
     00000B92  A$lcc2145623$233                   animation
     00000B93  A$lcc2145623$234                   animation
     00000B94  A$lcc2145623$235                   animation
     00000B96  A$lcc2145623$236                   animation
     00000B97  A$lcc2145623$237                   animation
     00000B98  A$lcc2145623$241                   animation
     00000B98  C$animation.c$41$2_0$143           animation
     00000B99  A$lcc2145623$242                   animation
     00000B9A  A$lcc2145623$243                   animation
     00000B9B  A$lcc2145623$244                   animation
     00000B9C  A$lcc2145623$245                   animation
     00000B9D  A$lcc2145623$246                   animation
     00000B9E  A$lcc2145623$247                   animation
     00000BA0  A$lcc2145623$248                   animation
     00000BA1  A$lcc2145623$249                   animation
     00000BA3  A$lcc2145623$250                   animation
     00000BA4  A$lcc2145623$251                   animation
     00000BA5  A$lcc2145623$252                   animation
     00000BA7  A$lcc2145623$256                   animation
     00000BA7  C$animation.c$43$3_0$144           animation
     00000BA8  A$lcc2145623$257                   animation
     00000BA9  A$lcc2145623$261                   animation
     00000BA9  C$animation.c$44$3_0$144           animation
     00000BAA  A$lcc2145623$262                   animation
     00000BAB  A$lcc2145623$263                   animation
     00000BAC  A$lcc2145623$264                   animation
     00000BAD  A$lcc2145623$265                   animation
     00000BAE  A$lcc2145623$266                   animation
     00000BAF  A$lcc2145623$270                   animation
     00000BAF  C$animation.c$45$4_0$145           animation
     00000BB0  A$lcc2145623$271                   animation
     00000BB1  A$lcc2145623$272                   animation
     00000BB2  A$lcc2145623$273                   animation
     00000BB3  A$lcc2145623$274                   animation
     00000BB4  A$lcc2145623$275                   animation
     00000BB6  A$lcc2145623$279                   animation
     00000BB6  C$animation.c$46$4_0$145           animation
     00000BB8  A$lcc2145623$284                   animation
     00000BB9  A$lcc2145623$285                   animation
     00000BBA  A$lcc2145623$290                   animation
     00000BBA  C$animation.c$48$2_0$142           animation
     00000BBA  XG$update_animation$0$0            animation
     00000BBB  A$lcc2145623$300                   animation
     00000BBB  C$animation.c$50$2_0$147           animation
ASxxxx Linker V03.00/V05.40 + sdld,  page 15.
Hexadecimal  [32-Bits]

Area                                    Addr        Size        Decimal Bytes (Attributes)
--------------------------------        ----        ----        ------- ----- ------------
_CODE                               00000200    00002A48 =       10824. bytes (REL,CON)

      Value  Global                              Global Defined In Module
      -----  --------------------------------   ------------------------
     00000BBB  G$set_animation$0$0                animation
     00000BBB  _set_animation                     animation
     00000BBC  A$lcc2145623$301                   animation
     00000BBD  A$lcc2145623$302                   animation
     00000BBE  A$lcc2145623$306                   animation
     00000BBE  C$animation.c$52$2_0$148           animation
     00000BBF  A$lcc2145623$307                   animation
     00000BC1  A$lcc2145623$308                   animation
     00000BC2  A$lcc2145623$309                   animation
     00000BC3  A$lcc2145623$310                   animation
     00000BC5  A$lcc2145623$311                   animation
     00000BC6  A$lcc2145623$312                   animation
     00000BC7  A$lcc2145623$313                   animation
     00000BC8  A$lcc2145623$314                   animation
     00000BC9  A$lcc2145623$321                   animation
     00000BC9  C$animation.c$53$2_0$148           animation
     00000BC9  C$animation.c$55$1_0$147           animation
     00000BCA  A$lcc2145623$322                   animation
     00000BCB  A$lcc2145623$326                   animation
     00000BCB  C$animation.c$56$1_1$149           animation
     00000BCC  A$lcc2145623$327                   animation
     00000BCD  A$lcc2145623$328                   animation
     00000BCE  A$lcc2145623$329                   animation
     00000BCF  A$lcc2145623$330                   animation
     00000BD1  A$lcc2145623$331                   animation
     00000BD2  A$lcc2145623$335                   animation
     00000BD2  C$animation.c$57$1_1$149           animation
     00000BD3  A$lcc2145623$336                   animation
     00000BD4  A$lcc2145623$337                   animation
     00000BD5  A$lcc2145623$338                   animation
     00000BD6  A$lcc2145623$339                   animation
     00000BD7  A$lcc2145623$340                   animation
     00000BD8  A$lcc2145623$344                   animation
     00000BD8  C$animation.c$58$1_1$149           animation
     00000BDB  A$lcc2145623$345                   animation
     00000BDC  A$lcc2145623$346                   animation
     00000BDE  A$lcc2145623$354                   animation
     00000BDE  C$animation.c$59$1_1$147           animation
     00000BDE  XG$set_animation$0$0               animation
     00000BDF  A$lcc2145625$52                    char_to_tile
     00000BDF  C$char_to_tile.c$3$0_0$3           char_to_tile
     00000BDF  G$char_to_tile$0$0                 char_to_tile
     00000BDF  _char_to_tile                      char_to_tile
     00000BE1  A$lcc2145625$53                    char_to_tile
     00000BE3  A$lcc2145625$54                    char_to_tile
     00000BE4  A$lcc2145625$58                    char_to_tile
     00000BE4  C$char_to_tile.c$4$2_0$3           char_to_tile
     00000BE6  A$lcc2145625$59                    char_to_tile
     00000BE8  A$lcc2145625$60                    char_to_tile
     00000BE9  A$lcc2145625$61                    char_to_tile
     00000BEB  A$lcc2145625$62                    char_to_tile
ASxxxx Linker V03.00/V05.40 + sdld,  page 16.
Hexadecimal  [32-Bits]

Area                                    Addr        Size        Decimal Bytes (Attributes)
--------------------------------        ----        ----        ------- ----- ------------
_CODE                               00000200    00002A48 =       10824. bytes (REL,CON)

      Value  Global                              Global Defined In Module
      -----  --------------------------------   ------------------------
     00000BEC  A$lcc2145625$63                    char_to_tile
     00000BEE  A$lcc2145625$64                    char_to_tile
     00000BEF  A$lcc2145625$65                    char_to_tile
     00000BF1  A$lcc2145625$66                    char_to_tile
     00000BF2  A$lcc2145625$67                    char_to_tile
     00000BF4  A$lcc2145625$68                    char_to_tile
     00000BF5  A$lcc2145625$69                    char_to_tile
     00000BF7  A$lcc2145625$70                    char_to_tile
     00000BF8  A$lcc2145625$71                    char_to_tile
     00000BFA  A$lcc2145625$72                    char_to_tile
     00000BFB  A$lcc2145625$73                    char_to_tile
     00000BFD  A$lcc2145625$74                    char_to_tile
     00000BFE  A$lcc2145625$75                    char_to_tile
     00000C00  A$lcc2145625$76                    char_to_tile
     00000C01  A$lcc2145625$77                    char_to_tile
     00000C03  A$lcc2145625$78                    char_to_tile
     00000C04  A$lcc2145625$79                    char_to_tile
     00000C06  A$lcc2145625$80                    char_to_tile
     00000C07  A$lcc2145625$81                    char_to_tile
     00000C09  A$lcc2145625$82                    char_to_tile
     00000C0A  A$lcc2145625$83                    char_to_tile
     00000C0C  A$lcc2145625$84                    char_to_tile
     00000C0D  A$lcc2145625$85                    char_to_tile
     00000C0F  A$lcc2145625$86                    char_to_tile
     00000C10  A$lcc2145625$87                    char_to_tile
     00000C12  A$lcc2145625$88                    char_to_tile
     00000C13  A$lcc2145625$89                    char_to_tile
     00000C15  A$lcc2145625$90                    char_to_tile
     00000C16  A$lcc2145625$91                    char_to_tile
     00000C18  A$lcc2145625$92                    char_to_tile
     00000C19  A$lcc2145625$93                    char_to_tile
     00000C1B  A$lcc2145625$94                    char_to_tile
     00000C1C  A$lcc2145625$95                    char_to_tile
     00000C1E  A$lcc2145625$96                    char_to_tile
     00000C1F  A$lcc2145625$97                    char_to_tile
     00000C21  A$lcc2145625$98                    char_to_tile
     00000C22  A$lcc2145625$99                    char_to_tile
     00000C24  A$lcc2145625$100                   char_to_tile
     00000C25  A$lcc2145625$101                   char_to_tile
     00000C27  A$lcc2145625$102                   char_to_tile
     00000C28  A$lcc2145625$103                   char_to_tile
     00000C2A  A$lcc2145625$104                   char_to_tile
     00000C2B  A$lcc2145625$105                   char_to_tile
     00000C2D  A$lcc2145625$106                   char_to_tile
     00000C2E  A$lcc2145625$107                   char_to_tile
     00000C30  A$lcc2145625$108                   char_to_tile
     00000C31  A$lcc2145625$109                   char_to_tile
     00000C33  A$lcc2145625$110                   char_to_tile
     00000C34  A$lcc2145625$111                   char_to_tile
     00000C36  A$lcc2145625$112                   char_to_tile
     00000C37  A$lcc2145625$113                   char_to_tile
ASxxxx Linker V03.00/V05.40 + sdld,  page 17.
Hexadecimal  [32-Bits]

Area                                    Addr        Size        Decimal Bytes (Attributes)
--------------------------------        ----        ----        ------- ----- ------------
_CODE                               00000200    00002A48 =       10824. bytes (REL,CON)

      Value  Global                              Global Defined In Module
      -----  --------------------------------   ------------------------
     00000C39  A$lcc2145625$114                   char_to_tile
     00000C3A  A$lcc2145625$115                   char_to_tile
     00000C3C  A$lcc2145625$116                   char_to_tile
     00000C3D  A$lcc2145625$117                   char_to_tile
     00000C3F  A$lcc2145625$118                   char_to_tile
     00000C40  A$lcc2145625$119                   char_to_tile
     00000C42  A$lcc2145625$120                   char_to_tile
     00000C43  A$lcc2145625$124                   char_to_tile
     00000C43  C$char_to_tile.c$5$3_0$4           char_to_tile
     00000C44  A$lcc2145625$125                   char_to_tile
     00000C45  A$lcc2145625$126                   char_to_tile
     00000C46  A$lcc2145625$127                   char_to_tile
     00000C47  A$lcc2145625$128                   char_to_tile
     00000C4A  A$lcc2145625$130                   char_to_tile
     00000C4B  A$lcc2145625$131                   char_to_tile
     00000C4D  A$lcc2145625$132                   char_to_tile
     00000C4F  A$lcc2145625$136                   char_to_tile
     00000C4F  C$char_to_tile.c$6$4_0$6           char_to_tile
     00000C52  A$lcc2145625$137                   char_to_tile
     00000C53  A$lcc2145625$138                   char_to_tile
     00000C54  A$lcc2145625$139                   char_to_tile
     00000C55  A$lcc2145625$140                   char_to_tile
     00000C57  A$lcc2145625$141                   char_to_tile
     00000C58  A$lcc2145625$142                   char_to_tile
     00000C59  A$lcc2145625$143                   char_to_tile
     00000C5B  A$lcc2145625$147                   char_to_tile
     00000C5B  C$char_to_tile.c$7$5_0$7           char_to_tile
     00000C5D  A$lcc2145625$148                   char_to_tile
     00000C5E  A$lcc2145625$149                   char_to_tile
     00000C60  A$lcc2145625$150                   char_to_tile
     00000C61  A$lcc2145625$151                   char_to_tile
     00000C63  A$lcc2145625$156                   char_to_tile
     00000C63  C$char_to_tile.c$5$2_0$4           char_to_tile
     00000C64  A$lcc2145625$157                   char_to_tile
     00000C66  A$lcc2145625$158                   char_to_tile
     00000C67  A$lcc2145625$159                   char_to_tile
     00000C68  A$lcc2145625$160                   char_to_tile
     00000C69  A$lcc2145625$161                   char_to_tile
     00000C6B  A$lcc2145625$166                   char_to_tile
     00000C6B  C$char_to_tile.c$11$1_0$3          char_to_tile
     00000C6E  A$lcc2145625$171                   char_to_tile
     00000C70  A$lcc2145625$176                   char_to_tile
     00000C70  C$char_to_tile.c$12$1_0$3          char_to_tile
     00000C70  XG$char_to_tile$0$0                char_to_tile
     00000C71  A$lcc2145626$52                    collision
     00000C71  C$collision.c$3$0_0$3              collision
     00000C71  G$check_collision$0$0              collision
     00000C71  _check_collision                   collision
     00000C73  A$lcc2145626$53                    collision
     00000C74  A$lcc2145626$54                    collision
     00000C76  A$lcc2145626$55                    collision
ASxxxx Linker V03.00/V05.40 + sdld,  page 18.
Hexadecimal  [32-Bits]

Area                                    Addr        Size        Decimal Bytes (Attributes)
--------------------------------        ----        ----        ------- ----- ------------
_CODE                               00000200    00002A48 =       10824. bytes (REL,CON)

      Value  Global                              Global Defined In Module
      -----  --------------------------------   ------------------------
     00000C77  A$lcc2145626$59                    collision
     00000C77  C$collision.c$8$1_0$3              collision
     00000C79  A$lcc2145626$60                    collision
     00000C7A  A$lcc2145626$61                    collision
     00000C7C  A$lcc2145626$62                    collision
     00000C7D  A$lcc2145626$63                    collision
     00000C7F  A$lcc2145626$64                    collision
     00000C81  A$lcc2145626$65                    collision
     00000C82  A$lcc2145626$66                    collision
     00000C84  A$lcc2145626$67                    collision
     00000C85  A$lcc2145626$68                    collision
     00000C86  A$lcc2145626$69                    collision
     00000C87  A$lcc2145626$70                    collision
     00000C88  A$lcc2145626$71                    collision
     00000C89  A$lcc2145626$72                    collision
     00000C8A  A$lcc2145626$73                    collision
     00000C8B  A$lcc2145626$74                    collision
     00000C8C  A$lcc2145626$75                    collision
     00000C8D  A$lcc2145626$76                    collision
     00000C8E  A$lcc2145626$77                    collision
     00000C8F  A$lcc2145626$78                    collision
     00000C91  A$lcc2145626$79                    collision
     00000C92  A$lcc2145626$80                    collision
     00000C93  A$lcc2145626$81                    collision
     00000C94  A$lcc2145626$82                    collision
     00000C96  A$lcc2145626$83                    collision
     00000C97  A$lcc2145626$84                    collision
     00000C99  A$lcc2145626$85                    collision
     00000C9A  A$lcc2145626$86                    collision
     00000C9B  A$lcc2145626$87                    collision
     00000C9C  A$lcc2145626$88                    collision
     00000C9D  A$lcc2145626$89                    collision
     00000C9E  A$lcc2145626$90                    collision
     00000CA0  A$lcc2145626$94                    collision
     00000CA0  C$collision.c$9$1_0$3              collision
     00000CA1  A$lcc2145626$95                    collision
     00000CA2  A$lcc2145626$96                    collision
     00000CA3  A$lcc2145626$97                    collision
     00000CA4  A$lcc2145626$98                    collision
     00000CA5  A$lcc2145626$99                    collision
     00000CA7  A$lcc2145626$100                   collision
     00000CA8  A$lcc2145626$101                   collision
     00000CA9  A$lcc2145626$102                   collision
     00000CAA  A$lcc2145626$103                   collision
     00000CAB  A$lcc2145626$104                   collision
     00000CAD  A$lcc2145626$108                   collision
     00000CAD  C$collision.c$10$1_0$3             collision
     00000CAF  A$lcc2145626$109                   collision
     00000CB0  A$lcc2145626$110                   collision
     00000CB2  A$lcc2145626$111                   collision
     00000CB3  A$lcc2145626$112                   collision
ASxxxx Linker V03.00/V05.40 + sdld,  page 19.
Hexadecimal  [32-Bits]

Area                                    Addr        Size        Decimal Bytes (Attributes)
--------------------------------        ----        ----        ------- ----- ------------
_CODE                               00000200    00002A48 =       10824. bytes (REL,CON)

      Value  Global                              Global Defined In Module
      -----  --------------------------------   ------------------------
     00000CB4  A$lcc2145626$113                   collision
     00000CB5  A$lcc2145626$114                   collision
     00000CB6  A$lcc2145626$115                   collision
     00000CB7  A$lcc2145626$116                   collision
     00000CB8  A$lcc2145626$117                   collision
     00000CB9  A$lcc2145626$118                   collision
     00000CBA  A$lcc2145626$119                   collision
     00000CBB  A$lcc2145626$120                   collision
     00000CBC  A$lcc2145626$121                   collision
     00000CBD  A$lcc2145626$122                   collision
     00000CBF  A$lcc2145626$123                   collision
     00000CC0  A$lcc2145626$124                   collision
     00000CC1  A$lcc2145626$125                   collision
     00000CC2  A$lcc2145626$126                   collision
     00000CC4  A$lcc2145626$127                   collision
     00000CC5  A$lcc2145626$128                   collision
     00000CC6  A$lcc2145626$129                   collision
     00000CC7  A$lcc2145626$130                   collision
     00000CC8  A$lcc2145626$131                   collision
     00000CCA  A$lcc2145626$132                   collision
     00000CCB  A$lcc2145626$133                   collision
     00000CCC  A$lcc2145626$134                   collision
     00000CCD  A$lcc2145626$135                   collision
     00000CCE  A$lcc2145626$136                   collision
     00000CCF  A$lcc2145626$137                   collision
     00000CD1  A$lcc2145626$141                   collision
     00000CD1  C$collision.c$11$1_0$3             collision
     00000CD2  A$lcc2145626$142                   collision
     00000CD3  A$lcc2145626$143                   collision
     00000CD4  A$lcc2145626$144                   collision
     00000CD5  A$lcc2145626$145                   collision
     00000CD6  A$lcc2145626$146                   collision
     00000CD8  A$lcc2145626$147                   collision
     00000CD9  A$lcc2145626$148                   collision
     00000CDA  A$lcc2145626$149                   collision
     00000CDB  A$lcc2145626$150                   collision
     00000CDC  A$lcc2145626$151                   collision
     00000CDE  A$lcc2145626$153                   collision
     00000CDF  A$lcc2145626$154                   collision
     00000CE1  A$lcc2145626$156                   collision
     00000CE3  A$lcc2145626$161                   collision
     00000CE3  C$collision.c$12$1_0$3             collision
     00000CE5  A$lcc2145626$162                   collision
     00000CE6  A$lcc2145626$163                   collision
     00000CE8  A$lcc2145626$164                   collision
     00000CE9  A$lcc2145627$53                    draw
     00000CE9  C$draw.c$7$0_0$139                 draw
     00000CE9  G$draw_actor$0$0                   draw
     00000CE9  _draw_actor                        draw
     00000CEB  A$lcc2145627$54                    draw
     00000CED  A$lcc2145627$55                    draw
ASxxxx Linker V03.00/V05.40 + sdld,  page 20.
Hexadecimal  [32-Bits]

Area                                    Addr        Size        Decimal Bytes (Attributes)
--------------------------------        ----        ----        ------- ----- ------------
_CODE                               00000200    00002A48 =       10824. bytes (REL,CON)

      Value  Global                              Global Defined In Module
      -----  --------------------------------   ------------------------
     00000CEE  A$lcc2145627$59                    draw
     00000CEE  C$draw.c$9$1_0$139                 draw
     00000CF1  A$lcc2145627$60                    draw
     00000CF2  A$lcc2145627$61                    draw
     00000CF4  A$lcc2145627$62                    draw
     00000CF5  A$lcc2145627$63                    draw
     00000CF6  A$lcc2145627$64                    draw
     00000CF7  A$lcc2145627$65                    draw
     00000CF8  A$lcc2145627$66                    draw
     00000CFA  A$lcc2145627$67                    draw
     00000CFB  A$lcc2145627$71                    draw
     00000CFB  C$draw.c$10$1_0$139                draw
     00000CFE  A$lcc2145627$72                    draw
     00000D00  A$lcc2145627$73                    draw
     00000D01  A$lcc2145627$74                    draw
     00000D03  A$lcc2145627$75                    draw
     00000D04  A$lcc2145627$76                    draw
     00000D05  A$lcc2145627$77                    draw
     00000D06  A$lcc2145627$78                    draw
     00000D07  A$lcc2145627$79                    draw
     00000D09  A$lcc2145627$80                    draw
     00000D0A  A$lcc2145627$84                    draw
     00000D0A  C$draw.c$12$1_0$139                draw
     00000D0D  A$lcc2145627$85                    draw
     00000D0F  A$lcc2145627$86                    draw
     00000D10  A$lcc2145627$87                    draw
     00000D12  A$lcc2145627$88                    draw
     00000D13  A$lcc2145627$89                    draw
     00000D14  A$lcc2145627$90                    draw
     00000D15  A$lcc2145627$91                    draw
     00000D16  A$lcc2145627$92                    draw
     00000D17  A$lcc2145627$93                    draw
     00000D18  A$lcc2145627$94                    draw
     00000D19  A$lcc2145627$95                    draw
     00000D1A  A$lcc2145627$96                    draw
     00000D1B  A$lcc2145627$97                    draw
     00000D1C  A$lcc2145627$98                    draw
     00000D1D  A$lcc2145627$99                    draw
     00000D1E  A$lcc2145627$103                   draw
     00000D1E  C$draw.c$13$1_0$139                draw
     00000D21  A$lcc2145627$104                   draw
     00000D22  A$lcc2145627$105                   draw
     00000D23  A$lcc2145627$106                   draw
     00000D24  A$lcc2145627$107                   draw
     00000D25  A$lcc2145627$108                   draw
     00000D26  A$lcc2145627$109                   draw
     00000D27  A$lcc2145627$110                   draw
     00000D28  A$lcc2145627$111                   draw
     00000D29  A$lcc2145627$112                   draw
     00000D2B  A$lcc2145627$113                   draw
     00000D2C  A$lcc2145627$114                   draw
ASxxxx Linker V03.00/V05.40 + sdld,  page 21.
Hexadecimal  [32-Bits]

Area                                    Addr        Size        Decimal Bytes (Attributes)
--------------------------------        ----        ----        ------- ----- ------------
_CODE                               00000200    00002A48 =       10824. bytes (REL,CON)

      Value  Global                              Global Defined In Module
      -----  --------------------------------   ------------------------
     00000D2D  A$lcc2145627$118                   draw
     00000D2D  C$draw.c$15$1_0$139                draw
     00000D30  A$lcc2145627$119                   draw
     00000D31  A$lcc2145627$120                   draw
     00000D32  A$lcc2145627$121                   draw
     00000D34  A$lcc2145627$122                   draw
     00000D35  A$lcc2145627$126                   draw
     00000D35  C$draw.c$16$1_0$139                draw
     00000D36  A$lcc2145627$127                   draw
     00000D37  A$lcc2145627$128                   draw
     00000D38  A$lcc2145627$129                   draw
     00000D39  A$lcc2145627$130                   draw
     00000D3A  A$lcc2145627$131                   draw
     00000D3B  A$lcc2145627$132                   draw
     00000D3E  A$lcc2145627$133                   draw
     00000D3F  A$lcc2145627$134                   draw
     00000D40  A$lcc2145627$135                   draw
     00000D41  A$lcc2145627$136                   draw
     00000D43  A$lcc2145627$140                   draw
     00000D43  C$draw.c$18$1_0$139                draw
     00000D44  A$lcc2145627$141                   draw
     00000D45  A$lcc2145627$142                   draw
     00000D46  A$lcc2145627$143                   draw
     00000D47  A$lcc2145627$144                   draw
     00000D48  A$lcc2145627$148                   draw
     00000D48  C$draw.c$19$1_0$139                draw
     00000D4A  A$lcc2145627$149                   draw
     00000D4B  A$lcc2145627$150                   draw
     00000D4C  A$lcc2145627$151                   draw
     00000D4D  A$lcc2145627$152                   draw
     00000D4E  A$lcc2145627$153                   draw
     00000D4F  A$lcc2145627$154                   draw
     00000D50  A$lcc2145627$155                   draw
     00000D51  A$lcc2145627$156                   draw
     00000D52  A$lcc2145627$157                   draw
     00000D53  A$lcc2145627$158                   draw
     00000D54  A$lcc2145627$159                   draw
     00000D55  A$lcc2145627$160                   draw
     00000D56  A$lcc2145627$161                   draw
     00000D57  A$lcc2145627$162                   draw
     00000D58  A$lcc2145627$166                   draw
     00000D58  C$draw.c$21$2_0$140                draw
     00000D5A  A$lcc2145627$167                   draw
     00000D5B  A$lcc2145627$174                   draw
     00000D5B  C$draw.c$22$2_0$140                draw
     00000D5B  C$draw.c$25$2_0$139                draw
     00000D5E  A$lcc2145627$175                   draw
     00000D60  A$lcc2145627$177                   draw
     00000D61  A$lcc2145627$178                   draw
     00000D63  A$lcc2145627$179                   draw
     00000D64  A$lcc2145627$180                   draw
ASxxxx Linker V03.00/V05.40 + sdld,  page 22.
Hexadecimal  [32-Bits]

Area                                    Addr        Size        Decimal Bytes (Attributes)
--------------------------------        ----        ----        ------- ----- ------------
_CODE                               00000200    00002A48 =       10824. bytes (REL,CON)

      Value  Global                              Global Defined In Module
      -----  --------------------------------   ------------------------
     00000D66  A$lcc2145627$182                   draw
     00000D67  A$lcc2145627$183                   draw
     00000D68  A$lcc2145627$184                   draw
     00000D69  A$lcc2145627$185                   draw
     00000D6A  A$lcc2145627$186                   draw
     00000D6B  A$lcc2145627$187                   draw
     00000D6D  A$lcc2145627$188                   draw
     00000D70  A$lcc2145627$189                   draw
     00000D71  A$lcc2145627$190                   draw
     00000D72  A$lcc2145627$191                   draw
     00000D73  A$lcc2145627$192                   draw
     00000D74  A$lcc2145627$194                   draw
     00000D75  A$lcc2145627$195                   draw
     00000D76  A$lcc2145627$196                   draw
     00000D77  A$lcc2145627$197                   draw
     00000D78  A$lcc2145627$198                   draw
     00000D79  A$lcc2145627$199                   draw
     00000D7A  A$lcc2145627$200                   draw
     00000D7D  A$lcc2145627$201                   draw
     00000D7E  A$lcc2145627$202                   draw
     00000D7F  A$lcc2145627$203                   draw
     00000D80  A$lcc2145627$204                   draw
     00000D81  A$lcc2145627$205                   draw
     00000D82  A$lcc2145627$209                   draw
     00000D82  C$draw.c$25$2_0$141                draw
     00000D83  A$lcc2145627$210                   draw
     00000D85  A$lcc2145627$215                   draw
     00000D85  C$draw.c$29$2_0$142                draw
     00000D87  A$lcc2145627$216                   draw
     00000D88  A$lcc2145627$217                   draw
     00000D89  A$lcc2145627$218                   draw
     00000D8B  A$lcc2145627$220                   draw
     00000D8D  A$lcc2145627$221                   draw
     00000D8E  A$lcc2145627$223                   draw
     00000D8F  A$lcc2145627$224                   draw
     00000D90  A$lcc2145627$225                   draw
     00000D91  A$lcc2145627$226                   draw
     00000D92  A$lcc2145627$227                   draw
     00000D93  A$lcc2145627$228                   draw
     00000D96  A$lcc2145627$229                   draw
     00000D97  A$lcc2145627$230                   draw
     00000D98  A$lcc2145627$231                   draw
     00000D99  A$lcc2145627$233                   draw
     00000D9B  A$lcc2145627$234                   draw
     00000D9C  A$lcc2145627$235                   draw
     00000D9D  A$lcc2145627$236                   draw
     00000D9E  A$lcc2145627$237                   draw
     00000D9F  A$lcc2145627$238                   draw
     00000DA0  A$lcc2145627$242                   draw
     00000DA0  C$draw.c$31$2_0$142                draw
     00000DA3  A$lcc2145627$247                   draw
ASxxxx Linker V03.00/V05.40 + sdld,  page 23.
Hexadecimal  [32-Bits]

Area                                    Addr        Size        Decimal Bytes (Attributes)
--------------------------------        ----        ----        ------- ----- ------------
_CODE                               00000200    00002A48 =       10824. bytes (REL,CON)

      Value  Global                              Global Defined In Module
      -----  --------------------------------   ------------------------
     00000DA3  C$draw.c$33$3_0$144                draw
     00000DA5  A$lcc2145627$248                   draw
     00000DA6  A$lcc2145627$249                   draw
     00000DA8  A$lcc2145627$250                   draw
     00000DAA  A$lcc2145627$254                   draw
     00000DAD  A$lcc2145627$255                   draw
     00000DAF  A$lcc2145627$256                   draw
     00000DB0  A$lcc2145627$257                   draw
     00000DB2  A$lcc2145627$258                   draw
     00000DB3  A$lcc2145627$259                   draw
     00000DB4  A$lcc2145627$260                   draw
     00000DB5  A$lcc2145627$261                   draw
     00000DB6  A$lcc2145627$262                   draw
     00000DB7  A$lcc2145627$266                   draw
     00000DB7  C$draw.c$31$2_0$139                draw
     00000DB9  A$lcc2145627$267                   draw
     00000DBA  A$lcc2145627$271                   draw
     00000DBA  C$draw.c$35$5_0$146                draw
     00000DBC  A$lcc2145627$272                   draw
     00000DBE  A$lcc2145627$275                   draw
     00000DBF  A$lcc2145627$276                   draw
     00000DC0  A$lcc2145627$277                   draw
     00000DC1  A$lcc2145627$278                   draw
     00000DC2  A$lcc2145627$279                   draw
     00000DC3  A$lcc2145627$280                   draw
     00000DC6  A$lcc2145627$281                   draw
     00000DC7  A$lcc2145627$282                   draw
     00000DC8  A$lcc2145627$283                   draw
     00000DC9  A$lcc2145627$285                   draw
     00000DCB  A$lcc2145627$286                   draw
     00000DCC  A$lcc2145627$287                   draw
     00000DCD  A$lcc2145627$288                   draw
     00000DCE  A$lcc2145627$290                   draw
     00000DCF  A$lcc2145627$291                   draw
     00000DD0  A$lcc2145627$292                   draw
     00000DD1  A$lcc2145627$293                   draw
     00000DD3  A$lcc2145627$294                   draw
     00000DD4  A$lcc2145627$295                   draw
     00000DD6  A$lcc2145627$297                   draw
     00000DD7  A$lcc2145627$298                   draw
     00000DDA  A$lcc2145627$299                   draw
     00000DDB  A$lcc2145627$300                   draw
     00000DDC  A$lcc2145627$301                   draw
     00000DDD  A$lcc2145627$302                   draw
     00000DDE  A$lcc2145627$303                   draw
     00000DDF  A$lcc2145627$304                   draw
     00000DE0  A$lcc2145627$305                   draw
     00000DE1  A$lcc2145627$307                   draw
     00000DE2  A$lcc2145627$308                   draw
     00000DE3  A$lcc2145627$309                   draw
     00000DE4  A$lcc2145627$310                   draw
ASxxxx Linker V03.00/V05.40 + sdld,  page 24.
Hexadecimal  [32-Bits]

Area                                    Addr        Size        Decimal Bytes (Attributes)
--------------------------------        ----        ----        ------- ----- ------------
_CODE                               00000200    00002A48 =       10824. bytes (REL,CON)

      Value  Global                              Global Defined In Module
      -----  --------------------------------   ------------------------
     00000DE6  A$lcc2145627$311                   draw
     00000DE7  A$lcc2145627$312                   draw
     00000DE8  A$lcc2145627$316                   draw
     00000DE8  C$draw.c$38$5_0$146                draw
     00000DEB  A$lcc2145627$320                   draw
     00000DEC  A$lcc2145627$321                   draw
     00000DED  A$lcc2145627$322                   draw
     00000DEE  A$lcc2145627$323                   draw
     00000DEF  A$lcc2145627$324                   draw
     00000DF0  A$lcc2145627$325                   draw
     00000DF3  A$lcc2145627$326                   draw
     00000DF4  A$lcc2145627$327                   draw
     00000DF5  A$lcc2145627$328                   draw
     00000DF6  A$lcc2145627$330                   draw
     00000DF8  A$lcc2145627$331                   draw
     00000DF9  A$lcc2145627$332                   draw
     00000DFA  A$lcc2145627$333                   draw
     00000DFB  A$lcc2145627$334                   draw
     00000DFC  A$lcc2145627$335                   draw
     00000DFD  A$lcc2145627$337                   draw
     00000DFE  A$lcc2145627$338                   draw
     00000E00  A$lcc2145627$339                   draw
     00000E01  A$lcc2145627$340                   draw
     00000E03  A$lcc2145627$342                   draw
     00000E04  A$lcc2145627$343                   draw
     00000E05  A$lcc2145627$344                   draw
     00000E06  A$lcc2145627$345                   draw
     00000E07  A$lcc2145627$346                   draw
     00000E08  A$lcc2145627$347                   draw
     00000E0B  A$lcc2145627$348                   draw
     00000E0C  A$lcc2145627$350                   draw
     00000E0D  A$lcc2145627$351                   draw
     00000E0F  A$lcc2145627$352                   draw
     00000E10  A$lcc2145627$353                   draw
     00000E11  A$lcc2145627$354                   draw
     00000E12  A$lcc2145627$355                   draw
     00000E13  A$lcc2145627$359                   draw
     00000E13  C$draw.c$43$3_0$144                draw
     00000E15  A$lcc2145627$364                   draw
     00000E15  C$draw.c$46$4_0$149                draw
     00000E17  A$lcc2145627$365                   draw
     00000E18  A$lcc2145627$366                   draw
     00000E1A  A$lcc2145627$367                   draw
     00000E1C  A$lcc2145627$369                   draw
     00000E1E  A$lcc2145627$370                   draw
     00000E1F  A$lcc2145627$372                   draw
     00000E20  A$lcc2145627$373                   draw
     00000E21  A$lcc2145627$374                   draw
     00000E22  A$lcc2145627$375                   draw
     00000E23  A$lcc2145627$376                   draw
     00000E24  A$lcc2145627$377                   draw
ASxxxx Linker V03.00/V05.40 + sdld,  page 25.
Hexadecimal  [32-Bits]

Area                                    Addr        Size        Decimal Bytes (Attributes)
--------------------------------        ----        ----        ------- ----- ------------
_CODE                               00000200    00002A48 =       10824. bytes (REL,CON)

      Value  Global                              Global Defined In Module
      -----  --------------------------------   ------------------------
     00000E27  A$lcc2145627$378                   draw
     00000E28  A$lcc2145627$379                   draw
     00000E29  A$lcc2145627$380                   draw
     00000E2A  A$lcc2145627$382                   draw
     00000E2C  A$lcc2145627$383                   draw
     00000E2D  A$lcc2145627$384                   draw
     00000E2E  A$lcc2145627$385                   draw
     00000E2F  A$lcc2145627$386                   draw
     00000E30  A$lcc2145627$387                   draw
     00000E31  A$lcc2145627$389                   draw
     00000E32  A$lcc2145627$390                   draw
     00000E34  A$lcc2145627$391                   draw
     00000E36  A$lcc2145627$392                   draw
     00000E37  A$lcc2145627$393                   draw
     00000E38  A$lcc2145627$394                   draw
     00000E3A  A$lcc2145627$396                   draw
     00000E3B  A$lcc2145627$397                   draw
     00000E3C  A$lcc2145627$398                   draw
     00000E3D  A$lcc2145627$399                   draw
     00000E3E  A$lcc2145627$400                   draw
     00000E3F  A$lcc2145627$401                   draw
     00000E42  A$lcc2145627$402                   draw
     00000E43  A$lcc2145627$404                   draw
     00000E44  A$lcc2145627$405                   draw
     00000E46  A$lcc2145627$406                   draw
     00000E47  A$lcc2145627$407                   draw
     00000E48  A$lcc2145627$408                   draw
     00000E49  A$lcc2145627$409                   draw
     00000E4A  A$lcc2145627$411                   draw
     00000E4C  A$lcc2145627$412                   draw
     00000E4D  A$lcc2145627$413                   draw
     00000E4F  A$lcc2145627$414                   draw
     00000E50  A$lcc2145627$415                   draw
     00000E51  A$lcc2145627$416                   draw
     00000E53  A$lcc2145627$418                   draw
     00000E54  A$lcc2145627$419                   draw
     00000E55  A$lcc2145627$420                   draw
     00000E56  A$lcc2145627$421                   draw
     00000E57  A$lcc2145627$422                   draw
     00000E58  A$lcc2145627$423                   draw
     00000E5B  A$lcc2145627$424                   draw
     00000E5C  A$lcc2145627$425                   draw
     00000E5D  A$lcc2145627$426                   draw
     00000E5E  A$lcc2145627$428                   draw
     00000E60  A$lcc2145627$429                   draw
     00000E61  A$lcc2145627$430                   draw
     00000E62  A$lcc2145627$431                   draw
     00000E63  A$lcc2145627$432                   draw
     00000E64  A$lcc2145627$434                   draw
     00000E65  A$lcc2145627$435                   draw
     00000E66  A$lcc2145627$437                   draw
ASxxxx Linker V03.00/V05.40 + sdld,  page 26.
Hexadecimal  [32-Bits]

Area                                    Addr        Size        Decimal Bytes (Attributes)
--------------------------------        ----        ----        ------- ----- ------------
_CODE                               00000200    00002A48 =       10824. bytes (REL,CON)

      Value  Global                              Global Defined In Module
      -----  --------------------------------   ------------------------
     00000E67  A$lcc2145627$438                   draw
     00000E6A  A$lcc2145627$439                   draw
     00000E6B  A$lcc2145627$440                   draw
     00000E6C  A$lcc2145627$441                   draw
     00000E6D  A$lcc2145627$442                   draw
     00000E6E  A$lcc2145627$443                   draw
     00000E6F  A$lcc2145627$444                   draw
     00000E70  A$lcc2145627$445                   draw
     00000E71  A$lcc2145627$447                   draw
     00000E72  A$lcc2145627$448                   draw
     00000E73  A$lcc2145627$449                   draw
     00000E74  A$lcc2145627$450                   draw
     00000E76  A$lcc2145627$451                   draw
     00000E77  A$lcc2145627$452                   draw
     00000E78  A$lcc2145627$460                   draw
     00000E78  C$draw.c$51$2_0$139                draw
     00000E7A  A$lcc2145627$465                   draw
     00000E7A  C$draw.c$53$2_0$139                draw
     00000E7A  XG$draw_actor$0$0                  draw
     00000E7B  A$lcc2145627$475                   draw
     00000E7B  C$draw.c$55$2_0$182                draw
     00000E7B  G$draw_extra$0$0                   draw
     00000E7B  _draw_extra                        draw
     00000E7D  A$lcc2145627$476                   draw
     00000E7E  A$lcc2145627$477                   draw
     00000E80  A$lcc2145627$478                   draw
     00000E81  A$lcc2145627$482                   draw
     00000E81  C$draw.c$58$1_0$182                draw
     00000E83  A$lcc2145627$483                   draw
     00000E84  A$lcc2145627$484                   draw
     00000E85  A$lcc2145627$485                   draw
     00000E86  A$lcc2145627$486                   draw
     00000E87  A$lcc2145627$487                   draw
     00000E8A  A$lcc2145627$488                   draw
     00000E8B  A$lcc2145627$489                   draw
     00000E8C  A$lcc2145627$490                   draw
     00000E8D  A$lcc2145627$491                   draw
     00000E8F  A$lcc2145627$492                   draw
     00000E90  A$lcc2145627$496                   draw
     00000E90  C$draw.c$61$2_0$182                draw
     00000E92  A$lcc2145627$497                   draw
     00000E93  A$lcc2145627$498                   draw
     00000E94  A$lcc2145627$499                   draw
     00000E97  A$lcc2145627$500                   draw
     00000E98  A$lcc2145627$501                   draw
     00000E9A  A$lcc2145627$502                   draw
     00000E9C  A$lcc2145627$503                   draw
     00000E9D  A$lcc2145627$507                   draw
     00000E9D  C$draw.c$64$2_0$183                draw
     00000E9E  A$lcc2145627$508                   draw
     00000EA0  A$lcc2145627$509                   draw
ASxxxx Linker V03.00/V05.40 + sdld,  page 27.
Hexadecimal  [32-Bits]

Area                                    Addr        Size        Decimal Bytes (Attributes)
--------------------------------        ----        ----        ------- ----- ------------
_CODE                               00000200    00002A48 =       10824. bytes (REL,CON)

      Value  Global                              Global Defined In Module
      -----  --------------------------------   ------------------------
     00000EA2  A$lcc2145627$510                   draw
     00000EA3  A$lcc2145627$511                   draw
     00000EA5  A$lcc2145627$512                   draw
     00000EA6  A$lcc2145627$513                   draw
     00000EA7  A$lcc2145627$514                   draw
     00000EA9  A$lcc2145627$515                   draw
     00000EAA  A$lcc2145627$516                   draw
     00000EAC  A$lcc2145627$517                   draw
     00000EAD  A$lcc2145627$524                   draw
     00000EAD  C$draw.c$65$2_0$183                draw
     00000EAD  C$draw.c$68$2_0$182                draw
     00000EB0  A$lcc2145627$525                   draw
     00000EB2  A$lcc2145627$527                   draw
     00000EB3  A$lcc2145627$528                   draw
     00000EB5  A$lcc2145627$529                   draw
     00000EB6  A$lcc2145627$530                   draw
     00000EB8  A$lcc2145627$532                   draw
     00000EBA  A$lcc2145627$533                   draw
     00000EBB  A$lcc2145627$534                   draw
     00000EBC  A$lcc2145627$535                   draw
     00000EBD  A$lcc2145627$536                   draw
     00000EBE  A$lcc2145627$537                   draw
     00000EBF  A$lcc2145627$538                   draw
     00000EC0  A$lcc2145627$540                   draw
     00000EC1  A$lcc2145627$541                   draw
     00000EC2  A$lcc2145627$542                   draw
     00000EC3  A$lcc2145627$543                   draw
     00000EC4  A$lcc2145627$544                   draw
     00000EC5  A$lcc2145627$545                   draw
     00000EC6  A$lcc2145627$546                   draw
     00000EC9  A$lcc2145627$547                   draw
     00000ECA  A$lcc2145627$548                   draw
     00000ECB  A$lcc2145627$549                   draw
     00000ECC  A$lcc2145627$550                   draw
     00000ECD  A$lcc2145627$551                   draw
     00000ECE  A$lcc2145627$552                   draw
     00000ED0  A$lcc2145627$553                   draw
     00000ED1  A$lcc2145627$554                   draw
     00000ED2  A$lcc2145627$555                   draw
     00000ED3  A$lcc2145627$559                   draw
     00000ED3  C$draw.c$68$2_0$184                draw
     00000ED4  A$lcc2145627$560                   draw
     00000ED6  A$lcc2145627$565                   draw
     00000ED6  C$draw.c$74$2_0$182                draw
     00000ED8  A$lcc2145627$566                   draw
     00000ED9  A$lcc2145627$567                   draw
     00000EDB  A$lcc2145627$568                   draw
     00000EDC  A$lcc2145627$572                   draw
     00000EDC  C$draw.c$72$2_0$185                draw
     00000EDE  A$lcc2145627$573                   draw
     00000EDF  A$lcc2145627$574                   draw
ASxxxx Linker V03.00/V05.40 + sdld,  page 28.
Hexadecimal  [32-Bits]

Area                                    Addr        Size        Decimal Bytes (Attributes)
--------------------------------        ----        ----        ------- ----- ------------
_CODE                               00000200    00002A48 =       10824. bytes (REL,CON)

      Value  Global                              Global Defined In Module
      -----  --------------------------------   ------------------------
     00000EE0  A$lcc2145627$575                   draw
     00000EE2  A$lcc2145627$577                   draw
     00000EE3  A$lcc2145627$578                   draw
     00000EE4  A$lcc2145627$579                   draw
     00000EE5  A$lcc2145627$580                   draw
     00000EE6  A$lcc2145627$581                   draw
     00000EE9  A$lcc2145627$582                   draw
     00000EEA  A$lcc2145627$583                   draw
     00000EEB  A$lcc2145627$584                   draw
     00000EEC  A$lcc2145627$586                   draw
     00000EEE  A$lcc2145627$587                   draw
     00000EEF  A$lcc2145627$588                   draw
     00000EF0  A$lcc2145627$589                   draw
     00000EF1  A$lcc2145627$590                   draw
     00000EF3  A$lcc2145627$591                   draw
     00000EF4  A$lcc2145627$592                   draw
     00000EF5  A$lcc2145627$596                   draw
     00000EF5  C$draw.c$74$2_0$185                draw
     00000EF8  A$lcc2145627$601                   draw
     00000EF8  C$draw.c$76$3_0$187                draw
     00000EFA  A$lcc2145627$602                   draw
     00000EFB  A$lcc2145627$603                   draw
     00000EFD  A$lcc2145627$604                   draw
     00000EFF  A$lcc2145627$608                   draw
     00000EFF  C$draw.c$78$5_0$189                draw
     00000F01  A$lcc2145627$609                   draw
     00000F02  A$lcc2145627$610                   draw
     00000F03  A$lcc2145627$611                   draw
     00000F05  A$lcc2145627$613                   draw
     00000F06  A$lcc2145627$614                   draw
     00000F07  A$lcc2145627$615                   draw
     00000F08  A$lcc2145627$616                   draw
     00000F09  A$lcc2145627$617                   draw
     00000F0C  A$lcc2145627$618                   draw
     00000F0D  A$lcc2145627$619                   draw
     00000F0E  A$lcc2145627$620                   draw
     00000F0F  A$lcc2145627$622                   draw
     00000F11  A$lcc2145627$623                   draw
     00000F12  A$lcc2145627$624                   draw
     00000F13  A$lcc2145627$625                   draw
     00000F14  A$lcc2145627$626                   draw
     00000F16  A$lcc2145627$627                   draw
     00000F17  A$lcc2145627$628                   draw
     00000F18  A$lcc2145627$630                   draw
     00000F1A  A$lcc2145627$631                   draw
     00000F1B  A$lcc2145627$632                   draw
     00000F1C  A$lcc2145627$633                   draw
     00000F1E  A$lcc2145627$634                   draw
     00000F1F  A$lcc2145627$635                   draw
     00000F20  A$lcc2145627$636                   draw
     00000F21  A$lcc2145627$638                   draw
ASxxxx Linker V03.00/V05.40 + sdld,  page 29.
Hexadecimal  [32-Bits]

Area                                    Addr        Size        Decimal Bytes (Attributes)
--------------------------------        ----        ----        ------- ----- ------------
_CODE                               00000200    00002A48 =       10824. bytes (REL,CON)

      Value  Global                              Global Defined In Module
      -----  --------------------------------   ------------------------
     00000F22  A$lcc2145627$639                   draw
     00000F23  A$lcc2145627$640                   draw
     00000F24  A$lcc2145627$641                   draw
     00000F25  A$lcc2145627$642                   draw
     00000F26  A$lcc2145627$643                   draw
     00000F29  A$lcc2145627$644                   draw
     00000F2A  A$lcc2145627$646                   draw
     00000F2B  A$lcc2145627$647                   draw
     00000F2C  A$lcc2145627$648                   draw
     00000F2D  A$lcc2145627$649                   draw
     00000F2E  A$lcc2145627$650                   draw
     00000F30  A$lcc2145627$651                   draw
     00000F31  A$lcc2145627$652                   draw
     00000F32  A$lcc2145627$656                   draw
     00000F32  C$draw.c$81$5_0$189                draw
     00000F35  A$lcc2145627$659                   draw
     00000F36  A$lcc2145627$660                   draw
     00000F37  A$lcc2145627$661                   draw
     00000F38  A$lcc2145627$662                   draw
     00000F39  A$lcc2145627$663                   draw
     00000F3C  A$lcc2145627$664                   draw
     00000F3D  A$lcc2145627$665                   draw
     00000F3E  A$lcc2145627$666                   draw
     00000F3F  A$lcc2145627$668                   draw
     00000F41  A$lcc2145627$669                   draw
     00000F42  A$lcc2145627$670                   draw
     00000F43  A$lcc2145627$671                   draw
     00000F44  A$lcc2145627$672                   draw
     00000F46  A$lcc2145627$673                   draw
     00000F47  A$lcc2145627$674                   draw
     00000F48  A$lcc2145627$676                   draw
     00000F49  A$lcc2145627$677                   draw
     00000F4B  A$lcc2145627$678                   draw
     00000F4C  A$lcc2145627$679                   draw
     00000F4D  A$lcc2145627$680                   draw
     00000F4E  A$lcc2145627$682                   draw
     00000F4F  A$lcc2145627$683                   draw
     00000F50  A$lcc2145627$684                   draw
     00000F51  A$lcc2145627$685                   draw
     00000F52  A$lcc2145627$686                   draw
     00000F53  A$lcc2145627$687                   draw
     00000F56  A$lcc2145627$688                   draw
     00000F57  A$lcc2145627$690                   draw
     00000F58  A$lcc2145627$691                   draw
     00000F5A  A$lcc2145627$692                   draw
     00000F5B  A$lcc2145627$693                   draw
     00000F5C  A$lcc2145627$694                   draw
     00000F5D  A$lcc2145627$695                   draw
     00000F5E  A$lcc2145627$699                   draw
     00000F5E  C$draw.c$86$3_0$187                draw
     00000F60  A$lcc2145627$704                   draw
ASxxxx Linker V03.00/V05.40 + sdld,  page 30.
Hexadecimal  [32-Bits]

Area                                    Addr        Size        Decimal Bytes (Attributes)
--------------------------------        ----        ----        ------- ----- ------------
_CODE                               00000200    00002A48 =       10824. bytes (REL,CON)

      Value  Global                              Global Defined In Module
      -----  --------------------------------   ------------------------
     00000F60  C$draw.c$89$4_0$192                draw
     00000F62  A$lcc2145627$705                   draw
     00000F63  A$lcc2145627$706                   draw
     00000F65  A$lcc2145627$707                   draw
     00000F67  A$lcc2145627$709                   draw
     00000F68  A$lcc2145627$710                   draw
     00000F69  A$lcc2145627$711                   draw
     00000F6A  A$lcc2145627$712                   draw
     00000F6B  A$lcc2145627$713                   draw
     00000F6E  A$lcc2145627$714                   draw
     00000F6F  A$lcc2145627$715                   draw
     00000F70  A$lcc2145627$716                   draw
     00000F71  A$lcc2145627$718                   draw
     00000F73  A$lcc2145627$719                   draw
     00000F74  A$lcc2145627$720                   draw
     00000F75  A$lcc2145627$721                   draw
     00000F76  A$lcc2145627$722                   draw
     00000F78  A$lcc2145627$723                   draw
     00000F79  A$lcc2145627$724                   draw
     00000F7A  A$lcc2145627$726                   draw
     00000F7B  A$lcc2145627$727                   draw
     00000F7C  A$lcc2145627$728                   draw
     00000F7E  A$lcc2145627$729                   draw
     00000F7F  A$lcc2145627$730                   draw
     00000F80  A$lcc2145627$731                   draw
     00000F81  A$lcc2145627$732                   draw
     00000F82  A$lcc2145627$733                   draw
     00000F83  A$lcc2145627$735                   draw
     00000F84  A$lcc2145627$736                   draw
     00000F85  A$lcc2145627$737                   draw
     00000F86  A$lcc2145627$738                   draw
     00000F87  A$lcc2145627$739                   draw
     00000F88  A$lcc2145627$740                   draw
     00000F8B  A$lcc2145627$741                   draw
     00000F8C  A$lcc2145627$743                   draw
     00000F8D  A$lcc2145627$744                   draw
     00000F8F  A$lcc2145627$745                   draw
     00000F90  A$lcc2145627$746                   draw
     00000F91  A$lcc2145627$747                   draw
     00000F92  A$lcc2145627$748                   draw
     00000F93  A$lcc2145627$750                   draw
     00000F95  A$lcc2145627$751                   draw
     00000F96  A$lcc2145627$752                   draw
     00000F98  A$lcc2145627$753                   draw
     00000F99  A$lcc2145627$754                   draw
     00000F9A  A$lcc2145627$755                   draw
     00000F9B  A$lcc2145627$756                   draw
     00000F9C  A$lcc2145627$757                   draw
     00000F9D  A$lcc2145627$758                   draw
     00000F9E  A$lcc2145627$760                   draw
     00000FA1  A$lcc2145627$761                   draw
ASxxxx Linker V03.00/V05.40 + sdld,  page 31.
Hexadecimal  [32-Bits]

Area                                    Addr        Size        Decimal Bytes (Attributes)
--------------------------------        ----        ----        ------- ----- ------------
_CODE                               00000200    00002A48 =       10824. bytes (REL,CON)

      Value  Global                              Global Defined In Module
      -----  --------------------------------   ------------------------
     00000FA2  A$lcc2145627$762                   draw
     00000FA3  A$lcc2145627$763                   draw
     00000FA4  A$lcc2145627$764                   draw
     00000FA5  A$lcc2145627$765                   draw
     00000FA6  A$lcc2145627$766                   draw
     00000FA7  A$lcc2145627$767                   draw
     00000FA8  A$lcc2145627$768                   draw
     00000FA9  A$lcc2145627$770                   draw
     00000FAB  A$lcc2145627$771                   draw
     00000FAC  A$lcc2145627$772                   draw
     00000FAD  A$lcc2145627$773                   draw
     00000FAE  A$lcc2145627$774                   draw
     00000FB0  A$lcc2145627$776                   draw
     00000FB1  A$lcc2145627$777                   draw
     00000FB2  A$lcc2145627$778                   draw
     00000FB3  A$lcc2145627$779                   draw
     00000FB4  A$lcc2145627$780                   draw
     00000FB5  A$lcc2145627$781                   draw
     00000FB6  A$lcc2145627$783                   draw
     00000FB9  A$lcc2145627$784                   draw
     00000FBA  A$lcc2145627$785                   draw
     00000FBB  A$lcc2145627$786                   draw
     00000FBC  A$lcc2145627$787                   draw
     00000FBD  A$lcc2145627$788                   draw
     00000FBE  A$lcc2145627$789                   draw
     00000FBF  A$lcc2145627$790                   draw
     00000FC0  A$lcc2145627$791                   draw
     00000FC1  A$lcc2145627$793                   draw
     00000FC2  A$lcc2145627$794                   draw
     00000FC3  A$lcc2145627$795                   draw
     00000FC4  A$lcc2145627$796                   draw
     00000FC6  A$lcc2145627$797                   draw
     00000FC7  A$lcc2145627$798                   draw
     00000FC8  A$lcc2145627$806                   draw
     00000FC8  C$draw.c$94$2_0$182                draw
     00000FC8  C$draw.c$96$2_0$182                draw
     00000FCA  A$lcc2145627$807                   draw
     00000FCB  A$lcc2145627$808                   draw
     00000FCD  A$lcc2145627$809                   draw
     00000FCE  A$lcc2145628$60                    entity
     00000FCE  C$entity.c$7$0_0$3                 entity
     00000FCE  C$entity.c$9$2_0$4                 entity
     00000FCE  G$create_entity$0$0                entity
     00000FCE  _create_entity                     entity
     00000FD1  A$lcc2145628$61                    entity
     00000FD3  A$lcc2145628$62                    entity
     00000FD5  A$lcc2145628$66                    entity
     00000FD5  C$entity.c$10$3_0$5                entity
     00000FD6  A$lcc2145628$67                    entity
     00000FD7  A$lcc2145628$72                    entity
     00000FD7  C$entity.c$13$1_0$3                entity
ASxxxx Linker V03.00/V05.40 + sdld,  page 32.
Hexadecimal  [32-Bits]

Area                                    Addr        Size        Decimal Bytes (Attributes)
--------------------------------        ----        ----        ------- ----- ------------
_CODE                               00000200    00002A48 =       10824. bytes (REL,CON)

      Value  Global                              Global Defined In Module
      -----  --------------------------------   ------------------------
     00000FDA  A$lcc2145628$73                    entity
     00000FDB  A$lcc2145628$74                    entity
     00000FDE  A$lcc2145628$75                    entity
     00000FDF  A$lcc2145628$76                    entity
     00000FE0  A$lcc2145628$84                    entity
     00000FE0  C$entity.c$14$1_0$3                entity
     00000FE0  XG$create_entity$0$0               entity
     00000FE1  A$lcc2145628$97                    entity
     00000FE1  C$entity.c$16$1_0$6                entity
     00000FE1  C$entity.c$18$1_0$6                entity
     00000FE1  G$reset_entities$0$0               entity
     00000FE1  _reset_entities                    entity
     00000FE4  A$lcc2145628$98                    entity
     00000FE6  A$lcc2145628$106                   entity
     00000FE6  C$entity.c$19$1_0$6                entity
     00000FE6  XG$reset_entities$0$0              entity
     00000FE7  A$lcc2145632$74                    inventory
     00000FE7  C$inventory.c$15$0_0$144           inventory
     00000FE7  G$init_arrow$0$0                   inventory
     00000FE7  _init_arrow                        inventory
     00000FE8  A$lcc2145632$75                    inventory
     00000FE9  A$lcc2145632$79                    inventory
     00000FE9  C$inventory.c$16$1_0$144           inventory
     00000FEC  A$lcc2145632$80                    inventory
     00000FED  A$lcc2145632$81                    inventory
     00000FEF  A$lcc2145632$82                    inventory
     00000FF2  A$lcc2145632$83                    inventory
     00000FF3  A$lcc2145632$84                    inventory
     00000FF5  A$lcc2145632$88                    inventory
     00000FF5  C$inventory.c$17$1_0$144           inventory
     00000FF8  A$lcc2145632$89                    inventory
     00000FFB  A$lcc2145632$90                    inventory
     00000FFC  A$lcc2145632$91                    inventory
     00000FFE  A$lcc2145632$92                    inventory
     00000FFF  A$lcc2145632$93                    inventory
     00001001  A$lcc2145632$97                    inventory
     00001001  C$inventory.c$19$1_0$144           inventory
     00001004  A$lcc2145632$98                    inventory
     00001007  A$lcc2145632$99                    inventory
     00001008  A$lcc2145632$100                   inventory
     00001009  A$lcc2145632$101                   inventory
     0000100B  A$lcc2145632$102                   inventory
     0000100C  A$lcc2145632$103                   inventory
     0000100F  A$lcc2145632$104                   inventory
     00001011  A$lcc2145632$105                   inventory
     00001012  A$lcc2145632$106                   inventory
     00001014  A$lcc2145632$107                   inventory
     00001016  A$lcc2145632$108                   inventory
     00001017  A$lcc2145632$109                   inventory
     00001018  A$lcc2145632$110                   inventory
     00001019  A$lcc2145632$111                   inventory
ASxxxx Linker V03.00/V05.40 + sdld,  page 33.
Hexadecimal  [32-Bits]

Area                                    Addr        Size        Decimal Bytes (Attributes)
--------------------------------        ----        ----        ------- ----- ------------
_CODE                               00000200    00002A48 =       10824. bytes (REL,CON)

      Value  Global                              Global Defined In Module
      -----  --------------------------------   ------------------------
     0000101A  A$lcc2145632$112                   inventory
     0000101B  A$lcc2145632$113                   inventory
     0000101C  A$lcc2145632$117                   inventory
     0000101C  C$inventory.c$20$1_0$144           inventory
     0000101F  A$lcc2145632$118                   inventory
     00001020  A$lcc2145632$119                   inventory
     00001021  A$lcc2145632$120                   inventory
     00001023  A$lcc2145632$121                   inventory
     00001024  A$lcc2145632$122                   inventory
     00001026  A$lcc2145632$123                   inventory
     00001028  A$lcc2145632$124                   inventory
     00001029  A$lcc2145632$125                   inventory
     0000102A  A$lcc2145632$126                   inventory
     0000102C  A$lcc2145632$127                   inventory
     0000102D  A$lcc2145632$128                   inventory
     0000102E  A$lcc2145632$129                   inventory
     0000102F  A$lcc2145632$130                   inventory
     00001030  A$lcc2145632$131                   inventory
     00001031  A$lcc2145632$132                   inventory
     00001032  A$lcc2145632$133                   inventory
     00001033  A$lcc2145632$137                   inventory
     00001033  C$inventory.c$22$1_0$144           inventory
     00001036  A$lcc2145632$138                   inventory
     00001037  A$lcc2145632$139                   inventory
     00001039  A$lcc2145632$140                   inventory
     0000103C  A$lcc2145632$141                   inventory
     0000103D  A$lcc2145632$142                   inventory
     0000103F  A$lcc2145632$146                   inventory
     0000103F  C$inventory.c$23$1_0$144           inventory
     00001042  A$lcc2145632$147                   inventory
     00001045  A$lcc2145632$148                   inventory
     00001046  A$lcc2145632$149                   inventory
     00001048  A$lcc2145632$150                   inventory
     00001049  A$lcc2145632$151                   inventory
     0000104B  A$lcc2145632$155                   inventory
     0000104B  C$inventory.c$24$1_0$144           inventory
     0000104E  A$lcc2145632$156                   inventory
     00001051  A$lcc2145632$157                   inventory
     00001052  A$lcc2145632$158                   inventory
     00001054  A$lcc2145632$159                   inventory
     00001055  A$lcc2145632$160                   inventory
     00001057  A$lcc2145632$164                   inventory
     00001057  C$inventory.c$26$2_0$145           inventory
     00001059  A$lcc2145632$165                   inventory
     0000105B  A$lcc2145632$166                   inventory
     0000105C  A$lcc2145632$167                   inventory
     0000105E  A$lcc2145632$171                   inventory
     0000105E  C$inventory.c$28$1_1$145           inventory
     00001061  A$lcc2145632$172                   inventory
     00001062  A$lcc2145632$173                   inventory
     00001064  A$lcc2145632$174                   inventory
ASxxxx Linker V03.00/V05.40 + sdld,  page 34.
Hexadecimal  [32-Bits]

Area                                    Addr        Size        Decimal Bytes (Attributes)
--------------------------------        ----        ----        ------- ----- ------------
_CODE                               00000200    00002A48 =       10824. bytes (REL,CON)

      Value  Global                              Global Defined In Module
      -----  --------------------------------   ------------------------
     00001065  A$lcc2145632$175                   inventory
     00001066  A$lcc2145632$176                   inventory
     00001067  A$lcc2145632$177                   inventory
     00001068  A$lcc2145632$178                   inventory
     00001069  A$lcc2145632$179                   inventory
     0000106A  A$lcc2145632$180                   inventory
     0000106B  A$lcc2145632$181                   inventory
     0000106C  A$lcc2145632$182                   inventory
     0000106D  A$lcc2145632$183                   inventory
     00001070  A$lcc2145632$184                   inventory
     00001071  A$lcc2145632$185                   inventory
     00001072  A$lcc2145632$186                   inventory
     00001073  A$lcc2145632$187                   inventory
     00001076  A$lcc2145632$188                   inventory
     00001077  A$lcc2145632$189                   inventory
     00001079  A$lcc2145632$190                   inventory
     0000107A  A$lcc2145632$191                   inventory
     0000107B  A$lcc2145632$192                   inventory
     0000107E  A$lcc2145632$193                   inventory
     0000107F  A$lcc2145632$194                   inventory
     00001080  A$lcc2145632$195                   inventory
     00001081  A$lcc2145632$196                   inventory
     00001082  A$lcc2145632$197                   inventory
     00001083  A$lcc2145632$198                   inventory
     00001084  A$lcc2145632$199                   inventory
     00001087  A$lcc2145632$203                   inventory
     0000108A  A$lcc2145632$204                   inventory
     0000108B  A$lcc2145632$209                   inventory
     0000108B  C$inventory.c$30$1_1$144           inventory
     0000108B  XG$init_arrow$0$0                  inventory
     0000108C  A$lcc2145632$219                   inventory
     0000108C  C$inventory.c$32$1_1$147           inventory
     0000108C  G$initialize_inventory$0$0         inventory
     0000108C  _initialize_inventory              inventory
     0000108E  A$lcc2145632$223                   inventory
     0000108E  C$inventory.c$33$3_0$148           inventory
     00001090  A$lcc2145632$224                   inventory
     00001092  A$lcc2145632$226                   inventory
     00001094  A$lcc2145632$227                   inventory
     00001095  A$lcc2145632$228                   inventory
     00001097  A$lcc2145632$229                   inventory
     00001099  A$lcc2145632$233                   inventory
     00001099  C$inventory.c$35$3_0$148           inventory
     0000109A  A$lcc2145632$237                   inventory
     0000109A  C$inventory.c$36$3_0$148           inventory
     0000109B  A$lcc2145632$238                   inventory
     0000109C  A$lcc2145632$239                   inventory
     0000109D  A$lcc2145632$240                   inventory
     0000109E  A$lcc2145632$244                   inventory
     0000109E  C$inventory.c$39$4_0$149           inventory
     0000109F  A$lcc2145632$245                   inventory
ASxxxx Linker V03.00/V05.40 + sdld,  page 35.
Hexadecimal  [32-Bits]

Area                                    Addr        Size        Decimal Bytes (Attributes)
--------------------------------        ----        ----        ------- ----- ------------
_CODE                               00000200    00002A48 =       10824. bytes (REL,CON)

      Value  Global                              Global Defined In Module
      -----  --------------------------------   ------------------------
     000010A0  A$lcc2145632$246                   inventory
     000010A1  A$lcc2145632$247                   inventory
     000010A2  A$lcc2145632$248                   inventory
     000010A4  A$lcc2145632$252                   inventory
     000010A4  C$inventory.c$40$4_0$149           inventory
     000010A5  A$lcc2145632$253                   inventory
     000010A7  A$lcc2145632$258                   inventory
     000010A7  C$inventory.c$42$3_0$148           inventory
     000010AA  A$lcc2145632$259                   inventory
     000010AB  A$lcc2145632$260                   inventory
     000010AC  A$lcc2145632$261                   inventory
     000010AD  A$lcc2145632$262                   inventory
     000010AF  A$lcc2145632$263                   inventory
     000010B0  A$lcc2145632$264                   inventory
     000010B1  A$lcc2145632$265                   inventory
     000010B2  A$lcc2145632$266                   inventory
     000010B3  A$lcc2145632$267                   inventory
     000010B4  A$lcc2145632$268                   inventory
     000010B7  A$lcc2145632$269                   inventory
     000010B8  A$lcc2145632$270                   inventory
     000010B9  A$lcc2145632$271                   inventory
     000010BA  A$lcc2145632$272                   inventory
     000010BD  A$lcc2145632$273                   inventory
     000010BE  A$lcc2145632$274                   inventory
     000010C1  A$lcc2145632$278                   inventory
     000010C1  C$inventory.c$33$2_0$147           inventory
     000010C3  A$lcc2145632$279                   inventory
     000010C4  A$lcc2145632$280                   inventory
     000010C6  A$lcc2145632$285                   inventory
     000010C8  A$lcc2145632$290                   inventory
     000010C8  C$inventory.c$44$2_0$147           inventory
     000010C8  XG$initialize_inventory$0$0        inventory
     000010C9  A$lcc2145633$59                    inventory_input
     000010C9  C$inventory_input.c$19$0_0$152     inventory_input
     000010C9  G$inventory_input$0$0              inventory_input
     000010C9  _inventory_input                   inventory_input
     000010CB  A$lcc2145633$63                    inventory_input
     000010CB  C$inventory_input.c$20$2_0$153     inventory_input
     000010CE  A$lcc2145633$64                    inventory_input
     000010D0  A$lcc2145633$65                    inventory_input
     000010D2  A$lcc2145633$66                    inventory_input
     000010D5  A$lcc2145633$67                    inventory_input
     000010D7  A$lcc2145633$68                    inventory_input
     000010D9  A$lcc2145633$72                    inventory_input
     000010D9  C$inventory_input.c$21$4_0$155     inventory_input
     000010DC  A$lcc2145633$73                    inventory_input
     000010DD  A$lcc2145633$74                    inventory_input
     000010E0  A$lcc2145633$81                    inventory_input
     000010E0  C$inventory_input.c$22$4_0$155     inventory_input
     000010E0  C$inventory_input.c$23$3_0$154     inventory_input
     000010E3  A$lcc2145633$82                    inventory_input
ASxxxx Linker V03.00/V05.40 + sdld,  page 36.
Hexadecimal  [32-Bits]

Area                                    Addr        Size        Decimal Bytes (Attributes)
--------------------------------        ----        ----        ------- ----- ------------
_CODE                               00000200    00002A48 =       10824. bytes (REL,CON)

      Value  Global                              Global Defined In Module
      -----  --------------------------------   ------------------------
     000010E5  A$lcc2145633$86                    inventory_input
     000010E5  C$inventory_input.c$24$3_0$154     inventory_input
     000010E8  A$lcc2145633$87                    inventory_input
     000010EB  A$lcc2145633$88                    inventory_input
     000010EC  A$lcc2145633$89                    inventory_input
     000010EE  A$lcc2145633$90                    inventory_input
     000010EF  A$lcc2145633$91                    inventory_input
     000010F1  A$lcc2145633$95                    inventory_input
     000010F1  C$inventory_input.c$25$3_0$154     inventory_input
     000010F4  A$lcc2145633$96                    inventory_input
     000010F7  A$lcc2145633$100                   inventory_input
     000010F7  C$inventory_input.c$27$3_0$154     inventory_input
     000010FA  A$lcc2145633$101                   inventory_input
     000010FC  A$lcc2145633$105                   inventory_input
     000010FC  C$inventory_input.c$29$3_0$154     inventory_input
     000010FF  A$lcc2145633$106                   inventory_input
     00001100  A$lcc2145633$107                   inventory_input
     00001101  A$lcc2145633$108                   inventory_input
     00001102  A$lcc2145633$109                   inventory_input
     00001105  A$lcc2145633$110                   inventory_input
     00001107  A$lcc2145633$111                   inventory_input
     00001108  A$lcc2145633$112                   inventory_input
     0000110A  A$lcc2145633$113                   inventory_input
     0000110B  A$lcc2145633$114                   inventory_input
     0000110C  A$lcc2145633$115                   inventory_input
     0000110F  A$lcc2145633$119                   inventory_input
     0000110F  C$inventory_input.c$30$3_0$154     inventory_input
     00001110  A$lcc2145633$120                   inventory_input
     00001113  A$lcc2145633$125                   inventory_input
     00001113  C$inventory_input.c$33$2_0$156     inventory_input
     00001116  A$lcc2145633$126                   inventory_input
     00001118  A$lcc2145633$127                   inventory_input
     0000111A  A$lcc2145633$128                   inventory_input
     0000111D  A$lcc2145633$129                   inventory_input
     0000111F  A$lcc2145633$130                   inventory_input
     00001121  A$lcc2145633$134                   inventory_input
     00001121  C$inventory_input.c$34$4_0$158     inventory_input
     00001124  A$lcc2145633$135                   inventory_input
     00001125  A$lcc2145633$136                   inventory_input
     00001128  A$lcc2145633$143                   inventory_input
     00001128  C$inventory_input.c$35$4_0$158     inventory_input
     00001128  C$inventory_input.c$36$3_0$157     inventory_input
     0000112B  A$lcc2145633$144                   inventory_input
     0000112D  A$lcc2145633$148                   inventory_input
     0000112D  C$inventory_input.c$37$3_0$157     inventory_input
     00001130  A$lcc2145633$149                   inventory_input
     00001133  A$lcc2145633$150                   inventory_input
     00001134  A$lcc2145633$151                   inventory_input
     00001136  A$lcc2145633$152                   inventory_input
     00001137  A$lcc2145633$153                   inventory_input
     00001139  A$lcc2145633$157                   inventory_input
ASxxxx Linker V03.00/V05.40 + sdld,  page 37.
Hexadecimal  [32-Bits]

Area                                    Addr        Size        Decimal Bytes (Attributes)
--------------------------------        ----        ----        ------- ----- ------------
_CODE                               00000200    00002A48 =       10824. bytes (REL,CON)

      Value  Global                              Global Defined In Module
      -----  --------------------------------   ------------------------
     00001139  C$inventory_input.c$38$3_0$157     inventory_input
     0000113C  A$lcc2145633$158                   inventory_input
     0000113F  A$lcc2145633$162                   inventory_input
     0000113F  C$inventory_input.c$40$3_0$157     inventory_input
     00001142  A$lcc2145633$163                   inventory_input
     00001145  A$lcc2145633$167                   inventory_input
     00001145  C$inventory_input.c$41$3_0$157     inventory_input
     00001148  A$lcc2145633$168                   inventory_input
     0000114A  A$lcc2145633$172                   inventory_input
     0000114A  C$inventory_input.c$43$3_0$157     inventory_input
     0000114D  A$lcc2145633$173                   inventory_input
     0000114E  A$lcc2145633$174                   inventory_input
     0000114F  A$lcc2145633$175                   inventory_input
     00001150  A$lcc2145633$176                   inventory_input
     00001153  A$lcc2145633$177                   inventory_input
     00001155  A$lcc2145633$178                   inventory_input
     00001156  A$lcc2145633$179                   inventory_input
     00001158  A$lcc2145633$180                   inventory_input
     00001159  A$lcc2145633$181                   inventory_input
     0000115A  A$lcc2145633$182                   inventory_input
     0000115D  A$lcc2145633$186                   inventory_input
     0000115D  C$inventory_input.c$44$3_0$157     inventory_input
     0000115E  A$lcc2145633$187                   inventory_input
     00001161  A$lcc2145633$192                   inventory_input
     00001164  A$lcc2145633$196                   inventory_input
     00001164  C$inventory_input.c$24$1_1$152     inventory_input
     00001167  A$lcc2145633$197                   inventory_input
     00001168  A$lcc2145633$201                   inventory_input
     00001168  C$inventory_input.c$47$1_1$159     inventory_input
     00001169  A$lcc2145633$202                   inventory_input
     0000116B  A$lcc2145633$203                   inventory_input
     0000116C  A$lcc2145633$204                   inventory_input
     0000116D  A$lcc2145633$205                   inventory_input
     0000116F  A$lcc2145633$206                   inventory_input
     00001170  A$lcc2145633$210                   inventory_input
     00001170  C$inventory_input.c$48$1_1$159     inventory_input
     00001172  A$lcc2145633$211                   inventory_input
     00001175  A$lcc2145633$212                   inventory_input
     00001176  A$lcc2145633$213                   inventory_input
     00001177  A$lcc2145633$214                   inventory_input
     00001178  A$lcc2145633$215                   inventory_input
     00001179  A$lcc2145633$216                   inventory_input
     0000117A  A$lcc2145633$217                   inventory_input
     0000117B  A$lcc2145633$218                   inventory_input
     0000117C  A$lcc2145633$219                   inventory_input
     0000117E  A$lcc2145633$220                   inventory_input
     0000117F  A$lcc2145633$224                   inventory_input
     0000117F  C$inventory_input.c$20$1_1$152     inventory_input
     00001182  A$lcc2145633$225                   inventory_input
     00001185  A$lcc2145633$226                   inventory_input
     00001186  A$lcc2145633$230                   inventory_input
ASxxxx Linker V03.00/V05.40 + sdld,  page 38.
Hexadecimal  [32-Bits]

Area                                    Addr        Size        Decimal Bytes (Attributes)
--------------------------------        ----        ----        ------- ----- ------------
_CODE                               00000200    00002A48 =       10824. bytes (REL,CON)

      Value  Global                              Global Defined In Module
      -----  --------------------------------   ------------------------
     00001186  C$inventory_input.c$52$1_1$152     inventory_input
     00001189  A$lcc2145633$231                   inventory_input
     0000118A  A$lcc2145633$232                   inventory_input
     0000118B  A$lcc2145633$233                   inventory_input
     0000118C  A$lcc2145633$237                   inventory_input
     0000118C  C$inventory_input.c$50$2_1$160     inventory_input
     0000118E  A$lcc2145633$238                   inventory_input
     00001190  A$lcc2145633$239                   inventory_input
     00001192  A$lcc2145633$240                   inventory_input
     00001194  A$lcc2145633$244                   inventory_input
     00001194  C$inventory_input.c$51$3_1$161     inventory_input
     00001196  A$lcc2145633$245                   inventory_input
     00001197  A$lcc2145633$246                   inventory_input
     00001199  A$lcc2145633$247                   inventory_input
     0000119A  A$lcc2145633$251                   inventory_input
     0000119A  C$inventory_input.c$52$3_1$161     inventory_input
     0000119D  A$lcc2145633$252                   inventory_input
     0000119E  A$lcc2145633$253                   inventory_input
     000011A0  A$lcc2145633$258                   inventory_input
     000011A0  C$inventory_input.c$53$3_1$162     inventory_input
     000011A2  A$lcc2145633$259                   inventory_input
     000011A4  A$lcc2145633$260                   inventory_input
     000011A6  A$lcc2145633$261                   inventory_input
     000011A8  A$lcc2145633$265                   inventory_input
     000011A8  C$inventory_input.c$54$4_1$163     inventory_input
     000011AA  A$lcc2145633$266                   inventory_input
     000011AB  A$lcc2145633$267                   inventory_input
     000011AD  A$lcc2145633$268                   inventory_input
     000011AE  A$lcc2145633$272                   inventory_input
     000011AE  C$inventory_input.c$55$4_1$163     inventory_input
     000011B1  A$lcc2145633$273                   inventory_input
     000011B2  A$lcc2145633$274                   inventory_input
     000011B4  A$lcc2145633$279                   inventory_input
     000011B4  C$inventory_input.c$56$4_1$164     inventory_input
     000011B6  A$lcc2145633$280                   inventory_input
     000011B8  A$lcc2145633$281                   inventory_input
     000011BA  A$lcc2145633$282                   inventory_input
     000011BC  A$lcc2145633$286                   inventory_input
     000011BC  C$inventory_input.c$57$5_1$165     inventory_input
     000011BE  A$lcc2145633$287                   inventory_input
     000011BF  A$lcc2145633$288                   inventory_input
     000011C1  A$lcc2145633$289                   inventory_input
     000011C2  A$lcc2145633$293                   inventory_input
     000011C2  C$inventory_input.c$58$5_1$165     inventory_input
     000011C5  A$lcc2145633$294                   inventory_input
     000011C6  A$lcc2145633$295                   inventory_input
     000011C8  A$lcc2145633$300                   inventory_input
     000011C8  C$inventory_input.c$59$5_1$166     inventory_input
     000011CA  A$lcc2145633$301                   inventory_input
     000011CC  A$lcc2145633$302                   inventory_input
     000011CE  A$lcc2145633$303                   inventory_input
ASxxxx Linker V03.00/V05.40 + sdld,  page 39.
Hexadecimal  [32-Bits]

Area                                    Addr        Size        Decimal Bytes (Attributes)
--------------------------------        ----        ----        ------- ----- ------------
_CODE                               00000200    00002A48 =       10824. bytes (REL,CON)

      Value  Global                              Global Defined In Module
      -----  --------------------------------   ------------------------
     000011D0  A$lcc2145633$307                   inventory_input
     000011D0  C$inventory_input.c$60$6_1$167     inventory_input
     000011D2  A$lcc2145633$308                   inventory_input
     000011D3  A$lcc2145633$309                   inventory_input
     000011D5  A$lcc2145633$310                   inventory_input
     000011D6  A$lcc2145633$314                   inventory_input
     000011D6  C$inventory_input.c$61$6_1$167     inventory_input
     000011D9  A$lcc2145633$315                   inventory_input
     000011DA  A$lcc2145633$320                   inventory_input
     000011DA  C$inventory_input.c$64$2_1$168     inventory_input
     000011DC  A$lcc2145633$321                   inventory_input
     000011DE  A$lcc2145633$322                   inventory_input
     000011DF  A$lcc2145633$323                   inventory_input
     000011E1  A$lcc2145633$327                   inventory_input
     000011E1  C$inventory_input.c$65$3_1$169     inventory_input
     000011E3  A$lcc2145633$331                   inventory_input
     000011E3  C$inventory_input.c$66$3_1$169     inventory_input
     000011E6  A$lcc2145633$332                   inventory_input
     000011E7  A$lcc2145633$333                   inventory_input
     000011E8  A$lcc2145633$338                   inventory_input
     000011E8  C$inventory_input.c$68$2_1$170     inventory_input
     000011EA  A$lcc2145633$339                   inventory_input
     000011EB  A$lcc2145633$340                   inventory_input
     000011ED  A$lcc2145633$341                   inventory_input
     000011EF  A$lcc2145633$345                   inventory_input
     000011EF  C$inventory_input.c$69$3_1$171     inventory_input
     000011F1  A$lcc2145633$349                   inventory_input
     000011F1  C$inventory_input.c$70$3_1$171     inventory_input
     000011F4  A$lcc2145633$350                   inventory_input
     000011F5  A$lcc2145633$351                   inventory_input
     000011F6  A$lcc2145633$356                   inventory_input
     000011F6  C$inventory_input.c$73$2_1$172     inventory_input
     000011F8  A$lcc2145633$357                   inventory_input
     000011FA  A$lcc2145633$358                   inventory_input
     000011FB  A$lcc2145633$359                   inventory_input
     000011FD  A$lcc2145633$363                   inventory_input
     000011FD  C$inventory_input.c$74$3_1$173     inventory_input
     000011FF  A$lcc2145633$367                   inventory_input
     000011FF  C$inventory_input.c$75$3_1$173     inventory_input
     00001202  A$lcc2145633$368                   inventory_input
     00001203  A$lcc2145633$373                   inventory_input
     00001203  C$inventory_input.c$77$2_1$174     inventory_input
     00001205  A$lcc2145633$374                   inventory_input
     00001206  A$lcc2145633$375                   inventory_input
     00001208  A$lcc2145633$376                   inventory_input
     0000120A  A$lcc2145633$380                   inventory_input
     0000120A  C$inventory_input.c$78$3_1$175     inventory_input
     0000120C  A$lcc2145633$384                   inventory_input
     0000120C  C$inventory_input.c$79$3_1$175     inventory_input
     0000120F  A$lcc2145633$385                   inventory_input
     00001210  A$lcc2145633$390                   inventory_input
ASxxxx Linker V03.00/V05.40 + sdld,  page 40.
Hexadecimal  [32-Bits]

Area                                    Addr        Size        Decimal Bytes (Attributes)
--------------------------------        ----        ----        ------- ----- ------------
_CODE                               00000200    00002A48 =       10824. bytes (REL,CON)

      Value  Global                              Global Defined In Module
      -----  --------------------------------   ------------------------
     00001210  C$inventory_input.c$82$1_1$159     inventory_input
     00001211  A$lcc2145633$391                   inventory_input
     00001212  A$lcc2145633$392                   inventory_input
     00001214  A$lcc2145633$396                   inventory_input
     00001214  C$inventory_input.c$83$1_1$159     inventory_input
     00001215  A$lcc2145633$397                   inventory_input
     00001216  A$lcc2145633$398                   inventory_input
     00001219  A$lcc2145633$399                   inventory_input
     0000121A  A$lcc2145633$400                   inventory_input
     0000121B  A$lcc2145633$401                   inventory_input
     0000121D  A$lcc2145633$402                   inventory_input
     0000121E  A$lcc2145633$403                   inventory_input
     0000121F  A$lcc2145633$404                   inventory_input
     00001220  A$lcc2145633$405                   inventory_input
     00001221  A$lcc2145633$410                   inventory_input
     00001223  A$lcc2145633$415                   inventory_input
     00001223  C$inventory_input.c$84$1_1$152     inventory_input
     00001223  XG$inventory_input$0$0             inventory_input
     00001224  G$top_limit$0_0$0                  inventory_input
     00001224  _top_limit                         inventory_input
     00001225  G$bottom_limit$0_0$0               inventory_input
     00001225  _bottom_limit                      inventory_input
     00001226  G$left_limit$0_0$0                 inventory_input
     00001226  _left_limit                        inventory_input
     00001227  G$right_limit$0_0$0                inventory_input
     00001227  _right_limit                       inventory_input
     00001228  G$VERTICAL_MOVEMENT$0_0$0          inventory_input
     00001228  _VERTICAL_MOVEMENT                 inventory_input
     00001229  G$HORIZONTAL_MOVEMENT$0_0$0        inventory_input
     00001229  _HORIZONTAL_MOVEMENT               inventory_input
     0000122A  A$lcc2145634$64                    load
     0000122A  C$load.c$10$0_0$134                load
     0000122A  G$load_actor_tiles$0$0             load
     0000122A  _load_actor_tiles                  load
     0000122C  A$lcc2145634$65                    load
     0000122E  A$lcc2145634$66                    load
     0000122F  A$lcc2145634$67                    load
     00001230  A$lcc2145634$68                    load
     00001231  A$lcc2145634$69                    load
     00001232  A$lcc2145634$70                    load
     00001233  A$lcc2145634$74                    load
     00001233  C$load.c$12$2_0$134                load
     00001236  A$lcc2145634$75                    load
     00001237  A$lcc2145634$79                    load
     00001237  C$load.c$15$1_0$134                load
     00001239  A$lcc2145634$81                    load
     0000123A  A$lcc2145634$82                    load
     0000123C  A$lcc2145634$83                    load
     0000123D  A$lcc2145634$84                    load
     0000123F  A$lcc2145634$88                    load
     0000123F  C$load.c$17$3_0$136                load
ASxxxx Linker V03.00/V05.40 + sdld,  page 41.
Hexadecimal  [32-Bits]

Area                                    Addr        Size        Decimal Bytes (Attributes)
--------------------------------        ----        ----        ------- ----- ------------
_CODE                               00000200    00002A48 =       10824. bytes (REL,CON)

      Value  Global                              Global Defined In Module
      -----  --------------------------------   ------------------------
     00001240  A$lcc2145634$89                    load
     00001242  A$lcc2145634$90                    load
     00001243  A$lcc2145634$91                    load
     00001244  A$lcc2145634$92                    load
     00001245  A$lcc2145634$93                    load
     00001247  A$lcc2145634$94                    load
     00001248  A$lcc2145634$95                    load
     00001249  A$lcc2145634$96                    load
     0000124A  A$lcc2145634$97                    load
     0000124B  A$lcc2145634$98                    load
     0000124C  A$lcc2145634$99                    load
     0000124D  A$lcc2145634$100                   load
     0000124E  A$lcc2145634$101                   load
     0000124F  A$lcc2145634$102                   load
     00001250  A$lcc2145634$103                   load
     00001251  A$lcc2145634$104                   load
     00001252  A$lcc2145634$105                   load
     00001253  A$lcc2145634$106                   load
     00001254  A$lcc2145634$107                   load
     00001255  A$lcc2145634$108                   load
     00001256  A$lcc2145634$109                   load
     00001257  A$lcc2145634$110                   load
     00001258  A$lcc2145634$111                   load
     0000125A  A$lcc2145634$112                   load
     0000125B  A$lcc2145634$113                   load
     0000125C  A$lcc2145634$114                   load
     0000125D  A$lcc2145634$115                   load
     0000125E  A$lcc2145634$116                   load
     00001261  A$lcc2145634$117                   load
     00001263  A$lcc2145634$121                   load
     00001263  C$load.c$15$2_0$135                load
     00001264  A$lcc2145634$122                   load
     00001266  A$lcc2145634$127                   load
     00001266  C$load.c$21$1_0$134                load
     00001269  A$lcc2145634$128                   load
     0000126B  A$lcc2145634$129                   load
     0000126C  A$lcc2145634$130                   load
     0000126E  A$lcc2145634$131                   load
     0000126F  A$lcc2145634$132                   load
     00001270  A$lcc2145634$133                   load
     00001271  A$lcc2145634$134                   load
     00001272  A$lcc2145634$135                   load
     00001273  A$lcc2145634$139                   load
     00001273  C$load.c$22$1_0$134                load
     00001276  A$lcc2145634$140                   load
     00001278  A$lcc2145634$141                   load
     00001279  A$lcc2145634$142                   load
     0000127B  A$lcc2145634$143                   load
     0000127C  A$lcc2145634$144                   load
     0000127D  A$lcc2145634$145                   load
     0000127E  A$lcc2145634$146                   load
ASxxxx Linker V03.00/V05.40 + sdld,  page 42.
Hexadecimal  [32-Bits]

Area                                    Addr        Size        Decimal Bytes (Attributes)
--------------------------------        ----        ----        ------- ----- ------------
_CODE                               00000200    00002A48 =       10824. bytes (REL,CON)

      Value  Global                              Global Defined In Module
      -----  --------------------------------   ------------------------
     00001280  A$lcc2145634$147                   load
     00001281  A$lcc2145634$148                   load
     00001282  A$lcc2145634$152                   load
     00001282  C$load.c$25$1_0$134                load
     00001285  A$lcc2145634$153                   load
     00001287  A$lcc2145634$154                   load
     00001288  A$lcc2145634$155                   load
     0000128B  A$lcc2145634$159                   load
     0000128B  C$load.c$27$1_0$134                load
     0000128C  A$lcc2145634$163                   load
     0000128C  C$load.c$28$1_0$134                load
     0000128E  A$lcc2145634$164                   load
     0000128F  A$lcc2145634$165                   load
     00001290  A$lcc2145634$166                   load
     00001291  A$lcc2145634$176                   load
     00001291  C$load.c$30$1_0$138                load
     00001291  G$load_extra_tiles$0$0             load
     00001291  _load_extra_tiles                  load
     00001293  A$lcc2145634$177                   load
     00001294  A$lcc2145634$181                   load
     00001294  C$load.c$32$2_0$139                load
     00001297  A$lcc2145634$182                   load
     00001298  A$lcc2145634$183                   load
     0000129A  A$lcc2145634$184                   load
     0000129C  A$lcc2145634$188                   load
     0000129C  C$load.c$33$2_0$139                load
     0000129E  A$lcc2145634$193                   load
     0000129E  C$load.c$35$2_0$140                load
     000012A1  A$lcc2145634$194                   load
     000012A2  A$lcc2145634$198                   load
     000012A2  C$load.c$37$1_1$140                load
     000012A3  A$lcc2145634$199                   load
     000012A5  A$lcc2145634$200                   load
     000012A6  A$lcc2145634$201                   load
     000012A7  A$lcc2145634$202                   load
     000012A8  A$lcc2145634$203                   load
     000012A9  A$lcc2145634$204                   load
     000012AA  A$lcc2145634$205                   load
     000012AD  A$lcc2145634$206                   load
     000012AF  A$lcc2145634$210                   load
     000012AF  C$load.c$39$1_1$140                load
     000012B2  A$lcc2145634$211                   load
     000012B4  A$lcc2145634$212                   load
     000012B5  A$lcc2145634$213                   load
     000012B8  A$lcc2145634$217                   load
     000012B8  C$load.c$42$1_2$141                load
     000012BA  A$lcc2145634$218                   load
     000012BB  A$lcc2145634$222                   load
     000012BB  C$load.c$43$1_2$141                load
     000012BD  A$lcc2145634$223                   load
     000012BE  A$lcc2145634$224                   load
ASxxxx Linker V03.00/V05.40 + sdld,  page 43.
Hexadecimal  [32-Bits]

Area                                    Addr        Size        Decimal Bytes (Attributes)
--------------------------------        ----        ----        ------- ----- ------------
_CODE                               00000200    00002A48 =       10824. bytes (REL,CON)

      Value  Global                              Global Defined In Module
      -----  --------------------------------   ------------------------
     000012C0  A$lcc2145634$228                   load
     000012C0  C$load.c$44$1_2$141                load
     000012C1  A$lcc2145634$229                   load
     000012C2  A$lcc2145634$233                   load
     000012C2  C$load.c$46$1_2$141                load
     000012C5  A$lcc2145634$234                   load
     000012C6  A$lcc2145634$235                   load
     000012C8  A$lcc2145634$236                   load
     000012C9  A$lcc2145634$237                   load
     000012CA  A$lcc2145634$238                   load
     000012CB  A$lcc2145634$239                   load
     000012CC  A$lcc2145634$240                   load
     000012CF  A$lcc2145634$241                   load
     000012D0  A$lcc2145634$242                   load
     000012D1  A$lcc2145634$243                   load
     000012D2  A$lcc2145634$244                   load
     000012D5  A$lcc2145634$245                   load
     000012D6  A$lcc2145634$246                   load
     000012D9  A$lcc2145634$247                   load
     000012DA  A$lcc2145634$248                   load
     000012DB  A$lcc2145634$249                   load
     000012DC  A$lcc2145634$250                   load
     000012DF  A$lcc2145634$254                   load
     000012DF  C$load.c$48$1_2$141                load
     000012E2  A$lcc2145634$255                   load
     000012E3  A$lcc2145634$256                   load
     000012E6  A$lcc2145634$257                   load
     000012E7  A$lcc2145634$258                   load
     000012E8  A$lcc2145634$262                   load
     000012E8  C$load.c$49$1_2$138                load
     000012EA  A$lcc2145634$263                   load
     000012EB  A$lcc2145634$264                   load
     000012EC  A$lcc2145634$265                   load
     000012ED  A$lcc2145634$278                   load
     000012ED  C$load.c$51$1_2$142                load
     000012ED  C$load.c$53$1_0$142                load
     000012ED  G$reset_extra_tiles$0$0            load
     000012ED  _reset_extra_tiles                 load
     000012F0  A$lcc2145634$279                   load
     000012F2  A$lcc2145634$287                   load
     000012F2  C$load.c$54$1_0$142                load
     000012F2  XG$reset_extra_tiles$0$0           load
     000012F3  A$lcc2145634$300                   load
     000012F3  C$load.c$56$1_0$144                load
     000012F3  C$load.c$58$3_0$146                load
     000012F3  G$reset_render_component$0$0       load
     000012F3  _reset_render_component            load
     000012F5  A$lcc2145634$302                   load
     000012F6  A$lcc2145634$303                   load
     000012F9  A$lcc2145634$304                   load
     000012FA  A$lcc2145634$305                   load
ASxxxx Linker V03.00/V05.40 + sdld,  page 44.
Hexadecimal  [32-Bits]

Area                                    Addr        Size        Decimal Bytes (Attributes)
--------------------------------        ----        ----        ------- ----- ------------
_CODE                               00000200    00002A48 =       10824. bytes (REL,CON)

      Value  Global                              Global Defined In Module
      -----  --------------------------------   ------------------------
     000012FC  A$lcc2145634$309                   load
     000012FC  C$load.c$60$3_0$146                load
     000012FF  A$lcc2145634$310                   load
     00001301  A$lcc2145634$311                   load
     00001302  A$lcc2145634$312                   load
     00001304  A$lcc2145634$316                   load
     00001304  C$load.c$61$3_0$146                load
     00001307  A$lcc2145634$317                   load
     00001309  A$lcc2145634$318                   load
     0000130A  A$lcc2145634$319                   load
     0000130C  A$lcc2145634$323                   load
     0000130C  C$load.c$58$2_0$145                load
     0000130D  A$lcc2145634$324                   load
     0000130F  A$lcc2145634$329                   load
     0000130F  C$load.c$64$1_0$144                load
     00001310  A$lcc2145634$330                   load
     00001313  A$lcc2145634$338                   load
     00001313  C$load.c$65$1_0$144                load
     00001313  XG$reset_render_component$0$0      load
     00001314  A$lcc2145635$57                    map_scenes
     00001314  C$map_scenes.c$17$0_0$174          map_scenes
     00001314  G$scene_manager_MapScene$0$0       map_scenes
     00001314  _scene_manager_MapScene            map_scenes
     00001315  A$lcc2145635$61                    map_scenes
     00001315  C$map_scenes.c$19$2_0$174          map_scenes
     00001317  A$lcc2145635$62                    map_scenes
     00001318  A$lcc2145635$63                    map_scenes
     0000131A  A$lcc2145635$64                    map_scenes
     0000131C  A$lcc2145635$65                    map_scenes
     0000131F  A$lcc2145635$66                    map_scenes
     00001320  A$lcc2145635$67                    map_scenes
     00001321  A$lcc2145635$68                    map_scenes
     00001322  A$lcc2145635$69                    map_scenes
     00001323  A$lcc2145635$70                    map_scenes
     00001324  A$lcc2145635$71                    map_scenes
     00001325  A$lcc2145635$72                    map_scenes
     00001330  A$lcc2145635$86                    map_scenes
     00001330  C$map_scenes.c$21$3_0$175          map_scenes
     00001330  C$map_scenes.c$22$3_0$175          map_scenes
     00001333  A$lcc2145635$90                    map_scenes
     00001333  C$map_scenes.c$23$3_0$175          map_scenes
     00001336  A$lcc2145635$91                    map_scenes
     00001337  A$lcc2145635$99                    map_scenes
     00001337  C$map_scenes.c$24$3_0$175          map_scenes
     00001337  C$map_scenes.c$25$3_0$175          map_scenes
     0000133A  A$lcc2145635$103                   map_scenes
     0000133A  C$map_scenes.c$26$3_0$175          map_scenes
     0000133D  A$lcc2145635$104                   map_scenes
     0000133E  A$lcc2145635$112                   map_scenes
     0000133E  C$map_scenes.c$27$3_0$175          map_scenes
     0000133E  C$map_scenes.c$28$3_0$175          map_scenes
ASxxxx Linker V03.00/V05.40 + sdld,  page 45.
Hexadecimal  [32-Bits]

Area                                    Addr        Size        Decimal Bytes (Attributes)
--------------------------------        ----        ----        ------- ----- ------------
_CODE                               00000200    00002A48 =       10824. bytes (REL,CON)

      Value  Global                              Global Defined In Module
      -----  --------------------------------   ------------------------
     00001341  A$lcc2145635$116                   map_scenes
     00001341  C$map_scenes.c$29$3_0$175          map_scenes
     00001344  A$lcc2145635$117                   map_scenes
     00001345  A$lcc2145635$125                   map_scenes
     00001345  C$map_scenes.c$32$3_0$175          map_scenes
     00001345  C$map_scenes.c$33$3_0$175          map_scenes
     00001348  A$lcc2145635$129                   map_scenes
     00001348  C$map_scenes.c$34$3_0$175          map_scenes
     0000134B  A$lcc2145635$130                   map_scenes
     0000134C  A$lcc2145635$138                   map_scenes
     0000134C  C$map_scenes.c$36$3_0$175          map_scenes
     0000134C  C$map_scenes.c$37$3_0$175          map_scenes
     0000134F  A$lcc2145635$142                   map_scenes
     0000134F  C$map_scenes.c$38$3_0$175          map_scenes
     00001352  A$lcc2145635$143                   map_scenes
     00001353  A$lcc2145635$151                   map_scenes
     00001353  C$map_scenes.c$39$3_0$175          map_scenes
     00001353  C$map_scenes.c$40$3_0$175          map_scenes
     00001356  A$lcc2145635$162                   map_scenes
     00001356  C$map_scenes.c$41$2_0$174          map_scenes
     00001356  C$map_scenes.c$42$2_0$174          map_scenes
     00001356  XG$scene_manager_MapScene$0$0      map_scenes
     00001357  A$lcc2145637$56                    money
     00001357  C$money.c$5$0_0$3                  money
     00001357  G$add_money$0$0                    money
     00001357  _add_money                         money
     00001358  A$lcc2145637$60                    money
     00001358  C$money.c$6$1_0$3                  money
     00001359  A$lcc2145637$61                    money
     0000135B  A$lcc2145637$62                    money
     0000135C  A$lcc2145637$63                    money
     0000135D  A$lcc2145637$64                    money
     0000135E  A$lcc2145637$65                    money
     0000135F  A$lcc2145637$66                    money
     00001360  A$lcc2145637$67                    money
     00001361  A$lcc2145637$68                    money
     00001362  A$lcc2145637$69                    money
     00001363  A$lcc2145637$70                    money
     00001364  A$lcc2145637$71                    money
     00001367  A$lcc2145637$72                    money
     00001368  A$lcc2145637$73                    money
     0000136B  A$lcc2145637$74                    money
     0000136C  A$lcc2145637$75                    money
     0000136D  A$lcc2145637$76                    money
     0000136E  A$lcc2145637$77                    money
     0000136F  A$lcc2145637$78                    money
     00001370  A$lcc2145637$79                    money
     00001371  A$lcc2145637$80                    money
     00001374  A$lcc2145637$81                    money
     00001375  A$lcc2145637$82                    money
     00001376  A$lcc2145637$83                    money
ASxxxx Linker V03.00/V05.40 + sdld,  page 46.
Hexadecimal  [32-Bits]

Area                                    Addr        Size        Decimal Bytes (Attributes)
--------------------------------        ----        ----        ------- ----- ------------
_CODE                               00000200    00002A48 =       10824. bytes (REL,CON)

      Value  Global                              Global Defined In Module
      -----  --------------------------------   ------------------------
     00001377  A$lcc2145637$87                    money
     00001377  C$money.c$7$1_0$3                  money
     00001379  A$lcc2145637$88                    money
     0000137A  A$lcc2145637$89                    money
     0000137B  A$lcc2145637$90                    money
     0000137C  A$lcc2145637$91                    money
     0000137D  A$lcc2145637$92                    money
     0000137E  A$lcc2145637$93                    money
     0000137F  A$lcc2145637$94                    money
     00001380  A$lcc2145637$95                    money
     00001381  A$lcc2145637$96                    money
     00001382  A$lcc2145637$97                    money
     00001383  A$lcc2145637$98                    money
     00001384  A$lcc2145637$99                    money
     00001385  A$lcc2145637$100                   money
     00001388  A$lcc2145637$101                   money
     0000138B  A$lcc2145637$102                   money
     0000138C  A$lcc2145637$103                   money
     0000138D  A$lcc2145637$104                   money
     0000138E  A$lcc2145637$105                   money
     0000138F  A$lcc2145637$106                   money
     00001390  A$lcc2145637$107                   money
     00001391  A$lcc2145637$108                   money
     00001392  A$lcc2145637$109                   money
     00001393  A$lcc2145637$110                   money
     00001394  A$lcc2145637$118                   money
     00001394  C$money.c$8$1_0$3                  money
     00001394  XG$add_money$0$0                   money
     00001395  A$lcc2145639$75                    npcs
     00001395  C$npcs.c$21$0_0$135                npcs
     00001395  C$npcs.c$23$1_0$135                npcs
     00001395  G$init_NPCs$0$0                    npcs
     00001395  _init_NPCs                         npcs
     00001398  A$lcc2145639$76                    npcs
     0000139B  A$lcc2145639$80                    npcs
     0000139B  C$npcs.c$24$1_0$135                npcs
     0000139E  A$lcc2145639$81                    npcs
     000013A1  A$lcc2145639$85                    npcs
     000013A1  C$npcs.c$25$1_0$135                npcs
     000013A4  A$lcc2145639$86                    npcs
     000013A7  A$lcc2145639$94                    npcs
     000013A7  C$npcs.c$26$1_0$135                npcs
     000013A7  XG$init_NPCs$0$0                   npcs
     000013A8  A$lcc2145639$104                   npcs
     000013A8  C$npcs.c$28$1_0$137                npcs
     000013A8  G$Scene_DrawNPCLine$0$0            npcs
     000013A8  _Scene_DrawNPCLine                 npcs
     000013AA  A$lcc2145639$105                   npcs
     000013AC  A$lcc2145639$106                   npcs
     000013AD  A$lcc2145639$110                   npcs
     000013AD  C$npcs.c$36$1_0$137                npcs
ASxxxx Linker V03.00/V05.40 + sdld,  page 47.
Hexadecimal  [32-Bits]

Area                                    Addr        Size        Decimal Bytes (Attributes)
--------------------------------        ----        ----        ------- ----- ------------
_CODE                               00000200    00002A48 =       10824. bytes (REL,CON)

      Value  Global                              Global Defined In Module
      -----  --------------------------------   ------------------------
     000013AF  A$lcc2145639$111                   npcs
     000013B2  A$lcc2145639$112                   npcs
     000013B3  A$lcc2145639$113                   npcs
     000013B4  A$lcc2145639$114                   npcs
     000013B5  A$lcc2145639$115                   npcs
     000013B7  A$lcc2145639$116                   npcs
     000013B8  A$lcc2145639$117                   npcs
     000013B9  A$lcc2145639$118                   npcs
     000013BA  A$lcc2145639$119                   npcs
     000013BC  A$lcc2145639$120                   npcs
     000013BD  A$lcc2145639$121                   npcs
     000013BE  A$lcc2145639$122                   npcs
     000013BF  A$lcc2145639$123                   npcs
     000013C0  A$lcc2145639$124                   npcs
     000013C1  A$lcc2145639$125                   npcs
     000013C3  A$lcc2145639$126                   npcs
     000013C4  A$lcc2145639$130                   npcs
     000013C4  C$npcs.c$38$1_0$137                npcs
     000013C7  A$lcc2145639$131                   npcs
     000013C9  A$lcc2145639$132                   npcs
     000013CA  A$lcc2145639$133                   npcs
     000013CB  A$lcc2145639$134                   npcs
     000013CC  A$lcc2145639$135                   npcs
     000013CD  A$lcc2145639$136                   npcs
     000013CE  A$lcc2145639$137                   npcs
     000013CF  A$lcc2145639$138                   npcs
     000013D0  A$lcc2145639$139                   npcs
     000013D1  A$lcc2145639$140                   npcs
     000013D2  A$lcc2145639$144                   npcs
     000013D2  C$npcs.c$40$1_0$137                npcs
     000013D5  A$lcc2145639$145                   npcs
     000013D6  A$lcc2145639$146                   npcs
     000013D7  A$lcc2145639$147                   npcs
     000013D8  A$lcc2145639$148                   npcs
     000013DA  A$lcc2145639$149                   npcs
     000013DB  A$lcc2145639$150                   npcs
     000013DC  A$lcc2145639$151                   npcs
     000013DD  A$lcc2145639$152                   npcs
     000013DE  A$lcc2145639$153                   npcs
     000013DF  A$lcc2145639$154                   npcs
     000013E0  A$lcc2145639$155                   npcs
     000013E1  A$lcc2145639$156                   npcs
     000013E2  A$lcc2145639$157                   npcs
     000013E3  A$lcc2145639$158                   npcs
     000013E4  A$lcc2145639$159                   npcs
     000013E6  A$lcc2145639$160                   npcs
     000013E7  A$lcc2145639$161                   npcs
     000013E8  A$lcc2145639$162                   npcs
     000013E9  A$lcc2145639$163                   npcs
     000013EA  A$lcc2145639$164                   npcs
     000013EB  A$lcc2145639$168                   npcs
ASxxxx Linker V03.00/V05.40 + sdld,  page 48.
Hexadecimal  [32-Bits]

Area                                    Addr        Size        Decimal Bytes (Attributes)
--------------------------------        ----        ----        ------- ----- ------------
_CODE                               00000200    00002A48 =       10824. bytes (REL,CON)

      Value  Global                              Global Defined In Module
      -----  --------------------------------   ------------------------
     000013EB  C$npcs.c$41$1_0$137                npcs
     000013EE  A$lcc2145639$169                   npcs
     000013EF  A$lcc2145639$170                   npcs
     000013F0  A$lcc2145639$171                   npcs
     000013F1  A$lcc2145639$175                   npcs
     000013F1  C$npcs.c$44$1_2$137                npcs
     000013F2  A$lcc2145639$176                   npcs
     000013F4  A$lcc2145639$177                   npcs
     000013F5  A$lcc2145639$178                   npcs
     000013F6  A$lcc2145639$180                   npcs
     000013F7  A$lcc2145639$181                   npcs
     000013F9  A$lcc2145639$182                   npcs
     000013FA  A$lcc2145639$183                   npcs
     000013FB  A$lcc2145639$184                   npcs
     000013FC  A$lcc2145639$185                   npcs
     000013FE  A$lcc2145639$186                   npcs
     000013FF  A$lcc2145639$187                   npcs
     00001400  A$lcc2145639$188                   npcs
     00001401  A$lcc2145639$189                   npcs
     00001402  A$lcc2145639$190                   npcs
     00001403  A$lcc2145639$191                   npcs
     00001404  A$lcc2145639$192                   npcs
     00001405  A$lcc2145639$193                   npcs
     00001406  A$lcc2145639$194                   npcs
     00001407  A$lcc2145639$195                   npcs
     00001409  A$lcc2145639$199                   npcs
     00001409  C$npcs.c$46$3_0$139                npcs
     0000140A  A$lcc2145639$200                   npcs
     0000140D  A$lcc2145639$201                   npcs
     0000140E  A$lcc2145639$202                   npcs
     0000140F  A$lcc2145639$203                   npcs
     00001411  A$lcc2145639$204                   npcs
     00001413  A$lcc2145639$205                   npcs
     00001414  A$lcc2145639$209                   npcs
     00001414  C$npcs.c$47$3_0$139                npcs
     00001416  A$lcc2145639$210                   npcs
     00001417  A$lcc2145639$211                   npcs
     00001418  A$lcc2145639$212                   npcs
     00001419  A$lcc2145639$213                   npcs
     0000141C  A$lcc2145639$214                   npcs
     0000141D  A$lcc2145639$215                   npcs
     0000141E  A$lcc2145639$216                   npcs
     00001421  A$lcc2145639$217                   npcs
     00001422  A$lcc2145639$218                   npcs
     00001424  A$lcc2145639$219                   npcs
     00001425  A$lcc2145639$220                   npcs
     00001426  A$lcc2145639$221                   npcs
     00001427  A$lcc2145639$222                   npcs
     00001428  A$lcc2145639$223                   npcs
     0000142B  A$lcc2145639$224                   npcs
     0000142D  A$lcc2145639$225                   npcs
ASxxxx Linker V03.00/V05.40 + sdld,  page 49.
Hexadecimal  [32-Bits]

Area                                    Addr        Size        Decimal Bytes (Attributes)
--------------------------------        ----        ----        ------- ----- ------------
_CODE                               00000200    00002A48 =       10824. bytes (REL,CON)

      Value  Global                              Global Defined In Module
      -----  --------------------------------   ------------------------
     0000142E  A$lcc2145639$229                   npcs
     0000142E  C$npcs.c$44$2_0$138                npcs
     00001430  A$lcc2145639$230                   npcs
     00001431  A$lcc2145639$231                   npcs
     00001433  A$lcc2145639$232                   npcs
     00001434  A$lcc2145639$233                   npcs
     00001435  A$lcc2145639$234                   npcs
     00001437  A$lcc2145639$239                   npcs
     00001437  C$npcs.c$51$1_2$137                npcs
     00001438  A$lcc2145639$240                   npcs
     0000143A  A$lcc2145639$241                   npcs
     0000143B  A$lcc2145639$242                   npcs
     0000143C  A$lcc2145639$244                   npcs
     0000143D  A$lcc2145639$245                   npcs
     0000143F  A$lcc2145639$246                   npcs
     00001440  A$lcc2145639$247                   npcs
     00001441  A$lcc2145639$248                   npcs
     00001442  A$lcc2145639$249                   npcs
     00001443  A$lcc2145639$250                   npcs
     00001444  A$lcc2145639$251                   npcs
     00001445  A$lcc2145639$252                   npcs
     00001446  A$lcc2145639$253                   npcs
     00001447  A$lcc2145639$254                   npcs
     00001448  A$lcc2145639$255                   npcs
     0000144A  A$lcc2145639$259                   npcs
     0000144A  C$npcs.c$53$3_0$141                npcs
     0000144B  A$lcc2145639$260                   npcs
     0000144E  A$lcc2145639$261                   npcs
     0000144F  A$lcc2145639$262                   npcs
     00001450  A$lcc2145639$263                   npcs
     00001452  A$lcc2145639$267                   npcs
     00001452  C$npcs.c$54$3_0$141                npcs
     00001454  A$lcc2145639$268                   npcs
     00001455  A$lcc2145639$269                   npcs
     00001456  A$lcc2145639$270                   npcs
     00001457  A$lcc2145639$271                   npcs
     00001459  A$lcc2145639$272                   npcs
     0000145A  A$lcc2145639$273                   npcs
     0000145B  A$lcc2145639$274                   npcs
     0000145C  A$lcc2145639$275                   npcs
     0000145D  A$lcc2145639$276                   npcs
     0000145F  A$lcc2145639$277                   npcs
     00001460  A$lcc2145639$278                   npcs
     00001461  A$lcc2145639$279                   npcs
     00001463  A$lcc2145639$280                   npcs
     00001464  A$lcc2145639$281                   npcs
     00001465  A$lcc2145639$282                   npcs
     00001467  A$lcc2145639$283                   npcs
     00001468  A$lcc2145639$284                   npcs
     00001469  A$lcc2145639$285                   npcs
     0000146A  A$lcc2145639$286                   npcs
ASxxxx Linker V03.00/V05.40 + sdld,  page 50.
Hexadecimal  [32-Bits]

Area                                    Addr        Size        Decimal Bytes (Attributes)
--------------------------------        ----        ----        ------- ----- ------------
_CODE                               00000200    00002A48 =       10824. bytes (REL,CON)

      Value  Global                              Global Defined In Module
      -----  --------------------------------   ------------------------
     0000146B  A$lcc2145639$287                   npcs
     0000146E  A$lcc2145639$288                   npcs
     00001470  A$lcc2145639$289                   npcs
     00001471  A$lcc2145639$293                   npcs
     00001471  C$npcs.c$51$2_0$140                npcs
     00001473  A$lcc2145639$294                   npcs
     00001474  A$lcc2145639$295                   npcs
     00001476  A$lcc2145639$296                   npcs
     00001477  A$lcc2145639$297                   npcs
     00001478  A$lcc2145639$298                   npcs
     0000147A  A$lcc2145639$303                   npcs
     0000147C  A$lcc2145639$304                   npcs
     0000147D  A$lcc2145639$305                   npcs
     0000147F  A$lcc2145639$306                   npcs
     00001480  A$lcc2145639$307                   npcs
     00001481  A$lcc2145639$308                   npcs
     00001482  A$lcc2145639$309                   npcs
     00001483  A$lcc2145639$310                   npcs
     00001484  A$lcc2145639$311                   npcs
     00001485  A$lcc2145639$312                   npcs
     00001488  A$lcc2145639$313                   npcs
     00001489  A$lcc2145639$314                   npcs
     0000148A  A$lcc2145639$315                   npcs
     0000148B  A$lcc2145639$316                   npcs
     0000148D  A$lcc2145639$317                   npcs
     0000148E  A$lcc2145639$318                   npcs
     0000148F  A$lcc2145639$319                   npcs
     00001490  A$lcc2145639$320                   npcs
     00001492  A$lcc2145639$321                   npcs
     00001493  A$lcc2145639$322                   npcs
     00001496  A$lcc2145639$324                   npcs
     00001498  A$lcc2145639$325                   npcs
     00001499  A$lcc2145639$326                   npcs
     0000149A  A$lcc2145639$327                   npcs
     0000149B  A$lcc2145639$328                   npcs
     0000149C  A$lcc2145639$329                   npcs
     0000149D  A$lcc2145639$330                   npcs
     0000149E  A$lcc2145639$331                   npcs
     0000149F  A$lcc2145639$332                   npcs
     000014A0  A$lcc2145639$333                   npcs
     000014A2  A$lcc2145639$337                   npcs
     000014A2  C$npcs.c$60$3_0$143                npcs
     000014A3  A$lcc2145639$338                   npcs
     000014A6  A$lcc2145639$339                   npcs
     000014A7  A$lcc2145639$340                   npcs
     000014A8  A$lcc2145639$341                   npcs
     000014A9  A$lcc2145639$342                   npcs
     000014AB  A$lcc2145639$343                   npcs
     000014AD  A$lcc2145639$344                   npcs
     000014AE  A$lcc2145639$348                   npcs
     000014AE  C$npcs.c$61$3_0$143                npcs
ASxxxx Linker V03.00/V05.40 + sdld,  page 51.
Hexadecimal  [32-Bits]

Area                                    Addr        Size        Decimal Bytes (Attributes)
--------------------------------        ----        ----        ------- ----- ------------
_CODE                               00000200    00002A48 =       10824. bytes (REL,CON)

      Value  Global                              Global Defined In Module
      -----  --------------------------------   ------------------------
     000014AF  A$lcc2145639$349                   npcs
     000014B0  A$lcc2145639$350                   npcs
     000014B3  A$lcc2145639$351                   npcs
     000014B4  A$lcc2145639$352                   npcs
     000014B5  A$lcc2145639$353                   npcs
     000014B8  A$lcc2145639$354                   npcs
     000014B9  A$lcc2145639$355                   npcs
     000014BB  A$lcc2145639$356                   npcs
     000014BC  A$lcc2145639$357                   npcs
     000014BF  A$lcc2145639$358                   npcs
     000014C1  A$lcc2145639$362                   npcs
     000014C1  C$npcs.c$58$2_0$142                npcs
     000014C2  A$lcc2145639$363                   npcs
     000014C4  A$lcc2145639$368                   npcs
     000014C4  C$npcs.c$65$1_1$144                npcs
     000014C6  A$lcc2145639$369                   npcs
     000014C7  A$lcc2145639$370                   npcs
     000014C8  A$lcc2145639$371                   npcs
     000014C9  A$lcc2145639$372                   npcs
     000014CA  A$lcc2145639$373                   npcs
     000014CC  A$lcc2145639$374                   npcs
     000014CE  A$lcc2145639$375                   npcs
     000014CF  A$lcc2145639$379                   npcs
     000014CF  C$npcs.c$66$1_1$144                npcs
     000014D2  A$lcc2145639$380                   npcs
     000014D3  A$lcc2145639$381                   npcs
     000014D4  A$lcc2145639$382                   npcs
     000014D7  A$lcc2145639$383                   npcs
     000014D8  A$lcc2145639$384                   npcs
     000014DB  A$lcc2145639$385                   npcs
     000014DC  A$lcc2145639$386                   npcs
     000014DF  A$lcc2145639$387                   npcs
     000014E1  A$lcc2145639$391                   npcs
     000014E1  C$npcs.c$69$2_1$145                npcs
     000014E3  A$lcc2145639$392                   npcs
     000014E5  A$lcc2145639$396                   npcs
     000014E5  C$npcs.c$70$1_2$145                npcs
     000014E8  A$lcc2145639$397                   npcs
     000014E9  A$lcc2145639$398                   npcs
     000014EA  A$lcc2145639$399                   npcs
     000014ED  A$lcc2145639$400                   npcs
     000014EE  A$lcc2145639$401                   npcs
     000014F1  A$lcc2145639$402                   npcs
     000014F2  A$lcc2145639$403                   npcs
     000014F5  A$lcc2145639$407                   npcs
     000014F5  C$npcs.c$71$1_2$137                npcs
     000014F7  A$lcc2145639$408                   npcs
     000014F8  A$lcc2145639$409                   npcs
     000014FA  A$lcc2145639$410                   npcs
     000014FB  A$lcc2145641$75                    player
     000014FB  C$player.c$11$0_0$158              player
ASxxxx Linker V03.00/V05.40 + sdld,  page 52.
Hexadecimal  [32-Bits]

Area                                    Addr        Size        Decimal Bytes (Attributes)
--------------------------------        ----        ----        ------- ----- ------------
_CODE                               00000200    00002A48 =       10824. bytes (REL,CON)

      Value  Global                              Global Defined In Module
      -----  --------------------------------   ------------------------
     000014FB  C$player.c$12$1_0$158              player
     000014FB  G$create_player$0$0                player
     000014FB  _create_player                     player
     000014FE  A$lcc2145641$76                    player
     00001501  A$lcc2145641$80                    player
     00001501  C$player.c$13$1_0$158              player
     00001504  A$lcc2145641$81                    player
     00001507  A$lcc2145641$85                    player
     00001507  C$player.c$15$1_0$158              player
     0000150A  A$lcc2145641$86                    player
     0000150D  A$lcc2145641$87                    player
     0000150E  A$lcc2145641$88                    player
     00001510  A$lcc2145641$89                    player
     00001511  A$lcc2145641$90                    player
     00001513  A$lcc2145641$98                    player
     00001513  C$player.c$16$1_0$158              player
     00001513  XG$create_player$0$0               player
     00001514  A$lcc2145641$108                   player
     00001514  C$player.c$18$1_0$160              player
     00001514  G$init_player$0$0                  player
     00001514  _init_player                       player
     00001516  A$lcc2145641$112                   player
     00001516  C$player.c$19$1_0$160              player
     00001519  A$lcc2145641$113                   player
     0000151A  A$lcc2145641$114                   player
     0000151C  A$lcc2145641$115                   player
     0000151F  A$lcc2145641$116                   player
     00001520  A$lcc2145641$117                   player
     00001522  A$lcc2145641$121                   player
     00001522  C$player.c$20$1_0$160              player
     00001525  A$lcc2145641$122                   player
     00001526  A$lcc2145641$123                   player
     00001528  A$lcc2145641$124                   player
     0000152B  A$lcc2145641$125                   player
     0000152C  A$lcc2145641$126                   player
     0000152E  A$lcc2145641$133                   player
     00001531  A$lcc2145641$134                   player
     00001532  A$lcc2145641$138                   player
     00001535  A$lcc2145641$139                   player
     00001537  A$lcc2145641$140                   player
     00001538  A$lcc2145641$141                   player
     00001539  A$lcc2145641$151                   player
     00001539  C$player.c$22$2_0$161              player
     00001539  C$player.c$25$1_1$160              player
     00001539  C$player.c$26$1_1$160              player
     0000153A  A$lcc2145641$152                   player
     0000153C  A$lcc2145641$156                   player
     0000153C  C$player.c$23$3_0$162              player
     0000153E  A$lcc2145641$157                   player
     0000153F  A$lcc2145641$158                   player
     00001540  A$lcc2145641$159                   player
ASxxxx Linker V03.00/V05.40 + sdld,  page 53.
Hexadecimal  [32-Bits]

Area                                    Addr        Size        Decimal Bytes (Attributes)
--------------------------------        ----        ----        ------- ----- ------------
_CODE                               00000200    00002A48 =       10824. bytes (REL,CON)

      Value  Global                              Global Defined In Module
      -----  --------------------------------   ------------------------
     00001542  A$lcc2145641$160                   player
     00001544  A$lcc2145641$161                   player
     00001545  A$lcc2145641$162                   player
     00001548  A$lcc2145641$163                   player
     0000154A  A$lcc2145641$164                   player
     0000154B  A$lcc2145641$165                   player
     0000154C  A$lcc2145641$166                   player
     0000154D  A$lcc2145641$170                   player
     00001550  A$lcc2145641$174                   player
     00001550  C$player.c$24$3_0$162              player
     00001551  A$lcc2145641$175                   player
     00001553  A$lcc2145641$176                   player
     00001554  A$lcc2145641$177                   player
     00001556  A$lcc2145641$178                   player
     00001558  A$lcc2145641$179                   player
     00001559  A$lcc2145641$180                   player
     0000155C  A$lcc2145641$181                   player
     0000155E  A$lcc2145641$182                   player
     0000155F  A$lcc2145641$183                   player
     00001560  A$lcc2145641$184                   player
     00001561  A$lcc2145641$188                   player
     00001561  C$player.c$25$3_0$162              player
     00001564  A$lcc2145641$189                   player
     00001565  A$lcc2145641$190                   player
     00001566  A$lcc2145641$191                   player
     00001568  A$lcc2145641$192                   player
     00001569  A$lcc2145641$193                   player
     0000156B  A$lcc2145641$194                   player
     0000156D  A$lcc2145641$195                   player
     0000156E  A$lcc2145641$196                   player
     00001571  A$lcc2145641$197                   player
     00001573  A$lcc2145641$198                   player
     00001574  A$lcc2145641$199                   player
     00001575  A$lcc2145641$200                   player
     00001576  A$lcc2145641$201                   player
     00001577  A$lcc2145641$202                   player
     00001578  A$lcc2145641$203                   player
     00001579  A$lcc2145641$204                   player
     0000157A  A$lcc2145641$208                   player
     0000157A  C$player.c$26$3_0$162              player
     0000157D  A$lcc2145641$209                   player
     0000157E  A$lcc2145641$210                   player
     0000157F  A$lcc2145641$211                   player
     00001581  A$lcc2145641$212                   player
     00001582  A$lcc2145641$213                   player
     00001584  A$lcc2145641$214                   player
     00001586  A$lcc2145641$215                   player
     00001587  A$lcc2145641$216                   player
     0000158A  A$lcc2145641$217                   player
     0000158C  A$lcc2145641$218                   player
     0000158D  A$lcc2145641$219                   player
ASxxxx Linker V03.00/V05.40 + sdld,  page 54.
Hexadecimal  [32-Bits]

Area                                    Addr        Size        Decimal Bytes (Attributes)
--------------------------------        ----        ----        ------- ----- ------------
_CODE                               00000200    00002A48 =       10824. bytes (REL,CON)

      Value  Global                              Global Defined In Module
      -----  --------------------------------   ------------------------
     0000158E  A$lcc2145641$220                   player
     0000158F  A$lcc2145641$221                   player
     00001590  A$lcc2145641$222                   player
     00001591  A$lcc2145641$223                   player
     00001592  A$lcc2145641$224                   player
     00001593  A$lcc2145641$228                   player
     00001593  C$player.c$28$3_0$162              player
     00001596  A$lcc2145641$229                   player
     00001597  A$lcc2145641$230                   player
     00001599  A$lcc2145641$231                   player
     0000159C  A$lcc2145641$232                   player
     0000159D  A$lcc2145641$233                   player
     0000159F  A$lcc2145641$238                   player
     0000159F  C$player.c$31$1_0$160              player
     000015A2  A$lcc2145641$239                   player
     000015A5  A$lcc2145641$240                   player
     000015A7  A$lcc2145641$241                   player
     000015A8  A$lcc2145641$242                   player
     000015A9  A$lcc2145641$243                   player
     000015AA  A$lcc2145641$244                   player
     000015AC  A$lcc2145641$245                   player
     000015AD  A$lcc2145641$246                   player
     000015AF  A$lcc2145641$250                   player
     000015AF  C$player.c$19$1_1$160              player
     000015B2  A$lcc2145641$251                   player
     000015B3  A$lcc2145641$255                   player
     000015B3  C$player.c$33$1_0$160              player
     000015B6  A$lcc2145641$256                   player
     000015B8  A$lcc2145641$257                   player
     000015B9  A$lcc2145641$258                   player
     000015BA  A$lcc2145641$259                   player
     000015BD  A$lcc2145641$263                   player
     000015BD  C$player.c$35$1_0$160              player
     000015C0  A$lcc2145641$264                   player
     000015C1  A$lcc2145641$265                   player
     000015C3  A$lcc2145641$266                   player
     000015C4  A$lcc2145641$267                   player
     000015C6  A$lcc2145641$268                   player
     000015C8  A$lcc2145641$269                   player
     000015C9  A$lcc2145641$270                   player
     000015CC  A$lcc2145641$271                   player
     000015CE  A$lcc2145641$272                   player
     000015CF  A$lcc2145641$273                   player
     000015D0  A$lcc2145641$274                   player
     000015D1  A$lcc2145641$275                   player
     000015D2  A$lcc2145641$276                   player
     000015D3  A$lcc2145641$277                   player
     000015D4  A$lcc2145641$278                   player
     000015D5  A$lcc2145641$282                   player
     000015D5  C$player.c$36$1_0$160              player
     000015D8  A$lcc2145641$283                   player
ASxxxx Linker V03.00/V05.40 + sdld,  page 55.
Hexadecimal  [32-Bits]

Area                                    Addr        Size        Decimal Bytes (Attributes)
--------------------------------        ----        ----        ------- ----- ------------
_CODE                               00000200    00002A48 =       10824. bytes (REL,CON)

      Value  Global                              Global Defined In Module
      -----  --------------------------------   ------------------------
     000015D9  A$lcc2145641$284                   player
     000015DA  A$lcc2145641$285                   player
     000015DC  A$lcc2145641$286                   player
     000015DF  A$lcc2145641$287                   player
     000015E0  A$lcc2145641$288                   player
     000015E3  A$lcc2145641$289                   player
     000015E5  A$lcc2145641$290                   player
     000015E6  A$lcc2145641$291                   player
     000015E8  A$lcc2145641$292                   player
     000015EA  A$lcc2145641$293                   player
     000015EB  A$lcc2145641$294                   player
     000015EC  A$lcc2145641$295                   player
     000015ED  A$lcc2145641$296                   player
     000015EE  A$lcc2145641$297                   player
     000015EF  A$lcc2145641$298                   player
     000015F0  A$lcc2145641$302                   player
     000015F0  C$player.c$38$1_0$160              player
     000015F3  A$lcc2145641$303                   player
     000015F4  A$lcc2145641$304                   player
     000015F6  A$lcc2145641$305                   player
     000015F9  A$lcc2145641$306                   player
     000015FA  A$lcc2145641$307                   player
     000015FC  A$lcc2145641$311                   player
     000015FC  C$player.c$39$1_0$160              player
     000015FF  A$lcc2145641$312                   player
     00001602  A$lcc2145641$313                   player
     00001603  A$lcc2145641$314                   player
     00001605  A$lcc2145641$315                   player
     00001606  A$lcc2145641$316                   player
     00001608  A$lcc2145641$320                   player
     00001608  C$player.c$40$1_0$160              player
     0000160B  A$lcc2145641$321                   player
     0000160E  A$lcc2145641$322                   player
     0000160F  A$lcc2145641$323                   player
     00001611  A$lcc2145641$324                   player
     00001612  A$lcc2145641$325                   player
     00001614  A$lcc2145641$329                   player
     00001614  C$player.c$43$2_0$163              player
     00001617  A$lcc2145641$330                   player
     00001618  A$lcc2145641$331                   player
     00001619  A$lcc2145641$332                   player
     0000161A  A$lcc2145641$333                   player
     0000161C  A$lcc2145641$334                   player
     0000161E  A$lcc2145641$335                   player
     0000161F  A$lcc2145641$336                   player
     00001621  A$lcc2145641$337                   player
     00001622  A$lcc2145641$338                   player
     00001624  A$lcc2145641$339                   player
     00001625  A$lcc2145641$340                   player
     00001627  A$lcc2145641$341                   player
     00001628  A$lcc2145641$342                   player
ASxxxx Linker V03.00/V05.40 + sdld,  page 56.
Hexadecimal  [32-Bits]

Area                                    Addr        Size        Decimal Bytes (Attributes)
--------------------------------        ----        ----        ------- ----- ------------
_CODE                               00000200    00002A48 =       10824. bytes (REL,CON)

      Value  Global                              Global Defined In Module
      -----  --------------------------------   ------------------------
     0000162A  A$lcc2145641$343                   player
     0000162B  A$lcc2145641$344                   player
     0000162D  A$lcc2145641$348                   player
     0000162D  C$player.c$47$2_0$163              player
     0000162E  A$lcc2145641$349                   player
     00001630  A$lcc2145641$350                   player
     00001631  A$lcc2145641$351                   player
     00001633  A$lcc2145641$352                   player
     00001634  A$lcc2145641$353                   player
     00001636  A$lcc2145641$354                   player
     00001637  A$lcc2145641$355                   player
     00001639  A$lcc2145641$356                   player
     0000163A  A$lcc2145641$357                   player
     0000163C  A$lcc2145641$358                   player
     0000163D  A$lcc2145641$359                   player
     0000163F  A$lcc2145641$360                   player
     00001640  A$lcc2145641$361                   player
     00001642  A$lcc2145641$362                   player
     00001643  A$lcc2145641$363                   player
     00001645  A$lcc2145641$364                   player
     00001646  A$lcc2145641$365                   player
     00001647  A$lcc2145641$366                   player
     00001648  A$lcc2145641$367                   player
     00001649  A$lcc2145641$368                   player
     0000164A  A$lcc2145641$369                   player
     0000164C  A$lcc2145641$370                   player
     0000164D  A$lcc2145641$371                   player
     0000164F  A$lcc2145641$372                   player
     00001650  A$lcc2145641$373                   player
     00001652  A$lcc2145641$374                   player
     00001653  A$lcc2145641$375                   player
     00001655  A$lcc2145641$376                   player
     00001656  A$lcc2145641$377                   player
     00001658  A$lcc2145641$378                   player
     00001659  A$lcc2145641$379                   player
     0000165B  A$lcc2145641$380                   player
     0000165C  A$lcc2145641$381                   player
     0000165E  A$lcc2145641$382                   player
     0000165F  A$lcc2145641$383                   player
     00001661  A$lcc2145641$384                   player
     00001662  A$lcc2145641$385                   player
     00001664  A$lcc2145641$386                   player
     00001665  A$lcc2145641$387                   player
     00001667  A$lcc2145641$388                   player
     00001668  A$lcc2145641$389                   player
     0000166A  A$lcc2145641$390                   player
     0000166B  A$lcc2145641$391                   player
     0000166D  A$lcc2145641$392                   player
     0000166E  A$lcc2145641$393                   player
     00001670  A$lcc2145641$394                   player
     00001671  A$lcc2145641$395                   player
ASxxxx Linker V03.00/V05.40 + sdld,  page 57.
Hexadecimal  [32-Bits]

Area                                    Addr        Size        Decimal Bytes (Attributes)
--------------------------------        ----        ----        ------- ----- ------------
_CODE                               00000200    00002A48 =       10824. bytes (REL,CON)

      Value  Global                              Global Defined In Module
      -----  --------------------------------   ------------------------
     00001673  A$lcc2145641$396                   player
     00001674  A$lcc2145641$397                   player
     00001675  A$lcc2145641$398                   player
     00001676  A$lcc2145641$399                   player
     00001677  A$lcc2145641$400                   player
     00001678  A$lcc2145641$401                   player
     0000167A  A$lcc2145641$402                   player
     0000167B  A$lcc2145641$403                   player
     0000167D  A$lcc2145641$404                   player
     0000167E  A$lcc2145641$405                   player
     00001680  A$lcc2145641$406                   player
     00001681  A$lcc2145641$407                   player
     00001683  A$lcc2145641$408                   player
     00001684  A$lcc2145641$409                   player
     00001686  A$lcc2145641$410                   player
     00001687  A$lcc2145641$411                   player
     00001689  A$lcc2145641$415                   player
     00001689  C$player.c$62$2_0$163              player
     0000168A  A$lcc2145641$416                   player
     0000168D  A$lcc2145641$417                   player
     0000168E  A$lcc2145641$418                   player
     0000168F  A$lcc2145641$419                   player
     00001690  A$lcc2145641$420                   player
     00001691  A$lcc2145641$421                   player
     00001693  A$lcc2145641$422                   player
     00001694  A$lcc2145641$423                   player
     00001696  A$lcc2145641$424                   player
     00001697  A$lcc2145641$425                   player
     00001699  A$lcc2145641$426                   player
     0000169A  A$lcc2145641$427                   player
     0000169C  A$lcc2145641$428                   player
     0000169D  A$lcc2145641$429                   player
     0000169F  A$lcc2145641$430                   player
     000016A0  A$lcc2145641$431                   player
     000016A2  A$lcc2145641$435                   player
     000016A2  C$player.c$66$2_0$163              player
     000016A3  A$lcc2145641$436                   player
     000016A5  A$lcc2145641$437                   player
     000016A6  A$lcc2145641$438                   player
     000016A8  A$lcc2145641$439                   player
     000016A9  A$lcc2145641$440                   player
     000016AB  A$lcc2145641$441                   player
     000016AC  A$lcc2145641$442                   player
     000016AE  A$lcc2145641$443                   player
     000016AF  A$lcc2145641$444                   player
     000016B1  A$lcc2145641$445                   player
     000016B2  A$lcc2145641$446                   player
     000016B4  A$lcc2145641$447                   player
     000016B5  A$lcc2145641$448                   player
     000016B7  A$lcc2145641$449                   player
     000016B8  A$lcc2145641$450                   player
ASxxxx Linker V03.00/V05.40 + sdld,  page 58.
Hexadecimal  [32-Bits]

Area                                    Addr        Size        Decimal Bytes (Attributes)
--------------------------------        ----        ----        ------- ----- ------------
_CODE                               00000200    00002A48 =       10824. bytes (REL,CON)

      Value  Global                              Global Defined In Module
      -----  --------------------------------   ------------------------
     000016BA  A$lcc2145641$451                   player
     000016BB  A$lcc2145641$452                   player
     000016BC  A$lcc2145641$453                   player
     000016BD  A$lcc2145641$454                   player
     000016BE  A$lcc2145641$455                   player
     000016BF  A$lcc2145641$456                   player
     000016C1  A$lcc2145641$457                   player
     000016C2  A$lcc2145641$458                   player
     000016C4  A$lcc2145641$459                   player
     000016C5  A$lcc2145641$460                   player
     000016C7  A$lcc2145641$461                   player
     000016C8  A$lcc2145641$462                   player
     000016CA  A$lcc2145641$463                   player
     000016CB  A$lcc2145641$464                   player
     000016CD  A$lcc2145641$465                   player
     000016CE  A$lcc2145641$466                   player
     000016D0  A$lcc2145641$467                   player
     000016D1  A$lcc2145641$468                   player
     000016D3  A$lcc2145641$469                   player
     000016D4  A$lcc2145641$470                   player
     000016D6  A$lcc2145641$471                   player
     000016D7  A$lcc2145641$472                   player
     000016D9  A$lcc2145641$473                   player
     000016DA  A$lcc2145641$474                   player
     000016DC  A$lcc2145641$475                   player
     000016DD  A$lcc2145641$476                   player
     000016DF  A$lcc2145641$477                   player
     000016E0  A$lcc2145641$478                   player
     000016E2  A$lcc2145641$479                   player
     000016E3  A$lcc2145641$480                   player
     000016E5  A$lcc2145641$481                   player
     000016E6  A$lcc2145641$482                   player
     000016E8  A$lcc2145641$483                   player
     000016E9  A$lcc2145641$484                   player
     000016EA  A$lcc2145641$485                   player
     000016EB  A$lcc2145641$486                   player
     000016EC  A$lcc2145641$487                   player
     000016ED  A$lcc2145641$488                   player
     000016EF  A$lcc2145641$489                   player
     000016F0  A$lcc2145641$490                   player
     000016F2  A$lcc2145641$491                   player
     000016F3  A$lcc2145641$492                   player
     000016F5  A$lcc2145641$493                   player
     000016F6  A$lcc2145641$494                   player
     000016F8  A$lcc2145641$495                   player
     000016F9  A$lcc2145641$496                   player
     000016FB  A$lcc2145641$497                   player
     000016FC  A$lcc2145641$498                   player
     000016FE  A$lcc2145641$502                   player
     000016FE  C$player.c$80$1_1$163              player
     00001701  A$lcc2145641$503                   player
ASxxxx Linker V03.00/V05.40 + sdld,  page 59.
Hexadecimal  [32-Bits]

Area                                    Addr        Size        Decimal Bytes (Attributes)
--------------------------------        ----        ----        ------- ----- ------------
_CODE                               00000200    00002A48 =       10824. bytes (REL,CON)

      Value  Global                              Global Defined In Module
      -----  --------------------------------   ------------------------
     00001702  A$lcc2145641$504                   player
     00001704  A$lcc2145641$505                   player
     00001705  A$lcc2145641$506                   player
     00001706  A$lcc2145641$507                   player
     00001707  A$lcc2145641$508                   player
     00001708  A$lcc2145641$509                   player
     00001709  A$lcc2145641$510                   player
     0000170A  A$lcc2145641$511                   player
     0000170B  A$lcc2145641$512                   player
     0000170C  A$lcc2145641$513                   player
     0000170D  A$lcc2145641$514                   player
     00001710  A$lcc2145641$515                   player
     00001711  A$lcc2145641$516                   player
     00001712  A$lcc2145641$517                   player
     00001713  A$lcc2145641$518                   player
     00001716  A$lcc2145641$519                   player
     00001717  A$lcc2145641$520                   player
     00001719  A$lcc2145641$521                   player
     0000171A  A$lcc2145641$522                   player
     0000171B  A$lcc2145641$523                   player
     0000171E  A$lcc2145641$524                   player
     0000171F  A$lcc2145641$525                   player
     00001720  A$lcc2145641$526                   player
     00001721  A$lcc2145641$527                   player
     00001722  A$lcc2145641$528                   player
     00001723  A$lcc2145641$529                   player
     00001724  A$lcc2145641$530                   player
     00001727  A$lcc2145641$531                   player
     0000172A  A$lcc2145641$535                   player
     0000172A  C$player.c$82$1_1$163              player
     0000172D  A$lcc2145641$536                   player
     0000172E  A$lcc2145641$537                   player
     00001730  A$lcc2145641$538                   player
     00001731  A$lcc2145641$539                   player
     00001732  A$lcc2145641$540                   player
     00001733  A$lcc2145641$541                   player
     00001734  A$lcc2145641$542                   player
     00001735  A$lcc2145641$543                   player
     00001736  A$lcc2145641$544                   player
     00001737  A$lcc2145641$545                   player
     00001738  A$lcc2145641$546                   player
     00001739  A$lcc2145641$547                   player
     0000173C  A$lcc2145641$548                   player
     0000173D  A$lcc2145641$549                   player
     0000173E  A$lcc2145641$550                   player
     0000173F  A$lcc2145641$551                   player
     00001742  A$lcc2145641$552                   player
     00001743  A$lcc2145641$553                   player
     00001745  A$lcc2145641$554                   player
     00001746  A$lcc2145641$555                   player
     00001747  A$lcc2145641$556                   player
ASxxxx Linker V03.00/V05.40 + sdld,  page 60.
Hexadecimal  [32-Bits]

Area                                    Addr        Size        Decimal Bytes (Attributes)
--------------------------------        ----        ----        ------- ----- ------------
_CODE                               00000200    00002A48 =       10824. bytes (REL,CON)

      Value  Global                              Global Defined In Module
      -----  --------------------------------   ------------------------
     0000174A  A$lcc2145641$557                   player
     0000174B  A$lcc2145641$558                   player
     0000174C  A$lcc2145641$559                   player
     0000174E  A$lcc2145641$560                   player
     0000174F  A$lcc2145641$561                   player
     00001750  A$lcc2145641$562                   player
     00001751  A$lcc2145641$563                   player
     00001754  A$lcc2145641$564                   player
     00001757  A$lcc2145641$568                   player
     00001757  C$player.c$84$1_1$163              player
     0000175A  A$lcc2145641$569                   player
     0000175B  A$lcc2145641$570                   player
     0000175D  A$lcc2145641$571                   player
     0000175E  A$lcc2145641$572                   player
     0000175F  A$lcc2145641$573                   player
     00001760  A$lcc2145641$574                   player
     00001761  A$lcc2145641$575                   player
     00001762  A$lcc2145641$576                   player
     00001763  A$lcc2145641$577                   player
     00001764  A$lcc2145641$578                   player
     00001765  A$lcc2145641$579                   player
     00001766  A$lcc2145641$580                   player
     00001769  A$lcc2145641$581                   player
     0000176A  A$lcc2145641$582                   player
     0000176B  A$lcc2145641$583                   player
     0000176C  A$lcc2145641$584                   player
     0000176F  A$lcc2145641$585                   player
     00001770  A$lcc2145641$586                   player
     00001772  A$lcc2145641$587                   player
     00001773  A$lcc2145641$588                   player
     00001774  A$lcc2145641$589                   player
     00001777  A$lcc2145641$590                   player
     00001778  A$lcc2145641$591                   player
     00001779  A$lcc2145641$592                   player
     0000177B  A$lcc2145641$593                   player
     0000177C  A$lcc2145641$594                   player
     0000177D  A$lcc2145641$595                   player
     0000177E  A$lcc2145641$596                   player
     00001781  A$lcc2145641$597                   player
     00001784  A$lcc2145641$601                   player
     00001784  C$player.c$86$1_1$163              player
     00001787  A$lcc2145641$602                   player
     00001788  A$lcc2145641$603                   player
     0000178A  A$lcc2145641$604                   player
     0000178B  A$lcc2145641$605                   player
     0000178C  A$lcc2145641$606                   player
     0000178D  A$lcc2145641$607                   player
     0000178E  A$lcc2145641$608                   player
     0000178F  A$lcc2145641$609                   player
     00001790  A$lcc2145641$610                   player
     00001791  A$lcc2145641$611                   player
ASxxxx Linker V03.00/V05.40 + sdld,  page 61.
Hexadecimal  [32-Bits]

Area                                    Addr        Size        Decimal Bytes (Attributes)
--------------------------------        ----        ----        ------- ----- ------------
_CODE                               00000200    00002A48 =       10824. bytes (REL,CON)

      Value  Global                              Global Defined In Module
      -----  --------------------------------   ------------------------
     00001792  A$lcc2145641$612                   player
     00001793  A$lcc2145641$613                   player
     00001796  A$lcc2145641$614                   player
     00001797  A$lcc2145641$615                   player
     00001798  A$lcc2145641$616                   player
     00001799  A$lcc2145641$617                   player
     0000179C  A$lcc2145641$618                   player
     0000179D  A$lcc2145641$619                   player
     0000179F  A$lcc2145641$620                   player
     000017A0  A$lcc2145641$621                   player
     000017A1  A$lcc2145641$622                   player
     000017A4  A$lcc2145641$623                   player
     000017A5  A$lcc2145641$624                   player
     000017A6  A$lcc2145641$625                   player
     000017A8  A$lcc2145641$626                   player
     000017A9  A$lcc2145641$627                   player
     000017AA  A$lcc2145641$628                   player
     000017AB  A$lcc2145641$629                   player
     000017AE  A$lcc2145641$630                   player
     000017B1  A$lcc2145641$634                   player
     000017B1  C$player.c$89$1_1$163              player
     000017B4  A$lcc2145641$638                   player
     000017B4  C$player.c$90$1_1$163              player
     000017B5  A$lcc2145641$639                   player
     000017B6  A$lcc2145641$640                   player
     000017B8  A$lcc2145641$644                   player
     000017B8  C$player.c$91$1_1$163              player
     000017BB  A$lcc2145641$645                   player
     000017BD  A$lcc2145641$649                   player
     000017BD  C$player.c$92$1_1$163              player
     000017C0  A$lcc2145641$650                   player
     000017C2  A$lcc2145641$654                   player
     000017C2  C$player.c$94$1_1$163              player
     000017C5  A$lcc2145641$658                   player
     000017C7  A$lcc2145641$663                   player
     000017C7  C$player.c$95$1_1$160              player
     000017C7  XG$init_player$0$0                 player
     000017C8  A$lcc2145641$676                   player
     000017C8  C$player.c$97$1_1$164              player
     000017C8  G$cache_player_position$0$0        player
     000017C8  _cache_player_position             player
     000017CB  A$lcc2145641$677                   player
     000017CC  A$lcc2145641$678                   player
     000017CE  A$lcc2145641$679                   player
     000017CF  A$lcc2145641$680                   player
     000017D1  A$lcc2145641$681                   player
     000017D3  A$lcc2145641$682                   player
     000017D4  A$lcc2145641$683                   player
     000017D7  A$lcc2145641$684                   player
     000017D9  A$lcc2145641$685                   player
     000017DA  A$lcc2145641$686                   player
ASxxxx Linker V03.00/V05.40 + sdld,  page 62.
Hexadecimal  [32-Bits]

Area                                    Addr        Size        Decimal Bytes (Attributes)
--------------------------------        ----        ----        ------- ----- ------------
_CODE                               00000200    00002A48 =       10824. bytes (REL,CON)

      Value  Global                              Global Defined In Module
      -----  --------------------------------   ------------------------
     000017DB  A$lcc2145641$687                   player
     000017DC  A$lcc2145641$694                   player
     000017DC  C$player.c$98$1_0$164              player
     000017DF  A$lcc2145641$698                   player
     000017DF  C$player.c$99$1_0$164              player
     000017E0  A$lcc2145641$699                   player
     000017E2  A$lcc2145641$700                   player
     000017E3  A$lcc2145641$701                   player
     000017E5  A$lcc2145641$702                   player
     000017E7  A$lcc2145641$703                   player
     000017E8  A$lcc2145641$704                   player
     000017EB  A$lcc2145641$705                   player
     000017ED  A$lcc2145641$706                   player
     000017EE  A$lcc2145641$707                   player
     000017EF  A$lcc2145641$708                   player
     000017F0  A$lcc2145641$712                   player
     000017F0  C$player.c$100$1_0$164             player
     000017F3  A$lcc2145641$713                   player
     000017F4  A$lcc2145641$714                   player
     000017F5  A$lcc2145641$715                   player
     000017F7  A$lcc2145641$716                   player
     000017F8  A$lcc2145641$717                   player
     000017FA  A$lcc2145641$718                   player
     000017FC  A$lcc2145641$719                   player
     000017FD  A$lcc2145641$720                   player
     00001800  A$lcc2145641$721                   player
     00001802  A$lcc2145641$722                   player
     00001803  A$lcc2145641$723                   player
     00001804  A$lcc2145641$724                   player
     00001805  A$lcc2145641$725                   player
     00001806  A$lcc2145641$726                   player
     00001807  A$lcc2145641$727                   player
     00001808  A$lcc2145641$728                   player
     00001809  A$lcc2145641$732                   player
     00001809  C$player.c$101$1_0$164             player
     0000180C  A$lcc2145641$733                   player
     0000180D  A$lcc2145641$734                   player
     0000180E  A$lcc2145641$735                   player
     00001810  A$lcc2145641$736                   player
     00001811  A$lcc2145641$737                   player
     00001813  A$lcc2145641$738                   player
     00001815  A$lcc2145641$739                   player
     00001816  A$lcc2145641$740                   player
     00001819  A$lcc2145641$741                   player
     0000181B  A$lcc2145641$742                   player
     0000181C  A$lcc2145641$743                   player
     0000181D  A$lcc2145641$744                   player
     0000181E  A$lcc2145641$745                   player
     0000181F  A$lcc2145641$746                   player
     00001820  A$lcc2145641$747                   player
     00001821  A$lcc2145641$748                   player
ASxxxx Linker V03.00/V05.40 + sdld,  page 63.
Hexadecimal  [32-Bits]

Area                                    Addr        Size        Decimal Bytes (Attributes)
--------------------------------        ----        ----        ------- ----- ------------
_CODE                               00000200    00002A48 =       10824. bytes (REL,CON)

      Value  Global                              Global Defined In Module
      -----  --------------------------------   ------------------------
     00001822  A$lcc2145641$752                   player
     00001822  C$player.c$103$1_0$164             player
     00001825  A$lcc2145641$753                   player
     00001828  A$lcc2145641$754                   player
     00001829  A$lcc2145641$755                   player
     0000182B  A$lcc2145641$756                   player
     0000182C  A$lcc2145641$757                   player
     0000182E  A$lcc2145641$765                   player
     0000182E  C$player.c$104$1_0$164             player
     0000182E  XG$cache_player_position$0$0       player
     0000182F  A$lcc2145643$59                    random
     0000182F  C$random.c$5$0_0$1                 random
     0000182F  C$random.c$7$1_0$1                 random
     0000182F  G$my_rand$0$0                      random
     0000182F  _my_rand                           random
     00001832  A$lcc2145643$60                    random
     00001833  A$lcc2145643$61                    random
     00001834  A$lcc2145643$62                    random
     00001835  A$lcc2145643$63                    random
     00001836  A$lcc2145643$64                    random
     00001837  A$lcc2145643$65                    random
     00001838  A$lcc2145643$66                    random
     00001839  A$lcc2145643$67                    random
     0000183A  A$lcc2145643$68                    random
     0000183B  A$lcc2145643$69                    random
     0000183C  A$lcc2145643$70                    random
     0000183D  A$lcc2145643$71                    random
     0000183E  A$lcc2145643$72                    random
     0000183F  A$lcc2145643$73                    random
     00001840  A$lcc2145643$74                    random
     00001841  A$lcc2145643$75                    random
     00001842  A$lcc2145643$76                    random
     00001843  A$lcc2145643$77                    random
     00001844  A$lcc2145643$78                    random
     00001845  A$lcc2145643$79                    random
     00001846  A$lcc2145643$80                    random
     00001847  A$lcc2145643$81                    random
     00001848  A$lcc2145643$82                    random
     00001849  A$lcc2145643$83                    random
     0000184A  A$lcc2145643$84                    random
     0000184B  A$lcc2145643$85                    random
     0000184C  A$lcc2145643$86                    random
     0000184D  A$lcc2145643$87                    random
     0000184E  A$lcc2145643$88                    random
     00001850  A$lcc2145643$89                    random
     00001853  A$lcc2145643$90                    random
     00001854  A$lcc2145643$91                    random
     00001855  A$lcc2145643$92                    random
     00001857  A$lcc2145643$96                    random
     00001857  C$random.c$8$1_0$1                 random
     00001858  A$lcc2145643$97                    random
ASxxxx Linker V03.00/V05.40 + sdld,  page 64.
Hexadecimal  [32-Bits]

Area                                    Addr        Size        Decimal Bytes (Attributes)
--------------------------------        ----        ----        ------- ----- ------------
_CODE                               00000200    00002A48 =       10824. bytes (REL,CON)

      Value  Global                              Global Defined In Module
      -----  --------------------------------   ------------------------
     00001859  A$lcc2145643$98                    random
     0000185A  A$lcc2145643$99                    random
     0000185B  A$lcc2145643$107                   random
     0000185B  C$random.c$9$1_0$1                 random
     0000185B  XG$my_rand$0$0                     random
     0000185C  A$lcc2145644$56                    render
     0000185C  C$render.c$5$0_0$130               render
     0000185C  G$render_reset$0$0                 render
     0000185C  _render_reset                      render
     0000185D  A$lcc2145644$60                    render
     0000185D  C$render.c$6$1_0$130               render
     00001860  A$lcc2145644$61                    render
     00001862  A$lcc2145644$62                    render
     00001863  A$lcc2145644$63                    render
     00001865  A$lcc2145644$67                    render
     00001865  C$render.c$7$1_0$130               render
     00001868  A$lcc2145644$68                    render
     0000186A  A$lcc2145644$69                    render
     0000186B  A$lcc2145644$70                    render
     0000186D  A$lcc2145644$78                    render
     0000186D  C$render.c$8$1_0$130               render
     0000186D  XG$render_reset$0$0                render
     0000186E  A$lcc2145645$56                    scene
     0000186E  C$scene.c$6$0_0$27                 scene
     0000186E  C$scene.c$8$2_0$28                 scene
     0000186E  G$Scene_Destroy$0$0                scene
     0000186E  _Scene_Destroy                     scene
     00001871  A$lcc2145645$57                    scene
     00001872  A$lcc2145645$58                    scene
     00001873  A$lcc2145645$59                    scene
     00001874  A$lcc2145645$60                    scene
     00001875  A$lcc2145645$61                    scene
     00001876  A$lcc2145645$62                    scene
     00001877  A$lcc2145645$63                    scene
     00001878  A$lcc2145645$67                    scene
     00001878  C$scene.c$9$2_0$28                 scene
     00001879  A$lcc2145645$71                    scene
     00001879  C$scene.c$11$1_0$27                scene
     0000187A  A$lcc2145645$72                    scene
     0000187B  A$lcc2145645$73                    scene
     0000187C  A$lcc2145645$74                    scene
     0000187F  A$lcc2145645$75                    scene
     00001880  A$lcc2145645$79                    scene
     00001880  C$scene.c$12$1_0$27                scene
     00001881  A$lcc2145645$80                    scene
     00001882  A$lcc2145645$81                    scene
     00001883  A$lcc2145645$82                    scene
     00001884  A$lcc2145645$90                    scene
     00001884  C$scene.c$13$1_0$27                scene
     00001884  XG$Scene_Destroy$0$0               scene
     00001885  A$lcc2145646$69                    scene_manager
ASxxxx Linker V03.00/V05.40 + sdld,  page 65.
Hexadecimal  [32-Bits]

Area                                    Addr        Size        Decimal Bytes (Attributes)
--------------------------------        ----        ----        ------- ----- ------------
_CODE                               00000200    00002A48 =       10824. bytes (REL,CON)

      Value  Global                              Global Defined In Module
      -----  --------------------------------   ------------------------
     00001885  C$scene_manager.c$14$0_0$149       scene_manager
     00001885  C$scene_manager.c$15$1_0$149       scene_manager
     00001885  G$SceneManager_CleanScreen$0$0     scene_manager
     00001885  _SceneManager_CleanScreen          scene_manager
     00001888  A$lcc2145646$73                    scene_manager
     00001888  C$scene_manager.c$16$1_0$149       scene_manager
     0000188A  A$lcc2145646$74                    scene_manager
     0000188C  A$lcc2145646$75                    scene_manager
     0000188E  A$lcc2145646$79                    scene_manager
     0000188E  C$scene_manager.c$17$1_0$149       scene_manager
     00001890  A$lcc2145646$80                    scene_manager
     00001892  A$lcc2145646$81                    scene_manager
     00001894  A$lcc2145646$85                    scene_manager
     00001894  C$scene_manager.c$19$1_0$149       scene_manager
     00001897  A$lcc2145646$89                    scene_manager
     00001897  C$scene_manager.c$21$1_0$149       scene_manager
     0000189A  A$lcc2145646$90                    scene_manager
     0000189D  A$lcc2145646$91                    scene_manager
     0000189E  A$lcc2145646$92                    scene_manager
     000018A0  A$lcc2145646$93                    scene_manager
     000018A1  A$lcc2145646$94                    scene_manager
     000018A3  A$lcc2145646$98                    scene_manager
     000018A3  C$scene_manager.c$22$1_0$149       scene_manager
     000018A6  A$lcc2145646$99                    scene_manager
     000018A9  A$lcc2145646$103                   scene_manager
     000018A9  C$scene_manager.c$24$1_0$149       scene_manager
     000018AB  A$lcc2145646$105                   scene_manager
     000018AC  A$lcc2145646$106                   scene_manager
     000018AE  A$lcc2145646$107                   scene_manager
     000018B0  A$lcc2145646$109                   scene_manager
     000018B3  A$lcc2145646$110                   scene_manager
     000018B4  A$lcc2145646$111                   scene_manager
     000018B5  A$lcc2145646$112                   scene_manager
     000018B6  A$lcc2145646$113                   scene_manager
     000018B7  A$lcc2145646$114                   scene_manager
     000018B8  A$lcc2145646$115                   scene_manager
     000018B9  A$lcc2145646$117                   scene_manager
     000018BA  A$lcc2145646$118                   scene_manager
     000018BB  A$lcc2145646$119                   scene_manager
     000018BC  A$lcc2145646$123                   scene_manager
     000018BC  C$scene_manager.c$24$2_0$150       scene_manager
     000018BD  A$lcc2145646$124                   scene_manager
     000018BF  A$lcc2145646$129                   scene_manager
     000018BF  C$scene_manager.c$27$1_0$149       scene_manager
     000018C0  A$lcc2145646$130                   scene_manager
     000018C3  A$lcc2145646$134                   scene_manager
     000018C3  C$scene_manager.c$28$1_0$149       scene_manager
     000018C6  A$lcc2145646$135                   scene_manager
     000018C8  A$lcc2145646$143                   scene_manager
     000018C8  C$scene_manager.c$29$1_0$149       scene_manager
     000018C8  XG$SceneManager_CleanScreen$0$0    scene_manager
ASxxxx Linker V03.00/V05.40 + sdld,  page 66.
Hexadecimal  [32-Bits]

Area                                    Addr        Size        Decimal Bytes (Attributes)
--------------------------------        ----        ----        ------- ----- ------------
_CODE                               00000200    00002A48 =       10824. bytes (REL,CON)

      Value  Global                              Global Defined In Module
      -----  --------------------------------   ------------------------
     000018C9  A$lcc2145646$153                   scene_manager
     000018C9  C$scene_manager.c$31$1_0$155       scene_manager
     000018C9  G$SceneManager_Create$0$0          scene_manager
     000018C9  _SceneManager_Create               scene_manager
     000018CA  A$lcc2145646$154                   scene_manager
     000018CB  A$lcc2145646$158                   scene_manager
     000018CB  C$scene_manager.c$32$1_0$155       scene_manager
     000018CE  A$lcc2145646$159                   scene_manager
     000018CF  A$lcc2145646$160                   scene_manager
     000018D0  A$lcc2145646$161                   scene_manager
     000018D1  A$lcc2145646$165                   scene_manager
     000018D1  C$scene_manager.c$33$1_0$155       scene_manager
     000018D2  A$lcc2145646$166                   scene_manager
     000018D4  A$lcc2145646$167                   scene_manager
     000018D5  A$lcc2145646$168                   scene_manager
     000018D7  A$lcc2145646$176                   scene_manager
     000018D7  C$scene_manager.c$34$1_0$155       scene_manager
     000018D7  XG$SceneManager_Create$0$0         scene_manager
     000018D8  A$lcc2145646$186                   scene_manager
     000018D8  C$scene_manager.c$36$1_0$157       scene_manager
     000018D8  G$SceneManager_ChangeScene$0$0     scene_manager
     000018D8  _SceneManager_ChangeScene          scene_manager
     000018DA  A$lcc2145646$187                   scene_manager
     000018DB  A$lcc2145646$188                   scene_manager
     000018DD  A$lcc2145646$189                   scene_manager
     000018DE  A$lcc2145646$190                   scene_manager
     000018DF  A$lcc2145646$191                   scene_manager
     000018E0  A$lcc2145646$195                   scene_manager
     000018E0  C$scene_manager.c$37$2_0$158       scene_manager
     000018E3  A$lcc2145646$196                   scene_manager
     000018E4  A$lcc2145646$197                   scene_manager
     000018E7  A$lcc2145646$204                   scene_manager
     000018E7  C$scene_manager.c$38$2_0$158       scene_manager
     000018E7  C$scene_manager.c$40$2_0$159       scene_manager
     000018EA  A$lcc2145646$205                   scene_manager
     000018EB  A$lcc2145646$206                   scene_manager
     000018EC  A$lcc2145646$207                   scene_manager
     000018ED  A$lcc2145646$211                   scene_manager
     000018ED  C$scene_manager.c$41$2_0$159       scene_manager
     000018F0  A$lcc2145646$215                   scene_manager
     000018F0  C$scene_manager.c$43$1_0$157       scene_manager
     000018F3  A$lcc2145646$216                   scene_manager
     000018F5  A$lcc2145646$220                   scene_manager
     000018F5  C$scene_manager.c$45$1_0$157       scene_manager
     000018F6  A$lcc2145646$221                   scene_manager
     000018F9  A$lcc2145646$222                   scene_manager
     000018FA  A$lcc2145646$226                   scene_manager
     000018FA  C$scene_manager.c$47$1_0$157       scene_manager
     000018FC  A$lcc2145646$227                   scene_manager
     000018FE  A$lcc2145646$228                   scene_manager
     00001900  A$lcc2145646$232                   scene_manager
ASxxxx Linker V03.00/V05.40 + sdld,  page 67.
Hexadecimal  [32-Bits]

Area                                    Addr        Size        Decimal Bytes (Attributes)
--------------------------------        ----        ----        ------- ----- ------------
_CODE                               00000200    00002A48 =       10824. bytes (REL,CON)

      Value  Global                              Global Defined In Module
      -----  --------------------------------   ------------------------
     00001900  C$scene_manager.c$48$1_0$157       scene_manager
     00001902  A$lcc2145646$233                   scene_manager
     00001904  A$lcc2145646$234                   scene_manager
     00001906  A$lcc2145646$238                   scene_manager
     00001906  C$scene_manager.c$49$1_0$157       scene_manager
     00001908  A$lcc2145646$239                   scene_manager
     0000190A  A$lcc2145646$240                   scene_manager
     0000190C  A$lcc2145646$244                   scene_manager
     0000190C  C$scene_manager.c$51$1_1$160       scene_manager
     0000190D  A$lcc2145646$245                   scene_manager
     00001910  A$lcc2145646$246                   scene_manager
     00001911  A$lcc2145646$247                   scene_manager
     00001912  A$lcc2145646$251                   scene_manager
     00001912  C$scene_manager.c$52$1_1$160       scene_manager
     00001914  A$lcc2145646$252                   scene_manager
     00001915  A$lcc2145646$256                   scene_manager
     00001915  C$scene_manager.c$53$1_1$160       scene_manager
     00001916  A$lcc2145646$257                   scene_manager
     00001917  A$lcc2145646$258                   scene_manager
     0000191A  A$lcc2145646$259                   scene_manager
     0000191B  A$lcc2145646$260                   scene_manager
     0000191C  A$lcc2145646$261                   scene_manager
     0000191D  A$lcc2145646$262                   scene_manager
     0000191E  A$lcc2145646$263                   scene_manager
     00001920  A$lcc2145646$264                   scene_manager
     00001921  A$lcc2145646$265                   scene_manager
     00001924  A$lcc2145646$269                   scene_manager
     00001924  C$scene_manager.c$54$1_1$160       scene_manager
     00001925  A$lcc2145646$270                   scene_manager
     00001926  A$lcc2145646$271                   scene_manager
     00001927  A$lcc2145646$272                   scene_manager
     00001929  A$lcc2145646$273                   scene_manager
     0000192A  A$lcc2145646$274                   scene_manager
     0000192B  A$lcc2145646$275                   scene_manager
     0000192C  A$lcc2145646$276                   scene_manager
     0000192D  A$lcc2145646$277                   scene_manager
     0000192E  A$lcc2145646$278                   scene_manager
     0000192F  A$lcc2145646$279                   scene_manager
     00001930  A$lcc2145646$280                   scene_manager
     00001931  A$lcc2145646$281                   scene_manager
     00001932  A$lcc2145646$282                   scene_manager
     00001934  A$lcc2145646$283                   scene_manager
     00001935  A$lcc2145646$284                   scene_manager
     00001936  A$lcc2145646$285                   scene_manager
     00001937  A$lcc2145646$286                   scene_manager
     00001938  A$lcc2145646$287                   scene_manager
     0000193A  A$lcc2145646$288                   scene_manager
     0000193B  A$lcc2145646$289                   scene_manager
     0000193C  A$lcc2145646$290                   scene_manager
     0000193D  A$lcc2145646$291                   scene_manager
     0000193E  A$lcc2145646$292                   scene_manager
ASxxxx Linker V03.00/V05.40 + sdld,  page 68.
Hexadecimal  [32-Bits]

Area                                    Addr        Size        Decimal Bytes (Attributes)
--------------------------------        ----        ----        ------- ----- ------------
_CODE                               00000200    00002A48 =       10824. bytes (REL,CON)

      Value  Global                              Global Defined In Module
      -----  --------------------------------   ------------------------
     00001941  A$lcc2145646$293                   scene_manager
     00001942  A$lcc2145646$297                   scene_manager
     00001942  C$scene_manager.c$56$1_1$160       scene_manager
     00001945  A$lcc2145646$298                   scene_manager
     00001946  A$lcc2145646$299                   scene_manager
     00001947  A$lcc2145646$300                   scene_manager
     00001948  A$lcc2145646$301                   scene_manager
     00001949  A$lcc2145646$302                   scene_manager
     0000194B  A$lcc2145646$303                   scene_manager
     0000194C  A$lcc2145646$304                   scene_manager
     0000194D  A$lcc2145646$305                   scene_manager
     0000194E  A$lcc2145646$306                   scene_manager
     0000194F  A$lcc2145646$307                   scene_manager
     00001951  A$lcc2145646$308                   scene_manager
     00001952  A$lcc2145646$309                   scene_manager
     00001953  A$lcc2145646$310                   scene_manager
     00001954  A$lcc2145646$314                   scene_manager
     00001954  C$scene_manager.c$58$1_1$160       scene_manager
     00001957  A$lcc2145646$318                   scene_manager
     00001957  C$scene_manager.c$60$2_1$161       scene_manager
     00001959  A$lcc2145646$319                   scene_manager
     0000195A  A$lcc2145646$320                   scene_manager
     0000195C  A$lcc2145646$324                   scene_manager
     0000195C  C$scene_manager.c$61$2_1$161       scene_manager
     0000195D  A$lcc2145646$325                   scene_manager
     0000195F  A$lcc2145646$326                   scene_manager
     00001962  A$lcc2145646$327                   scene_manager
     00001963  A$lcc2145646$335                   scene_manager
     00001963  C$scene_manager.c$63$1_1$160       scene_manager
     00001963  C$scene_manager.c$64$1_1$160       scene_manager
     00001964  A$lcc2145646$336                   scene_manager
     00001967  A$lcc2145646$337                   scene_manager
     0000196A  A$lcc2145646$341                   scene_manager
     0000196A  C$scene_manager.c$66$1_1$160       scene_manager
     0000196B  A$lcc2145646$342                   scene_manager
     0000196E  A$lcc2145646$347                   scene_manager
     00001970  A$lcc2145646$352                   scene_manager
     00001970  C$scene_manager.c$67$1_1$157       scene_manager
     00001970  XG$SceneManager_ChangeScene$0$0    scene_manager
     00001971  A$lcc2145648$61                    gender_select
     00001971  C$gender_select.c$6$0_0$30         gender_select
     00001971  C$gender_select.c$8$1_0$30         gender_select
     00001971  G$GenderSelect_Create$0$0          gender_select
     00001971  _GenderSelect_Create               gender_select
     00001974  A$lcc2145648$62                    gender_select
     00001976  A$lcc2145648$63                    gender_select
     00001977  A$lcc2145648$64                    gender_select
     00001979  A$lcc2145648$68                    gender_select
     00001979  C$gender_select.c$9$1_0$30         gender_select
     0000197A  A$lcc2145648$69                    gender_select
     0000197C  A$lcc2145648$70                    gender_select
ASxxxx Linker V03.00/V05.40 + sdld,  page 69.
Hexadecimal  [32-Bits]

Area                                    Addr        Size        Decimal Bytes (Attributes)
--------------------------------        ----        ----        ------- ----- ------------
_CODE                               00000200    00002A48 =       10824. bytes (REL,CON)

      Value  Global                              Global Defined In Module
      -----  --------------------------------   ------------------------
     0000197D  A$lcc2145648$71                    gender_select
     0000197F  A$lcc2145648$75                    gender_select
     0000197F  C$gender_select.c$11$1_0$30        gender_select
     00001982  A$lcc2145648$76                    gender_select
     00001983  A$lcc2145648$77                    gender_select
     00001984  A$lcc2145648$78                    gender_select
     00001985  A$lcc2145648$86                    gender_select
     00001985  C$gender_select.c$12$1_0$30        gender_select
     00001985  XG$GenderSelect_Create$0$0         gender_select
     00001986  A$lcc2145649$58                    gender_select_init
     00001986  C$gender_select_init.c$11$1_0$15   gender_select_init
     00001986  C$gender_select_init.c$9$0_0$155   gender_select_init
     00001986  G$GenderSelect_Init$0$0            gender_select_init
     00001986  _GenderSelect_Init                 gender_select_init
     00001987  A$lcc2145649$59                    gender_select_init
     0000198A  A$lcc2145649$60                    gender_select_init
     0000198D  A$lcc2145649$61                    gender_select_init
     0000198E  A$lcc2145649$62                    gender_select_init
     0000198F  A$lcc2145649$63                    gender_select_init
     00001990  A$lcc2145649$67                    gender_select_init
     00001990  C$gender_select_init.c$12$2_0$15   gender_select_init
     00001991  A$lcc2145649$68                    gender_select_init
     00001992  A$lcc2145649$72                    gender_select_init
     00001992  C$gender_select_init.c$13$2_0$15   gender_select_init
     00001993  A$lcc2145649$76                    gender_select_init
     00001993  C$gender_select_init.c$15$1_0$15   gender_select_init
     00001994  A$lcc2145649$77                    gender_select_init
     00001995  A$lcc2145649$81                    gender_select_init
     00001995  C$gender_select_init.c$16$1_0$15   gender_select_init
     00001998  A$lcc2145649$82                    gender_select_init
     00001999  A$lcc2145649$83                    gender_select_init
     0000199A  A$lcc2145649$84                    gender_select_init
     0000199B  A$lcc2145649$85                    gender_select_init
     0000199C  A$lcc2145649$89                    gender_select_init
     0000199C  C$gender_select_init.c$18$1_0$15   gender_select_init
     0000199F  A$lcc2145649$90                    gender_select_init
     000019A0  A$lcc2145649$91                    gender_select_init
     000019A3  A$lcc2145649$92                    gender_select_init
     000019A4  A$lcc2145649$93                    gender_select_init
     000019A7  A$lcc2145649$94                    gender_select_init
     000019A9  A$lcc2145649$98                    gender_select_init
     000019A9  C$gender_select_init.c$19$1_0$15   gender_select_init
     000019AC  A$lcc2145649$99                    gender_select_init
     000019AD  A$lcc2145649$100                   gender_select_init
     000019B0  A$lcc2145649$101                   gender_select_init
     000019B1  A$lcc2145649$102                   gender_select_init
     000019B2  A$lcc2145649$103                   gender_select_init
     000019B3  A$lcc2145649$104                   gender_select_init
     000019B4  A$lcc2145649$105                   gender_select_init
     000019B7  A$lcc2145649$106                   gender_select_init
     000019B9  A$lcc2145649$114                   gender_select_init
ASxxxx Linker V03.00/V05.40 + sdld,  page 70.
Hexadecimal  [32-Bits]

Area                                    Addr        Size        Decimal Bytes (Attributes)
--------------------------------        ----        ----        ------- ----- ------------
_CODE                               00000200    00002A48 =       10824. bytes (REL,CON)

      Value  Global                              Global Defined In Module
      -----  --------------------------------   ------------------------
     000019B9  C$gender_select_init.c$20$1_0$15   gender_select_init
     000019B9  XG$GenderSelect_Init$0$0           gender_select_init
     000019BA  A$lcc2145650$62                    gender_select_update
     000019BA  C$gender_select_update.c$6$0_0$1   gender_select_update
     000019BA  C$gender_select_update.c$8$1_0$1   gender_select_update
     000019BA  C$gender_select_update.c$9$1_0$1   gender_select_update
     000019BA  G$GenderSelect_Update$0$0          gender_select_update
     000019BA  XG$GenderSelect_Update$0$0         gender_select_update
     000019BA  _GenderSelect_Update               gender_select_update
     000019BB  A$lcc2145651$61                    inventory_scene
     000019BB  C$inventory_scene.c$6$0_0$11       inventory_scene
     000019BB  C$inventory_scene.c$7$1_0$11       inventory_scene
     000019BB  G$InventoryScene_Create$0$0        inventory_scene
     000019BB  _InventoryScene_Create             inventory_scene
     000019BE  A$lcc2145651$62                    inventory_scene
     000019C0  A$lcc2145651$63                    inventory_scene
     000019C1  A$lcc2145651$64                    inventory_scene
     000019C3  A$lcc2145651$68                    inventory_scene
     000019C3  C$inventory_scene.c$8$1_0$11       inventory_scene
     000019C4  A$lcc2145651$69                    inventory_scene
     000019C6  A$lcc2145651$70                    inventory_scene
     000019C7  A$lcc2145651$71                    inventory_scene
     000019C9  A$lcc2145651$75                    inventory_scene
     000019C9  C$inventory_scene.c$9$1_0$11       inventory_scene
     000019CC  A$lcc2145651$76                    inventory_scene
     000019CE  A$lcc2145651$84                    inventory_scene
     000019CE  C$inventory_scene.c$10$1_0$11      inventory_scene
     000019CE  XG$InventoryScene_Create$0$0       inventory_scene
     000019CF  A$lcc2145652$56                    inventory_scene_init
     000019CF  C$inventory_scene_init.c$12$0_0$   inventory_scene_init
     000019CF  G$InventoryScene_DrawCoins$0$0     inventory_scene_init
     000019CF  _InventoryScene_DrawCoins          inventory_scene_init
     000019D1  A$lcc2145652$60                    inventory_scene_init
     000019D1  C$inventory_scene_init.c$13$1_0$   inventory_scene_init
     000019D4  A$lcc2145652$61                    inventory_scene_init
     000019D6  A$lcc2145652$62                    inventory_scene_init
     000019D7  A$lcc2145652$63                    inventory_scene_init
     000019DA  A$lcc2145652$64                    inventory_scene_init
     000019DC  A$lcc2145652$65                    inventory_scene_init
     000019DD  A$lcc2145652$66                    inventory_scene_init
     000019E0  A$lcc2145652$67                    inventory_scene_init
     000019E1  A$lcc2145652$68                    inventory_scene_init
     000019E2  A$lcc2145652$69                    inventory_scene_init
     000019E3  A$lcc2145652$70                    inventory_scene_init
     000019E6  A$lcc2145652$71                    inventory_scene_init
     000019E7  A$lcc2145652$72                    inventory_scene_init
     000019E9  A$lcc2145652$73                    inventory_scene_init
     000019EC  A$lcc2145652$74                    inventory_scene_init
     000019ED  A$lcc2145652$75                    inventory_scene_init
     000019EF  A$lcc2145652$76                    inventory_scene_init
     000019F1  A$lcc2145652$77                    inventory_scene_init
ASxxxx Linker V03.00/V05.40 + sdld,  page 71.
Hexadecimal  [32-Bits]

Area                                    Addr        Size        Decimal Bytes (Attributes)
--------------------------------        ----        ----        ------- ----- ------------
_CODE                               00000200    00002A48 =       10824. bytes (REL,CON)

      Value  Global                              Global Defined In Module
      -----  --------------------------------   ------------------------
     000019F2  A$lcc2145652$81                    inventory_scene_init
     000019F2  C$inventory_scene_init.c$14$1_0$   inventory_scene_init
     000019F5  A$lcc2145652$82                    inventory_scene_init
     000019F7  A$lcc2145652$83                    inventory_scene_init
     000019F8  A$lcc2145652$84                    inventory_scene_init
     000019F9  A$lcc2145652$85                    inventory_scene_init
     000019FA  A$lcc2145652$86                    inventory_scene_init
     000019FD  A$lcc2145652$87                    inventory_scene_init
     000019FE  A$lcc2145652$88                    inventory_scene_init
     000019FF  A$lcc2145652$89                    inventory_scene_init
     00001A02  A$lcc2145652$90                    inventory_scene_init
     00001A05  A$lcc2145652$91                    inventory_scene_init
     00001A06  A$lcc2145652$92                    inventory_scene_init
     00001A08  A$lcc2145652$93                    inventory_scene_init
     00001A0A  A$lcc2145652$94                    inventory_scene_init
     00001A0B  A$lcc2145652$98                    inventory_scene_init
     00001A0B  C$inventory_scene_init.c$15$1_0$   inventory_scene_init
     00001A0E  A$lcc2145652$99                    inventory_scene_init
     00001A10  A$lcc2145652$100                   inventory_scene_init
     00001A11  A$lcc2145652$101                   inventory_scene_init
     00001A12  A$lcc2145652$102                   inventory_scene_init
     00001A13  A$lcc2145652$103                   inventory_scene_init
     00001A16  A$lcc2145652$104                   inventory_scene_init
     00001A17  A$lcc2145652$105                   inventory_scene_init
     00001A18  A$lcc2145652$106                   inventory_scene_init
     00001A1B  A$lcc2145652$107                   inventory_scene_init
     00001A1E  A$lcc2145652$108                   inventory_scene_init
     00001A1F  A$lcc2145652$109                   inventory_scene_init
     00001A21  A$lcc2145652$110                   inventory_scene_init
     00001A23  A$lcc2145652$114                   inventory_scene_init
     00001A23  C$inventory_scene_init.c$16$1_0$   inventory_scene_init
     00001A24  A$lcc2145652$115                   inventory_scene_init
     00001A25  A$lcc2145652$116                   inventory_scene_init
     00001A28  A$lcc2145652$117                   inventory_scene_init
     00001A29  A$lcc2145652$118                   inventory_scene_init
     00001A2A  A$lcc2145652$119                   inventory_scene_init
     00001A2B  A$lcc2145652$120                   inventory_scene_init
     00001A2E  A$lcc2145652$121                   inventory_scene_init
     00001A2F  A$lcc2145652$122                   inventory_scene_init
     00001A31  A$lcc2145652$123                   inventory_scene_init
     00001A33  A$lcc2145652$124                   inventory_scene_init
     00001A34  A$lcc2145652$128                   inventory_scene_init
     00001A34  C$inventory_scene_init.c$19$1_0$   inventory_scene_init
     00001A36  A$lcc2145652$132                   inventory_scene_init
     00001A36  C$inventory_scene_init.c$18$1_0$   inventory_scene_init
     00001A37  A$lcc2145652$133                   inventory_scene_init
     00001A3A  A$lcc2145652$134                   inventory_scene_init
     00001A3B  A$lcc2145652$135                   inventory_scene_init
     00001A3E  A$lcc2145652$136                   inventory_scene_init
     00001A3F  A$lcc2145652$137                   inventory_scene_init
     00001A42  A$lcc2145652$138                   inventory_scene_init
ASxxxx Linker V03.00/V05.40 + sdld,  page 72.
Hexadecimal  [32-Bits]

Area                                    Addr        Size        Decimal Bytes (Attributes)
--------------------------------        ----        ----        ------- ----- ------------
_CODE                               00000200    00002A48 =       10824. bytes (REL,CON)

      Value  Global                              Global Defined In Module
      -----  --------------------------------   ------------------------
     00001A44  A$lcc2145652$142                   inventory_scene_init
     00001A44  C$inventory_scene_init.c$21$1_0$   inventory_scene_init
     00001A46  A$lcc2145652$146                   inventory_scene_init
     00001A46  C$inventory_scene_init.c$20$1_0$   inventory_scene_init
     00001A47  A$lcc2145652$147                   inventory_scene_init
     00001A4A  A$lcc2145652$148                   inventory_scene_init
     00001A4B  A$lcc2145652$149                   inventory_scene_init
     00001A4E  A$lcc2145652$150                   inventory_scene_init
     00001A4F  A$lcc2145652$151                   inventory_scene_init
     00001A52  A$lcc2145652$152                   inventory_scene_init
     00001A54  A$lcc2145652$156                   inventory_scene_init
     00001A54  C$inventory_scene_init.c$23$1_0$   inventory_scene_init
     00001A56  A$lcc2145652$160                   inventory_scene_init
     00001A56  C$inventory_scene_init.c$22$1_0$   inventory_scene_init
     00001A57  A$lcc2145652$161                   inventory_scene_init
     00001A5A  A$lcc2145652$162                   inventory_scene_init
     00001A5B  A$lcc2145652$163                   inventory_scene_init
     00001A5E  A$lcc2145652$164                   inventory_scene_init
     00001A5F  A$lcc2145652$165                   inventory_scene_init
     00001A62  A$lcc2145652$166                   inventory_scene_init
     00001A64  A$lcc2145652$170                   inventory_scene_init
     00001A64  C$inventory_scene_init.c$25$1_0$   inventory_scene_init
     00001A66  A$lcc2145652$171                   inventory_scene_init
     00001A67  A$lcc2145652$172                   inventory_scene_init
     00001A68  A$lcc2145652$176                   inventory_scene_init
     00001A68  C$inventory_scene_init.c$24$1_0$   inventory_scene_init
     00001A69  A$lcc2145652$177                   inventory_scene_init
     00001A6C  A$lcc2145652$178                   inventory_scene_init
     00001A6D  A$lcc2145652$179                   inventory_scene_init
     00001A70  A$lcc2145652$180                   inventory_scene_init
     00001A71  A$lcc2145652$181                   inventory_scene_init
     00001A74  A$lcc2145652$185                   inventory_scene_init
     00001A76  A$lcc2145652$190                   inventory_scene_init
     00001A76  C$inventory_scene_init.c$26$1_0$   inventory_scene_init
     00001A76  XG$InventoryScene_DrawCoins$0$0    inventory_scene_init
     00001A77  A$lcc2145652$200                   inventory_scene_init
     00001A77  C$inventory_scene_init.c$28$1_0$   inventory_scene_init
     00001A77  G$InventoryScene_Init$0$0          inventory_scene_init
     00001A77  _InventoryScene_Init               inventory_scene_init
     00001A78  A$lcc2145652$204                   inventory_scene_init
     00001A78  C$inventory_scene_init.c$29$1_0$   inventory_scene_init
     00001A7B  A$lcc2145652$205                   inventory_scene_init
     00001A7C  A$lcc2145652$206                   inventory_scene_init
     00001A7D  A$lcc2145652$207                   inventory_scene_init
     00001A7E  A$lcc2145652$208                   inventory_scene_init
     00001A7F  A$lcc2145652$212                   inventory_scene_init
     00001A7F  C$inventory_scene_init.c$30$1_0$   inventory_scene_init
     00001A82  A$lcc2145652$216                   inventory_scene_init
     00001A82  C$inventory_scene_init.c$32$2_0$   inventory_scene_init
     00001A84  A$lcc2145652$217                   inventory_scene_init
     00001A86  A$lcc2145652$221                   inventory_scene_init
ASxxxx Linker V03.00/V05.40 + sdld,  page 73.
Hexadecimal  [32-Bits]

Area                                    Addr        Size        Decimal Bytes (Attributes)
--------------------------------        ----        ----        ------- ----- ------------
_CODE                               00000200    00002A48 =       10824. bytes (REL,CON)

      Value  Global                              Global Defined In Module
      -----  --------------------------------   ------------------------
     00001A86  C$inventory_scene_init.c$34$1_1$   inventory_scene_init
     00001A89  A$lcc2145652$222                   inventory_scene_init
     00001A8A  A$lcc2145652$223                   inventory_scene_init
     00001A8D  A$lcc2145652$224                   inventory_scene_init
     00001A8E  A$lcc2145652$225                   inventory_scene_init
     00001A91  A$lcc2145652$226                   inventory_scene_init
     00001A93  A$lcc2145652$230                   inventory_scene_init
     00001A93  C$inventory_scene_init.c$35$1_1$   inventory_scene_init
     00001A96  A$lcc2145652$231                   inventory_scene_init
     00001A97  A$lcc2145652$232                   inventory_scene_init
     00001A9A  A$lcc2145652$233                   inventory_scene_init
     00001A9B  A$lcc2145652$234                   inventory_scene_init
     00001A9C  A$lcc2145652$235                   inventory_scene_init
     00001A9D  A$lcc2145652$236                   inventory_scene_init
     00001A9E  A$lcc2145652$237                   inventory_scene_init
     00001AA1  A$lcc2145652$238                   inventory_scene_init
     00001AA3  A$lcc2145652$242                   inventory_scene_init
     00001AA3  C$inventory_scene_init.c$37$3_1$   inventory_scene_init
     00001AA5  A$lcc2145652$244                   inventory_scene_init
     00001AA6  A$lcc2145652$245                   inventory_scene_init
     00001AA8  A$lcc2145652$246                   inventory_scene_init
     00001AAA  A$lcc2145652$250                   inventory_scene_init
     00001AAA  C$inventory_scene_init.c$38$4_1$   inventory_scene_init
     00001AAB  A$lcc2145652$251                   inventory_scene_init
     00001AAC  A$lcc2145652$252                   inventory_scene_init
     00001AAD  A$lcc2145652$253                   inventory_scene_init
     00001AAE  A$lcc2145652$254                   inventory_scene_init
     00001AB1  A$lcc2145652$255                   inventory_scene_init
     00001AB2  A$lcc2145652$256                   inventory_scene_init
     00001AB3  A$lcc2145652$257                   inventory_scene_init
     00001AB4  A$lcc2145652$258                   inventory_scene_init
     00001AB5  A$lcc2145652$259                   inventory_scene_init
     00001AB7  A$lcc2145652$263                   inventory_scene_init
     00001AB7  C$inventory_scene_init.c$41$3_1$   inventory_scene_init
     00001ABA  A$lcc2145652$264                   inventory_scene_init
     00001ABB  A$lcc2145652$265                   inventory_scene_init
     00001ABE  A$lcc2145652$266                   inventory_scene_init
     00001ABF  A$lcc2145652$267                   inventory_scene_init
     00001AC2  A$lcc2145652$268                   inventory_scene_init
     00001AC4  A$lcc2145652$272                   inventory_scene_init
     00001AC4  C$inventory_scene_init.c$42$3_1$   inventory_scene_init
     00001AC6  A$lcc2145652$273                   inventory_scene_init
     00001AC7  A$lcc2145652$274                   inventory_scene_init
     00001ACA  A$lcc2145652$275                   inventory_scene_init
     00001ACB  A$lcc2145652$276                   inventory_scene_init
     00001ACE  A$lcc2145652$277                   inventory_scene_init
     00001ACF  A$lcc2145652$278                   inventory_scene_init
     00001AD2  A$lcc2145652$279                   inventory_scene_init
     00001AD4  A$lcc2145652$284                   inventory_scene_init
     00001AD4  C$inventory_scene_init.c$37$2_1$   inventory_scene_init
     00001AD5  A$lcc2145652$285                   inventory_scene_init
ASxxxx Linker V03.00/V05.40 + sdld,  page 74.
Hexadecimal  [32-Bits]

Area                                    Addr        Size        Decimal Bytes (Attributes)
--------------------------------        ----        ----        ------- ----- ------------
_CODE                               00000200    00002A48 =       10824. bytes (REL,CON)

      Value  Global                              Global Defined In Module
      -----  --------------------------------   ------------------------
     00001AD7  A$lcc2145652$290                   inventory_scene_init
     00001AD7  C$inventory_scene_init.c$45$1_1$   inventory_scene_init
     00001ADA  A$lcc2145652$294                   inventory_scene_init
     00001ADB  A$lcc2145652$299                   inventory_scene_init
     00001ADB  C$inventory_scene_init.c$46$1_1$   inventory_scene_init
     00001ADB  XG$InventoryScene_Init$0$0         inventory_scene_init
     00001ADC  A$lcc2145653$57                    inventory_scene_update
     00001ADC  C$inventory_scene_update.c$8$0_0   inventory_scene_update
     00001ADC  C$inventory_scene_update.c$9$1_0   inventory_scene_update
     00001ADC  G$InventoryScene_Update$0$0        inventory_scene_update
     00001ADC  _InventoryScene_Update             inventory_scene_update
     00001ADF  A$lcc2145653$58                    inventory_scene_update
     00001AE2  A$lcc2145653$69                    inventory_scene_update
     00001AE2  C$inventory_scene_update.c$10$1_   inventory_scene_update
     00001AE2  C$inventory_scene_update.c$11$1_   inventory_scene_update
     00001AE2  XG$InventoryScene_Update$0$0       inventory_scene_update
     00001AE5  A$lcc2145654$73                    main_menu
     00001AE5  C$main_menu.c$11$1_0$31            main_menu
     00001AE5  C$main_menu.c$9$0_0$31             main_menu
     00001AE5  G$MainMenu_Create$0$0              main_menu
     00001AE5  _MainMenu_Create                   main_menu
     00001AE8  A$lcc2145654$74                    main_menu
     00001AEA  A$lcc2145654$75                    main_menu
     00001AEB  A$lcc2145654$76                    main_menu
     00001AED  A$lcc2145654$80                    main_menu
     00001AED  C$main_menu.c$12$1_0$31            main_menu
     00001AEE  A$lcc2145654$81                    main_menu
     00001AF0  A$lcc2145654$82                    main_menu
     00001AF1  A$lcc2145654$83                    main_menu
     00001AF3  A$lcc2145654$87                    main_menu
     00001AF3  C$main_menu.c$13$1_0$31            main_menu
     00001AF6  A$lcc2145654$88                    main_menu
     00001AF8  A$lcc2145654$92                    main_menu
     00001AF8  C$main_menu.c$15$1_0$31            main_menu
     00001AFB  A$lcc2145654$93                    main_menu
     00001AFC  A$lcc2145654$94                    main_menu
     00001AFD  A$lcc2145654$95                    main_menu
     00001AFE  A$lcc2145654$103                   main_menu
     00001AFE  C$main_menu.c$16$1_0$31            main_menu
     00001AFE  XG$MainMenu_Create$0$0             main_menu
     00001AFF  A$lcc2145655$57                    main_menu_init
     00001AFF  C$main_menu_init.c$10$1_0$167      main_menu_init
     00001AFF  C$main_menu_init.c$8$0_0$167       main_menu_init
     00001AFF  G$MainMenu_Init$0$0                main_menu_init
     00001AFF  _MainMenu_Init                     main_menu_init
     00001B02  A$lcc2145655$58                    main_menu_init
     00001B03  A$lcc2145655$59                    main_menu_init
     00001B04  A$lcc2145655$60                    main_menu_init
     00001B05  A$lcc2145655$61                    main_menu_init
     00001B06  A$lcc2145655$65                    main_menu_init
     00001B06  C$main_menu_init.c$12$2_0$168      main_menu_init
ASxxxx Linker V03.00/V05.40 + sdld,  page 75.
Hexadecimal  [32-Bits]

Area                                    Addr        Size        Decimal Bytes (Attributes)
--------------------------------        ----        ----        ------- ----- ------------
_CODE                               00000200    00002A48 =       10824. bytes (REL,CON)

      Value  Global                              Global Defined In Module
      -----  --------------------------------   ------------------------
     00001B08  A$lcc2145655$66                    main_menu_init
     00001B09  A$lcc2145655$70                    main_menu_init
     00001B09  C$main_menu_init.c$13$1_1$168      main_menu_init
     00001B0B  A$lcc2145655$71                    main_menu_init
     00001B0D  A$lcc2145655$72                    main_menu_init
     00001B10  A$lcc2145655$73                    main_menu_init
     00001B12  A$lcc2145655$77                    main_menu_init
     00001B12  C$main_menu_init.c$15$1_1$168      main_menu_init
     00001B15  A$lcc2145655$78                    main_menu_init
     00001B16  A$lcc2145655$79                    main_menu_init
     00001B19  A$lcc2145655$80                    main_menu_init
     00001B1A  A$lcc2145655$81                    main_menu_init
     00001B1D  A$lcc2145655$82                    main_menu_init
     00001B1F  A$lcc2145655$86                    main_menu_init
     00001B1F  C$main_menu_init.c$16$1_1$168      main_menu_init
     00001B22  A$lcc2145655$87                    main_menu_init
     00001B23  A$lcc2145655$88                    main_menu_init
     00001B26  A$lcc2145655$89                    main_menu_init
     00001B27  A$lcc2145655$90                    main_menu_init
     00001B28  A$lcc2145655$91                    main_menu_init
     00001B29  A$lcc2145655$92                    main_menu_init
     00001B2A  A$lcc2145655$93                    main_menu_init
     00001B2D  A$lcc2145655$94                    main_menu_init
     00001B2F  A$lcc2145655$98                    main_menu_init
     00001B2F  C$main_menu_init.c$18$1_1$168      main_menu_init
     00001B30  A$lcc2145655$99                    main_menu_init
     00001B32  A$lcc2145655$100                   main_menu_init
     00001B35  A$lcc2145655$101                   main_menu_init
     00001B36  A$lcc2145655$109                   main_menu_init
     00001B36  C$main_menu_init.c$19$1_1$167      main_menu_init
     00001B36  XG$MainMenu_Init$0$0               main_menu_init
     00001B37  A$lcc2145656$59                    main_menu_init_stats
     00001B37  C$main_menu_init_stats.c$3$0_0$3   main_menu_init_stats
     00001B37  C$main_menu_init_stats.c$5$0_0$3   main_menu_init_stats
     00001B37  G$MainMenu_InitRandomStats$0$0     main_menu_init_stats
     00001B37  XG$MainMenu_InitRandomStats$0$0    main_menu_init_stats
     00001B37  _MainMenu_InitRandomStats          main_menu_init_stats
     00001B38  A$lcc2145657$53                    main_menu_input
     00001B38  C$main_menu_input.c$12$0_0$173     main_menu_input
     00001B38  G$MainMenu_CheckInput$0$0          main_menu_input
     00001B38  _MainMenu_CheckInput               main_menu_input
     00001B39  A$lcc2145657$57                    main_menu_input
     00001B39  C$main_menu_input.c$13$2_0$173     main_menu_input
     00001B3C  A$lcc2145657$58                    main_menu_input
     00001B3D  A$lcc2145657$59                    main_menu_input
     00001B3F  A$lcc2145657$60                    main_menu_input
     00001B42  A$lcc2145657$61                    main_menu_input
     00001B43  A$lcc2145657$62                    main_menu_input
     00001B45  A$lcc2145657$66                    main_menu_input
     00001B45  C$main_menu_input.c$14$3_0$174     main_menu_input
     00001B47  A$lcc2145657$67                    main_menu_input
ASxxxx Linker V03.00/V05.40 + sdld,  page 76.
Hexadecimal  [32-Bits]

Area                                    Addr        Size        Decimal Bytes (Attributes)
--------------------------------        ----        ----        ------- ----- ------------
_CODE                               00000200    00002A48 =       10824. bytes (REL,CON)

      Value  Global                              Global Defined In Module
      -----  --------------------------------   ------------------------
     00001B4A  A$lcc2145657$68                    main_menu_input
     00001B4B  A$lcc2145657$69                    main_menu_input
     00001B4D  A$lcc2145657$73                    main_menu_input
     00001B4D  C$main_menu_input.c$15$3_0$174     main_menu_input
     00001B4F  A$lcc2145657$74                    main_menu_input
     00001B50  A$lcc2145657$75                    main_menu_input
     00001B51  A$lcc2145657$79                    main_menu_input
     00001B51  C$main_menu_input.c$17$5_0$176     main_menu_input
     00001B53  A$lcc2145657$80                    main_menu_input
     00001B55  A$lcc2145657$82                    main_menu_input
     00001B57  A$lcc2145657$83                    main_menu_input
     00001B58  A$lcc2145657$84                    main_menu_input
     00001B5A  A$lcc2145657$85                    main_menu_input
     00001B5C  A$lcc2145657$89                    main_menu_input
     00001B5C  C$main_menu_input.c$18$5_0$176     main_menu_input
     00001B5F  A$lcc2145657$90                    main_menu_input
     00001B60  A$lcc2145657$91                    main_menu_input
     00001B62  A$lcc2145657$92                    main_menu_input
     00001B63  A$lcc2145657$93                    main_menu_input
     00001B64  A$lcc2145657$94                    main_menu_input
     00001B67  A$lcc2145657$95                    main_menu_input
     00001B68  A$lcc2145657$96                    main_menu_input
     00001B69  A$lcc2145657$97                    main_menu_input
     00001B6C  A$lcc2145657$98                    main_menu_input
     00001B6D  A$lcc2145657$99                    main_menu_input
     00001B6E  A$lcc2145657$100                   main_menu_input
     00001B71  A$lcc2145657$101                   main_menu_input
     00001B72  A$lcc2145657$102                   main_menu_input
     00001B73  A$lcc2145657$103                   main_menu_input
     00001B74  A$lcc2145657$107                   main_menu_input
     00001B74  C$main_menu_input.c$17$4_0$175     main_menu_input
     00001B76  A$lcc2145657$108                   main_menu_input
     00001B77  A$lcc2145657$109                   main_menu_input
     00001B79  A$lcc2145657$114                   main_menu_input
     00001B79  C$main_menu_input.c$21$3_0$174     main_menu_input
     00001B7C  A$lcc2145657$115                   main_menu_input
     00001B7D  A$lcc2145657$116                   main_menu_input
     00001B7E  A$lcc2145657$117                   main_menu_input
     00001B7F  A$lcc2145657$118                   main_menu_input
     00001B82  A$lcc2145657$119                   main_menu_input
     00001B84  A$lcc2145657$120                   main_menu_input
     00001B85  A$lcc2145657$121                   main_menu_input
     00001B87  A$lcc2145657$122                   main_menu_input
     00001B88  A$lcc2145657$123                   main_menu_input
     00001B89  A$lcc2145657$124                   main_menu_input
     00001B8A  A$lcc2145657$125                   main_menu_input
     00001B8B  A$lcc2145657$130                   main_menu_input
     00001B8C  A$lcc2145657$135                   main_menu_input
     00001B8C  C$main_menu_input.c$23$2_0$173     main_menu_input
     00001B8C  XG$MainMenu_CheckInput$0$0         main_menu_input
     00001B8D  A$lcc2145658$55                    main_menu_update
ASxxxx Linker V03.00/V05.40 + sdld,  page 77.
Hexadecimal  [32-Bits]

Area                                    Addr        Size        Decimal Bytes (Attributes)
--------------------------------        ----        ----        ------- ----- ------------
_CODE                               00000200    00002A48 =       10824. bytes (REL,CON)

      Value  Global                              Global Defined In Module
      -----  --------------------------------   ------------------------
     00001B8D  C$main_menu_update.c$7$0_0$157     main_menu_update
     00001B8D  G$MainMenu_Update$0$0              main_menu_update
     00001B8D  _MainMenu_Update                   main_menu_update
     00001B8F  A$lcc2145658$59                    main_menu_update
     00001B8F  C$main_menu_update.c$9$1_0$157     main_menu_update
     00001B92  A$lcc2145658$60                    main_menu_update
     00001B93  A$lcc2145658$61                    main_menu_update
     00001B95  A$lcc2145658$62                    main_menu_update
     00001B96  A$lcc2145658$63                    main_menu_update
     00001B97  A$lcc2145658$68                    main_menu_update
     00001B97  C$main_menu_update.c$10$1_0$157    main_menu_update
     00001B9A  A$lcc2145658$72                    main_menu_update
     00001B9A  C$main_menu_update.c$12$2_0$158    main_menu_update
     00001B9D  A$lcc2145658$73                    main_menu_update
     00001B9E  A$lcc2145658$74                    main_menu_update
     00001BA0  A$lcc2145658$75                    main_menu_update
     00001BA3  A$lcc2145658$76                    main_menu_update
     00001BA4  A$lcc2145658$77                    main_menu_update
     00001BA5  A$lcc2145658$78                    main_menu_update
     00001BA6  A$lcc2145658$79                    main_menu_update
     00001BA7  A$lcc2145658$80                    main_menu_update
     00001BAA  A$lcc2145658$84                    main_menu_update
     00001BAA  C$main_menu_update.c$14$3_0$159    main_menu_update
     00001BAB  A$lcc2145658$85                    main_menu_update
     00001BAC  A$lcc2145658$86                    main_menu_update
     00001BAD  A$lcc2145658$87                    main_menu_update
     00001BAE  A$lcc2145658$91                    main_menu_update
     00001BAE  C$main_menu_update.c$16$4_0$160    main_menu_update
     00001BB1  A$lcc2145658$95                    main_menu_update
     00001BB1  C$main_menu_update.c$18$5_0$161    main_menu_update
     00001BB2  A$lcc2145658$96                    main_menu_update
     00001BB4  A$lcc2145658$97                    main_menu_update
     00001BB7  A$lcc2145658$101                   main_menu_update
     00001BB7  C$main_menu_update.c$20$6_0$163    main_menu_update
     00001BB9  A$lcc2145658$102                   main_menu_update
     00001BBB  A$lcc2145658$106                   main_menu_update
     00001BBB  C$main_menu_update.c$21$2_0$157    main_menu_update
     00001BBD  A$lcc2145658$108                   main_menu_update
     00001BBE  A$lcc2145658$109                   main_menu_update
     00001BC0  A$lcc2145658$110                   main_menu_update
     00001BC2  A$lcc2145658$114                   main_menu_update
     00001BC2  C$main_menu_update.c$23$7_1$164    main_menu_update
     00001BC3  A$lcc2145658$115                   main_menu_update
     00001BC6  A$lcc2145658$116                   main_menu_update
     00001BC7  A$lcc2145658$117                   main_menu_update
     00001BC8  A$lcc2145658$118                   main_menu_update
     00001BCB  A$lcc2145658$119                   main_menu_update
     00001BCC  A$lcc2145658$120                   main_menu_update
     00001BCE  A$lcc2145658$121                   main_menu_update
     00001BCF  A$lcc2145658$122                   main_menu_update
     00001BD0  A$lcc2145658$123                   main_menu_update
ASxxxx Linker V03.00/V05.40 + sdld,  page 78.
Hexadecimal  [32-Bits]

Area                                    Addr        Size        Decimal Bytes (Attributes)
--------------------------------        ----        ----        ------- ----- ------------
_CODE                               00000200    00002A48 =       10824. bytes (REL,CON)

      Value  Global                              Global Defined In Module
      -----  --------------------------------   ------------------------
     00001BD1  A$lcc2145658$124                   main_menu_update
     00001BD2  A$lcc2145658$125                   main_menu_update
     00001BD5  A$lcc2145658$126                   main_menu_update
     00001BD7  A$lcc2145658$130                   main_menu_update
     00001BD7  C$main_menu_update.c$21$6_1$163    main_menu_update
     00001BD8  A$lcc2145658$131                   main_menu_update
     00001BDA  A$lcc2145658$136                   main_menu_update
     00001BDA  C$main_menu_update.c$28$5_0$165    main_menu_update
     00001BDD  A$lcc2145658$137                   main_menu_update
     00001BDF  A$lcc2145658$141                   main_menu_update
     00001BDF  C$main_menu_update.c$30$6_0$167    main_menu_update
     00001BE1  A$lcc2145658$142                   main_menu_update
     00001BE3  A$lcc2145658$143                   main_menu_update
     00001BE4  A$lcc2145658$144                   main_menu_update
     00001BE6  A$lcc2145658$145                   main_menu_update
     00001BE7  A$lcc2145658$146                   main_menu_update
     00001BE9  A$lcc2145658$147                   main_menu_update
     00001BEA  A$lcc2145658$148                   main_menu_update
     00001BEC  A$lcc2145658$149                   main_menu_update
     00001BED  A$lcc2145658$150                   main_menu_update
     00001BEE  A$lcc2145658$151                   main_menu_update
     00001BF0  A$lcc2145658$152                   main_menu_update
     00001BF1  A$lcc2145658$153                   main_menu_update
     00001BF2  A$lcc2145658$154                   main_menu_update
     00001BF4  A$lcc2145658$155                   main_menu_update
     00001BF5  A$lcc2145658$156                   main_menu_update
     00001BF7  A$lcc2145658$157                   main_menu_update
     00001BF8  A$lcc2145658$158                   main_menu_update
     00001BFA  A$lcc2145658$159                   main_menu_update
     00001BFB  A$lcc2145658$160                   main_menu_update
     00001BFD  A$lcc2145658$161                   main_menu_update
     00001BFE  A$lcc2145658$162                   main_menu_update
     00001C00  A$lcc2145658$163                   main_menu_update
     00001C01  A$lcc2145658$167                   main_menu_update
     00001C01  C$main_menu_update.c$33$2_0$157    main_menu_update
     00001C04  A$lcc2145658$168                   main_menu_update
     00001C05  A$lcc2145658$170                   main_menu_update
     00001C06  A$lcc2145658$171                   main_menu_update
     00001C08  A$lcc2145658$172                   main_menu_update
     00001C0A  A$lcc2145658$176                   main_menu_update
     00001C0A  C$main_menu_update.c$35$7_1$168    main_menu_update
     00001C0B  A$lcc2145658$177                   main_menu_update
     00001C0D  A$lcc2145658$178                   main_menu_update
     00001C10  A$lcc2145658$179                   main_menu_update
     00001C11  A$lcc2145658$180                   main_menu_update
     00001C12  A$lcc2145658$181                   main_menu_update
     00001C13  A$lcc2145658$182                   main_menu_update
     00001C14  A$lcc2145658$183                   main_menu_update
     00001C17  A$lcc2145658$184                   main_menu_update
     00001C18  A$lcc2145658$185                   main_menu_update
     00001C19  A$lcc2145658$186                   main_menu_update
ASxxxx Linker V03.00/V05.40 + sdld,  page 79.
Hexadecimal  [32-Bits]

Area                                    Addr        Size        Decimal Bytes (Attributes)
--------------------------------        ----        ----        ------- ----- ------------
_CODE                               00000200    00002A48 =       10824. bytes (REL,CON)

      Value  Global                              Global Defined In Module
      -----  --------------------------------   ------------------------
     00001C1A  A$lcc2145658$187                   main_menu_update
     00001C1C  A$lcc2145658$191                   main_menu_update
     00001C1C  C$main_menu_update.c$36$7_1$168    main_menu_update
     00001C1E  A$lcc2145658$192                   main_menu_update
     00001C1F  A$lcc2145658$193                   main_menu_update
     00001C20  A$lcc2145658$194                   main_menu_update
     00001C23  A$lcc2145658$195                   main_menu_update
     00001C24  A$lcc2145658$196                   main_menu_update
     00001C26  A$lcc2145658$197                   main_menu_update
     00001C27  A$lcc2145658$198                   main_menu_update
     00001C28  A$lcc2145658$199                   main_menu_update
     00001C29  A$lcc2145658$200                   main_menu_update
     00001C2A  A$lcc2145658$201                   main_menu_update
     00001C2D  A$lcc2145658$202                   main_menu_update
     00001C2F  A$lcc2145658$206                   main_menu_update
     00001C2F  C$main_menu_update.c$37$7_1$168    main_menu_update
     00001C30  A$lcc2145658$210                   main_menu_update
     00001C30  C$main_menu_update.c$33$6_1$167    main_menu_update
     00001C31  A$lcc2145658$211                   main_menu_update
     00001C33  A$lcc2145658$216                   main_menu_update
     00001C35  A$lcc2145658$221                   main_menu_update
     00001C35  C$main_menu_update.c$41$2_0$157    main_menu_update
     00001C35  XG$MainMenu_Update$0$0             main_menu_update
     00001C36  A$lcc2145659$58                    clean_text
     00001C36  C$clean_text.c$7$0_0$133           clean_text
     00001C36  C$clean_text.c$8$1_0$133           clean_text
     00001C36  G$clean$0$0                        clean_text
     00001C36  _clean                             clean_text
     00001C39  A$lcc2145659$59                    clean_text
     00001C3B  A$lcc2145659$63                    clean_text
     00001C3B  C$clean_text.c$10$1_0$133          clean_text
     00001C3D  A$lcc2145659$65                    clean_text
     00001C3F  A$lcc2145659$66                    clean_text
     00001C40  A$lcc2145659$67                    clean_text
     00001C42  A$lcc2145659$71                    clean_text
     00001C42  C$clean_text.c$11$3_0$135          clean_text
     00001C43  A$lcc2145659$72                    clean_text
     00001C44  A$lcc2145659$73                    clean_text
     00001C45  A$lcc2145659$74                    clean_text
     00001C46  A$lcc2145659$75                    clean_text
     00001C47  A$lcc2145659$76                    clean_text
     00001C49  A$lcc2145659$77                    clean_text
     00001C4A  A$lcc2145659$78                    clean_text
     00001C4D  A$lcc2145659$79                    clean_text
     00001C4E  A$lcc2145659$83                    clean_text
     00001C4E  C$clean_text.c$12$3_0$135          clean_text
     00001C4F  A$lcc2145659$84                    clean_text
     00001C50  A$lcc2145659$85                    clean_text
     00001C51  A$lcc2145659$86                    clean_text
     00001C52  A$lcc2145659$87                    clean_text
     00001C54  A$lcc2145659$88                    clean_text
ASxxxx Linker V03.00/V05.40 + sdld,  page 80.
Hexadecimal  [32-Bits]

Area                                    Addr        Size        Decimal Bytes (Attributes)
--------------------------------        ----        ----        ------- ----- ------------
_CODE                               00000200    00002A48 =       10824. bytes (REL,CON)

      Value  Global                              Global Defined In Module
      -----  --------------------------------   ------------------------
     00001C55  A$lcc2145659$89                    clean_text
     00001C58  A$lcc2145659$90                    clean_text
     00001C59  A$lcc2145659$94                    clean_text
     00001C59  C$clean_text.c$10$2_0$134          clean_text
     00001C5A  A$lcc2145659$95                    clean_text
     00001C5C  A$lcc2145659$100                   clean_text
     00001C5C  C$clean_text.c$15$1_0$133          clean_text
     00001C5E  A$lcc2145659$105                   clean_text
     00001C5E  C$clean_text.c$16$3_0$137          clean_text
     00001C5F  A$lcc2145659$106                   clean_text
     00001C61  A$lcc2145659$107                   clean_text
     00001C63  A$lcc2145659$108                   clean_text
     00001C66  A$lcc2145659$109                   clean_text
     00001C67  A$lcc2145659$110                   clean_text
     00001C69  A$lcc2145659$111                   clean_text
     00001C6A  A$lcc2145659$112                   clean_text
     00001C6B  A$lcc2145659$113                   clean_text
     00001C6D  A$lcc2145659$114                   clean_text
     00001C6E  A$lcc2145659$115                   clean_text
     00001C6F  A$lcc2145659$116                   clean_text
     00001C71  A$lcc2145659$117                   clean_text
     00001C72  A$lcc2145659$118                   clean_text
     00001C73  A$lcc2145659$119                   clean_text
     00001C74  A$lcc2145659$120                   clean_text
     00001C75  A$lcc2145659$121                   clean_text
     00001C78  A$lcc2145659$122                   clean_text
     00001C7A  A$lcc2145659$126                   clean_text
     00001C7A  C$clean_text.c$15$2_0$136          clean_text
     00001C7B  A$lcc2145659$127                   clean_text
     00001C7D  A$lcc2145659$132                   clean_text
     00001C7D  C$clean_text.c$19$1_0$133          clean_text
     00001C80  A$lcc2145659$133                   clean_text
     00001C81  A$lcc2145659$134                   clean_text
     00001C84  A$lcc2145659$135                   clean_text
     00001C85  A$lcc2145659$136                   clean_text
     00001C88  A$lcc2145659$137                   clean_text
     00001C89  A$lcc2145659$138                   clean_text
     00001C8C  A$lcc2145659$139                   clean_text
     00001C8E  A$lcc2145659$143                   clean_text
     00001C8E  C$clean_text.c$20$1_0$133          clean_text
     00001C8F  A$lcc2145659$144                   clean_text
     00001C92  A$lcc2145659$145                   clean_text
     00001C93  A$lcc2145659$146                   clean_text
     00001C96  A$lcc2145659$147                   clean_text
     00001C97  A$lcc2145659$148                   clean_text
     00001C9A  A$lcc2145659$149                   clean_text
     00001C9C  A$lcc2145659$157                   clean_text
     00001C9C  C$clean_text.c$21$1_0$133          clean_text
     00001C9C  XG$clean$0$0                       clean_text
     00001C9D  G$empty_tile$0_0$0                 clean_text
     00001C9D  _empty_tile                        clean_text
ASxxxx Linker V03.00/V05.40 + sdld,  page 81.
Hexadecimal  [32-Bits]

Area                                    Addr        Size        Decimal Bytes (Attributes)
--------------------------------        ----        ----        ------- ----- ------------
_CODE                               00000200    00002A48 =       10824. bytes (REL,CON)

      Value  Global                              Global Defined In Module
      -----  --------------------------------   ------------------------
     00001C9E  A$lcc2145660$53                    map_collision
     00001C9E  C$map_collision.c$9$0_0$134        map_collision
     00001C9E  Fmap_collision$get_tile$0$0        map_collision
     00001CA0  A$lcc2145660$54                    map_collision
     00001CA2  A$lcc2145660$55                    map_collision
     00001CA3  A$lcc2145660$56                    map_collision
     00001CA4  A$lcc2145660$57                    map_collision
     00001CA5  A$lcc2145660$61                    map_collision
     00001CA5  C$map_collision.c$10$1_0$134       map_collision
     00001CA8  A$lcc2145660$62                    map_collision
     00001CA9  A$lcc2145660$63                    map_collision
     00001CAA  A$lcc2145660$64                    map_collision
     00001CAB  A$lcc2145660$65                    map_collision
     00001CAC  A$lcc2145660$66                    map_collision
     00001CAE  A$lcc2145660$67                    map_collision
     00001CAF  A$lcc2145660$68                    map_collision
     00001CB0  A$lcc2145660$69                    map_collision
     00001CB1  A$lcc2145660$70                    map_collision
     00001CB2  A$lcc2145660$71                    map_collision
     00001CB4  A$lcc2145660$72                    map_collision
     00001CB5  A$lcc2145660$73                    map_collision
     00001CB6  A$lcc2145660$74                    map_collision
     00001CB7  A$lcc2145660$75                    map_collision
     00001CB8  A$lcc2145660$76                    map_collision
     00001CB9  A$lcc2145660$77                    map_collision
     00001CBA  A$lcc2145660$78                    map_collision
     00001CBB  A$lcc2145660$79                    map_collision
     00001CBC  A$lcc2145660$80                    map_collision
     00001CBD  A$lcc2145660$81                    map_collision
     00001CBE  A$lcc2145660$82                    map_collision
     00001CBF  A$lcc2145660$83                    map_collision
     00001CC0  A$lcc2145660$84                    map_collision
     00001CC2  A$lcc2145660$85                    map_collision
     00001CC3  A$lcc2145660$86                    map_collision
     00001CC4  A$lcc2145660$87                    map_collision
     00001CC5  A$lcc2145660$88                    map_collision
     00001CC6  A$lcc2145660$89                    map_collision
     00001CC7  A$lcc2145660$90                    map_collision
     00001CC8  A$lcc2145660$91                    map_collision
     00001CC9  A$lcc2145660$92                    map_collision
     00001CCA  A$lcc2145660$93                    map_collision
     00001CCB  A$lcc2145660$94                    map_collision
     00001CCC  A$lcc2145660$95                    map_collision
     00001CCD  A$lcc2145660$96                    map_collision
     00001CCE  A$lcc2145660$97                    map_collision
     00001CCF  A$lcc2145660$98                    map_collision
     00001CD0  A$lcc2145660$99                    map_collision
     00001CD1  A$lcc2145660$100                   map_collision
     00001CD2  A$lcc2145660$101                   map_collision
     00001CD3  A$lcc2145660$105                   map_collision
     00001CD3  C$map_collision.c$11$1_0$134       map_collision
ASxxxx Linker V03.00/V05.40 + sdld,  page 82.
Hexadecimal  [32-Bits]

Area                                    Addr        Size        Decimal Bytes (Attributes)
--------------------------------        ----        ----        ------- ----- ------------
_CODE                               00000200    00002A48 =       10824. bytes (REL,CON)

      Value  Global                              Global Defined In Module
      -----  --------------------------------   ------------------------
     00001CD5  A$lcc2145660$106                   map_collision
     00001CD6  A$lcc2145660$107                   map_collision
     00001CD7  A$lcc2145660$108                   map_collision
     00001CD8  A$lcc2145660$118                   map_collision
     00001CD8  C$map_collision.c$14$1_0$136       map_collision
     00001CD8  G$Map_Collision$0$0                map_collision
     00001CD8  _Map_Collision                     map_collision
     00001CDA  A$lcc2145660$122                   map_collision
     00001CDA  C$map_collision.c$15$1_0$136       map_collision
     00001CDD  A$lcc2145660$123                   map_collision
     00001CDE  A$lcc2145660$124                   map_collision
     00001CDF  A$lcc2145660$125                   map_collision
     00001CE0  A$lcc2145660$126                   map_collision
     00001CE2  A$lcc2145660$127                   map_collision
     00001CE3  A$lcc2145660$128                   map_collision
     00001CE4  A$lcc2145660$132                   map_collision
     00001CE4  C$map_collision.c$16$1_0$136       map_collision
     00001CE5  A$lcc2145660$133                   map_collision
     00001CE6  A$lcc2145660$134                   map_collision
     00001CE7  A$lcc2145660$135                   map_collision
     00001CE8  A$lcc2145660$136                   map_collision
     00001CE9  A$lcc2145660$137                   map_collision
     00001CEA  A$lcc2145660$141                   map_collision
     00001CEA  C$map_collision.c$18$1_0$136       map_collision
     00001CED  A$lcc2145660$142                   map_collision
     00001CEF  A$lcc2145660$143                   map_collision
     00001CF0  A$lcc2145660$144                   map_collision
     00001CF1  A$lcc2145660$145                   map_collision
     00001CF3  A$lcc2145660$146                   map_collision
     00001CF4  A$lcc2145660$147                   map_collision
     00001CF6  A$lcc2145660$148                   map_collision
     00001CF8  A$lcc2145660$149                   map_collision
     00001CF9  A$lcc2145660$153                   map_collision
     00001CF9  C$map_collision.c$19$1_0$136       map_collision
     00001CFC  A$lcc2145660$154                   map_collision
     00001CFE  A$lcc2145660$155                   map_collision
     00001CFF  A$lcc2145660$156                   map_collision
     00001D00  A$lcc2145660$157                   map_collision
     00001D02  A$lcc2145660$158                   map_collision
     00001D03  A$lcc2145660$159                   map_collision
     00001D05  A$lcc2145660$160                   map_collision
     00001D06  A$lcc2145660$161                   map_collision
     00001D08  A$lcc2145660$162                   map_collision
     00001D09  A$lcc2145660$166                   map_collision
     00001D09  C$map_collision.c$21$1_0$136       map_collision
     00001D0C  A$lcc2145660$167                   map_collision
     00001D0F  A$lcc2145660$171                   map_collision
     00001D0F  C$map_collision.c$22$1_0$136       map_collision
     00001D12  A$lcc2145660$172                   map_collision
     00001D14  A$lcc2145660$173                   map_collision
     00001D15  A$lcc2145660$174                   map_collision
ASxxxx Linker V03.00/V05.40 + sdld,  page 83.
Hexadecimal  [32-Bits]

Area                                    Addr        Size        Decimal Bytes (Attributes)
--------------------------------        ----        ----        ------- ----- ------------
_CODE                               00000200    00002A48 =       10824. bytes (REL,CON)

      Value  Global                              Global Defined In Module
      -----  --------------------------------   ------------------------
     00001D16  A$lcc2145660$178                   map_collision
     00001D16  C$map_collision.c$23$1_0$136       map_collision
     00001D19  A$lcc2145660$179                   map_collision
     00001D1B  A$lcc2145660$180                   map_collision
     00001D1C  A$lcc2145660$181                   map_collision
     00001D1D  A$lcc2145660$185                   map_collision
     00001D1D  C$map_collision.c$24$1_0$136       map_collision
     00001D1E  A$lcc2145660$186                   map_collision
     00001D1F  A$lcc2145660$187                   map_collision
     00001D22  A$lcc2145660$188                   map_collision
     00001D23  A$lcc2145660$189                   map_collision
     00001D24  A$lcc2145660$190                   map_collision
     00001D25  A$lcc2145660$191                   map_collision
     00001D27  A$lcc2145660$192                   map_collision
     00001D28  A$lcc2145660$193                   map_collision
     00001D29  A$lcc2145660$194                   map_collision
     00001D2A  A$lcc2145660$195                   map_collision
     00001D2C  A$lcc2145660$196                   map_collision
     00001D2D  A$lcc2145660$197                   map_collision
     00001D2E  A$lcc2145660$198                   map_collision
     00001D2F  A$lcc2145660$199                   map_collision
     00001D30  A$lcc2145660$200                   map_collision
     00001D31  A$lcc2145660$201                   map_collision
     00001D32  A$lcc2145660$202                   map_collision
     00001D33  A$lcc2145660$203                   map_collision
     00001D34  A$lcc2145660$204                   map_collision
     00001D35  A$lcc2145660$205                   map_collision
     00001D37  A$lcc2145660$206                   map_collision
     00001D38  A$lcc2145660$207                   map_collision
     00001D3A  A$lcc2145660$208                   map_collision
     00001D3B  A$lcc2145660$209                   map_collision
     00001D3C  A$lcc2145660$210                   map_collision
     00001D3D  A$lcc2145660$211                   map_collision
     00001D3E  A$lcc2145660$212                   map_collision
     00001D3F  A$lcc2145660$213                   map_collision
     00001D40  A$lcc2145660$214                   map_collision
     00001D41  A$lcc2145660$215                   map_collision
     00001D42  A$lcc2145660$216                   map_collision
     00001D43  A$lcc2145660$217                   map_collision
     00001D45  A$lcc2145660$218                   map_collision
     00001D46  A$lcc2145660$219                   map_collision
     00001D47  A$lcc2145660$220                   map_collision
     00001D48  A$lcc2145660$221                   map_collision
     00001D4A  A$lcc2145660$222                   map_collision
     00001D4B  A$lcc2145660$223                   map_collision
     00001D4C  A$lcc2145660$224                   map_collision
     00001D4D  A$lcc2145660$225                   map_collision
     00001D4E  A$lcc2145660$226                   map_collision
     00001D4F  A$lcc2145660$227                   map_collision
     00001D50  A$lcc2145660$228                   map_collision
     00001D51  A$lcc2145660$229                   map_collision
ASxxxx Linker V03.00/V05.40 + sdld,  page 84.
Hexadecimal  [32-Bits]

Area                                    Addr        Size        Decimal Bytes (Attributes)
--------------------------------        ----        ----        ------- ----- ------------
_CODE                               00000200    00002A48 =       10824. bytes (REL,CON)

      Value  Global                              Global Defined In Module
      -----  --------------------------------   ------------------------
     00001D53  A$lcc2145660$230                   map_collision
     00001D54  A$lcc2145660$231                   map_collision
     00001D56  A$lcc2145660$232                   map_collision
     00001D57  A$lcc2145660$233                   map_collision
     00001D58  A$lcc2145660$234                   map_collision
     00001D59  A$lcc2145660$235                   map_collision
     00001D5A  A$lcc2145660$236                   map_collision
     00001D5D  A$lcc2145660$240                   map_collision
     00001D5D  C$map_collision.c$26$1_0$136       map_collision
     00001D5F  A$lcc2145660$241                   map_collision
     00001D60  A$lcc2145660$242                   map_collision
     00001D61  A$lcc2145660$243                   map_collision
     00001D62  A$lcc2145660$244                   map_collision
     00001D63  A$lcc2145660$245                   map_collision
     00001D64  A$lcc2145660$246                   map_collision
     00001D65  A$lcc2145660$247                   map_collision
     00001D66  A$lcc2145660$248                   map_collision
     00001D67  A$lcc2145660$249                   map_collision
     00001D68  A$lcc2145660$250                   map_collision
     00001D69  A$lcc2145660$251                   map_collision
     00001D6A  A$lcc2145660$252                   map_collision
     00001D6B  A$lcc2145660$253                   map_collision
     00001D6C  A$lcc2145660$254                   map_collision
     00001D6D  A$lcc2145660$255                   map_collision
     00001D6E  A$lcc2145660$256                   map_collision
     00001D70  A$lcc2145660$257                   map_collision
     00001D71  A$lcc2145660$258                   map_collision
     00001D73  A$lcc2145660$259                   map_collision
     00001D74  A$lcc2145660$260                   map_collision
     00001D75  A$lcc2145660$261                   map_collision
     00001D76  A$lcc2145660$262                   map_collision
     00001D78  A$lcc2145660$263                   map_collision
     00001D79  A$lcc2145660$264                   map_collision
     00001D7A  A$lcc2145660$265                   map_collision
     00001D7B  A$lcc2145660$266                   map_collision
     00001D7D  A$lcc2145660$267                   map_collision
     00001D7F  A$lcc2145660$268                   map_collision
     00001D80  A$lcc2145660$270                   map_collision
     00001D82  A$lcc2145660$271                   map_collision
     00001D85  A$lcc2145660$275                   map_collision
     00001D85  C$map_collision.c$27$1_0$136       map_collision
     00001D87  A$lcc2145660$276                   map_collision
     00001D88  A$lcc2145660$277                   map_collision
     00001D89  A$lcc2145660$278                   map_collision
     00001D8A  A$lcc2145660$279                   map_collision
     00001D8B  A$lcc2145660$280                   map_collision
     00001D8C  A$lcc2145660$281                   map_collision
     00001D8D  A$lcc2145660$282                   map_collision
     00001D8E  A$lcc2145660$283                   map_collision
     00001D8F  A$lcc2145660$284                   map_collision
     00001D90  A$lcc2145660$285                   map_collision
ASxxxx Linker V03.00/V05.40 + sdld,  page 85.
Hexadecimal  [32-Bits]

Area                                    Addr        Size        Decimal Bytes (Attributes)
--------------------------------        ----        ----        ------- ----- ------------
_CODE                               00000200    00002A48 =       10824. bytes (REL,CON)

      Value  Global                              Global Defined In Module
      -----  --------------------------------   ------------------------
     00001D91  A$lcc2145660$286                   map_collision
     00001D92  A$lcc2145660$287                   map_collision
     00001D93  A$lcc2145660$288                   map_collision
     00001D94  A$lcc2145660$289                   map_collision
     00001D95  A$lcc2145660$290                   map_collision
     00001D96  A$lcc2145660$291                   map_collision
     00001D98  A$lcc2145660$292                   map_collision
     00001D99  A$lcc2145660$293                   map_collision
     00001D9A  A$lcc2145660$294                   map_collision
     00001D9B  A$lcc2145660$295                   map_collision
     00001D9D  A$lcc2145660$296                   map_collision
     00001D9E  A$lcc2145660$297                   map_collision
     00001D9F  A$lcc2145660$298                   map_collision
     00001DA0  A$lcc2145660$299                   map_collision
     00001DA2  A$lcc2145660$300                   map_collision
     00001DA4  A$lcc2145660$301                   map_collision
     00001DA5  A$lcc2145660$303                   map_collision
     00001DA7  A$lcc2145660$304                   map_collision
     00001DAA  A$lcc2145660$308                   map_collision
     00001DAA  C$map_collision.c$28$1_0$136       map_collision
     00001DAC  A$lcc2145660$309                   map_collision
     00001DAD  A$lcc2145660$310                   map_collision
     00001DAE  A$lcc2145660$311                   map_collision
     00001DAF  A$lcc2145660$312                   map_collision
     00001DB0  A$lcc2145660$313                   map_collision
     00001DB2  A$lcc2145660$314                   map_collision
     00001DB3  A$lcc2145660$315                   map_collision
     00001DB4  A$lcc2145660$316                   map_collision
     00001DB5  A$lcc2145660$317                   map_collision
     00001DB6  A$lcc2145660$318                   map_collision
     00001DB7  A$lcc2145660$319                   map_collision
     00001DB8  A$lcc2145660$320                   map_collision
     00001DB9  A$lcc2145660$321                   map_collision
     00001DBA  A$lcc2145660$322                   map_collision
     00001DBB  A$lcc2145660$323                   map_collision
     00001DBC  A$lcc2145660$324                   map_collision
     00001DBD  A$lcc2145660$325                   map_collision
     00001DBE  A$lcc2145660$326                   map_collision
     00001DBF  A$lcc2145660$327                   map_collision
     00001DC0  A$lcc2145660$328                   map_collision
     00001DC1  A$lcc2145660$329                   map_collision
     00001DC2  A$lcc2145660$330                   map_collision
     00001DC3  A$lcc2145660$331                   map_collision
     00001DC4  A$lcc2145660$332                   map_collision
     00001DC5  A$lcc2145660$333                   map_collision
     00001DC6  A$lcc2145660$334                   map_collision
     00001DC7  A$lcc2145660$335                   map_collision
     00001DC8  A$lcc2145660$336                   map_collision
     00001DCA  A$lcc2145660$337                   map_collision
     00001DCB  A$lcc2145660$338                   map_collision
     00001DCC  A$lcc2145660$339                   map_collision
ASxxxx Linker V03.00/V05.40 + sdld,  page 86.
Hexadecimal  [32-Bits]

Area                                    Addr        Size        Decimal Bytes (Attributes)
--------------------------------        ----        ----        ------- ----- ------------
_CODE                               00000200    00002A48 =       10824. bytes (REL,CON)

      Value  Global                              Global Defined In Module
      -----  --------------------------------   ------------------------
     00001DCD  A$lcc2145660$340                   map_collision
     00001DCE  A$lcc2145660$341                   map_collision
     00001DCF  A$lcc2145660$342                   map_collision
     00001DD0  A$lcc2145660$343                   map_collision
     00001DD2  A$lcc2145660$344                   map_collision
     00001DD3  A$lcc2145660$345                   map_collision
     00001DD5  A$lcc2145660$346                   map_collision
     00001DD6  A$lcc2145660$347                   map_collision
     00001DD7  A$lcc2145660$348                   map_collision
     00001DD8  A$lcc2145660$349                   map_collision
     00001DD9  A$lcc2145660$350                   map_collision
     00001DDA  A$lcc2145660$351                   map_collision
     00001DDC  A$lcc2145660$352                   map_collision
     00001DDE  A$lcc2145660$353                   map_collision
     00001DDF  A$lcc2145660$355                   map_collision
     00001DE1  A$lcc2145660$356                   map_collision
     00001DE4  A$lcc2145660$360                   map_collision
     00001DE4  C$map_collision.c$29$1_0$136       map_collision
     00001DE6  A$lcc2145660$361                   map_collision
     00001DE7  A$lcc2145660$362                   map_collision
     00001DE8  A$lcc2145660$363                   map_collision
     00001DE9  A$lcc2145660$364                   map_collision
     00001DEA  A$lcc2145660$365                   map_collision
     00001DEB  A$lcc2145660$366                   map_collision
     00001DEC  A$lcc2145660$367                   map_collision
     00001DED  A$lcc2145660$368                   map_collision
     00001DEE  A$lcc2145660$369                   map_collision
     00001DF0  A$lcc2145660$370                   map_collision
     00001DF1  A$lcc2145660$371                   map_collision
     00001DF3  A$lcc2145660$372                   map_collision
     00001DF4  A$lcc2145660$373                   map_collision
     00001DF5  A$lcc2145660$374                   map_collision
     00001DF6  A$lcc2145660$375                   map_collision
     00001DF7  A$lcc2145660$376                   map_collision
     00001DF8  A$lcc2145660$377                   map_collision
     00001DF9  A$lcc2145660$378                   map_collision
     00001DFA  A$lcc2145660$379                   map_collision
     00001DFB  A$lcc2145660$380                   map_collision
     00001DFC  A$lcc2145660$381                   map_collision
     00001DFD  A$lcc2145660$382                   map_collision
     00001DFE  A$lcc2145660$383                   map_collision
     00001DFF  A$lcc2145660$384                   map_collision
     00001E01  A$lcc2145660$385                   map_collision
     00001E02  A$lcc2145660$386                   map_collision
     00001E04  A$lcc2145660$387                   map_collision
     00001E05  A$lcc2145660$388                   map_collision
     00001E06  A$lcc2145660$389                   map_collision
     00001E07  A$lcc2145660$390                   map_collision
     00001E08  A$lcc2145660$391                   map_collision
     00001E09  A$lcc2145660$392                   map_collision
     00001E0B  A$lcc2145660$393                   map_collision
ASxxxx Linker V03.00/V05.40 + sdld,  page 87.
Hexadecimal  [32-Bits]

Area                                    Addr        Size        Decimal Bytes (Attributes)
--------------------------------        ----        ----        ------- ----- ------------
_CODE                               00000200    00002A48 =       10824. bytes (REL,CON)

      Value  Global                              Global Defined In Module
      -----  --------------------------------   ------------------------
     00001E0D  A$lcc2145660$394                   map_collision
     00001E0E  A$lcc2145660$396                   map_collision
     00001E10  A$lcc2145660$397                   map_collision
     00001E13  A$lcc2145660$401                   map_collision
     00001E13  C$map_collision.c$35$2_0$137       map_collision
     00001E16  A$lcc2145660$402                   map_collision
     00001E19  A$lcc2145660$403                   map_collision
     00001E1A  A$lcc2145660$404                   map_collision
     00001E1B  A$lcc2145660$405                   map_collision
     00001E1D  A$lcc2145660$409                   map_collision
     00001E1D  C$map_collision.c$36$3_0$138       map_collision
     00001E20  A$lcc2145660$414                   map_collision
     00001E20  C$map_collision.c$39$2_0$139       map_collision
     00001E22  A$lcc2145660$415                   map_collision
     00001E23  A$lcc2145660$416                   map_collision
     00001E24  A$lcc2145660$417                   map_collision
     00001E25  A$lcc2145660$418                   map_collision
     00001E26  A$lcc2145660$419                   map_collision
     00001E27  A$lcc2145660$420                   map_collision
     00001E28  A$lcc2145660$421                   map_collision
     00001E29  A$lcc2145660$422                   map_collision
     00001E2A  A$lcc2145660$423                   map_collision
     00001E2B  A$lcc2145660$424                   map_collision
     00001E2C  A$lcc2145660$425                   map_collision
     00001E2D  A$lcc2145660$426                   map_collision
     00001E2E  A$lcc2145660$427                   map_collision
     00001E2F  A$lcc2145660$428                   map_collision
     00001E30  A$lcc2145660$429                   map_collision
     00001E31  A$lcc2145660$430                   map_collision
     00001E33  A$lcc2145660$431                   map_collision
     00001E34  A$lcc2145660$432                   map_collision
     00001E36  A$lcc2145660$433                   map_collision
     00001E37  A$lcc2145660$434                   map_collision
     00001E38  A$lcc2145660$435                   map_collision
     00001E39  A$lcc2145660$436                   map_collision
     00001E3A  A$lcc2145660$437                   map_collision
     00001E3B  A$lcc2145660$438                   map_collision
     00001E3D  A$lcc2145660$445                   map_collision
     00001E3D  C$map_collision.c$40$3_0$140       map_collision
     00001E3D  C$map_collision.c$41$3_0$140       map_collision
     00001E3E  A$lcc2145660$446                   map_collision
     00001E3F  A$lcc2145660$447                   map_collision
     00001E40  A$lcc2145660$451                   map_collision
     00001E40  C$map_collision.c$43$4_0$141       map_collision
     00001E41  A$lcc2145660$452                   map_collision
     00001E42  A$lcc2145660$453                   map_collision
     00001E45  A$lcc2145660$454                   map_collision
     00001E46  A$lcc2145660$455                   map_collision
     00001E47  A$lcc2145660$456                   map_collision
     00001E48  A$lcc2145660$457                   map_collision
     00001E49  A$lcc2145660$458                   map_collision
ASxxxx Linker V03.00/V05.40 + sdld,  page 88.
Hexadecimal  [32-Bits]

Area                                    Addr        Size        Decimal Bytes (Attributes)
--------------------------------        ----        ----        ------- ----- ------------
_CODE                               00000200    00002A48 =       10824. bytes (REL,CON)

      Value  Global                              Global Defined In Module
      -----  --------------------------------   ------------------------
     00001E4A  A$lcc2145660$459                   map_collision
     00001E4B  A$lcc2145660$460                   map_collision
     00001E4C  A$lcc2145660$461                   map_collision
     00001E4E  A$lcc2145660$462                   map_collision
     00001E50  A$lcc2145660$466                   map_collision
     00001E50  C$map_collision.c$44$4_0$141       map_collision
     00001E52  A$lcc2145660$470                   map_collision
     00001E52  C$map_collision.c$46$4_0$142       map_collision
     00001E53  A$lcc2145660$471                   map_collision
     00001E54  A$lcc2145660$472                   map_collision
     00001E57  A$lcc2145660$473                   map_collision
     00001E58  A$lcc2145660$474                   map_collision
     00001E59  A$lcc2145660$475                   map_collision
     00001E5A  A$lcc2145660$476                   map_collision
     00001E5B  A$lcc2145660$477                   map_collision
     00001E5C  A$lcc2145660$478                   map_collision
     00001E5D  A$lcc2145660$479                   map_collision
     00001E5F  A$lcc2145660$480                   map_collision
     00001E60  A$lcc2145660$481                   map_collision
     00001E61  A$lcc2145660$482                   map_collision
     00001E62  A$lcc2145660$483                   map_collision
     00001E63  A$lcc2145660$484                   map_collision
     00001E64  A$lcc2145660$485                   map_collision
     00001E65  A$lcc2145660$489                   map_collision
     00001E65  C$map_collision.c$47$4_0$142       map_collision
     00001E67  A$lcc2145660$493                   map_collision
     00001E67  C$map_collision.c$49$3_0$140       map_collision
     00001E68  A$lcc2145660$494                   map_collision
     00001E69  A$lcc2145660$495                   map_collision
     00001E6C  A$lcc2145660$500                   map_collision
     00001E6E  A$lcc2145660$505                   map_collision
     00001E6E  C$map_collision.c$51$2_0$136       map_collision
     00001E6E  XG$Map_Collision$0$0               map_collision
     00001E6F  A$lcc2145662$58                    map_player_movement
     00001E6F  C$map_player_movement.c$10$0_0$1   map_player_movement
     00001E6F  G$Map_PlayerMovement$0$0           map_player_movement
     00001E6F  _Map_PlayerMovement                map_player_movement
     00001E70  A$lcc2145662$62                    map_player_movement
     00001E70  C$map_player_movement.c$11$2_0$1   map_player_movement
     00001E73  A$lcc2145662$63                    map_player_movement
     00001E75  A$lcc2145662$64                    map_player_movement
     00001E77  A$lcc2145662$65                    map_player_movement
     00001E7A  A$lcc2145662$66                    map_player_movement
     00001E7C  A$lcc2145662$67                    map_player_movement
     00001E7E  A$lcc2145662$71                    map_player_movement
     00001E7E  C$map_player_movement.c$12$3_0$1   map_player_movement
     00001E81  A$lcc2145662$75                    map_player_movement
     00001E81  C$map_player_movement.c$14$3_0$1   map_player_movement
     00001E84  A$lcc2145662$76                    map_player_movement
     00001E85  A$lcc2145662$77                    map_player_movement
     00001E86  A$lcc2145662$78                    map_player_movement
ASxxxx Linker V03.00/V05.40 + sdld,  page 89.
Hexadecimal  [32-Bits]

Area                                    Addr        Size        Decimal Bytes (Attributes)
--------------------------------        ----        ----        ------- ----- ------------
_CODE                               00000200    00002A48 =       10824. bytes (REL,CON)

      Value  Global                              Global Defined In Module
      -----  --------------------------------   ------------------------
     00001E87  A$lcc2145662$79                    map_player_movement
     00001E8A  A$lcc2145662$80                    map_player_movement
     00001E8C  A$lcc2145662$81                    map_player_movement
     00001E8D  A$lcc2145662$82                    map_player_movement
     00001E8E  A$lcc2145662$83                    map_player_movement
     00001E91  A$lcc2145662$88                    map_player_movement
     00001E91  C$map_player_movement.c$18$2_0$1   map_player_movement
     00001E94  A$lcc2145662$89                    map_player_movement
     00001E95  A$lcc2145662$90                    map_player_movement
     00001E97  A$lcc2145662$94                    map_player_movement
     00001E9A  A$lcc2145662$98                    map_player_movement
     00001E9A  C$map_player_movement.c$19$4_0$1   map_player_movement
     00001E9C  A$lcc2145662$99                    map_player_movement
     00001E9E  A$lcc2145662$103                   map_player_movement
     00001E9E  C$map_player_movement.c$20$4_0$1   map_player_movement
     00001EA1  A$lcc2145662$104                   map_player_movement
     00001EA3  A$lcc2145662$105                   map_player_movement
     00001EA5  A$lcc2145662$110                   map_player_movement
     00001EA5  C$map_player_movement.c$21$5_0$1   map_player_movement
     00001EA7  A$lcc2145662$111                   map_player_movement
     00001EA9  A$lcc2145662$115                   map_player_movement
     00001EA9  C$map_player_movement.c$22$5_0$1   map_player_movement
     00001EAC  A$lcc2145662$116                   map_player_movement
     00001EAE  A$lcc2145662$117                   map_player_movement
     00001EB0  A$lcc2145662$122                   map_player_movement
     00001EB0  C$map_player_movement.c$23$6_0$1   map_player_movement
     00001EB2  A$lcc2145662$123                   map_player_movement
     00001EB4  A$lcc2145662$127                   map_player_movement
     00001EB4  C$map_player_movement.c$24$6_0$1   map_player_movement
     00001EB7  A$lcc2145662$128                   map_player_movement
     00001EB9  A$lcc2145662$129                   map_player_movement
     00001EBB  A$lcc2145662$134                   map_player_movement
     00001EBB  C$map_player_movement.c$25$7_0$1   map_player_movement
     00001EBC  A$lcc2145662$135                   map_player_movement
     00001EBE  A$lcc2145662$139                   map_player_movement
     00001EBE  C$map_player_movement.c$26$7_0$1   map_player_movement
     00001EC1  A$lcc2145662$140                   map_player_movement
     00001EC3  A$lcc2145662$145                   map_player_movement
     00001EC3  C$map_player_movement.c$30$2_0$1   map_player_movement
     00001EC6  A$lcc2145662$146                   map_player_movement
     00001EC7  A$lcc2145662$147                   map_player_movement
     00001EC9  A$lcc2145662$148                   map_player_movement
     00001ECC  A$lcc2145662$149                   map_player_movement
     00001ECE  A$lcc2145662$150                   map_player_movement
     00001ED0  A$lcc2145662$151                   map_player_movement
     00001ED2  A$lcc2145662$152                   map_player_movement
     00001ED4  A$lcc2145662$153                   map_player_movement
     00001ED6  A$lcc2145662$154                   map_player_movement
     00001ED8  A$lcc2145662$155                   map_player_movement
     00001EDA  A$lcc2145662$163                   map_player_movement
     00001EDA  C$map_player_movement.c$31$3_0$1   map_player_movement
ASxxxx Linker V03.00/V05.40 + sdld,  page 90.
Hexadecimal  [32-Bits]

Area                                    Addr        Size        Decimal Bytes (Attributes)
--------------------------------        ----        ----        ------- ----- ------------
_CODE                               00000200    00002A48 =       10824. bytes (REL,CON)

      Value  Global                              Global Defined In Module
      -----  --------------------------------   ------------------------
     00001EDA  C$map_player_movement.c$32$3_0$1   map_player_movement
     00001EDD  A$lcc2145662$164                   map_player_movement
     00001EE0  A$lcc2145662$168                   map_player_movement
     00001EE0  C$map_player_movement.c$33$3_0$1   map_player_movement
     00001EE3  A$lcc2145662$169                   map_player_movement
     00001EE5  A$lcc2145662$170                   map_player_movement
     00001EE6  A$lcc2145662$171                   map_player_movement
     00001EE9  A$lcc2145662$172                   map_player_movement
     00001EEA  A$lcc2145662$173                   map_player_movement
     00001EEC  A$lcc2145662$174                   map_player_movement
     00001EED  A$lcc2145662$175                   map_player_movement
     00001EEE  A$lcc2145662$176                   map_player_movement
     00001EEF  A$lcc2145662$177                   map_player_movement
     00001EF0  A$lcc2145662$178                   map_player_movement
     00001EF1  A$lcc2145662$179                   map_player_movement
     00001EF2  A$lcc2145662$180                   map_player_movement
     00001EF3  A$lcc2145662$181                   map_player_movement
     00001EF4  A$lcc2145662$182                   map_player_movement
     00001EF5  A$lcc2145662$183                   map_player_movement
     00001EF8  A$lcc2145662$184                   map_player_movement
     00001EF9  A$lcc2145662$185                   map_player_movement
     00001EFA  A$lcc2145662$186                   map_player_movement
     00001EFB  A$lcc2145662$187                   map_player_movement
     00001EFD  A$lcc2145662$188                   map_player_movement
     00001EFE  A$lcc2145662$189                   map_player_movement
     00001F01  A$lcc2145662$193                   map_player_movement
     00001F01  C$map_player_movement.c$34$3_0$1   map_player_movement
     00001F03  A$lcc2145662$201                   map_player_movement
     00001F03  C$map_player_movement.c$35$3_0$1   map_player_movement
     00001F03  C$map_player_movement.c$36$3_0$1   map_player_movement
     00001F06  A$lcc2145662$202                   map_player_movement
     00001F09  A$lcc2145662$206                   map_player_movement
     00001F09  C$map_player_movement.c$37$3_0$1   map_player_movement
     00001F0C  A$lcc2145662$207                   map_player_movement
     00001F0E  A$lcc2145662$208                   map_player_movement
     00001F0F  A$lcc2145662$209                   map_player_movement
     00001F12  A$lcc2145662$210                   map_player_movement
     00001F13  A$lcc2145662$211                   map_player_movement
     00001F15  A$lcc2145662$212                   map_player_movement
     00001F16  A$lcc2145662$213                   map_player_movement
     00001F17  A$lcc2145662$214                   map_player_movement
     00001F18  A$lcc2145662$215                   map_player_movement
     00001F19  A$lcc2145662$216                   map_player_movement
     00001F1A  A$lcc2145662$217                   map_player_movement
     00001F1B  A$lcc2145662$218                   map_player_movement
     00001F1C  A$lcc2145662$219                   map_player_movement
     00001F1D  A$lcc2145662$220                   map_player_movement
     00001F1E  A$lcc2145662$221                   map_player_movement
     00001F21  A$lcc2145662$222                   map_player_movement
     00001F22  A$lcc2145662$223                   map_player_movement
     00001F23  A$lcc2145662$224                   map_player_movement
ASxxxx Linker V03.00/V05.40 + sdld,  page 91.
Hexadecimal  [32-Bits]

Area                                    Addr        Size        Decimal Bytes (Attributes)
--------------------------------        ----        ----        ------- ----- ------------
_CODE                               00000200    00002A48 =       10824. bytes (REL,CON)

      Value  Global                              Global Defined In Module
      -----  --------------------------------   ------------------------
     00001F24  A$lcc2145662$225                   map_player_movement
     00001F26  A$lcc2145662$226                   map_player_movement
     00001F27  A$lcc2145662$227                   map_player_movement
     00001F2A  A$lcc2145662$231                   map_player_movement
     00001F2A  C$map_player_movement.c$38$3_0$1   map_player_movement
     00001F2C  A$lcc2145662$239                   map_player_movement
     00001F2C  C$map_player_movement.c$39$3_0$1   map_player_movement
     00001F2C  C$map_player_movement.c$40$3_0$1   map_player_movement
     00001F2F  A$lcc2145662$240                   map_player_movement
     00001F32  A$lcc2145662$244                   map_player_movement
     00001F32  C$map_player_movement.c$41$3_0$1   map_player_movement
     00001F34  A$lcc2145662$252                   map_player_movement
     00001F34  C$map_player_movement.c$42$3_0$1   map_player_movement
     00001F34  C$map_player_movement.c$43$3_0$1   map_player_movement
     00001F37  A$lcc2145662$253                   map_player_movement
     00001F3A  A$lcc2145662$261                   map_player_movement
     00001F3A  C$map_player_movement.c$47$2_0$1   map_player_movement
     00001F3A  C$map_player_movement.c$50$2_0$1   map_player_movement
     00001F3D  A$lcc2145662$262                   map_player_movement
     00001F3E  A$lcc2145662$263                   map_player_movement
     00001F40  A$lcc2145662$264                   map_player_movement
     00001F43  A$lcc2145662$265                   map_player_movement
     00001F45  A$lcc2145662$266                   map_player_movement
     00001F47  A$lcc2145662$270                   map_player_movement
     00001F47  C$map_player_movement.c$51$3_0$1   map_player_movement
     00001F48  A$lcc2145662$271                   map_player_movement
     00001F4B  A$lcc2145662$275                   map_player_movement
     00001F4B  C$map_player_movement.c$52$3_0$1   map_player_movement
     00001F4E  A$lcc2145662$276                   map_player_movement
     00001F50  A$lcc2145662$277                   map_player_movement
     00001F51  A$lcc2145662$278                   map_player_movement
     00001F54  A$lcc2145662$279                   map_player_movement
     00001F55  A$lcc2145662$280                   map_player_movement
     00001F57  A$lcc2145662$281                   map_player_movement
     00001F58  A$lcc2145662$282                   map_player_movement
     00001F59  A$lcc2145662$283                   map_player_movement
     00001F5A  A$lcc2145662$284                   map_player_movement
     00001F5B  A$lcc2145662$285                   map_player_movement
     00001F5C  A$lcc2145662$286                   map_player_movement
     00001F5D  A$lcc2145662$287                   map_player_movement
     00001F5E  A$lcc2145662$288                   map_player_movement
     00001F5F  A$lcc2145662$289                   map_player_movement
     00001F60  A$lcc2145662$290                   map_player_movement
     00001F63  A$lcc2145662$291                   map_player_movement
     00001F64  A$lcc2145662$292                   map_player_movement
     00001F65  A$lcc2145662$293                   map_player_movement
     00001F66  A$lcc2145662$294                   map_player_movement
     00001F68  A$lcc2145662$295                   map_player_movement
     00001F69  A$lcc2145662$296                   map_player_movement
     00001F6C  A$lcc2145662$301                   map_player_movement
     00001F6C  C$map_player_movement.c$55$2_0$1   map_player_movement
ASxxxx Linker V03.00/V05.40 + sdld,  page 92.
Hexadecimal  [32-Bits]

Area                                    Addr        Size        Decimal Bytes (Attributes)
--------------------------------        ----        ----        ------- ----- ------------
_CODE                               00000200    00002A48 =       10824. bytes (REL,CON)

      Value  Global                              Global Defined In Module
      -----  --------------------------------   ------------------------
     00001F6F  A$lcc2145662$302                   map_player_movement
     00001F71  A$lcc2145662$303                   map_player_movement
     00001F73  A$lcc2145662$304                   map_player_movement
     00001F76  A$lcc2145662$305                   map_player_movement
     00001F78  A$lcc2145662$306                   map_player_movement
     00001F7A  A$lcc2145662$310                   map_player_movement
     00001F7A  C$map_player_movement.c$56$3_0$1   map_player_movement
     00001F7B  A$lcc2145662$311                   map_player_movement
     00001F7E  A$lcc2145662$315                   map_player_movement
     00001F7E  C$map_player_movement.c$57$3_0$1   map_player_movement
     00001F81  A$lcc2145662$316                   map_player_movement
     00001F83  A$lcc2145662$317                   map_player_movement
     00001F84  A$lcc2145662$318                   map_player_movement
     00001F87  A$lcc2145662$319                   map_player_movement
     00001F88  A$lcc2145662$320                   map_player_movement
     00001F8A  A$lcc2145662$321                   map_player_movement
     00001F8B  A$lcc2145662$322                   map_player_movement
     00001F8C  A$lcc2145662$323                   map_player_movement
     00001F8D  A$lcc2145662$324                   map_player_movement
     00001F8E  A$lcc2145662$325                   map_player_movement
     00001F8F  A$lcc2145662$326                   map_player_movement
     00001F90  A$lcc2145662$327                   map_player_movement
     00001F91  A$lcc2145662$328                   map_player_movement
     00001F92  A$lcc2145662$329                   map_player_movement
     00001F93  A$lcc2145662$330                   map_player_movement
     00001F96  A$lcc2145662$331                   map_player_movement
     00001F97  A$lcc2145662$332                   map_player_movement
     00001F98  A$lcc2145662$333                   map_player_movement
     00001F99  A$lcc2145662$334                   map_player_movement
     00001F9B  A$lcc2145662$335                   map_player_movement
     00001F9C  A$lcc2145662$336                   map_player_movement
     00001F9F  A$lcc2145662$341                   map_player_movement
     00001F9F  C$map_player_movement.c$11$2_0$1   map_player_movement
     00001FA2  A$lcc2145662$342                   map_player_movement
     00001FA3  A$lcc2145662$346                   map_player_movement
     00001FA3  C$map_player_movement.c$60$2_0$1   map_player_movement
     00001FA6  A$lcc2145662$347                   map_player_movement
     00001FA8  A$lcc2145662$348                   map_player_movement
     00001FAA  A$lcc2145662$349                   map_player_movement
     00001FAC  A$lcc2145662$350                   map_player_movement
     00001FAE  A$lcc2145662$354                   map_player_movement
     00001FAE  C$map_player_movement.c$61$2_0$1   map_player_movement
     00001FAF  A$lcc2145662$355                   map_player_movement
     00001FB2  A$lcc2145662$360                   map_player_movement
     00001FB2  C$map_player_movement.c$62$2_0$1   map_player_movement
     00001FB5  A$lcc2145662$361                   map_player_movement
     00001FB7  A$lcc2145662$362                   map_player_movement
     00001FB9  A$lcc2145662$363                   map_player_movement
     00001FBB  A$lcc2145662$364                   map_player_movement
     00001FBD  A$lcc2145662$368                   map_player_movement
     00001FBD  C$map_player_movement.c$63$2_0$1   map_player_movement
ASxxxx Linker V03.00/V05.40 + sdld,  page 93.
Hexadecimal  [32-Bits]

Area                                    Addr        Size        Decimal Bytes (Attributes)
--------------------------------        ----        ----        ------- ----- ------------
_CODE                               00000200    00002A48 =       10824. bytes (REL,CON)

      Value  Global                              Global Defined In Module
      -----  --------------------------------   ------------------------
     00001FBE  A$lcc2145662$369                   map_player_movement
     00001FC1  A$lcc2145662$374                   map_player_movement
     00001FC2  A$lcc2145662$379                   map_player_movement
     00001FC2  C$map_player_movement.c$64$2_0$1   map_player_movement
     00001FC2  XG$Map_PlayerMovement$0$0          map_player_movement
     00001FC3  A$lcc2145663$61                    map_00
     00001FC3  C$map_00.c$6$0_0$35                map_00
     00001FC3  C$map_00.c$8$1_0$35                map_00
     00001FC3  G$Map_00_Create$0$0                map_00
     00001FC3  _Map_00_Create                     map_00
     00001FC6  A$lcc2145663$62                    map_00
     00001FC8  A$lcc2145663$63                    map_00
     00001FC9  A$lcc2145663$64                    map_00
     00001FCB  A$lcc2145663$68                    map_00
     00001FCB  C$map_00.c$9$1_0$35                map_00
     00001FCC  A$lcc2145663$69                    map_00
     00001FCE  A$lcc2145663$70                    map_00
     00001FCF  A$lcc2145663$71                    map_00
     00001FD1  A$lcc2145663$75                    map_00
     00001FD1  C$map_00.c$10$1_0$35               map_00
     00001FD4  A$lcc2145663$76                    map_00
     00001FD6  A$lcc2145663$80                    map_00
     00001FD6  C$map_00.c$11$1_0$35               map_00
     00001FD9  A$lcc2145663$81                    map_00
     00001FDA  A$lcc2145663$82                    map_00
     00001FDB  A$lcc2145663$83                    map_00
     00001FDC  A$lcc2145663$91                    map_00
     00001FDC  C$map_00.c$12$1_0$35               map_00
     00001FDC  XG$Map_00_Create$0$0               map_00
     00001FDD  A$lcc2145664$61                    map_00_check_items
     00001FDD  C$map_00_check_items.c$10$1_0$17   map_00_check_items
     00001FDD  C$map_00_check_items.c$26$2_0$17   map_00_check_items
     00001FDD  C$map_00_check_items.c$9$0_0$170   map_00_check_items
     00001FDD  G$Map_00_CheckItems$0$0            map_00_check_items
     00001FDD  _Map_00_CheckItems                 map_00_check_items
     00001FDF  A$lcc2145664$66                    map_00_check_items
     00001FDF  C$map_00_check_items.c$31$2_0$17   map_00_check_items
     00001FDF  XG$Map_00_CheckItems$0$0           map_00_check_items
     00001FE0  G$map_00_example_collision$0_0$0   map_00_collision
     00001FE0  _map_00_example_collision          map_00_collision
     00002148  A$lcc2145666$63                    map_00_init
     00002148  C$map_00_init.c$21$0_0$173         map_00_init
     00002148  C$map_00_init.c$22$2_0$174         map_00_init
     00002148  G$hello_event$0$0                  map_00_init
     00002148  _hello_event                       map_00_init
     0000214B  A$lcc2145666$64                    map_00_init
     0000214C  A$lcc2145666$65                    map_00_init
     0000214D  A$lcc2145666$66                    map_00_init
     0000214E  A$lcc2145666$73                    map_00_init
     0000214E  C$map_00_init.c$23$2_0$174         map_00_init
     0000214E  C$map_00_init.c$25$1_0$173         map_00_init
ASxxxx Linker V03.00/V05.40 + sdld,  page 94.
Hexadecimal  [32-Bits]

Area                                    Addr        Size        Decimal Bytes (Attributes)
--------------------------------        ----        ----        ------- ----- ------------
_CODE                               00000200    00002A48 =       10824. bytes (REL,CON)

      Value  Global                              Global Defined In Module
      -----  --------------------------------   ------------------------
     00002150  A$lcc2145666$74                    map_00_init
     00002151  A$lcc2145666$78                    map_00_init
     00002151  C$map_00_init.c$27$1_0$173         map_00_init
     00002153  A$lcc2145666$79                    map_00_init
     00002154  A$lcc2145666$80                    map_00_init
     00002155  A$lcc2145666$81                    map_00_init
     00002156  A$lcc2145666$82                    map_00_init
     00002157  A$lcc2145666$83                    map_00_init
     00002158  A$lcc2145666$84                    map_00_init
     0000215A  A$lcc2145666$85                    map_00_init
     0000215D  A$lcc2145666$86                    map_00_init
     00002160  A$lcc2145666$94                    map_00_init
     00002160  C$map_00_init.c$28$1_0$173         map_00_init
     00002160  XG$hello_event$0$0                 map_00_init
     00002161  A$lcc2145666$107                   map_00_init
     00002161  C$map_00_init.c$30$1_0$176         map_00_init
     00002161  C$map_00_init.c$31$1_0$176         map_00_init
     00002161  G$Map_00_Init$0$0                  map_00_init
     00002161  _Map_00_Init                       map_00_init
     00002162  A$lcc2145666$108                   map_00_init
     00002165  A$lcc2145666$109                   map_00_init
     00002166  A$lcc2145666$113                   map_00_init
     00002166  C$map_00_init.c$33$1_0$176         map_00_init
     00002169  A$lcc2145666$114                   map_00_init
     0000216C  A$lcc2145666$115                   map_00_init
     0000216D  A$lcc2145666$119                   map_00_init
     0000216D  C$map_00_init.c$34$1_0$176         map_00_init
     00002170  A$lcc2145666$120                   map_00_init
     00002172  A$lcc2145666$121                   map_00_init
     00002173  A$lcc2145666$122                   map_00_init
     00002175  A$lcc2145666$126                   map_00_init
     00002175  C$map_00_init.c$35$1_0$176         map_00_init
     00002178  A$lcc2145666$127                   map_00_init
     0000217A  A$lcc2145666$131                   map_00_init
     0000217A  C$map_00_init.c$36$1_0$176         map_00_init
     0000217B  A$lcc2145666$132                   map_00_init
     0000217C  A$lcc2145666$133                   map_00_init
     0000217E  A$lcc2145666$137                   map_00_init
     0000217E  C$map_00_init.c$38$1_0$176         map_00_init
     00002181  A$lcc2145666$138                   map_00_init
     00002183  A$lcc2145666$142                   map_00_init
     00002183  C$map_00_init.c$39$1_0$176         map_00_init
     00002186  A$lcc2145666$143                   map_00_init
     00002188  A$lcc2145666$144                   map_00_init
     00002189  A$lcc2145666$145                   map_00_init
     0000218B  A$lcc2145666$149                   map_00_init
     0000218B  C$map_00_init.c$40$1_0$176         map_00_init
     0000218E  A$lcc2145666$150                   map_00_init
     00002190  A$lcc2145666$154                   map_00_init
     00002190  C$map_00_init.c$42$1_0$176         map_00_init
     00002193  A$lcc2145666$155                   map_00_init
ASxxxx Linker V03.00/V05.40 + sdld,  page 95.
Hexadecimal  [32-Bits]

Area                                    Addr        Size        Decimal Bytes (Attributes)
--------------------------------        ----        ----        ------- ----- ------------
_CODE                               00000200    00002A48 =       10824. bytes (REL,CON)

      Value  Global                              Global Defined In Module
      -----  --------------------------------   ------------------------
     00002194  A$lcc2145666$156                   map_00_init
     00002196  A$lcc2145666$157                   map_00_init
     00002197  A$lcc2145666$158                   map_00_init
     00002199  A$lcc2145666$162                   map_00_init
     00002199  C$map_00_init.c$44$1_0$176         map_00_init
     0000219A  A$lcc2145666$163                   map_00_init
     0000219B  A$lcc2145666$164                   map_00_init
     0000219E  A$lcc2145666$168                   map_00_init
     0000219E  C$map_00_init.c$45$1_0$176         map_00_init
     000021A1  A$lcc2145666$172                   map_00_init
     000021A1  C$map_00_init.c$47$1_0$176         map_00_init
     000021A4  A$lcc2145666$173                   map_00_init
     000021A5  A$lcc2145666$174                   map_00_init
     000021A8  A$lcc2145666$175                   map_00_init
     000021A9  A$lcc2145666$176                   map_00_init
     000021AC  A$lcc2145666$177                   map_00_init
     000021AE  A$lcc2145666$181                   map_00_init
     000021AE  C$map_00_init.c$48$1_0$176         map_00_init
     000021B1  A$lcc2145666$182                   map_00_init
     000021B2  A$lcc2145666$183                   map_00_init
     000021B5  A$lcc2145666$184                   map_00_init
     000021B6  A$lcc2145666$185                   map_00_init
     000021B7  A$lcc2145666$186                   map_00_init
     000021B8  A$lcc2145666$187                   map_00_init
     000021B9  A$lcc2145666$188                   map_00_init
     000021BC  A$lcc2145666$189                   map_00_init
     000021BE  A$lcc2145666$193                   map_00_init
     000021BE  C$map_00_init.c$50$1_0$176         map_00_init
     000021C1  A$lcc2145666$194                   map_00_init
     000021C4  A$lcc2145666$198                   map_00_init
     000021C4  C$map_00_init.c$51$1_0$176         map_00_init
     000021C7  A$lcc2145666$206                   map_00_init
     000021C7  C$map_00_init.c$52$1_0$176         map_00_init
     000021C7  XG$Map_00_Init$0$0                 map_00_init
     000021CA  A$lcc2145667$56                    map_00_init_dialogues
     000021CA  C$map_00_init_dialogues.c$11$1_0   map_00_init_dialogues
     000021CA  C$map_00_init_dialogues.c$9$0_0$   map_00_init_dialogues
     000021CA  G$Map_00_InitDialogues$0$0         map_00_init_dialogues
     000021CA  _Map_00_InitDialogues              map_00_init_dialogues
     000021CD  A$lcc2145667$57                    map_00_init_dialogues
     000021CF  A$lcc2145667$58                    map_00_init_dialogues
     000021D0  A$lcc2145667$59                    map_00_init_dialogues
     000021D2  A$lcc2145667$67                    map_00_init_dialogues
     000021D2  C$map_00_init_dialogues.c$12$1_0   map_00_init_dialogues
     000021D2  XG$Map_00_InitDialogues$0$0        map_00_init_dialogues
     000021D3  G$dialogue_00$0_0$0                map_00_init_dialogues
     000021D3  _dialogue_00                       map_00_init_dialogues
     00002317  A$lcc2145668$53                    map_00_init_npc
     00002317  C$map_00_init_npc.c$12$0_0$168     map_00_init_npc
     00002317  G$Map_00_NPC_Init$0$0              map_00_init_npc
     00002317  _Map_00_NPC_Init                   map_00_init_npc
ASxxxx Linker V03.00/V05.40 + sdld,  page 96.
Hexadecimal  [32-Bits]

Area                                    Addr        Size        Decimal Bytes (Attributes)
--------------------------------        ----        ----        ------- ----- ------------
_CODE                               00000200    00002A48 =       10824. bytes (REL,CON)

      Value  Global                              Global Defined In Module
      -----  --------------------------------   ------------------------
     00002319  A$lcc2145668$57                    map_00_init_npc
     00002319  C$map_00_init_npc.c$14$1_0$168     map_00_init_npc
     0000231C  A$lcc2145668$58                    map_00_init_npc
     0000231D  A$lcc2145668$59                    map_00_init_npc
     0000231F  A$lcc2145668$60                    map_00_init_npc
     00002322  A$lcc2145668$61                    map_00_init_npc
     00002323  A$lcc2145668$62                    map_00_init_npc
     00002325  A$lcc2145668$66                    map_00_init_npc
     00002325  C$map_00_init_npc.c$15$1_0$168     map_00_init_npc
     00002328  A$lcc2145668$67                    map_00_init_npc
     00002329  A$lcc2145668$68                    map_00_init_npc
     0000232B  A$lcc2145668$69                    map_00_init_npc
     0000232E  A$lcc2145668$70                    map_00_init_npc
     0000232F  A$lcc2145668$71                    map_00_init_npc
     00002331  A$lcc2145668$75                    map_00_init_npc
     00002331  C$map_00_init_npc.c$17$2_0$169     map_00_init_npc
     00002333  A$lcc2145668$76                    map_00_init_npc
     00002335  A$lcc2145668$77                    map_00_init_npc
     00002336  A$lcc2145668$78                    map_00_init_npc
     00002338  A$lcc2145668$79                    map_00_init_npc
     00002339  A$lcc2145668$80                    map_00_init_npc
     0000233B  A$lcc2145668$81                    map_00_init_npc
     0000233C  A$lcc2145668$82                    map_00_init_npc
     0000233E  A$lcc2145668$83                    map_00_init_npc
     0000233F  A$lcc2145668$84                    map_00_init_npc
     00002341  A$lcc2145668$85                    map_00_init_npc
     00002342  A$lcc2145668$86                    map_00_init_npc
     00002343  A$lcc2145668$87                    map_00_init_npc
     00002344  A$lcc2145668$88                    map_00_init_npc
     00002345  A$lcc2145668$89                    map_00_init_npc
     00002346  A$lcc2145668$90                    map_00_init_npc
     00002347  A$lcc2145668$91                    map_00_init_npc
     00002348  A$lcc2145668$95                    map_00_init_npc
     0000234B  A$lcc2145668$96                    map_00_init_npc
     0000234C  A$lcc2145668$98                    map_00_init_npc
     0000234F  A$lcc2145668$99                    map_00_init_npc
     00002350  A$lcc2145668$100                   map_00_init_npc
     00002351  A$lcc2145668$101                   map_00_init_npc
     00002352  A$lcc2145668$102                   map_00_init_npc
     00002354  A$lcc2145668$103                   map_00_init_npc
     00002355  A$lcc2145668$104                   map_00_init_npc
     00002356  A$lcc2145668$105                   map_00_init_npc
     00002358  A$lcc2145668$109                   map_00_init_npc
     00002358  C$map_00_init_npc.c$19$2_1$170     map_00_init_npc
     0000235B  A$lcc2145668$110                   map_00_init_npc
     0000235C  A$lcc2145668$111                   map_00_init_npc
     0000235E  A$lcc2145668$112                   map_00_init_npc
     0000235F  A$lcc2145668$113                   map_00_init_npc
     00002360  A$lcc2145668$114                   map_00_init_npc
     00002361  A$lcc2145668$115                   map_00_init_npc
     00002362  A$lcc2145668$116                   map_00_init_npc
ASxxxx Linker V03.00/V05.40 + sdld,  page 97.
Hexadecimal  [32-Bits]

Area                                    Addr        Size        Decimal Bytes (Attributes)
--------------------------------        ----        ----        ------- ----- ------------
_CODE                               00000200    00002A48 =       10824. bytes (REL,CON)

      Value  Global                              Global Defined In Module
      -----  --------------------------------   ------------------------
     00002363  A$lcc2145668$117                   map_00_init_npc
     00002364  A$lcc2145668$118                   map_00_init_npc
     00002365  A$lcc2145668$119                   map_00_init_npc
     00002366  A$lcc2145668$120                   map_00_init_npc
     00002368  A$lcc2145668$121                   map_00_init_npc
     00002369  A$lcc2145668$122                   map_00_init_npc
     0000236A  A$lcc2145668$123                   map_00_init_npc
     0000236B  A$lcc2145668$124                   map_00_init_npc
     0000236D  A$lcc2145668$125                   map_00_init_npc
     0000236E  A$lcc2145668$126                   map_00_init_npc
     0000236F  A$lcc2145668$127                   map_00_init_npc
     00002370  A$lcc2145668$128                   map_00_init_npc
     00002371  A$lcc2145668$129                   map_00_init_npc
     00002374  A$lcc2145668$130                   map_00_init_npc
     00002375  A$lcc2145668$131                   map_00_init_npc
     00002376  A$lcc2145668$132                   map_00_init_npc
     00002377  A$lcc2145668$133                   map_00_init_npc
     00002379  A$lcc2145668$134                   map_00_init_npc
     0000237A  A$lcc2145668$135                   map_00_init_npc
     0000237B  A$lcc2145668$136                   map_00_init_npc
     0000237C  A$lcc2145668$140                   map_00_init_npc
     0000237C  C$map_00_init_npc.c$18$2_1$170     map_00_init_npc
     0000237D  A$lcc2145668$141                   map_00_init_npc
     0000237F  A$lcc2145668$146                   map_00_init_npc
     0000237F  C$map_00_init_npc.c$21$1_1$169     map_00_init_npc
     00002382  A$lcc2145668$147                   map_00_init_npc
     00002383  A$lcc2145668$148                   map_00_init_npc
     00002384  A$lcc2145668$149                   map_00_init_npc
     00002386  A$lcc2145668$150                   map_00_init_npc
     00002389  A$lcc2145668$151                   map_00_init_npc
     0000238A  A$lcc2145668$152                   map_00_init_npc
     0000238D  A$lcc2145668$153                   map_00_init_npc
     0000238F  A$lcc2145668$154                   map_00_init_npc
     00002390  A$lcc2145668$155                   map_00_init_npc
     00002392  A$lcc2145668$156                   map_00_init_npc
     00002394  A$lcc2145668$157                   map_00_init_npc
     00002395  A$lcc2145668$158                   map_00_init_npc
     00002396  A$lcc2145668$159                   map_00_init_npc
     00002397  A$lcc2145668$160                   map_00_init_npc
     00002398  A$lcc2145668$161                   map_00_init_npc
     00002399  A$lcc2145668$162                   map_00_init_npc
     0000239A  A$lcc2145668$166                   map_00_init_npc
     0000239A  C$map_00_init_npc.c$22$1_1$169     map_00_init_npc
     0000239D  A$lcc2145668$167                   map_00_init_npc
     0000239E  A$lcc2145668$168                   map_00_init_npc
     0000239F  A$lcc2145668$169                   map_00_init_npc
     000023A1  A$lcc2145668$170                   map_00_init_npc
     000023A4  A$lcc2145668$171                   map_00_init_npc
     000023A5  A$lcc2145668$172                   map_00_init_npc
     000023A8  A$lcc2145668$173                   map_00_init_npc
     000023AA  A$lcc2145668$174                   map_00_init_npc
ASxxxx Linker V03.00/V05.40 + sdld,  page 98.
Hexadecimal  [32-Bits]

Area                                    Addr        Size        Decimal Bytes (Attributes)
--------------------------------        ----        ----        ------- ----- ------------
_CODE                               00000200    00002A48 =       10824. bytes (REL,CON)

      Value  Global                              Global Defined In Module
      -----  --------------------------------   ------------------------
     000023AB  A$lcc2145668$175                   map_00_init_npc
     000023AD  A$lcc2145668$176                   map_00_init_npc
     000023AF  A$lcc2145668$177                   map_00_init_npc
     000023B0  A$lcc2145668$178                   map_00_init_npc
     000023B1  A$lcc2145668$179                   map_00_init_npc
     000023B2  A$lcc2145668$180                   map_00_init_npc
     000023B3  A$lcc2145668$181                   map_00_init_npc
     000023B4  A$lcc2145668$182                   map_00_init_npc
     000023B5  A$lcc2145668$186                   map_00_init_npc
     000023B5  C$map_00_init_npc.c$24$1_1$169     map_00_init_npc
     000023B8  A$lcc2145668$187                   map_00_init_npc
     000023B9  A$lcc2145668$188                   map_00_init_npc
     000023BB  A$lcc2145668$189                   map_00_init_npc
     000023BE  A$lcc2145668$190                   map_00_init_npc
     000023BF  A$lcc2145668$191                   map_00_init_npc
     000023C1  A$lcc2145668$195                   map_00_init_npc
     000023C1  C$map_00_init_npc.c$25$1_1$169     map_00_init_npc
     000023C4  A$lcc2145668$196                   map_00_init_npc
     000023C5  A$lcc2145668$197                   map_00_init_npc
     000023C7  A$lcc2145668$198                   map_00_init_npc
     000023CA  A$lcc2145668$199                   map_00_init_npc
     000023CB  A$lcc2145668$200                   map_00_init_npc
     000023CD  A$lcc2145668$204                   map_00_init_npc
     000023CD  C$map_00_init_npc.c$26$1_1$169     map_00_init_npc
     000023D0  A$lcc2145668$205                   map_00_init_npc
     000023D1  A$lcc2145668$206                   map_00_init_npc
     000023D3  A$lcc2145668$207                   map_00_init_npc
     000023D6  A$lcc2145668$208                   map_00_init_npc
     000023D7  A$lcc2145668$209                   map_00_init_npc
     000023D9  A$lcc2145668$213                   map_00_init_npc
     000023D9  C$map_00_init_npc.c$29$2_1$171     map_00_init_npc
     000023DB  A$lcc2145668$214                   map_00_init_npc
     000023DD  A$lcc2145668$215                   map_00_init_npc
     000023DE  A$lcc2145668$216                   map_00_init_npc
     000023E0  A$lcc2145668$217                   map_00_init_npc
     000023E1  A$lcc2145668$218                   map_00_init_npc
     000023E3  A$lcc2145668$219                   map_00_init_npc
     000023E4  A$lcc2145668$220                   map_00_init_npc
     000023E6  A$lcc2145668$221                   map_00_init_npc
     000023E7  A$lcc2145668$222                   map_00_init_npc
     000023E9  A$lcc2145668$223                   map_00_init_npc
     000023EA  A$lcc2145668$224                   map_00_init_npc
     000023EC  A$lcc2145668$225                   map_00_init_npc
     000023ED  A$lcc2145668$226                   map_00_init_npc
     000023EF  A$lcc2145668$227                   map_00_init_npc
     000023F0  A$lcc2145668$228                   map_00_init_npc
     000023F2  A$lcc2145668$232                   map_00_init_npc
     000023F2  C$map_00_init_npc.c$35$1_2$171     map_00_init_npc
     000023F5  A$lcc2145668$233                   map_00_init_npc
     000023F6  A$lcc2145668$234                   map_00_init_npc
     000023F8  A$lcc2145668$235                   map_00_init_npc
ASxxxx Linker V03.00/V05.40 + sdld,  page 99.
Hexadecimal  [32-Bits]

Area                                    Addr        Size        Decimal Bytes (Attributes)
--------------------------------        ----        ----        ------- ----- ------------
_CODE                               00000200    00002A48 =       10824. bytes (REL,CON)

      Value  Global                              Global Defined In Module
      -----  --------------------------------   ------------------------
     000023F9  A$lcc2145668$236                   map_00_init_npc
     000023FA  A$lcc2145668$237                   map_00_init_npc
     000023FB  A$lcc2145668$238                   map_00_init_npc
     000023FC  A$lcc2145668$239                   map_00_init_npc
     000023FD  A$lcc2145668$240                   map_00_init_npc
     000023FE  A$lcc2145668$241                   map_00_init_npc
     000023FF  A$lcc2145668$242                   map_00_init_npc
     00002400  A$lcc2145668$243                   map_00_init_npc
     00002401  A$lcc2145668$244                   map_00_init_npc
     00002404  A$lcc2145668$245                   map_00_init_npc
     00002405  A$lcc2145668$246                   map_00_init_npc
     00002406  A$lcc2145668$247                   map_00_init_npc
     00002407  A$lcc2145668$248                   map_00_init_npc
     0000240A  A$lcc2145668$249                   map_00_init_npc
     0000240B  A$lcc2145668$250                   map_00_init_npc
     0000240D  A$lcc2145668$251                   map_00_init_npc
     0000240E  A$lcc2145668$252                   map_00_init_npc
     0000240F  A$lcc2145668$253                   map_00_init_npc
     00002412  A$lcc2145668$254                   map_00_init_npc
     00002413  A$lcc2145668$255                   map_00_init_npc
     00002414  A$lcc2145668$256                   map_00_init_npc
     00002415  A$lcc2145668$257                   map_00_init_npc
     00002416  A$lcc2145668$258                   map_00_init_npc
     00002417  A$lcc2145668$259                   map_00_init_npc
     0000241A  A$lcc2145668$260                   map_00_init_npc
     0000241D  A$lcc2145668$264                   map_00_init_npc
     0000241F  A$lcc2145668$269                   map_00_init_npc
     0000241F  C$map_00_init_npc.c$36$1_2$168     map_00_init_npc
     0000241F  XG$Map_00_NPC_Init$0$0             map_00_init_npc
     00002420  A$lcc2145669$59                    map_00_update
     00002420  C$map_00_update.c$18$0_0$185       map_00_update
     00002420  G$Map_00_Update$0$0                map_00_update
     00002420  _Map_00_Update                     map_00_update
     00002422  A$lcc2145669$60                    map_00_update
     00002424  A$lcc2145669$61                    map_00_update
     00002425  A$lcc2145669$62                    map_00_update
     00002426  A$lcc2145669$63                    map_00_update
     00002427  A$lcc2145669$67                    map_00_update
     00002427  C$map_00_update.c$19$1_0$185       map_00_update
     0000242A  A$lcc2145669$71                    map_00_update
     0000242A  C$map_00_update.c$20$1_0$185       map_00_update
     0000242D  A$lcc2145669$75                    map_00_update
     0000242D  C$map_00_update.c$22$1_1$186       map_00_update
     0000242F  A$lcc2145669$76                    map_00_update
     00002430  A$lcc2145669$77                    map_00_update
     00002431  A$lcc2145669$78                    map_00_update
     00002432  A$lcc2145669$79                    map_00_update
     00002435  A$lcc2145669$80                    map_00_update
     00002436  A$lcc2145669$81                    map_00_update
     00002437  A$lcc2145669$82                    map_00_update
     00002438  A$lcc2145669$83                    map_00_update
ASxxxx Linker V03.00/V05.40 + sdld,  page 100.
Hexadecimal  [32-Bits]

Area                                    Addr        Size        Decimal Bytes (Attributes)
--------------------------------        ----        ----        ------- ----- ------------
_CODE                               00000200    00002A48 =       10824. bytes (REL,CON)

      Value  Global                              Global Defined In Module
      -----  --------------------------------   ------------------------
     0000243A  A$lcc2145669$84                    map_00_update
     0000243B  A$lcc2145669$85                    map_00_update
     0000243C  A$lcc2145669$86                    map_00_update
     0000243D  A$lcc2145669$87                    map_00_update
     0000243F  A$lcc2145669$88                    map_00_update
     00002440  A$lcc2145669$89                    map_00_update
     00002441  A$lcc2145669$90                    map_00_update
     00002442  A$lcc2145669$91                    map_00_update
     00002443  A$lcc2145669$92                    map_00_update
     00002444  A$lcc2145669$93                    map_00_update
     00002445  A$lcc2145669$94                    map_00_update
     00002446  A$lcc2145669$95                    map_00_update
     00002447  A$lcc2145669$96                    map_00_update
     00002448  A$lcc2145669$97                    map_00_update
     00002449  A$lcc2145669$98                    map_00_update
     0000244A  A$lcc2145669$99                    map_00_update
     0000244B  A$lcc2145669$100                   map_00_update
     0000244C  A$lcc2145669$104                   map_00_update
     0000244F  A$lcc2145669$105                   map_00_update
     00002450  A$lcc2145669$106                   map_00_update
     00002451  A$lcc2145669$107                   map_00_update
     00002452  A$lcc2145669$108                   map_00_update
     00002453  A$lcc2145669$109                   map_00_update
     00002454  A$lcc2145669$110                   map_00_update
     00002456  A$lcc2145669$111                   map_00_update
     00002457  A$lcc2145669$112                   map_00_update
     00002458  A$lcc2145669$114                   map_00_update
     00002459  A$lcc2145669$115                   map_00_update
     0000245A  A$lcc2145669$116                   map_00_update
     0000245B  A$lcc2145669$117                   map_00_update
     0000245C  A$lcc2145669$118                   map_00_update
     0000245E  A$lcc2145669$119                   map_00_update
     00002460  A$lcc2145669$120                   map_00_update
     00002461  A$lcc2145669$121                   map_00_update
     00002462  A$lcc2145669$122                   map_00_update
     00002463  A$lcc2145669$123                   map_00_update
     00002464  A$lcc2145669$124                   map_00_update
     00002466  A$lcc2145669$128                   map_00_update
     00002466  C$map_00_update.c$25$3_1$188       map_00_update
     00002467  A$lcc2145669$129                   map_00_update
     00002468  A$lcc2145669$130                   map_00_update
     00002469  A$lcc2145669$131                   map_00_update
     0000246A  A$lcc2145669$132                   map_00_update
     0000246B  A$lcc2145669$133                   map_00_update
     0000246C  A$lcc2145669$134                   map_00_update
     0000246D  A$lcc2145669$135                   map_00_update
     0000246E  A$lcc2145669$136                   map_00_update
     00002471  A$lcc2145669$137                   map_00_update
     00002472  A$lcc2145669$141                   map_00_update
     00002472  C$map_00_update.c$24$2_1$187       map_00_update
     00002474  A$lcc2145669$142                   map_00_update
ASxxxx Linker V03.00/V05.40 + sdld,  page 101.
Hexadecimal  [32-Bits]

Area                                    Addr        Size        Decimal Bytes (Attributes)
--------------------------------        ----        ----        ------- ----- ------------
_CODE                               00000200    00002A48 =       10824. bytes (REL,CON)

      Value  Global                              Global Defined In Module
      -----  --------------------------------   ------------------------
     00002475  A$lcc2145669$143                   map_00_update
     00002477  A$lcc2145669$144                   map_00_update
     00002478  A$lcc2145669$145                   map_00_update
     00002479  A$lcc2145669$146                   map_00_update
     0000247B  A$lcc2145669$151                   map_00_update
     0000247B  C$map_00_update.c$28$1_1$186       map_00_update
     0000247C  A$lcc2145669$152                   map_00_update
     0000247F  A$lcc2145669$153                   map_00_update
     00002482  A$lcc2145669$154                   map_00_update
     00002483  A$lcc2145669$158                   map_00_update
     00002483  C$map_00_update.c$29$1_1$186       map_00_update
     00002484  A$lcc2145669$159                   map_00_update
     00002485  A$lcc2145669$160                   map_00_update
     00002486  A$lcc2145669$161                   map_00_update
     00002487  A$lcc2145669$162                   map_00_update
     00002488  A$lcc2145669$163                   map_00_update
     00002489  A$lcc2145669$164                   map_00_update
     0000248A  A$lcc2145669$165                   map_00_update
     0000248D  A$lcc2145669$169                   map_00_update
     0000248D  C$map_00_update.c$31$1_1$186       map_00_update
     0000248F  A$lcc2145669$170                   map_00_update
     00002490  A$lcc2145669$171                   map_00_update
     00002491  A$lcc2145669$172                   map_00_update
     00002492  A$lcc2145669$173                   map_00_update
     00002495  A$lcc2145669$174                   map_00_update
     00002496  A$lcc2145669$178                   map_00_update
     00002496  C$map_00_update.c$33$2_1$189       map_00_update
     00002499  A$lcc2145669$179                   map_00_update
     0000249A  A$lcc2145669$180                   map_00_update
     0000249B  A$lcc2145669$181                   map_00_update
     0000249C  A$lcc2145669$182                   map_00_update
     0000249E  A$lcc2145669$183                   map_00_update
     000024A1  A$lcc2145669$184                   map_00_update
     000024A2  A$lcc2145669$188                   map_00_update
     000024A2  C$map_00_update.c$34$2_1$189       map_00_update
     000024A4  A$lcc2145669$192                   map_00_update
     000024A4  C$map_00_update.c$36$2_1$190       map_00_update
     000024A7  A$lcc2145669$193                   map_00_update
     000024A9  A$lcc2145669$194                   map_00_update
     000024AB  A$lcc2145669$195                   map_00_update
     000024AE  A$lcc2145669$196                   map_00_update
     000024B0  A$lcc2145669$197                   map_00_update
     000024B2  A$lcc2145669$201                   map_00_update
     000024B2  C$map_00_update.c$37$3_1$191       map_00_update
     000024B4  A$lcc2145669$202                   map_00_update
     000024B7  A$lcc2145669$203                   map_00_update
     000024B8  A$lcc2145669$204                   map_00_update
     000024BA  A$lcc2145669$208                   map_00_update
     000024BA  C$map_00_update.c$38$3_1$191       map_00_update
     000024BC  A$lcc2145669$209                   map_00_update
     000024BD  A$lcc2145669$210                   map_00_update
ASxxxx Linker V03.00/V05.40 + sdld,  page 102.
Hexadecimal  [32-Bits]

Area                                    Addr        Size        Decimal Bytes (Attributes)
--------------------------------        ----        ----        ------- ----- ------------
_CODE                               00000200    00002A48 =       10824. bytes (REL,CON)

      Value  Global                              Global Defined In Module
      -----  --------------------------------   ------------------------
     000024BE  A$lcc2145669$214                   map_00_update
     000024BE  C$map_00_update.c$40$5_1$193       map_00_update
     000024C1  A$lcc2145669$216                   map_00_update
     000024C2  A$lcc2145669$217                   map_00_update
     000024C4  A$lcc2145669$218                   map_00_update
     000024C6  A$lcc2145669$222                   map_00_update
     000024C6  C$map_00_update.c$41$5_1$193       map_00_update
     000024C7  A$lcc2145669$223                   map_00_update
     000024CA  A$lcc2145669$224                   map_00_update
     000024CB  A$lcc2145669$225                   map_00_update
     000024CC  A$lcc2145669$226                   map_00_update
     000024CF  A$lcc2145669$227                   map_00_update
     000024D0  A$lcc2145669$228                   map_00_update
     000024D1  A$lcc2145669$229                   map_00_update
     000024D4  A$lcc2145669$230                   map_00_update
     000024D5  A$lcc2145669$234                   map_00_update
     000024D5  C$map_00_update.c$42$5_1$193       map_00_update
     000024D6  A$lcc2145669$235                   map_00_update
     000024D7  A$lcc2145669$236                   map_00_update
     000024D8  A$lcc2145669$237                   map_00_update
     000024D9  A$lcc2145669$238                   map_00_update
     000024DC  A$lcc2145669$239                   map_00_update
     000024DD  A$lcc2145669$240                   map_00_update
     000024DE  A$lcc2145669$241                   map_00_update
     000024DF  A$lcc2145669$242                   map_00_update
     000024E1  A$lcc2145669$243                   map_00_update
     000024E2  A$lcc2145669$244                   map_00_update
     000024E3  A$lcc2145669$245                   map_00_update
     000024E5  A$lcc2145669$246                   map_00_update
     000024E6  A$lcc2145669$247                   map_00_update
     000024E7  A$lcc2145669$248                   map_00_update
     000024E8  A$lcc2145669$252                   map_00_update
     000024E8  C$map_00_update.c$40$4_1$192       map_00_update
     000024E9  A$lcc2145669$253                   map_00_update
     000024EB  A$lcc2145669$258                   map_00_update
     000024EB  C$map_00_update.c$45$3_1$191       map_00_update
     000024EE  A$lcc2145669$262                   map_00_update
     000024EE  C$map_00_update.c$47$3_1$191       map_00_update
     000024F1  A$lcc2145669$263                   map_00_update
     000024F2  A$lcc2145669$264                   map_00_update
     000024F3  A$lcc2145669$265                   map_00_update
     000024F4  A$lcc2145669$266                   map_00_update
     000024F7  A$lcc2145669$267                   map_00_update
     000024F9  A$lcc2145669$268                   map_00_update
     000024FA  A$lcc2145669$269                   map_00_update
     000024FB  A$lcc2145669$270                   map_00_update
     000024FE  A$lcc2145669$279                   map_00_update
     000024FE  C$map_00_update.c$50$1_1$186       map_00_update
     00002500  A$lcc2145669$284                   map_00_update
     00002500  C$map_00_update.c$51$1_1$185       map_00_update
     00002500  XG$Map_00_Update$0$0               map_00_update
ASxxxx Linker V03.00/V05.40 + sdld,  page 103.
Hexadecimal  [32-Bits]

Area                                    Addr        Size        Decimal Bytes (Attributes)
--------------------------------        ----        ----        ------- ----- ------------
_CODE                               00000200    00002A48 =       10824. bytes (REL,CON)

      Value  Global                              Global Defined In Module
      -----  --------------------------------   ------------------------
     00002501  A$lcc2145670$76                    mg_load_screen
     00002501  C$mg_load_screen.c$13$0_0$128      mg_load_screen
     00002501  C$mg_load_screen.c$14$1_0$128      mg_load_screen
     00002501  G$Mg_LoadScreenInit$0$0            mg_load_screen
     00002501  _Mg_LoadScreenInit                 mg_load_screen
     00002502  A$lcc2145670$77                    mg_load_screen
     00002505  A$lcc2145670$81                    mg_load_screen
     00002505  C$mg_load_screen.c$15$1_0$128      mg_load_screen
     00002508  A$lcc2145670$82                    mg_load_screen
     0000250A  A$lcc2145670$86                    mg_load_screen
     0000250A  C$mg_load_screen.c$16$1_0$128      mg_load_screen
     0000250D  A$lcc2145670$87                    mg_load_screen
     0000250F  A$lcc2145670$91                    mg_load_screen
     0000250F  C$mg_load_screen.c$17$1_0$128      mg_load_screen
     00002512  A$lcc2145670$92                    mg_load_screen
     00002514  A$lcc2145670$96                    mg_load_screen
     00002514  C$mg_load_screen.c$19$2_0$129      mg_load_screen
     00002516  A$lcc2145670$97                    mg_load_screen
     00002517  A$lcc2145670$101                   mg_load_screen
     00002517  C$mg_load_screen.c$20$1_1$129      mg_load_screen
     00002519  A$lcc2145670$102                   mg_load_screen
     0000251B  A$lcc2145670$103                   mg_load_screen
     0000251E  A$lcc2145670$104                   mg_load_screen
     00002520  A$lcc2145670$108                   mg_load_screen
     00002520  C$mg_load_screen.c$22$1_1$129      mg_load_screen
     00002523  A$lcc2145670$109                   mg_load_screen
     00002524  A$lcc2145670$110                   mg_load_screen
     00002527  A$lcc2145670$111                   mg_load_screen
     00002528  A$lcc2145670$112                   mg_load_screen
     0000252B  A$lcc2145670$113                   mg_load_screen
     0000252D  A$lcc2145670$117                   mg_load_screen
     0000252D  C$mg_load_screen.c$23$1_1$129      mg_load_screen
     00002530  A$lcc2145670$118                   mg_load_screen
     00002531  A$lcc2145670$119                   mg_load_screen
     00002534  A$lcc2145670$120                   mg_load_screen
     00002535  A$lcc2145670$121                   mg_load_screen
     00002536  A$lcc2145670$122                   mg_load_screen
     00002537  A$lcc2145670$123                   mg_load_screen
     00002538  A$lcc2145670$124                   mg_load_screen
     0000253B  A$lcc2145670$125                   mg_load_screen
     0000253D  A$lcc2145670$129                   mg_load_screen
     0000253D  C$mg_load_screen.c$25$1_1$129      mg_load_screen
     0000253E  A$lcc2145670$130                   mg_load_screen
     00002540  A$lcc2145670$131                   mg_load_screen
     00002543  A$lcc2145670$132                   mg_load_screen
     00002544  A$lcc2145670$140                   mg_load_screen
     00002544  C$mg_load_screen.c$26$1_1$128      mg_load_screen
     00002544  XG$Mg_LoadScreenInit$0$0           mg_load_screen
     00002545  A$lcc2145670$153                   mg_load_screen
     00002545  C$mg_load_screen.c$28$1_1$130      mg_load_screen
     00002545  C$mg_load_screen.c$29$2_0$130      mg_load_screen
ASxxxx Linker V03.00/V05.40 + sdld,  page 104.
Hexadecimal  [32-Bits]

Area                                    Addr        Size        Decimal Bytes (Attributes)
--------------------------------        ----        ----        ------- ----- ------------
_CODE                               00000200    00002A48 =       10824. bytes (REL,CON)

      Value  Global                              Global Defined In Module
      -----  --------------------------------   ------------------------
     00002545  G$Mg_LoadScreenUpdate$0$0          mg_load_screen
     00002545  _Mg_LoadScreenUpdate               mg_load_screen
     00002547  A$lcc2145670$158                   mg_load_screen
     00002547  C$mg_load_screen.c$32$1_0$130      mg_load_screen
     0000254A  A$lcc2145670$159                   mg_load_screen
     0000254B  A$lcc2145670$160                   mg_load_screen
     0000254C  A$lcc2145670$164                   mg_load_screen
     0000254C  C$mg_load_screen.c$33$2_0$131      mg_load_screen
     0000254F  A$lcc2145670$168                   mg_load_screen
     0000254F  C$mg_load_screen.c$35$2_0$131      mg_load_screen
     00002552  A$lcc2145670$169                   mg_load_screen
     00002553  A$lcc2145670$173                   mg_load_screen
     00002553  C$mg_load_screen.c$36$3_0$132      mg_load_screen
     00002554  A$lcc2145670$174                   mg_load_screen
     00002557  A$lcc2145670$175                   mg_load_screen
     00002558  A$lcc2145670$176                   mg_load_screen
     0000255A  A$lcc2145670$183                   mg_load_screen
     0000255A  C$mg_load_screen.c$37$4_0$133      mg_load_screen
     0000255A  C$mg_load_screen.c$38$4_0$133      mg_load_screen
     0000255B  A$lcc2145670$184                   mg_load_screen
     0000255E  A$lcc2145670$185                   mg_load_screen
     00002561  A$lcc2145670$190                   mg_load_screen
     00002561  C$mg_load_screen.c$42$3_1$135      mg_load_screen
     00002563  A$lcc2145670$191                   mg_load_screen
     00002566  A$lcc2145670$192                   mg_load_screen
     00002567  A$lcc2145670$193                   mg_load_screen
     00002569  A$lcc2145670$197                   mg_load_screen
     00002569  C$mg_load_screen.c$43$3_1$135      mg_load_screen
     0000256B  A$lcc2145670$198                   mg_load_screen
     0000256D  A$lcc2145670$203                   mg_load_screen
     0000256D  C$mg_load_screen.c$44$4_1$136      mg_load_screen
     0000256F  A$lcc2145670$204                   mg_load_screen
     00002572  A$lcc2145670$205                   mg_load_screen
     00002573  A$lcc2145670$206                   mg_load_screen
     00002575  A$lcc2145670$210                   mg_load_screen
     00002575  C$mg_load_screen.c$45$4_1$136      mg_load_screen
     00002577  A$lcc2145670$211                   mg_load_screen
     00002579  A$lcc2145670$216                   mg_load_screen
     00002579  C$mg_load_screen.c$46$5_1$137      mg_load_screen
     0000257B  A$lcc2145670$217                   mg_load_screen
     0000257E  A$lcc2145670$218                   mg_load_screen
     0000257F  A$lcc2145670$219                   mg_load_screen
     00002581  A$lcc2145670$223                   mg_load_screen
     00002581  C$mg_load_screen.c$47$5_1$137      mg_load_screen
     00002583  A$lcc2145670$224                   mg_load_screen
     00002585  A$lcc2145670$229                   mg_load_screen
     00002585  C$mg_load_screen.c$49$5_1$137      mg_load_screen
     00002586  A$lcc2145670$234                   mg_load_screen
     00002586  C$mg_load_screen.c$51$2_1$134      mg_load_screen
     00002588  A$lcc2145670$238                   mg_load_screen
     00002588  C$mg_load_screen.c$52$3_1$138      mg_load_screen
ASxxxx Linker V03.00/V05.40 + sdld,  page 105.
Hexadecimal  [32-Bits]

Area                                    Addr        Size        Decimal Bytes (Attributes)
--------------------------------        ----        ----        ------- ----- ------------
_CODE                               00000200    00002A48 =       10824. bytes (REL,CON)

      Value  Global                              Global Defined In Module
      -----  --------------------------------   ------------------------
     00002589  A$lcc2145670$239                   mg_load_screen
     0000258B  A$lcc2145670$243                   mg_load_screen
     0000258B  C$mg_load_screen.c$55$2_1$134      mg_load_screen
     0000258C  A$lcc2145670$247                   mg_load_screen
     0000258C  C$mg_load_screen.c$57$2_1$134      mg_load_screen
     0000258D  A$lcc2145670$248                   mg_load_screen
     0000258E  A$lcc2145670$249                   mg_load_screen
     0000258F  A$lcc2145670$250                   mg_load_screen
     00002591  A$lcc2145670$251                   mg_load_screen
     00002593  A$lcc2145670$252                   mg_load_screen
     00002596  A$lcc2145670$253                   mg_load_screen
     00002597  A$lcc2145670$261                   mg_load_screen
     00002597  C$mg_load_screen.c$59$1_0$130      mg_load_screen
     00002597  XG$Mg_LoadScreenUpdate$0$0         mg_load_screen
     00002599  A$lcc2145671$59                    mg_mission_complete
     00002599  C$mg_mission_complete.c$11$0_0$1   mg_mission_complete
     00002599  G$Mg_SplashCompleteScreen$0$0      mg_mission_complete
     00002599  _Mg_SplashCompleteScreen           mg_mission_complete
     0000259B  A$lcc2145671$63                    mg_mission_complete
     0000259B  C$mg_mission_complete.c$13$2_0$1   mg_mission_complete
     0000259D  A$lcc2145671$64                    mg_mission_complete
     0000259E  A$lcc2145671$68                    mg_mission_complete
     0000259E  C$mg_mission_complete.c$14$1_0$1   mg_mission_complete
     000025A0  A$lcc2145671$69                    mg_mission_complete
     000025A2  A$lcc2145671$70                    mg_mission_complete
     000025A5  A$lcc2145671$71                    mg_mission_complete
     000025A7  A$lcc2145671$75                    mg_mission_complete
     000025A7  C$mg_mission_complete.c$16$1_0$1   mg_mission_complete
     000025AA  A$lcc2145671$76                    mg_mission_complete
     000025AB  A$lcc2145671$77                    mg_mission_complete
     000025AE  A$lcc2145671$78                    mg_mission_complete
     000025AF  A$lcc2145671$79                    mg_mission_complete
     000025B2  A$lcc2145671$80                    mg_mission_complete
     000025B4  A$lcc2145671$84                    mg_mission_complete
     000025B4  C$mg_mission_complete.c$17$1_0$1   mg_mission_complete
     000025B7  A$lcc2145671$85                    mg_mission_complete
     000025B8  A$lcc2145671$86                    mg_mission_complete
     000025BB  A$lcc2145671$87                    mg_mission_complete
     000025BC  A$lcc2145671$88                    mg_mission_complete
     000025BD  A$lcc2145671$89                    mg_mission_complete
     000025BE  A$lcc2145671$90                    mg_mission_complete
     000025BF  A$lcc2145671$91                    mg_mission_complete
     000025C2  A$lcc2145671$92                    mg_mission_complete
     000025C4  A$lcc2145671$96                    mg_mission_complete
     000025C4  C$mg_mission_complete.c$19$1_0$1   mg_mission_complete
     000025C5  A$lcc2145671$97                    mg_mission_complete
     000025C7  A$lcc2145671$98                    mg_mission_complete
     000025CA  A$lcc2145671$99                    mg_mission_complete
     000025CB  A$lcc2145671$103                   mg_mission_complete
     000025CB  C$mg_mission_complete.c$21$2_0$1   mg_mission_complete
     000025CD  A$lcc2145671$104                   mg_mission_complete
ASxxxx Linker V03.00/V05.40 + sdld,  page 106.
Hexadecimal  [32-Bits]

Area                                    Addr        Size        Decimal Bytes (Attributes)
--------------------------------        ----        ----        ------- ----- ------------
_CODE                               00000200    00002A48 =       10824. bytes (REL,CON)

      Value  Global                              Global Defined In Module
      -----  --------------------------------   ------------------------
     000025CF  A$lcc2145671$105                   mg_mission_complete
     000025D0  A$lcc2145671$106                   mg_mission_complete
     000025D2  A$lcc2145671$107                   mg_mission_complete
     000025D3  A$lcc2145671$108                   mg_mission_complete
     000025D5  A$lcc2145671$109                   mg_mission_complete
     000025D6  A$lcc2145671$110                   mg_mission_complete
     000025D7  A$lcc2145671$111                   mg_mission_complete
     000025D9  A$lcc2145671$112                   mg_mission_complete
     000025DA  A$lcc2145671$113                   mg_mission_complete
     000025DC  A$lcc2145671$114                   mg_mission_complete
     000025DD  A$lcc2145671$115                   mg_mission_complete
     000025DF  A$lcc2145671$116                   mg_mission_complete
     000025E0  A$lcc2145671$117                   mg_mission_complete
     000025E2  A$lcc2145671$118                   mg_mission_complete
     000025E3  A$lcc2145671$119                   mg_mission_complete
     000025E5  A$lcc2145671$120                   mg_mission_complete
     000025E6  A$lcc2145671$121                   mg_mission_complete
     000025E8  A$lcc2145671$122                   mg_mission_complete
     000025E9  A$lcc2145671$123                   mg_mission_complete
     000025EB  A$lcc2145671$124                   mg_mission_complete
     000025EC  A$lcc2145671$125                   mg_mission_complete
     000025EE  A$lcc2145671$126                   mg_mission_complete
     000025EF  A$lcc2145671$127                   mg_mission_complete
     000025F1  A$lcc2145671$128                   mg_mission_complete
     000025F2  A$lcc2145671$129                   mg_mission_complete
     000025F4  A$lcc2145671$130                   mg_mission_complete
     000025F5  A$lcc2145671$131                   mg_mission_complete
     000025F7  A$lcc2145671$132                   mg_mission_complete
     000025F8  A$lcc2145671$133                   mg_mission_complete
     000025FA  A$lcc2145671$137                   mg_mission_complete
     000025FA  C$mg_mission_complete.c$22$1_1$1   mg_mission_complete
     000025FC  A$lcc2145671$139                   mg_mission_complete
     000025FD  A$lcc2145671$140                   mg_mission_complete
     000025FF  A$lcc2145671$141                   mg_mission_complete
     00002601  A$lcc2145671$145                   mg_mission_complete
     00002601  C$mg_mission_complete.c$24$3_1$1   mg_mission_complete
     00002602  A$lcc2145671$146                   mg_mission_complete
     00002604  A$lcc2145671$147                   mg_mission_complete
     00002607  A$lcc2145671$148                   mg_mission_complete
     00002608  A$lcc2145671$149                   mg_mission_complete
     00002609  A$lcc2145671$150                   mg_mission_complete
     0000260A  A$lcc2145671$151                   mg_mission_complete
     0000260B  A$lcc2145671$152                   mg_mission_complete
     0000260E  A$lcc2145671$153                   mg_mission_complete
     0000260F  A$lcc2145671$154                   mg_mission_complete
     00002610  A$lcc2145671$155                   mg_mission_complete
     00002611  A$lcc2145671$156                   mg_mission_complete
     00002613  A$lcc2145671$160                   mg_mission_complete
     00002613  C$mg_mission_complete.c$25$3_1$1   mg_mission_complete
     00002614  A$lcc2145671$161                   mg_mission_complete
     00002615  A$lcc2145671$162                   mg_mission_complete
ASxxxx Linker V03.00/V05.40 + sdld,  page 107.
Hexadecimal  [32-Bits]

Area                                    Addr        Size        Decimal Bytes (Attributes)
--------------------------------        ----        ----        ------- ----- ------------
_CODE                               00000200    00002A48 =       10824. bytes (REL,CON)

      Value  Global                              Global Defined In Module
      -----  --------------------------------   ------------------------
     00002616  A$lcc2145671$163                   mg_mission_complete
     00002617  A$lcc2145671$164                   mg_mission_complete
     00002618  A$lcc2145671$165                   mg_mission_complete
     00002619  A$lcc2145671$166                   mg_mission_complete
     0000261B  A$lcc2145671$167                   mg_mission_complete
     0000261C  A$lcc2145671$168                   mg_mission_complete
     0000261F  A$lcc2145671$169                   mg_mission_complete
     00002620  A$lcc2145671$173                   mg_mission_complete
     00002620  C$mg_mission_complete.c$22$2_1$1   mg_mission_complete
     00002621  A$lcc2145671$174                   mg_mission_complete
     00002623  A$lcc2145671$182                   mg_mission_complete
     00002623  C$mg_mission_complete.c$31$1_1$1   mg_mission_complete
     00002625  A$lcc2145671$187                   mg_mission_complete
     00002625  C$mg_mission_complete.c$32$1_1$1   mg_mission_complete
     00002625  XG$Mg_SplashCompleteScreen$0$0     mg_mission_complete
     00002626  A$lcc2145671$200                   mg_mission_complete
     00002626  C$mg_mission_complete.c$34$1_1$1   mg_mission_complete
     00002626  C$mg_mission_complete.c$36$1_0$1   mg_mission_complete
     00002626  G$Mg_CompleteScreenSleep$0$0       mg_mission_complete
     00002626  _Mg_CompleteScreenSleep            mg_mission_complete
     00002627  A$lcc2145671$201                   mg_mission_complete
     0000262A  A$lcc2145671$206                   mg_mission_complete
     0000262A  C$mg_mission_complete.c$38$1_0$1   mg_mission_complete
     0000262D  A$lcc2145671$207                   mg_mission_complete
     0000262E  A$lcc2145671$208                   mg_mission_complete
     00002630  A$lcc2145671$212                   mg_mission_complete
     00002630  C$mg_mission_complete.c$39$1_0$1   mg_mission_complete
     00002633  A$lcc2145671$213                   mg_mission_complete
     00002635  A$lcc2145671$221                   mg_mission_complete
     00002635  C$mg_mission_complete.c$41$1_0$1   mg_mission_complete
     00002635  C$mg_mission_complete.c$43$2_0$1   mg_mission_complete
     00002638  A$lcc2145671$222                   mg_mission_complete
     0000263B  A$lcc2145671$223                   mg_mission_complete
     0000263C  A$lcc2145671$227                   mg_mission_complete
     0000263C  C$mg_mission_complete.c$44$3_0$1   mg_mission_complete
     0000263E  A$lcc2145671$228                   mg_mission_complete
     00002640  A$lcc2145671$232                   mg_mission_complete
     00002640  C$mg_mission_complete.c$46$4_0$1   mg_mission_complete
     00002641  A$lcc2145671$233                   mg_mission_complete
     00002644  A$lcc2145671$244                   mg_mission_complete
     00002644  C$mg_mission_complete.c$51$1_0$1   mg_mission_complete
     00002644  C$mg_mission_complete.c$52$1_0$1   mg_mission_complete
     00002644  XG$Mg_CompleteScreenSleep$0$0      mg_mission_complete
     00002645  A$lcc2145672$56                    mg_player_movement
     00002645  C$mg_player_movement.c$9$0_0$153   mg_player_movement
     00002645  G$Mg_PlayerMovement$0$0            mg_player_movement
     00002645  _Mg_PlayerMovement                 mg_player_movement
     00002646  A$lcc2145672$60                    mg_player_movement
     00002646  C$mg_player_movement.c$10$2_0$15   mg_player_movement
     00002649  A$lcc2145672$61                    mg_player_movement
     0000264A  A$lcc2145672$62                    mg_player_movement
ASxxxx Linker V03.00/V05.40 + sdld,  page 108.
Hexadecimal  [32-Bits]

Area                                    Addr        Size        Decimal Bytes (Attributes)
--------------------------------        ----        ----        ------- ----- ------------
_CODE                               00000200    00002A48 =       10824. bytes (REL,CON)

      Value  Global                              Global Defined In Module
      -----  --------------------------------   ------------------------
     0000264C  A$lcc2145672$66                    mg_player_movement
     0000264F  A$lcc2145672$67                    mg_player_movement
     00002651  A$lcc2145672$68                    mg_player_movement
     00002653  A$lcc2145672$69                    mg_player_movement
     00002654  A$lcc2145672$70                    mg_player_movement
     00002655  A$lcc2145672$71                    mg_player_movement
     00002657  A$lcc2145672$75                    mg_player_movement
     00002657  C$mg_player_movement.c$12$4_0$15   mg_player_movement
     0000265A  A$lcc2145672$76                    mg_player_movement
     0000265C  A$lcc2145672$77                    mg_player_movement
     0000265E  A$lcc2145672$82                    mg_player_movement
     0000265E  C$mg_player_movement.c$13$5_0$15   mg_player_movement
     00002660  A$lcc2145672$83                    mg_player_movement
     00002662  A$lcc2145672$84                    mg_player_movement
     00002663  A$lcc2145672$85                    mg_player_movement
     00002664  A$lcc2145672$86                    mg_player_movement
     00002666  A$lcc2145672$90                    mg_player_movement
     00002666  C$mg_player_movement.c$14$5_0$15   mg_player_movement
     00002669  A$lcc2145672$91                    mg_player_movement
     0000266B  A$lcc2145672$92                    mg_player_movement
     0000266D  A$lcc2145672$97                    mg_player_movement
     0000266D  C$mg_player_movement.c$15$6_0$15   mg_player_movement
     0000266F  A$lcc2145672$98                    mg_player_movement
     00002671  A$lcc2145672$99                    mg_player_movement
     00002672  A$lcc2145672$100                   mg_player_movement
     00002673  A$lcc2145672$101                   mg_player_movement
     00002675  A$lcc2145672$105                   mg_player_movement
     00002675  C$mg_player_movement.c$16$6_0$15   mg_player_movement
     00002678  A$lcc2145672$106                   mg_player_movement
     0000267A  A$lcc2145672$107                   mg_player_movement
     0000267C  A$lcc2145672$112                   mg_player_movement
     0000267C  C$mg_player_movement.c$17$7_0$15   mg_player_movement
     0000267D  A$lcc2145672$113                   mg_player_movement
     0000267F  A$lcc2145672$114                   mg_player_movement
     00002680  A$lcc2145672$115                   mg_player_movement
     00002681  A$lcc2145672$116                   mg_player_movement
     00002683  A$lcc2145672$120                   mg_player_movement
     00002683  C$mg_player_movement.c$18$7_0$15   mg_player_movement
     00002686  A$lcc2145672$121                   mg_player_movement
     00002688  A$lcc2145672$126                   mg_player_movement
     00002688  C$mg_player_movement.c$22$2_0$16   mg_player_movement
     0000268B  A$lcc2145672$127                   mg_player_movement
     0000268C  A$lcc2145672$128                   mg_player_movement
     0000268E  A$lcc2145672$129                   mg_player_movement
     00002691  A$lcc2145672$130                   mg_player_movement
     00002693  A$lcc2145672$131                   mg_player_movement
     00002695  A$lcc2145672$132                   mg_player_movement
     00002697  A$lcc2145672$133                   mg_player_movement
     00002699  A$lcc2145672$134                   mg_player_movement
     0000269B  A$lcc2145672$135                   mg_player_movement
     0000269D  A$lcc2145672$136                   mg_player_movement
ASxxxx Linker V03.00/V05.40 + sdld,  page 109.
Hexadecimal  [32-Bits]

Area                                    Addr        Size        Decimal Bytes (Attributes)
--------------------------------        ----        ----        ------- ----- ------------
_CODE                               00000200    00002A48 =       10824. bytes (REL,CON)

      Value  Global                              Global Defined In Module
      -----  --------------------------------   ------------------------
     0000269F  A$lcc2145672$144                   mg_player_movement
     0000269F  C$mg_player_movement.c$23$3_0$16   mg_player_movement
     0000269F  C$mg_player_movement.c$24$3_0$16   mg_player_movement
     000026A2  A$lcc2145672$145                   mg_player_movement
     000026A5  A$lcc2145672$149                   mg_player_movement
     000026A5  C$mg_player_movement.c$25$3_0$16   mg_player_movement
     000026A7  A$lcc2145672$157                   mg_player_movement
     000026A7  C$mg_player_movement.c$26$3_0$16   mg_player_movement
     000026A7  C$mg_player_movement.c$27$3_0$16   mg_player_movement
     000026AA  A$lcc2145672$158                   mg_player_movement
     000026AD  A$lcc2145672$162                   mg_player_movement
     000026AD  C$mg_player_movement.c$28$3_0$16   mg_player_movement
     000026AF  A$lcc2145672$170                   mg_player_movement
     000026AF  C$mg_player_movement.c$29$3_0$16   mg_player_movement
     000026AF  C$mg_player_movement.c$30$3_0$16   mg_player_movement
     000026B2  A$lcc2145672$171                   mg_player_movement
     000026B5  A$lcc2145672$175                   mg_player_movement
     000026B5  C$mg_player_movement.c$31$3_0$16   mg_player_movement
     000026B7  A$lcc2145672$183                   mg_player_movement
     000026B7  C$mg_player_movement.c$32$3_0$16   mg_player_movement
     000026B7  C$mg_player_movement.c$33$3_0$16   mg_player_movement
     000026BA  A$lcc2145672$184                   mg_player_movement
     000026BD  A$lcc2145672$192                   mg_player_movement
     000026BD  C$mg_player_movement.c$11$2_0$15   mg_player_movement
     000026BD  C$mg_player_movement.c$37$2_0$16   mg_player_movement
     000026C0  A$lcc2145672$193                   mg_player_movement
     000026C1  A$lcc2145672$197                   mg_player_movement
     000026C1  C$mg_player_movement.c$40$2_0$16   mg_player_movement
     000026C4  A$lcc2145672$198                   mg_player_movement
     000026C5  A$lcc2145672$199                   mg_player_movement
     000026C7  A$lcc2145672$200                   mg_player_movement
     000026C9  A$lcc2145672$201                   mg_player_movement
     000026CB  A$lcc2145672$205                   mg_player_movement
     000026CB  C$mg_player_movement.c$41$2_0$16   mg_player_movement
     000026CC  A$lcc2145672$206                   mg_player_movement
     000026CF  A$lcc2145672$211                   mg_player_movement
     000026CF  C$mg_player_movement.c$43$2_0$16   mg_player_movement
     000026D2  A$lcc2145672$212                   mg_player_movement
     000026D4  A$lcc2145672$213                   mg_player_movement
     000026D6  A$lcc2145672$214                   mg_player_movement
     000026D8  A$lcc2145672$215                   mg_player_movement
     000026DA  A$lcc2145672$219                   mg_player_movement
     000026DA  C$mg_player_movement.c$44$2_0$16   mg_player_movement
     000026DB  A$lcc2145672$220                   mg_player_movement
     000026DE  A$lcc2145672$225                   mg_player_movement
     000026DE  C$mg_player_movement.c$46$2_0$16   mg_player_movement
     000026E1  A$lcc2145672$226                   mg_player_movement
     000026E3  A$lcc2145672$227                   mg_player_movement
     000026E5  A$lcc2145672$228                   mg_player_movement
     000026E7  A$lcc2145672$229                   mg_player_movement
     000026E9  A$lcc2145672$233                   mg_player_movement
ASxxxx Linker V03.00/V05.40 + sdld,  page 110.
Hexadecimal  [32-Bits]

Area                                    Addr        Size        Decimal Bytes (Attributes)
--------------------------------        ----        ----        ------- ----- ------------
_CODE                               00000200    00002A48 =       10824. bytes (REL,CON)

      Value  Global                              Global Defined In Module
      -----  --------------------------------   ------------------------
     000026E9  C$mg_player_movement.c$47$2_0$16   mg_player_movement
     000026EA  A$lcc2145672$234                   mg_player_movement
     000026ED  A$lcc2145672$239                   mg_player_movement
     000026ED  C$mg_player_movement.c$49$2_0$16   mg_player_movement
     000026F0  A$lcc2145672$240                   mg_player_movement
     000026F2  A$lcc2145672$241                   mg_player_movement
     000026F3  A$lcc2145672$242                   mg_player_movement
     000026F5  A$lcc2145672$243                   mg_player_movement
     000026F6  A$lcc2145672$247                   mg_player_movement
     000026F6  C$mg_player_movement.c$50$2_0$16   mg_player_movement
     000026F7  A$lcc2145672$248                   mg_player_movement
     000026FA  A$lcc2145672$256                   mg_player_movement
     000026FA  C$mg_player_movement.c$51$2_0$15   mg_player_movement
     000026FA  XG$Mg_PlayerMovement$0$0           mg_player_movement
     000026FB  A$lcc2145673$70                    mg_timer
     000026FB  C$mg_timer.c$8$0_0$3               mg_timer
     000026FB  G$Mg_TimerStart$0$0                mg_timer
     000026FB  _Mg_TimerStart                     mg_timer
     000026FC  A$lcc2145673$71                    mg_timer
     000026FD  A$lcc2145673$75                    mg_timer
     000026FD  C$mg_timer.c$9$1_0$3               mg_timer
     000026FE  A$lcc2145673$76                    mg_timer
     000026FF  A$lcc2145673$77                    mg_timer
     00002700  A$lcc2145673$78                    mg_timer
     00002701  A$lcc2145673$79                    mg_timer
     00002702  A$lcc2145673$80                    mg_timer
     00002703  A$lcc2145673$81                    mg_timer
     00002704  A$lcc2145673$82                    mg_timer
     00002705  A$lcc2145673$83                    mg_timer
     00002706  A$lcc2145673$84                    mg_timer
     00002707  A$lcc2145673$85                    mg_timer
     00002708  A$lcc2145673$86                    mg_timer
     00002709  A$lcc2145673$87                    mg_timer
     0000270C  A$lcc2145673$88                    mg_timer
     0000270D  A$lcc2145673$89                    mg_timer
     0000270E  A$lcc2145673$90                    mg_timer
     0000270F  A$lcc2145673$94                    mg_timer
     0000270F  C$mg_timer.c$10$1_0$3              mg_timer
     00002712  A$lcc2145673$95                    mg_timer
     00002714  A$lcc2145673$99                    mg_timer
     00002714  C$mg_timer.c$11$1_0$3              mg_timer
     00002715  A$lcc2145673$100                   mg_timer
     00002718  A$lcc2145673$101                   mg_timer
     00002719  A$lcc2145673$102                   mg_timer
     0000271A  A$lcc2145673$106                   mg_timer
     0000271A  C$mg_timer.c$12$1_0$3              mg_timer
     0000271B  A$lcc2145673$107                   mg_timer
     0000271E  A$lcc2145673$115                   mg_timer
     0000271E  C$mg_timer.c$13$1_0$3              mg_timer
     0000271E  XG$Mg_TimerStart$0$0               mg_timer
     0000271F  A$lcc2145673$128                   mg_timer
ASxxxx Linker V03.00/V05.40 + sdld,  page 111.
Hexadecimal  [32-Bits]

Area                                    Addr        Size        Decimal Bytes (Attributes)
--------------------------------        ----        ----        ------- ----- ------------
_CODE                               00000200    00002A48 =       10824. bytes (REL,CON)

      Value  Global                              Global Defined In Module
      -----  --------------------------------   ------------------------
     0000271F  C$mg_timer.c$15$1_0$4              mg_timer
     0000271F  C$mg_timer.c$16$2_0$5              mg_timer
     0000271F  G$Mg_TimerUpdate$0$0               mg_timer
     0000271F  _Mg_TimerUpdate                    mg_timer
     00002722  A$lcc2145673$129                   mg_timer
     00002723  A$lcc2145673$133                   mg_timer
     00002723  C$mg_timer.c$17$2_0$5              mg_timer
     00002724  A$lcc2145673$137                   mg_timer
     00002724  C$mg_timer.c$19$1_0$4              mg_timer
     00002727  A$lcc2145673$138                   mg_timer
     00002728  A$lcc2145673$139                   mg_timer
     0000272A  A$lcc2145673$140                   mg_timer
     0000272B  A$lcc2145673$141                   mg_timer
     0000272C  A$lcc2145673$146                   mg_timer
     0000272C  C$mg_timer.c$21$2_0$6              mg_timer
     0000272F  A$lcc2145673$147                   mg_timer
     00002732  A$lcc2145673$148                   mg_timer
     00002733  A$lcc2145673$149                   mg_timer
     00002734  A$lcc2145673$150                   mg_timer
     00002735  A$lcc2145673$151                   mg_timer
     00002736  A$lcc2145673$152                   mg_timer
     00002737  A$lcc2145673$153                   mg_timer
     00002738  A$lcc2145673$154                   mg_timer
     00002739  A$lcc2145673$158                   mg_timer
     00002739  C$mg_timer.c$22$3_0$7              mg_timer
     0000273A  A$lcc2145673$159                   mg_timer
     0000273D  A$lcc2145673$163                   mg_timer
     0000273D  C$mg_timer.c$23$3_0$7              mg_timer
     00002740  A$lcc2145673$164                   mg_timer
     00002742  A$lcc2145673$172                   mg_timer
     00002742  C$mg_timer.c$25$2_0$4              mg_timer
     00002742  XG$Mg_TimerUpdate$0$0              mg_timer
     00002743  A$lcc2145673$182                   mg_timer
     00002743  C$mg_timer.c$27$2_0$8              mg_timer
     00002743  G$Mg_TimerStopAlarm$0$0            mg_timer
     00002743  _Mg_TimerStopAlarm                 mg_timer
     00002744  A$lcc2145673$183                   mg_timer
     00002747  A$lcc2145673$188                   mg_timer
     00002747  C$mg_timer.c$27$1_0$8              mg_timer
     00002747  XG$Mg_TimerStopAlarm$0$0           mg_timer
     00002748  A$lcc2145674$54                    mini_games
     00002748  C$mini_games.c$9$0_0$149           mini_games
     00002748  G$Mg_SetTitle$0$0                  mini_games
     00002748  _Mg_SetTitle                       mini_games
     00002749  A$lcc2145674$58                    mini_games
     0000274B  A$lcc2145674$60                    mini_games
     0000274C  A$lcc2145674$61                    mini_games
     0000274E  A$lcc2145674$62                    mini_games
     0000274F  A$lcc2145674$63                    mini_games
     00002750  A$lcc2145674$64                    mini_games
     00002751  A$lcc2145674$65                    mini_games
ASxxxx Linker V03.00/V05.40 + sdld,  page 112.
Hexadecimal  [32-Bits]

Area                                    Addr        Size        Decimal Bytes (Attributes)
--------------------------------        ----        ----        ------- ----- ------------
_CODE                               00000200    00002A48 =       10824. bytes (REL,CON)

      Value  Global                              Global Defined In Module
      -----  --------------------------------   ------------------------
     00002753  A$lcc2145674$69                    mini_games
     00002753  C$mini_games.c$13$3_0$150          mini_games
     00002754  A$lcc2145674$70                    mini_games
     00002755  A$lcc2145674$71                    mini_games
     00002758  A$lcc2145674$72                    mini_games
     00002759  A$lcc2145674$73                    mini_games
     0000275A  A$lcc2145674$74                    mini_games
     0000275B  A$lcc2145674$75                    mini_games
     0000275C  A$lcc2145674$76                    mini_games
     0000275E  A$lcc2145674$77                    mini_games
     00002760  A$lcc2145674$78                    mini_games
     00002761  A$lcc2145674$82                    mini_games
     00002761  C$mini_games.c$14$3_0$150          mini_games
     00002762  A$lcc2145674$83                    mini_games
     00002763  A$lcc2145674$84                    mini_games
     00002764  A$lcc2145674$85                    mini_games
     00002767  A$lcc2145674$86                    mini_games
     00002768  A$lcc2145674$87                    mini_games
     00002769  A$lcc2145674$88                    mini_games
     0000276B  A$lcc2145674$89                    mini_games
     0000276C  A$lcc2145674$90                    mini_games
     0000276D  A$lcc2145674$91                    mini_games
     0000276F  A$lcc2145674$92                    mini_games
     00002770  A$lcc2145674$93                    mini_games
     00002771  A$lcc2145674$94                    mini_games
     00002773  A$lcc2145674$95                    mini_games
     00002774  A$lcc2145674$96                    mini_games
     00002775  A$lcc2145674$97                    mini_games
     00002776  A$lcc2145674$98                    mini_games
     00002777  A$lcc2145674$99                    mini_games
     0000277A  A$lcc2145674$100                   mini_games
     0000277C  A$lcc2145674$101                   mini_games
     0000277D  A$lcc2145674$105                   mini_games
     0000277D  C$mini_games.c$11$2_0$149          mini_games
     0000277E  A$lcc2145674$106                   mini_games
     00002780  A$lcc2145674$111                   mini_games
     00002781  A$lcc2145674$116                   mini_games
     00002781  C$mini_games.c$16$2_0$149          mini_games
     00002781  XG$Mg_SetTitle$0$0                 mini_games
     00002782  A$lcc2145675$61                    mg_leaves
     00002782  C$mg_leaves.c$7$0_0$156            mg_leaves
     00002782  C$mg_leaves.c$9$1_0$156            mg_leaves
     00002782  G$Mg_Leaves_Create$0$0             mg_leaves
     00002782  _Mg_Leaves_Create                  mg_leaves
     00002785  A$lcc2145675$62                    mg_leaves
     00002787  A$lcc2145675$63                    mg_leaves
     00002788  A$lcc2145675$64                    mg_leaves
     0000278A  A$lcc2145675$68                    mg_leaves
     0000278A  C$mg_leaves.c$10$1_0$156           mg_leaves
     0000278B  A$lcc2145675$69                    mg_leaves
     0000278D  A$lcc2145675$70                    mg_leaves
ASxxxx Linker V03.00/V05.40 + sdld,  page 113.
Hexadecimal  [32-Bits]

Area                                    Addr        Size        Decimal Bytes (Attributes)
--------------------------------        ----        ----        ------- ----- ------------
_CODE                               00000200    00002A48 =       10824. bytes (REL,CON)

      Value  Global                              Global Defined In Module
      -----  --------------------------------   ------------------------
     0000278E  A$lcc2145675$71                    mg_leaves
     00002790  A$lcc2145675$75                    mg_leaves
     00002790  C$mg_leaves.c$11$1_0$156           mg_leaves
     00002793  A$lcc2145675$76                    mg_leaves
     00002795  A$lcc2145675$80                    mg_leaves
     00002795  C$mg_leaves.c$12$1_0$156           mg_leaves
     00002798  A$lcc2145675$81                    mg_leaves
     00002799  A$lcc2145675$82                    mg_leaves
     0000279A  A$lcc2145675$83                    mg_leaves
     0000279B  A$lcc2145675$87                    mg_leaves
     0000279B  C$mg_leaves.c$14$1_0$156           mg_leaves
     0000279E  A$lcc2145675$88                    mg_leaves
     000027A0  A$lcc2145675$96                    mg_leaves
     000027A0  C$mg_leaves.c$15$1_0$156           mg_leaves
     000027A0  XG$Mg_Leaves_Create$0$0            mg_leaves
     000027A1  A$lcc2145677$57                    mg_leaves_load_bkg
     000027A1  C$mg_leaves_load_bkg.c$5$0_0$155   mg_leaves_load_bkg
     000027A1  C$mg_leaves_load_bkg.c$7$1_0$155   mg_leaves_load_bkg
     000027A1  G$Mg_Leaves_LoadBKG$0$0            mg_leaves_load_bkg
     000027A1  _Mg_Leaves_LoadBKG                 mg_leaves_load_bkg
     000027A4  A$lcc2145677$58                    mg_leaves_load_bkg
     000027A5  A$lcc2145677$59                    mg_leaves_load_bkg
     000027A8  A$lcc2145677$60                    mg_leaves_load_bkg
     000027A9  A$lcc2145677$61                    mg_leaves_load_bkg
     000027AC  A$lcc2145677$62                    mg_leaves_load_bkg
     000027AE  A$lcc2145677$66                    mg_leaves_load_bkg
     000027AE  C$mg_leaves_load_bkg.c$8$1_0$155   mg_leaves_load_bkg
     000027B1  A$lcc2145677$67                    mg_leaves_load_bkg
     000027B2  A$lcc2145677$68                    mg_leaves_load_bkg
     000027B5  A$lcc2145677$69                    mg_leaves_load_bkg
     000027B6  A$lcc2145677$70                    mg_leaves_load_bkg
     000027B7  A$lcc2145677$71                    mg_leaves_load_bkg
     000027B8  A$lcc2145677$72                    mg_leaves_load_bkg
     000027B9  A$lcc2145677$73                    mg_leaves_load_bkg
     000027BC  A$lcc2145677$74                    mg_leaves_load_bkg
     000027BE  A$lcc2145677$82                    mg_leaves_load_bkg
     000027BE  C$mg_leaves_load_bkg.c$9$1_0$155   mg_leaves_load_bkg
     000027BE  XG$Mg_Leaves_LoadBKG$0$0           mg_leaves_load_bkg
     000027BF  A$lcc2145680$71                    main
     000027BF  C$main.c$26$0_0$179                main
     000027BF  C$main.c$27$1_0$179                main
     000027BF  C$main.c$28$1_0$179                main
     000027BF  G$load_number_tiles$0$0            main
     000027BF  _load_number_tiles                 main
     000027C2  A$lcc2145680$72                    main
     000027C3  A$lcc2145680$73                    main
     000027C6  A$lcc2145680$74                    main
     000027C7  A$lcc2145680$75                    main
     000027CA  A$lcc2145680$76                    main
     000027CC  A$lcc2145680$83                    main
     000027CC  C$main.c$29$1_0$179                main
ASxxxx Linker V03.00/V05.40 + sdld,  page 114.
Hexadecimal  [32-Bits]

Area                                    Addr        Size        Decimal Bytes (Attributes)
--------------------------------        ----        ----        ------- ----- ------------
_CODE                               00000200    00002A48 =       10824. bytes (REL,CON)

      Value  Global                              Global Defined In Module
      -----  --------------------------------   ------------------------
     000027CC  C$main.c$30$1_0$179                main
     000027CF  A$lcc2145680$84                    main
     000027D0  A$lcc2145680$85                    main
     000027D3  A$lcc2145680$86                    main
     000027D4  A$lcc2145680$87                    main
     000027D7  A$lcc2145680$88                    main
     000027D9  A$lcc2145680$96                    main
     000027D9  C$main.c$31$1_0$179                main
     000027D9  XG$load_number_tiles$0$0           main
     000027DA  A$lcc2145680$109                   main
     000027DA  C$main.c$33$1_0$181                main
     000027DA  C$main.c$34$1_0$181                main
     000027DA  G$main$0$0                         main
     000027DA  _main                              main
     000027DC  A$lcc2145680$110                   main
     000027DE  A$lcc2145680$111                   main
     000027E0  A$lcc2145680$115                   main
     000027E0  C$main.c$35$1_0$181                main
     000027E2  A$lcc2145680$116                   main
     000027E4  A$lcc2145680$117                   main
     000027E6  A$lcc2145680$121                   main
     000027E6  C$main.c$44$1_1$182                main
     000027E9  A$lcc2145680$122                   main
     000027EB  A$lcc2145680$123                   main
     000027EC  A$lcc2145680$124                   main
     000027EE  A$lcc2145680$128                   main
     000027EE  C$main.c$46$1_1$182                main
     000027F1  A$lcc2145680$132                   main
     000027F1  C$main.c$48$1_1$182                main
     000027F4  A$lcc2145680$136                   main
     000027F4  C$main.c$49$1_1$182                main
     000027F7  A$lcc2145680$140                   main
     000027F7  C$main.c$51$1_1$182                main
     000027FA  A$lcc2145680$144                   main
     000027FA  C$main.c$54$1_2$183                main
     000027FD  A$lcc2145680$145                   main
     00002800  A$lcc2145680$149                   main
     00002800  C$main.c$56$1_2$183                main
     00002803  A$lcc2145680$150                   main
     00002804  A$lcc2145680$151                   main
     00002805  A$lcc2145680$152                   main
     00002806  A$lcc2145680$153                   main
     00002809  A$lcc2145680$154                   main
     0000280B  A$lcc2145680$155                   main
     0000280C  A$lcc2145680$156                   main
     0000280D  A$lcc2145680$157                   main
     0000280E  A$lcc2145680$158                   main
     0000280F  A$lcc2145680$159                   main
     00002812  A$lcc2145680$163                   main
     00002812  C$main.c$58$1_2$183                main
     00002815  A$lcc2145680$168                   main
ASxxxx Linker V03.00/V05.40 + sdld,  page 115.
Hexadecimal  [32-Bits]

Area                                    Addr        Size        Decimal Bytes (Attributes)
--------------------------------        ----        ----        ------- ----- ------------
_CODE                               00000200    00002A48 =       10824. bytes (REL,CON)

      Value  Global                              Global Defined In Module
      -----  --------------------------------   ------------------------
     00002815  C$main.c$60$1_2$183                main
     00002818  A$lcc2145680$169                   main
     00002819  A$lcc2145680$170                   main
     0000281A  A$lcc2145680$171                   main
     0000281B  A$lcc2145680$172                   main
     0000281C  A$lcc2145680$173                   main
     0000281D  A$lcc2145680$174                   main
     0000281E  A$lcc2145680$178                   main
     0000281E  C$main.c$61$2_2$184                main
     00002821  A$lcc2145680$179                   main
     00002824  A$lcc2145680$183                   main
     00002824  C$main.c$62$2_2$184                main
     00002827  A$lcc2145680$184                   main
     0000282A  A$lcc2145680$188                   main
     0000282A  C$main.c$64$3_2$185                main
     0000282C  A$lcc2145680$189                   main
     0000282D  A$lcc2145680$193                   main
     0000282D  C$main.c$65$3_3$186                main
     00002830  A$lcc2145680$194                   main
     00002831  A$lcc2145680$195                   main
     00002832  A$lcc2145680$196                   main
     00002833  A$lcc2145680$197                   main
     00002836  A$lcc2145680$198                   main
     00002837  A$lcc2145680$199                   main
     00002838  A$lcc2145680$200                   main
     0000283A  A$lcc2145680$201                   main
     0000283B  A$lcc2145680$202                   main
     0000283D  A$lcc2145680$206                   main
     0000283D  C$main.c$66$3_3$186                main
     0000283E  A$lcc2145680$207                   main
     00002840  A$lcc2145680$208                   main
     00002841  A$lcc2145680$209                   main
     00002844  A$lcc2145680$214                   main
     00002844  C$main.c$68$2_3$185                main
     00002847  A$lcc2145680$215                   main
     00002848  A$lcc2145680$216                   main
     00002849  A$lcc2145680$217                   main
     0000284A  A$lcc2145680$218                   main
     0000284B  A$lcc2145680$219                   main
     0000284C  A$lcc2145680$220                   main
     0000284D  A$lcc2145680$221                   main
     0000284E  A$lcc2145680$222                   main
     0000284F  A$lcc2145680$223                   main
     00002850  A$lcc2145680$224                   main
     00002851  A$lcc2145680$225                   main
     00002852  A$lcc2145680$226                   main
     00002853  A$lcc2145680$227                   main
     00002854  A$lcc2145680$228                   main
     00002855  A$lcc2145680$229                   main
     00002856  A$lcc2145680$230                   main
     00002859  A$lcc2145680$231                   main
ASxxxx Linker V03.00/V05.40 + sdld,  page 116.
Hexadecimal  [32-Bits]

Area                                    Addr        Size        Decimal Bytes (Attributes)
--------------------------------        ----        ----        ------- ----- ------------
_CODE                               00000200    00002A48 =       10824. bytes (REL,CON)

      Value  Global                              Global Defined In Module
      -----  --------------------------------   ------------------------
     0000285A  A$lcc2145680$232                   main
     0000285B  A$lcc2145680$233                   main
     0000285C  A$lcc2145680$235                   main
     0000285D  A$lcc2145680$239                   main
     0000285D  C$main.c$70$3_3$187                main
     0000285F  A$lcc2145680$240                   main
     00002860  A$lcc2145680$241                   main
     00002862  A$lcc2145680$245                   main
     00002862  C$main.c$71$3_3$187                main
     00002863  A$lcc2145680$246                   main
     00002865  A$lcc2145680$247                   main
     00002868  A$lcc2145680$248                   main
     00002869  A$lcc2145680$253                   main
     00002869  C$main.c$73$2_3$185                main
     0000286C  A$lcc2145680$257                   main
     0000286C  C$main.c$74$2_3$185                main
     0000286F  A$lcc2145680$265                   main
     0000286F  C$main.c$76$1_2$181                main
     0000286F  XG$main$0$0                        main
     00002871  __divsuchar                        divmod
     00002877  __modsuchar                        divmod
     00002880  __divuschar                        divmod
     00002889  __moduschar                        divmod
     00002895  __divschar                         divmod
     0000289A  __modschar                         divmod
     000028A1  __divsint                          divmod
     000028AA  __modsint                          divmod
     000028B6  __divuchar                         divmod
     000028BB  __moduchar                         divmod
     000028C2  __divuint                          divmod
     000028CB  __moduint                          divmod
     000028D7  .div8                              divmod
     000028D7  .mod8                              divmod
     000028DF  .div16                             divmod
     000028DF  .mod16                             divmod
     00002915  .divu8                             divmod
     00002915  .modu8                             divmod
     00002918  .divu16                            divmod
     00002918  .modu16                            divmod
     00002958  _free                              free
     00002A68  ___sdcc_heap_init                  malloc
     00002A8A  _malloc                            malloc
     00002B90  _set_vram_byte                     
     00002B99  _set_win_tile_xy                   
     00002BA2  _set_bkg_tile_xy                   
     00002BD1  __mulsuchar                        mul
     00002BD4  __muluschar                        mul
     00002BDD  __mulschar                         mul
     00002BE5  __mulint                           mul
     00002C04  __muluchar                         mul
     00002C16  ___memcpy                          
ASxxxx Linker V03.00/V05.40 + sdld,  page 117.
Hexadecimal  [32-Bits]

Area                                    Addr        Size        Decimal Bytes (Attributes)
--------------------------------        ----        ----        ------- ----- ------------
_CODE                               00000200    00002A48 =       10824. bytes (REL,CON)

      Value  Global                              Global Defined In Module
      -----  --------------------------------   ------------------------
     00002C16  _memcpy                            
ASxxxx Linker V03.00/V05.40 + sdld,  page 118.
Hexadecimal  [32-Bits]

Area                                    Addr        Size        Decimal Bytes (Attributes)
--------------------------------        ----        ----        ------- ----- ------------
_HEADER0                            00000000    00000001 =           1. bytes (ABS,CON)

      Value  Global                              Global Defined In Module
      -----  --------------------------------   ------------------------
     00000020  .call_hl                           Runtime

ASxxxx Linker V03.00/V05.40 + sdld,  page 119.
Hexadecimal  [32-Bits]

Area                                    Addr        Size        Decimal Bytes (Attributes)
--------------------------------        ----        ----        ------- ----- ------------
_HEADER1                            00000000    00000005 =           5. bytes (ABS,CON)

      Value  Global                              Global Defined In Module
      -----  --------------------------------   ------------------------
     00000028  .MemsetSmall                       Runtime

ASxxxx Linker V03.00/V05.40 + sdld,  page 120.
Hexadecimal  [32-Bits]

Area                                    Addr        Size        Decimal Bytes (Attributes)
--------------------------------        ----        ----        ------- ----- ------------
_HEADER2                            00000000    00000007 =           7. bytes (ABS,CON)

      Value  Global                              Global Defined In Module
      -----  --------------------------------   ------------------------
     00000030  .MemcpySmall                       Runtime

ASxxxx Linker V03.00/V05.40 + sdld,  page 121.
Hexadecimal  [32-Bits]

Area                                    Addr        Size        Decimal Bytes (Attributes)
--------------------------------        ----        ----        ------- ----- ------------
_HEADER3                            00000000    00000008 =           8. bytes (ABS,CON)

      Value  Global                              Global Defined In Module
      -----  --------------------------------   ------------------------
ASxxxx Linker V03.00/V05.40 + sdld,  page 122.
Hexadecimal  [32-Bits]

Area                                    Addr        Size        Decimal Bytes (Attributes)
--------------------------------        ----        ----        ------- ----- ------------
_HEADER4                            00000000    00000060 =          96. bytes (ABS,CON)

      Value  Global                              Global Defined In Module
      -----  --------------------------------   ------------------------
     00000080  .int                               Runtime
     0000008F  _wait_int_handler                  Runtime
     0000009C  __standard_VBL_handler             Runtime
     000000AB  _refresh_OAM                       Runtime
     000000CC  _set_interrupts                    Runtime

ASxxxx Linker V03.00/V05.40 + sdld,  page 123.
Hexadecimal  [32-Bits]

Area                                    Addr        Size        Decimal Bytes (Attributes)
--------------------------------        ----        ----        ------- ----- ------------
_HEADER5                            00000000    00000001 =           1. bytes (ABS,CON)

      Value  Global                              Global Defined In Module
      -----  --------------------------------   ------------------------
ASxxxx Linker V03.00/V05.40 + sdld,  page 124.
Hexadecimal  [32-Bits]

Area                                    Addr        Size        Decimal Bytes (Attributes)
--------------------------------        ----        ----        ------- ----- ------------
_HEADER6                            00000000    00000002 =           2. bytes (ABS,CON)

      Value  Global                              Global Defined In Module
      -----  --------------------------------   ------------------------
ASxxxx Linker V03.00/V05.40 + sdld,  page 125.
Hexadecimal  [32-Bits]

Area                                    Addr        Size        Decimal Bytes (Attributes)
--------------------------------        ----        ----        ------- ----- ------------
_HEADER7                            00000000    00000030 =          48. bytes (ABS,CON)

      Value  Global                              Global Defined In Module
      -----  --------------------------------   ------------------------
ASxxxx Linker V03.00/V05.40 + sdld,  page 126.
Hexadecimal  [32-Bits]

Area                                    Addr        Size        Decimal Bytes (Attributes)
--------------------------------        ----        ----        ------- ----- ------------
_HEADER8                            00000000    00000006 =           6. bytes (ABS,CON)

      Value  Global                              Global Defined In Module
      -----  --------------------------------   ------------------------
ASxxxx Linker V03.00/V05.40 + sdld,  page 127.
Hexadecimal  [32-Bits]

Area                                    Addr        Size        Decimal Bytes (Attributes)
--------------------------------        ----        ----        ------- ----- ------------
_HEADER9                            00000000    00000003 =           3. bytes (ABS,CON)

      Value  Global                              Global Defined In Module
      -----  --------------------------------   ------------------------
ASxxxx Linker V03.00/V05.40 + sdld,  page 128.
Hexadecimal  [32-Bits]

Area                                    Addr        Size        Decimal Bytes (Attributes)
--------------------------------        ----        ----        ------- ----- ------------
_HEADERa                            00000000    00000001 =           1. bytes (ABS,CON)

      Value  Global                              Global Defined In Module
      -----  --------------------------------   ------------------------
ASxxxx Linker V03.00/V05.40 + sdld,  page 129.
Hexadecimal  [32-Bits]

Area                                    Addr        Size        Decimal Bytes (Attributes)
--------------------------------        ----        ----        ------- ----- ------------
_HEADERb                            00000000    00000001 =           1. bytes (ABS,CON)

      Value  Global                              Global Defined In Module
      -----  --------------------------------   ------------------------
ASxxxx Linker V03.00/V05.40 + sdld,  page 130.
Hexadecimal  [32-Bits]

Area                                    Addr        Size        Decimal Bytes (Attributes)
--------------------------------        ----        ----        ------- ----- ------------
_HEADERc                            00000000    00000001 =           1. bytes (ABS,CON)

      Value  Global                              Global Defined In Module
      -----  --------------------------------   ------------------------
ASxxxx Linker V03.00/V05.40 + sdld,  page 131.
Hexadecimal  [32-Bits]

Area                                    Addr        Size        Decimal Bytes (Attributes)
--------------------------------        ----        ----        ------- ----- ------------
_HEADERd                            00000000    00000002 =           2. bytes (ABS,CON)

      Value  Global                              Global Defined In Module
      -----  --------------------------------   ------------------------
ASxxxx Linker V03.00/V05.40 + sdld,  page 132.
Hexadecimal  [32-Bits]

Area                                    Addr        Size        Decimal Bytes (Attributes)
--------------------------------        ----        ----        ------- ----- ------------
_HEADERe                            00000000    00000001 =           1. bytes (ABS,CON)

      Value  Global                              Global Defined In Module
      -----  --------------------------------   ------------------------
ASxxxx Linker V03.00/V05.40 + sdld,  page 133.
Hexadecimal  [32-Bits]

Area                                    Addr        Size        Decimal Bytes (Attributes)
--------------------------------        ----        ----        ------- ----- ------------
_HEADERf                            00000000    00000001 =           1. bytes (ABS,CON)

      Value  Global                              Global Defined In Module
      -----  --------------------------------   ------------------------
ASxxxx Linker V03.00/V05.40 + sdld,  page 134.
Hexadecimal  [32-Bits]

Area                                    Addr        Size        Decimal Bytes (Attributes)
--------------------------------        ----        ----        ------- ----- ------------
_HEADER10                           00000000    00000002 =           2. bytes (ABS,CON)

      Value  Global                              Global Defined In Module
      -----  --------------------------------   ------------------------
ASxxxx Linker V03.00/V05.40 + sdld,  page 135.
Hexadecimal  [32-Bits]

Area                                    Addr        Size        Decimal Bytes (Attributes)
--------------------------------        ----        ----        ------- ----- ------------
_HEADER11                           00000000    000000AB =         171. bytes (ABS,CON)

      Value  Global                              Global Defined In Module
      -----  --------------------------------   ------------------------
     00000150  .reset                             Runtime
     00000150  _reset                             Runtime
     00000157  .code_start                        Runtime
     000001B9  _exit                              Runtime
     000001BD  .wait_vbl_done                     Runtime
     000001BD  _vsync                             Runtime
     000001BD  _wait_vbl_done                     Runtime
     000001CD  .remove_VBL                        Runtime
     000001CD  _remove_VBL                        Runtime
     000001D0  .remove_int                        Runtime
     000001ED  .add_VBL                           Runtime
     000001ED  _add_VBL                           Runtime
     000001F0  .add_int                           Runtime

ASxxxx Linker V03.00/V05.40 + sdld,  page 136.
Hexadecimal  [32-Bits]

Area                                    Addr        Size        Decimal Bytes (Attributes)
--------------------------------        ----        ----        ------- ----- ------------
_HOME                               00002C48    0000012C =         300. bytes (REL,CON)

      Value  Global                              Global Defined In Module
      -----  --------------------------------   ------------------------
     00002C48  .memset_simple                     Runtime
     00002C51  .memcpy_simple                     Runtime
     00002C6E  .display_off                       Runtime
     00002C6E  _display_off                       Runtime
     00002C86  _set_tile_data                     
     00002C8B  _set_bkg_data                      
     00002C8B  _set_win_data                      
     00002C93  _set_sprite_data                   
     00002CC3  .padup                             
     00002CC3  _waitpadup                         
     00002CD3  .jpad                              
     00002CD3  _joypad                            
     00002CFB  _waitpad                           
     00002CFC  .wait_pad                          
     00002D03  ___sdcc_call_hl                    call_hl
     00002D04  _set_bkg_tiles                     
     00002D18  .set_xy_wtt                        SetTileMap
     00002D21  .set_xy_btt                        SetTileMap
     00002D30  .set_xy_tt                         SetTileMap

ASxxxx Linker V03.00/V05.40 + sdld,  page 137.
Hexadecimal  [32-Bits]

Area                                    Addr        Size        Decimal Bytes (Attributes)
--------------------------------        ----        ----        ------- ----- ------------
_INITIALIZER                        00002D74    00000239 =         569. bytes (REL,CON)

      Value  Global                              Global Defined In Module
      -----  --------------------------------   ------------------------
     00002D74  Fspr_InventoryArrow_idle$__xinit   spr_InventoryArrow_idle
     00002D84  Fbroom$__xinit_spr_broom_00$0_0$   broom
     00002D94  Fbroom$__xinit_spr_broom_01$0_0$   broom
     00002DA4  Fspr_garbage$__xinit_spr_garbage   spr_garbage
     00002DB4  Fleaf$__xinit_spr_leaf_00$0_0$0    leaf
     00002DC4  Fexample_npc$__xinit_spr_example   example_npc
     00002DD4  Fexample_npc$__xinit_spr_example   example_npc
     00002DE4  Fexample_npc$__xinit_spr_example   example_npc
     00002DF4  Fexample_npc$__xinit_spr_example   example_npc
     00002E04  Fspr_Player_down0$__xinit_spr_Pl   spr_Player_down0
     00002E14  Fspr_Player_down0$__xinit_spr_Pl   spr_Player_down0
     00002E24  Fspr_Player_down0$__xinit_spr_Pl   spr_Player_down0
     00002E34  Fspr_Player_down0$__xinit_spr_Pl   spr_Player_down0
     00002E44  Fspr_Player_down1$__xinit_spr_Pl   spr_Player_down1
     00002E54  Fspr_Player_down1$__xinit_spr_Pl   spr_Player_down1
     00002E64  Fspr_Player_down1$__xinit_spr_Pl   spr_Player_down1
     00002E74  Fspr_Player_down1$__xinit_spr_Pl   spr_Player_down1
     00002E84  Fspr_Player_down2$__xinit_spr_Pl   spr_Player_down2
     00002E94  Fspr_Player_down2$__xinit_spr_Pl   spr_Player_down2
     00002EA4  Fspr_Player_down2$__xinit_spr_Pl   spr_Player_down2
     00002EB4  Fspr_Player_down2$__xinit_spr_Pl   spr_Player_down2
     00002EC4  Fspr_Player_up0$__xinit_spr_Play   spr_Player_up0
     00002ED4  Fspr_Player_up0$__xinit_spr_Play   spr_Player_up0
     00002EE4  Fspr_Player_up0$__xinit_spr_Play   spr_Player_up0
     00002EF4  Fspr_Player_up0$__xinit_spr_Play   spr_Player_up0
     00002F04  Fspr_Player_up1$__xinit_spr_Play   spr_Player_up1
     00002F14  Fspr_Player_up1$__xinit_spr_Play   spr_Player_up1
     00002F24  Fspr_Player_up1$__xinit_spr_Play   spr_Player_up1
     00002F34  Fspr_Player_up1$__xinit_spr_Play   spr_Player_up1
     00002F44  Fspr_Player_up2$__xinit_spr_Play   spr_Player_up2
     00002F54  Fspr_Player_up2$__xinit_spr_Play   spr_Player_up2
     00002F64  Fspr_Player_up2$__xinit_spr_Play   spr_Player_up2
     00002F74  Fspr_Player_up2$__xinit_spr_Play   spr_Player_up2
     00002F84  Faction$__xinit_current_directio   action
     00002F85  Fcan_move$__xinit_can_move$0_0$0   can_move
     00002F89  Fentity$__xinit_next_entity_id$0   entity
     00002F8A  Fextra_actors$__xinit_extra_acto   extra_actors
     00002F8B  Fgender_selection$__xinit_GENDER   gender_selection
     00002F8C  Finput$__xinit_keys$0_0$0          input
     00002F8D  Finput$__xinit_prev_keys$0_0$0     input
     00002F8E  Finventory$__xinit_inventory_act   inventory
     00002F8F  Finventory$__xinit_active_item$0   inventory
     00002F90  Finventory$__xinit_selected_item   inventory
     00002F91  Finventory$__xinit_closing$0_0$0   inventory
     00002F92  Fload$__xinit_vram_next_index$0_   load
     00002F93  Fload$__xinit_vram_extra_start$0   load
     00002F94  Fminigames$__xinit_minigame_list   minigames
     00002F95  Fmoney$__xinit_money$0_0$0         money
     00002F97  Frandom$__xinit_seed$0_0$0         random
     00002F99  Fscene_manager$__xinit_is_transi   scene_manager
ASxxxx Linker V03.00/V05.40 + sdld,  page 138.
Hexadecimal  [32-Bits]

Area                                    Addr        Size        Decimal Bytes (Attributes)
--------------------------------        ----        ----        ------- ----- ------------
_INITIALIZER                        00002D74    00000239 =         569. bytes (REL,CON)

      Value  Global                              Global Defined In Module
      -----  --------------------------------   ------------------------
     00002F9A  Fmain_menu$__xinit_timer$0_0$0     main_menu
     00002F9C  Fmain_menu$__xinit_rate$0_0$0      main_menu
     00002F9D  Fmain_menu$__xinit_show_text$0_0   main_menu
     00002F9E  Fmg_load_screen$__xinit_mgl_curr   mg_load_screen
     00002F9F  Fmg_load_screen$__xinit_mgl_targ   mg_load_screen
     00002FA0  Fmg_load_screen$__xinit_mgl_acti   mg_load_screen
     00002FA1  Fmg_load_screen$__xinit_mgl_init   mg_load_screen
     00002FA2  Fmg_timer$__xinit_mgt_current_fr   mg_timer
     00002FA4  Fmg_timer$__xinit_mgt_target_fra   mg_timer
     00002FA6  Fmg_timer$__xinit_mgt_running$0_   mg_timer
     00002FA7  Fmg_timer$__xinit_mgt_alarm$0_0$   mg_timer
     00002FA8  Fmg_leaves_init$__xinit_SWEEPING   mg_leaves_init
     00002FA9  Fmg_leaves_init$__xinit_score$0_   mg_leaves_init
     00002FAA  Fmg_leaves_init$__xinit_score_ca   mg_leaves_init
     00002FAB  Fmg_leaves_init$__xinit_next_spa   mg_leaves_init

ASxxxx Linker V03.00/V05.40 + sdld,  page 139.
Hexadecimal  [32-Bits]

Area                                    Addr        Size        Decimal Bytes (Attributes)
--------------------------------        ----        ----        ------- ----- ------------
_GSINIT                             00002FAD    0000000F =          15. bytes (REL,CON)

      Value  Global                              Global Defined In Module
      -----  --------------------------------   ------------------------
     00002FAD  gsinit                             Runtime

ASxxxx Linker V03.00/V05.40 + sdld,  page 140.
Hexadecimal  [32-Bits]

Area                                    Addr        Size        Decimal Bytes (Attributes)
--------------------------------        ----        ----        ------- ----- ------------
_GSFINAL                            00002FBC    00000001 =           1. bytes (REL,CON)

      Value  Global                              Global Defined In Module
      -----  --------------------------------   ------------------------
ASxxxx Linker V03.00/V05.40 + sdld,  page 141.
Hexadecimal  [32-Bits]

Area                                    Addr        Size        Decimal Bytes (Attributes)
--------------------------------        ----        ----        ------- ----- ------------
_DATA                               0000C0A0    00000319 =         793. bytes (REL,CON)

      Value  Global                              Global Defined In Module
      -----  --------------------------------   ------------------------
     0000C0A0  __cpu                              Runtime
     0000C0A1  __is_GBA                           Runtime
     0000C0A2  .mode                              Runtime
     0000C0A3  .sys_time                          Runtime
     0000C0A3  _sys_time                          Runtime
     0000C0A5  .int_0x40                          Runtime
     0000C0B1  G$animation$0_0$0                  animation
     0000C0B1  _animation                         animation
     0000C208  G$extra_actors$0_0$0               extra_actors
     0000C208  _extra_actors                      extra_actors
     0000C244  G$inventory$0_0$0                  inventory
     0000C244  _inventory                         inventory
     0000C24C  G$names$0_0$0                      name
     0000C24C  _names                             name
     0000C292  G$npc_1$0_0$0                      npcs
     0000C292  _npc_1                             npcs
     0000C293  G$npc_2$0_0$0                      npcs
     0000C293  _npc_2                             npcs
     0000C294  G$option_actor$0_0$0               npcs
     0000C294  _option_actor                      npcs
     0000C295  G$humor_stats$0_0$0                npcs
     0000C295  _humor_stats                       npcs
     0000C2A4  G$CurrentNPCDialogues$0_0$0        npc_lines
     0000C2A4  _CurrentNPCDialogues               npc_lines
     0000C2A8  G$player$0_0$0                     player
     0000C2A8  _player                            player
     0000C2A9  G$mg_player$0_0$0                  player
     0000C2A9  _mg_player                         player
     0000C2AA  G$player_animations$0_0$0          player
     0000C2AA  _player_animations                 player
     0000C2AE  G$player_y_cache$0_0$0             player
     0000C2AE  _player_y_cache                    player
     0000C2AF  G$position$0_0$0                   position
     0000C2AF  _position                          position
     0000C2D9  G$cache$0_0$0                      position
     0000C2D9  _cache                             position
     0000C30A  G$actual_tile$0_0$0                position
     0000C30A  _actual_tile                       position
     0000C30E  G$render$0_0$0                     render
     0000C30E  _render                            render
     0000C323  G$scene_manager$0_0$0              scene_manager
     0000C323  _scene_manager                     scene_manager
     0000C327  G$speed$0_0$0                      speed
     0000C327  _speed                             speed
     0000C335  G$GenderSelect$0_0$0               gender_select
     0000C335  _GenderSelect                      gender_select
     0000C33E  G$InventoryScene$0_0$0             inventory_scene
     0000C33E  _InventoryScene                    inventory_scene
     0000C347  G$MainMenu$0_0$0                   main_menu
     0000C347  _MainMenu                          main_menu
ASxxxx Linker V03.00/V05.40 + sdld,  page 142.
Hexadecimal  [32-Bits]

Area                                    Addr        Size        Decimal Bytes (Attributes)
--------------------------------        ----        ----        ------- ----- ------------
_DATA                               0000C0A0    00000319 =         793. bytes (REL,CON)

      Value  Global                              Global Defined In Module
      -----  --------------------------------   ------------------------
     0000C350  G$CurrentMapData$0_0$0             map_data
     0000C350  _CurrentMapData                    map_data
     0000C362  G$Map_00$0_0$0                     map_00
     0000C362  _Map_00                            map_00
     0000C36B  G$Mg_Leaves$0_0$0                  mg_leaves
     0000C36B  _Mg_Leaves                         mg_leaves
     0000C374  G$actor_ids$0_0$0                  mg_leaves_init
     0000C374  _actor_ids                         mg_leaves_init
     0000C379  G$actor_x$0_0$0                    mg_leaves_init
     0000C379  _actor_x                           mg_leaves_init
     0000C37E  G$actor_y$0_0$0                    mg_leaves_init
     0000C37E  _actor_y                           mg_leaves_init
     0000C383  G$fixed_y$0_0$0                    mg_leaves_init
     0000C383  _fixed_y                           mg_leaves_init
     0000C38D  G$actor_active$0_0$0               mg_leaves_init
     0000C38D  _actor_active                      mg_leaves_init
     0000C392  G$actor_timer$0_0$0                mg_leaves_init
     0000C392  _actor_timer                       mg_leaves_init
     0000C397  G$actor_spawner$0_0$0              mg_leaves_init
     0000C397  _actor_spawner                     mg_leaves_init
     0000C3A1  G$actor_spawn_x$0_0$0              mg_leaves_init
     0000C3A1  _actor_spawn_x                     mg_leaves_init
     0000C3A6  G$actor_state$0_0$0                mg_leaves_init
     0000C3A6  _actor_state                       mg_leaves_init
     0000C3AB  G$mg_leaves_DATA$0_0$0             mg_leaves_init
     0000C3AB  _mg_leaves_DATA                    mg_leaves_init
     0000C3AE  G$available_x$0_0$0                mg_leaves_init
     0000C3AE  _available_x                       mg_leaves_init
     0000C3B3  Lmain.main$game$1_1$182            main
     0000C3B7  ___sdcc_heap_free                  malloc

ASxxxx Linker V03.00/V05.40 + sdld,  page 143.
Hexadecimal  [32-Bits]

Area                                    Addr        Size        Decimal Bytes (Attributes)
--------------------------------        ----        ----        ------- ----- ------------
_INITIALIZED                        0000C3B9    00000239 =         569. bytes (REL,CON)

      Value  Global                              Global Defined In Module
      -----  --------------------------------   ------------------------
     0000C3B9  G$spr_InventoryArrow_idle$0_0$0    spr_InventoryArrow_idle
     0000C3B9  _spr_InventoryArrow_idle           spr_InventoryArrow_idle
     0000C3C9  G$spr_broom_00$0_0$0               broom
     0000C3C9  _spr_broom_00                      broom
     0000C3D9  G$spr_broom_01$0_0$0               broom
     0000C3D9  _spr_broom_01                      broom
     0000C3E9  G$spr_garbage_00$0_0$0             spr_garbage
     0000C3E9  _spr_garbage_00                    spr_garbage
     0000C3F9  G$spr_leaf_00$0_0$0                leaf
     0000C3F9  _spr_leaf_00                       leaf
     0000C409  G$spr_example_NPC_00$0_0$0         example_npc
     0000C409  _spr_example_NPC_00                example_npc
     0000C419  G$spr_example_NPC_01$0_0$0         example_npc
     0000C419  _spr_example_NPC_01                example_npc
     0000C429  G$spr_example_NPC_10$0_0$0         example_npc
     0000C429  _spr_example_NPC_10                example_npc
     0000C439  G$spr_example_NPC_11$0_0$0         example_npc
     0000C439  _spr_example_NPC_11                example_npc
     0000C449  G$spr_Player_down0_00$0_0$0        spr_Player_down0
     0000C449  _spr_Player_down0_00               spr_Player_down0
     0000C459  G$spr_Player_down0_10$0_0$0        spr_Player_down0
     0000C459  _spr_Player_down0_10               spr_Player_down0
     0000C469  G$spr_Player_down0_01$0_0$0        spr_Player_down0
     0000C469  _spr_Player_down0_01               spr_Player_down0
     0000C479  G$spr_Player_down0_11$0_0$0        spr_Player_down0
     0000C479  _spr_Player_down0_11               spr_Player_down0
     0000C489  G$spr_Player_down1_00$0_0$0        spr_Player_down1
     0000C489  _spr_Player_down1_00               spr_Player_down1
     0000C499  G$spr_Player_down1_10$0_0$0        spr_Player_down1
     0000C499  _spr_Player_down1_10               spr_Player_down1
     0000C4A9  G$spr_Player_down1_01$0_0$0        spr_Player_down1
     0000C4A9  _spr_Player_down1_01               spr_Player_down1
     0000C4B9  G$spr_Player_down1_11$0_0$0        spr_Player_down1
     0000C4B9  _spr_Player_down1_11               spr_Player_down1
     0000C4C9  G$spr_Player_down2_00$0_0$0        spr_Player_down2
     0000C4C9  _spr_Player_down2_00               spr_Player_down2
     0000C4D9  G$spr_Player_down2_10$0_0$0        spr_Player_down2
     0000C4D9  _spr_Player_down2_10               spr_Player_down2
     0000C4E9  G$spr_Player_down2_01$0_0$0        spr_Player_down2
     0000C4E9  _spr_Player_down2_01               spr_Player_down2
     0000C4F9  G$spr_Player_down2_11$0_0$0        spr_Player_down2
     0000C4F9  _spr_Player_down2_11               spr_Player_down2
     0000C509  G$spr_Player_up0_00$0_0$0          spr_Player_up0
     0000C509  _spr_Player_up0_00                 spr_Player_up0
     0000C519  G$spr_Player_up0_10$0_0$0          spr_Player_up0
     0000C519  _spr_Player_up0_10                 spr_Player_up0
     0000C529  G$spr_Player_up0_01$0_0$0          spr_Player_up0
     0000C529  _spr_Player_up0_01                 spr_Player_up0
     0000C539  G$spr_Player_up0_11$0_0$0          spr_Player_up0
     0000C539  _spr_Player_up0_11                 spr_Player_up0
ASxxxx Linker V03.00/V05.40 + sdld,  page 144.
Hexadecimal  [32-Bits]

Area                                    Addr        Size        Decimal Bytes (Attributes)
--------------------------------        ----        ----        ------- ----- ------------
_INITIALIZED                        0000C3B9    00000239 =         569. bytes (REL,CON)

      Value  Global                              Global Defined In Module
      -----  --------------------------------   ------------------------
     0000C549  G$spr_Player_up1_00$0_0$0          spr_Player_up1
     0000C549  _spr_Player_up1_00                 spr_Player_up1
     0000C559  G$spr_Player_up1_10$0_0$0          spr_Player_up1
     0000C559  _spr_Player_up1_10                 spr_Player_up1
     0000C569  G$spr_Player_up1_01$0_0$0          spr_Player_up1
     0000C569  _spr_Player_up1_01                 spr_Player_up1
     0000C579  G$spr_Player_up1_11$0_0$0          spr_Player_up1
     0000C579  _spr_Player_up1_11                 spr_Player_up1
     0000C589  G$spr_Player_up2_00$0_0$0          spr_Player_up2
     0000C589  _spr_Player_up2_00                 spr_Player_up2
     0000C599  G$spr_Player_up2_10$0_0$0          spr_Player_up2
     0000C599  _spr_Player_up2_10                 spr_Player_up2
     0000C5A9  G$spr_Player_up2_01$0_0$0          spr_Player_up2
     0000C5A9  _spr_Player_up2_01                 spr_Player_up2
     0000C5B9  G$spr_Player_up2_11$0_0$0          spr_Player_up2
     0000C5B9  _spr_Player_up2_11                 spr_Player_up2
     0000C5C9  G$current_direction$0_0$0          action
     0000C5C9  _current_direction                 action
     0000C5CA  G$can_move$0_0$0                   can_move
     0000C5CA  _can_move                          can_move
     0000C5CE  G$next_entity_id$0_0$0             entity
     0000C5CE  _next_entity_id                    entity
     0000C5CF  G$extra_actor_index$0_0$0          extra_actors
     0000C5CF  _extra_actor_index                 extra_actors
     0000C5D0  G$GENDER$0_0$0                     gender_selection
     0000C5D0  _GENDER                            gender_selection
     0000C5D1  G$keys$0_0$0                       input
     0000C5D1  _keys                              input
     0000C5D2  G$prev_keys$0_0$0                  input
     0000C5D2  _prev_keys                         input
     0000C5D3  G$inventory_active$0_0$0           inventory
     0000C5D3  _inventory_active                  inventory
     0000C5D4  G$active_item$0_0$0                inventory
     0000C5D4  _active_item                       inventory
     0000C5D5  G$selected_item$0_0$0              inventory
     0000C5D5  _selected_item                     inventory
     0000C5D6  G$closing$0_0$0                    inventory
     0000C5D6  _closing                           inventory
     0000C5D7  G$vram_next_index$0_0$0            load
     0000C5D7  _vram_next_index                   load
     0000C5D8  G$vram_extra_start$0_0$0           load
     0000C5D8  _vram_extra_start                  load
     0000C5D9  G$minigame_list$0_0$0              minigames
     0000C5D9  _minigame_list                     minigames
     0000C5DA  G$money$0_0$0                      money
     0000C5DA  _money                             money
     0000C5DC  G$seed$0_0$0                       random
     0000C5DC  _seed                              random
     0000C5DE  G$is_transitioning$0_0$0           scene_manager
     0000C5DE  _is_transitioning                  scene_manager
     0000C5DF  G$timer$0_0$0                      main_menu
ASxxxx Linker V03.00/V05.40 + sdld,  page 145.
Hexadecimal  [32-Bits]

Area                                    Addr        Size        Decimal Bytes (Attributes)
--------------------------------        ----        ----        ------- ----- ------------
_INITIALIZED                        0000C3B9    00000239 =         569. bytes (REL,CON)

      Value  Global                              Global Defined In Module
      -----  --------------------------------   ------------------------
     0000C5DF  _timer                             main_menu
     0000C5E1  G$rate$0_0$0                       main_menu
     0000C5E1  _rate                              main_menu
     0000C5E2  G$show_text$0_0$0                  main_menu
     0000C5E2  _show_text                         main_menu
     0000C5E3  G$mgl_current_frame$0_0$0          mg_load_screen
     0000C5E3  _mgl_current_frame                 mg_load_screen
     0000C5E4  G$mgl_target_frame$0_0$0           mg_load_screen
     0000C5E4  _mgl_target_frame                  mg_load_screen
     0000C5E5  G$mgl_active$0_0$0                 mg_load_screen
     0000C5E5  _mgl_active                        mg_load_screen
     0000C5E6  G$mgl_initialized$0_0$0            mg_load_screen
     0000C5E6  _mgl_initialized                   mg_load_screen
     0000C5E7  G$mgt_current_frame$0_0$0          mg_timer
     0000C5E7  _mgt_current_frame                 mg_timer
     0000C5E9  G$mgt_target_frame$0_0$0           mg_timer
     0000C5E9  _mgt_target_frame                  mg_timer
     0000C5EB  G$mgt_running$0_0$0                mg_timer
     0000C5EB  _mgt_running                       mg_timer
     0000C5EC  G$mgt_alarm$0_0$0                  mg_timer
     0000C5EC  _mgt_alarm                         mg_timer
     0000C5ED  G$SWEEPING_FLAG$0_0$0              mg_leaves_init
     0000C5ED  _SWEEPING_FLAG                     mg_leaves_init
     0000C5EE  G$score$0_0$0                      mg_leaves_init
     0000C5EE  _score                             mg_leaves_init
     0000C5EF  G$score_cache$0_0$0                mg_leaves_init
     0000C5EF  _score_cache                       mg_leaves_init
     0000C5F0  G$next_spawn_idx$0_0$0             mg_leaves_init
     0000C5F0  _next_spawn_idx                    mg_leaves_init
     0000C5F1  __map_tile_offset                  SetTileMap

ASxxxx Linker V03.00/V05.40 + sdld,  page 146.
Hexadecimal  [32-Bits]

Area                                    Addr        Size        Decimal Bytes (Attributes)
--------------------------------        ----        ----        ------- ----- ------------
_HEAP                               0000C5F2    000007FF =        2047. bytes (REL,CON)

      Value  Global                              Global Defined In Module
      -----  --------------------------------   ------------------------
     0000C5F2  ___sdcc_heap                       

ASxxxx Linker V03.00/V05.40 + sdld,  page 147.
Hexadecimal  [32-Bits]

Area                                    Addr        Size        Decimal Bytes (Attributes)
--------------------------------        ----        ----        ------- ----- ------------
_HEAP_END                           0000CDF1    00000001 =           1. bytes (REL,CON)

      Value  Global                              Global Defined In Module
      -----  --------------------------------   ------------------------
     0000CDF1  ___sdcc_heap_end                   

ASxxxx Linker V03.00/V05.40 + sdld,  page 148.
Hexadecimal  [32-Bits]

Area                                    Addr        Size        Decimal Bytes (Attributes)
--------------------------------        ----        ----        ------- ----- ------------
_HRAM                               0000FF80    00000013 =          19. bytes (REL,CON)

      Value  Global                              Global Defined In Module
      -----  --------------------------------   ------------------------
     0000FF80  .refresh_OAM                       Runtime
     0000FF90  __current_bank                     Runtime
     0000FF91  __vbl_done                         Runtime
     0000FF92  __shadow_OAM_base                  Runtime

ASxxxx Linker V03.00/V05.40 + sdld,  page 149.
Hexadecimal  [32-Bits]

Area                                    Addr        Size        Decimal Bytes (Attributes)
--------------------------------        ----        ----        ------- ----- ------------
_CODE_1                             00014000    00001220 =        4640. bytes (REL,CON)

      Value  Global                              Global Defined In Module
      -----  --------------------------------   ------------------------
     00014000  G$inventory_bkg_tileset$0_0$0      inventory_bkg
     00014000  _inventory_bkg_tileset             inventory_bkg
     00014340  G$inventory_bkg_tilemap$0_0$0      inventory_bkg
     00014340  _inventory_bkg_tilemap             inventory_bkg
     000144A8  G$bkg_main_menu_tileset$0_0$0      bkg_MainMenu
     000144A8  _bkg_main_menu_tileset             bkg_MainMenu
     00014768  G$bkg_main_menu_tilemap$0_0$0      bkg_MainMenu
     00014768  _bkg_main_menu_tilemap             bkg_MainMenu
     000148D0  G$example_tileset$0_0$0            map_example
     000148D0  _example_tileset                   map_example
     00014D80  G$example_tilemap$0_0$0            map_example
     00014D80  _example_tilemap                   map_example
     00014EE8  G$template_tileset$0_0$0           template_tileset
     00014EE8  _template_tileset                  template_tileset
     000150B8  G$template_tilemap$0_0$0           template_tileset
     000150B8  _template_tilemap                  template_tileset

ASxxxx Linker V03.00/V05.40 + sdld,  page 150.
Hexadecimal  [32-Bits]

Area                                    Addr        Size        Decimal Bytes (Attributes)
--------------------------------        ----        ----        ------- ----- ------------
_CODE_2                             00024000    00000DE1 =        3553. bytes (REL,CON)

      Value  Global                              Global Defined In Module
      -----  --------------------------------   ------------------------
     00024000  G$bkg_leaves_example_tileset$0_0   bkg_leaves_example
     00024000  _bkg_leaves_example_tileset        bkg_leaves_example
     00024420  G$bkg_leaves_example_tilemap$0_0   bkg_leaves_example
     00024420  _bkg_leaves_example_tilemap        bkg_leaves_example
     00024588  A$lcc2145676$121                   mg_leaves_init
     00024588  C$mg_leaves_init.c$45$0_0$174      mg_leaves_init
     00024588  G$Mg_Leaves_Init$0$0               mg_leaves_init
     00024588  _Mg_Leaves_Init                    mg_leaves_init
     0002458A  A$lcc2145676$125                   mg_leaves_init
     0002458A  C$mg_leaves_init.c$47$1_0$174      mg_leaves_init
     0002458D  A$lcc2145676$126                   mg_leaves_init
     0002458F  A$lcc2145676$127                   mg_leaves_init
     00024590  A$lcc2145676$131                   mg_leaves_init
     00024590  C$mg_leaves_init.c$48$1_0$174      mg_leaves_init
     00024591  A$lcc2145676$132                   mg_leaves_init
     00024592  A$lcc2145676$133                   mg_leaves_init
     00024593  A$lcc2145676$134                   mg_leaves_init
     00024595  A$lcc2145676$138                   mg_leaves_init
     00024595  C$mg_leaves_init.c$49$1_0$174      mg_leaves_init
     00024596  A$lcc2145676$139                   mg_leaves_init
     00024597  A$lcc2145676$140                   mg_leaves_init
     00024598  A$lcc2145676$141                   mg_leaves_init
     00024599  A$lcc2145676$142                   mg_leaves_init
     0002459B  A$lcc2145676$146                   mg_leaves_init
     0002459B  C$mg_leaves_init.c$51$1_0$174      mg_leaves_init
     0002459E  A$lcc2145676$147                   mg_leaves_init
     0002459F  A$lcc2145676$148                   mg_leaves_init
     000245A0  A$lcc2145676$149                   mg_leaves_init
     000245A1  A$lcc2145676$150                   mg_leaves_init
     000245A2  A$lcc2145676$154                   mg_leaves_init
     000245A2  C$mg_leaves_init.c$53$2_0$175      mg_leaves_init
     000245A5  A$lcc2145676$155                   mg_leaves_init
     000245A6  A$lcc2145676$156                   mg_leaves_init
     000245A8  A$lcc2145676$160                   mg_leaves_init
     000245A8  C$mg_leaves_init.c$54$2_0$175      mg_leaves_init
     000245AB  A$lcc2145676$165                   mg_leaves_init
     000245AB  C$mg_leaves_init.c$56$2_0$176      mg_leaves_init
     000245AD  A$lcc2145676$166                   mg_leaves_init
     000245AF  A$lcc2145676$167                   mg_leaves_init
     000245B0  A$lcc2145676$168                   mg_leaves_init
     000245B2  A$lcc2145676$169                   mg_leaves_init
     000245B3  A$lcc2145676$170                   mg_leaves_init
     000245B5  A$lcc2145676$171                   mg_leaves_init
     000245B6  A$lcc2145676$172                   mg_leaves_init
     000245B7  A$lcc2145676$173                   mg_leaves_init
     000245B9  A$lcc2145676$174                   mg_leaves_init
     000245BA  A$lcc2145676$175                   mg_leaves_init
     000245BC  A$lcc2145676$176                   mg_leaves_init
     000245BD  A$lcc2145676$177                   mg_leaves_init
     000245BF  A$lcc2145676$178                   mg_leaves_init
ASxxxx Linker V03.00/V05.40 + sdld,  page 151.
Hexadecimal  [32-Bits]

Area                                    Addr        Size        Decimal Bytes (Attributes)
--------------------------------        ----        ----        ------- ----- ------------
_CODE_2                             00024000    00000DE1 =        3553. bytes (REL,CON)

      Value  Global                              Global Defined In Module
      -----  --------------------------------   ------------------------
     000245C0  A$lcc2145676$179                   mg_leaves_init
     000245C2  A$lcc2145676$180                   mg_leaves_init
     000245C3  A$lcc2145676$181                   mg_leaves_init
     000245C5  A$lcc2145676$182                   mg_leaves_init
     000245C6  A$lcc2145676$183                   mg_leaves_init
     000245C7  A$lcc2145676$184                   mg_leaves_init
     000245C8  A$lcc2145676$185                   mg_leaves_init
     000245C9  A$lcc2145676$186                   mg_leaves_init
     000245CB  A$lcc2145676$190                   mg_leaves_init
     000245CB  C$mg_leaves_init.c$57$1_3$174      mg_leaves_init
     000245CE  A$lcc2145676$191                   mg_leaves_init
     000245CF  A$lcc2145676$192                   mg_leaves_init
     000245D0  A$lcc2145676$193                   mg_leaves_init
     000245D1  A$lcc2145676$194                   mg_leaves_init
     000245D4  A$lcc2145676$198                   mg_leaves_init
     000245D4  C$mg_leaves_init.c$59$1_1$176      mg_leaves_init
     000245D7  A$lcc2145676$202                   mg_leaves_init
     000245D7  C$mg_leaves_init.c$61$1_1$176      mg_leaves_init
     000245DA  A$lcc2145676$206                   mg_leaves_init
     000245DA  C$mg_leaves_init.c$62$1_1$176      mg_leaves_init
     000245DD  A$lcc2145676$207                   mg_leaves_init
     000245DE  A$lcc2145676$208                   mg_leaves_init
     000245DF  A$lcc2145676$209                   mg_leaves_init
     000245E0  A$lcc2145676$210                   mg_leaves_init
     000245E3  A$lcc2145676$214                   mg_leaves_init
     000245E3  C$mg_leaves_init.c$64$1_1$176      mg_leaves_init
     000245E6  A$lcc2145676$218                   mg_leaves_init
     000245E6  C$mg_leaves_init.c$66$3_1$178      mg_leaves_init
     000245E8  A$lcc2145676$219                   mg_leaves_init
     000245EA  A$lcc2145676$221                   mg_leaves_init
     000245EC  A$lcc2145676$222                   mg_leaves_init
     000245ED  A$lcc2145676$223                   mg_leaves_init
     000245EF  A$lcc2145676$224                   mg_leaves_init
     000245F1  A$lcc2145676$228                   mg_leaves_init
     000245F1  C$mg_leaves_init.c$69$3_1$178      mg_leaves_init
     000245F4  A$lcc2145676$229                   mg_leaves_init
     000245F5  A$lcc2145676$230                   mg_leaves_init
     000245F7  A$lcc2145676$231                   mg_leaves_init
     000245F8  A$lcc2145676$232                   mg_leaves_init
     000245F9  A$lcc2145676$233                   mg_leaves_init
     000245FA  A$lcc2145676$234                   mg_leaves_init
     000245FC  A$lcc2145676$235                   mg_leaves_init
     000245FD  A$lcc2145676$236                   mg_leaves_init
     000245FE  A$lcc2145676$237                   mg_leaves_init
     000245FF  A$lcc2145676$238                   mg_leaves_init
     00024601  A$lcc2145676$239                   mg_leaves_init
     00024602  A$lcc2145676$240                   mg_leaves_init
     00024603  A$lcc2145676$241                   mg_leaves_init
     00024604  A$lcc2145676$242                   mg_leaves_init
     00024606  A$lcc2145676$243                   mg_leaves_init
     00024608  A$lcc2145676$244                   mg_leaves_init
ASxxxx Linker V03.00/V05.40 + sdld,  page 152.
Hexadecimal  [32-Bits]

Area                                    Addr        Size        Decimal Bytes (Attributes)
--------------------------------        ----        ----        ------- ----- ------------
_CODE_2                             00024000    00000DE1 =        3553. bytes (REL,CON)

      Value  Global                              Global Defined In Module
      -----  --------------------------------   ------------------------
     0002460A  A$lcc2145676$245                   mg_leaves_init
     0002460B  A$lcc2145676$246                   mg_leaves_init
     0002460C  A$lcc2145676$247                   mg_leaves_init
     0002460D  A$lcc2145676$248                   mg_leaves_init
     0002460E  A$lcc2145676$249                   mg_leaves_init
     0002460F  A$lcc2145676$253                   mg_leaves_init
     0002460F  C$mg_leaves_init.c$72$3_1$178      mg_leaves_init
     00024612  A$lcc2145676$254                   mg_leaves_init
     00024614  A$lcc2145676$255                   mg_leaves_init
     00024615  A$lcc2145676$256                   mg_leaves_init
     00024617  A$lcc2145676$257                   mg_leaves_init
     00024618  A$lcc2145676$258                   mg_leaves_init
     00024619  A$lcc2145676$259                   mg_leaves_init
     0002461A  A$lcc2145676$260                   mg_leaves_init
     0002461B  A$lcc2145676$261                   mg_leaves_init
     0002461C  A$lcc2145676$265                   mg_leaves_init
     0002461C  C$mg_leaves_init.c$73$3_1$178      mg_leaves_init
     0002461F  A$lcc2145676$266                   mg_leaves_init
     00024621  A$lcc2145676$267                   mg_leaves_init
     00024622  A$lcc2145676$268                   mg_leaves_init
     00024624  A$lcc2145676$269                   mg_leaves_init
     00024625  A$lcc2145676$270                   mg_leaves_init
     00024627  A$lcc2145676$274                   mg_leaves_init
     00024627  C$mg_leaves_init.c$74$3_1$178      mg_leaves_init
     0002462A  A$lcc2145676$275                   mg_leaves_init
     0002462C  A$lcc2145676$276                   mg_leaves_init
     0002462D  A$lcc2145676$277                   mg_leaves_init
     0002462F  A$lcc2145676$278                   mg_leaves_init
     00024630  A$lcc2145676$279                   mg_leaves_init
     00024631  A$lcc2145676$280                   mg_leaves_init
     00024632  A$lcc2145676$281                   mg_leaves_init
     00024633  A$lcc2145676$282                   mg_leaves_init
     00024634  A$lcc2145676$286                   mg_leaves_init
     00024634  C$mg_leaves_init.c$66$2_1$177      mg_leaves_init
     00024636  A$lcc2145676$287                   mg_leaves_init
     00024637  A$lcc2145676$288                   mg_leaves_init
     00024639  A$lcc2145676$293                   mg_leaves_init
     00024639  C$mg_leaves_init.c$78$3_1$180      mg_leaves_init
     0002463B  A$lcc2145676$295                   mg_leaves_init
     0002463D  A$lcc2145676$296                   mg_leaves_init
     0002463E  A$lcc2145676$297                   mg_leaves_init
     00024640  A$lcc2145676$301                   mg_leaves_init
     00024640  C$mg_leaves_init.c$80$3_1$180      mg_leaves_init
     00024641  A$lcc2145676$302                   mg_leaves_init
     00024643  A$lcc2145676$303                   mg_leaves_init
     00024644  A$lcc2145676$304                   mg_leaves_init
     00024645  A$lcc2145676$305                   mg_leaves_init
     00024648  A$lcc2145676$306                   mg_leaves_init
     00024649  A$lcc2145676$307                   mg_leaves_init
     0002464C  A$lcc2145676$308                   mg_leaves_init
     0002464D  A$lcc2145676$309                   mg_leaves_init
ASxxxx Linker V03.00/V05.40 + sdld,  page 153.
Hexadecimal  [32-Bits]

Area                                    Addr        Size        Decimal Bytes (Attributes)
--------------------------------        ----        ----        ------- ----- ------------
_CODE_2                             00024000    00000DE1 =        3553. bytes (REL,CON)

      Value  Global                              Global Defined In Module
      -----  --------------------------------   ------------------------
     0002464E  A$lcc2145676$313                   mg_leaves_init
     0002464E  C$mg_leaves_init.c$81$3_1$180      mg_leaves_init
     00024651  A$lcc2145676$314                   mg_leaves_init
     00024653  A$lcc2145676$315                   mg_leaves_init
     00024654  A$lcc2145676$316                   mg_leaves_init
     00024655  A$lcc2145676$320                   mg_leaves_init
     00024655  C$mg_leaves_init.c$82$3_1$180      mg_leaves_init
     00024658  A$lcc2145676$321                   mg_leaves_init
     0002465A  A$lcc2145676$322                   mg_leaves_init
     0002465B  A$lcc2145676$323                   mg_leaves_init
     0002465D  A$lcc2145676$327                   mg_leaves_init
     0002465D  C$mg_leaves_init.c$84$3_1$180      mg_leaves_init
     00024660  A$lcc2145676$328                   mg_leaves_init
     00024662  A$lcc2145676$329                   mg_leaves_init
     00024663  A$lcc2145676$330                   mg_leaves_init
     00024665  A$lcc2145676$331                   mg_leaves_init
     00024666  A$lcc2145676$332                   mg_leaves_init
     00024667  A$lcc2145676$333                   mg_leaves_init
     00024669  A$lcc2145676$334                   mg_leaves_init
     0002466B  A$lcc2145676$335                   mg_leaves_init
     0002466C  A$lcc2145676$336                   mg_leaves_init
     0002466D  A$lcc2145676$337                   mg_leaves_init
     0002466E  A$lcc2145676$341                   mg_leaves_init
     0002466E  C$mg_leaves_init.c$85$3_1$180      mg_leaves_init
     00024671  A$lcc2145676$342                   mg_leaves_init
     00024673  A$lcc2145676$343                   mg_leaves_init
     00024674  A$lcc2145676$344                   mg_leaves_init
     00024675  A$lcc2145676$345                   mg_leaves_init
     00024676  A$lcc2145676$349                   mg_leaves_init
     00024676  C$mg_leaves_init.c$87$3_1$180      mg_leaves_init
     00024679  A$lcc2145676$350                   mg_leaves_init
     0002467B  A$lcc2145676$351                   mg_leaves_init
     0002467C  A$lcc2145676$352                   mg_leaves_init
     0002467E  A$lcc2145676$356                   mg_leaves_init
     0002467E  C$mg_leaves_init.c$88$3_1$180      mg_leaves_init
     0002467F  A$lcc2145676$357                   mg_leaves_init
     00024680  A$lcc2145676$358                   mg_leaves_init
     00024681  A$lcc2145676$359                   mg_leaves_init
     00024682  A$lcc2145676$360                   mg_leaves_init
     00024685  A$lcc2145676$361                   mg_leaves_init
     00024686  A$lcc2145676$362                   mg_leaves_init
     00024687  A$lcc2145676$363                   mg_leaves_init
     00024688  A$lcc2145676$364                   mg_leaves_init
     00024689  A$lcc2145676$368                   mg_leaves_init
     00024689  C$mg_leaves_init.c$90$3_1$180      mg_leaves_init
     0002468C  A$lcc2145676$369                   mg_leaves_init
     0002468E  A$lcc2145676$370                   mg_leaves_init
     0002468F  A$lcc2145676$371                   mg_leaves_init
     00024691  A$lcc2145676$375                   mg_leaves_init
     00024691  C$mg_leaves_init.c$78$2_1$179      mg_leaves_init
     00024692  A$lcc2145676$376                   mg_leaves_init
ASxxxx Linker V03.00/V05.40 + sdld,  page 154.
Hexadecimal  [32-Bits]

Area                                    Addr        Size        Decimal Bytes (Attributes)
--------------------------------        ----        ----        ------- ----- ------------
_CODE_2                             00024000    00000DE1 =        3553. bytes (REL,CON)

      Value  Global                              Global Defined In Module
      -----  --------------------------------   ------------------------
     00024694  A$lcc2145676$381                   mg_leaves_init
     00024694  C$mg_leaves_init.c$94$3_1$182      mg_leaves_init
     00024696  A$lcc2145676$382                   mg_leaves_init
     00024698  A$lcc2145676$384                   mg_leaves_init
     0002469A  A$lcc2145676$385                   mg_leaves_init
     0002469B  A$lcc2145676$386                   mg_leaves_init
     0002469D  A$lcc2145676$387                   mg_leaves_init
     0002469F  A$lcc2145676$391                   mg_leaves_init
     0002469F  C$mg_leaves_init.c$96$3_1$182      mg_leaves_init
     000246A1  A$lcc2145676$392                   mg_leaves_init
     000246A2  A$lcc2145676$393                   mg_leaves_init
     000246A3  A$lcc2145676$394                   mg_leaves_init
     000246A6  A$lcc2145676$395                   mg_leaves_init
     000246A7  A$lcc2145676$396                   mg_leaves_init
     000246AA  A$lcc2145676$397                   mg_leaves_init
     000246AB  A$lcc2145676$401                   mg_leaves_init
     000246AB  C$mg_leaves_init.c$97$3_1$182      mg_leaves_init
     000246AE  A$lcc2145676$402                   mg_leaves_init
     000246B0  A$lcc2145676$403                   mg_leaves_init
     000246B1  A$lcc2145676$404                   mg_leaves_init
     000246B3  A$lcc2145676$405                   mg_leaves_init
     000246B4  A$lcc2145676$406                   mg_leaves_init
     000246B5  A$lcc2145676$407                   mg_leaves_init
     000246B6  A$lcc2145676$408                   mg_leaves_init
     000246B7  A$lcc2145676$409                   mg_leaves_init
     000246B8  A$lcc2145676$413                   mg_leaves_init
     000246B8  C$mg_leaves_init.c$98$3_1$182      mg_leaves_init
     000246BB  A$lcc2145676$414                   mg_leaves_init
     000246BD  A$lcc2145676$415                   mg_leaves_init
     000246BE  A$lcc2145676$416                   mg_leaves_init
     000246C0  A$lcc2145676$417                   mg_leaves_init
     000246C1  A$lcc2145676$418                   mg_leaves_init
     000246C2  A$lcc2145676$419                   mg_leaves_init
     000246C3  A$lcc2145676$420                   mg_leaves_init
     000246C4  A$lcc2145676$421                   mg_leaves_init
     000246C5  A$lcc2145676$425                   mg_leaves_init
     000246C5  C$mg_leaves_init.c$100$3_1$182     mg_leaves_init
     000246C8  A$lcc2145676$426                   mg_leaves_init
     000246CA  A$lcc2145676$427                   mg_leaves_init
     000246CB  A$lcc2145676$428                   mg_leaves_init
     000246CD  A$lcc2145676$429                   mg_leaves_init
     000246CE  A$lcc2145676$430                   mg_leaves_init
     000246CF  A$lcc2145676$431                   mg_leaves_init
     000246D0  A$lcc2145676$432                   mg_leaves_init
     000246D3  A$lcc2145676$433                   mg_leaves_init
     000246D5  A$lcc2145676$434                   mg_leaves_init
     000246D6  A$lcc2145676$435                   mg_leaves_init
     000246D8  A$lcc2145676$436                   mg_leaves_init
     000246D9  A$lcc2145676$437                   mg_leaves_init
     000246DA  A$lcc2145676$438                   mg_leaves_init
     000246DB  A$lcc2145676$439                   mg_leaves_init
ASxxxx Linker V03.00/V05.40 + sdld,  page 155.
Hexadecimal  [32-Bits]

Area                                    Addr        Size        Decimal Bytes (Attributes)
--------------------------------        ----        ----        ------- ----- ------------
_CODE_2                             00024000    00000DE1 =        3553. bytes (REL,CON)

      Value  Global                              Global Defined In Module
      -----  --------------------------------   ------------------------
     000246DC  A$lcc2145676$440                   mg_leaves_init
     000246DD  A$lcc2145676$444                   mg_leaves_init
     000246DD  C$mg_leaves_init.c$101$3_1$182     mg_leaves_init
     000246DE  A$lcc2145676$445                   mg_leaves_init
     000246E1  A$lcc2145676$446                   mg_leaves_init
     000246E3  A$lcc2145676$447                   mg_leaves_init
     000246E4  A$lcc2145676$448                   mg_leaves_init
     000246E6  A$lcc2145676$449                   mg_leaves_init
     000246E7  A$lcc2145676$450                   mg_leaves_init
     000246E8  A$lcc2145676$451                   mg_leaves_init
     000246E9  A$lcc2145676$452                   mg_leaves_init
     000246EA  A$lcc2145676$453                   mg_leaves_init
     000246EB  A$lcc2145676$454                   mg_leaves_init
     000246EC  A$lcc2145676$458                   mg_leaves_init
     000246EC  C$mg_leaves_init.c$103$3_1$182     mg_leaves_init
     000246EF  A$lcc2145676$459                   mg_leaves_init
     000246F1  A$lcc2145676$460                   mg_leaves_init
     000246F2  A$lcc2145676$461                   mg_leaves_init
     000246F4  A$lcc2145676$462                   mg_leaves_init
     000246F5  A$lcc2145676$463                   mg_leaves_init
     000246F6  A$lcc2145676$464                   mg_leaves_init
     000246F7  A$lcc2145676$465                   mg_leaves_init
     000246F8  A$lcc2145676$466                   mg_leaves_init
     000246F9  A$lcc2145676$470                   mg_leaves_init
     000246F9  C$mg_leaves_init.c$104$3_1$182     mg_leaves_init
     000246FB  A$lcc2145676$471                   mg_leaves_init
     000246FC  A$lcc2145676$472                   mg_leaves_init
     000246FD  A$lcc2145676$473                   mg_leaves_init
     000246FE  A$lcc2145676$474                   mg_leaves_init
     000246FF  A$lcc2145676$475                   mg_leaves_init
     00024700  A$lcc2145676$476                   mg_leaves_init
     00024703  A$lcc2145676$477                   mg_leaves_init
     00024704  A$lcc2145676$478                   mg_leaves_init
     00024705  A$lcc2145676$479                   mg_leaves_init
     00024706  A$lcc2145676$480                   mg_leaves_init
     00024707  A$lcc2145676$484                   mg_leaves_init
     00024707  C$mg_leaves_init.c$106$3_1$182     mg_leaves_init
     0002470A  A$lcc2145676$485                   mg_leaves_init
     0002470C  A$lcc2145676$486                   mg_leaves_init
     0002470D  A$lcc2145676$487                   mg_leaves_init
     0002470F  A$lcc2145676$488                   mg_leaves_init
     00024710  A$lcc2145676$489                   mg_leaves_init
     00024711  A$lcc2145676$490                   mg_leaves_init
     00024713  A$lcc2145676$494                   mg_leaves_init
     00024713  C$mg_leaves_init.c$94$2_1$181      mg_leaves_init
     00024715  A$lcc2145676$495                   mg_leaves_init
     00024716  A$lcc2145676$496                   mg_leaves_init
     00024719  A$lcc2145676$501                   mg_leaves_init
     00024719  C$mg_leaves_init.c$109$2_1$183     mg_leaves_init
     0002471B  A$lcc2145676$502                   mg_leaves_init
     0002471D  A$lcc2145676$503                   mg_leaves_init
ASxxxx Linker V03.00/V05.40 + sdld,  page 156.
Hexadecimal  [32-Bits]

Area                                    Addr        Size        Decimal Bytes (Attributes)
--------------------------------        ----        ----        ------- ----- ------------
_CODE_2                             00024000    00000DE1 =        3553. bytes (REL,CON)

      Value  Global                              Global Defined In Module
      -----  --------------------------------   ------------------------
     0002471E  A$lcc2145676$504                   mg_leaves_init
     00024720  A$lcc2145676$505                   mg_leaves_init
     00024721  A$lcc2145676$506                   mg_leaves_init
     00024723  A$lcc2145676$507                   mg_leaves_init
     00024724  A$lcc2145676$508                   mg_leaves_init
     00024726  A$lcc2145676$509                   mg_leaves_init
     00024727  A$lcc2145676$510                   mg_leaves_init
     00024729  A$lcc2145676$511                   mg_leaves_init
     0002472A  A$lcc2145676$512                   mg_leaves_init
     0002472C  A$lcc2145676$516                   mg_leaves_init
     0002472C  C$mg_leaves_init.c$111$1_3$174     mg_leaves_init
     0002472E  A$lcc2145676$518                   mg_leaves_init
     0002472F  A$lcc2145676$519                   mg_leaves_init
     00024731  A$lcc2145676$520                   mg_leaves_init
     00024733  A$lcc2145676$524                   mg_leaves_init
     00024733  C$mg_leaves_init.c$113$3_2$185     mg_leaves_init
     00024734  A$lcc2145676$525                   mg_leaves_init
     00024736  A$lcc2145676$526                   mg_leaves_init
     00024739  A$lcc2145676$527                   mg_leaves_init
     0002473A  A$lcc2145676$528                   mg_leaves_init
     0002473B  A$lcc2145676$529                   mg_leaves_init
     0002473C  A$lcc2145676$530                   mg_leaves_init
     0002473D  A$lcc2145676$531                   mg_leaves_init
     00024740  A$lcc2145676$532                   mg_leaves_init
     00024741  A$lcc2145676$533                   mg_leaves_init
     00024742  A$lcc2145676$534                   mg_leaves_init
     00024743  A$lcc2145676$535                   mg_leaves_init
     00024745  A$lcc2145676$539                   mg_leaves_init
     00024745  C$mg_leaves_init.c$114$3_2$185     mg_leaves_init
     00024746  A$lcc2145676$540                   mg_leaves_init
     00024747  A$lcc2145676$541                   mg_leaves_init
     00024748  A$lcc2145676$542                   mg_leaves_init
     00024749  A$lcc2145676$543                   mg_leaves_init
     0002474A  A$lcc2145676$544                   mg_leaves_init
     0002474C  A$lcc2145676$545                   mg_leaves_init
     0002474D  A$lcc2145676$546                   mg_leaves_init
     00024750  A$lcc2145676$547                   mg_leaves_init
     00024751  A$lcc2145676$551                   mg_leaves_init
     00024751  C$mg_leaves_init.c$111$2_2$184     mg_leaves_init
     00024752  A$lcc2145676$552                   mg_leaves_init
     00024754  A$lcc2145676$557                   mg_leaves_init
     00024754  C$mg_leaves_init.c$117$1_3$186     mg_leaves_init
     00024757  A$lcc2145676$561                   mg_leaves_init
     00024757  C$mg_leaves_init.c$118$1_3$174     mg_leaves_init
     00024759  A$lcc2145676$562                   mg_leaves_init
     0002475A  A$lcc2145676$563                   mg_leaves_init
     0002475C  A$lcc2145676$564                   mg_leaves_init
     0002475F  A$lcc2145676$565                   mg_leaves_init
     00024760  A$lcc2145676$566                   mg_leaves_init
     00024762  A$lcc2145676$567                   mg_leaves_init
     00024765  A$lcc2145676$568                   mg_leaves_init
ASxxxx Linker V03.00/V05.40 + sdld,  page 157.
Hexadecimal  [32-Bits]

Area                                    Addr        Size        Decimal Bytes (Attributes)
--------------------------------        ----        ----        ------- ----- ------------
_CODE_2                             00024000    00000DE1 =        3553. bytes (REL,CON)

      Value  Global                              Global Defined In Module
      -----  --------------------------------   ------------------------
     00024766  A$lcc2145676$569                   mg_leaves_init
     00024768  A$lcc2145676$570                   mg_leaves_init
     0002476A  A$lcc2145676$574                   mg_leaves_init
     0002476A  C$mg_leaves_init.c$119$1_3$174     mg_leaves_init
     0002476B  A$lcc2145676$575                   mg_leaves_init
     0002476C  A$lcc2145676$576                   mg_leaves_init
     0002476E  A$lcc2145676$577                   mg_leaves_init
     0002476F  A$lcc2145676$578                   mg_leaves_init
     00024772  A$lcc2145676$579                   mg_leaves_init
     00024773  A$lcc2145676$580                   mg_leaves_init
     00024775  A$lcc2145676$581                   mg_leaves_init
     00024778  A$lcc2145676$582                   mg_leaves_init
     00024779  A$lcc2145676$583                   mg_leaves_init
     0002477B  A$lcc2145676$584                   mg_leaves_init
     0002477D  A$lcc2145676$588                   mg_leaves_init
     0002477D  C$mg_leaves_init.c$120$1_3$174     mg_leaves_init
     0002477E  A$lcc2145676$589                   mg_leaves_init
     00024780  A$lcc2145676$590                   mg_leaves_init
     00024781  A$lcc2145676$591                   mg_leaves_init
     00024784  A$lcc2145676$592                   mg_leaves_init
     00024785  A$lcc2145676$593                   mg_leaves_init
     00024787  A$lcc2145676$594                   mg_leaves_init
     00024789  A$lcc2145676$595                   mg_leaves_init
     0002478A  A$lcc2145676$599                   mg_leaves_init
     0002478A  C$mg_leaves_init.c$122$1_3$186     mg_leaves_init
     0002478C  A$lcc2145676$600                   mg_leaves_init
     0002478D  A$lcc2145676$601                   mg_leaves_init
     0002478E  A$lcc2145676$602                   mg_leaves_init
     00024790  A$lcc2145676$603                   mg_leaves_init
     00024792  A$lcc2145676$604                   mg_leaves_init
     00024795  A$lcc2145676$608                   mg_leaves_init
     00024795  C$mg_leaves_init.c$123$1_3$186     mg_leaves_init
     00024797  A$lcc2145676$609                   mg_leaves_init
     00024798  A$lcc2145676$610                   mg_leaves_init
     00024799  A$lcc2145676$611                   mg_leaves_init
     0002479A  A$lcc2145676$612                   mg_leaves_init
     0002479C  A$lcc2145676$613                   mg_leaves_init
     0002479E  A$lcc2145676$614                   mg_leaves_init
     000247A1  A$lcc2145676$618                   mg_leaves_init
     000247A1  C$mg_leaves_init.c$124$1_3$186     mg_leaves_init
     000247A3  A$lcc2145676$619                   mg_leaves_init
     000247A4  A$lcc2145676$620                   mg_leaves_init
     000247A5  A$lcc2145676$621                   mg_leaves_init
     000247A6  A$lcc2145676$622                   mg_leaves_init
     000247A8  A$lcc2145676$623                   mg_leaves_init
     000247AA  A$lcc2145676$624                   mg_leaves_init
     000247AD  A$lcc2145676$628                   mg_leaves_init
     000247AD  C$mg_leaves_init.c$125$1_3$186     mg_leaves_init
     000247AF  A$lcc2145676$629                   mg_leaves_init
     000247B0  A$lcc2145676$630                   mg_leaves_init
     000247B1  A$lcc2145676$631                   mg_leaves_init
ASxxxx Linker V03.00/V05.40 + sdld,  page 158.
Hexadecimal  [32-Bits]

Area                                    Addr        Size        Decimal Bytes (Attributes)
--------------------------------        ----        ----        ------- ----- ------------
_CODE_2                             00024000    00000DE1 =        3553. bytes (REL,CON)

      Value  Global                              Global Defined In Module
      -----  --------------------------------   ------------------------
     000247B2  A$lcc2145676$632                   mg_leaves_init
     000247B4  A$lcc2145676$633                   mg_leaves_init
     000247B6  A$lcc2145676$634                   mg_leaves_init
     000247B9  A$lcc2145676$638                   mg_leaves_init
     000247B9  C$mg_leaves_init.c$127$1_3$186     mg_leaves_init
     000247BC  A$lcc2145676$639                   mg_leaves_init
     000247BF  A$lcc2145676$643                   mg_leaves_init
     000247C1  A$lcc2145676$648                   mg_leaves_init
     000247C1  C$mg_leaves_init.c$128$1_3$174     mg_leaves_init
     000247C1  XG$Mg_Leaves_Init$0$0              mg_leaves_init
     000247C2  A$lcc2145678$53                    mg_leaves_player_init
     000247C2  C$mg_leaves_player_init.c$11$0_0   mg_leaves_player_init
     000247C2  G$Mg_Leaves_Player_Init$0$0        mg_leaves_player_init
     000247C2  _Mg_Leaves_Player_Init             mg_leaves_player_init
     000247C4  A$lcc2145678$57                    mg_leaves_player_init
     000247C4  C$mg_leaves_player_init.c$13$1_0   mg_leaves_player_init
     000247C7  A$lcc2145678$58                    mg_leaves_player_init
     000247C8  A$lcc2145678$59                    mg_leaves_player_init
     000247CA  A$lcc2145678$60                    mg_leaves_player_init
     000247CD  A$lcc2145678$61                    mg_leaves_player_init
     000247CE  A$lcc2145678$62                    mg_leaves_player_init
     000247D0  A$lcc2145678$66                    mg_leaves_player_init
     000247D0  C$mg_leaves_player_init.c$14$1_0   mg_leaves_player_init
     000247D3  A$lcc2145678$67                    mg_leaves_player_init
     000247D6  A$lcc2145678$68                    mg_leaves_player_init
     000247D7  A$lcc2145678$69                    mg_leaves_player_init
     000247D9  A$lcc2145678$70                    mg_leaves_player_init
     000247DA  A$lcc2145678$71                    mg_leaves_player_init
     000247DC  A$lcc2145678$75                    mg_leaves_player_init
     000247DC  C$mg_leaves_player_init.c$15$1_0   mg_leaves_player_init
     000247DF  A$lcc2145678$76                    mg_leaves_player_init
     000247E2  A$lcc2145678$77                    mg_leaves_player_init
     000247E3  A$lcc2145678$78                    mg_leaves_player_init
     000247E4  A$lcc2145678$79                    mg_leaves_player_init
     000247E5  A$lcc2145678$80                    mg_leaves_player_init
     000247E6  A$lcc2145678$81                    mg_leaves_player_init
     000247E7  A$lcc2145678$82                    mg_leaves_player_init
     000247E9  A$lcc2145678$83                    mg_leaves_player_init
     000247EA  A$lcc2145678$84                    mg_leaves_player_init
     000247EC  A$lcc2145678$88                    mg_leaves_player_init
     000247EC  C$mg_leaves_player_init.c$17$1_0   mg_leaves_player_init
     000247EF  A$lcc2145678$89                    mg_leaves_player_init
     000247F2  A$lcc2145678$90                    mg_leaves_player_init
     000247F3  A$lcc2145678$91                    mg_leaves_player_init
     000247F4  A$lcc2145678$92                    mg_leaves_player_init
     000247F6  A$lcc2145678$93                    mg_leaves_player_init
     000247F7  A$lcc2145678$94                    mg_leaves_player_init
     000247FA  A$lcc2145678$95                    mg_leaves_player_init
     000247FC  A$lcc2145678$96                    mg_leaves_player_init
     000247FD  A$lcc2145678$97                    mg_leaves_player_init
     000247FF  A$lcc2145678$98                    mg_leaves_player_init
ASxxxx Linker V03.00/V05.40 + sdld,  page 159.
Hexadecimal  [32-Bits]

Area                                    Addr        Size        Decimal Bytes (Attributes)
--------------------------------        ----        ----        ------- ----- ------------
_CODE_2                             00024000    00000DE1 =        3553. bytes (REL,CON)

      Value  Global                              Global Defined In Module
      -----  --------------------------------   ------------------------
     00024801  A$lcc2145678$99                    mg_leaves_player_init
     00024802  A$lcc2145678$100                   mg_leaves_player_init
     00024803  A$lcc2145678$101                   mg_leaves_player_init
     00024804  A$lcc2145678$102                   mg_leaves_player_init
     00024805  A$lcc2145678$103                   mg_leaves_player_init
     00024806  A$lcc2145678$104                   mg_leaves_player_init
     00024807  A$lcc2145678$108                   mg_leaves_player_init
     00024807  C$mg_leaves_player_init.c$18$1_0   mg_leaves_player_init
     0002480A  A$lcc2145678$109                   mg_leaves_player_init
     0002480B  A$lcc2145678$110                   mg_leaves_player_init
     0002480C  A$lcc2145678$111                   mg_leaves_player_init
     0002480E  A$lcc2145678$112                   mg_leaves_player_init
     0002480F  A$lcc2145678$113                   mg_leaves_player_init
     00024811  A$lcc2145678$114                   mg_leaves_player_init
     00024813  A$lcc2145678$115                   mg_leaves_player_init
     00024814  A$lcc2145678$116                   mg_leaves_player_init
     00024815  A$lcc2145678$117                   mg_leaves_player_init
     00024817  A$lcc2145678$118                   mg_leaves_player_init
     00024818  A$lcc2145678$119                   mg_leaves_player_init
     00024819  A$lcc2145678$120                   mg_leaves_player_init
     0002481A  A$lcc2145678$121                   mg_leaves_player_init
     0002481B  A$lcc2145678$122                   mg_leaves_player_init
     0002481C  A$lcc2145678$123                   mg_leaves_player_init
     0002481D  A$lcc2145678$124                   mg_leaves_player_init
     0002481E  A$lcc2145678$128                   mg_leaves_player_init
     0002481E  C$mg_leaves_player_init.c$20$1_0   mg_leaves_player_init
     00024821  A$lcc2145678$129                   mg_leaves_player_init
     00024822  A$lcc2145678$130                   mg_leaves_player_init
     00024824  A$lcc2145678$131                   mg_leaves_player_init
     00024827  A$lcc2145678$132                   mg_leaves_player_init
     00024828  A$lcc2145678$133                   mg_leaves_player_init
     0002482A  A$lcc2145678$137                   mg_leaves_player_init
     0002482A  C$mg_leaves_player_init.c$21$1_0   mg_leaves_player_init
     0002482D  A$lcc2145678$138                   mg_leaves_player_init
     00024830  A$lcc2145678$139                   mg_leaves_player_init
     00024831  A$lcc2145678$140                   mg_leaves_player_init
     00024833  A$lcc2145678$141                   mg_leaves_player_init
     00024834  A$lcc2145678$142                   mg_leaves_player_init
     00024836  A$lcc2145678$146                   mg_leaves_player_init
     00024836  C$mg_leaves_player_init.c$22$1_0   mg_leaves_player_init
     00024839  A$lcc2145678$147                   mg_leaves_player_init
     0002483C  A$lcc2145678$148                   mg_leaves_player_init
     0002483D  A$lcc2145678$149                   mg_leaves_player_init
     0002483F  A$lcc2145678$150                   mg_leaves_player_init
     00024840  A$lcc2145678$151                   mg_leaves_player_init
     00024842  A$lcc2145678$155                   mg_leaves_player_init
     00024842  C$mg_leaves_player_init.c$24$2_0   mg_leaves_player_init
     00024844  A$lcc2145678$156                   mg_leaves_player_init
     00024846  A$lcc2145678$157                   mg_leaves_player_init
     00024847  A$lcc2145678$158                   mg_leaves_player_init
     00024849  A$lcc2145678$159                   mg_leaves_player_init
ASxxxx Linker V03.00/V05.40 + sdld,  page 160.
Hexadecimal  [32-Bits]

Area                                    Addr        Size        Decimal Bytes (Attributes)
--------------------------------        ----        ----        ------- ----- ------------
_CODE_2                             00024000    00000DE1 =        3553. bytes (REL,CON)

      Value  Global                              Global Defined In Module
      -----  --------------------------------   ------------------------
     0002484A  A$lcc2145678$160                   mg_leaves_player_init
     0002484C  A$lcc2145678$161                   mg_leaves_player_init
     0002484D  A$lcc2145678$162                   mg_leaves_player_init
     0002484F  A$lcc2145678$166                   mg_leaves_player_init
     0002484F  C$mg_leaves_player_init.c$28$1_1   mg_leaves_player_init
     00024852  A$lcc2145678$167                   mg_leaves_player_init
     00024853  A$lcc2145678$168                   mg_leaves_player_init
     00024855  A$lcc2145678$169                   mg_leaves_player_init
     00024856  A$lcc2145678$170                   mg_leaves_player_init
     00024857  A$lcc2145678$171                   mg_leaves_player_init
     00024858  A$lcc2145678$172                   mg_leaves_player_init
     00024859  A$lcc2145678$173                   mg_leaves_player_init
     0002485A  A$lcc2145678$174                   mg_leaves_player_init
     0002485B  A$lcc2145678$175                   mg_leaves_player_init
     0002485C  A$lcc2145678$176                   mg_leaves_player_init
     0002485D  A$lcc2145678$177                   mg_leaves_player_init
     0002485E  A$lcc2145678$178                   mg_leaves_player_init
     00024861  A$lcc2145678$179                   mg_leaves_player_init
     00024862  A$lcc2145678$180                   mg_leaves_player_init
     00024863  A$lcc2145678$181                   mg_leaves_player_init
     00024864  A$lcc2145678$182                   mg_leaves_player_init
     00024867  A$lcc2145678$183                   mg_leaves_player_init
     00024868  A$lcc2145678$184                   mg_leaves_player_init
     0002486A  A$lcc2145678$185                   mg_leaves_player_init
     0002486B  A$lcc2145678$186                   mg_leaves_player_init
     0002486C  A$lcc2145678$187                   mg_leaves_player_init
     0002486F  A$lcc2145678$188                   mg_leaves_player_init
     00024870  A$lcc2145678$189                   mg_leaves_player_init
     00024871  A$lcc2145678$190                   mg_leaves_player_init
     00024872  A$lcc2145678$191                   mg_leaves_player_init
     00024873  A$lcc2145678$192                   mg_leaves_player_init
     00024874  A$lcc2145678$193                   mg_leaves_player_init
     00024875  A$lcc2145678$194                   mg_leaves_player_init
     00024878  A$lcc2145678$195                   mg_leaves_player_init
     0002487B  A$lcc2145678$199                   mg_leaves_player_init
     0002487D  A$lcc2145678$204                   mg_leaves_player_init
     0002487D  C$mg_leaves_player_init.c$29$1_1   mg_leaves_player_init
     0002487D  XG$Mg_Leaves_Player_Init$0$0       mg_leaves_player_init
     0002487E  A$lcc2145679$65                    mg_leaves_update
     0002487E  C$mg_leaves_update.c$22$0_0$177    mg_leaves_update
     0002487E  G$is_being_swept$0$0               mg_leaves_update
     0002487E  _is_being_swept                    mg_leaves_update
     00024880  A$lcc2145679$66                    mg_leaves_update
     00024881  A$lcc2145679$70                    mg_leaves_update
     00024881  C$mg_leaves_update.c$24$1_0$177    mg_leaves_update
     00024884  A$lcc2145679$71                    mg_leaves_update
     00024887  A$lcc2145679$72                    mg_leaves_update
     00024888  A$lcc2145679$73                    mg_leaves_update
     0002488A  A$lcc2145679$74                    mg_leaves_update
     0002488B  A$lcc2145679$75                    mg_leaves_update
     0002488C  A$lcc2145679$76                    mg_leaves_update
ASxxxx Linker V03.00/V05.40 + sdld,  page 161.
Hexadecimal  [32-Bits]

Area                                    Addr        Size        Decimal Bytes (Attributes)
--------------------------------        ----        ----        ------- ----- ------------
_CODE_2                             00024000    00000DE1 =        3553. bytes (REL,CON)

      Value  Global                              Global Defined In Module
      -----  --------------------------------   ------------------------
     0002488E  A$lcc2145679$77                    mg_leaves_update
     0002488F  A$lcc2145679$81                    mg_leaves_update
     0002488F  C$mg_leaves_update.c$26$1_0$177    mg_leaves_update
     00024892  A$lcc2145679$82                    mg_leaves_update
     00024894  A$lcc2145679$83                    mg_leaves_update
     00024895  A$lcc2145679$84                    mg_leaves_update
     00024896  A$lcc2145679$88                    mg_leaves_update
     00024896  C$mg_leaves_update.c$28$2_0$178    mg_leaves_update
     00024898  A$lcc2145679$89                    mg_leaves_update
     00024899  A$lcc2145679$90                    mg_leaves_update
     0002489A  A$lcc2145679$91                    mg_leaves_update
     0002489B  A$lcc2145679$92                    mg_leaves_update
     0002489C  A$lcc2145679$93                    mg_leaves_update
     0002489D  A$lcc2145679$94                    mg_leaves_update
     0002489E  A$lcc2145679$95                    mg_leaves_update
     0002489F  A$lcc2145679$96                    mg_leaves_update
     000248A0  A$lcc2145679$97                    mg_leaves_update
     000248A3  A$lcc2145679$98                    mg_leaves_update
     000248A4  A$lcc2145679$99                    mg_leaves_update
     000248A5  A$lcc2145679$100                   mg_leaves_update
     000248A6  A$lcc2145679$101                   mg_leaves_update
     000248A8  A$lcc2145679$102                   mg_leaves_update
     000248A9  A$lcc2145679$103                   mg_leaves_update
     000248AA  A$lcc2145679$104                   mg_leaves_update
     000248AB  A$lcc2145679$105                   mg_leaves_update
     000248AD  A$lcc2145679$106                   mg_leaves_update
     000248AE  A$lcc2145679$107                   mg_leaves_update
     000248B0  A$lcc2145679$108                   mg_leaves_update
     000248B1  A$lcc2145679$109                   mg_leaves_update
     000248B3  A$lcc2145679$110                   mg_leaves_update
     000248B4  A$lcc2145679$111                   mg_leaves_update
     000248B6  A$lcc2145679$112                   mg_leaves_update
     000248B8  A$lcc2145679$113                   mg_leaves_update
     000248B9  A$lcc2145679$114                   mg_leaves_update
     000248BA  A$lcc2145679$115                   mg_leaves_update
     000248BC  A$lcc2145679$116                   mg_leaves_update
     000248BD  A$lcc2145679$117                   mg_leaves_update
     000248BE  A$lcc2145679$118                   mg_leaves_update
     000248BF  A$lcc2145679$119                   mg_leaves_update
     000248C0  A$lcc2145679$120                   mg_leaves_update
     000248C1  A$lcc2145679$121                   mg_leaves_update
     000248C2  A$lcc2145679$122                   mg_leaves_update
     000248C4  A$lcc2145679$123                   mg_leaves_update
     000248C6  A$lcc2145679$124                   mg_leaves_update
     000248C7  A$lcc2145679$125                   mg_leaves_update
     000248C8  A$lcc2145679$126                   mg_leaves_update
     000248C9  A$lcc2145679$127                   mg_leaves_update
     000248CC  A$lcc2145679$128                   mg_leaves_update
     000248CD  A$lcc2145679$129                   mg_leaves_update
     000248CE  A$lcc2145679$130                   mg_leaves_update
     000248CF  A$lcc2145679$131                   mg_leaves_update
ASxxxx Linker V03.00/V05.40 + sdld,  page 162.
Hexadecimal  [32-Bits]

Area                                    Addr        Size        Decimal Bytes (Attributes)
--------------------------------        ----        ----        ------- ----- ------------
_CODE_2                             00024000    00000DE1 =        3553. bytes (REL,CON)

      Value  Global                              Global Defined In Module
      -----  --------------------------------   ------------------------
     000248D1  A$lcc2145679$132                   mg_leaves_update
     000248D2  A$lcc2145679$133                   mg_leaves_update
     000248D3  A$lcc2145679$134                   mg_leaves_update
     000248D4  A$lcc2145679$135                   mg_leaves_update
     000248D6  A$lcc2145679$136                   mg_leaves_update
     000248D7  A$lcc2145679$137                   mg_leaves_update
     000248D9  A$lcc2145679$138                   mg_leaves_update
     000248DA  A$lcc2145679$139                   mg_leaves_update
     000248DB  A$lcc2145679$140                   mg_leaves_update
     000248DD  A$lcc2145679$141                   mg_leaves_update
     000248DE  A$lcc2145679$142                   mg_leaves_update
     000248DF  A$lcc2145679$143                   mg_leaves_update
     000248E0  A$lcc2145679$144                   mg_leaves_update
     000248E1  A$lcc2145679$145                   mg_leaves_update
     000248E2  A$lcc2145679$146                   mg_leaves_update
     000248E3  A$lcc2145679$147                   mg_leaves_update
     000248E5  A$lcc2145679$151                   mg_leaves_update
     000248E5  C$mg_leaves_update.c$30$4_0$180    mg_leaves_update
     000248E7  A$lcc2145679$152                   mg_leaves_update
     000248E8  A$lcc2145679$153                   mg_leaves_update
     000248E9  A$lcc2145679$154                   mg_leaves_update
     000248EB  A$lcc2145679$158                   mg_leaves_update
     000248EB  C$mg_leaves_update.c$31$4_0$180    mg_leaves_update
     000248EE  A$lcc2145679$159                   mg_leaves_update
     000248EF  A$lcc2145679$160                   mg_leaves_update
     000248F1  A$lcc2145679$161                   mg_leaves_update
     000248F2  A$lcc2145679$162                   mg_leaves_update
     000248F4  A$lcc2145679$167                   mg_leaves_update
     000248F4  C$mg_leaves_update.c$33$4_0$181    mg_leaves_update
     000248F6  A$lcc2145679$168                   mg_leaves_update
     000248F7  A$lcc2145679$169                   mg_leaves_update
     000248F8  A$lcc2145679$170                   mg_leaves_update
     000248FA  A$lcc2145679$174                   mg_leaves_update
     000248FA  C$mg_leaves_update.c$34$4_0$181    mg_leaves_update
     000248FD  A$lcc2145679$175                   mg_leaves_update
     000248FE  A$lcc2145679$176                   mg_leaves_update
     00024900  A$lcc2145679$177                   mg_leaves_update
     00024901  A$lcc2145679$178                   mg_leaves_update
     00024903  A$lcc2145679$183                   mg_leaves_update
     00024903  C$mg_leaves_update.c$36$3_0$179    mg_leaves_update
     00024905  A$lcc2145679$184                   mg_leaves_update
     00024907  A$lcc2145679$189                   mg_leaves_update
     00024907  C$mg_leaves_update.c$39$1_0$177    mg_leaves_update
     00024908  A$lcc2145679$194                   mg_leaves_update
     0002490A  A$lcc2145679$199                   mg_leaves_update
     0002490A  C$mg_leaves_update.c$40$1_0$177    mg_leaves_update
     0002490A  XG$is_being_swept$0$0              mg_leaves_update
     0002490B  A$lcc2145679$209                   mg_leaves_update
     0002490B  C$mg_leaves_update.c$42$1_0$183    mg_leaves_update
     0002490B  G$spawn$0$0                        mg_leaves_update
     0002490B  _spawn                             mg_leaves_update
ASxxxx Linker V03.00/V05.40 + sdld,  page 163.
Hexadecimal  [32-Bits]

Area                                    Addr        Size        Decimal Bytes (Attributes)
--------------------------------        ----        ----        ------- ----- ------------
_CODE_2                             00024000    00000DE1 =        3553. bytes (REL,CON)

      Value  Global                              Global Defined In Module
      -----  --------------------------------   ------------------------
     0002490D  A$lcc2145679$210                   mg_leaves_update
     0002490F  A$lcc2145679$211                   mg_leaves_update
     00024910  A$lcc2145679$215                   mg_leaves_update
     00024910  C$mg_leaves_update.c$44$2_0$184    mg_leaves_update
     00024913  A$lcc2145679$216                   mg_leaves_update
     00024914  A$lcc2145679$217                   mg_leaves_update
     00024916  A$lcc2145679$218                   mg_leaves_update
     00024917  A$lcc2145679$219                   mg_leaves_update
     00024918  A$lcc2145679$220                   mg_leaves_update
     00024919  A$lcc2145679$221                   mg_leaves_update
     0002491A  A$lcc2145679$222                   mg_leaves_update
     0002491B  A$lcc2145679$223                   mg_leaves_update
     0002491C  A$lcc2145679$224                   mg_leaves_update
     0002491D  A$lcc2145679$225                   mg_leaves_update
     0002491F  A$lcc2145679$226                   mg_leaves_update
     00024921  A$lcc2145679$230                   mg_leaves_update
     00024921  C$mg_leaves_update.c$45$2_0$184    mg_leaves_update
     00024924  A$lcc2145679$231                   mg_leaves_update
     00024926  A$lcc2145679$232                   mg_leaves_update
     00024927  A$lcc2145679$233                   mg_leaves_update
     00024929  A$lcc2145679$234                   mg_leaves_update
     0002492A  A$lcc2145679$235                   mg_leaves_update
     0002492B  A$lcc2145679$236                   mg_leaves_update
     0002492C  A$lcc2145679$237                   mg_leaves_update
     0002492D  A$lcc2145679$238                   mg_leaves_update
     0002492E  A$lcc2145679$239                   mg_leaves_update
     0002492F  A$lcc2145679$244                   mg_leaves_update
     0002492F  C$mg_leaves_update.c$47$2_0$185    mg_leaves_update
     00024930  A$lcc2145679$245                   mg_leaves_update
     00024931  A$lcc2145679$246                   mg_leaves_update
     00024932  A$lcc2145679$247                   mg_leaves_update
     00024934  A$lcc2145679$248                   mg_leaves_update
     00024937  A$lcc2145679$249                   mg_leaves_update
     0002493A  A$lcc2145679$250                   mg_leaves_update
     0002493C  A$lcc2145679$251                   mg_leaves_update
     0002493D  A$lcc2145679$252                   mg_leaves_update
     0002493E  A$lcc2145679$253                   mg_leaves_update
     0002493F  A$lcc2145679$254                   mg_leaves_update
     00024941  A$lcc2145679$255                   mg_leaves_update
     00024942  A$lcc2145679$256                   mg_leaves_update
     00024943  A$lcc2145679$257                   mg_leaves_update
     00024944  A$lcc2145679$258                   mg_leaves_update
     00024945  A$lcc2145679$259                   mg_leaves_update
     00024946  A$lcc2145679$260                   mg_leaves_update
     00024947  A$lcc2145679$261                   mg_leaves_update
     00024948  A$lcc2145679$262                   mg_leaves_update
     00024949  A$lcc2145679$263                   mg_leaves_update
     0002494A  A$lcc2145679$264                   mg_leaves_update
     0002494B  A$lcc2145679$265                   mg_leaves_update
     0002494C  A$lcc2145679$266                   mg_leaves_update
     0002494D  A$lcc2145679$267                   mg_leaves_update
ASxxxx Linker V03.00/V05.40 + sdld,  page 164.
Hexadecimal  [32-Bits]

Area                                    Addr        Size        Decimal Bytes (Attributes)
--------------------------------        ----        ----        ------- ----- ------------
_CODE_2                             00024000    00000DE1 =        3553. bytes (REL,CON)

      Value  Global                              Global Defined In Module
      -----  --------------------------------   ------------------------
     0002494E  A$lcc2145679$268                   mg_leaves_update
     0002494F  A$lcc2145679$269                   mg_leaves_update
     00024950  A$lcc2145679$270                   mg_leaves_update
     00024951  A$lcc2145679$271                   mg_leaves_update
     00024954  A$lcc2145679$272                   mg_leaves_update
     00024955  A$lcc2145679$273                   mg_leaves_update
     00024956  A$lcc2145679$274                   mg_leaves_update
     00024957  A$lcc2145679$275                   mg_leaves_update
     00024959  A$lcc2145679$276                   mg_leaves_update
     0002495A  A$lcc2145679$277                   mg_leaves_update
     0002495B  A$lcc2145679$278                   mg_leaves_update
     0002495C  A$lcc2145679$279                   mg_leaves_update
     0002495F  A$lcc2145679$280                   mg_leaves_update
     00024960  A$lcc2145679$281                   mg_leaves_update
     00024961  A$lcc2145679$282                   mg_leaves_update
     00024963  A$lcc2145679$286                   mg_leaves_update
     00024963  C$mg_leaves_update.c$49$3_0$186    mg_leaves_update
     00024966  A$lcc2145679$287                   mg_leaves_update
     00024968  A$lcc2145679$288                   mg_leaves_update
     00024969  A$lcc2145679$289                   mg_leaves_update
     0002496B  A$lcc2145679$290                   mg_leaves_update
     0002496C  A$lcc2145679$291                   mg_leaves_update
     0002496D  A$lcc2145679$292                   mg_leaves_update
     0002496E  A$lcc2145679$293                   mg_leaves_update
     0002496F  A$lcc2145679$294                   mg_leaves_update
     00024970  A$lcc2145679$298                   mg_leaves_update
     00024970  C$mg_leaves_update.c$50$3_0$186    mg_leaves_update
     00024971  A$lcc2145679$299                   mg_leaves_update
     00024973  A$lcc2145679$300                   mg_leaves_update
     00024974  A$lcc2145679$304                   mg_leaves_update
     00024974  C$mg_leaves_update.c$51$3_0$186    mg_leaves_update
     00024977  A$lcc2145679$305                   mg_leaves_update
     00024979  A$lcc2145679$306                   mg_leaves_update
     0002497A  A$lcc2145679$307                   mg_leaves_update
     0002497C  A$lcc2145679$308                   mg_leaves_update
     0002497D  A$lcc2145679$309                   mg_leaves_update
     0002497F  A$lcc2145679$313                   mg_leaves_update
     0002497F  C$mg_leaves_update.c$53$3_0$186    mg_leaves_update
     00024982  A$lcc2145679$314                   mg_leaves_update
     00024984  A$lcc2145679$315                   mg_leaves_update
     00024985  A$lcc2145679$316                   mg_leaves_update
     00024987  A$lcc2145679$317                   mg_leaves_update
     00024988  A$lcc2145679$318                   mg_leaves_update
     0002498A  A$lcc2145679$322                   mg_leaves_update
     0002498A  C$mg_leaves_update.c$54$3_0$186    mg_leaves_update
     0002498C  A$lcc2145679$323                   mg_leaves_update
     0002498D  A$lcc2145679$324                   mg_leaves_update
     0002498F  A$lcc2145679$325                   mg_leaves_update
     00024991  A$lcc2145679$326                   mg_leaves_update
     00024993  A$lcc2145679$327                   mg_leaves_update
     00024996  A$lcc2145679$328                   mg_leaves_update
ASxxxx Linker V03.00/V05.40 + sdld,  page 165.
Hexadecimal  [32-Bits]

Area                                    Addr        Size        Decimal Bytes (Attributes)
--------------------------------        ----        ----        ------- ----- ------------
_CODE_2                             00024000    00000DE1 =        3553. bytes (REL,CON)

      Value  Global                              Global Defined In Module
      -----  --------------------------------   ------------------------
     00024997  A$lcc2145679$329                   mg_leaves_update
     00024998  A$lcc2145679$330                   mg_leaves_update
     00024999  A$lcc2145679$331                   mg_leaves_update
     0002499B  A$lcc2145679$335                   mg_leaves_update
     0002499B  C$mg_leaves_update.c$56$3_0$186    mg_leaves_update
     0002499E  A$lcc2145679$336                   mg_leaves_update
     000249A0  A$lcc2145679$337                   mg_leaves_update
     000249A1  A$lcc2145679$338                   mg_leaves_update
     000249A3  A$lcc2145679$339                   mg_leaves_update
     000249A4  A$lcc2145679$340                   mg_leaves_update
     000249A5  A$lcc2145679$341                   mg_leaves_update
     000249A6  A$lcc2145679$342                   mg_leaves_update
     000249A8  A$lcc2145679$343                   mg_leaves_update
     000249AB  A$lcc2145679$344                   mg_leaves_update
     000249AC  A$lcc2145679$345                   mg_leaves_update
     000249AD  A$lcc2145679$346                   mg_leaves_update
     000249AF  A$lcc2145679$347                   mg_leaves_update
     000249B1  A$lcc2145679$348                   mg_leaves_update
     000249B2  A$lcc2145679$349                   mg_leaves_update
     000249B3  A$lcc2145679$350                   mg_leaves_update
     000249B4  A$lcc2145679$354                   mg_leaves_update
     000249B4  C$mg_leaves_update.c$57$3_0$186    mg_leaves_update
     000249B5  A$lcc2145679$355                   mg_leaves_update
     000249B7  A$lcc2145679$356                   mg_leaves_update
     000249B8  A$lcc2145679$357                   mg_leaves_update
     000249B9  A$lcc2145679$358                   mg_leaves_update
     000249BC  A$lcc2145679$359                   mg_leaves_update
     000249BF  A$lcc2145679$360                   mg_leaves_update
     000249C2  A$lcc2145679$361                   mg_leaves_update
     000249C3  A$lcc2145679$366                   mg_leaves_update
     000249C5  A$lcc2145679$371                   mg_leaves_update
     000249C5  C$mg_leaves_update.c$59$2_0$183    mg_leaves_update
     000249C5  XG$spawn$0$0                       mg_leaves_update
     000249C6  A$lcc2145679$381                   mg_leaves_update
     000249C6  C$mg_leaves_update.c$61$2_0$188    mg_leaves_update
     000249C6  G$check_actor_status$0$0           mg_leaves_update
     000249C6  _check_actor_status                mg_leaves_update
     000249C8  A$lcc2145679$385                   mg_leaves_update
     000249C8  C$mg_leaves_update.c$63$5_0$191    mg_leaves_update
     000249CA  A$lcc2145679$387                   mg_leaves_update
     000249CB  A$lcc2145679$388                   mg_leaves_update
     000249CD  A$lcc2145679$389                   mg_leaves_update
     000249D0  A$lcc2145679$393                   mg_leaves_update
     000249D0  C$mg_leaves_update.c$65$3_0$189    mg_leaves_update
     000249D1  A$lcc2145679$394                   mg_leaves_update
     000249D3  A$lcc2145679$395                   mg_leaves_update
     000249D5  A$lcc2145679$396                   mg_leaves_update
     000249D6  A$lcc2145679$397                   mg_leaves_update
     000249D8  A$lcc2145679$398                   mg_leaves_update
     000249D9  A$lcc2145679$402                   mg_leaves_update
     000249D9  C$mg_leaves_update.c$67$3_0$189    mg_leaves_update
ASxxxx Linker V03.00/V05.40 + sdld,  page 166.
Hexadecimal  [32-Bits]

Area                                    Addr        Size        Decimal Bytes (Attributes)
--------------------------------        ----        ----        ------- ----- ------------
_CODE_2                             00024000    00000DE1 =        3553. bytes (REL,CON)

      Value  Global                              Global Defined In Module
      -----  --------------------------------   ------------------------
     000249DA  A$lcc2145679$403                   mg_leaves_update
     000249DB  A$lcc2145679$404                   mg_leaves_update
     000249DE  A$lcc2145679$405                   mg_leaves_update
     000249DF  A$lcc2145679$409                   mg_leaves_update
     000249DF  C$mg_leaves_update.c$69$2_0$188    mg_leaves_update
     000249E2  A$lcc2145679$410                   mg_leaves_update
     000249E3  A$lcc2145679$411                   mg_leaves_update
     000249E5  A$lcc2145679$412                   mg_leaves_update
     000249E6  A$lcc2145679$413                   mg_leaves_update
     000249E7  A$lcc2145679$414                   mg_leaves_update
     000249E8  A$lcc2145679$415                   mg_leaves_update
     000249E9  A$lcc2145679$416                   mg_leaves_update
     000249EA  A$lcc2145679$417                   mg_leaves_update
     000249EB  A$lcc2145679$418                   mg_leaves_update
     000249EC  A$lcc2145679$419                   mg_leaves_update
     000249ED  A$lcc2145679$420                   mg_leaves_update
     000249EF  A$lcc2145679$424                   mg_leaves_update
     000249EF  C$mg_leaves_update.c$71$6_0$191    mg_leaves_update
     000249F1  A$lcc2145679$428                   mg_leaves_update
     000249F1  C$mg_leaves_update.c$72$6_0$192    mg_leaves_update
     000249F3  A$lcc2145679$429                   mg_leaves_update
     000249F4  A$lcc2145679$430                   mg_leaves_update
     000249F5  A$lcc2145679$431                   mg_leaves_update
     000249F7  A$lcc2145679$435                   mg_leaves_update
     000249F7  C$mg_leaves_update.c$73$6_0$192    mg_leaves_update
     000249F9  A$lcc2145679$440                   mg_leaves_update
     000249F9  C$mg_leaves_update.c$75$5_0$191    mg_leaves_update
     000249FA  A$lcc2145679$441                   mg_leaves_update
     000249FC  A$lcc2145679$442                   mg_leaves_update
     000249FD  A$lcc2145679$443                   mg_leaves_update
     000249FE  A$lcc2145679$444                   mg_leaves_update
     000249FF  A$lcc2145679$445                   mg_leaves_update
     00024A02  A$lcc2145679$446                   mg_leaves_update
     00024A03  A$lcc2145679$447                   mg_leaves_update
     00024A04  A$lcc2145679$448                   mg_leaves_update
     00024A05  A$lcc2145679$449                   mg_leaves_update
     00024A07  A$lcc2145679$450                   mg_leaves_update
     00024A08  A$lcc2145679$451                   mg_leaves_update
     00024A09  A$lcc2145679$452                   mg_leaves_update
     00024A0A  A$lcc2145679$453                   mg_leaves_update
     00024A0C  A$lcc2145679$454                   mg_leaves_update
     00024A0D  A$lcc2145679$455                   mg_leaves_update
     00024A0E  A$lcc2145679$456                   mg_leaves_update
     00024A0F  A$lcc2145679$457                   mg_leaves_update
     00024A10  A$lcc2145679$458                   mg_leaves_update
     00024A11  A$lcc2145679$459                   mg_leaves_update
     00024A12  A$lcc2145679$460                   mg_leaves_update
     00024A13  A$lcc2145679$461                   mg_leaves_update
     00024A14  A$lcc2145679$462                   mg_leaves_update
     00024A15  A$lcc2145679$463                   mg_leaves_update
     00024A16  A$lcc2145679$464                   mg_leaves_update
ASxxxx Linker V03.00/V05.40 + sdld,  page 167.
Hexadecimal  [32-Bits]

Area                                    Addr        Size        Decimal Bytes (Attributes)
--------------------------------        ----        ----        ------- ----- ------------
_CODE_2                             00024000    00000DE1 =        3553. bytes (REL,CON)

      Value  Global                              Global Defined In Module
      -----  --------------------------------   ------------------------
     00024A17  A$lcc2145679$465                   mg_leaves_update
     00024A19  A$lcc2145679$466                   mg_leaves_update
     00024A1A  A$lcc2145679$467                   mg_leaves_update
     00024A1B  A$lcc2145679$468                   mg_leaves_update
     00024A1C  A$lcc2145679$469                   mg_leaves_update
     00024A1E  A$lcc2145679$470                   mg_leaves_update
     00024A1F  A$lcc2145679$471                   mg_leaves_update
     00024A20  A$lcc2145679$472                   mg_leaves_update
     00024A21  A$lcc2145679$473                   mg_leaves_update
     00024A23  A$lcc2145679$474                   mg_leaves_update
     00024A24  A$lcc2145679$475                   mg_leaves_update
     00024A25  A$lcc2145679$476                   mg_leaves_update
     00024A26  A$lcc2145679$477                   mg_leaves_update
     00024A27  A$lcc2145679$478                   mg_leaves_update
     00024A28  A$lcc2145679$479                   mg_leaves_update
     00024A29  A$lcc2145679$480                   mg_leaves_update
     00024A2A  A$lcc2145679$481                   mg_leaves_update
     00024A2B  A$lcc2145679$482                   mg_leaves_update
     00024A2C  A$lcc2145679$486                   mg_leaves_update
     00024A2C  C$mg_leaves_update.c$76$5_0$191    mg_leaves_update
     00024A2F  A$lcc2145679$487                   mg_leaves_update
     00024A31  A$lcc2145679$488                   mg_leaves_update
     00024A32  A$lcc2145679$489                   mg_leaves_update
     00024A33  A$lcc2145679$490                   mg_leaves_update
     00024A35  A$lcc2145679$491                   mg_leaves_update
     00024A36  A$lcc2145679$492                   mg_leaves_update
     00024A37  A$lcc2145679$493                   mg_leaves_update
     00024A38  A$lcc2145679$498                   mg_leaves_update
     00024A38  C$mg_leaves_update.c$79$4_0$193    mg_leaves_update
     00024A3B  A$lcc2145679$499                   mg_leaves_update
     00024A3C  A$lcc2145679$500                   mg_leaves_update
     00024A3E  A$lcc2145679$504                   mg_leaves_update
     00024A3F  A$lcc2145679$505                   mg_leaves_update
     00024A40  A$lcc2145679$506                   mg_leaves_update
     00024A41  A$lcc2145679$510                   mg_leaves_update
     00024A41  C$mg_leaves_update.c$82$2_0$188    mg_leaves_update
     00024A44  A$lcc2145679$511                   mg_leaves_update
     00024A45  A$lcc2145679$515                   mg_leaves_update
     00024A45  C$mg_leaves_update.c$81$6_0$195    mg_leaves_update
     00024A47  A$lcc2145679$516                   mg_leaves_update
     00024A49  A$lcc2145679$520                   mg_leaves_update
     00024A49  C$mg_leaves_update.c$82$6_0$195    mg_leaves_update
     00024A4C  A$lcc2145679$521                   mg_leaves_update
     00024A4E  A$lcc2145679$522                   mg_leaves_update
     00024A4F  A$lcc2145679$523                   mg_leaves_update
     00024A51  A$lcc2145679$524                   mg_leaves_update
     00024A52  A$lcc2145679$525                   mg_leaves_update
     00024A53  A$lcc2145679$526                   mg_leaves_update
     00024A55  A$lcc2145679$527                   mg_leaves_update
     00024A57  A$lcc2145679$528                   mg_leaves_update
     00024A58  A$lcc2145679$529                   mg_leaves_update
ASxxxx Linker V03.00/V05.40 + sdld,  page 168.
Hexadecimal  [32-Bits]

Area                                    Addr        Size        Decimal Bytes (Attributes)
--------------------------------        ----        ----        ------- ----- ------------
_CODE_2                             00024000    00000DE1 =        3553. bytes (REL,CON)

      Value  Global                              Global Defined In Module
      -----  --------------------------------   ------------------------
     00024A59  A$lcc2145679$530                   mg_leaves_update
     00024A5B  A$lcc2145679$531                   mg_leaves_update
     00024A5C  A$lcc2145679$532                   mg_leaves_update
     00024A5E  A$lcc2145679$537                   mg_leaves_update
     00024A5E  C$mg_leaves_update.c$83$7_0$196    mg_leaves_update
     00024A60  A$lcc2145679$538                   mg_leaves_update
     00024A62  A$lcc2145679$542                   mg_leaves_update
     00024A62  C$mg_leaves_update.c$84$7_0$196    mg_leaves_update
     00024A65  A$lcc2145679$543                   mg_leaves_update
     00024A67  A$lcc2145679$544                   mg_leaves_update
     00024A68  A$lcc2145679$545                   mg_leaves_update
     00024A6A  A$lcc2145679$546                   mg_leaves_update
     00024A6B  A$lcc2145679$547                   mg_leaves_update
     00024A6C  A$lcc2145679$548                   mg_leaves_update
     00024A6E  A$lcc2145679$549                   mg_leaves_update
     00024A70  A$lcc2145679$550                   mg_leaves_update
     00024A71  A$lcc2145679$551                   mg_leaves_update
     00024A72  A$lcc2145679$552                   mg_leaves_update
     00024A74  A$lcc2145679$553                   mg_leaves_update
     00024A75  A$lcc2145679$558                   mg_leaves_update
     00024A75  C$mg_leaves_update.c$87$3_0$189    mg_leaves_update
     00024A78  A$lcc2145679$559                   mg_leaves_update
     00024A7A  A$lcc2145679$560                   mg_leaves_update
     00024A7B  A$lcc2145679$561                   mg_leaves_update
     00024A7C  A$lcc2145679$562                   mg_leaves_update
     00024A7F  A$lcc2145679$563                   mg_leaves_update
     00024A81  A$lcc2145679$564                   mg_leaves_update
     00024A82  A$lcc2145679$565                   mg_leaves_update
     00024A83  A$lcc2145679$566                   mg_leaves_update
     00024A86  A$lcc2145679$567                   mg_leaves_update
     00024A88  A$lcc2145679$568                   mg_leaves_update
     00024A89  A$lcc2145679$569                   mg_leaves_update
     00024A8A  A$lcc2145679$570                   mg_leaves_update
     00024A8B  A$lcc2145679$571                   mg_leaves_update
     00024A8D  A$lcc2145679$572                   mg_leaves_update
     00024A8E  A$lcc2145679$573                   mg_leaves_update
     00024A8F  A$lcc2145679$574                   mg_leaves_update
     00024A91  A$lcc2145679$575                   mg_leaves_update
     00024A92  A$lcc2145679$576                   mg_leaves_update
     00024A93  A$lcc2145679$577                   mg_leaves_update
     00024A96  A$lcc2145679$578                   mg_leaves_update
     00024A97  A$lcc2145679$582                   mg_leaves_update
     00024A97  C$mg_leaves_update.c$63$2_0$188    mg_leaves_update
     00024A98  A$lcc2145679$583                   mg_leaves_update
     00024A9B  A$lcc2145679$588                   mg_leaves_update
     00024A9D  A$lcc2145679$593                   mg_leaves_update
     00024A9D  C$mg_leaves_update.c$89$2_0$188    mg_leaves_update
     00024A9D  XG$check_actor_status$0$0          mg_leaves_update
     00024A9E  A$lcc2145679$603                   mg_leaves_update
     00024A9E  C$mg_leaves_update.c$91$2_0$198    mg_leaves_update
     00024A9E  G$check_actor_collision$0$0        mg_leaves_update
ASxxxx Linker V03.00/V05.40 + sdld,  page 169.
Hexadecimal  [32-Bits]

Area                                    Addr        Size        Decimal Bytes (Attributes)
--------------------------------        ----        ----        ------- ----- ------------
_CODE_2                             00024000    00000DE1 =        3553. bytes (REL,CON)

      Value  Global                              Global Defined In Module
      -----  --------------------------------   ------------------------
     00024A9E  _check_actor_collision             mg_leaves_update
     00024AA0  A$lcc2145679$607                   mg_leaves_update
     00024AA0  C$mg_leaves_update.c$93$5_1$208    mg_leaves_update
     00024AA2  A$lcc2145679$608                   mg_leaves_update
     00024AA4  A$lcc2145679$610                   mg_leaves_update
     00024AA6  A$lcc2145679$611                   mg_leaves_update
     00024AA7  A$lcc2145679$612                   mg_leaves_update
     00024AA9  A$lcc2145679$613                   mg_leaves_update
     00024AAC  A$lcc2145679$617                   mg_leaves_update
     00024AAC  C$mg_leaves_update.c$95$2_0$198    mg_leaves_update
     00024AAF  A$lcc2145679$618                   mg_leaves_update
     00024AB0  A$lcc2145679$619                   mg_leaves_update
     00024AB2  A$lcc2145679$620                   mg_leaves_update
     00024AB3  A$lcc2145679$621                   mg_leaves_update
     00024AB4  A$lcc2145679$622                   mg_leaves_update
     00024AB5  A$lcc2145679$623                   mg_leaves_update
     00024AB6  A$lcc2145679$624                   mg_leaves_update
     00024AB7  A$lcc2145679$625                   mg_leaves_update
     00024AB8  A$lcc2145679$626                   mg_leaves_update
     00024AB9  A$lcc2145679$627                   mg_leaves_update
     00024ABB  A$lcc2145679$628                   mg_leaves_update
     00024ABC  A$lcc2145679$629                   mg_leaves_update
     00024ABD  A$lcc2145679$630                   mg_leaves_update
     00024AC0  A$lcc2145679$631                   mg_leaves_update
     00024AC1  A$lcc2145679$632                   mg_leaves_update
     00024AC4  A$lcc2145679$633                   mg_leaves_update
     00024AC5  A$lcc2145679$634                   mg_leaves_update
     00024AC7  A$lcc2145679$635                   mg_leaves_update
     00024AC8  A$lcc2145679$636                   mg_leaves_update
     00024AC9  A$lcc2145679$637                   mg_leaves_update
     00024ACA  A$lcc2145679$638                   mg_leaves_update
     00024ACC  A$lcc2145679$639                   mg_leaves_update
     00024ACD  A$lcc2145679$640                   mg_leaves_update
     00024ACE  A$lcc2145679$641                   mg_leaves_update
     00024ACF  A$lcc2145679$642                   mg_leaves_update
     00024AD1  A$lcc2145679$643                   mg_leaves_update
     00024AD2  A$lcc2145679$644                   mg_leaves_update
     00024AD3  A$lcc2145679$645                   mg_leaves_update
     00024AD4  A$lcc2145679$646                   mg_leaves_update
     00024AD5  A$lcc2145679$647                   mg_leaves_update
     00024AD6  A$lcc2145679$648                   mg_leaves_update
     00024AD8  A$lcc2145679$649                   mg_leaves_update
     00024ADB  A$lcc2145679$653                   mg_leaves_update
     00024ADB  C$mg_leaves_update.c$98$4_0$201    mg_leaves_update
     00024ADC  A$lcc2145679$654                   mg_leaves_update
     00024ADE  A$lcc2145679$658                   mg_leaves_update
     00024ADE  C$mg_leaves_update.c$100$6_0$203   mg_leaves_update
     00024AE1  A$lcc2145679$659                   mg_leaves_update
     00024AE3  A$lcc2145679$660                   mg_leaves_update
     00024AE4  A$lcc2145679$661                   mg_leaves_update
     00024AE6  A$lcc2145679$662                   mg_leaves_update
ASxxxx Linker V03.00/V05.40 + sdld,  page 170.
Hexadecimal  [32-Bits]

Area                                    Addr        Size        Decimal Bytes (Attributes)
--------------------------------        ----        ----        ------- ----- ------------
_CODE_2                             00024000    00000DE1 =        3553. bytes (REL,CON)

      Value  Global                              Global Defined In Module
      -----  --------------------------------   ------------------------
     00024AE7  A$lcc2145679$663                   mg_leaves_update
     00024AE8  A$lcc2145679$664                   mg_leaves_update
     00024AE9  A$lcc2145679$665                   mg_leaves_update
     00024AEB  A$lcc2145679$666                   mg_leaves_update
     00024AEC  A$lcc2145679$667                   mg_leaves_update
     00024AED  A$lcc2145679$668                   mg_leaves_update
     00024AEE  A$lcc2145679$669                   mg_leaves_update
     00024AF0  A$lcc2145679$670                   mg_leaves_update
     00024AF1  A$lcc2145679$671                   mg_leaves_update
     00024AF2  A$lcc2145679$672                   mg_leaves_update
     00024AF3  A$lcc2145679$673                   mg_leaves_update
     00024AF4  A$lcc2145679$674                   mg_leaves_update
     00024AF5  A$lcc2145679$675                   mg_leaves_update
     00024AF6  A$lcc2145679$676                   mg_leaves_update
     00024AF7  A$lcc2145679$677                   mg_leaves_update
     00024AFA  A$lcc2145679$678                   mg_leaves_update
     00024AFB  A$lcc2145679$679                   mg_leaves_update
     00024AFD  A$lcc2145679$680                   mg_leaves_update
     00024AFE  A$lcc2145679$681                   mg_leaves_update
     00024AFF  A$lcc2145679$682                   mg_leaves_update
     00024B02  A$lcc2145679$686                   mg_leaves_update
     00024B02  C$mg_leaves_update.c$102$7_0$204   mg_leaves_update
     00024B04  A$lcc2145679$687                   mg_leaves_update
     00024B05  A$lcc2145679$688                   mg_leaves_update
     00024B06  A$lcc2145679$689                   mg_leaves_update
     00024B07  A$lcc2145679$690                   mg_leaves_update
     00024B09  A$lcc2145679$694                   mg_leaves_update
     00024B09  C$mg_leaves_update.c$103$7_0$204   mg_leaves_update
     00024B0C  A$lcc2145679$695                   mg_leaves_update
     00024B0E  A$lcc2145679$696                   mg_leaves_update
     00024B0F  A$lcc2145679$697                   mg_leaves_update
     00024B10  A$lcc2145679$698                   mg_leaves_update
     00024B11  A$lcc2145679$699                   mg_leaves_update
     00024B12  A$lcc2145679$700                   mg_leaves_update
     00024B13  A$lcc2145679$708                   mg_leaves_update
     00024B13  C$mg_leaves_update.c$106$4_0$201   mg_leaves_update
     00024B13  C$mg_leaves_update.c$109$4_0$205   mg_leaves_update
     00024B15  A$lcc2145679$709                   mg_leaves_update
     00024B16  A$lcc2145679$710                   mg_leaves_update
     00024B19  A$lcc2145679$711                   mg_leaves_update
     00024B1A  A$lcc2145679$712                   mg_leaves_update
     00024B1C  A$lcc2145679$716                   mg_leaves_update
     00024B1C  C$mg_leaves_update.c$110$4_0$205   mg_leaves_update
     00024B1E  A$lcc2145679$717                   mg_leaves_update
     00024B1F  A$lcc2145679$718                   mg_leaves_update
     00024B20  A$lcc2145679$719                   mg_leaves_update
     00024B21  A$lcc2145679$720                   mg_leaves_update
     00024B23  A$lcc2145679$725                   mg_leaves_update
     00024B23  C$mg_leaves_update.c$112$3_1$206   mg_leaves_update
     00024B25  A$lcc2145679$726                   mg_leaves_update
     00024B26  A$lcc2145679$727                   mg_leaves_update
ASxxxx Linker V03.00/V05.40 + sdld,  page 171.
Hexadecimal  [32-Bits]

Area                                    Addr        Size        Decimal Bytes (Attributes)
--------------------------------        ----        ----        ------- ----- ------------
_CODE_2                             00024000    00000DE1 =        3553. bytes (REL,CON)

      Value  Global                              Global Defined In Module
      -----  --------------------------------   ------------------------
     00024B28  A$lcc2145679$728                   mg_leaves_update
     00024B2A  A$lcc2145679$729                   mg_leaves_update
     00024B2B  A$lcc2145679$730                   mg_leaves_update
     00024B2D  A$lcc2145679$734                   mg_leaves_update
     00024B2E  A$lcc2145679$735                   mg_leaves_update
     00024B2F  A$lcc2145679$736                   mg_leaves_update
     00024B30  A$lcc2145679$737                   mg_leaves_update
     00024B31  A$lcc2145679$738                   mg_leaves_update
     00024B32  A$lcc2145679$739                   mg_leaves_update
     00024B33  A$lcc2145679$743                   mg_leaves_update
     00024B33  C$mg_leaves_update.c$120$2_0$198   mg_leaves_update
     00024B35  A$lcc2145679$744                   mg_leaves_update
     00024B36  A$lcc2145679$745                   mg_leaves_update
     00024B37  A$lcc2145679$746                   mg_leaves_update
     00024B38  A$lcc2145679$747                   mg_leaves_update
     00024B3A  A$lcc2145679$748                   mg_leaves_update
     00024B3C  A$lcc2145679$749                   mg_leaves_update
     00024B3E  A$lcc2145679$750                   mg_leaves_update
     00024B3F  A$lcc2145679$751                   mg_leaves_update
     00024B40  A$lcc2145679$752                   mg_leaves_update
     00024B41  A$lcc2145679$756                   mg_leaves_update
     00024B41  C$mg_leaves_update.c$114$4_1$207   mg_leaves_update
     00024B43  A$lcc2145679$757                   mg_leaves_update
     00024B45  A$lcc2145679$758                   mg_leaves_update
     00024B46  A$lcc2145679$759                   mg_leaves_update
     00024B49  A$lcc2145679$760                   mg_leaves_update
     00024B4A  A$lcc2145679$761                   mg_leaves_update
     00024B4C  A$lcc2145679$762                   mg_leaves_update
     00024B4D  A$lcc2145679$763                   mg_leaves_update
     00024B4E  A$lcc2145679$764                   mg_leaves_update
     00024B4F  A$lcc2145679$765                   mg_leaves_update
     00024B50  A$lcc2145679$766                   mg_leaves_update
     00024B51  A$lcc2145679$767                   mg_leaves_update
     00024B54  A$lcc2145679$768                   mg_leaves_update
     00024B55  A$lcc2145679$769                   mg_leaves_update
     00024B57  A$lcc2145679$773                   mg_leaves_update
     00024B57  C$mg_leaves_update.c$116$5_1$208   mg_leaves_update
     00024B59  A$lcc2145679$774                   mg_leaves_update
     00024B5A  A$lcc2145679$775                   mg_leaves_update
     00024B5B  A$lcc2145679$776                   mg_leaves_update
     00024B5C  A$lcc2145679$777                   mg_leaves_update
     00024B5E  A$lcc2145679$781                   mg_leaves_update
     00024B5E  C$mg_leaves_update.c$117$5_1$208   mg_leaves_update
     00024B5F  A$lcc2145679$782                   mg_leaves_update
     00024B61  A$lcc2145679$783                   mg_leaves_update
     00024B62  A$lcc2145679$787                   mg_leaves_update
     00024B62  C$mg_leaves_update.c$119$5_1$208   mg_leaves_update
     00024B65  A$lcc2145679$788                   mg_leaves_update
     00024B67  A$lcc2145679$789                   mg_leaves_update
     00024B68  A$lcc2145679$790                   mg_leaves_update
     00024B6A  A$lcc2145679$791                   mg_leaves_update
ASxxxx Linker V03.00/V05.40 + sdld,  page 172.
Hexadecimal  [32-Bits]

Area                                    Addr        Size        Decimal Bytes (Attributes)
--------------------------------        ----        ----        ------- ----- ------------
_CODE_2                             00024000    00000DE1 =        3553. bytes (REL,CON)

      Value  Global                              Global Defined In Module
      -----  --------------------------------   ------------------------
     00024B6B  A$lcc2145679$792                   mg_leaves_update
     00024B6C  A$lcc2145679$793                   mg_leaves_update
     00024B6D  A$lcc2145679$794                   mg_leaves_update
     00024B6E  A$lcc2145679$795                   mg_leaves_update
     00024B6F  A$lcc2145679$799                   mg_leaves_update
     00024B6F  C$mg_leaves_update.c$120$5_1$208   mg_leaves_update
     00024B72  A$lcc2145679$800                   mg_leaves_update
     00024B74  A$lcc2145679$801                   mg_leaves_update
     00024B75  A$lcc2145679$802                   mg_leaves_update
     00024B76  A$lcc2145679$803                   mg_leaves_update
     00024B77  A$lcc2145679$804                   mg_leaves_update
     00024B78  A$lcc2145679$805                   mg_leaves_update
     00024B79  A$lcc2145679$806                   mg_leaves_update
     00024B7A  A$lcc2145679$807                   mg_leaves_update
     00024B7B  A$lcc2145679$808                   mg_leaves_update
     00024B7C  A$lcc2145679$809                   mg_leaves_update
     00024B7D  A$lcc2145679$810                   mg_leaves_update
     00024B7E  A$lcc2145679$814                   mg_leaves_update
     00024B81  A$lcc2145679$815                   mg_leaves_update
     00024B82  A$lcc2145679$819                   mg_leaves_update
     00024B82  C$mg_leaves_update.c$122$6_1$209   mg_leaves_update
     00024B84  A$lcc2145679$820                   mg_leaves_update
     00024B85  A$lcc2145679$821                   mg_leaves_update
     00024B86  A$lcc2145679$822                   mg_leaves_update
     00024B88  A$lcc2145679$826                   mg_leaves_update
     00024B88  C$mg_leaves_update.c$123$6_1$209   mg_leaves_update
     00024B89  A$lcc2145679$827                   mg_leaves_update
     00024B8B  A$lcc2145679$828                   mg_leaves_update
     00024B8E  A$lcc2145679$829                   mg_leaves_update
     00024B90  A$lcc2145679$834                   mg_leaves_update
     00024B90  C$mg_leaves_update.c$125$6_1$209   mg_leaves_update
     00024B91  A$lcc2145679$835                   mg_leaves_update
     00024B93  A$lcc2145679$836                   mg_leaves_update
     00024B96  A$lcc2145679$841                   mg_leaves_update
     00024B96  C$mg_leaves_update.c$128$4_1$210   mg_leaves_update
     00024B98  A$lcc2145679$842                   mg_leaves_update
     00024B99  A$lcc2145679$843                   mg_leaves_update
     00024B9A  A$lcc2145679$844                   mg_leaves_update
     00024B9B  A$lcc2145679$845                   mg_leaves_update
     00024B9C  A$lcc2145679$846                   mg_leaves_update
     00024B9E  A$lcc2145679$847                   mg_leaves_update
     00024BA0  A$lcc2145679$848                   mg_leaves_update
     00024BA3  A$lcc2145679$849                   mg_leaves_update
     00024BA5  A$lcc2145679$850                   mg_leaves_update
     00024BA6  A$lcc2145679$851                   mg_leaves_update
     00024BA8  A$lcc2145679$852                   mg_leaves_update
     00024BA9  A$lcc2145679$853                   mg_leaves_update
     00024BAA  A$lcc2145679$854                   mg_leaves_update
     00024BAB  A$lcc2145679$855                   mg_leaves_update
     00024BAC  A$lcc2145679$856                   mg_leaves_update
     00024BAF  A$lcc2145679$857                   mg_leaves_update
ASxxxx Linker V03.00/V05.40 + sdld,  page 173.
Hexadecimal  [32-Bits]

Area                                    Addr        Size        Decimal Bytes (Attributes)
--------------------------------        ----        ----        ------- ----- ------------
_CODE_2                             00024000    00000DE1 =        3553. bytes (REL,CON)

      Value  Global                              Global Defined In Module
      -----  --------------------------------   ------------------------
     00024BB0  A$lcc2145679$858                   mg_leaves_update
     00024BB1  A$lcc2145679$859                   mg_leaves_update
     00024BB3  A$lcc2145679$863                   mg_leaves_update
     00024BB3  C$mg_leaves_update.c$130$5_1$211   mg_leaves_update
     00024BB5  A$lcc2145679$864                   mg_leaves_update
     00024BB6  A$lcc2145679$865                   mg_leaves_update
     00024BB7  A$lcc2145679$866                   mg_leaves_update
     00024BB8  A$lcc2145679$867                   mg_leaves_update
     00024BBA  A$lcc2145679$871                   mg_leaves_update
     00024BBA  C$mg_leaves_update.c$131$5_1$211   mg_leaves_update
     00024BBB  A$lcc2145679$872                   mg_leaves_update
     00024BBD  A$lcc2145679$873                   mg_leaves_update
     00024BBE  A$lcc2145679$877                   mg_leaves_update
     00024BBE  C$mg_leaves_update.c$133$5_1$211   mg_leaves_update
     00024BC1  A$lcc2145679$878                   mg_leaves_update
     00024BC3  A$lcc2145679$879                   mg_leaves_update
     00024BC4  A$lcc2145679$880                   mg_leaves_update
     00024BC6  A$lcc2145679$881                   mg_leaves_update
     00024BC7  A$lcc2145679$882                   mg_leaves_update
     00024BC8  A$lcc2145679$883                   mg_leaves_update
     00024BC9  A$lcc2145679$884                   mg_leaves_update
     00024BCB  A$lcc2145679$885                   mg_leaves_update
     00024BCC  A$lcc2145679$886                   mg_leaves_update
     00024BCD  A$lcc2145679$887                   mg_leaves_update
     00024BCE  A$lcc2145679$888                   mg_leaves_update
     00024BD0  A$lcc2145679$889                   mg_leaves_update
     00024BD1  A$lcc2145679$890                   mg_leaves_update
     00024BD2  A$lcc2145679$891                   mg_leaves_update
     00024BD3  A$lcc2145679$892                   mg_leaves_update
     00024BD4  A$lcc2145679$893                   mg_leaves_update
     00024BD6  A$lcc2145679$897                   mg_leaves_update
     00024BD6  C$mg_leaves_update.c$134$5_1$211   mg_leaves_update
     00024BD8  A$lcc2145679$898                   mg_leaves_update
     00024BD9  A$lcc2145679$899                   mg_leaves_update
     00024BDA  A$lcc2145679$900                   mg_leaves_update
     00024BDB  A$lcc2145679$901                   mg_leaves_update
     00024BDE  A$lcc2145679$902                   mg_leaves_update
     00024BDF  A$lcc2145679$903                   mg_leaves_update
     00024BE0  A$lcc2145679$904                   mg_leaves_update
     00024BE1  A$lcc2145679$905                   mg_leaves_update
     00024BE3  A$lcc2145679$906                   mg_leaves_update
     00024BE4  A$lcc2145679$907                   mg_leaves_update
     00024BE5  A$lcc2145679$908                   mg_leaves_update
     00024BE6  A$lcc2145679$909                   mg_leaves_update
     00024BE8  A$lcc2145679$910                   mg_leaves_update
     00024BE9  A$lcc2145679$911                   mg_leaves_update
     00024BEA  A$lcc2145679$912                   mg_leaves_update
     00024BEB  A$lcc2145679$913                   mg_leaves_update
     00024BEC  A$lcc2145679$914                   mg_leaves_update
     00024BED  A$lcc2145679$915                   mg_leaves_update
     00024BEE  A$lcc2145679$916                   mg_leaves_update
ASxxxx Linker V03.00/V05.40 + sdld,  page 174.
Hexadecimal  [32-Bits]

Area                                    Addr        Size        Decimal Bytes (Attributes)
--------------------------------        ----        ----        ------- ----- ------------
_CODE_2                             00024000    00000DE1 =        3553. bytes (REL,CON)

      Value  Global                              Global Defined In Module
      -----  --------------------------------   ------------------------
     00024BEF  A$lcc2145679$920                   mg_leaves_update
     00024BEF  C$mg_leaves_update.c$123$2_0$198   mg_leaves_update
     00024BF2  A$lcc2145679$921                   mg_leaves_update
     00024BF4  A$lcc2145679$925                   mg_leaves_update
     00024BF4  C$mg_leaves_update.c$136$6_1$212   mg_leaves_update
     00024BF5  A$lcc2145679$926                   mg_leaves_update
     00024BF6  A$lcc2145679$927                   mg_leaves_update
     00024BF7  A$lcc2145679$928                   mg_leaves_update
     00024BF8  A$lcc2145679$929                   mg_leaves_update
     00024BFA  A$lcc2145679$933                   mg_leaves_update
     00024BFA  C$mg_leaves_update.c$137$6_1$212   mg_leaves_update
     00024BFB  A$lcc2145679$934                   mg_leaves_update
     00024BFC  A$lcc2145679$935                   mg_leaves_update
     00024BFD  A$lcc2145679$936                   mg_leaves_update
     00024BFF  A$lcc2145679$937                   mg_leaves_update
     00024C02  A$lcc2145679$938                   mg_leaves_update
     00024C04  A$lcc2145679$943                   mg_leaves_update
     00024C04  C$mg_leaves_update.c$139$6_1$212   mg_leaves_update
     00024C06  A$lcc2145679$944                   mg_leaves_update
     00024C07  A$lcc2145679$945                   mg_leaves_update
     00024C09  A$lcc2145679$946                   mg_leaves_update
     00024C0C  A$lcc2145679$951                   mg_leaves_update
     00024C0C  C$mg_leaves_update.c$93$2_0$198    mg_leaves_update
     00024C0E  A$lcc2145679$952                   mg_leaves_update
     00024C0F  A$lcc2145679$953                   mg_leaves_update
     00024C12  A$lcc2145679$958                   mg_leaves_update
     00024C14  A$lcc2145679$963                   mg_leaves_update
     00024C14  C$mg_leaves_update.c$142$2_0$198   mg_leaves_update
     00024C14  XG$check_actor_collision$0$0       mg_leaves_update
     00024C15  A$lcc2145679$973                   mg_leaves_update
     00024C15  C$mg_leaves_update.c$144$2_0$214   mg_leaves_update
     00024C15  G$Mg_Leaves_Update$0$0             mg_leaves_update
     00024C15  _Mg_Leaves_Update                  mg_leaves_update
     00024C17  A$lcc2145679$977                   mg_leaves_update
     00024C17  C$mg_leaves_update.c$146$1_0$214   mg_leaves_update
     00024C1A  A$lcc2145679$981                   mg_leaves_update
     00024C1A  C$mg_leaves_update.c$148$2_0$215   mg_leaves_update
     00024C1D  A$lcc2145679$982                   mg_leaves_update
     00024C1E  A$lcc2145679$983                   mg_leaves_update
     00024C20  A$lcc2145679$987                   mg_leaves_update
     00024C20  C$mg_leaves_update.c$150$3_0$216   mg_leaves_update
     00024C23  A$lcc2145679$991                   mg_leaves_update
     00024C23  C$mg_leaves_update.c$152$1_1$214   mg_leaves_update
     00024C25  A$lcc2145679$992                   mg_leaves_update
     00024C27  A$lcc2145679$994                   mg_leaves_update
     00024C29  A$lcc2145679$995                   mg_leaves_update
     00024C2A  A$lcc2145679$996                   mg_leaves_update
     00024C2B  A$lcc2145679$997                   mg_leaves_update
     00024C2C  A$lcc2145679$998                   mg_leaves_update
     00024C2D  A$lcc2145679$999                   mg_leaves_update
     00024C2E  A$lcc2145679$1000                  mg_leaves_update
ASxxxx Linker V03.00/V05.40 + sdld,  page 175.
Hexadecimal  [32-Bits]

Area                                    Addr        Size        Decimal Bytes (Attributes)
--------------------------------        ----        ----        ------- ----- ------------
_CODE_2                             00024000    00000DE1 =        3553. bytes (REL,CON)

      Value  Global                              Global Defined In Module
      -----  --------------------------------   ------------------------
     00024C31  A$lcc2145679$1001                  mg_leaves_update
     00024C32  A$lcc2145679$1002                  mg_leaves_update
     00024C34  A$lcc2145679$1003                  mg_leaves_update
     00024C35  A$lcc2145679$1004                  mg_leaves_update
     00024C36  A$lcc2145679$1005                  mg_leaves_update
     00024C37  A$lcc2145679$1006                  mg_leaves_update
     00024C38  A$lcc2145679$1007                  mg_leaves_update
     00024C39  A$lcc2145679$1008                  mg_leaves_update
     00024C3A  A$lcc2145679$1009                  mg_leaves_update
     00024C3C  A$lcc2145679$1010                  mg_leaves_update
     00024C3E  A$lcc2145679$1011                  mg_leaves_update
     00024C40  A$lcc2145679$1012                  mg_leaves_update
     00024C42  A$lcc2145679$1013                  mg_leaves_update
     00024C43  A$lcc2145679$1014                  mg_leaves_update
     00024C45  A$lcc2145679$1016                  mg_leaves_update
     00024C47  A$lcc2145679$1017                  mg_leaves_update
     00024C49  A$lcc2145679$1018                  mg_leaves_update
     00024C4A  A$lcc2145679$1020                  mg_leaves_update
     00024C4C  A$lcc2145679$1024                  mg_leaves_update
     00024C4C  C$mg_leaves_update.c$153$4_0$217   mg_leaves_update
     00024C4F  A$lcc2145679$1025                  mg_leaves_update
     00024C50  A$lcc2145679$1026                  mg_leaves_update
     00024C52  A$lcc2145679$1027                  mg_leaves_update
     00024C53  A$lcc2145679$1028                  mg_leaves_update
     00024C54  A$lcc2145679$1029                  mg_leaves_update
     00024C56  A$lcc2145679$1030                  mg_leaves_update
     00024C58  A$lcc2145679$1031                  mg_leaves_update
     00024C59  A$lcc2145679$1032                  mg_leaves_update
     00024C5C  A$lcc2145679$1036                  mg_leaves_update
     00024C5C  C$mg_leaves_update.c$152$4_0$217   mg_leaves_update
     00024C5E  A$lcc2145679$1037                  mg_leaves_update
     00024C5F  A$lcc2145679$1038                  mg_leaves_update
     00024C61  A$lcc2145679$1043                  mg_leaves_update
     00024C61  C$mg_leaves_update.c$155$3_0$216   mg_leaves_update
     00024C64  A$lcc2145679$1044                  mg_leaves_update
     00024C67  A$lcc2145679$1045                  mg_leaves_update
     00024C68  A$lcc2145679$1046                  mg_leaves_update
     00024C6A  A$lcc2145679$1047                  mg_leaves_update
     00024C6B  A$lcc2145679$1048                  mg_leaves_update
     00024C6D  A$lcc2145679$1052                  mg_leaves_update
     00024C6D  C$mg_leaves_update.c$156$3_0$216   mg_leaves_update
     00024C70  A$lcc2145679$1053                  mg_leaves_update
     00024C73  A$lcc2145679$1057                  mg_leaves_update
     00024C73  C$mg_leaves_update.c$158$3_0$216   mg_leaves_update
     00024C76  A$lcc2145679$1061                  mg_leaves_update
     00024C76  C$mg_leaves_update.c$159$3_0$216   mg_leaves_update
     00024C79  A$lcc2145679$1065                  mg_leaves_update
     00024C79  C$mg_leaves_update.c$161$3_0$216   mg_leaves_update
     00024C7C  A$lcc2145679$1066                  mg_leaves_update
     00024C7D  A$lcc2145679$1067                  mg_leaves_update
     00024C7E  A$lcc2145679$1068                  mg_leaves_update
ASxxxx Linker V03.00/V05.40 + sdld,  page 176.
Hexadecimal  [32-Bits]

Area                                    Addr        Size        Decimal Bytes (Attributes)
--------------------------------        ----        ----        ------- ----- ------------
_CODE_2                             00024000    00000DE1 =        3553. bytes (REL,CON)

      Value  Global                              Global Defined In Module
      -----  --------------------------------   ------------------------
     00024C7F  A$lcc2145679$1069                  mg_leaves_update
     00024C82  A$lcc2145679$1070                  mg_leaves_update
     00024C84  A$lcc2145679$1071                  mg_leaves_update
     00024C85  A$lcc2145679$1072                  mg_leaves_update
     00024C86  A$lcc2145679$1073                  mg_leaves_update
     00024C89  A$lcc2145679$1077                  mg_leaves_update
     00024C89  C$mg_leaves_update.c$162$3_0$216   mg_leaves_update
     00024C8C  A$lcc2145679$1082                  mg_leaves_update
     00024C8C  C$mg_leaves_update.c$165$2_0$218   mg_leaves_update
     00024C8F  A$lcc2145679$1083                  mg_leaves_update
     00024C91  A$lcc2145679$1084                  mg_leaves_update
     00024C93  A$lcc2145679$1088                  mg_leaves_update
     00024C93  C$mg_leaves_update.c$166$2_0$218   mg_leaves_update
     00024C96  A$lcc2145679$1089                  mg_leaves_update
     00024C98  A$lcc2145679$1090                  mg_leaves_update
     00024C9A  A$lcc2145679$1095                  mg_leaves_update
     00024C9A  C$mg_leaves_update.c$168$2_0$218   mg_leaves_update
     00024C9B  A$lcc2145679$1096                  mg_leaves_update
     00024C9E  A$lcc2145679$1101                  mg_leaves_update
     00024C9E  C$mg_leaves_update.c$170$2_0$219   mg_leaves_update
     00024CA1  A$lcc2145679$1102                  mg_leaves_update
     00024CA4  A$lcc2145679$1103                  mg_leaves_update
     00024CA5  A$lcc2145679$1104                  mg_leaves_update
     00024CA7  A$lcc2145679$1105                  mg_leaves_update
     00024CA8  A$lcc2145679$1106                  mg_leaves_update
     00024CA9  A$lcc2145679$1107                  mg_leaves_update
     00024CAA  A$lcc2145679$1108                  mg_leaves_update
     00024CAB  A$lcc2145679$1109                  mg_leaves_update
     00024CAE  A$lcc2145679$1110                  mg_leaves_update
     00024CB0  A$lcc2145679$1111                  mg_leaves_update
     00024CB1  A$lcc2145679$1112                  mg_leaves_update
     00024CB2  A$lcc2145679$1113                  mg_leaves_update
     00024CB3  A$lcc2145679$1114                  mg_leaves_update
     00024CB4  A$lcc2145679$1115                  mg_leaves_update
     00024CB5  A$lcc2145679$1116                  mg_leaves_update
     00024CB6  A$lcc2145679$1117                  mg_leaves_update
     00024CB9  A$lcc2145679$1118                  mg_leaves_update
     00024CBA  A$lcc2145679$1119                  mg_leaves_update
     00024CBB  A$lcc2145679$1120                  mg_leaves_update
     00024CBC  A$lcc2145679$1121                  mg_leaves_update
     00024CBD  A$lcc2145679$1122                  mg_leaves_update
     00024CBE  A$lcc2145679$1123                  mg_leaves_update
     00024CC0  A$lcc2145679$1124                  mg_leaves_update
     00024CC1  A$lcc2145679$1125                  mg_leaves_update
     00024CC2  A$lcc2145679$1126                  mg_leaves_update
     00024CC3  A$lcc2145679$1127                  mg_leaves_update
     00024CC4  A$lcc2145679$1128                  mg_leaves_update
     00024CC5  A$lcc2145679$1129                  mg_leaves_update
     00024CC6  A$lcc2145679$1130                  mg_leaves_update
     00024CC7  A$lcc2145679$1131                  mg_leaves_update
     00024CC8  A$lcc2145679$1132                  mg_leaves_update
ASxxxx Linker V03.00/V05.40 + sdld,  page 177.
Hexadecimal  [32-Bits]

Area                                    Addr        Size        Decimal Bytes (Attributes)
--------------------------------        ----        ----        ------- ----- ------------
_CODE_2                             00024000    00000DE1 =        3553. bytes (REL,CON)

      Value  Global                              Global Defined In Module
      -----  --------------------------------   ------------------------
     00024CCA  A$lcc2145679$1133                  mg_leaves_update
     00024CCC  A$lcc2145679$1134                  mg_leaves_update
     00024CCD  A$lcc2145679$1135                  mg_leaves_update
     00024CCE  A$lcc2145679$1136                  mg_leaves_update
     00024CD0  A$lcc2145679$1137                  mg_leaves_update
     00024CD1  A$lcc2145679$1138                  mg_leaves_update
     00024CD2  A$lcc2145679$1139                  mg_leaves_update
     00024CD3  A$lcc2145679$1140                  mg_leaves_update
     00024CD4  A$lcc2145679$1141                  mg_leaves_update
     00024CD5  A$lcc2145679$1142                  mg_leaves_update
     00024CD6  A$lcc2145679$1143                  mg_leaves_update
     00024CD7  A$lcc2145679$1144                  mg_leaves_update
     00024CD8  A$lcc2145679$1145                  mg_leaves_update
     00024CDA  A$lcc2145679$1146                  mg_leaves_update
     00024CDC  A$lcc2145679$1147                  mg_leaves_update
     00024CDE  A$lcc2145679$1148                  mg_leaves_update
     00024CE0  A$lcc2145679$1149                  mg_leaves_update
     00024CE1  A$lcc2145679$1150                  mg_leaves_update
     00024CE3  A$lcc2145679$1152                  mg_leaves_update
     00024CE5  A$lcc2145679$1153                  mg_leaves_update
     00024CE7  A$lcc2145679$1154                  mg_leaves_update
     00024CE8  A$lcc2145679$1156                  mg_leaves_update
     00024CEA  A$lcc2145679$1160                  mg_leaves_update
     00024CEA  C$mg_leaves_update.c$171$2_0$219   mg_leaves_update
     00024CED  A$lcc2145679$1161                  mg_leaves_update
     00024CEF  A$lcc2145679$1162                  mg_leaves_update
     00024CF1  A$lcc2145679$1167                  mg_leaves_update
     00024CF1  C$mg_leaves_update.c$173$2_0$219   mg_leaves_update
     00024CF4  A$lcc2145679$1168                  mg_leaves_update
     00024CF6  A$lcc2145679$1173                  mg_leaves_update
     00024CF6  C$mg_leaves_update.c$175$2_0$220   mg_leaves_update
     00024CF9  A$lcc2145679$1174                  mg_leaves_update
     00024CFA  A$lcc2145679$1175                  mg_leaves_update
     00024CFC  A$lcc2145679$1176                  mg_leaves_update
     00024CFD  A$lcc2145679$1177                  mg_leaves_update
     00024D00  A$lcc2145679$1178                  mg_leaves_update
     00024D01  A$lcc2145679$1179                  mg_leaves_update
     00024D02  A$lcc2145679$1180                  mg_leaves_update
     00024D04  A$lcc2145679$1181                  mg_leaves_update
     00024D05  A$lcc2145679$1182                  mg_leaves_update
     00024D06  A$lcc2145679$1183                  mg_leaves_update
     00024D07  A$lcc2145679$1184                  mg_leaves_update
     00024D08  A$lcc2145679$1185                  mg_leaves_update
     00024D09  A$lcc2145679$1186                  mg_leaves_update
     00024D0B  A$lcc2145679$1187                  mg_leaves_update
     00024D0C  A$lcc2145679$1188                  mg_leaves_update
     00024D0D  A$lcc2145679$1189                  mg_leaves_update
     00024D0E  A$lcc2145679$1190                  mg_leaves_update
     00024D0F  A$lcc2145679$1191                  mg_leaves_update
     00024D11  A$lcc2145679$1195                  mg_leaves_update
     00024D11  C$mg_leaves_update.c$176$2_0$220   mg_leaves_update
ASxxxx Linker V03.00/V05.40 + sdld,  page 178.
Hexadecimal  [32-Bits]

Area                                    Addr        Size        Decimal Bytes (Attributes)
--------------------------------        ----        ----        ------- ----- ------------
_CODE_2                             00024000    00000DE1 =        3553. bytes (REL,CON)

      Value  Global                              Global Defined In Module
      -----  --------------------------------   ------------------------
     00024D14  A$lcc2145679$1196                  mg_leaves_update
     00024D16  A$lcc2145679$1197                  mg_leaves_update
     00024D18  A$lcc2145679$1202                  mg_leaves_update
     00024D18  C$mg_leaves_update.c$178$2_0$220   mg_leaves_update
     00024D1B  A$lcc2145679$1203                  mg_leaves_update
     00024D1D  A$lcc2145679$1208                  mg_leaves_update
     00024D1D  C$mg_leaves_update.c$180$1_0$214   mg_leaves_update
     00024D1F  A$lcc2145679$1209                  mg_leaves_update
     00024D21  A$lcc2145679$1210                  mg_leaves_update
     00024D24  A$lcc2145679$1214                  mg_leaves_update
     00024D24  C$mg_leaves_update.c$182$1_0$214   mg_leaves_update
     00024D27  A$lcc2145679$1218                  mg_leaves_update
     00024D27  C$mg_leaves_update.c$183$1_0$214   mg_leaves_update
     00024D2A  A$lcc2145679$1222                  mg_leaves_update
     00024D2A  C$mg_leaves_update.c$185$1_0$214   mg_leaves_update
     00024D2D  A$lcc2145679$1223                  mg_leaves_update
     00024D30  A$lcc2145679$1227                  mg_leaves_update
     00024D30  C$mg_leaves_update.c$187$2_0$221   mg_leaves_update
     00024D33  A$lcc2145679$1228                  mg_leaves_update
     00024D36  A$lcc2145679$1229                  mg_leaves_update
     00024D37  A$lcc2145679$1230                  mg_leaves_update
     00024D39  A$lcc2145679$1234                  mg_leaves_update
     00024D39  C$mg_leaves_update.c$189$3_0$222   mg_leaves_update
     00024D3C  A$lcc2145679$1235                  mg_leaves_update
     00024D3F  A$lcc2145679$1239                  mg_leaves_update
     00024D3F  C$mg_leaves_update.c$191$3_1$223   mg_leaves_update
     00024D42  A$lcc2145679$1243                  mg_leaves_update
     00024D42  C$mg_leaves_update.c$192$1_1$214   mg_leaves_update
     00024D44  A$lcc2145679$1244                  mg_leaves_update
     00024D45  A$lcc2145679$1245                  mg_leaves_update
     00024D47  A$lcc2145679$1246                  mg_leaves_update
     00024D4A  A$lcc2145679$1247                  mg_leaves_update
     00024D4B  A$lcc2145679$1248                  mg_leaves_update
     00024D4D  A$lcc2145679$1249                  mg_leaves_update
     00024D50  A$lcc2145679$1250                  mg_leaves_update
     00024D51  A$lcc2145679$1251                  mg_leaves_update
     00024D53  A$lcc2145679$1252                  mg_leaves_update
     00024D55  A$lcc2145679$1256                  mg_leaves_update
     00024D55  C$mg_leaves_update.c$193$1_1$214   mg_leaves_update
     00024D56  A$lcc2145679$1257                  mg_leaves_update
     00024D57  A$lcc2145679$1258                  mg_leaves_update
     00024D59  A$lcc2145679$1259                  mg_leaves_update
     00024D5A  A$lcc2145679$1260                  mg_leaves_update
     00024D5D  A$lcc2145679$1261                  mg_leaves_update
     00024D5E  A$lcc2145679$1262                  mg_leaves_update
     00024D60  A$lcc2145679$1263                  mg_leaves_update
     00024D63  A$lcc2145679$1264                  mg_leaves_update
     00024D64  A$lcc2145679$1265                  mg_leaves_update
     00024D66  A$lcc2145679$1266                  mg_leaves_update
     00024D68  A$lcc2145679$1270                  mg_leaves_update
     00024D68  C$mg_leaves_update.c$194$1_1$214   mg_leaves_update
ASxxxx Linker V03.00/V05.40 + sdld,  page 179.
Hexadecimal  [32-Bits]

Area                                    Addr        Size        Decimal Bytes (Attributes)
--------------------------------        ----        ----        ------- ----- ------------
_CODE_2                             00024000    00000DE1 =        3553. bytes (REL,CON)

      Value  Global                              Global Defined In Module
      -----  --------------------------------   ------------------------
     00024D69  A$lcc2145679$1271                  mg_leaves_update
     00024D6B  A$lcc2145679$1272                  mg_leaves_update
     00024D6C  A$lcc2145679$1273                  mg_leaves_update
     00024D6F  A$lcc2145679$1274                  mg_leaves_update
     00024D70  A$lcc2145679$1275                  mg_leaves_update
     00024D72  A$lcc2145679$1276                  mg_leaves_update
     00024D74  A$lcc2145679$1277                  mg_leaves_update
     00024D75  A$lcc2145679$1281                  mg_leaves_update
     00024D75  C$mg_leaves_update.c$196$3_1$223   mg_leaves_update
     00024D77  A$lcc2145679$1282                  mg_leaves_update
     00024D78  A$lcc2145679$1283                  mg_leaves_update
     00024D79  A$lcc2145679$1284                  mg_leaves_update
     00024D7B  A$lcc2145679$1285                  mg_leaves_update
     00024D7D  A$lcc2145679$1286                  mg_leaves_update
     00024D80  A$lcc2145679$1290                  mg_leaves_update
     00024D80  C$mg_leaves_update.c$197$3_1$223   mg_leaves_update
     00024D82  A$lcc2145679$1291                  mg_leaves_update
     00024D83  A$lcc2145679$1292                  mg_leaves_update
     00024D84  A$lcc2145679$1293                  mg_leaves_update
     00024D85  A$lcc2145679$1294                  mg_leaves_update
     00024D87  A$lcc2145679$1295                  mg_leaves_update
     00024D89  A$lcc2145679$1296                  mg_leaves_update
     00024D8C  A$lcc2145679$1300                  mg_leaves_update
     00024D8C  C$mg_leaves_update.c$198$3_1$223   mg_leaves_update
     00024D8E  A$lcc2145679$1301                  mg_leaves_update
     00024D8F  A$lcc2145679$1302                  mg_leaves_update
     00024D90  A$lcc2145679$1303                  mg_leaves_update
     00024D91  A$lcc2145679$1304                  mg_leaves_update
     00024D93  A$lcc2145679$1305                  mg_leaves_update
     00024D95  A$lcc2145679$1306                  mg_leaves_update
     00024D98  A$lcc2145679$1310                  mg_leaves_update
     00024D98  C$mg_leaves_update.c$199$3_1$223   mg_leaves_update
     00024D9A  A$lcc2145679$1311                  mg_leaves_update
     00024D9B  A$lcc2145679$1312                  mg_leaves_update
     00024D9C  A$lcc2145679$1313                  mg_leaves_update
     00024D9D  A$lcc2145679$1314                  mg_leaves_update
     00024D9F  A$lcc2145679$1315                  mg_leaves_update
     00024DA1  A$lcc2145679$1316                  mg_leaves_update
     00024DA4  A$lcc2145679$1321                  mg_leaves_update
     00024DA4  C$mg_leaves_update.c$202$1_1$224   mg_leaves_update
     00024DA7  A$lcc2145679$1322                  mg_leaves_update
     00024DAA  A$lcc2145679$1323                  mg_leaves_update
     00024DAB  A$lcc2145679$1324                  mg_leaves_update
     00024DAE  A$lcc2145679$1325                  mg_leaves_update
     00024DAF  A$lcc2145679$1329                  mg_leaves_update
     00024DAF  C$mg_leaves_update.c$204$1_1$214   mg_leaves_update
     00024DB2  A$lcc2145679$1330                  mg_leaves_update
     00024DB3  A$lcc2145679$1331                  mg_leaves_update
     00024DB4  A$lcc2145679$1332                  mg_leaves_update
     00024DB5  A$lcc2145679$1333                  mg_leaves_update
     00024DB8  A$lcc2145679$1334                  mg_leaves_update
ASxxxx Linker V03.00/V05.40 + sdld,  page 180.
Hexadecimal  [32-Bits]

Area                                    Addr        Size        Decimal Bytes (Attributes)
--------------------------------        ----        ----        ------- ----- ------------
_CODE_2                             00024000    00000DE1 =        3553. bytes (REL,CON)

      Value  Global                              Global Defined In Module
      -----  --------------------------------   ------------------------
     00024DBB  A$lcc2145679$1335                  mg_leaves_update
     00024DBC  A$lcc2145679$1336                  mg_leaves_update
     00024DBD  A$lcc2145679$1337                  mg_leaves_update
     00024DBF  A$lcc2145679$1338                  mg_leaves_update
     00024DC0  A$lcc2145679$1342                  mg_leaves_update
     00024DC0  C$mg_leaves_update.c$205$1_1$214   mg_leaves_update
     00024DC1  A$lcc2145679$1343                  mg_leaves_update
     00024DC4  A$lcc2145679$1344                  mg_leaves_update
     00024DC7  A$lcc2145679$1345                  mg_leaves_update
     00024DC8  A$lcc2145679$1346                  mg_leaves_update
     00024DC9  A$lcc2145679$1347                  mg_leaves_update
     00024DCB  A$lcc2145679$1348                  mg_leaves_update
     00024DCC  A$lcc2145679$1352                  mg_leaves_update
     00024DCC  C$mg_leaves_update.c$207$1_1$224   mg_leaves_update
     00024DCD  A$lcc2145679$1353                  mg_leaves_update
     00024DCE  A$lcc2145679$1354                  mg_leaves_update
     00024DCF  A$lcc2145679$1355                  mg_leaves_update
     00024DD1  A$lcc2145679$1356                  mg_leaves_update
     00024DD3  A$lcc2145679$1357                  mg_leaves_update
     00024DD6  A$lcc2145679$1361                  mg_leaves_update
     00024DD6  C$mg_leaves_update.c$208$1_1$224   mg_leaves_update
     00024DD7  A$lcc2145679$1362                  mg_leaves_update
     00024DD9  A$lcc2145679$1363                  mg_leaves_update
     00024DDB  A$lcc2145679$1364                  mg_leaves_update
     00024DDE  A$lcc2145679$1372                  mg_leaves_update
     00024DDE  C$mg_leaves_update.c$210$1_1$224   mg_leaves_update
     00024DE0  A$lcc2145679$1377                  mg_leaves_update
     00024DE0  C$mg_leaves_update.c$211$1_1$214   mg_leaves_update
     00024DE0  XG$Mg_Leaves_Update$0$0            mg_leaves_update

ASxxxx Linker V03.00/V05.40 + sdld,  page 181.

Files Linked                              [ module(s) ]

C:\Program Files\GBDK\lib/gb/crt0.o       [ Runtime ]
C:\Users\Bau_M\AppData\Local\Temp/lcc214560.o
                                          [ chars ]
C:\Users\Bau_M\AppData\Local\Temp/lcc214561.o
                                          [ numbers ]
C:\Users\Bau_M\AppData\Local\Temp/lcc214562.o
                                          [ gender_select_tilemap ]
C:\Users\Bau_M\AppData\Local\Temp/lcc214563.o
                                          [ gender_select_tileset ]
C:\Users\Bau_M\AppData\Local\Temp/lcc214564.o
                                          [ inventory_bkg ]
C:\Users\Bau_M\AppData\Local\Temp/lcc214565.o
                                          [ bkg_MainMenu ]
C:\Users\Bau_M\AppData\Local\Temp/lcc214566.o
                                          [ map_example ]
C:\Users\Bau_M\AppData\Local\Temp/lcc214567.o
                                          [ bkg_leaves_example ]
C:\Users\Bau_M\AppData\Local\Temp/lcc214568.o
                                          [ npc_icons ]
C:\Users\Bau_M\AppData\Local\Temp/lcc214569.o
                                          [ template_tileset ]
C:\Users\Bau_M\AppData\Local\Temp/lcc2145610.o
                                          [ spr_InventoryArrow_idle ]
C:\Users\Bau_M\AppData\Local\Temp/lcc2145611.o
                                          [ spr_Branch ]
C:\Users\Bau_M\AppData\Local\Temp/lcc2145612.o
                                          [ broom ]
C:\Users\Bau_M\AppData\Local\Temp/lcc2145613.o
                                          [ spr_garbage ]
C:\Users\Bau_M\AppData\Local\Temp/lcc2145614.o
                                          [ leaf ]
C:\Users\Bau_M\AppData\Local\Temp/lcc2145615.o
                                          [ example_npc ]
C:\Users\Bau_M\AppData\Local\Temp/lcc2145616.o
                                          [ spr_Player_down0 ]
C:\Users\Bau_M\AppData\Local\Temp/lcc2145617.o
                                          [ spr_Player_down1 ]
C:\Users\Bau_M\AppData\Local\Temp/lcc2145618.o
                                          [ spr_Player_down2 ]
C:\Users\Bau_M\AppData\Local\Temp/lcc2145619.o
                                          [ spr_Player_up0 ]
C:\Users\Bau_M\AppData\Local\Temp/lcc2145620.o
                                          [ spr_Player_up1 ]
C:\Users\Bau_M\AppData\Local\Temp/lcc2145621.o
                                          [ spr_Player_up2 ]
C:\Users\Bau_M\AppData\Local\Temp/lcc2145622.o
                                          [ action ]
C:\Users\Bau_M\AppData\Local\Temp/lcc2145623.o
                                          [ animation ]
C:\Users\Bau_M\AppData\Local\Temp/lcc2145624.o
                                          [ can_move ]
C:\Users\Bau_M\AppData\Local\Temp/lcc2145625.o
                                          [ char_to_tile ]
C:\Users\Bau_M\AppData\Local\Temp/lcc2145626.o
                                          [ collision ]
C:\Users\Bau_M\AppData\Local\Temp/lcc2145627.o
                                          [ draw ]
C:\Users\Bau_M\AppData\Local\Temp/lcc2145628.o
                                          [ entity ]
C:\Users\Bau_M\AppData\Local\Temp/lcc2145629.o
                                          [ extra_actors ]
C:\Users\Bau_M\AppData\Local\Temp/lcc2145630.o
                                          [ gender_selection ]
C:\Users\Bau_M\AppData\Local\Temp/lcc2145631.o
                                          [ input ]
C:\Users\Bau_M\AppData\Local\Temp/lcc2145632.o
                                          [ inventory ]
C:\Users\Bau_M\AppData\Local\Temp/lcc2145633.o
                                          [ inventory_input ]
C:\Users\Bau_M\AppData\Local\Temp/lcc2145634.o
                                          [ load ]
C:\Users\Bau_M\AppData\Local\Temp/lcc2145635.o
                                          [ map_scenes ]
C:\Users\Bau_M\AppData\Local\Temp/lcc2145636.o
                                          [ minigames ]
C:\Users\Bau_M\AppData\Local\Temp/lcc2145637.o
                                          [ money ]
C:\Users\Bau_M\AppData\Local\Temp/lcc2145638.o
                                          [ name ]
C:\Users\Bau_M\AppData\Local\Temp/lcc2145639.o
                                          [ npcs ]
C:\Users\Bau_M\AppData\Local\Temp/lcc2145640.o
                                          [ npc_lines ]
C:\Users\Bau_M\AppData\Local\Temp/lcc2145641.o
                                          [ player ]
C:\Users\Bau_M\AppData\Local\Temp/lcc2145642.o
                                          [ position ]
C:\Users\Bau_M\AppData\Local\Temp/lcc2145643.o
                                          [ random ]
C:\Users\Bau_M\AppData\Local\Temp/lcc2145644.o
                                          [ render ]
C:\Users\Bau_M\AppData\Local\Temp/lcc2145645.o
                                          [ scene ]
C:\Users\Bau_M\AppData\Local\Temp/lcc2145646.o
                                          [ scene_manager ]
C:\Users\Bau_M\AppData\Local\Temp/lcc2145647.o
                                          [ speed ]
C:\Users\Bau_M\AppData\Local\Temp/lcc2145648.o
                                          [ gender_select ]
C:\Users\Bau_M\AppData\Local\Temp/lcc2145649.o
                                          [ gender_select_init ]
C:\Users\Bau_M\AppData\Local\Temp/lcc2145650.o
                                          [ gender_select_update ]
C:\Users\Bau_M\AppData\Local\Temp/lcc2145651.o
                                          [ inventory_scene ]
C:\Users\Bau_M\AppData\Local\Temp/lcc2145652.o
                                          [ inventory_scene_init ]
C:\Users\Bau_M\AppData\Local\Temp/lcc2145653.o
                                          [ inventory_scene_update ]
C:\Users\Bau_M\AppData\Local\Temp/lcc2145654.o
                                          [ main_menu ]
C:\Users\Bau_M\AppData\Local\Temp/lcc2145655.o
                                          [ main_menu_init ]
C:\Users\Bau_M\AppData\Local\Temp/lcc2145656.o
                                          [ main_menu_init_stats ]
C:\Users\Bau_M\AppData\Local\Temp/lcc2145657.o
                                          [ main_menu_input ]
C:\Users\Bau_M\AppData\Local\Temp/lcc2145658.o
                                          [ main_menu_update ]
C:\Users\Bau_M\AppData\Local\Temp/lcc2145659.o
                                          [ clean_text ]
C:\Users\Bau_M\AppData\Local\Temp/lcc2145660.o
                                          [ map_collision ]
C:\Users\Bau_M\AppData\Local\Temp/lcc2145661.o
                                          [ map_data ]
C:\Users\Bau_M\AppData\Local\Temp/lcc2145662.o
                                          [ map_player_movement ]
C:\Users\Bau_M\AppData\Local\Temp/lcc2145663.o
                                          [ map_00 ]
C:\Users\Bau_M\AppData\Local\Temp/lcc2145664.o
                                          [ map_00_check_items ]
C:\Users\Bau_M\AppData\Local\Temp/lcc2145665.o
                                          [ map_00_collision ]
C:\Users\Bau_M\AppData\Local\Temp/lcc2145666.o
                                          [ map_00_init ]
C:\Users\Bau_M\AppData\Local\Temp/lcc2145667.o
                                          [ map_00_init_dialogues ]
C:\Users\Bau_M\AppData\Local\Temp/lcc2145668.o
                                          [ map_00_init_npc ]
C:\Users\Bau_M\AppData\Local\Temp/lcc2145669.o
                                          [ map_00_update ]
C:\Users\Bau_M\AppData\Local\Temp/lcc2145670.o
                                          [ mg_load_screen ]
C:\Users\Bau_M\AppData\Local\Temp/lcc2145671.o
                                          [ mg_mission_complete ]
C:\Users\Bau_M\AppData\Local\Temp/lcc2145672.o
                                          [ mg_player_movement ]
C:\Users\Bau_M\AppData\Local\Temp/lcc2145673.o
                                          [ mg_timer ]
C:\Users\Bau_M\AppData\Local\Temp/lcc2145674.o
                                          [ mini_games ]
C:\Users\Bau_M\AppData\Local\Temp/lcc2145675.o
                                          [ mg_leaves ]
C:\Users\Bau_M\AppData\Local\Temp/lcc2145676.o
                                          [ mg_leaves_init ]
C:\Users\Bau_M\AppData\Local\Temp/lcc2145677.o
                                          [ mg_leaves_load_bkg ]
C:\Users\Bau_M\AppData\Local\Temp/lcc2145678.o
                                          [ mg_leaves_player_init ]
C:\Users\Bau_M\AppData\Local\Temp/lcc2145679.o
                                          [ mg_leaves_update ]
C:\Users\Bau_M\AppData\Local\Temp/lcc2145680.o
                                          [ main ]


Libraries Linked                          [ object file ]

C:\Program Files\GBDK\lib/gb/gb.lib       [ sfr.o ]
C:\Program Files\GBDK\lib/sm83/sm83.lib   [ div.o ]
C:\Program Files\GBDK\lib/sm83/sm83.lib   [ free.o ]
C:\Program Files\GBDK\lib/sm83/sm83.lib   [ malloc.o ]
C:\Program Files\GBDK\lib/gb/gb.lib       [ set_data.o ]
C:\Program Files\GBDK\lib/gb/gb.lib       [ set_tile.o ]
C:\Program Files\GBDK\lib/sm83/sm83.lib   [ mul.o ]
C:\Program Files\GBDK\lib/gb/gb.lib       [ pad.o ]
C:\Program Files\GBDK\lib/sm83/sm83.lib   [ __sdcc_call_hl.o ]
C:\Program Files\GBDK\lib/sm83/sm83.lib   [ memcpy.o ]
C:\Program Files\GBDK\lib/gb/gb.lib       [ heap.o ]
C:\Program Files\GBDK\lib/gb/gb.lib       [ set_bk_t.o ]
C:\Program Files\GBDK\lib/gb/gb.lib       [ set_xy_t.o ]

ASxxxx Linker V03.00/V05.40 + sdld,  page 182.

User Base Address Definitions

_DATA=0xC0A0
_CODE=0x0200
_HRAM=0xFF80
ASxxxx Linker V03.00/V05.40 + sdld,  page 183.

User Global Definitions

_shadow_OAM=0xC000
.STACK=0xE000

