ASxxxx Linker V03.00/V05.40 + sdld,  page 1.
Hexadecimal  [32-Bits]

Area                                    Addr        Size        Decimal Bytes (Attributes)
--------------------------------        ----        ----        ------- ----- ------------
.  .ABS.                            00000000    00000000 =           0. bytes (ABS,CON)

      Value  Global                              Global Defined In Module
      -----  --------------------------------   ------------------------
     00000000  .__.ABS.                           SetTileMap
     00000000  _rMBC7_SRAM_ENABLE_1               
     00000000  _rRAMG                             
     00000000  l__BASE                         
     00000000  l__BSS                          
     00000000  l__CABS                         
     00000000  l__CODE_0                       
     00000000  l__DABS                         
     00000000  l__HEADER                       
     00000000  l__LIT                          
     00000000  s__CABS                         
     00000000  s__DABS                         
     00000000  s__HEADER                       
     00000000  s__HEADER0                      
     00000000  s__HEADER1                      
     00000000  s__HEADER10                     
     00000000  s__HEADER11                     
     00000000  s__HEADER2                      
     00000000  s__HEADER3                      
     00000000  s__HEADER4                      
     00000000  s__HEADER5                      
     00000000  s__HEADER6                      
     00000000  s__HEADER7                      
     00000000  s__HEADER8                      
     00000000  s__HEADER9                      
     00000000  s__HEADERa                      
     00000000  s__HEADERb                      
     00000000  s__HEADERc                      
     00000000  s__HEADERd                      
     00000000  s__HEADERe                      
     00000000  s__HEADERf                      
     00000001  l__GSFINAL                      
     00000001  l__HEADER0                      
     00000001  l__HEADER5                      
     00000001  l__HEADERa                      
     00000001  l__HEADERb                      
     00000001  l__HEADERc                      
     00000001  l__HEADERe                      
     00000001  l__HEADERf                      
     00000001  l__HEAP_END                     
     00000002  l__HEADER10                     
     00000002  l__HEADER6                      
     00000002  l__HEADERd                      
     00000003  l__HEADER9                      
     00000005  l__HEADER1                      
     00000006  l__HEADER8                      
     00000007  l__HEADER2                      
     00000008  l__HEADER3                      
     0000000F  l__GSINIT                       
     00000013  l__HRAM                         
ASxxxx Linker V03.00/V05.40 + sdld,  page 2.
Hexadecimal  [32-Bits]

Area                                    Addr        Size        Decimal Bytes (Attributes)
--------------------------------        ----        ----        ------- ----- ------------
.  .ABS.                            00000000    00000000 =           0. bytes (ABS,CON)

      Value  Global                              Global Defined In Module
      -----  --------------------------------   ------------------------
     00000030  l__HEADER7                      
     00000060  l__HEADER4                      
     000000AB  l__HEADER11                     
     0000012C  l__HOME                         
     00000187  l__INITIALIZED                  
     00000187  l__INITIALIZER                  
     00000200  s__CODE                         
     000007FF  l__HEAP                         
     00000FC1  l__CODE                         
     000011C1  s__HOME                         
     000012ED  s__BASE                         
     000012ED  s__CODE_0                       
     000012ED  s__INITIALIZER                  
     000012ED  s__LIT                          
     00001474  s__GSINIT                       
     00001483  s__GSFINAL                      
     00001D25  l__DATA                         
     00002000  _rROMB0                            
     00003000  _rROMB1                            
     00004000  _rMBC7_SRAM_ENABLE_2               
     00004000  _rRAMB                             
     00008000  __VRAM                             
     00008000  __VRAM8000                         
     00008800  __VRAM8800                         
     00009000  __VRAM9000                         
     00009800  __SCRN0                            
     00009C00  __SCRN1                            
     0000A000  __SRAM                             
     0000A000  _rMBC7_LATCH_1                     
     0000A010  _rMBC7_LATCH_2                     
     0000A020  _rMBC7_ACCEL_X_LO                  
     0000A030  _rMBC7_ACCEL_X_HI                  
     0000A040  _rMBC7_ACCEL_Y_LO                  
     0000A050  _rMBC7_ACCEL_Y_HI                  
     0000C000  __RAM                              
     0000C000  _shadow_OAM                     
     0000C0A0  s__DATA                         
     0000D000  __RAMBANK                          
     0000DDC5  s__BSS                          
     0000DDC5  s__INITIALIZED                  
     0000DF4C  s__HEAP                         
     0000E000  .STACK                          
     0000E74B  s__HEAP_END                     
     0000FE00  __OAMRAM                           
     0000FF00  _P1_REG                            
     0000FF00  __IO                               
     0000FF01  _SB_REG                            
     0000FF02  _SC_REG                            
     0000FF04  _DIV_REG                           
     0000FF05  _TIMA_REG                          
     0000FF06  _TMA_REG                           
ASxxxx Linker V03.00/V05.40 + sdld,  page 3.
Hexadecimal  [32-Bits]

Area                                    Addr        Size        Decimal Bytes (Attributes)
--------------------------------        ----        ----        ------- ----- ------------
.  .ABS.                            00000000    00000000 =           0. bytes (ABS,CON)

      Value  Global                              Global Defined In Module
      -----  --------------------------------   ------------------------
     0000FF07  _TAC_REG                           
     0000FF0F  _IF_REG                            
     0000FF10  _NR10_REG                          
     0000FF11  _NR11_REG                          
     0000FF12  _NR12_REG                          
     0000FF13  _NR13_REG                          
     0000FF14  _NR14_REG                          
     0000FF16  _NR21_REG                          
     0000FF17  _NR22_REG                          
     0000FF18  _NR23_REG                          
     0000FF19  _NR24_REG                          
     0000FF1A  _NR30_REG                          
     0000FF1B  _NR31_REG                          
     0000FF1C  _NR32_REG                          
     0000FF1D  _NR33_REG                          
     0000FF1E  _NR34_REG                          
     0000FF20  _NR41_REG                          
     0000FF21  _NR42_REG                          
     0000FF22  _NR43_REG                          
     0000FF23  _NR44_REG                          
     0000FF24  _NR50_REG                          
     0000FF25  _NR51_REG                          
     0000FF26  _NR52_REG                          
     0000FF30  _AUD3WAVE                          
     0000FF30  _PCM_SAMPLE                        
     0000FF30  __AUD3WAVERAM                      
     0000FF40  _LCDC_REG                          
     0000FF41  _STAT_REG                          
     0000FF42  _SCY_REG                           
     0000FF43  _SCX_REG                           
     0000FF44  _LY_REG                            
     0000FF45  _LYC_REG                           
     0000FF46  _DMA_REG                           
     0000FF47  _BGP_REG                           
     0000FF48  _OBP0_REG                          
     0000FF49  _OBP1_REG                          
     0000FF4A  _WY_REG                            
     0000FF4B  _WX_REG                            
     0000FF4D  _KEY1_REG                          
     0000FF4F  _VBK_REG                           
     0000FF51  _HDMA1_REG                         
     0000FF52  _HDMA2_REG                         
     0000FF53  _HDMA3_REG                         
     0000FF54  _HDMA4_REG                         
     0000FF55  _HDMA5_REG                         
     0000FF56  _RP_REG                            
     0000FF68  _BCPS_REG                          
     0000FF69  _BCPD_REG                          
     0000FF6A  _OCPS_REG                          
     0000FF6B  _OCPD_REG                          
     0000FF70  _SVBK_REG                          
ASxxxx Linker V03.00/V05.40 + sdld,  page 4.
Hexadecimal  [32-Bits]

Area                                    Addr        Size        Decimal Bytes (Attributes)
--------------------------------        ----        ----        ------- ----- ------------
.  .ABS.                            00000000    00000000 =           0. bytes (ABS,CON)

      Value  Global                              Global Defined In Module
      -----  --------------------------------   ------------------------
     0000FF76  _PCM12_REG                         
     0000FF77  _PCM34_REG                         
     0000FF80  __HRAM                             
     0000FF80  s__HRAM                         
     0000FFFF  _IE_REG                            

ASxxxx Linker V03.00/V05.40 + sdld,  page 5.
Hexadecimal  [32-Bits]

Area                                    Addr        Size        Decimal Bytes (Attributes)
--------------------------------        ----        ----        ------- ----- ------------
_CODE                               00000200    00000FC1 =        4033. bytes (REL,CON)

      Value  Global                              Global Defined In Module
      -----  --------------------------------   ------------------------
     00000200  G$template_tilemap$0_0$0           template_tilemap
     00000200  _template_tilemap                  template_tilemap
     00000368  G$template_tileset$0_0$0           template_tileset
     00000368  _template_tileset                  template_tileset
     00000538  A$lcc95008$70                      action
     00000538  C$action.c$9$0_0$140               action
     00000538  G$move_up$0$0                      action
     00000538  _move_up                           action
     0000053A  A$lcc95008$71                      action
     0000053C  A$lcc95008$72                      action
     0000053D  A$lcc95008$73                      action
     0000053E  A$lcc95008$77                      action
     0000053E  C$action.c$11$1_0$140              action
     0000053F  A$lcc95008$78                      action
     00000540  A$lcc95008$79                      action
     00000541  A$lcc95008$80                      action
     00000542  A$lcc95008$81                      action
     00000543  A$lcc95008$82                      action
     00000545  A$lcc95008$83                      action
     00000546  A$lcc95008$84                      action
     00000549  A$lcc95008$85                      action
     0000054A  A$lcc95008$86                      action
     0000054B  A$lcc95008$87                      action
     0000054C  A$lcc95008$88                      action
     0000054D  A$lcc95008$89                      action
     00000550  A$lcc95008$90                      action
     00000551  A$lcc95008$91                      action
     00000552  A$lcc95008$92                      action
     00000553  A$lcc95008$93                      action
     00000554  A$lcc95008$94                      action
     00000555  A$lcc95008$95                      action
     00000556  A$lcc95008$96                      action
     00000557  A$lcc95008$97                      action
     00000558  A$lcc95008$98                      action
     00000559  A$lcc95008$99                      action
     0000055B  A$lcc95008$100                     action
     0000055C  A$lcc95008$101                     action
     0000055D  A$lcc95008$102                     action
     0000055E  A$lcc95008$103                     action
     0000055F  A$lcc95008$104                     action
     00000560  A$lcc95008$105                     action
     00000561  A$lcc95008$106                     action
     00000562  A$lcc95008$107                     action
     00000563  A$lcc95008$108                     action
     00000564  A$lcc95008$109                     action
     00000565  A$lcc95008$113                     action
     00000565  C$action.c$12$1_0$140              action
     00000568  A$lcc95008$114                     action
     0000056A  A$lcc95008$115                     action
     0000056B  A$lcc95008$116                     action
ASxxxx Linker V03.00/V05.40 + sdld,  page 6.
Hexadecimal  [32-Bits]

Area                                    Addr        Size        Decimal Bytes (Attributes)
--------------------------------        ----        ----        ------- ----- ------------
_CODE                               00000200    00000FC1 =        4033. bytes (REL,CON)

      Value  Global                              Global Defined In Module
      -----  --------------------------------   ------------------------
     0000056C  A$lcc95008$117                     action
     0000056D  A$lcc95008$118                     action
     0000056E  A$lcc95008$119                     action
     0000056F  A$lcc95008$120                     action
     00000570  A$lcc95008$121                     action
     00000571  A$lcc95008$122                     action
     00000572  A$lcc95008$126                     action
     00000574  A$lcc95008$131                     action
     00000574  C$action.c$13$1_0$140              action
     00000574  XG$move_up$0$0                     action
     00000575  A$lcc95008$141                     action
     00000575  C$action.c$15$1_0$142              action
     00000575  G$move_down$0$0                    action
     00000575  _move_down                         action
     00000577  A$lcc95008$142                     action
     00000579  A$lcc95008$143                     action
     0000057A  A$lcc95008$144                     action
     0000057B  A$lcc95008$148                     action
     0000057B  C$action.c$17$1_0$142              action
     0000057C  A$lcc95008$149                     action
     0000057D  A$lcc95008$150                     action
     0000057E  A$lcc95008$151                     action
     0000057F  A$lcc95008$152                     action
     00000580  A$lcc95008$153                     action
     00000582  A$lcc95008$154                     action
     00000584  A$lcc95008$155                     action
     00000585  A$lcc95008$156                     action
     00000586  A$lcc95008$157                     action
     00000588  A$lcc95008$158                     action
     00000589  A$lcc95008$159                     action
     0000058C  A$lcc95008$160                     action
     0000058E  A$lcc95008$161                     action
     0000058F  A$lcc95008$162                     action
     00000590  A$lcc95008$163                     action
     00000591  A$lcc95008$164                     action
     00000592  A$lcc95008$165                     action
     00000593  A$lcc95008$166                     action
     00000594  A$lcc95008$167                     action
     00000595  A$lcc95008$168                     action
     00000597  A$lcc95008$169                     action
     00000598  A$lcc95008$170                     action
     00000599  A$lcc95008$171                     action
     0000059B  A$lcc95008$172                     action
     0000059C  A$lcc95008$173                     action
     0000059D  A$lcc95008$174                     action
     0000059E  A$lcc95008$175                     action
     0000059F  A$lcc95008$176                     action
     000005A0  A$lcc95008$177                     action
     000005A1  A$lcc95008$178                     action
     000005A2  A$lcc95008$179                     action
     000005A3  A$lcc95008$180                     action
ASxxxx Linker V03.00/V05.40 + sdld,  page 7.
Hexadecimal  [32-Bits]

Area                                    Addr        Size        Decimal Bytes (Attributes)
--------------------------------        ----        ----        ------- ----- ------------
_CODE                               00000200    00000FC1 =        4033. bytes (REL,CON)

      Value  Global                              Global Defined In Module
      -----  --------------------------------   ------------------------
     000005A4  A$lcc95008$181                     action
     000005A5  A$lcc95008$185                     action
     000005A5  C$action.c$18$1_0$142              action
     000005A8  A$lcc95008$186                     action
     000005AA  A$lcc95008$187                     action
     000005AB  A$lcc95008$188                     action
     000005AC  A$lcc95008$189                     action
     000005AD  A$lcc95008$190                     action
     000005AE  A$lcc95008$191                     action
     000005AF  A$lcc95008$192                     action
     000005B0  A$lcc95008$193                     action
     000005B1  A$lcc95008$194                     action
     000005B2  A$lcc95008$198                     action
     000005B4  A$lcc95008$203                     action
     000005B4  C$action.c$19$1_0$142              action
     000005B4  XG$move_down$0$0                   action
     000005B5  A$lcc95008$213                     action
     000005B5  C$action.c$21$1_0$144              action
     000005B5  G$move_left$0$0                    action
     000005B5  _move_left                         action
     000005B7  A$lcc95008$214                     action
     000005B9  A$lcc95008$215                     action
     000005BA  A$lcc95008$216                     action
     000005BB  A$lcc95008$220                     action
     000005BB  C$action.c$23$1_0$144              action
     000005BC  A$lcc95008$221                     action
     000005BD  A$lcc95008$222                     action
     000005BE  A$lcc95008$223                     action
     000005BF  A$lcc95008$224                     action
     000005C0  A$lcc95008$225                     action
     000005C2  A$lcc95008$226                     action
     000005C3  A$lcc95008$227                     action
     000005C6  A$lcc95008$228                     action
     000005C7  A$lcc95008$229                     action
     000005C8  A$lcc95008$230                     action
     000005C9  A$lcc95008$231                     action
     000005CA  A$lcc95008$232                     action
     000005CD  A$lcc95008$233                     action
     000005CE  A$lcc95008$234                     action
     000005CF  A$lcc95008$235                     action
     000005D0  A$lcc95008$236                     action
     000005D1  A$lcc95008$237                     action
     000005D2  A$lcc95008$238                     action
     000005D3  A$lcc95008$239                     action
     000005D4  A$lcc95008$240                     action
     000005D5  A$lcc95008$241                     action
     000005D6  A$lcc95008$242                     action
     000005D8  A$lcc95008$243                     action
     000005D9  A$lcc95008$244                     action
     000005DA  A$lcc95008$245                     action
     000005DB  A$lcc95008$246                     action
ASxxxx Linker V03.00/V05.40 + sdld,  page 8.
Hexadecimal  [32-Bits]

Area                                    Addr        Size        Decimal Bytes (Attributes)
--------------------------------        ----        ----        ------- ----- ------------
_CODE                               00000200    00000FC1 =        4033. bytes (REL,CON)

      Value  Global                              Global Defined In Module
      -----  --------------------------------   ------------------------
     000005DC  A$lcc95008$247                     action
     000005DD  A$lcc95008$248                     action
     000005DE  A$lcc95008$249                     action
     000005DF  A$lcc95008$250                     action
     000005E0  A$lcc95008$251                     action
     000005E1  A$lcc95008$252                     action
     000005E2  A$lcc95008$256                     action
     000005E2  C$action.c$24$1_0$144              action
     000005E5  A$lcc95008$257                     action
     000005E7  A$lcc95008$258                     action
     000005E8  A$lcc95008$259                     action
     000005E9  A$lcc95008$260                     action
     000005EA  A$lcc95008$261                     action
     000005EB  A$lcc95008$262                     action
     000005EC  A$lcc95008$263                     action
     000005ED  A$lcc95008$264                     action
     000005EE  A$lcc95008$265                     action
     000005EF  A$lcc95008$269                     action
     000005F1  A$lcc95008$274                     action
     000005F1  C$action.c$25$1_0$144              action
     000005F1  XG$move_left$0$0                   action
     000005F2  A$lcc95008$284                     action
     000005F2  C$action.c$27$1_0$146              action
     000005F2  G$move_right$0$0                   action
     000005F2  _move_right                        action
     000005F4  A$lcc95008$285                     action
     000005F6  A$lcc95008$286                     action
     000005F7  A$lcc95008$287                     action
     000005F8  A$lcc95008$291                     action
     000005F8  C$action.c$29$1_0$146              action
     000005F9  A$lcc95008$292                     action
     000005FA  A$lcc95008$293                     action
     000005FB  A$lcc95008$294                     action
     000005FC  A$lcc95008$295                     action
     000005FD  A$lcc95008$296                     action
     000005FF  A$lcc95008$297                     action
     00000600  A$lcc95008$298                     action
     00000603  A$lcc95008$299                     action
     00000604  A$lcc95008$300                     action
     00000605  A$lcc95008$301                     action
     00000606  A$lcc95008$302                     action
     00000607  A$lcc95008$303                     action
     0000060A  A$lcc95008$304                     action
     0000060B  A$lcc95008$305                     action
     0000060C  A$lcc95008$306                     action
     0000060D  A$lcc95008$307                     action
     0000060E  A$lcc95008$308                     action
     0000060F  A$lcc95008$309                     action
     00000610  A$lcc95008$310                     action
     00000611  A$lcc95008$311                     action
     00000612  A$lcc95008$312                     action
ASxxxx Linker V03.00/V05.40 + sdld,  page 9.
Hexadecimal  [32-Bits]

Area                                    Addr        Size        Decimal Bytes (Attributes)
--------------------------------        ----        ----        ------- ----- ------------
_CODE                               00000200    00000FC1 =        4033. bytes (REL,CON)

      Value  Global                              Global Defined In Module
      -----  --------------------------------   ------------------------
     00000614  A$lcc95008$313                     action
     00000615  A$lcc95008$314                     action
     00000616  A$lcc95008$315                     action
     00000617  A$lcc95008$316                     action
     00000618  A$lcc95008$317                     action
     00000619  A$lcc95008$318                     action
     0000061A  A$lcc95008$319                     action
     0000061B  A$lcc95008$320                     action
     0000061C  A$lcc95008$324                     action
     0000061C  C$action.c$30$1_0$146              action
     0000061F  A$lcc95008$325                     action
     00000621  A$lcc95008$326                     action
     00000622  A$lcc95008$327                     action
     00000623  A$lcc95008$328                     action
     00000624  A$lcc95008$329                     action
     00000625  A$lcc95008$330                     action
     00000626  A$lcc95008$331                     action
     00000627  A$lcc95008$332                     action
     00000628  A$lcc95008$333                     action
     00000629  A$lcc95008$337                     action
     0000062B  A$lcc95008$342                     action
     0000062B  C$action.c$31$1_0$146              action
     0000062B  XG$move_right$0$0                  action
     0000062C  A$lcc95008$352                     action
     0000062C  C$action.c$33$1_0$148              action
     0000062C  G$check_input$0$0                  action
     0000062C  _check_input                       action
     0000062E  A$lcc95008$356                     action
     0000062E  C$action.c$35$1_0$148              action
     00000631  A$lcc95008$360                     action
     00000631  C$action.c$40$2_0$148              action
     00000632  A$lcc95008$361                     action
     00000634  A$lcc95008$362                     action
     00000635  A$lcc95008$366                     action
     00000635  C$action.c$42$2_0$148              action
     00000636  A$lcc95008$367                     action
     00000638  A$lcc95008$368                     action
     0000063A  A$lcc95008$369                     action
     0000063B  A$lcc95008$373                     action
     0000063B  C$action.c$44$2_0$148              action
     0000063C  A$lcc95008$374                     action
     0000063E  A$lcc95008$375                     action
     00000640  A$lcc95008$379                     action
     00000640  C$action.c$46$2_0$148              action
     00000641  A$lcc95008$380                     action
     00000642  A$lcc95008$381                     action
     00000644  A$lcc95008$382                     action
     00000645  A$lcc95008$386                     action
     00000645  C$action.c$38$2_0$149              action
     00000648  A$lcc95008$387                     action
     00000649  A$lcc95008$391                     action
ASxxxx Linker V03.00/V05.40 + sdld,  page 10.
Hexadecimal  [32-Bits]

Area                                    Addr        Size        Decimal Bytes (Attributes)
--------------------------------        ----        ----        ------- ----- ------------
_CODE                               00000200    00000FC1 =        4033. bytes (REL,CON)

      Value  Global                              Global Defined In Module
      -----  --------------------------------   ------------------------
     00000649  C$action.c$40$4_0$151              action
     0000064A  A$lcc95008$392                     action
     0000064C  A$lcc95008$393                     action
     0000064D  A$lcc95008$394                     action
     0000064F  A$lcc95008$398                     action
     0000064F  C$action.c$41$4_0$151              action
     00000651  A$lcc95008$399                     action
     00000653  A$lcc95008$404                     action
     00000653  C$action.c$42$5_0$152              action
     00000655  A$lcc95008$405                     action
     00000656  A$lcc95008$406                     action
     00000657  A$lcc95008$407                     action
     00000659  A$lcc95008$411                     action
     00000659  C$action.c$43$5_0$152              action
     0000065C  A$lcc95008$412                     action
     0000065E  A$lcc95008$413                     action
     00000660  A$lcc95008$418                     action
     00000660  C$action.c$44$6_0$153              action
     00000662  A$lcc95008$419                     action
     00000663  A$lcc95008$420                     action
     00000664  A$lcc95008$421                     action
     00000666  A$lcc95008$425                     action
     00000666  C$action.c$45$6_0$153              action
     00000669  A$lcc95008$426                     action
     0000066B  A$lcc95008$427                     action
     0000066D  A$lcc95008$432                     action
     0000066D  C$action.c$46$7_0$154              action
     0000066F  A$lcc95008$433                     action
     00000670  A$lcc95008$434                     action
     00000671  A$lcc95008$435                     action
     00000673  A$lcc95008$439                     action
     00000673  C$action.c$47$7_0$154              action
     00000676  A$lcc95008$440                     action
     00000678  A$lcc95008$445                     action
     00000678  C$action.c$51$2_0$155              action
     0000067B  A$lcc95008$446                     action
     0000067C  A$lcc95008$447                     action
     0000067E  A$lcc95008$448                     action
     00000681  A$lcc95008$449                     action
     00000683  A$lcc95008$450                     action
     00000685  A$lcc95008$451                     action
     00000687  A$lcc95008$452                     action
     00000689  A$lcc95008$453                     action
     0000068B  A$lcc95008$454                     action
     0000068D  A$lcc95008$455                     action
     00000690  A$lcc95008$463                     action
     00000690  C$action.c$53$3_0$156              action
     00000690  C$action.c$54$3_0$156              action
     00000691  A$lcc95008$464                     action
     00000694  A$lcc95008$465                     action
     00000695  A$lcc95008$466                     action
ASxxxx Linker V03.00/V05.40 + sdld,  page 11.
Hexadecimal  [32-Bits]

Area                                    Addr        Size        Decimal Bytes (Attributes)
--------------------------------        ----        ----        ------- ----- ------------
_CODE                               00000200    00000FC1 =        4033. bytes (REL,CON)

      Value  Global                              Global Defined In Module
      -----  --------------------------------   ------------------------
     00000698  A$lcc95008$467                     action
     00000699  A$lcc95008$468                     action
     0000069C  A$lcc95008$469                     action
     0000069D  A$lcc95008$473                     action
     0000069D  C$action.c$55$3_0$156              action
     000006A0  A$lcc95008$474                     action
     000006A1  A$lcc95008$475                     action
     000006A4  A$lcc95008$476                     action
     000006A5  A$lcc95008$477                     action
     000006A6  A$lcc95008$478                     action
     000006A7  A$lcc95008$479                     action
     000006A8  A$lcc95008$480                     action
     000006A9  A$lcc95008$481                     action
     000006AA  A$lcc95008$482                     action
     000006AB  A$lcc95008$483                     action
     000006AC  A$lcc95008$484                     action
     000006AD  A$lcc95008$485                     action
     000006AE  A$lcc95008$486                     action
     000006AF  A$lcc95008$487                     action
     000006B0  A$lcc95008$488                     action
     000006B1  A$lcc95008$489                     action
     000006B2  A$lcc95008$490                     action
     000006B3  A$lcc95008$491                     action
     000006B6  A$lcc95008$492                     action
     000006B7  A$lcc95008$493                     action
     000006B8  A$lcc95008$494                     action
     000006B9  A$lcc95008$495                     action
     000006BA  A$lcc95008$496                     action
     000006BB  A$lcc95008$497                     action
     000006BC  A$lcc95008$498                     action
     000006BD  A$lcc95008$499                     action
     000006C0  A$lcc95008$500                     action
     000006C1  A$lcc95008$504                     action
     000006C1  C$action.c$56$3_0$156              action
     000006C3  A$lcc95008$512                     action
     000006C3  C$action.c$57$3_0$156              action
     000006C3  C$action.c$58$3_0$156              action
     000006C4  A$lcc95008$513                     action
     000006C7  A$lcc95008$514                     action
     000006C8  A$lcc95008$515                     action
     000006CB  A$lcc95008$516                     action
     000006CC  A$lcc95008$517                     action
     000006CF  A$lcc95008$518                     action
     000006D0  A$lcc95008$522                     action
     000006D0  C$action.c$59$3_0$156              action
     000006D3  A$lcc95008$523                     action
     000006D4  A$lcc95008$524                     action
     000006D7  A$lcc95008$525                     action
     000006D8  A$lcc95008$526                     action
     000006D9  A$lcc95008$527                     action
     000006DA  A$lcc95008$528                     action
ASxxxx Linker V03.00/V05.40 + sdld,  page 12.
Hexadecimal  [32-Bits]

Area                                    Addr        Size        Decimal Bytes (Attributes)
--------------------------------        ----        ----        ------- ----- ------------
_CODE                               00000200    00000FC1 =        4033. bytes (REL,CON)

      Value  Global                              Global Defined In Module
      -----  --------------------------------   ------------------------
     000006DB  A$lcc95008$529                     action
     000006DC  A$lcc95008$530                     action
     000006DD  A$lcc95008$531                     action
     000006DE  A$lcc95008$532                     action
     000006DF  A$lcc95008$533                     action
     000006E0  A$lcc95008$534                     action
     000006E1  A$lcc95008$535                     action
     000006E2  A$lcc95008$536                     action
     000006E3  A$lcc95008$537                     action
     000006E4  A$lcc95008$538                     action
     000006E5  A$lcc95008$539                     action
     000006E6  A$lcc95008$540                     action
     000006E9  A$lcc95008$541                     action
     000006EA  A$lcc95008$542                     action
     000006EB  A$lcc95008$543                     action
     000006EC  A$lcc95008$544                     action
     000006ED  A$lcc95008$545                     action
     000006EE  A$lcc95008$546                     action
     000006EF  A$lcc95008$547                     action
     000006F0  A$lcc95008$548                     action
     000006F3  A$lcc95008$549                     action
     000006F4  A$lcc95008$553                     action
     000006F4  C$action.c$60$3_0$156              action
     000006F6  A$lcc95008$561                     action
     000006F6  C$action.c$61$3_0$156              action
     000006F6  C$action.c$62$3_0$156              action
     000006F7  A$lcc95008$562                     action
     000006FA  A$lcc95008$563                     action
     000006FB  A$lcc95008$564                     action
     000006FE  A$lcc95008$565                     action
     000006FF  A$lcc95008$566                     action
     00000702  A$lcc95008$567                     action
     00000703  A$lcc95008$571                     action
     00000703  C$action.c$63$3_0$156              action
     00000705  A$lcc95008$579                     action
     00000705  C$action.c$64$3_0$156              action
     00000705  C$action.c$65$3_0$156              action
     00000706  A$lcc95008$580                     action
     00000709  A$lcc95008$581                     action
     0000070A  A$lcc95008$582                     action
     0000070D  A$lcc95008$583                     action
     0000070E  A$lcc95008$584                     action
     00000711  A$lcc95008$585                     action
     00000712  A$lcc95008$593                     action
     00000712  C$action.c$69$2_0$155              action
     00000712  C$action.c$72$2_0$157              action
     00000715  A$lcc95008$594                     action
     00000716  A$lcc95008$595                     action
     00000718  A$lcc95008$596                     action
     00000719  A$lcc95008$600                     action
     00000719  C$action.c$73$3_0$158              action
ASxxxx Linker V03.00/V05.40 + sdld,  page 13.
Hexadecimal  [32-Bits]

Area                                    Addr        Size        Decimal Bytes (Attributes)
--------------------------------        ----        ----        ------- ----- ------------
_CODE                               00000200    00000FC1 =        4033. bytes (REL,CON)

      Value  Global                              Global Defined In Module
      -----  --------------------------------   ------------------------
     0000071A  A$lcc95008$601                     action
     0000071C  A$lcc95008$602                     action
     0000071F  A$lcc95008$606                     action
     0000071F  C$action.c$74$3_0$158              action
     00000722  A$lcc95008$607                     action
     00000724  A$lcc95008$608                     action
     00000725  A$lcc95008$609                     action
     00000728  A$lcc95008$610                     action
     00000729  A$lcc95008$611                     action
     0000072A  A$lcc95008$612                     action
     0000072B  A$lcc95008$613                     action
     0000072C  A$lcc95008$614                     action
     0000072D  A$lcc95008$615                     action
     0000072E  A$lcc95008$616                     action
     0000072F  A$lcc95008$617                     action
     00000730  A$lcc95008$618                     action
     00000731  A$lcc95008$619                     action
     00000732  A$lcc95008$620                     action
     00000733  A$lcc95008$621                     action
     00000734  A$lcc95008$622                     action
     00000737  A$lcc95008$623                     action
     00000738  A$lcc95008$624                     action
     00000739  A$lcc95008$625                     action
     0000073A  A$lcc95008$626                     action
     0000073C  A$lcc95008$627                     action
     0000073D  A$lcc95008$628                     action
     00000740  A$lcc95008$633                     action
     00000740  C$action.c$77$2_0$159              action
     00000743  A$lcc95008$634                     action
     00000745  A$lcc95008$635                     action
     00000747  A$lcc95008$636                     action
     00000749  A$lcc95008$637                     action
     0000074A  A$lcc95008$641                     action
     0000074A  C$action.c$79$3_0$160              action
     0000074B  A$lcc95008$642                     action
     0000074D  A$lcc95008$643                     action
     00000750  A$lcc95008$647                     action
     00000750  C$action.c$80$3_0$160              action
     00000753  A$lcc95008$648                     action
     00000755  A$lcc95008$649                     action
     00000756  A$lcc95008$650                     action
     00000759  A$lcc95008$651                     action
     0000075A  A$lcc95008$652                     action
     0000075B  A$lcc95008$653                     action
     0000075C  A$lcc95008$654                     action
     0000075D  A$lcc95008$655                     action
     0000075E  A$lcc95008$656                     action
     0000075F  A$lcc95008$657                     action
     00000760  A$lcc95008$658                     action
     00000761  A$lcc95008$659                     action
     00000762  A$lcc95008$660                     action
ASxxxx Linker V03.00/V05.40 + sdld,  page 14.
Hexadecimal  [32-Bits]

Area                                    Addr        Size        Decimal Bytes (Attributes)
--------------------------------        ----        ----        ------- ----- ------------
_CODE                               00000200    00000FC1 =        4033. bytes (REL,CON)

      Value  Global                              Global Defined In Module
      -----  --------------------------------   ------------------------
     00000763  A$lcc95008$661                     action
     00000764  A$lcc95008$662                     action
     00000765  A$lcc95008$663                     action
     00000766  A$lcc95008$664                     action
     00000767  A$lcc95008$665                     action
     00000768  A$lcc95008$666                     action
     00000769  A$lcc95008$667                     action
     0000076A  A$lcc95008$668                     action
     0000076D  A$lcc95008$669                     action
     0000076E  A$lcc95008$670                     action
     0000076F  A$lcc95008$671                     action
     00000770  A$lcc95008$672                     action
     00000772  A$lcc95008$673                     action
     00000773  A$lcc95008$674                     action
     00000774  A$lcc95008$675                     action
     00000775  A$lcc95008$676                     action
     00000777  A$lcc95008$677                     action
     00000778  A$lcc95008$678                     action
     00000779  A$lcc95008$679                     action
     0000077A  A$lcc95008$680                     action
     0000077B  A$lcc95008$681                     action
     0000077C  A$lcc95008$682                     action
     0000077D  A$lcc95008$683                     action
     00000780  A$lcc95008$688                     action
     00000780  C$action.c$83$2_0$161              action
     00000783  A$lcc95008$689                     action
     00000785  A$lcc95008$690                     action
     00000787  A$lcc95008$691                     action
     00000789  A$lcc95008$692                     action
     0000078A  A$lcc95008$696                     action
     0000078A  C$action.c$84$2_0$161              action
     0000078B  A$lcc95008$697                     action
     0000078D  A$lcc95008$698                     action
     00000790  A$lcc95008$703                     action
     00000790  C$action.c$85$2_0$162              action
     00000793  A$lcc95008$704                     action
     00000795  A$lcc95008$705                     action
     00000797  A$lcc95008$706                     action
     00000799  A$lcc95008$707                     action
     0000079A  A$lcc95008$711                     action
     0000079A  C$action.c$86$2_0$162              action
     0000079B  A$lcc95008$712                     action
     0000079D  A$lcc95008$713                     action
     000007A0  A$lcc95008$718                     action
     000007A2  A$lcc95008$723                     action
     000007A2  C$action.c$87$2_0$148              action
     000007A2  XG$check_input$0$0                 action
     000007A3  A$lcc95009$59                      animation
     000007A3  C$animation.c$7$0_0$134            animation
     000007A3  G$init_animation$0$0               animation
     000007A3  _init_animation                    animation
ASxxxx Linker V03.00/V05.40 + sdld,  page 15.
Hexadecimal  [32-Bits]

Area                                    Addr        Size        Decimal Bytes (Attributes)
--------------------------------        ----        ----        ------- ----- ------------
_CODE                               00000200    00000FC1 =        4033. bytes (REL,CON)

      Value  Global                              Global Defined In Module
      -----  --------------------------------   ------------------------
     000007A5  A$lcc95009$60                      animation
     000007A7  A$lcc95009$61                      animation
     000007A8  A$lcc95009$62                      animation
     000007A9  A$lcc95009$63                      animation
     000007AA  A$lcc95009$64                      animation
     000007AB  A$lcc95009$65                      animation
     000007AC  A$lcc95009$66                      animation
     000007AD  A$lcc95009$70                      animation
     000007AD  C$animation.c$12$1_0$134           animation
     000007AF  A$lcc95009$71                      animation
     000007B0  A$lcc95009$72                      animation
     000007B1  A$lcc95009$73                      animation
     000007B2  A$lcc95009$74                      animation
     000007B3  A$lcc95009$75                      animation
     000007B4  A$lcc95009$76                      animation
     000007B5  A$lcc95009$77                      animation
     000007B7  A$lcc95009$78                      animation
     000007B8  A$lcc95009$79                      animation
     000007B9  A$lcc95009$80                      animation
     000007BA  A$lcc95009$81                      animation
     000007BB  A$lcc95009$82                      animation
     000007BC  A$lcc95009$86                      animation
     000007BC  C$animation.c$14$1_0$134           animation
     000007BD  A$lcc95009$87                      animation
     000007BE  A$lcc95009$88                      animation
     000007BF  A$lcc95009$89                      animation
     000007C1  A$lcc95009$90                      animation
     000007C2  A$lcc95009$91                      animation
     000007C3  A$lcc95009$95                      animation
     000007C3  C$animation.c$15$1_0$134           animation
     000007C4  A$lcc95009$96                      animation
     000007C5  A$lcc95009$97                      animation
     000007C6  A$lcc95009$98                      animation
     000007C7  A$lcc95009$99                      animation
     000007C8  A$lcc95009$100                     animation
     000007C9  A$lcc95009$101                     animation
     000007CB  A$lcc95009$102                     animation
     000007CC  A$lcc95009$103                     animation
     000007CD  A$lcc95009$104                     animation
     000007CE  A$lcc95009$108                     animation
     000007CE  C$animation.c$16$1_0$134           animation
     000007D1  A$lcc95009$109                     animation
     000007D2  A$lcc95009$110                     animation
     000007D4  A$lcc95009$114                     animation
     000007D4  C$animation.c$17$1_0$134           animation
     000007D5  A$lcc95009$115                     animation
     000007D6  A$lcc95009$116                     animation
     000007D7  A$lcc95009$117                     animation
     000007D8  A$lcc95009$118                     animation
     000007DA  A$lcc95009$122                     animation
     000007DA  C$animation.c$18$1_0$134           animation
ASxxxx Linker V03.00/V05.40 + sdld,  page 16.
Hexadecimal  [32-Bits]

Area                                    Addr        Size        Decimal Bytes (Attributes)
--------------------------------        ----        ----        ------- ----- ------------
_CODE                               00000200    00000FC1 =        4033. bytes (REL,CON)

      Value  Global                              Global Defined In Module
      -----  --------------------------------   ------------------------
     000007DD  A$lcc95009$123                     animation
     000007DE  A$lcc95009$124                     animation
     000007DF  A$lcc95009$125                     animation
     000007E1  A$lcc95009$126                     animation
     000007E2  A$lcc95009$127                     animation
     000007E3  A$lcc95009$128                     animation
     000007E4  A$lcc95009$132                     animation
     000007E4  C$animation.c$21$1_0$134           animation
     000007E5  A$lcc95009$133                     animation
     000007E6  A$lcc95009$134                     animation
     000007E7  A$lcc95009$135                     animation
     000007E8  A$lcc95009$136                     animation
     000007E9  A$lcc95009$137                     animation
     000007EB  A$lcc95009$138                     animation
     000007EC  A$lcc95009$139                     animation
     000007EE  A$lcc95009$140                     animation
     000007EF  A$lcc95009$141                     animation
     000007F0  A$lcc95009$142                     animation
     000007F3  A$lcc95009$143                     animation
     000007F4  A$lcc95009$144                     animation
     000007F5  A$lcc95009$145                     animation
     000007F6  A$lcc95009$146                     animation
     000007F7  A$lcc95009$147                     animation
     000007F8  A$lcc95009$148                     animation
     000007F9  A$lcc95009$149                     animation
     000007FA  A$lcc95009$150                     animation
     000007FB  A$lcc95009$151                     animation
     000007FD  A$lcc95009$152                     animation
     000007FE  A$lcc95009$153                     animation
     00000800  A$lcc95009$154                     animation
     00000801  A$lcc95009$155                     animation
     00000803  A$lcc95009$156                     animation
     00000804  A$lcc95009$157                     animation
     00000806  A$lcc95009$158                     animation
     00000807  A$lcc95009$159                     animation
     00000808  A$lcc95009$160                     animation
     0000080B  A$lcc95009$161                     animation
     0000080C  A$lcc95009$162                     animation
     0000080D  A$lcc95009$163                     animation
     0000080E  A$lcc95009$167                     animation
     0000080E  C$animation.c$24$2_0$134           animation
     00000810  A$lcc95009$169                     animation
     00000811  A$lcc95009$170                     animation
     00000812  A$lcc95009$171                     animation
     00000813  A$lcc95009$172                     animation
     00000814  A$lcc95009$173                     animation
     00000816  A$lcc95009$174                     animation
     00000817  A$lcc95009$175                     animation
     00000819  A$lcc95009$180                     animation
     00000819  C$animation.c$32$2_0$137           animation
     0000081A  A$lcc95009$181                     animation
ASxxxx Linker V03.00/V05.40 + sdld,  page 17.
Hexadecimal  [32-Bits]

Area                                    Addr        Size        Decimal Bytes (Attributes)
--------------------------------        ----        ----        ------- ----- ------------
_CODE                               00000200    00000FC1 =        4033. bytes (REL,CON)

      Value  Global                              Global Defined In Module
      -----  --------------------------------   ------------------------
     0000081B  A$lcc95009$182                     animation
     0000081E  A$lcc95009$183                     animation
     0000081F  A$lcc95009$184                     animation
     00000820  A$lcc95009$185                     animation
     00000821  A$lcc95009$186                     animation
     00000822  A$lcc95009$187                     animation
     00000823  A$lcc95009$188                     animation
     00000825  A$lcc95009$192                     animation
     00000825  C$animation.c$33$2_0$137           animation
     00000827  A$lcc95009$193                     animation
     00000828  A$lcc95009$194                     animation
     00000829  A$lcc95009$199                     animation
     00000829  C$animation.c$34$2_0$134           animation
     0000082B  A$lcc95009$200                     animation
     0000082C  A$lcc95009$201                     animation
     0000082E  A$lcc95009$202                     animation
     0000082F  A$lcc95009$212                     animation
     0000082F  C$animation.c$36$2_0$139           animation
     0000082F  G$update_animation$0$0             animation
     0000082F  _update_animation                  animation
     00000830  A$lcc95009$213                     animation
     00000831  A$lcc95009$214                     animation
     00000832  A$lcc95009$215                     animation
     00000833  A$lcc95009$219                     animation
     00000833  C$animation.c$38$1_0$139           animation
     00000836  A$lcc95009$220                     animation
     00000837  A$lcc95009$221                     animation
     00000838  A$lcc95009$222                     animation
     00000839  A$lcc95009$223                     animation
     0000083A  A$lcc95009$224                     animation
     0000083B  A$lcc95009$225                     animation
     0000083C  A$lcc95009$226                     animation
     0000083D  A$lcc95009$227                     animation
     0000083E  A$lcc95009$228                     animation
     00000840  A$lcc95009$229                     animation
     00000841  A$lcc95009$230                     animation
     00000842  A$lcc95009$234                     animation
     00000842  C$animation.c$40$1_0$139           animation
     00000845  A$lcc95009$235                     animation
     00000846  A$lcc95009$236                     animation
     00000847  A$lcc95009$237                     animation
     00000848  A$lcc95009$238                     animation
     00000849  A$lcc95009$239                     animation
     0000084A  A$lcc95009$240                     animation
     0000084C  A$lcc95009$241                     animation
     0000084D  A$lcc95009$242                     animation
     0000084E  A$lcc95009$246                     animation
     0000084E  C$animation.c$41$2_0$140           animation
     0000084F  A$lcc95009$247                     animation
     00000850  A$lcc95009$248                     animation
     00000851  A$lcc95009$249                     animation
ASxxxx Linker V03.00/V05.40 + sdld,  page 18.
Hexadecimal  [32-Bits]

Area                                    Addr        Size        Decimal Bytes (Attributes)
--------------------------------        ----        ----        ------- ----- ------------
_CODE                               00000200    00000FC1 =        4033. bytes (REL,CON)

      Value  Global                              Global Defined In Module
      -----  --------------------------------   ------------------------
     00000852  A$lcc95009$250                     animation
     00000853  A$lcc95009$251                     animation
     00000854  A$lcc95009$252                     animation
     00000856  A$lcc95009$253                     animation
     00000857  A$lcc95009$254                     animation
     00000859  A$lcc95009$255                     animation
     0000085A  A$lcc95009$256                     animation
     0000085B  A$lcc95009$257                     animation
     0000085D  A$lcc95009$261                     animation
     0000085D  C$animation.c$43$3_0$141           animation
     0000085E  A$lcc95009$262                     animation
     0000085F  A$lcc95009$266                     animation
     0000085F  C$animation.c$44$3_0$141           animation
     00000860  A$lcc95009$267                     animation
     00000861  A$lcc95009$268                     animation
     00000862  A$lcc95009$269                     animation
     00000863  A$lcc95009$270                     animation
     00000864  A$lcc95009$271                     animation
     00000865  A$lcc95009$275                     animation
     00000865  C$animation.c$45$4_0$142           animation
     00000866  A$lcc95009$276                     animation
     00000867  A$lcc95009$277                     animation
     00000868  A$lcc95009$278                     animation
     00000869  A$lcc95009$279                     animation
     0000086A  A$lcc95009$280                     animation
     0000086C  A$lcc95009$284                     animation
     0000086C  C$animation.c$46$4_0$142           animation
     0000086E  A$lcc95009$289                     animation
     0000086F  A$lcc95009$290                     animation
     00000870  A$lcc95009$295                     animation
     00000870  C$animation.c$48$2_0$139           animation
     00000870  XG$update_animation$0$0            animation
     00000871  A$lcc95009$305                     animation
     00000871  C$animation.c$50$2_0$144           animation
     00000871  G$set_animation$0$0                animation
     00000871  _set_animation                     animation
     00000872  A$lcc95009$306                     animation
     00000873  A$lcc95009$307                     animation
     00000874  A$lcc95009$311                     animation
     00000874  C$animation.c$52$2_0$145           animation
     00000875  A$lcc95009$312                     animation
     00000877  A$lcc95009$313                     animation
     00000878  A$lcc95009$314                     animation
     00000879  A$lcc95009$315                     animation
     0000087B  A$lcc95009$316                     animation
     0000087C  A$lcc95009$317                     animation
     0000087D  A$lcc95009$318                     animation
     0000087E  A$lcc95009$319                     animation
     0000087F  A$lcc95009$326                     animation
     0000087F  C$animation.c$53$2_0$145           animation
     0000087F  C$animation.c$55$1_0$144           animation
ASxxxx Linker V03.00/V05.40 + sdld,  page 19.
Hexadecimal  [32-Bits]

Area                                    Addr        Size        Decimal Bytes (Attributes)
--------------------------------        ----        ----        ------- ----- ------------
_CODE                               00000200    00000FC1 =        4033. bytes (REL,CON)

      Value  Global                              Global Defined In Module
      -----  --------------------------------   ------------------------
     00000880  A$lcc95009$327                     animation
     00000881  A$lcc95009$331                     animation
     00000881  C$animation.c$56$1_1$146           animation
     00000882  A$lcc95009$332                     animation
     00000883  A$lcc95009$333                     animation
     00000884  A$lcc95009$334                     animation
     00000885  A$lcc95009$335                     animation
     00000887  A$lcc95009$336                     animation
     00000888  A$lcc95009$340                     animation
     00000888  C$animation.c$57$1_1$146           animation
     00000889  A$lcc95009$341                     animation
     0000088A  A$lcc95009$342                     animation
     0000088B  A$lcc95009$343                     animation
     0000088C  A$lcc95009$344                     animation
     0000088D  A$lcc95009$345                     animation
     0000088E  A$lcc95009$349                     animation
     0000088E  C$animation.c$58$1_1$146           animation
     00000891  A$lcc95009$350                     animation
     00000892  A$lcc95009$351                     animation
     00000894  A$lcc95009$359                     animation
     00000894  C$animation.c$59$1_1$144           animation
     00000894  XG$set_animation$0$0               animation
     00000895  A$lcc950010$52                     draw
     00000895  C$draw.c$6$0_0$135                 draw
     00000895  G$draw_actor$0$0                   draw
     00000895  _draw_actor                        draw
     00000897  A$lcc950010$53                     draw
     00000899  A$lcc950010$54                     draw
     0000089A  A$lcc950010$55                     draw
     0000089B  A$lcc950010$56                     draw
     0000089C  A$lcc950010$60                     draw
     0000089C  C$draw.c$8$1_0$135                 draw
     0000089F  A$lcc950010$61                     draw
     000008A0  A$lcc950010$62                     draw
     000008A1  A$lcc950010$63                     draw
     000008A2  A$lcc950010$64                     draw
     000008A3  A$lcc950010$65                     draw
     000008A4  A$lcc950010$66                     draw
     000008A5  A$lcc950010$67                     draw
     000008A6  A$lcc950010$68                     draw
     000008A8  A$lcc950010$69                     draw
     000008A9  A$lcc950010$73                     draw
     000008A9  C$draw.c$9$1_0$135                 draw
     000008AB  A$lcc950010$74                     draw
     000008AC  A$lcc950010$75                     draw
     000008AD  A$lcc950010$76                     draw
     000008AE  A$lcc950010$77                     draw
     000008B1  A$lcc950010$78                     draw
     000008B2  A$lcc950010$79                     draw
     000008B3  A$lcc950010$80                     draw
     000008B4  A$lcc950010$81                     draw
ASxxxx Linker V03.00/V05.40 + sdld,  page 20.
Hexadecimal  [32-Bits]

Area                                    Addr        Size        Decimal Bytes (Attributes)
--------------------------------        ----        ----        ------- ----- ------------
_CODE                               00000200    00000FC1 =        4033. bytes (REL,CON)

      Value  Global                              Global Defined In Module
      -----  --------------------------------   ------------------------
     000008B6  A$lcc950010$82                     draw
     000008B7  A$lcc950010$83                     draw
     000008B8  A$lcc950010$84                     draw
     000008B9  A$lcc950010$85                     draw
     000008BB  A$lcc950010$86                     draw
     000008BC  A$lcc950010$87                     draw
     000008BD  A$lcc950010$88                     draw
     000008BE  A$lcc950010$89                     draw
     000008BF  A$lcc950010$90                     draw
     000008C0  A$lcc950010$91                     draw
     000008C2  A$lcc950010$92                     draw
     000008C3  A$lcc950010$96                     draw
     000008C3  C$draw.c$11$1_0$135                draw
     000008C5  A$lcc950010$97                     draw
     000008C6  A$lcc950010$98                     draw
     000008C7  A$lcc950010$99                     draw
     000008C8  A$lcc950010$100                    draw
     000008C9  A$lcc950010$101                    draw
     000008CA  A$lcc950010$102                    draw
     000008CB  A$lcc950010$103                    draw
     000008CC  A$lcc950010$104                    draw
     000008CD  A$lcc950010$105                    draw
     000008CE  A$lcc950010$106                    draw
     000008CF  A$lcc950010$107                    draw
     000008D0  A$lcc950010$108                    draw
     000008D1  A$lcc950010$109                    draw
     000008D4  A$lcc950010$110                    draw
     000008D5  A$lcc950010$111                    draw
     000008D6  A$lcc950010$112                    draw
     000008D7  A$lcc950010$113                    draw
     000008D9  A$lcc950010$114                    draw
     000008DA  A$lcc950010$115                    draw
     000008DB  A$lcc950010$116                    draw
     000008DC  A$lcc950010$117                    draw
     000008DE  A$lcc950010$118                    draw
     000008DF  A$lcc950010$119                    draw
     000008E0  A$lcc950010$120                    draw
     000008E1  A$lcc950010$121                    draw
     000008E2  A$lcc950010$122                    draw
     000008E4  A$lcc950010$123                    draw
     000008E5  A$lcc950010$124                    draw
     000008E6  A$lcc950010$128                    draw
     000008E6  C$draw.c$12$1_0$135                draw
     000008E7  A$lcc950010$129                    draw
     000008E8  A$lcc950010$130                    draw
     000008E9  A$lcc950010$131                    draw
     000008EA  A$lcc950010$132                    draw
     000008ED  A$lcc950010$133                    draw
     000008EE  A$lcc950010$134                    draw
     000008EF  A$lcc950010$135                    draw
     000008F0  A$lcc950010$136                    draw
ASxxxx Linker V03.00/V05.40 + sdld,  page 21.
Hexadecimal  [32-Bits]

Area                                    Addr        Size        Decimal Bytes (Attributes)
--------------------------------        ----        ----        ------- ----- ------------
_CODE                               00000200    00000FC1 =        4033. bytes (REL,CON)

      Value  Global                              Global Defined In Module
      -----  --------------------------------   ------------------------
     000008F2  A$lcc950010$137                    draw
     000008F3  A$lcc950010$138                    draw
     000008F4  A$lcc950010$139                    draw
     000008F5  A$lcc950010$140                    draw
     000008F7  A$lcc950010$141                    draw
     000008F8  A$lcc950010$142                    draw
     000008F9  A$lcc950010$143                    draw
     000008FA  A$lcc950010$144                    draw
     000008FB  A$lcc950010$145                    draw
     000008FC  A$lcc950010$146                    draw
     000008FD  A$lcc950010$147                    draw
     000008FE  A$lcc950010$148                    draw
     000008FF  A$lcc950010$149                    draw
     00000900  A$lcc950010$150                    draw
     00000901  A$lcc950010$151                    draw
     00000903  A$lcc950010$152                    draw
     00000905  A$lcc950010$153                    draw
     00000906  A$lcc950010$154                    draw
     00000907  A$lcc950010$155                    draw
     00000908  A$lcc950010$156                    draw
     00000909  A$lcc950010$157                    draw
     0000090A  A$lcc950010$158                    draw
     0000090B  A$lcc950010$162                    draw
     0000090B  C$draw.c$14$1_0$135                draw
     0000090E  A$lcc950010$163                    draw
     0000090F  A$lcc950010$164                    draw
     00000910  A$lcc950010$165                    draw
     00000912  A$lcc950010$169                    draw
     00000912  C$draw.c$15$1_0$135                draw
     00000913  A$lcc950010$170                    draw
     00000914  A$lcc950010$171                    draw
     00000915  A$lcc950010$172                    draw
     00000916  A$lcc950010$173                    draw
     00000917  A$lcc950010$174                    draw
     00000918  A$lcc950010$175                    draw
     00000919  A$lcc950010$176                    draw
     0000091C  A$lcc950010$177                    draw
     0000091E  A$lcc950010$178                    draw
     0000091F  A$lcc950010$179                    draw
     00000920  A$lcc950010$180                    draw
     00000921  A$lcc950010$181                    draw
     00000922  A$lcc950010$182                    draw
     00000923  A$lcc950010$183                    draw
     00000924  A$lcc950010$184                    draw
     00000925  A$lcc950010$188                    draw
     00000925  C$draw.c$17$1_0$135                draw
     00000927  A$lcc950010$189                    draw
     00000928  A$lcc950010$190                    draw
     00000929  A$lcc950010$191                    draw
     0000092B  A$lcc950010$192                    draw
     0000092C  A$lcc950010$193                    draw
ASxxxx Linker V03.00/V05.40 + sdld,  page 22.
Hexadecimal  [32-Bits]

Area                                    Addr        Size        Decimal Bytes (Attributes)
--------------------------------        ----        ----        ------- ----- ------------
_CODE                               00000200    00000FC1 =        4033. bytes (REL,CON)

      Value  Global                              Global Defined In Module
      -----  --------------------------------   ------------------------
     0000092E  A$lcc950010$194                    draw
     0000092F  A$lcc950010$195                    draw
     00000931  A$lcc950010$199                    draw
     00000931  C$draw.c$20$2_0$135                draw
     00000933  A$lcc950010$201                    draw
     00000934  A$lcc950010$202                    draw
     00000936  A$lcc950010$203                    draw
     00000937  A$lcc950010$204                    draw
     00000939  A$lcc950010$206                    draw
     0000093A  A$lcc950010$207                    draw
     0000093B  A$lcc950010$208                    draw
     0000093C  A$lcc950010$209                    draw
     0000093D  A$lcc950010$210                    draw
     0000093E  A$lcc950010$211                    draw
     00000940  A$lcc950010$212                    draw
     00000943  A$lcc950010$213                    draw
     00000944  A$lcc950010$214                    draw
     00000945  A$lcc950010$215                    draw
     00000946  A$lcc950010$216                    draw
     00000947  A$lcc950010$218                    draw
     00000948  A$lcc950010$219                    draw
     00000949  A$lcc950010$220                    draw
     0000094A  A$lcc950010$221                    draw
     0000094B  A$lcc950010$222                    draw
     0000094C  A$lcc950010$223                    draw
     0000094D  A$lcc950010$224                    draw
     00000950  A$lcc950010$225                    draw
     00000951  A$lcc950010$226                    draw
     00000952  A$lcc950010$227                    draw
     00000953  A$lcc950010$228                    draw
     00000954  A$lcc950010$229                    draw
     00000955  A$lcc950010$233                    draw
     00000955  C$draw.c$20$2_0$136                draw
     00000956  A$lcc950010$234                    draw
     00000958  A$lcc950010$239                    draw
     00000958  C$draw.c$24$2_0$137                draw
     0000095A  A$lcc950010$240                    draw
     0000095B  A$lcc950010$241                    draw
     0000095C  A$lcc950010$242                    draw
     0000095E  A$lcc950010$244                    draw
     00000960  A$lcc950010$245                    draw
     00000961  A$lcc950010$247                    draw
     00000963  A$lcc950010$248                    draw
     00000964  A$lcc950010$249                    draw
     00000965  A$lcc950010$250                    draw
     00000966  A$lcc950010$251                    draw
     00000967  A$lcc950010$252                    draw
     00000968  A$lcc950010$253                    draw
     00000969  A$lcc950010$254                    draw
     0000096A  A$lcc950010$255                    draw
     0000096C  A$lcc950010$256                    draw
ASxxxx Linker V03.00/V05.40 + sdld,  page 23.
Hexadecimal  [32-Bits]

Area                                    Addr        Size        Decimal Bytes (Attributes)
--------------------------------        ----        ----        ------- ----- ------------
_CODE                               00000200    00000FC1 =        4033. bytes (REL,CON)

      Value  Global                              Global Defined In Module
      -----  --------------------------------   ------------------------
     0000096E  A$lcc950010$258                    draw
     00000970  A$lcc950010$259                    draw
     00000972  A$lcc950010$260                    draw
     00000973  A$lcc950010$261                    draw
     00000975  A$lcc950010$262                    draw
     00000976  A$lcc950010$263                    draw
     00000978  A$lcc950010$264                    draw
     00000979  A$lcc950010$265                    draw
     0000097A  A$lcc950010$266                    draw
     0000097B  A$lcc950010$267                    draw
     0000097C  A$lcc950010$268                    draw
     0000097F  A$lcc950010$269                    draw
     00000980  A$lcc950010$270                    draw
     00000981  A$lcc950010$271                    draw
     00000982  A$lcc950010$272                    draw
     00000984  A$lcc950010$273                    draw
     00000985  A$lcc950010$274                    draw
     00000986  A$lcc950010$275                    draw
     00000987  A$lcc950010$276                    draw
     00000989  A$lcc950010$278                    draw
     0000098A  A$lcc950010$279                    draw
     0000098B  A$lcc950010$280                    draw
     0000098C  A$lcc950010$281                    draw
     0000098D  A$lcc950010$282                    draw
     0000098F  A$lcc950010$283                    draw
     00000990  A$lcc950010$284                    draw
     00000991  A$lcc950010$285                    draw
     00000993  A$lcc950010$286                    draw
     00000994  A$lcc950010$287                    draw
     00000995  A$lcc950010$288                    draw
     00000996  A$lcc950010$289                    draw
     00000997  A$lcc950010$290                    draw
     00000999  A$lcc950010$291                    draw
     0000099A  A$lcc950010$292                    draw
     0000099B  A$lcc950010$296                    draw
     0000099B  C$draw.c$26$2_0$137                draw
     0000099E  A$lcc950010$301                    draw
     0000099E  C$draw.c$28$3_0$139                draw
     000009A0  A$lcc950010$302                    draw
     000009A1  A$lcc950010$303                    draw
     000009A3  A$lcc950010$304                    draw
     000009A6  A$lcc950010$308                    draw
     000009A9  A$lcc950010$309                    draw
     000009AB  A$lcc950010$310                    draw
     000009AC  A$lcc950010$311                    draw
     000009AD  A$lcc950010$312                    draw
     000009AE  A$lcc950010$313                    draw
     000009AF  A$lcc950010$314                    draw
     000009B0  A$lcc950010$315                    draw
     000009B1  A$lcc950010$316                    draw
     000009B2  A$lcc950010$317                    draw
ASxxxx Linker V03.00/V05.40 + sdld,  page 24.
Hexadecimal  [32-Bits]

Area                                    Addr        Size        Decimal Bytes (Attributes)
--------------------------------        ----        ----        ------- ----- ------------
_CODE                               00000200    00000FC1 =        4033. bytes (REL,CON)

      Value  Global                              Global Defined In Module
      -----  --------------------------------   ------------------------
     000009B3  A$lcc950010$321                    draw
     000009B3  C$draw.c$26$2_0$135                draw
     000009B5  A$lcc950010$322                    draw
     000009B6  A$lcc950010$323                    draw
     000009B8  A$lcc950010$324                    draw
     000009B9  A$lcc950010$328                    draw
     000009B9  C$draw.c$30$5_0$141                draw
     000009BB  A$lcc950010$329                    draw
     000009BE  A$lcc950010$332                    draw
     000009BF  A$lcc950010$333                    draw
     000009C0  A$lcc950010$334                    draw
     000009C1  A$lcc950010$335                    draw
     000009C2  A$lcc950010$336                    draw
     000009C3  A$lcc950010$337                    draw
     000009C4  A$lcc950010$338                    draw
     000009C5  A$lcc950010$339                    draw
     000009C7  A$lcc950010$340                    draw
     000009C9  A$lcc950010$342                    draw
     000009CB  A$lcc950010$343                    draw
     000009CD  A$lcc950010$344                    draw
     000009CE  A$lcc950010$345                    draw
     000009D0  A$lcc950010$346                    draw
     000009D1  A$lcc950010$347                    draw
     000009D3  A$lcc950010$348                    draw
     000009D4  A$lcc950010$349                    draw
     000009D5  A$lcc950010$350                    draw
     000009D6  A$lcc950010$351                    draw
     000009D7  A$lcc950010$352                    draw
     000009DA  A$lcc950010$353                    draw
     000009DB  A$lcc950010$354                    draw
     000009DC  A$lcc950010$355                    draw
     000009DD  A$lcc950010$356                    draw
     000009DF  A$lcc950010$357                    draw
     000009E0  A$lcc950010$358                    draw
     000009E1  A$lcc950010$359                    draw
     000009E2  A$lcc950010$360                    draw
     000009E4  A$lcc950010$361                    draw
     000009E5  A$lcc950010$362                    draw
     000009E6  A$lcc950010$363                    draw
     000009E7  A$lcc950010$364                    draw
     000009E8  A$lcc950010$365                    draw
     000009EA  A$lcc950010$366                    draw
     000009EB  A$lcc950010$367                    draw
     000009EC  A$lcc950010$369                    draw
     000009ED  A$lcc950010$370                    draw
     000009EE  A$lcc950010$371                    draw
     000009EF  A$lcc950010$372                    draw
     000009F0  A$lcc950010$373                    draw
     000009F2  A$lcc950010$374                    draw
     000009F3  A$lcc950010$375                    draw
     000009F4  A$lcc950010$376                    draw
ASxxxx Linker V03.00/V05.40 + sdld,  page 25.
Hexadecimal  [32-Bits]

Area                                    Addr        Size        Decimal Bytes (Attributes)
--------------------------------        ----        ----        ------- ----- ------------
_CODE                               00000200    00000FC1 =        4033. bytes (REL,CON)

      Value  Global                              Global Defined In Module
      -----  --------------------------------   ------------------------
     000009F6  A$lcc950010$377                    draw
     000009F7  A$lcc950010$378                    draw
     000009F8  A$lcc950010$379                    draw
     000009F9  A$lcc950010$380                    draw
     000009FA  A$lcc950010$381                    draw
     000009FB  A$lcc950010$382                    draw
     000009FC  A$lcc950010$383                    draw
     000009FD  A$lcc950010$384                    draw
     000009FE  A$lcc950010$385                    draw
     00000A00  A$lcc950010$386                    draw
     00000A01  A$lcc950010$387                    draw
     00000A02  A$lcc950010$388                    draw
     00000A03  A$lcc950010$389                    draw
     00000A05  A$lcc950010$390                    draw
     00000A06  A$lcc950010$391                    draw
     00000A07  A$lcc950010$392                    draw
     00000A08  A$lcc950010$393                    draw
     00000A09  A$lcc950010$394                    draw
     00000A0B  A$lcc950010$395                    draw
     00000A0C  A$lcc950010$396                    draw
     00000A0D  A$lcc950010$398                    draw
     00000A0F  A$lcc950010$399                    draw
     00000A10  A$lcc950010$400                    draw
     00000A12  A$lcc950010$401                    draw
     00000A13  A$lcc950010$402                    draw
     00000A14  A$lcc950010$403                    draw
     00000A15  A$lcc950010$404                    draw
     00000A17  A$lcc950010$405                    draw
     00000A18  A$lcc950010$406                    draw
     00000A1A  A$lcc950010$407                    draw
     00000A1B  A$lcc950010$408                    draw
     00000A1D  A$lcc950010$409                    draw
     00000A1E  A$lcc950010$411                    draw
     00000A1F  A$lcc950010$412                    draw
     00000A20  A$lcc950010$413                    draw
     00000A21  A$lcc950010$414                    draw
     00000A22  A$lcc950010$415                    draw
     00000A23  A$lcc950010$416                    draw
     00000A25  A$lcc950010$417                    draw
     00000A26  A$lcc950010$418                    draw
     00000A28  A$lcc950010$419                    draw
     00000A2A  A$lcc950010$421                    draw
     00000A2C  A$lcc950010$422                    draw
     00000A2E  A$lcc950010$423                    draw
     00000A2F  A$lcc950010$424                    draw
     00000A31  A$lcc950010$425                    draw
     00000A32  A$lcc950010$426                    draw
     00000A34  A$lcc950010$427                    draw
     00000A35  A$lcc950010$428                    draw
     00000A36  A$lcc950010$429                    draw
     00000A37  A$lcc950010$430                    draw
ASxxxx Linker V03.00/V05.40 + sdld,  page 26.
Hexadecimal  [32-Bits]

Area                                    Addr        Size        Decimal Bytes (Attributes)
--------------------------------        ----        ----        ------- ----- ------------
_CODE                               00000200    00000FC1 =        4033. bytes (REL,CON)

      Value  Global                              Global Defined In Module
      -----  --------------------------------   ------------------------
     00000A38  A$lcc950010$431                    draw
     00000A3B  A$lcc950010$432                    draw
     00000A3C  A$lcc950010$433                    draw
     00000A3D  A$lcc950010$434                    draw
     00000A3E  A$lcc950010$435                    draw
     00000A40  A$lcc950010$436                    draw
     00000A41  A$lcc950010$437                    draw
     00000A42  A$lcc950010$438                    draw
     00000A43  A$lcc950010$439                    draw
     00000A45  A$lcc950010$441                    draw
     00000A46  A$lcc950010$442                    draw
     00000A47  A$lcc950010$443                    draw
     00000A48  A$lcc950010$444                    draw
     00000A49  A$lcc950010$445                    draw
     00000A4A  A$lcc950010$446                    draw
     00000A4B  A$lcc950010$447                    draw
     00000A4C  A$lcc950010$448                    draw
     00000A4D  A$lcc950010$449                    draw
     00000A4E  A$lcc950010$450                    draw
     00000A4F  A$lcc950010$451                    draw
     00000A50  A$lcc950010$452                    draw
     00000A51  A$lcc950010$453                    draw
     00000A52  A$lcc950010$454                    draw
     00000A53  A$lcc950010$455                    draw
     00000A54  A$lcc950010$456                    draw
     00000A55  A$lcc950010$457                    draw
     00000A57  A$lcc950010$458                    draw
     00000A58  A$lcc950010$459                    draw
     00000A59  A$lcc950010$460                    draw
     00000A5A  A$lcc950010$461                    draw
     00000A5C  A$lcc950010$462                    draw
     00000A5D  A$lcc950010$463                    draw
     00000A5E  A$lcc950010$464                    draw
     00000A5F  A$lcc950010$465                    draw
     00000A60  A$lcc950010$466                    draw
     00000A62  A$lcc950010$467                    draw
     00000A63  A$lcc950010$468                    draw
     00000A64  A$lcc950010$472                    draw
     00000A64  C$draw.c$33$5_0$141                draw
     00000A67  A$lcc950010$475                    draw
     00000A69  A$lcc950010$477                    draw
     00000A6A  A$lcc950010$478                    draw
     00000A6B  A$lcc950010$479                    draw
     00000A6C  A$lcc950010$480                    draw
     00000A6D  A$lcc950010$481                    draw
     00000A6E  A$lcc950010$482                    draw
     00000A6F  A$lcc950010$483                    draw
     00000A70  A$lcc950010$484                    draw
     00000A72  A$lcc950010$485                    draw
     00000A74  A$lcc950010$487                    draw
     00000A76  A$lcc950010$488                    draw
ASxxxx Linker V03.00/V05.40 + sdld,  page 27.
Hexadecimal  [32-Bits]

Area                                    Addr        Size        Decimal Bytes (Attributes)
--------------------------------        ----        ----        ------- ----- ------------
_CODE                               00000200    00000FC1 =        4033. bytes (REL,CON)

      Value  Global                              Global Defined In Module
      -----  --------------------------------   ------------------------
     00000A78  A$lcc950010$489                    draw
     00000A79  A$lcc950010$490                    draw
     00000A7B  A$lcc950010$491                    draw
     00000A7C  A$lcc950010$492                    draw
     00000A7E  A$lcc950010$493                    draw
     00000A7F  A$lcc950010$494                    draw
     00000A80  A$lcc950010$495                    draw
     00000A81  A$lcc950010$496                    draw
     00000A82  A$lcc950010$497                    draw
     00000A85  A$lcc950010$498                    draw
     00000A86  A$lcc950010$499                    draw
     00000A87  A$lcc950010$500                    draw
     00000A88  A$lcc950010$501                    draw
     00000A8A  A$lcc950010$502                    draw
     00000A8B  A$lcc950010$503                    draw
     00000A8C  A$lcc950010$504                    draw
     00000A8D  A$lcc950010$505                    draw
     00000A8F  A$lcc950010$507                    draw
     00000A90  A$lcc950010$508                    draw
     00000A91  A$lcc950010$509                    draw
     00000A92  A$lcc950010$510                    draw
     00000A93  A$lcc950010$511                    draw
     00000A95  A$lcc950010$512                    draw
     00000A96  A$lcc950010$513                    draw
     00000A97  A$lcc950010$514                    draw
     00000A99  A$lcc950010$515                    draw
     00000A9A  A$lcc950010$516                    draw
     00000A9B  A$lcc950010$517                    draw
     00000A9C  A$lcc950010$518                    draw
     00000A9D  A$lcc950010$519                    draw
     00000A9F  A$lcc950010$520                    draw
     00000AA0  A$lcc950010$521                    draw
     00000AA1  A$lcc950010$523                    draw
     00000AA2  A$lcc950010$524                    draw
     00000AA4  A$lcc950010$525                    draw
     00000AA6  A$lcc950010$526                    draw
     00000AA7  A$lcc950010$527                    draw
     00000AA9  A$lcc950010$528                    draw
     00000AAA  A$lcc950010$530                    draw
     00000AAC  A$lcc950010$531                    draw
     00000AAD  A$lcc950010$532                    draw
     00000AAE  A$lcc950010$533                    draw
     00000AAF  A$lcc950010$534                    draw
     00000AB0  A$lcc950010$535                    draw
     00000AB1  A$lcc950010$536                    draw
     00000AB3  A$lcc950010$537                    draw
     00000AB4  A$lcc950010$538                    draw
     00000AB6  A$lcc950010$539                    draw
     00000AB8  A$lcc950010$541                    draw
     00000ABA  A$lcc950010$542                    draw
     00000ABC  A$lcc950010$543                    draw
ASxxxx Linker V03.00/V05.40 + sdld,  page 28.
Hexadecimal  [32-Bits]

Area                                    Addr        Size        Decimal Bytes (Attributes)
--------------------------------        ----        ----        ------- ----- ------------
_CODE                               00000200    00000FC1 =        4033. bytes (REL,CON)

      Value  Global                              Global Defined In Module
      -----  --------------------------------   ------------------------
     00000ABD  A$lcc950010$544                    draw
     00000ABF  A$lcc950010$545                    draw
     00000AC0  A$lcc950010$546                    draw
     00000AC2  A$lcc950010$547                    draw
     00000AC3  A$lcc950010$548                    draw
     00000AC4  A$lcc950010$549                    draw
     00000AC5  A$lcc950010$550                    draw
     00000AC6  A$lcc950010$551                    draw
     00000AC9  A$lcc950010$552                    draw
     00000ACA  A$lcc950010$553                    draw
     00000ACB  A$lcc950010$554                    draw
     00000ACC  A$lcc950010$555                    draw
     00000ACE  A$lcc950010$556                    draw
     00000ACF  A$lcc950010$557                    draw
     00000AD0  A$lcc950010$558                    draw
     00000AD1  A$lcc950010$559                    draw
     00000AD3  A$lcc950010$561                    draw
     00000AD4  A$lcc950010$562                    draw
     00000AD5  A$lcc950010$563                    draw
     00000AD6  A$lcc950010$564                    draw
     00000AD7  A$lcc950010$565                    draw
     00000AD9  A$lcc950010$566                    draw
     00000ADA  A$lcc950010$567                    draw
     00000ADB  A$lcc950010$568                    draw
     00000ADD  A$lcc950010$569                    draw
     00000ADE  A$lcc950010$570                    draw
     00000ADF  A$lcc950010$571                    draw
     00000AE0  A$lcc950010$572                    draw
     00000AE1  A$lcc950010$573                    draw
     00000AE2  A$lcc950010$574                    draw
     00000AE3  A$lcc950010$575                    draw
     00000AE4  A$lcc950010$576                    draw
     00000AE5  A$lcc950010$577                    draw
     00000AE7  A$lcc950010$578                    draw
     00000AE8  A$lcc950010$579                    draw
     00000AE9  A$lcc950010$580                    draw
     00000AEA  A$lcc950010$581                    draw
     00000AEC  A$lcc950010$582                    draw
     00000AED  A$lcc950010$583                    draw
     00000AEE  A$lcc950010$584                    draw
     00000AEF  A$lcc950010$585                    draw
     00000AF0  A$lcc950010$586                    draw
     00000AF1  A$lcc950010$587                    draw
     00000AF2  A$lcc950010$588                    draw
     00000AF3  A$lcc950010$592                    draw
     00000AF3  C$draw.c$38$3_0$139                draw
     00000AF6  A$lcc950010$597                    draw
     00000AF6  C$draw.c$41$4_0$144                draw
     00000AF8  A$lcc950010$598                    draw
     00000AF9  A$lcc950010$599                    draw
     00000AFB  A$lcc950010$600                    draw
ASxxxx Linker V03.00/V05.40 + sdld,  page 29.
Hexadecimal  [32-Bits]

Area                                    Addr        Size        Decimal Bytes (Attributes)
--------------------------------        ----        ----        ------- ----- ------------
_CODE                               00000200    00000FC1 =        4033. bytes (REL,CON)

      Value  Global                              Global Defined In Module
      -----  --------------------------------   ------------------------
     00000AFE  A$lcc950010$602                    draw
     00000B00  A$lcc950010$603                    draw
     00000B01  A$lcc950010$605                    draw
     00000B03  A$lcc950010$606                    draw
     00000B04  A$lcc950010$607                    draw
     00000B05  A$lcc950010$608                    draw
     00000B06  A$lcc950010$609                    draw
     00000B07  A$lcc950010$610                    draw
     00000B08  A$lcc950010$611                    draw
     00000B09  A$lcc950010$612                    draw
     00000B0A  A$lcc950010$613                    draw
     00000B0C  A$lcc950010$614                    draw
     00000B0E  A$lcc950010$616                    draw
     00000B10  A$lcc950010$617                    draw
     00000B12  A$lcc950010$618                    draw
     00000B13  A$lcc950010$619                    draw
     00000B15  A$lcc950010$620                    draw
     00000B16  A$lcc950010$621                    draw
     00000B18  A$lcc950010$622                    draw
     00000B19  A$lcc950010$623                    draw
     00000B1A  A$lcc950010$624                    draw
     00000B1B  A$lcc950010$625                    draw
     00000B1C  A$lcc950010$626                    draw
     00000B1F  A$lcc950010$627                    draw
     00000B20  A$lcc950010$628                    draw
     00000B21  A$lcc950010$629                    draw
     00000B22  A$lcc950010$630                    draw
     00000B24  A$lcc950010$631                    draw
     00000B25  A$lcc950010$632                    draw
     00000B26  A$lcc950010$633                    draw
     00000B27  A$lcc950010$634                    draw
     00000B29  A$lcc950010$636                    draw
     00000B2A  A$lcc950010$637                    draw
     00000B2B  A$lcc950010$638                    draw
     00000B2C  A$lcc950010$639                    draw
     00000B2D  A$lcc950010$640                    draw
     00000B2F  A$lcc950010$641                    draw
     00000B30  A$lcc950010$642                    draw
     00000B31  A$lcc950010$643                    draw
     00000B33  A$lcc950010$644                    draw
     00000B34  A$lcc950010$645                    draw
     00000B35  A$lcc950010$646                    draw
     00000B36  A$lcc950010$647                    draw
     00000B37  A$lcc950010$648                    draw
     00000B39  A$lcc950010$649                    draw
     00000B3A  A$lcc950010$650                    draw
     00000B3B  A$lcc950010$652                    draw
     00000B3C  A$lcc950010$653                    draw
     00000B3E  A$lcc950010$654                    draw
     00000B3F  A$lcc950010$655                    draw
     00000B40  A$lcc950010$656                    draw
ASxxxx Linker V03.00/V05.40 + sdld,  page 30.
Hexadecimal  [32-Bits]

Area                                    Addr        Size        Decimal Bytes (Attributes)
--------------------------------        ----        ----        ------- ----- ------------
_CODE                               00000200    00000FC1 =        4033. bytes (REL,CON)

      Value  Global                              Global Defined In Module
      -----  --------------------------------   ------------------------
     00000B42  A$lcc950010$657                    draw
     00000B43  A$lcc950010$658                    draw
     00000B44  A$lcc950010$659                    draw
     00000B45  A$lcc950010$661                    draw
     00000B47  A$lcc950010$662                    draw
     00000B48  A$lcc950010$663                    draw
     00000B49  A$lcc950010$664                    draw
     00000B4A  A$lcc950010$665                    draw
     00000B4B  A$lcc950010$666                    draw
     00000B4C  A$lcc950010$667                    draw
     00000B4D  A$lcc950010$668                    draw
     00000B4E  A$lcc950010$669                    draw
     00000B50  A$lcc950010$670                    draw
     00000B52  A$lcc950010$672                    draw
     00000B54  A$lcc950010$673                    draw
     00000B56  A$lcc950010$674                    draw
     00000B57  A$lcc950010$675                    draw
     00000B59  A$lcc950010$676                    draw
     00000B5A  A$lcc950010$677                    draw
     00000B5C  A$lcc950010$678                    draw
     00000B5F  A$lcc950010$679                    draw
     00000B60  A$lcc950010$680                    draw
     00000B61  A$lcc950010$681                    draw
     00000B62  A$lcc950010$682                    draw
     00000B63  A$lcc950010$683                    draw
     00000B64  A$lcc950010$684                    draw
     00000B65  A$lcc950010$685                    draw
     00000B67  A$lcc950010$686                    draw
     00000B68  A$lcc950010$687                    draw
     00000B69  A$lcc950010$688                    draw
     00000B6A  A$lcc950010$689                    draw
     00000B6C  A$lcc950010$690                    draw
     00000B6D  A$lcc950010$691                    draw
     00000B6E  A$lcc950010$692                    draw
     00000B6F  A$lcc950010$693                    draw
     00000B70  A$lcc950010$694                    draw
     00000B72  A$lcc950010$695                    draw
     00000B73  A$lcc950010$696                    draw
     00000B74  A$lcc950010$698                    draw
     00000B75  A$lcc950010$699                    draw
     00000B76  A$lcc950010$700                    draw
     00000B77  A$lcc950010$701                    draw
     00000B78  A$lcc950010$702                    draw
     00000B7A  A$lcc950010$703                    draw
     00000B7B  A$lcc950010$704                    draw
     00000B7C  A$lcc950010$705                    draw
     00000B7E  A$lcc950010$706                    draw
     00000B7F  A$lcc950010$707                    draw
     00000B80  A$lcc950010$708                    draw
     00000B81  A$lcc950010$709                    draw
     00000B82  A$lcc950010$710                    draw
ASxxxx Linker V03.00/V05.40 + sdld,  page 31.
Hexadecimal  [32-Bits]

Area                                    Addr        Size        Decimal Bytes (Attributes)
--------------------------------        ----        ----        ------- ----- ------------
_CODE                               00000200    00000FC1 =        4033. bytes (REL,CON)

      Value  Global                              Global Defined In Module
      -----  --------------------------------   ------------------------
     00000B83  A$lcc950010$711                    draw
     00000B84  A$lcc950010$712                    draw
     00000B85  A$lcc950010$713                    draw
     00000B86  A$lcc950010$714                    draw
     00000B88  A$lcc950010$715                    draw
     00000B89  A$lcc950010$716                    draw
     00000B8A  A$lcc950010$717                    draw
     00000B8B  A$lcc950010$718                    draw
     00000B8D  A$lcc950010$719                    draw
     00000B8E  A$lcc950010$720                    draw
     00000B8F  A$lcc950010$721                    draw
     00000B90  A$lcc950010$722                    draw
     00000B91  A$lcc950010$723                    draw
     00000B93  A$lcc950010$725                    draw
     00000B94  A$lcc950010$726                    draw
     00000B95  A$lcc950010$727                    draw
     00000B96  A$lcc950010$728                    draw
     00000B98  A$lcc950010$729                    draw
     00000B99  A$lcc950010$730                    draw
     00000B9A  A$lcc950010$731                    draw
     00000B9C  A$lcc950010$732                    draw
     00000B9E  A$lcc950010$733                    draw
     00000B9F  A$lcc950010$734                    draw
     00000BA0  A$lcc950010$735                    draw
     00000BA1  A$lcc950010$736                    draw
     00000BA3  A$lcc950010$737                    draw
     00000BA4  A$lcc950010$739                    draw
     00000BA6  A$lcc950010$740                    draw
     00000BA7  A$lcc950010$741                    draw
     00000BA8  A$lcc950010$742                    draw
     00000BA9  A$lcc950010$743                    draw
     00000BAA  A$lcc950010$744                    draw
     00000BAB  A$lcc950010$745                    draw
     00000BAD  A$lcc950010$746                    draw
     00000BAE  A$lcc950010$747                    draw
     00000BB0  A$lcc950010$748                    draw
     00000BB2  A$lcc950010$750                    draw
     00000BB4  A$lcc950010$751                    draw
     00000BB6  A$lcc950010$752                    draw
     00000BB7  A$lcc950010$753                    draw
     00000BB9  A$lcc950010$754                    draw
     00000BBA  A$lcc950010$755                    draw
     00000BBC  A$lcc950010$756                    draw
     00000BBD  A$lcc950010$757                    draw
     00000BBE  A$lcc950010$758                    draw
     00000BC1  A$lcc950010$759                    draw
     00000BC2  A$lcc950010$760                    draw
     00000BC3  A$lcc950010$761                    draw
     00000BC4  A$lcc950010$762                    draw
     00000BC6  A$lcc950010$763                    draw
     00000BC7  A$lcc950010$764                    draw
ASxxxx Linker V03.00/V05.40 + sdld,  page 32.
Hexadecimal  [32-Bits]

Area                                    Addr        Size        Decimal Bytes (Attributes)
--------------------------------        ----        ----        ------- ----- ------------
_CODE                               00000200    00000FC1 =        4033. bytes (REL,CON)

      Value  Global                              Global Defined In Module
      -----  --------------------------------   ------------------------
     00000BC8  A$lcc950010$765                    draw
     00000BC9  A$lcc950010$766                    draw
     00000BCB  A$lcc950010$768                    draw
     00000BCC  A$lcc950010$769                    draw
     00000BCD  A$lcc950010$770                    draw
     00000BCE  A$lcc950010$771                    draw
     00000BCF  A$lcc950010$772                    draw
     00000BD0  A$lcc950010$773                    draw
     00000BD1  A$lcc950010$774                    draw
     00000BD2  A$lcc950010$775                    draw
     00000BD3  A$lcc950010$776                    draw
     00000BD4  A$lcc950010$777                    draw
     00000BD5  A$lcc950010$778                    draw
     00000BD6  A$lcc950010$779                    draw
     00000BD7  A$lcc950010$780                    draw
     00000BD8  A$lcc950010$781                    draw
     00000BD9  A$lcc950010$782                    draw
     00000BDA  A$lcc950010$783                    draw
     00000BDB  A$lcc950010$784                    draw
     00000BDC  A$lcc950010$785                    draw
     00000BDD  A$lcc950010$786                    draw
     00000BDE  A$lcc950010$787                    draw
     00000BE0  A$lcc950010$789                    draw
     00000BE1  A$lcc950010$790                    draw
     00000BE2  A$lcc950010$791                    draw
     00000BE3  A$lcc950010$793                    draw
     00000BE5  A$lcc950010$794                    draw
     00000BE6  A$lcc950010$795                    draw
     00000BE7  A$lcc950010$796                    draw
     00000BE8  A$lcc950010$797                    draw
     00000BE9  A$lcc950010$798                    draw
     00000BEA  A$lcc950010$799                    draw
     00000BEC  A$lcc950010$800                    draw
     00000BED  A$lcc950010$801                    draw
     00000BEF  A$lcc950010$802                    draw
     00000BF1  A$lcc950010$804                    draw
     00000BF3  A$lcc950010$805                    draw
     00000BF5  A$lcc950010$806                    draw
     00000BF6  A$lcc950010$807                    draw
     00000BF8  A$lcc950010$808                    draw
     00000BF9  A$lcc950010$809                    draw
     00000BFB  A$lcc950010$810                    draw
     00000BFC  A$lcc950010$811                    draw
     00000BFD  A$lcc950010$812                    draw
     00000C00  A$lcc950010$813                    draw
     00000C01  A$lcc950010$814                    draw
     00000C02  A$lcc950010$815                    draw
     00000C03  A$lcc950010$816                    draw
     00000C05  A$lcc950010$817                    draw
     00000C06  A$lcc950010$818                    draw
     00000C07  A$lcc950010$819                    draw
ASxxxx Linker V03.00/V05.40 + sdld,  page 33.
Hexadecimal  [32-Bits]

Area                                    Addr        Size        Decimal Bytes (Attributes)
--------------------------------        ----        ----        ------- ----- ------------
_CODE                               00000200    00000FC1 =        4033. bytes (REL,CON)

      Value  Global                              Global Defined In Module
      -----  --------------------------------   ------------------------
     00000C08  A$lcc950010$820                    draw
     00000C0A  A$lcc950010$822                    draw
     00000C0B  A$lcc950010$823                    draw
     00000C0C  A$lcc950010$824                    draw
     00000C0D  A$lcc950010$825                    draw
     00000C0E  A$lcc950010$826                    draw
     00000C10  A$lcc950010$827                    draw
     00000C11  A$lcc950010$828                    draw
     00000C12  A$lcc950010$829                    draw
     00000C14  A$lcc950010$830                    draw
     00000C15  A$lcc950010$831                    draw
     00000C16  A$lcc950010$832                    draw
     00000C17  A$lcc950010$833                    draw
     00000C18  A$lcc950010$834                    draw
     00000C19  A$lcc950010$835                    draw
     00000C1A  A$lcc950010$836                    draw
     00000C1B  A$lcc950010$837                    draw
     00000C1C  A$lcc950010$838                    draw
     00000C1E  A$lcc950010$839                    draw
     00000C1F  A$lcc950010$840                    draw
     00000C20  A$lcc950010$841                    draw
     00000C21  A$lcc950010$842                    draw
     00000C23  A$lcc950010$843                    draw
     00000C24  A$lcc950010$844                    draw
     00000C25  A$lcc950010$845                    draw
     00000C26  A$lcc950010$846                    draw
     00000C27  A$lcc950010$847                    draw
     00000C28  A$lcc950010$848                    draw
     00000C29  A$lcc950010$849                    draw
     00000C2A  A$lcc950010$850                    draw
     00000C2B  A$lcc950010$858                    draw
     00000C2B  C$draw.c$46$2_0$135                draw
     00000C2D  A$lcc950010$863                    draw
     00000C2D  C$draw.c$48$2_0$135                draw
     00000C2D  XG$draw_actor$0$0                  draw
     00000C2E  A$lcc950011$59                     entity
     00000C2E  C$entity.c$7$0_0$2                 entity
     00000C2E  C$entity.c$9$1_0$2                 entity
     00000C2E  G$create_entity$0$0                entity
     00000C2E  _create_entity                     entity
     00000C31  A$lcc950011$60                     entity
     00000C32  A$lcc950011$61                     entity
     00000C35  A$lcc950011$62                     entity
     00000C36  A$lcc950011$63                     entity
     00000C37  A$lcc950011$64                     entity
     00000C38  A$lcc950011$65                     entity
     00000C39  A$lcc950011$66                     entity
     00000C3A  A$lcc950011$67                     entity
     00000C3B  A$lcc950011$75                     entity
     00000C3B  C$entity.c$10$1_0$2                entity
     00000C3B  XG$create_entity$0$0               entity
ASxxxx Linker V03.00/V05.40 + sdld,  page 34.
Hexadecimal  [32-Bits]

Area                                    Addr        Size        Decimal Bytes (Attributes)
--------------------------------        ----        ----        ------- ----- ------------
_CODE                               00000200    00000FC1 =        4033. bytes (REL,CON)

      Value  Global                              Global Defined In Module
      -----  --------------------------------   ------------------------
     00000C3C  A$lcc950012$58                     load
     00000C3C  C$load.c$8$0_0$131                 load
     00000C3C  G$load_actor_tiles$0$0             load
     00000C3C  _load_actor_tiles                  load
     00000C3E  A$lcc950012$59                     load
     00000C40  A$lcc950012$60                     load
     00000C41  A$lcc950012$61                     load
     00000C42  A$lcc950012$62                     load
     00000C43  A$lcc950012$66                     load
     00000C43  C$load.c$9$2_0$131                 load
     00000C46  A$lcc950012$67                     load
     00000C48  A$lcc950012$68                     load
     00000C49  A$lcc950012$72                     load
     00000C49  C$load.c$12$1_0$131                load
     00000C4B  A$lcc950012$73                     load
     00000C4D  A$lcc950012$75                     load
     00000C4F  A$lcc950012$76                     load
     00000C50  A$lcc950012$77                     load
     00000C52  A$lcc950012$78                     load
     00000C53  A$lcc950012$79                     load
     00000C55  A$lcc950012$83                     load
     00000C55  C$load.c$13$3_0$133                load
     00000C57  A$lcc950012$84                     load
     00000C58  A$lcc950012$85                     load
     00000C59  A$lcc950012$86                     load
     00000C5A  A$lcc950012$87                     load
     00000C5B  A$lcc950012$88                     load
     00000C5C  A$lcc950012$89                     load
     00000C5D  A$lcc950012$90                     load
     00000C5E  A$lcc950012$91                     load
     00000C5F  A$lcc950012$92                     load
     00000C60  A$lcc950012$93                     load
     00000C62  A$lcc950012$94                     load
     00000C63  A$lcc950012$95                     load
     00000C64  A$lcc950012$96                     load
     00000C65  A$lcc950012$97                     load
     00000C66  A$lcc950012$98                     load
     00000C68  A$lcc950012$99                     load
     00000C69  A$lcc950012$100                    load
     00000C6B  A$lcc950012$101                    load
     00000C6C  A$lcc950012$102                    load
     00000C6E  A$lcc950012$103                    load
     00000C6F  A$lcc950012$104                    load
     00000C70  A$lcc950012$105                    load
     00000C71  A$lcc950012$106                    load
     00000C72  A$lcc950012$107                    load
     00000C74  A$lcc950012$108                    load
     00000C75  A$lcc950012$109                    load
     00000C76  A$lcc950012$110                    load
     00000C77  A$lcc950012$111                    load
     00000C78  A$lcc950012$112                    load
ASxxxx Linker V03.00/V05.40 + sdld,  page 35.
Hexadecimal  [32-Bits]

Area                                    Addr        Size        Decimal Bytes (Attributes)
--------------------------------        ----        ----        ------- ----- ------------
_CODE                               00000200    00000FC1 =        4033. bytes (REL,CON)

      Value  Global                              Global Defined In Module
      -----  --------------------------------   ------------------------
     00000C7B  A$lcc950012$113                    load
     00000C7D  A$lcc950012$117                    load
     00000C7D  C$load.c$12$2_0$132                load
     00000C7F  A$lcc950012$118                    load
     00000C80  A$lcc950012$119                    load
     00000C82  A$lcc950012$124                    load
     00000C82  C$load.c$17$1_0$131                load
     00000C85  A$lcc950012$125                    load
     00000C87  A$lcc950012$126                    load
     00000C88  A$lcc950012$127                    load
     00000C89  A$lcc950012$128                    load
     00000C8A  A$lcc950012$129                    load
     00000C8B  A$lcc950012$130                    load
     00000C8C  A$lcc950012$131                    load
     00000C8D  A$lcc950012$132                    load
     00000C8F  A$lcc950012$133                    load
     00000C90  A$lcc950012$134                    load
     00000C91  A$lcc950012$138                    load
     00000C91  C$load.c$18$1_0$131                load
     00000C94  A$lcc950012$139                    load
     00000C96  A$lcc950012$140                    load
     00000C97  A$lcc950012$141                    load
     00000C98  A$lcc950012$142                    load
     00000C99  A$lcc950012$143                    load
     00000C9A  A$lcc950012$144                    load
     00000C9B  A$lcc950012$145                    load
     00000C9C  A$lcc950012$146                    load
     00000C9E  A$lcc950012$147                    load
     00000C9F  A$lcc950012$148                    load
     00000CA0  A$lcc950012$149                    load
     00000CA1  A$lcc950012$150                    load
     00000CA3  A$lcc950012$151                    load
     00000CA4  A$lcc950012$152                    load
     00000CA5  A$lcc950012$153                    load
     00000CA6  A$lcc950012$154                    load
     00000CA7  A$lcc950012$155                    load
     00000CA9  A$lcc950012$156                    load
     00000CAA  A$lcc950012$157                    load
     00000CAB  A$lcc950012$161                    load
     00000CAB  C$load.c$21$1_0$131                load
     00000CAE  A$lcc950012$162                    load
     00000CB0  A$lcc950012$163                    load
     00000CB1  A$lcc950012$164                    load
     00000CB4  A$lcc950012$168                    load
     00000CB4  C$load.c$23$1_0$131                load
     00000CB6  A$lcc950012$169                    load
     00000CB7  A$lcc950012$173                    load
     00000CB7  C$load.c$24$1_0$131                load
     00000CB9  A$lcc950012$174                    load
     00000CBA  A$lcc950012$175                    load
     00000CBB  A$lcc950012$176                    load
ASxxxx Linker V03.00/V05.40 + sdld,  page 36.
Hexadecimal  [32-Bits]

Area                                    Addr        Size        Decimal Bytes (Attributes)
--------------------------------        ----        ----        ------- ----- ------------
_CODE                               00000200    00000FC1 =        4033. bytes (REL,CON)

      Value  Global                              Global Defined In Module
      -----  --------------------------------   ------------------------
     00000CBC  A$lcc950012$189                    load
     00000CBC  C$load.c$26$1_0$135                load
     00000CBC  C$load.c$27$3_0$137                load
     00000CBC  G$reset_render_component$0$0       load
     00000CBC  _reset_render_component            load
     00000CBF  A$lcc950012$191                    load
     00000CC2  A$lcc950012$192                    load
     00000CC3  A$lcc950012$193                    load
     00000CC4  A$lcc950012$194                    load
     00000CC5  A$lcc950012$195                    load
     00000CC6  A$lcc950012$196                    load
     00000CC7  A$lcc950012$197                    load
     00000CC9  A$lcc950012$201                    load
     00000CC9  C$load.c$28$3_0$137                load
     00000CCC  A$lcc950012$202                    load
     00000CCD  A$lcc950012$203                    load
     00000CCF  A$lcc950012$207                    load
     00000CCF  C$load.c$29$3_0$137                load
     00000CD2  A$lcc950012$208                    load
     00000CD3  A$lcc950012$209                    load
     00000CD5  A$lcc950012$213                    load
     00000CD5  C$load.c$27$2_0$136                load
     00000CD6  A$lcc950012$214                    load
     00000CD8  A$lcc950012$219                    load
     00000CD8  C$load.c$32$1_0$135                load
     00000CD9  A$lcc950012$220                    load
     00000CDC  A$lcc950012$228                    load
     00000CDC  C$load.c$33$1_0$135                load
     00000CDC  XG$reset_render_component$0$0      load
     00000CDD  A$lcc950013$62                     player
     00000CDD  C$player.c$6$0_0$135               player
     00000CDD  G$init_player$0$0                  player
     00000CDD  _init_player                       player
     00000CDF  A$lcc950013$66                     player
     00000CDF  C$player.c$8$1_0$135               player
     00000CE2  A$lcc950013$67                     player
     00000CE5  A$lcc950013$68                     player
     00000CE6  A$lcc950013$69                     player
     00000CE7  A$lcc950013$70                     player
     00000CE8  A$lcc950013$74                     player
     00000CE8  C$player.c$10$1_0$135              player
     00000CEB  A$lcc950013$75                     player
     00000CEC  A$lcc950013$76                     player
     00000CED  A$lcc950013$77                     player
     00000CEE  A$lcc950013$78                     player
     00000CEF  A$lcc950013$79                     player
     00000CF1  A$lcc950013$83                     player
     00000CF1  C$player.c$11$1_0$135              player
     00000CF4  A$lcc950013$84                     player
     00000CF7  A$lcc950013$85                     player
     00000CF8  A$lcc950013$86                     player
ASxxxx Linker V03.00/V05.40 + sdld,  page 37.
Hexadecimal  [32-Bits]

Area                                    Addr        Size        Decimal Bytes (Attributes)
--------------------------------        ----        ----        ------- ----- ------------
_CODE                               00000200    00000FC1 =        4033. bytes (REL,CON)

      Value  Global                              Global Defined In Module
      -----  --------------------------------   ------------------------
     00000CF9  A$lcc950013$87                     player
     00000CFC  A$lcc950013$88                     player
     00000CFD  A$lcc950013$89                     player
     00000CFF  A$lcc950013$93                     player
     00000CFF  C$player.c$13$1_0$135              player
     00000D02  A$lcc950013$94                     player
     00000D05  A$lcc950013$95                     player
     00000D06  A$lcc950013$96                     player
     00000D07  A$lcc950013$97                     player
     00000D08  A$lcc950013$98                     player
     00000D0A  A$lcc950013$99                     player
     00000D0C  A$lcc950013$100                    player
     00000D0D  A$lcc950013$101                    player
     00000D0E  A$lcc950013$102                    player
     00000D10  A$lcc950013$103                    player
     00000D11  A$lcc950013$104                    player
     00000D12  A$lcc950013$105                    player
     00000D15  A$lcc950013$106                    player
     00000D16  A$lcc950013$107                    player
     00000D17  A$lcc950013$108                    player
     00000D18  A$lcc950013$109                    player
     00000D19  A$lcc950013$110                    player
     00000D1A  A$lcc950013$111                    player
     00000D1B  A$lcc950013$112                    player
     00000D1C  A$lcc950013$113                    player
     00000D1D  A$lcc950013$117                    player
     00000D1D  C$player.c$14$1_0$135              player
     00000D20  A$lcc950013$118                    player
     00000D23  A$lcc950013$119                    player
     00000D24  A$lcc950013$120                    player
     00000D25  A$lcc950013$121                    player
     00000D26  A$lcc950013$122                    player
     00000D28  A$lcc950013$123                    player
     00000D2A  A$lcc950013$124                    player
     00000D2B  A$lcc950013$125                    player
     00000D2C  A$lcc950013$126                    player
     00000D2E  A$lcc950013$127                    player
     00000D2F  A$lcc950013$128                    player
     00000D30  A$lcc950013$129                    player
     00000D33  A$lcc950013$130                    player
     00000D34  A$lcc950013$131                    player
     00000D37  A$lcc950013$132                    player
     00000D38  A$lcc950013$133                    player
     00000D39  A$lcc950013$134                    player
     00000D3A  A$lcc950013$135                    player
     00000D3B  A$lcc950013$136                    player
     00000D3C  A$lcc950013$137                    player
     00000D3D  A$lcc950013$138                    player
     00000D3E  A$lcc950013$142                    player
     00000D3E  C$player.c$16$1_0$135              player
     00000D41  A$lcc950013$143                    player
ASxxxx Linker V03.00/V05.40 + sdld,  page 38.
Hexadecimal  [32-Bits]

Area                                    Addr        Size        Decimal Bytes (Attributes)
--------------------------------        ----        ----        ------- ----- ------------
_CODE                               00000200    00000FC1 =        4033. bytes (REL,CON)

      Value  Global                              Global Defined In Module
      -----  --------------------------------   ------------------------
     00000D44  A$lcc950013$144                    player
     00000D47  A$lcc950013$145                    player
     00000D48  A$lcc950013$146                    player
     00000D49  A$lcc950013$147                    player
     00000D4A  A$lcc950013$148                    player
     00000D4C  A$lcc950013$152                    player
     00000D4C  C$player.c$17$1_0$135              player
     00000D4F  A$lcc950013$153                    player
     00000D52  A$lcc950013$154                    player
     00000D53  A$lcc950013$155                    player
     00000D54  A$lcc950013$156                    player
     00000D57  A$lcc950013$157                    player
     00000D58  A$lcc950013$158                    player
     00000D5A  A$lcc950013$162                    player
     00000D5A  C$player.c$18$1_0$135              player
     00000D5B  A$lcc950013$163                    player
     00000D5E  A$lcc950013$164                    player
     00000D61  A$lcc950013$165                    player
     00000D62  A$lcc950013$166                    player
     00000D63  A$lcc950013$167                    player
     00000D64  A$lcc950013$168                    player
     00000D66  A$lcc950013$172                    player
     00000D66  C$player.c$21$2_0$136              player
     00000D68  A$lcc950013$173                    player
     00000D6A  A$lcc950013$174                    player
     00000D6B  A$lcc950013$175                    player
     00000D6D  A$lcc950013$176                    player
     00000D6E  A$lcc950013$177                    player
     00000D70  A$lcc950013$178                    player
     00000D71  A$lcc950013$179                    player
     00000D73  A$lcc950013$180                    player
     00000D74  A$lcc950013$181                    player
     00000D76  A$lcc950013$182                    player
     00000D77  A$lcc950013$183                    player
     00000D79  A$lcc950013$184                    player
     00000D7A  A$lcc950013$185                    player
     00000D7D  A$lcc950013$186                    player
     00000D7E  A$lcc950013$187                    player
     00000D7F  A$lcc950013$188                    player
     00000D80  A$lcc950013$192                    player
     00000D80  C$player.c$27$2_0$136              player
     00000D81  A$lcc950013$193                    player
     00000D83  A$lcc950013$194                    player
     00000D84  A$lcc950013$195                    player
     00000D86  A$lcc950013$196                    player
     00000D87  A$lcc950013$197                    player
     00000D89  A$lcc950013$198                    player
     00000D8A  A$lcc950013$199                    player
     00000D8C  A$lcc950013$200                    player
     00000D8D  A$lcc950013$201                    player
     00000D8F  A$lcc950013$202                    player
ASxxxx Linker V03.00/V05.40 + sdld,  page 39.
Hexadecimal  [32-Bits]

Area                                    Addr        Size        Decimal Bytes (Attributes)
--------------------------------        ----        ----        ------- ----- ------------
_CODE                               00000200    00000FC1 =        4033. bytes (REL,CON)

      Value  Global                              Global Defined In Module
      -----  --------------------------------   ------------------------
     00000D90  A$lcc950013$203                    player
     00000D92  A$lcc950013$204                    player
     00000D93  A$lcc950013$205                    player
     00000D95  A$lcc950013$206                    player
     00000D96  A$lcc950013$207                    player
     00000D98  A$lcc950013$208                    player
     00000D99  A$lcc950013$209                    player
     00000D9B  A$lcc950013$210                    player
     00000D9C  A$lcc950013$211                    player
     00000D9E  A$lcc950013$212                    player
     00000D9F  A$lcc950013$213                    player
     00000DA1  A$lcc950013$214                    player
     00000DA2  A$lcc950013$215                    player
     00000DA4  A$lcc950013$216                    player
     00000DA5  A$lcc950013$217                    player
     00000DA7  A$lcc950013$218                    player
     00000DA8  A$lcc950013$219                    player
     00000DAA  A$lcc950013$220                    player
     00000DAB  A$lcc950013$221                    player
     00000DAC  A$lcc950013$222                    player
     00000DAD  A$lcc950013$223                    player
     00000DAE  A$lcc950013$224                    player
     00000DAF  A$lcc950013$225                    player
     00000DB1  A$lcc950013$226                    player
     00000DB2  A$lcc950013$227                    player
     00000DB4  A$lcc950013$228                    player
     00000DB5  A$lcc950013$229                    player
     00000DB7  A$lcc950013$230                    player
     00000DB8  A$lcc950013$231                    player
     00000DBA  A$lcc950013$232                    player
     00000DBB  A$lcc950013$233                    player
     00000DBD  A$lcc950013$234                    player
     00000DBE  A$lcc950013$235                    player
     00000DC0  A$lcc950013$236                    player
     00000DC1  A$lcc950013$237                    player
     00000DC3  A$lcc950013$238                    player
     00000DC4  A$lcc950013$239                    player
     00000DC6  A$lcc950013$240                    player
     00000DC7  A$lcc950013$241                    player
     00000DC9  A$lcc950013$242                    player
     00000DCA  A$lcc950013$243                    player
     00000DCC  A$lcc950013$244                    player
     00000DCD  A$lcc950013$245                    player
     00000DCF  A$lcc950013$246                    player
     00000DD0  A$lcc950013$247                    player
     00000DD2  A$lcc950013$248                    player
     00000DD3  A$lcc950013$249                    player
     00000DD5  A$lcc950013$250                    player
     00000DD6  A$lcc950013$251                    player
     00000DD8  A$lcc950013$252                    player
     00000DD9  A$lcc950013$253                    player
ASxxxx Linker V03.00/V05.40 + sdld,  page 40.
Hexadecimal  [32-Bits]

Area                                    Addr        Size        Decimal Bytes (Attributes)
--------------------------------        ----        ----        ------- ----- ------------
_CODE                               00000200    00000FC1 =        4033. bytes (REL,CON)

      Value  Global                              Global Defined In Module
      -----  --------------------------------   ------------------------
     00000DDA  A$lcc950013$254                    player
     00000DDB  A$lcc950013$255                    player
     00000DDC  A$lcc950013$259                    player
     00000DDC  C$player.c$50$2_0$136              player
     00000DDD  A$lcc950013$260                    player
     00000DDF  A$lcc950013$261                    player
     00000DE0  A$lcc950013$262                    player
     00000DE2  A$lcc950013$263                    player
     00000DE3  A$lcc950013$264                    player
     00000DE5  A$lcc950013$265                    player
     00000DE6  A$lcc950013$266                    player
     00000DE8  A$lcc950013$267                    player
     00000DE9  A$lcc950013$268                    player
     00000DEB  A$lcc950013$269                    player
     00000DEC  A$lcc950013$270                    player
     00000DEE  A$lcc950013$271                    player
     00000DEF  A$lcc950013$272                    player
     00000DF2  A$lcc950013$273                    player
     00000DF3  A$lcc950013$274                    player
     00000DF4  A$lcc950013$275                    player
     00000DF5  A$lcc950013$279                    player
     00000DF5  C$player.c$56$2_0$136              player
     00000DF6  A$lcc950013$280                    player
     00000DF8  A$lcc950013$281                    player
     00000DF9  A$lcc950013$282                    player
     00000DFB  A$lcc950013$283                    player
     00000DFC  A$lcc950013$284                    player
     00000DFE  A$lcc950013$285                    player
     00000DFF  A$lcc950013$286                    player
     00000E01  A$lcc950013$287                    player
     00000E02  A$lcc950013$288                    player
     00000E04  A$lcc950013$289                    player
     00000E05  A$lcc950013$290                    player
     00000E07  A$lcc950013$291                    player
     00000E08  A$lcc950013$292                    player
     00000E0A  A$lcc950013$293                    player
     00000E0B  A$lcc950013$294                    player
     00000E0D  A$lcc950013$295                    player
     00000E0E  A$lcc950013$296                    player
     00000E10  A$lcc950013$297                    player
     00000E11  A$lcc950013$298                    player
     00000E13  A$lcc950013$299                    player
     00000E14  A$lcc950013$300                    player
     00000E16  A$lcc950013$301                    player
     00000E17  A$lcc950013$302                    player
     00000E19  A$lcc950013$303                    player
     00000E1A  A$lcc950013$304                    player
     00000E1C  A$lcc950013$305                    player
     00000E1D  A$lcc950013$306                    player
     00000E1F  A$lcc950013$307                    player
     00000E20  A$lcc950013$308                    player
ASxxxx Linker V03.00/V05.40 + sdld,  page 41.
Hexadecimal  [32-Bits]

Area                                    Addr        Size        Decimal Bytes (Attributes)
--------------------------------        ----        ----        ------- ----- ------------
_CODE                               00000200    00000FC1 =        4033. bytes (REL,CON)

      Value  Global                              Global Defined In Module
      -----  --------------------------------   ------------------------
     00000E21  A$lcc950013$309                    player
     00000E22  A$lcc950013$310                    player
     00000E23  A$lcc950013$311                    player
     00000E24  A$lcc950013$312                    player
     00000E26  A$lcc950013$313                    player
     00000E27  A$lcc950013$314                    player
     00000E29  A$lcc950013$315                    player
     00000E2A  A$lcc950013$316                    player
     00000E2C  A$lcc950013$317                    player
     00000E2D  A$lcc950013$318                    player
     00000E2F  A$lcc950013$319                    player
     00000E30  A$lcc950013$320                    player
     00000E32  A$lcc950013$321                    player
     00000E33  A$lcc950013$322                    player
     00000E35  A$lcc950013$323                    player
     00000E36  A$lcc950013$324                    player
     00000E38  A$lcc950013$325                    player
     00000E39  A$lcc950013$326                    player
     00000E3B  A$lcc950013$327                    player
     00000E3C  A$lcc950013$328                    player
     00000E3E  A$lcc950013$329                    player
     00000E3F  A$lcc950013$330                    player
     00000E41  A$lcc950013$331                    player
     00000E42  A$lcc950013$332                    player
     00000E44  A$lcc950013$333                    player
     00000E45  A$lcc950013$334                    player
     00000E47  A$lcc950013$335                    player
     00000E48  A$lcc950013$336                    player
     00000E4A  A$lcc950013$337                    player
     00000E4B  A$lcc950013$338                    player
     00000E4D  A$lcc950013$339                    player
     00000E4E  A$lcc950013$340                    player
     00000E4F  A$lcc950013$341                    player
     00000E50  A$lcc950013$342                    player
     00000E51  A$lcc950013$346                    player
     00000E51  C$player.c$78$1_1$136              player
     00000E54  A$lcc950013$347                    player
     00000E55  A$lcc950013$348                    player
     00000E56  A$lcc950013$349                    player
     00000E57  A$lcc950013$350                    player
     00000E58  A$lcc950013$351                    player
     00000E59  A$lcc950013$352                    player
     00000E5A  A$lcc950013$353                    player
     00000E5B  A$lcc950013$354                    player
     00000E5C  A$lcc950013$355                    player
     00000E5D  A$lcc950013$356                    player
     00000E5E  A$lcc950013$357                    player
     00000E5F  A$lcc950013$358                    player
     00000E60  A$lcc950013$359                    player
     00000E61  A$lcc950013$360                    player
     00000E64  A$lcc950013$361                    player
ASxxxx Linker V03.00/V05.40 + sdld,  page 42.
Hexadecimal  [32-Bits]

Area                                    Addr        Size        Decimal Bytes (Attributes)
--------------------------------        ----        ----        ------- ----- ------------
_CODE                               00000200    00000FC1 =        4033. bytes (REL,CON)

      Value  Global                              Global Defined In Module
      -----  --------------------------------   ------------------------
     00000E65  A$lcc950013$362                    player
     00000E66  A$lcc950013$363                    player
     00000E67  A$lcc950013$364                    player
     00000E6A  A$lcc950013$365                    player
     00000E6B  A$lcc950013$366                    player
     00000E6D  A$lcc950013$367                    player
     00000E6E  A$lcc950013$368                    player
     00000E6F  A$lcc950013$369                    player
     00000E72  A$lcc950013$370                    player
     00000E73  A$lcc950013$371                    player
     00000E74  A$lcc950013$372                    player
     00000E75  A$lcc950013$373                    player
     00000E76  A$lcc950013$374                    player
     00000E77  A$lcc950013$375                    player
     00000E7A  A$lcc950013$376                    player
     00000E7B  A$lcc950013$377                    player
     00000E7E  A$lcc950013$378                    player
     00000E7F  A$lcc950013$379                    player
     00000E82  A$lcc950013$383                    player
     00000E82  C$player.c$79$1_1$136              player
     00000E85  A$lcc950013$384                    player
     00000E86  A$lcc950013$385                    player
     00000E87  A$lcc950013$386                    player
     00000E88  A$lcc950013$387                    player
     00000E89  A$lcc950013$388                    player
     00000E8A  A$lcc950013$389                    player
     00000E8B  A$lcc950013$390                    player
     00000E8C  A$lcc950013$391                    player
     00000E8D  A$lcc950013$392                    player
     00000E8E  A$lcc950013$393                    player
     00000E8F  A$lcc950013$394                    player
     00000E90  A$lcc950013$395                    player
     00000E91  A$lcc950013$396                    player
     00000E92  A$lcc950013$397                    player
     00000E95  A$lcc950013$398                    player
     00000E96  A$lcc950013$399                    player
     00000E97  A$lcc950013$400                    player
     00000E98  A$lcc950013$401                    player
     00000E9B  A$lcc950013$402                    player
     00000E9C  A$lcc950013$403                    player
     00000E9E  A$lcc950013$404                    player
     00000E9F  A$lcc950013$405                    player
     00000EA0  A$lcc950013$406                    player
     00000EA3  A$lcc950013$407                    player
     00000EA4  A$lcc950013$408                    player
     00000EA5  A$lcc950013$409                    player
     00000EA7  A$lcc950013$410                    player
     00000EA8  A$lcc950013$411                    player
     00000EA9  A$lcc950013$412                    player
     00000EAC  A$lcc950013$413                    player
     00000EAD  A$lcc950013$414                    player
ASxxxx Linker V03.00/V05.40 + sdld,  page 43.
Hexadecimal  [32-Bits]

Area                                    Addr        Size        Decimal Bytes (Attributes)
--------------------------------        ----        ----        ------- ----- ------------
_CODE                               00000200    00000FC1 =        4033. bytes (REL,CON)

      Value  Global                              Global Defined In Module
      -----  --------------------------------   ------------------------
     00000EB0  A$lcc950013$415                    player
     00000EB1  A$lcc950013$416                    player
     00000EB4  A$lcc950013$420                    player
     00000EB4  C$player.c$80$1_1$136              player
     00000EB7  A$lcc950013$421                    player
     00000EB8  A$lcc950013$422                    player
     00000EB9  A$lcc950013$423                    player
     00000EBA  A$lcc950013$424                    player
     00000EBB  A$lcc950013$425                    player
     00000EBC  A$lcc950013$426                    player
     00000EBD  A$lcc950013$427                    player
     00000EBE  A$lcc950013$428                    player
     00000EBF  A$lcc950013$429                    player
     00000EC0  A$lcc950013$430                    player
     00000EC1  A$lcc950013$431                    player
     00000EC2  A$lcc950013$432                    player
     00000EC3  A$lcc950013$433                    player
     00000EC4  A$lcc950013$434                    player
     00000EC7  A$lcc950013$435                    player
     00000EC8  A$lcc950013$436                    player
     00000EC9  A$lcc950013$437                    player
     00000ECA  A$lcc950013$438                    player
     00000ECD  A$lcc950013$439                    player
     00000ECE  A$lcc950013$440                    player
     00000ED0  A$lcc950013$441                    player
     00000ED1  A$lcc950013$442                    player
     00000ED2  A$lcc950013$443                    player
     00000ED5  A$lcc950013$444                    player
     00000ED6  A$lcc950013$445                    player
     00000ED7  A$lcc950013$446                    player
     00000ED9  A$lcc950013$447                    player
     00000EDA  A$lcc950013$448                    player
     00000EDB  A$lcc950013$449                    player
     00000EDE  A$lcc950013$450                    player
     00000EDF  A$lcc950013$451                    player
     00000EE2  A$lcc950013$452                    player
     00000EE3  A$lcc950013$453                    player
     00000EE6  A$lcc950013$457                    player
     00000EE6  C$player.c$81$1_1$136              player
     00000EE9  A$lcc950013$458                    player
     00000EEA  A$lcc950013$459                    player
     00000EEB  A$lcc950013$460                    player
     00000EEC  A$lcc950013$461                    player
     00000EED  A$lcc950013$462                    player
     00000EEE  A$lcc950013$463                    player
     00000EEF  A$lcc950013$464                    player
     00000EF0  A$lcc950013$465                    player
     00000EF1  A$lcc950013$466                    player
     00000EF2  A$lcc950013$467                    player
     00000EF3  A$lcc950013$468                    player
     00000EF4  A$lcc950013$469                    player
ASxxxx Linker V03.00/V05.40 + sdld,  page 44.
Hexadecimal  [32-Bits]

Area                                    Addr        Size        Decimal Bytes (Attributes)
--------------------------------        ----        ----        ------- ----- ------------
_CODE                               00000200    00000FC1 =        4033. bytes (REL,CON)

      Value  Global                              Global Defined In Module
      -----  --------------------------------   ------------------------
     00000EF5  A$lcc950013$470                    player
     00000EF6  A$lcc950013$471                    player
     00000EF9  A$lcc950013$472                    player
     00000EFA  A$lcc950013$473                    player
     00000EFB  A$lcc950013$474                    player
     00000EFC  A$lcc950013$475                    player
     00000EFF  A$lcc950013$476                    player
     00000F00  A$lcc950013$477                    player
     00000F02  A$lcc950013$478                    player
     00000F03  A$lcc950013$479                    player
     00000F04  A$lcc950013$480                    player
     00000F07  A$lcc950013$481                    player
     00000F08  A$lcc950013$482                    player
     00000F09  A$lcc950013$483                    player
     00000F0B  A$lcc950013$484                    player
     00000F0C  A$lcc950013$485                    player
     00000F0D  A$lcc950013$486                    player
     00000F10  A$lcc950013$487                    player
     00000F11  A$lcc950013$488                    player
     00000F14  A$lcc950013$489                    player
     00000F15  A$lcc950013$490                    player
     00000F18  A$lcc950013$494                    player
     00000F18  C$player.c$83$1_1$136              player
     00000F1B  A$lcc950013$498                    player
     00000F1B  C$player.c$84$1_1$136              player
     00000F1C  A$lcc950013$499                    player
     00000F1D  A$lcc950013$500                    player
     00000F1F  A$lcc950013$504                    player
     00000F1F  C$player.c$85$1_1$136              player
     00000F22  A$lcc950013$505                    player
     00000F24  A$lcc950013$509                    player
     00000F24  C$player.c$86$1_1$136              player
     00000F27  A$lcc950013$510                    player
     00000F29  A$lcc950013$514                    player
     00000F29  C$player.c$88$1_1$136              player
     00000F2C  A$lcc950013$518                    player
     00000F2E  A$lcc950013$523                    player
     00000F2E  C$player.c$89$1_1$135              player
     00000F2E  XG$init_player$0$0                 player
     00000F2F  A$lcc950015$59                     render
     00000F2F  C$render.c$5$0_0$129               render
     00000F2F  C$render.c$6$1_0$129               render
     00000F2F  G$render_reset$0$0                 render
     00000F2F  _render_reset                      render
     00000F32  A$lcc950015$60                     render
     00000F33  A$lcc950015$61                     render
     00000F35  A$lcc950015$65                     render
     00000F35  C$render.c$7$1_0$129               render
     00000F38  A$lcc950015$66                     render
     00000F39  A$lcc950015$67                     render
     00000F3B  A$lcc950015$75                     render
ASxxxx Linker V03.00/V05.40 + sdld,  page 45.
Hexadecimal  [32-Bits]

Area                                    Addr        Size        Decimal Bytes (Attributes)
--------------------------------        ----        ----        ------- ----- ------------
_CODE                               00000200    00000FC1 =        4033. bytes (REL,CON)

      Value  Global                              Global Defined In Module
      -----  --------------------------------   ------------------------
     00000F3B  C$render.c$8$1_0$129               render
     00000F3B  XG$render_reset$0$0                render
     00000F3C  A$lcc950016$61                     gender_select
     00000F3C  C$gender_select.c$6$0_0$27         gender_select
     00000F3C  C$gender_select.c$7$1_0$27         gender_select
     00000F3C  G$GenderSelect_Create$0$0          gender_select
     00000F3C  _GenderSelect_Create               gender_select
     00000F3F  A$lcc950016$62                     gender_select
     00000F41  A$lcc950016$63                     gender_select
     00000F42  A$lcc950016$64                     gender_select
     00000F44  A$lcc950016$68                     gender_select
     00000F44  C$gender_select.c$8$1_0$27         gender_select
     00000F45  A$lcc950016$69                     gender_select
     00000F47  A$lcc950016$70                     gender_select
     00000F48  A$lcc950016$74                     gender_select
     00000F48  C$gender_select.c$10$1_0$27        gender_select
     00000F4A  A$lcc950016$75                     gender_select
     00000F4B  A$lcc950016$76                     gender_select
     00000F4C  A$lcc950016$77                     gender_select
     00000F4D  A$lcc950016$78                     gender_select
     00000F4E  A$lcc950016$86                     gender_select
     00000F4E  C$gender_select.c$11$1_0$27        gender_select
     00000F4E  XG$GenderSelect_Create$0$0         gender_select
     00000F4F  A$lcc950017$58                     gender_select_init
     00000F4F  C$gender_select_init.c$11$1_0$15   gender_select_init
     00000F4F  C$gender_select_init.c$9$0_0$152   gender_select_init
     00000F4F  G$GenderSelect_Init$0$0            gender_select_init
     00000F4F  _GenderSelect_Init                 gender_select_init
     00000F50  A$lcc950017$59                     gender_select_init
     00000F53  A$lcc950017$60                     gender_select_init
     00000F56  A$lcc950017$61                     gender_select_init
     00000F57  A$lcc950017$62                     gender_select_init
     00000F58  A$lcc950017$63                     gender_select_init
     00000F59  A$lcc950017$67                     gender_select_init
     00000F59  C$gender_select_init.c$12$2_0$15   gender_select_init
     00000F5A  A$lcc950017$68                     gender_select_init
     00000F5B  A$lcc950017$72                     gender_select_init
     00000F5B  C$gender_select_init.c$13$2_0$15   gender_select_init
     00000F5C  A$lcc950017$76                     gender_select_init
     00000F5C  C$gender_select_init.c$15$1_0$15   gender_select_init
     00000F5D  A$lcc950017$77                     gender_select_init
     00000F5E  A$lcc950017$81                     gender_select_init
     00000F5E  C$gender_select_init.c$16$1_0$15   gender_select_init
     00000F61  A$lcc950017$82                     gender_select_init
     00000F62  A$lcc950017$83                     gender_select_init
     00000F63  A$lcc950017$84                     gender_select_init
     00000F64  A$lcc950017$85                     gender_select_init
     00000F65  A$lcc950017$89                     gender_select_init
     00000F65  C$gender_select_init.c$18$1_0$15   gender_select_init
     00000F68  A$lcc950017$90                     gender_select_init
     00000F69  A$lcc950017$91                     gender_select_init
ASxxxx Linker V03.00/V05.40 + sdld,  page 46.
Hexadecimal  [32-Bits]

Area                                    Addr        Size        Decimal Bytes (Attributes)
--------------------------------        ----        ----        ------- ----- ------------
_CODE                               00000200    00000FC1 =        4033. bytes (REL,CON)

      Value  Global                              Global Defined In Module
      -----  --------------------------------   ------------------------
     00000F6C  A$lcc950017$92                     gender_select_init
     00000F6D  A$lcc950017$93                     gender_select_init
     00000F70  A$lcc950017$94                     gender_select_init
     00000F72  A$lcc950017$98                     gender_select_init
     00000F72  C$gender_select_init.c$19$1_0$15   gender_select_init
     00000F75  A$lcc950017$99                     gender_select_init
     00000F76  A$lcc950017$100                    gender_select_init
     00000F79  A$lcc950017$101                    gender_select_init
     00000F7A  A$lcc950017$102                    gender_select_init
     00000F7B  A$lcc950017$103                    gender_select_init
     00000F7C  A$lcc950017$104                    gender_select_init
     00000F7D  A$lcc950017$105                    gender_select_init
     00000F80  A$lcc950017$106                    gender_select_init
     00000F82  A$lcc950017$114                    gender_select_init
     00000F82  C$gender_select_init.c$20$1_0$15   gender_select_init
     00000F82  XG$GenderSelect_Init$0$0           gender_select_init
     00000F83  A$lcc950018$62                     gender_select_update
     00000F83  C$gender_select_update.c$10$1_0$   gender_select_update
     00000F83  C$gender_select_update.c$11$1_0$   gender_select_update
     00000F83  C$gender_select_update.c$8$0_0$1   gender_select_update
     00000F83  G$GenderSelect_Update$0$0          gender_select_update
     00000F83  XG$GenderSelect_Update$0$0         gender_select_update
     00000F83  _GenderSelect_Update               gender_select_update
     00000F84  A$lcc950019$61                     map_00
     00000F84  C$map_00.c$6$0_0$27                map_00
     00000F84  C$map_00.c$7$1_0$27                map_00
     00000F84  G$Map_00_Create$0$0                map_00
     00000F84  _Map_00_Create                     map_00
     00000F87  A$lcc950019$62                     map_00
     00000F89  A$lcc950019$63                     map_00
     00000F8A  A$lcc950019$64                     map_00
     00000F8C  A$lcc950019$68                     map_00
     00000F8C  C$map_00.c$8$1_0$27                map_00
     00000F8D  A$lcc950019$69                     map_00
     00000F8F  A$lcc950019$70                     map_00
     00000F90  A$lcc950019$74                     map_00
     00000F90  C$map_00.c$10$1_0$27               map_00
     00000F92  A$lcc950019$75                     map_00
     00000F93  A$lcc950019$76                     map_00
     00000F94  A$lcc950019$77                     map_00
     00000F95  A$lcc950019$78                     map_00
     00000F96  A$lcc950019$86                     map_00
     00000F96  C$map_00.c$11$1_0$27               map_00
     00000F96  XG$Map_00_Create$0$0               map_00
     00000F97  A$lcc950020$55                     map_00_init
     00000F97  C$map_00_init.c$9$0_0$152          map_00_init
     00000F97  G$Map_00_Init$0$0                  map_00_init
     00000F97  _Map_00_Init                       map_00_init
     00000F98  A$lcc950020$59                     map_00_init
     00000F98  C$map_00_init.c$11$1_0$152         map_00_init
     00000F99  A$lcc950020$60                     map_00_init
ASxxxx Linker V03.00/V05.40 + sdld,  page 47.
Hexadecimal  [32-Bits]

Area                                    Addr        Size        Decimal Bytes (Attributes)
--------------------------------        ----        ----        ------- ----- ------------
_CODE                               00000200    00000FC1 =        4033. bytes (REL,CON)

      Value  Global                              Global Defined In Module
      -----  --------------------------------   ------------------------
     00000F9C  A$lcc950020$61                     map_00_init
     00000F9F  A$lcc950020$62                     map_00_init
     00000FA0  A$lcc950020$66                     map_00_init
     00000FA0  C$map_00_init.c$12$2_0$153         map_00_init
     00000FA1  A$lcc950020$67                     map_00_init
     00000FA2  A$lcc950020$71                     map_00_init
     00000FA2  C$map_00_init.c$13$2_0$153         map_00_init
     00000FA4  A$lcc950020$75                     map_00_init
     00000FA4  C$map_00_init.c$15$1_0$152         map_00_init
     00000FA5  A$lcc950020$76                     map_00_init
     00000FA6  A$lcc950020$77                     map_00_init
     00000FA7  A$lcc950020$78                     map_00_init
     00000FA9  A$lcc950020$79                     map_00_init
     00000FAA  A$lcc950020$80                     map_00_init
     00000FAB  A$lcc950020$81                     map_00_init
     00000FAC  A$lcc950020$82                     map_00_init
     00000FAD  A$lcc950020$83                     map_00_init
     00000FAE  A$lcc950020$84                     map_00_init
     00000FAF  A$lcc950020$88                     map_00_init
     00000FAF  C$map_00_init.c$16$1_0$152         map_00_init
     00000FB2  A$lcc950020$89                     map_00_init
     00000FB3  A$lcc950020$90                     map_00_init
     00000FB4  A$lcc950020$91                     map_00_init
     00000FB5  A$lcc950020$92                     map_00_init
     00000FB6  A$lcc950020$96                     map_00_init
     00000FB6  C$map_00_init.c$18$1_0$152         map_00_init
     00000FB9  A$lcc950020$97                     map_00_init
     00000FBA  A$lcc950020$98                     map_00_init
     00000FBD  A$lcc950020$99                     map_00_init
     00000FBE  A$lcc950020$100                    map_00_init
     00000FC1  A$lcc950020$101                    map_00_init
     00000FC3  A$lcc950020$105                    map_00_init
     00000FC3  C$map_00_init.c$19$1_0$152         map_00_init
     00000FC6  A$lcc950020$106                    map_00_init
     00000FC7  A$lcc950020$107                    map_00_init
     00000FCA  A$lcc950020$108                    map_00_init
     00000FCB  A$lcc950020$109                    map_00_init
     00000FCC  A$lcc950020$110                    map_00_init
     00000FCD  A$lcc950020$111                    map_00_init
     00000FCE  A$lcc950020$112                    map_00_init
     00000FD1  A$lcc950020$113                    map_00_init
     00000FD3  A$lcc950020$118                    map_00_init
     00000FD4  A$lcc950020$119                    map_00_init
     00000FD5  A$lcc950020$124                    map_00_init
     00000FD5  C$map_00_init.c$20$1_0$152         map_00_init
     00000FD5  XG$Map_00_Init$0$0                 map_00_init
     00000FD6  A$lcc950021$58                     map_00_update
     00000FD6  C$map_00_update.c$11$0_0$165       map_00_update
     00000FD6  C$map_00_update.c$13$1_0$165       map_00_update
     00000FD6  G$Map_00_Update$0$0                map_00_update
     00000FD6  _Map_00_Update                     map_00_update
ASxxxx Linker V03.00/V05.40 + sdld,  page 48.
Hexadecimal  [32-Bits]

Area                                    Addr        Size        Decimal Bytes (Attributes)
--------------------------------        ----        ----        ------- ----- ------------
_CODE                               00000200    00000FC1 =        4033. bytes (REL,CON)

      Value  Global                              Global Defined In Module
      -----  --------------------------------   ------------------------
     00000FD7  A$lcc950021$59                     map_00_update
     00000FDA  A$lcc950021$63                     map_00_update
     00000FDA  C$map_00_update.c$14$1_0$165       map_00_update
     00000FDD  A$lcc950021$64                     map_00_update
     00000FE0  A$lcc950021$65                     map_00_update
     00000FE1  A$lcc950021$69                     map_00_update
     00000FE1  C$map_00_update.c$15$1_0$165       map_00_update
     00000FE4  A$lcc950021$70                     map_00_update
     00000FE5  A$lcc950021$71                     map_00_update
     00000FE6  A$lcc950021$72                     map_00_update
     00000FE7  A$lcc950021$73                     map_00_update
     00000FE8  A$lcc950021$74                     map_00_update
     00000FE9  A$lcc950021$75                     map_00_update
     00000FEA  A$lcc950021$76                     map_00_update
     00000FEB  A$lcc950021$77                     map_00_update
     00000FEC  A$lcc950021$78                     map_00_update
     00000FED  A$lcc950021$79                     map_00_update
     00000FEE  A$lcc950021$80                     map_00_update
     00000FEF  A$lcc950021$91                     map_00_update
     00000FEF  C$map_00_update.c$16$1_0$165       map_00_update
     00000FEF  C$map_00_update.c$17$1_0$165       map_00_update
     00000FEF  XG$Map_00_Update$0$0               map_00_update
     00000FF2  A$lcc950022$55                     main
     00000FF2  C$main.c$15$0_0$174                main
     00000FF2  G$main$0$0                         main
     00000FF2  _main                              main
     00000FF4  A$lcc950022$59                     main
     00000FF4  C$main.c$16$1_0$174                main
     00000FF6  A$lcc950022$60                     main
     00000FF8  A$lcc950022$61                     main
     00000FFA  A$lcc950022$65                     main
     00000FFA  C$main.c$17$1_0$174                main
     00000FFC  A$lcc950022$66                     main
     00000FFE  A$lcc950022$67                     main
     00001000  A$lcc950022$71                     main
     00001000  C$main.c$20$1_1$175                main
     00001002  A$lcc950022$72                     main
     00001004  A$lcc950022$73                     main
     00001005  A$lcc950022$74                     main
     00001006  A$lcc950022$75                     main
     00001007  A$lcc950022$79                     main
     00001007  C$main.c$22$1_1$175                main
     0000100A  A$lcc950022$83                     main
     0000100A  C$main.c$24$1_1$175                main
     0000100D  A$lcc950022$87                     main
     0000100D  C$main.c$26$1_1$175                main
     0000100F  A$lcc950022$88                     main
     00001011  A$lcc950022$89                     main
     00001012  A$lcc950022$90                     main
     00001014  A$lcc950022$94                     main
     00001014  C$main.c$28$1_1$175                main
ASxxxx Linker V03.00/V05.40 + sdld,  page 49.
Hexadecimal  [32-Bits]

Area                                    Addr        Size        Decimal Bytes (Attributes)
--------------------------------        ----        ----        ------- ----- ------------
_CODE                               00000200    00000FC1 =        4033. bytes (REL,CON)

      Value  Global                              Global Defined In Module
      -----  --------------------------------   ------------------------
     00001017  A$lcc950022$95                     main
     00001018  A$lcc950022$96                     main
     0000101A  A$lcc950022$97                     main
     0000101B  A$lcc950022$98                     main
     0000101C  A$lcc950022$99                     main
     0000101D  A$lcc950022$100                    main
     0000101E  A$lcc950022$101                    main
     00001021  A$lcc950022$102                    main
     00001024  A$lcc950022$103                    main
     00001026  A$lcc950022$104                    main
     00001027  A$lcc950022$105                    main
     00001028  A$lcc950022$106                    main
     00001029  A$lcc950022$107                    main
     0000102C  A$lcc950022$111                    main
     0000102C  C$main.c$30$1_1$175                main
     0000102E  A$lcc950022$112                    main
     00001030  A$lcc950022$113                    main
     00001032  A$lcc950022$118                    main
     00001032  C$main.c$32$1_1$175                main
     00001034  A$lcc950022$119                    main
     00001035  A$lcc950022$120                    main
     00001036  A$lcc950022$121                    main
     00001037  A$lcc950022$122                    main
     00001039  A$lcc950022$126                    main
     00001039  C$main.c$33$1_1$174                main
     0000103A  A$lcc950022$127                    main
     0000103B  A$lcc950022$128                    main
     0000103C  A$lcc950022$129                    main
     0000103D  A$lcc950022$130                    main
     0000103E  A$lcc950022$131                    main
     0000103F  A$lcc950022$132                    main
     00001040  A$lcc950022$133                    main
     00001041  A$lcc950022$134                    main
     00001042  A$lcc950022$135                    main
     00001043  A$lcc950022$136                    main
     00001044  A$lcc950022$137                    main
     00001047  A$lcc950022$138                    main
     00001048  A$lcc950022$139                    main
     00001049  A$lcc950022$140                    main
     0000104A  A$lcc950022$141                    main
     0000104B  A$lcc950022$142                    main
     0000104C  A$lcc950022$147                    main
     0000104C  C$main.c$35$2_1$176                main
     0000104F  A$lcc950022$148                    main
     00001051  A$lcc950022$153                    main
     00001053  A$lcc950022$158                    main
     00001053  C$main.c$37$1_1$174                main
     00001053  XG$main$0$0                        main
     00001054  ___sdcc_heap_init                  malloc
     00001076  _malloc                            malloc
     0000117C  __mulsuchar                        mul
ASxxxx Linker V03.00/V05.40 + sdld,  page 50.
Hexadecimal  [32-Bits]

Area                                    Addr        Size        Decimal Bytes (Attributes)
--------------------------------        ----        ----        ------- ----- ------------
_CODE                               00000200    00000FC1 =        4033. bytes (REL,CON)

      Value  Global                              Global Defined In Module
      -----  --------------------------------   ------------------------
     0000117F  __muluschar                        mul
     00001188  __mulschar                         mul
     00001190  __mulint                           mul
     000011AF  __muluchar                         mul
ASxxxx Linker V03.00/V05.40 + sdld,  page 51.
Hexadecimal  [32-Bits]

Area                                    Addr        Size        Decimal Bytes (Attributes)
--------------------------------        ----        ----        ------- ----- ------------
_HEADER0                            00000000    00000001 =           1. bytes (ABS,CON)

      Value  Global                              Global Defined In Module
      -----  --------------------------------   ------------------------
     00000020  .call_hl                           Runtime

ASxxxx Linker V03.00/V05.40 + sdld,  page 52.
Hexadecimal  [32-Bits]

Area                                    Addr        Size        Decimal Bytes (Attributes)
--------------------------------        ----        ----        ------- ----- ------------
_HEADER1                            00000000    00000005 =           5. bytes (ABS,CON)

      Value  Global                              Global Defined In Module
      -----  --------------------------------   ------------------------
     00000028  .MemsetSmall                       Runtime

ASxxxx Linker V03.00/V05.40 + sdld,  page 53.
Hexadecimal  [32-Bits]

Area                                    Addr        Size        Decimal Bytes (Attributes)
--------------------------------        ----        ----        ------- ----- ------------
_HEADER2                            00000000    00000007 =           7. bytes (ABS,CON)

      Value  Global                              Global Defined In Module
      -----  --------------------------------   ------------------------
     00000030  .MemcpySmall                       Runtime

ASxxxx Linker V03.00/V05.40 + sdld,  page 54.
Hexadecimal  [32-Bits]

Area                                    Addr        Size        Decimal Bytes (Attributes)
--------------------------------        ----        ----        ------- ----- ------------
_HEADER3                            00000000    00000008 =           8. bytes (ABS,CON)

      Value  Global                              Global Defined In Module
      -----  --------------------------------   ------------------------
ASxxxx Linker V03.00/V05.40 + sdld,  page 55.
Hexadecimal  [32-Bits]

Area                                    Addr        Size        Decimal Bytes (Attributes)
--------------------------------        ----        ----        ------- ----- ------------
_HEADER4                            00000000    00000060 =          96. bytes (ABS,CON)

      Value  Global                              Global Defined In Module
      -----  --------------------------------   ------------------------
     00000080  .int                               Runtime
     0000008F  _wait_int_handler                  Runtime
     0000009C  __standard_VBL_handler             Runtime
     000000AB  _refresh_OAM                       Runtime
     000000CC  _set_interrupts                    Runtime

ASxxxx Linker V03.00/V05.40 + sdld,  page 56.
Hexadecimal  [32-Bits]

Area                                    Addr        Size        Decimal Bytes (Attributes)
--------------------------------        ----        ----        ------- ----- ------------
_HEADER5                            00000000    00000001 =           1. bytes (ABS,CON)

      Value  Global                              Global Defined In Module
      -----  --------------------------------   ------------------------
ASxxxx Linker V03.00/V05.40 + sdld,  page 57.
Hexadecimal  [32-Bits]

Area                                    Addr        Size        Decimal Bytes (Attributes)
--------------------------------        ----        ----        ------- ----- ------------
_HEADER6                            00000000    00000002 =           2. bytes (ABS,CON)

      Value  Global                              Global Defined In Module
      -----  --------------------------------   ------------------------
ASxxxx Linker V03.00/V05.40 + sdld,  page 58.
Hexadecimal  [32-Bits]

Area                                    Addr        Size        Decimal Bytes (Attributes)
--------------------------------        ----        ----        ------- ----- ------------
_HEADER7                            00000000    00000030 =          48. bytes (ABS,CON)

      Value  Global                              Global Defined In Module
      -----  --------------------------------   ------------------------
ASxxxx Linker V03.00/V05.40 + sdld,  page 59.
Hexadecimal  [32-Bits]

Area                                    Addr        Size        Decimal Bytes (Attributes)
--------------------------------        ----        ----        ------- ----- ------------
_HEADER8                            00000000    00000006 =           6. bytes (ABS,CON)

      Value  Global                              Global Defined In Module
      -----  --------------------------------   ------------------------
ASxxxx Linker V03.00/V05.40 + sdld,  page 60.
Hexadecimal  [32-Bits]

Area                                    Addr        Size        Decimal Bytes (Attributes)
--------------------------------        ----        ----        ------- ----- ------------
_HEADER9                            00000000    00000003 =           3. bytes (ABS,CON)

      Value  Global                              Global Defined In Module
      -----  --------------------------------   ------------------------
ASxxxx Linker V03.00/V05.40 + sdld,  page 61.
Hexadecimal  [32-Bits]

Area                                    Addr        Size        Decimal Bytes (Attributes)
--------------------------------        ----        ----        ------- ----- ------------
_HEADERa                            00000000    00000001 =           1. bytes (ABS,CON)

      Value  Global                              Global Defined In Module
      -----  --------------------------------   ------------------------
ASxxxx Linker V03.00/V05.40 + sdld,  page 62.
Hexadecimal  [32-Bits]

Area                                    Addr        Size        Decimal Bytes (Attributes)
--------------------------------        ----        ----        ------- ----- ------------
_HEADERb                            00000000    00000001 =           1. bytes (ABS,CON)

      Value  Global                              Global Defined In Module
      -----  --------------------------------   ------------------------
ASxxxx Linker V03.00/V05.40 + sdld,  page 63.
Hexadecimal  [32-Bits]

Area                                    Addr        Size        Decimal Bytes (Attributes)
--------------------------------        ----        ----        ------- ----- ------------
_HEADERc                            00000000    00000001 =           1. bytes (ABS,CON)

      Value  Global                              Global Defined In Module
      -----  --------------------------------   ------------------------
ASxxxx Linker V03.00/V05.40 + sdld,  page 64.
Hexadecimal  [32-Bits]

Area                                    Addr        Size        Decimal Bytes (Attributes)
--------------------------------        ----        ----        ------- ----- ------------
_HEADERd                            00000000    00000002 =           2. bytes (ABS,CON)

      Value  Global                              Global Defined In Module
      -----  --------------------------------   ------------------------
ASxxxx Linker V03.00/V05.40 + sdld,  page 65.
Hexadecimal  [32-Bits]

Area                                    Addr        Size        Decimal Bytes (Attributes)
--------------------------------        ----        ----        ------- ----- ------------
_HEADERe                            00000000    00000001 =           1. bytes (ABS,CON)

      Value  Global                              Global Defined In Module
      -----  --------------------------------   ------------------------
ASxxxx Linker V03.00/V05.40 + sdld,  page 66.
Hexadecimal  [32-Bits]

Area                                    Addr        Size        Decimal Bytes (Attributes)
--------------------------------        ----        ----        ------- ----- ------------
_HEADERf                            00000000    00000001 =           1. bytes (ABS,CON)

      Value  Global                              Global Defined In Module
      -----  --------------------------------   ------------------------
ASxxxx Linker V03.00/V05.40 + sdld,  page 67.
Hexadecimal  [32-Bits]

Area                                    Addr        Size        Decimal Bytes (Attributes)
--------------------------------        ----        ----        ------- ----- ------------
_HEADER10                           00000000    00000002 =           2. bytes (ABS,CON)

      Value  Global                              Global Defined In Module
      -----  --------------------------------   ------------------------
ASxxxx Linker V03.00/V05.40 + sdld,  page 68.
Hexadecimal  [32-Bits]

Area                                    Addr        Size        Decimal Bytes (Attributes)
--------------------------------        ----        ----        ------- ----- ------------
_HEADER11                           00000000    000000AB =         171. bytes (ABS,CON)

      Value  Global                              Global Defined In Module
      -----  --------------------------------   ------------------------
     00000150  .reset                             Runtime
     00000150  _reset                             Runtime
     00000157  .code_start                        Runtime
     000001B9  _exit                              Runtime
     000001BD  .wait_vbl_done                     Runtime
     000001BD  _vsync                             Runtime
     000001BD  _wait_vbl_done                     Runtime
     000001CD  .remove_VBL                        Runtime
     000001CD  _remove_VBL                        Runtime
     000001D0  .remove_int                        Runtime
     000001ED  .add_VBL                           Runtime
     000001ED  _add_VBL                           Runtime
     000001F0  .add_int                           Runtime

ASxxxx Linker V03.00/V05.40 + sdld,  page 69.
Hexadecimal  [32-Bits]

Area                                    Addr        Size        Decimal Bytes (Attributes)
--------------------------------        ----        ----        ------- ----- ------------
_HOME                               000011C1    0000012C =         300. bytes (REL,CON)

      Value  Global                              Global Defined In Module
      -----  --------------------------------   ------------------------
     000011C1  .memset_simple                     Runtime
     000011CA  .memcpy_simple                     Runtime
     000011E7  .display_off                       Runtime
     000011E7  _display_off                       Runtime
     000011FF  _set_tile_data                     
     00001204  _set_bkg_data                      
     00001204  _set_win_data                      
     0000120C  _set_sprite_data                   
     0000123C  .padup                             
     0000123C  _waitpadup                         
     0000124C  .jpad                              
     0000124C  _joypad                            
     00001274  _waitpad                           
     00001275  .wait_pad                          
     0000127C  ___sdcc_call_hl                    call_hl
     0000127D  _set_bkg_tiles                     
     00001291  .set_xy_wtt                        SetTileMap
     0000129A  .set_xy_btt                        SetTileMap
     000012A9  .set_xy_tt                         SetTileMap

ASxxxx Linker V03.00/V05.40 + sdld,  page 70.
Hexadecimal  [32-Bits]

Area                                    Addr        Size        Decimal Bytes (Attributes)
--------------------------------        ----        ----        ------- ----- ------------
_INITIALIZER                        000012ED    00000187 =         391. bytes (REL,CON)

      Value  Global                              Global Defined In Module
      -----  --------------------------------   ------------------------
     000012ED  Fspr_Player_down0$__xinit_spr_Pl   spr_Player_down0
     000012FD  Fspr_Player_down0$__xinit_spr_Pl   spr_Player_down0
     0000130D  Fspr_Player_down0$__xinit_spr_Pl   spr_Player_down0
     0000131D  Fspr_Player_down0$__xinit_spr_Pl   spr_Player_down0
     0000132D  Fspr_Player_down1$__xinit_spr_Pl   spr_Player_down1
     0000133D  Fspr_Player_down1$__xinit_spr_Pl   spr_Player_down1
     0000134D  Fspr_Player_down1$__xinit_spr_Pl   spr_Player_down1
     0000135D  Fspr_Player_down1$__xinit_spr_Pl   spr_Player_down1
     0000136D  Fspr_Player_down2$__xinit_spr_Pl   spr_Player_down2
     0000137D  Fspr_Player_down2$__xinit_spr_Pl   spr_Player_down2
     0000138D  Fspr_Player_down2$__xinit_spr_Pl   spr_Player_down2
     0000139D  Fspr_Player_down2$__xinit_spr_Pl   spr_Player_down2
     000013AD  Fspr_Player_up0$__xinit_spr_Play   spr_Player_up0
     000013BD  Fspr_Player_up0$__xinit_spr_Play   spr_Player_up0
     000013CD  Fspr_Player_up0$__xinit_spr_Play   spr_Player_up0
     000013DD  Fspr_Player_up0$__xinit_spr_Play   spr_Player_up0
     000013ED  Fspr_Player_up1$__xinit_spr_Play   spr_Player_up1
     000013FD  Fspr_Player_up1$__xinit_spr_Play   spr_Player_up1
     0000140D  Fspr_Player_up1$__xinit_spr_Play   spr_Player_up1
     0000141D  Fspr_Player_up1$__xinit_spr_Play   spr_Player_up1
     0000142D  Fspr_Player_up2$__xinit_spr_Play   spr_Player_up2
     0000143D  Fspr_Player_up2$__xinit_spr_Play   spr_Player_up2
     0000144D  Fspr_Player_up2$__xinit_spr_Play   spr_Player_up2
     0000145D  Fspr_Player_up2$__xinit_spr_Play   spr_Player_up2
     0000146D  Faction$__xinit_MOVE_SPEED$0_0$0   action
     0000146E  Faction$__xinit_current_directio   action
     0000146F  Faction$__xinit_last_keys$0_0$0    action
     00001470  Fentity$__xinit_next_entity_id$0   entity
     00001472  Fload$__xinit_vram_next_index$0_   load

ASxxxx Linker V03.00/V05.40 + sdld,  page 71.
Hexadecimal  [32-Bits]

Area                                    Addr        Size        Decimal Bytes (Attributes)
--------------------------------        ----        ----        ------- ----- ------------
_GSINIT                             00001474    0000000F =          15. bytes (REL,CON)

      Value  Global                              Global Defined In Module
      -----  --------------------------------   ------------------------
     00001474  gsinit                             Runtime

ASxxxx Linker V03.00/V05.40 + sdld,  page 72.
Hexadecimal  [32-Bits]

Area                                    Addr        Size        Decimal Bytes (Attributes)
--------------------------------        ----        ----        ------- ----- ------------
_GSFINAL                            00001483    00000001 =           1. bytes (REL,CON)

      Value  Global                              Global Defined In Module
      -----  --------------------------------   ------------------------
ASxxxx Linker V03.00/V05.40 + sdld,  page 73.
Hexadecimal  [32-Bits]

Area                                    Addr        Size        Decimal Bytes (Attributes)
--------------------------------        ----        ----        ------- ----- ------------
_DATA                               0000C0A0    00001D25 =        7461. bytes (REL,CON)

      Value  Global                              Global Defined In Module
      -----  --------------------------------   ------------------------
     0000C0A0  __cpu                              Runtime
     0000C0A1  __is_GBA                           Runtime
     0000C0A2  .mode                              Runtime
     0000C0A3  .sys_time                          Runtime
     0000C0A3  _sys_time                          Runtime
     0000C0A5  .int_0x40                          Runtime
     0000C0B1  G$animation$0_0$0                  animation
     0000C0B1  _animation                         animation
     0000D931  G$player$0_0$0                     player
     0000D931  _player                            player
     0000D933  G$player_animations$0_0$0          player
     0000D933  _player_animations                 player
     0000D937  G$position$0_0$0                   position
     0000D937  _position                          position
     0000DC37  G$render$0_0$0                     render
     0000DC37  _render                            render
     0000DDB7  G$GenderSelect$0_0$0               gender_select
     0000DDB7  _GenderSelect                      gender_select
     0000DDBD  G$Map_00$0_0$0                     map_00
     0000DDBD  _Map_00                            map_00
     0000DDC3  ___sdcc_heap_free                  malloc
ASxxxx Linker V03.00/V05.40 + sdld,  page 74.
Hexadecimal  [32-Bits]

Area                                    Addr        Size        Decimal Bytes (Attributes)
--------------------------------        ----        ----        ------- ----- ------------
_INITIALIZED                        0000DDC5    00000187 =         391. bytes (REL,CON)

      Value  Global                              Global Defined In Module
      -----  --------------------------------   ------------------------
     0000DDC5  G$spr_Player_down0_00$0_0$0        spr_Player_down0
     0000DDC5  _spr_Player_down0_00               spr_Player_down0
     0000DDD5  G$spr_Player_down0_10$0_0$0        spr_Player_down0
     0000DDD5  _spr_Player_down0_10               spr_Player_down0
     0000DDE5  G$spr_Player_down0_01$0_0$0        spr_Player_down0
     0000DDE5  _spr_Player_down0_01               spr_Player_down0
     0000DDF5  G$spr_Player_down0_11$0_0$0        spr_Player_down0
     0000DDF5  _spr_Player_down0_11               spr_Player_down0
     0000DE05  G$spr_Player_down1_00$0_0$0        spr_Player_down1
     0000DE05  _spr_Player_down1_00               spr_Player_down1
     0000DE15  G$spr_Player_down1_10$0_0$0        spr_Player_down1
     0000DE15  _spr_Player_down1_10               spr_Player_down1
     0000DE25  G$spr_Player_down1_01$0_0$0        spr_Player_down1
     0000DE25  _spr_Player_down1_01               spr_Player_down1
     0000DE35  G$spr_Player_down1_11$0_0$0        spr_Player_down1
     0000DE35  _spr_Player_down1_11               spr_Player_down1
     0000DE45  G$spr_Player_down2_00$0_0$0        spr_Player_down2
     0000DE45  _spr_Player_down2_00               spr_Player_down2
     0000DE55  G$spr_Player_down2_10$0_0$0        spr_Player_down2
     0000DE55  _spr_Player_down2_10               spr_Player_down2
     0000DE65  G$spr_Player_down2_01$0_0$0        spr_Player_down2
     0000DE65  _spr_Player_down2_01               spr_Player_down2
     0000DE75  G$spr_Player_down2_11$0_0$0        spr_Player_down2
     0000DE75  _spr_Player_down2_11               spr_Player_down2
     0000DE85  G$spr_Player_up0_00$0_0$0          spr_Player_up0
     0000DE85  _spr_Player_up0_00                 spr_Player_up0
     0000DE95  G$spr_Player_up0_10$0_0$0          spr_Player_up0
     0000DE95  _spr_Player_up0_10                 spr_Player_up0
     0000DEA5  G$spr_Player_up0_01$0_0$0          spr_Player_up0
     0000DEA5  _spr_Player_up0_01                 spr_Player_up0
     0000DEB5  G$spr_Player_up0_11$0_0$0          spr_Player_up0
     0000DEB5  _spr_Player_up0_11                 spr_Player_up0
     0000DEC5  G$spr_Player_up1_00$0_0$0          spr_Player_up1
     0000DEC5  _spr_Player_up1_00                 spr_Player_up1
     0000DED5  G$spr_Player_up1_10$0_0$0          spr_Player_up1
     0000DED5  _spr_Player_up1_10                 spr_Player_up1
     0000DEE5  G$spr_Player_up1_01$0_0$0          spr_Player_up1
     0000DEE5  _spr_Player_up1_01                 spr_Player_up1
     0000DEF5  G$spr_Player_up1_11$0_0$0          spr_Player_up1
     0000DEF5  _spr_Player_up1_11                 spr_Player_up1
     0000DF05  G$spr_Player_up2_00$0_0$0          spr_Player_up2
     0000DF05  _spr_Player_up2_00                 spr_Player_up2
     0000DF15  G$spr_Player_up2_10$0_0$0          spr_Player_up2
     0000DF15  _spr_Player_up2_10                 spr_Player_up2
     0000DF25  G$spr_Player_up2_01$0_0$0          spr_Player_up2
     0000DF25  _spr_Player_up2_01                 spr_Player_up2
     0000DF35  G$spr_Player_up2_11$0_0$0          spr_Player_up2
     0000DF35  _spr_Player_up2_11                 spr_Player_up2
     0000DF45  G$MOVE_SPEED$0_0$0                 action
     0000DF45  _MOVE_SPEED                        action
ASxxxx Linker V03.00/V05.40 + sdld,  page 75.
Hexadecimal  [32-Bits]

Area                                    Addr        Size        Decimal Bytes (Attributes)
--------------------------------        ----        ----        ------- ----- ------------
_INITIALIZED                        0000DDC5    00000187 =         391. bytes (REL,CON)

      Value  Global                              Global Defined In Module
      -----  --------------------------------   ------------------------
     0000DF46  G$current_direction$0_0$0          action
     0000DF46  _current_direction                 action
     0000DF47  G$last_keys$0_0$0                  action
     0000DF47  _last_keys                         action
     0000DF48  G$next_entity_id$0_0$0             entity
     0000DF48  _next_entity_id                    entity
     0000DF4A  G$vram_next_index$0_0$0            load
     0000DF4A  _vram_next_index                   load
     0000DF4B  __map_tile_offset                  SetTileMap

ASxxxx Linker V03.00/V05.40 + sdld,  page 76.
Hexadecimal  [32-Bits]

Area                                    Addr        Size        Decimal Bytes (Attributes)
--------------------------------        ----        ----        ------- ----- ------------
_HEAP                               0000DF4C    000007FF =        2047. bytes (REL,CON)

      Value  Global                              Global Defined In Module
      -----  --------------------------------   ------------------------
     0000DF4C  ___sdcc_heap                       

ASxxxx Linker V03.00/V05.40 + sdld,  page 77.
Hexadecimal  [32-Bits]

Area                                    Addr        Size        Decimal Bytes (Attributes)
--------------------------------        ----        ----        ------- ----- ------------
_HEAP_END                           0000E74B    00000001 =           1. bytes (REL,CON)

      Value  Global                              Global Defined In Module
      -----  --------------------------------   ------------------------
     0000E74B  ___sdcc_heap_end                   

ASxxxx Linker V03.00/V05.40 + sdld,  page 78.
Hexadecimal  [32-Bits]

Area                                    Addr        Size        Decimal Bytes (Attributes)
--------------------------------        ----        ----        ------- ----- ------------
_HRAM                               0000FF80    00000013 =          19. bytes (REL,CON)

      Value  Global                              Global Defined In Module
      -----  --------------------------------   ------------------------
     0000FF80  .refresh_OAM                       Runtime
     0000FF90  __current_bank                     Runtime
     0000FF91  __vbl_done                         Runtime
     0000FF92  __shadow_OAM_base                  Runtime

ASxxxx Linker V03.00/V05.40 + sdld,  page 79.

Files Linked                              [ module(s) ]

C:\Program Files\GBDK\lib/gb/crt0.o       [ Runtime ]
C:\Users\Bau_M\AppData\Local\Temp/lcc95000.o
                                          [ template_tilemap ]
C:\Users\Bau_M\AppData\Local\Temp/lcc95001.o
                                          [ template_tileset ]
C:\Users\Bau_M\AppData\Local\Temp/lcc95002.o
                                          [ spr_Player_down0 ]
C:\Users\Bau_M\AppData\Local\Temp/lcc95003.o
                                          [ spr_Player_down1 ]
C:\Users\Bau_M\AppData\Local\Temp/lcc95004.o
                                          [ spr_Player_down2 ]
C:\Users\Bau_M\AppData\Local\Temp/lcc95005.o
                                          [ spr_Player_up0 ]
C:\Users\Bau_M\AppData\Local\Temp/lcc95006.o
                                          [ spr_Player_up1 ]
C:\Users\Bau_M\AppData\Local\Temp/lcc95007.o
                                          [ spr_Player_up2 ]
C:\Users\Bau_M\AppData\Local\Temp/lcc95008.o
                                          [ action ]
C:\Users\Bau_M\AppData\Local\Temp/lcc95009.o
                                          [ animation ]
C:\Users\Bau_M\AppData\Local\Temp/lcc950010.o
                                          [ draw ]
C:\Users\Bau_M\AppData\Local\Temp/lcc950011.o
                                          [ entity ]
C:\Users\Bau_M\AppData\Local\Temp/lcc950012.o
                                          [ load ]
C:\Users\Bau_M\AppData\Local\Temp/lcc950013.o
                                          [ player ]
C:\Users\Bau_M\AppData\Local\Temp/lcc950014.o
                                          [ position ]
C:\Users\Bau_M\AppData\Local\Temp/lcc950015.o
                                          [ render ]
C:\Users\Bau_M\AppData\Local\Temp/lcc950016.o
                                          [ gender_select ]
C:\Users\Bau_M\AppData\Local\Temp/lcc950017.o
                                          [ gender_select_init ]
C:\Users\Bau_M\AppData\Local\Temp/lcc950018.o
                                          [ gender_select_update ]
C:\Users\Bau_M\AppData\Local\Temp/lcc950019.o
                                          [ map_00 ]
C:\Users\Bau_M\AppData\Local\Temp/lcc950020.o
                                          [ map_00_init ]
C:\Users\Bau_M\AppData\Local\Temp/lcc950021.o
                                          [ map_00_update ]
C:\Users\Bau_M\AppData\Local\Temp/lcc950022.o
                                          [ main ]


Libraries Linked                          [ object file ]

C:\Program Files\GBDK\lib/sm83/sm83.lib   [ malloc.o ]
C:\Program Files\GBDK\lib/gb/gb.lib       [ set_data.o ]
C:\Program Files\GBDK\lib/sm83/sm83.lib   [ mul.o ]
C:\Program Files\GBDK\lib/gb/gb.lib       [ pad.o ]
C:\Program Files\GBDK\lib/sm83/sm83.lib   [ __sdcc_call_hl.o ]
C:\Program Files\GBDK\lib/gb/gb.lib       [ sfr.o ]
C:\Program Files\GBDK\lib/gb/gb.lib       [ heap.o ]
C:\Program Files\GBDK\lib/gb/gb.lib       [ set_bk_t.o ]
C:\Program Files\GBDK\lib/gb/gb.lib       [ set_xy_t.o ]

ASxxxx Linker V03.00/V05.40 + sdld,  page 80.

User Base Address Definitions

_DATA=0xC0A0
_CODE=0x0200
_HRAM=0xFF80
ASxxxx Linker V03.00/V05.40 + sdld,  page 81.

User Global Definitions

_shadow_OAM=0xC000
.STACK=0xE000

