ASxxxx Linker V03.00/V05.40 + sdld,  page 1.
Hexadecimal  [32-Bits]

Area                                    Addr        Size        Decimal Bytes (Attributes)
--------------------------------        ----        ----        ------- ----- ------------
.  .ABS.                            00000000    00000000 =           0. bytes (ABS,CON)

      Value  Global                              Global Defined In Module
      -----  --------------------------------   ------------------------
     00000000  .__.ABS.                           SetTileMap
     00000000  _rMBC7_SRAM_ENABLE_1               
     00000000  _rRAMG                             
     00000000  l__BASE                         
     00000000  l__BSS                          
     00000000  l__CABS                         
     00000000  l__CODE_0                       
     00000000  l__DABS                         
     00000000  l__HEADER                       
     00000000  l__LIT                          
     00000000  s__CABS                         
     00000000  s__DABS                         
     00000000  s__HEADER                       
     00000000  s__HEADER0                      
     00000000  s__HEADER1                      
     00000000  s__HEADER10                     
     00000000  s__HEADER11                     
     00000000  s__HEADER2                      
     00000000  s__HEADER3                      
     00000000  s__HEADER4                      
     00000000  s__HEADER5                      
     00000000  s__HEADER6                      
     00000000  s__HEADER7                      
     00000000  s__HEADER8                      
     00000000  s__HEADER9                      
     00000000  s__HEADERa                      
     00000000  s__HEADERb                      
     00000000  s__HEADERc                      
     00000000  s__HEADERd                      
     00000000  s__HEADERe                      
     00000000  s__HEADERf                      
     00000001  l__GSFINAL                      
     00000001  l__HEADER0                      
     00000001  l__HEADER5                      
     00000001  l__HEADERa                      
     00000001  l__HEADERb                      
     00000001  l__HEADERc                      
     00000001  l__HEADERe                      
     00000001  l__HEADERf                      
     00000001  l__HEAP_END                     
     00000002  l__HEADER10                     
     00000002  l__HEADER6                      
     00000002  l__HEADERd                      
     00000003  l__HEADER9                      
     00000005  l__HEADER1                      
     00000006  l__HEADER8                      
     00000007  l__HEADER2                      
     00000008  l__HEADER3                      
     0000000F  l__GSINIT                       
     00000013  l__HRAM                         
ASxxxx Linker V03.00/V05.40 + sdld,  page 2.
Hexadecimal  [32-Bits]

Area                                    Addr        Size        Decimal Bytes (Attributes)
--------------------------------        ----        ----        ------- ----- ------------
.  .ABS.                            00000000    00000000 =           0. bytes (ABS,CON)

      Value  Global                              Global Defined In Module
      -----  --------------------------------   ------------------------
     00000030  l__HEADER7                      
     00000060  l__HEADER4                      
     000000AB  l__HEADER11                     
     0000012C  l__HOME                         
     000001B7  l__DATA                         
     000001E5  l__INITIALIZED                  
     000001E5  l__INITIALIZER                  
     00000200  s__CODE                         
     000007FF  l__HEAP                         
     00002000  _rROMB0                            
     00003000  _rROMB1                            
     0000319C  l__CODE                         
     0000339C  s__HOME                         
     000034C8  s__BASE                         
     000034C8  s__CODE_0                       
     000034C8  s__INITIALIZER                  
     000034C8  s__LIT                          
     000036AD  s__GSINIT                       
     000036BC  s__GSFINAL                      
     00004000  _rMBC7_SRAM_ENABLE_2               
     00004000  _rRAMB                             
     00008000  __VRAM                             
     00008000  __VRAM8000                         
     00008800  __VRAM8800                         
     00009000  __VRAM9000                         
     00009800  __SCRN0                            
     00009C00  __SCRN1                            
     0000A000  __SRAM                             
     0000A000  _rMBC7_LATCH_1                     
     0000A010  _rMBC7_LATCH_2                     
     0000A020  _rMBC7_ACCEL_X_LO                  
     0000A030  _rMBC7_ACCEL_X_HI                  
     0000A040  _rMBC7_ACCEL_Y_LO                  
     0000A050  _rMBC7_ACCEL_Y_HI                  
     0000C000  __RAM                              
     0000C000  _shadow_OAM                     
     0000C0A0  s__DATA                         
     0000C257  s__BSS                          
     0000C257  s__INITIALIZED                  
     0000C43C  s__HEAP                         
     0000CC3B  s__HEAP_END                     
     0000D000  __RAMBANK                          
     0000E000  .STACK                          
     0000FE00  __OAMRAM                           
     0000FF00  _P1_REG                            
     0000FF00  __IO                               
     0000FF01  _SB_REG                            
     0000FF02  _SC_REG                            
     0000FF04  _DIV_REG                           
     0000FF05  _TIMA_REG                          
     0000FF06  _TMA_REG                           
ASxxxx Linker V03.00/V05.40 + sdld,  page 3.
Hexadecimal  [32-Bits]

Area                                    Addr        Size        Decimal Bytes (Attributes)
--------------------------------        ----        ----        ------- ----- ------------
.  .ABS.                            00000000    00000000 =           0. bytes (ABS,CON)

      Value  Global                              Global Defined In Module
      -----  --------------------------------   ------------------------
     0000FF07  _TAC_REG                           
     0000FF0F  _IF_REG                            
     0000FF10  _NR10_REG                          
     0000FF11  _NR11_REG                          
     0000FF12  _NR12_REG                          
     0000FF13  _NR13_REG                          
     0000FF14  _NR14_REG                          
     0000FF16  _NR21_REG                          
     0000FF17  _NR22_REG                          
     0000FF18  _NR23_REG                          
     0000FF19  _NR24_REG                          
     0000FF1A  _NR30_REG                          
     0000FF1B  _NR31_REG                          
     0000FF1C  _NR32_REG                          
     0000FF1D  _NR33_REG                          
     0000FF1E  _NR34_REG                          
     0000FF20  _NR41_REG                          
     0000FF21  _NR42_REG                          
     0000FF22  _NR43_REG                          
     0000FF23  _NR44_REG                          
     0000FF24  _NR50_REG                          
     0000FF25  _NR51_REG                          
     0000FF26  _NR52_REG                          
     0000FF30  _AUD3WAVE                          
     0000FF30  _PCM_SAMPLE                        
     0000FF30  __AUD3WAVERAM                      
     0000FF40  _LCDC_REG                          
     0000FF41  _STAT_REG                          
     0000FF42  _SCY_REG                           
     0000FF43  _SCX_REG                           
     0000FF44  _LY_REG                            
     0000FF45  _LYC_REG                           
     0000FF46  _DMA_REG                           
     0000FF47  _BGP_REG                           
     0000FF48  _OBP0_REG                          
     0000FF49  _OBP1_REG                          
     0000FF4A  _WY_REG                            
     0000FF4B  _WX_REG                            
     0000FF4D  _KEY1_REG                          
     0000FF4F  _VBK_REG                           
     0000FF51  _HDMA1_REG                         
     0000FF52  _HDMA2_REG                         
     0000FF53  _HDMA3_REG                         
     0000FF54  _HDMA4_REG                         
     0000FF55  _HDMA5_REG                         
     0000FF56  _RP_REG                            
     0000FF68  _BCPS_REG                          
     0000FF69  _BCPD_REG                          
     0000FF6A  _OCPS_REG                          
     0000FF6B  _OCPD_REG                          
     0000FF70  _SVBK_REG                          
ASxxxx Linker V03.00/V05.40 + sdld,  page 4.
Hexadecimal  [32-Bits]

Area                                    Addr        Size        Decimal Bytes (Attributes)
--------------------------------        ----        ----        ------- ----- ------------
.  .ABS.                            00000000    00000000 =           0. bytes (ABS,CON)

      Value  Global                              Global Defined In Module
      -----  --------------------------------   ------------------------
     0000FF76  _PCM12_REG                         
     0000FF77  _PCM34_REG                         
     0000FF80  __HRAM                             
     0000FF80  s__HRAM                         
     0000FFFF  _IE_REG                            

ASxxxx Linker V03.00/V05.40 + sdld,  page 5.
Hexadecimal  [32-Bits]

Area                                    Addr        Size        Decimal Bytes (Attributes)
--------------------------------        ----        ----        ------- ----- ------------
_CODE                               00000200    0000319C =       12700. bytes (REL,CON)

      Value  Global                              Global Defined In Module
      -----  --------------------------------   ------------------------
     00000200  G$chars_tileset$0_0$0              chars
     00000200  _chars_tileset                     chars
     000003F0  G$chars_tilemap$0_0$0              chars
     000003F0  _chars_tilemap                     chars
     0000040E  G$numbers_tileset$0_0$0            numbers
     0000040E  _numbers_tileset                   numbers
     000004AE  G$numbers_tilemap$0_0$0            numbers
     000004AE  _numbers_tilemap                   numbers
     000004B8  G$gender_select_tilemap$0_0$0      gender_select_tilemap
     000004B8  _gender_select_tilemap             gender_select_tilemap
     00000620  G$gender_select_tileset$0_0$0      gender_select_tileset
     00000620  _gender_select_tileset             gender_select_tileset
     00000910  G$inventory_bkg_tileset$0_0$0      inventory_bkg
     00000910  _inventory_bkg_tileset             inventory_bkg
     00000C50  G$inventory_bkg_tilemap$0_0$0      inventory_bkg
     00000C50  _inventory_bkg_tilemap             inventory_bkg
     00000DB8  G$bkg_main_menu_tileset$0_0$0      bkg_MainMenu
     00000DB8  _bkg_main_menu_tileset             bkg_MainMenu
     00001078  G$bkg_main_menu_tilemap$0_0$0      bkg_MainMenu
     00001078  _bkg_main_menu_tilemap             bkg_MainMenu
     000011E0  G$example_tileset$0_0$0            map_example
     000011E0  _example_tileset                   map_example
     00001690  G$example_tilemap$0_0$0            map_example
     00001690  _example_tilemap                   map_example
     000017F8  G$template_tilemap$0_0$0           template_tilemap
     000017F8  _template_tilemap                  template_tilemap
     00001960  G$template_tileset$0_0$0           template_tileset
     00001960  _template_tileset                  template_tileset
     00001B30  G$spr_Branch$0_0$0                 spr_Branch
     00001B30  _spr_Branch                        spr_Branch
     00001B40  A$lcc1766418$66                    action
     00001B40  C$action.c$12$0_0$150              action
     00001B40  G$move_up$0$0                      action
     00001B40  _move_up                           action
     00001B42  A$lcc1766418$67                    action
     00001B44  A$lcc1766418$68                    action
     00001B45  A$lcc1766418$72                    action
     00001B45  C$action.c$14$2_0$151              action
     00001B48  A$lcc1766418$73                    action
     00001B4A  A$lcc1766418$77                    action
     00001B4A  C$action.c$15$2_0$151              action
     00001B4C  A$lcc1766418$81                    action
     00001B4C  C$action.c$17$1_0$150              action
     00001B4E  A$lcc1766418$82                    action
     00001B4F  A$lcc1766418$83                    action
     00001B50  A$lcc1766418$84                    action
     00001B52  A$lcc1766418$85                    action
     00001B53  A$lcc1766418$86                    action
     00001B55  A$lcc1766418$87                    action
     00001B57  A$lcc1766418$88                    action
ASxxxx Linker V03.00/V05.40 + sdld,  page 6.
Hexadecimal  [32-Bits]

Area                                    Addr        Size        Decimal Bytes (Attributes)
--------------------------------        ----        ----        ------- ----- ------------
_CODE                               00000200    0000319C =       12700. bytes (REL,CON)

      Value  Global                              Global Defined In Module
      -----  --------------------------------   ------------------------
     00001B58  A$lcc1766418$89                    action
     00001B5B  A$lcc1766418$90                    action
     00001B5D  A$lcc1766418$91                    action
     00001B5E  A$lcc1766418$92                    action
     00001B5F  A$lcc1766418$93                    action
     00001B60  A$lcc1766418$94                    action
     00001B61  A$lcc1766418$95                    action
     00001B62  A$lcc1766418$96                    action
     00001B63  A$lcc1766418$97                    action
     00001B64  A$lcc1766418$98                    action
     00001B65  A$lcc1766418$99                    action
     00001B66  A$lcc1766418$100                   action
     00001B67  A$lcc1766418$101                   action
     00001B69  A$lcc1766418$102                   action
     00001B6A  A$lcc1766418$103                   action
     00001B6C  A$lcc1766418$104                   action
     00001B6D  A$lcc1766418$105                   action
     00001B6F  A$lcc1766418$106                   action
     00001B70  A$lcc1766418$107                   action
     00001B72  A$lcc1766418$108                   action
     00001B73  A$lcc1766418$109                   action
     00001B75  A$lcc1766418$110                   action
     00001B76  A$lcc1766418$111                   action
     00001B78  A$lcc1766418$112                   action
     00001B79  A$lcc1766418$113                   action
     00001B7A  A$lcc1766418$114                   action
     00001B7B  A$lcc1766418$115                   action
     00001B7C  A$lcc1766418$116                   action
     00001B7D  A$lcc1766418$117                   action
     00001B7E  A$lcc1766418$118                   action
     00001B7F  A$lcc1766418$119                   action
     00001B80  A$lcc1766418$120                   action
     00001B81  A$lcc1766418$121                   action
     00001B82  A$lcc1766418$122                   action
     00001B84  A$lcc1766418$123                   action
     00001B85  A$lcc1766418$124                   action
     00001B86  A$lcc1766418$125                   action
     00001B87  A$lcc1766418$126                   action
     00001B88  A$lcc1766418$127                   action
     00001B89  A$lcc1766418$128                   action
     00001B8A  A$lcc1766418$129                   action
     00001B8B  A$lcc1766418$130                   action
     00001B8C  A$lcc1766418$131                   action
     00001B8D  A$lcc1766418$132                   action
     00001B8E  A$lcc1766418$136                   action
     00001B8E  C$action.c$18$1_0$150              action
     00001B91  A$lcc1766418$137                   action
     00001B92  A$lcc1766418$138                   action
     00001B93  A$lcc1766418$139                   action
     00001B95  A$lcc1766418$140                   action
     00001B96  A$lcc1766418$141                   action
ASxxxx Linker V03.00/V05.40 + sdld,  page 7.
Hexadecimal  [32-Bits]

Area                                    Addr        Size        Decimal Bytes (Attributes)
--------------------------------        ----        ----        ------- ----- ------------
_CODE                               00000200    0000319C =       12700. bytes (REL,CON)

      Value  Global                              Global Defined In Module
      -----  --------------------------------   ------------------------
     00001B97  A$lcc1766418$142                   action
     00001B98  A$lcc1766418$143                   action
     00001B99  A$lcc1766418$144                   action
     00001B9A  A$lcc1766418$149                   action
     00001B9C  A$lcc1766418$154                   action
     00001B9C  C$action.c$19$1_0$150              action
     00001B9C  XG$move_up$0$0                     action
     00001B9D  A$lcc1766418$164                   action
     00001B9D  C$action.c$21$1_0$153              action
     00001B9D  G$move_down$0$0                    action
     00001B9D  _move_down                         action
     00001B9F  A$lcc1766418$165                   action
     00001BA1  A$lcc1766418$166                   action
     00001BA2  A$lcc1766418$170                   action
     00001BA2  C$action.c$23$2_0$154              action
     00001BA5  A$lcc1766418$171                   action
     00001BA7  A$lcc1766418$175                   action
     00001BA7  C$action.c$24$2_0$154              action
     00001BA9  A$lcc1766418$179                   action
     00001BA9  C$action.c$26$1_0$153              action
     00001BAB  A$lcc1766418$180                   action
     00001BAC  A$lcc1766418$181                   action
     00001BAD  A$lcc1766418$182                   action
     00001BAF  A$lcc1766418$183                   action
     00001BB0  A$lcc1766418$184                   action
     00001BB2  A$lcc1766418$185                   action
     00001BB4  A$lcc1766418$186                   action
     00001BB5  A$lcc1766418$187                   action
     00001BB8  A$lcc1766418$188                   action
     00001BBA  A$lcc1766418$189                   action
     00001BBB  A$lcc1766418$190                   action
     00001BBC  A$lcc1766418$191                   action
     00001BBD  A$lcc1766418$192                   action
     00001BBE  A$lcc1766418$193                   action
     00001BBF  A$lcc1766418$194                   action
     00001BC0  A$lcc1766418$195                   action
     00001BC1  A$lcc1766418$196                   action
     00001BC3  A$lcc1766418$197                   action
     00001BC4  A$lcc1766418$198                   action
     00001BC5  A$lcc1766418$199                   action
     00001BC7  A$lcc1766418$200                   action
     00001BC8  A$lcc1766418$201                   action
     00001BC9  A$lcc1766418$202                   action
     00001BCA  A$lcc1766418$203                   action
     00001BCB  A$lcc1766418$204                   action
     00001BCC  A$lcc1766418$205                   action
     00001BCD  A$lcc1766418$206                   action
     00001BCE  A$lcc1766418$207                   action
     00001BCF  A$lcc1766418$208                   action
     00001BD0  A$lcc1766418$209                   action
     00001BD1  A$lcc1766418$213                   action
ASxxxx Linker V03.00/V05.40 + sdld,  page 8.
Hexadecimal  [32-Bits]

Area                                    Addr        Size        Decimal Bytes (Attributes)
--------------------------------        ----        ----        ------- ----- ------------
_CODE                               00000200    0000319C =       12700. bytes (REL,CON)

      Value  Global                              Global Defined In Module
      -----  --------------------------------   ------------------------
     00001BD1  C$action.c$27$1_0$153              action
     00001BD4  A$lcc1766418$214                   action
     00001BD6  A$lcc1766418$215                   action
     00001BD7  A$lcc1766418$216                   action
     00001BD9  A$lcc1766418$217                   action
     00001BDA  A$lcc1766418$218                   action
     00001BDB  A$lcc1766418$219                   action
     00001BDC  A$lcc1766418$220                   action
     00001BDD  A$lcc1766418$221                   action
     00001BDE  A$lcc1766418$226                   action
     00001BE0  A$lcc1766418$231                   action
     00001BE0  C$action.c$28$1_0$153              action
     00001BE0  XG$move_down$0$0                   action
     00001BE1  A$lcc1766418$241                   action
     00001BE1  C$action.c$30$1_0$156              action
     00001BE1  G$move_left$0$0                    action
     00001BE1  _move_left                         action
     00001BE3  A$lcc1766418$242                   action
     00001BE5  A$lcc1766418$243                   action
     00001BE6  A$lcc1766418$247                   action
     00001BE6  C$action.c$32$2_0$157              action
     00001BE9  A$lcc1766418$248                   action
     00001BEB  A$lcc1766418$252                   action
     00001BEB  C$action.c$33$2_0$157              action
     00001BED  A$lcc1766418$256                   action
     00001BED  C$action.c$35$1_0$156              action
     00001BEF  A$lcc1766418$257                   action
     00001BF0  A$lcc1766418$258                   action
     00001BF1  A$lcc1766418$259                   action
     00001BF3  A$lcc1766418$260                   action
     00001BF4  A$lcc1766418$261                   action
     00001BF6  A$lcc1766418$262                   action
     00001BF8  A$lcc1766418$263                   action
     00001BF9  A$lcc1766418$264                   action
     00001BFC  A$lcc1766418$265                   action
     00001BFE  A$lcc1766418$266                   action
     00001BFF  A$lcc1766418$267                   action
     00001C00  A$lcc1766418$268                   action
     00001C01  A$lcc1766418$269                   action
     00001C02  A$lcc1766418$270                   action
     00001C03  A$lcc1766418$271                   action
     00001C04  A$lcc1766418$272                   action
     00001C05  A$lcc1766418$273                   action
     00001C06  A$lcc1766418$274                   action
     00001C07  A$lcc1766418$275                   action
     00001C08  A$lcc1766418$276                   action
     00001C0A  A$lcc1766418$277                   action
     00001C0B  A$lcc1766418$278                   action
     00001C0D  A$lcc1766418$279                   action
     00001C0E  A$lcc1766418$280                   action
     00001C10  A$lcc1766418$281                   action
ASxxxx Linker V03.00/V05.40 + sdld,  page 9.
Hexadecimal  [32-Bits]

Area                                    Addr        Size        Decimal Bytes (Attributes)
--------------------------------        ----        ----        ------- ----- ------------
_CODE                               00000200    0000319C =       12700. bytes (REL,CON)

      Value  Global                              Global Defined In Module
      -----  --------------------------------   ------------------------
     00001C11  A$lcc1766418$282                   action
     00001C13  A$lcc1766418$283                   action
     00001C14  A$lcc1766418$284                   action
     00001C16  A$lcc1766418$285                   action
     00001C17  A$lcc1766418$286                   action
     00001C19  A$lcc1766418$287                   action
     00001C1A  A$lcc1766418$288                   action
     00001C1B  A$lcc1766418$289                   action
     00001C1C  A$lcc1766418$290                   action
     00001C1D  A$lcc1766418$291                   action
     00001C1E  A$lcc1766418$292                   action
     00001C1F  A$lcc1766418$293                   action
     00001C20  A$lcc1766418$294                   action
     00001C21  A$lcc1766418$295                   action
     00001C22  A$lcc1766418$296                   action
     00001C23  A$lcc1766418$297                   action
     00001C25  A$lcc1766418$298                   action
     00001C26  A$lcc1766418$299                   action
     00001C27  A$lcc1766418$300                   action
     00001C28  A$lcc1766418$301                   action
     00001C29  A$lcc1766418$305                   action
     00001C29  C$action.c$36$1_0$156              action
     00001C2A  A$lcc1766418$306                   action
     00001C2B  A$lcc1766418$307                   action
     00001C2C  A$lcc1766418$308                   action
     00001C2D  A$lcc1766418$309                   action
     00001C2E  A$lcc1766418$310                   action
     00001C2F  A$lcc1766418$311                   action
     00001C30  A$lcc1766418$312                   action
     00001C31  A$lcc1766418$313                   action
     00001C34  A$lcc1766418$314                   action
     00001C35  A$lcc1766418$315                   action
     00001C37  A$lcc1766418$316                   action
     00001C38  A$lcc1766418$317                   action
     00001C39  A$lcc1766418$318                   action
     00001C3A  A$lcc1766418$319                   action
     00001C3B  A$lcc1766418$320                   action
     00001C3C  A$lcc1766418$321                   action
     00001C3D  A$lcc1766418$326                   action
     00001C3F  A$lcc1766418$331                   action
     00001C3F  C$action.c$37$1_0$156              action
     00001C3F  XG$move_left$0$0                   action
     00001C40  A$lcc1766418$341                   action
     00001C40  C$action.c$39$1_0$159              action
     00001C40  G$move_right$0$0                   action
     00001C40  _move_right                        action
     00001C42  A$lcc1766418$342                   action
     00001C44  A$lcc1766418$343                   action
     00001C45  A$lcc1766418$347                   action
     00001C45  C$action.c$41$2_0$160              action
     00001C48  A$lcc1766418$348                   action
ASxxxx Linker V03.00/V05.40 + sdld,  page 10.
Hexadecimal  [32-Bits]

Area                                    Addr        Size        Decimal Bytes (Attributes)
--------------------------------        ----        ----        ------- ----- ------------
_CODE                               00000200    0000319C =       12700. bytes (REL,CON)

      Value  Global                              Global Defined In Module
      -----  --------------------------------   ------------------------
     00001C4A  A$lcc1766418$352                   action
     00001C4A  C$action.c$42$2_0$160              action
     00001C4C  A$lcc1766418$356                   action
     00001C4C  C$action.c$44$1_0$159              action
     00001C4E  A$lcc1766418$357                   action
     00001C4F  A$lcc1766418$358                   action
     00001C50  A$lcc1766418$359                   action
     00001C52  A$lcc1766418$360                   action
     00001C53  A$lcc1766418$361                   action
     00001C55  A$lcc1766418$362                   action
     00001C57  A$lcc1766418$363                   action
     00001C58  A$lcc1766418$364                   action
     00001C5B  A$lcc1766418$365                   action
     00001C5D  A$lcc1766418$366                   action
     00001C5E  A$lcc1766418$367                   action
     00001C5F  A$lcc1766418$368                   action
     00001C60  A$lcc1766418$369                   action
     00001C61  A$lcc1766418$370                   action
     00001C62  A$lcc1766418$371                   action
     00001C63  A$lcc1766418$372                   action
     00001C64  A$lcc1766418$373                   action
     00001C66  A$lcc1766418$374                   action
     00001C67  A$lcc1766418$375                   action
     00001C68  A$lcc1766418$376                   action
     00001C6A  A$lcc1766418$377                   action
     00001C6B  A$lcc1766418$378                   action
     00001C6C  A$lcc1766418$379                   action
     00001C6D  A$lcc1766418$380                   action
     00001C6E  A$lcc1766418$381                   action
     00001C6F  A$lcc1766418$382                   action
     00001C70  A$lcc1766418$383                   action
     00001C71  A$lcc1766418$384                   action
     00001C72  A$lcc1766418$385                   action
     00001C73  A$lcc1766418$386                   action
     00001C74  A$lcc1766418$390                   action
     00001C74  C$action.c$45$1_0$159              action
     00001C75  A$lcc1766418$391                   action
     00001C78  A$lcc1766418$392                   action
     00001C7A  A$lcc1766418$393                   action
     00001C7B  A$lcc1766418$394                   action
     00001C7D  A$lcc1766418$395                   action
     00001C7E  A$lcc1766418$396                   action
     00001C7F  A$lcc1766418$397                   action
     00001C80  A$lcc1766418$398                   action
     00001C81  A$lcc1766418$399                   action
     00001C82  A$lcc1766418$400                   action
     00001C83  A$lcc1766418$405                   action
     00001C85  A$lcc1766418$410                   action
     00001C85  C$action.c$46$1_0$159              action
     00001C85  XG$move_right$0$0                  action
     00001C86  A$lcc1766418$420                   action
ASxxxx Linker V03.00/V05.40 + sdld,  page 11.
Hexadecimal  [32-Bits]

Area                                    Addr        Size        Decimal Bytes (Attributes)
--------------------------------        ----        ----        ------- ----- ------------
_CODE                               00000200    0000319C =       12700. bytes (REL,CON)

      Value  Global                              Global Defined In Module
      -----  --------------------------------   ------------------------
     00001C86  C$action.c$48$1_0$162              action
     00001C86  G$check_input$0$0                  action
     00001C86  _check_input                       action
     00001C87  A$lcc1766418$424                   action
     00001C87  C$action.c$50$1_0$162              action
     00001C8A  A$lcc1766418$425                   action
     00001C8D  A$lcc1766418$426                   action
     00001C8E  A$lcc1766418$430                   action
     00001C8E  C$action.c$52$2_0$163              action
     00001C90  A$lcc1766418$431                   action
     00001C92  A$lcc1766418$432                   action
     00001C95  A$lcc1766418$433                   action
     00001C97  A$lcc1766418$434                   action
     00001C99  A$lcc1766418$438                   action
     00001C99  C$action.c$54$3_0$164              action
     00001C9C  A$lcc1766418$439                   action
     00001C9F  A$lcc1766418$440                   action
     00001CA0  A$lcc1766418$441                   action
     00001CA1  A$lcc1766418$442                   action
     00001CA2  A$lcc1766418$443                   action
     00001CA3  A$lcc1766418$444                   action
     00001CA4  A$lcc1766418$445                   action
     00001CA5  A$lcc1766418$446                   action
     00001CA6  A$lcc1766418$447                   action
     00001CA9  A$lcc1766418$448                   action
     00001CAB  A$lcc1766418$449                   action
     00001CAC  A$lcc1766418$450                   action
     00001CAE  A$lcc1766418$451                   action
     00001CAF  A$lcc1766418$452                   action
     00001CB0  A$lcc1766418$453                   action
     00001CB3  A$lcc1766418$458                   action
     00001CB3  C$action.c$58$2_0$165              action
     00001CB6  A$lcc1766418$459                   action
     00001CB7  A$lcc1766418$460                   action
     00001CB9  A$lcc1766418$464                   action
     00001CBC  A$lcc1766418$468                   action
     00001CBC  C$action.c$60$4_0$167              action
     00001CBE  A$lcc1766418$469                   action
     00001CC0  A$lcc1766418$473                   action
     00001CC0  C$action.c$61$4_0$167              action
     00001CC3  A$lcc1766418$474                   action
     00001CC5  A$lcc1766418$475                   action
     00001CC7  A$lcc1766418$480                   action
     00001CC7  C$action.c$62$5_0$168              action
     00001CC9  A$lcc1766418$481                   action
     00001CCB  A$lcc1766418$485                   action
     00001CCB  C$action.c$63$5_0$168              action
     00001CCE  A$lcc1766418$486                   action
     00001CD0  A$lcc1766418$487                   action
     00001CD2  A$lcc1766418$492                   action
     00001CD2  C$action.c$64$6_0$169              action
ASxxxx Linker V03.00/V05.40 + sdld,  page 12.
Hexadecimal  [32-Bits]

Area                                    Addr        Size        Decimal Bytes (Attributes)
--------------------------------        ----        ----        ------- ----- ------------
_CODE                               00000200    0000319C =       12700. bytes (REL,CON)

      Value  Global                              Global Defined In Module
      -----  --------------------------------   ------------------------
     00001CD4  A$lcc1766418$493                   action
     00001CD6  A$lcc1766418$497                   action
     00001CD6  C$action.c$65$6_0$169              action
     00001CD9  A$lcc1766418$498                   action
     00001CDB  A$lcc1766418$499                   action
     00001CDD  A$lcc1766418$504                   action
     00001CDD  C$action.c$66$7_0$170              action
     00001CDE  A$lcc1766418$505                   action
     00001CE0  A$lcc1766418$509                   action
     00001CE0  C$action.c$67$7_0$170              action
     00001CE3  A$lcc1766418$510                   action
     00001CE5  A$lcc1766418$515                   action
     00001CE5  C$action.c$71$2_0$171              action
     00001CE8  A$lcc1766418$516                   action
     00001CE9  A$lcc1766418$517                   action
     00001CEB  A$lcc1766418$518                   action
     00001CEE  A$lcc1766418$519                   action
     00001CF0  A$lcc1766418$520                   action
     00001CF2  A$lcc1766418$521                   action
     00001CF4  A$lcc1766418$522                   action
     00001CF6  A$lcc1766418$523                   action
     00001CF8  A$lcc1766418$524                   action
     00001CFA  A$lcc1766418$525                   action
     00001CFC  A$lcc1766418$533                   action
     00001CFC  C$action.c$73$3_0$172              action
     00001CFC  C$action.c$74$3_0$172              action
     00001CFF  A$lcc1766418$534                   action
     00001D02  A$lcc1766418$538                   action
     00001D02  C$action.c$75$3_0$172              action
     00001D05  A$lcc1766418$539                   action
     00001D07  A$lcc1766418$540                   action
     00001D08  A$lcc1766418$541                   action
     00001D0B  A$lcc1766418$542                   action
     00001D0C  A$lcc1766418$543                   action
     00001D0E  A$lcc1766418$544                   action
     00001D0F  A$lcc1766418$545                   action
     00001D10  A$lcc1766418$546                   action
     00001D11  A$lcc1766418$547                   action
     00001D12  A$lcc1766418$548                   action
     00001D13  A$lcc1766418$549                   action
     00001D14  A$lcc1766418$550                   action
     00001D15  A$lcc1766418$551                   action
     00001D16  A$lcc1766418$552                   action
     00001D17  A$lcc1766418$553                   action
     00001D1A  A$lcc1766418$554                   action
     00001D1B  A$lcc1766418$555                   action
     00001D1C  A$lcc1766418$556                   action
     00001D1D  A$lcc1766418$557                   action
     00001D1F  A$lcc1766418$558                   action
     00001D20  A$lcc1766418$559                   action
     00001D23  A$lcc1766418$563                   action
ASxxxx Linker V03.00/V05.40 + sdld,  page 13.
Hexadecimal  [32-Bits]

Area                                    Addr        Size        Decimal Bytes (Attributes)
--------------------------------        ----        ----        ------- ----- ------------
_CODE                               00000200    0000319C =       12700. bytes (REL,CON)

      Value  Global                              Global Defined In Module
      -----  --------------------------------   ------------------------
     00001D23  C$action.c$76$3_0$172              action
     00001D25  A$lcc1766418$571                   action
     00001D25  C$action.c$77$3_0$172              action
     00001D25  C$action.c$78$3_0$172              action
     00001D28  A$lcc1766418$572                   action
     00001D2B  A$lcc1766418$576                   action
     00001D2B  C$action.c$79$3_0$172              action
     00001D2E  A$lcc1766418$577                   action
     00001D30  A$lcc1766418$578                   action
     00001D31  A$lcc1766418$579                   action
     00001D34  A$lcc1766418$580                   action
     00001D35  A$lcc1766418$581                   action
     00001D37  A$lcc1766418$582                   action
     00001D38  A$lcc1766418$583                   action
     00001D39  A$lcc1766418$584                   action
     00001D3A  A$lcc1766418$585                   action
     00001D3B  A$lcc1766418$586                   action
     00001D3C  A$lcc1766418$587                   action
     00001D3D  A$lcc1766418$588                   action
     00001D3E  A$lcc1766418$589                   action
     00001D3F  A$lcc1766418$590                   action
     00001D40  A$lcc1766418$591                   action
     00001D43  A$lcc1766418$592                   action
     00001D44  A$lcc1766418$593                   action
     00001D45  A$lcc1766418$594                   action
     00001D46  A$lcc1766418$595                   action
     00001D48  A$lcc1766418$596                   action
     00001D49  A$lcc1766418$597                   action
     00001D4C  A$lcc1766418$601                   action
     00001D4C  C$action.c$80$3_0$172              action
     00001D4E  A$lcc1766418$609                   action
     00001D4E  C$action.c$81$3_0$172              action
     00001D4E  C$action.c$82$3_0$172              action
     00001D51  A$lcc1766418$610                   action
     00001D54  A$lcc1766418$614                   action
     00001D54  C$action.c$83$3_0$172              action
     00001D56  A$lcc1766418$622                   action
     00001D56  C$action.c$84$3_0$172              action
     00001D56  C$action.c$85$3_0$172              action
     00001D59  A$lcc1766418$623                   action
     00001D5C  A$lcc1766418$631                   action
     00001D5C  C$action.c$89$2_0$171              action
     00001D5C  C$action.c$92$2_0$173              action
     00001D5F  A$lcc1766418$632                   action
     00001D60  A$lcc1766418$633                   action
     00001D62  A$lcc1766418$634                   action
     00001D65  A$lcc1766418$635                   action
     00001D67  A$lcc1766418$636                   action
     00001D69  A$lcc1766418$640                   action
     00001D69  C$action.c$94$3_0$174              action
     00001D6A  A$lcc1766418$641                   action
ASxxxx Linker V03.00/V05.40 + sdld,  page 14.
Hexadecimal  [32-Bits]

Area                                    Addr        Size        Decimal Bytes (Attributes)
--------------------------------        ----        ----        ------- ----- ------------
_CODE                               00000200    0000319C =       12700. bytes (REL,CON)

      Value  Global                              Global Defined In Module
      -----  --------------------------------   ------------------------
     00001D6D  A$lcc1766418$645                   action
     00001D6D  C$action.c$95$3_0$174              action
     00001D70  A$lcc1766418$646                   action
     00001D72  A$lcc1766418$647                   action
     00001D73  A$lcc1766418$648                   action
     00001D76  A$lcc1766418$649                   action
     00001D77  A$lcc1766418$650                   action
     00001D79  A$lcc1766418$651                   action
     00001D7A  A$lcc1766418$652                   action
     00001D7B  A$lcc1766418$653                   action
     00001D7C  A$lcc1766418$654                   action
     00001D7D  A$lcc1766418$655                   action
     00001D7E  A$lcc1766418$656                   action
     00001D7F  A$lcc1766418$657                   action
     00001D80  A$lcc1766418$658                   action
     00001D81  A$lcc1766418$659                   action
     00001D82  A$lcc1766418$660                   action
     00001D85  A$lcc1766418$661                   action
     00001D86  A$lcc1766418$662                   action
     00001D87  A$lcc1766418$663                   action
     00001D88  A$lcc1766418$664                   action
     00001D8A  A$lcc1766418$665                   action
     00001D8B  A$lcc1766418$666                   action
     00001D8E  A$lcc1766418$671                   action
     00001D8E  C$action.c$98$2_0$175              action
     00001D91  A$lcc1766418$672                   action
     00001D93  A$lcc1766418$673                   action
     00001D95  A$lcc1766418$674                   action
     00001D98  A$lcc1766418$675                   action
     00001D9A  A$lcc1766418$676                   action
     00001D9C  A$lcc1766418$680                   action
     00001D9C  C$action.c$100$3_0$176             action
     00001D9D  A$lcc1766418$681                   action
     00001DA0  A$lcc1766418$685                   action
     00001DA0  C$action.c$101$3_0$176             action
     00001DA3  A$lcc1766418$686                   action
     00001DA5  A$lcc1766418$687                   action
     00001DA6  A$lcc1766418$688                   action
     00001DA9  A$lcc1766418$689                   action
     00001DAA  A$lcc1766418$690                   action
     00001DAC  A$lcc1766418$691                   action
     00001DAD  A$lcc1766418$692                   action
     00001DAE  A$lcc1766418$693                   action
     00001DAF  A$lcc1766418$694                   action
     00001DB0  A$lcc1766418$695                   action
     00001DB1  A$lcc1766418$696                   action
     00001DB2  A$lcc1766418$697                   action
     00001DB3  A$lcc1766418$698                   action
     00001DB4  A$lcc1766418$699                   action
     00001DB5  A$lcc1766418$700                   action
     00001DB8  A$lcc1766418$701                   action
ASxxxx Linker V03.00/V05.40 + sdld,  page 15.
Hexadecimal  [32-Bits]

Area                                    Addr        Size        Decimal Bytes (Attributes)
--------------------------------        ----        ----        ------- ----- ------------
_CODE                               00000200    0000319C =       12700. bytes (REL,CON)

      Value  Global                              Global Defined In Module
      -----  --------------------------------   ------------------------
     00001DB9  A$lcc1766418$702                   action
     00001DBA  A$lcc1766418$703                   action
     00001DBB  A$lcc1766418$704                   action
     00001DBD  A$lcc1766418$705                   action
     00001DBE  A$lcc1766418$706                   action
     00001DC1  A$lcc1766418$711                   action
     00001DC1  C$action.c$52$1_0$162              action
     00001DC4  A$lcc1766418$712                   action
     00001DC5  A$lcc1766418$716                   action
     00001DC5  C$action.c$104$2_0$177             action
     00001DC8  A$lcc1766418$717                   action
     00001DCA  A$lcc1766418$718                   action
     00001DCC  A$lcc1766418$719                   action
     00001DCE  A$lcc1766418$720                   action
     00001DD0  A$lcc1766418$724                   action
     00001DD0  C$action.c$105$2_0$177             action
     00001DD1  A$lcc1766418$725                   action
     00001DD4  A$lcc1766418$730                   action
     00001DD4  C$action.c$106$2_0$178             action
     00001DD7  A$lcc1766418$731                   action
     00001DD9  A$lcc1766418$732                   action
     00001DDB  A$lcc1766418$733                   action
     00001DDD  A$lcc1766418$734                   action
     00001DDF  A$lcc1766418$738                   action
     00001DDF  C$action.c$107$2_0$178             action
     00001DE0  A$lcc1766418$739                   action
     00001DE3  A$lcc1766418$744                   action
     00001DE3  C$action.c$109$1_0$162             action
     00001DE6  A$lcc1766418$745                   action
     00001DE9  A$lcc1766418$749                   action
     00001DEA  A$lcc1766418$754                   action
     00001DEA  C$action.c$110$1_0$162             action
     00001DEA  XG$check_input$0$0                 action
     00001DEB  A$lcc1766419$59                    animation
     00001DEB  C$animation.c$7$0_0$135            animation
     00001DEB  G$init_animation$0$0               animation
     00001DEB  _init_animation                    animation
     00001DED  A$lcc1766419$60                    animation
     00001DEF  A$lcc1766419$61                    animation
     00001DF0  A$lcc1766419$62                    animation
     00001DF1  A$lcc1766419$63                    animation
     00001DF2  A$lcc1766419$64                    animation
     00001DF3  A$lcc1766419$65                    animation
     00001DF4  A$lcc1766419$69                    animation
     00001DF4  C$animation.c$12$1_0$135           animation
     00001DF6  A$lcc1766419$70                    animation
     00001DF7  A$lcc1766419$71                    animation
     00001DF8  A$lcc1766419$72                    animation
     00001DF9  A$lcc1766419$73                    animation
     00001DFA  A$lcc1766419$74                    animation
     00001DFB  A$lcc1766419$75                    animation
ASxxxx Linker V03.00/V05.40 + sdld,  page 16.
Hexadecimal  [32-Bits]

Area                                    Addr        Size        Decimal Bytes (Attributes)
--------------------------------        ----        ----        ------- ----- ------------
_CODE                               00000200    0000319C =       12700. bytes (REL,CON)

      Value  Global                              Global Defined In Module
      -----  --------------------------------   ------------------------
     00001DFC  A$lcc1766419$76                    animation
     00001DFE  A$lcc1766419$77                    animation
     00001E00  A$lcc1766419$78                    animation
     00001E01  A$lcc1766419$79                    animation
     00001E02  A$lcc1766419$80                    animation
     00001E03  A$lcc1766419$81                    animation
     00001E04  A$lcc1766419$82                    animation
     00001E05  A$lcc1766419$83                    animation
     00001E06  A$lcc1766419$87                    animation
     00001E06  C$animation.c$14$1_0$135           animation
     00001E07  A$lcc1766419$88                    animation
     00001E08  A$lcc1766419$89                    animation
     00001E09  A$lcc1766419$90                    animation
     00001E0B  A$lcc1766419$91                    animation
     00001E0C  A$lcc1766419$92                    animation
     00001E0D  A$lcc1766419$96                    animation
     00001E0D  C$animation.c$15$1_0$135           animation
     00001E0E  A$lcc1766419$97                    animation
     00001E0F  A$lcc1766419$98                    animation
     00001E10  A$lcc1766419$99                    animation
     00001E11  A$lcc1766419$100                   animation
     00001E12  A$lcc1766419$101                   animation
     00001E13  A$lcc1766419$102                   animation
     00001E15  A$lcc1766419$103                   animation
     00001E16  A$lcc1766419$104                   animation
     00001E17  A$lcc1766419$105                   animation
     00001E18  A$lcc1766419$109                   animation
     00001E18  C$animation.c$16$1_0$135           animation
     00001E1B  A$lcc1766419$110                   animation
     00001E1C  A$lcc1766419$111                   animation
     00001E1E  A$lcc1766419$115                   animation
     00001E1E  C$animation.c$17$1_0$135           animation
     00001E1F  A$lcc1766419$116                   animation
     00001E20  A$lcc1766419$117                   animation
     00001E21  A$lcc1766419$118                   animation
     00001E22  A$lcc1766419$119                   animation
     00001E24  A$lcc1766419$123                   animation
     00001E24  C$animation.c$18$1_0$135           animation
     00001E27  A$lcc1766419$124                   animation
     00001E28  A$lcc1766419$125                   animation
     00001E29  A$lcc1766419$126                   animation
     00001E2B  A$lcc1766419$127                   animation
     00001E2C  A$lcc1766419$128                   animation
     00001E2D  A$lcc1766419$129                   animation
     00001E2E  A$lcc1766419$133                   animation
     00001E2E  C$animation.c$21$1_0$135           animation
     00001E2F  A$lcc1766419$134                   animation
     00001E30  A$lcc1766419$135                   animation
     00001E31  A$lcc1766419$136                   animation
     00001E32  A$lcc1766419$137                   animation
     00001E34  A$lcc1766419$138                   animation
ASxxxx Linker V03.00/V05.40 + sdld,  page 17.
Hexadecimal  [32-Bits]

Area                                    Addr        Size        Decimal Bytes (Attributes)
--------------------------------        ----        ----        ------- ----- ------------
_CODE                               00000200    0000319C =       12700. bytes (REL,CON)

      Value  Global                              Global Defined In Module
      -----  --------------------------------   ------------------------
     00001E35  A$lcc1766419$139                   animation
     00001E36  A$lcc1766419$140                   animation
     00001E37  A$lcc1766419$141                   animation
     00001E38  A$lcc1766419$142                   animation
     00001E3B  A$lcc1766419$143                   animation
     00001E3C  A$lcc1766419$144                   animation
     00001E3D  A$lcc1766419$145                   animation
     00001E3E  A$lcc1766419$146                   animation
     00001E40  A$lcc1766419$147                   animation
     00001E41  A$lcc1766419$148                   animation
     00001E42  A$lcc1766419$149                   animation
     00001E43  A$lcc1766419$150                   animation
     00001E45  A$lcc1766419$151                   animation
     00001E46  A$lcc1766419$152                   animation
     00001E49  A$lcc1766419$153                   animation
     00001E4A  A$lcc1766419$154                   animation
     00001E4B  A$lcc1766419$155                   animation
     00001E4C  A$lcc1766419$156                   animation
     00001E4D  A$lcc1766419$160                   animation
     00001E4D  C$animation.c$24$2_0$135           animation
     00001E4F  A$lcc1766419$162                   animation
     00001E50  A$lcc1766419$163                   animation
     00001E51  A$lcc1766419$164                   animation
     00001E52  A$lcc1766419$165                   animation
     00001E53  A$lcc1766419$166                   animation
     00001E55  A$lcc1766419$167                   animation
     00001E56  A$lcc1766419$168                   animation
     00001E58  A$lcc1766419$173                   animation
     00001E58  C$animation.c$32$2_0$138           animation
     00001E5A  A$lcc1766419$174                   animation
     00001E5B  A$lcc1766419$175                   animation
     00001E5C  A$lcc1766419$176                   animation
     00001E5D  A$lcc1766419$177                   animation
     00001E60  A$lcc1766419$178                   animation
     00001E61  A$lcc1766419$179                   animation
     00001E62  A$lcc1766419$180                   animation
     00001E63  A$lcc1766419$181                   animation
     00001E64  A$lcc1766419$182                   animation
     00001E65  A$lcc1766419$183                   animation
     00001E67  A$lcc1766419$187                   animation
     00001E67  C$animation.c$33$2_0$138           animation
     00001E69  A$lcc1766419$188                   animation
     00001E6A  A$lcc1766419$189                   animation
     00001E6B  A$lcc1766419$194                   animation
     00001E6B  C$animation.c$34$2_0$135           animation
     00001E6D  A$lcc1766419$195                   animation
     00001E6E  A$lcc1766419$196                   animation
     00001E70  A$lcc1766419$197                   animation
     00001E71  A$lcc1766419$207                   animation
     00001E71  C$animation.c$36$2_0$140           animation
     00001E71  G$update_animation$0$0             animation
ASxxxx Linker V03.00/V05.40 + sdld,  page 18.
Hexadecimal  [32-Bits]

Area                                    Addr        Size        Decimal Bytes (Attributes)
--------------------------------        ----        ----        ------- ----- ------------
_CODE                               00000200    0000319C =       12700. bytes (REL,CON)

      Value  Global                              Global Defined In Module
      -----  --------------------------------   ------------------------
     00001E71  _update_animation                  animation
     00001E72  A$lcc1766419$208                   animation
     00001E73  A$lcc1766419$209                   animation
     00001E74  A$lcc1766419$210                   animation
     00001E75  A$lcc1766419$214                   animation
     00001E75  C$animation.c$38$1_0$140           animation
     00001E78  A$lcc1766419$215                   animation
     00001E79  A$lcc1766419$216                   animation
     00001E7A  A$lcc1766419$217                   animation
     00001E7B  A$lcc1766419$218                   animation
     00001E7C  A$lcc1766419$219                   animation
     00001E7D  A$lcc1766419$220                   animation
     00001E7E  A$lcc1766419$221                   animation
     00001E7F  A$lcc1766419$222                   animation
     00001E80  A$lcc1766419$223                   animation
     00001E82  A$lcc1766419$224                   animation
     00001E83  A$lcc1766419$225                   animation
     00001E84  A$lcc1766419$229                   animation
     00001E84  C$animation.c$40$1_0$140           animation
     00001E87  A$lcc1766419$230                   animation
     00001E88  A$lcc1766419$231                   animation
     00001E89  A$lcc1766419$232                   animation
     00001E8A  A$lcc1766419$233                   animation
     00001E8B  A$lcc1766419$234                   animation
     00001E8C  A$lcc1766419$235                   animation
     00001E8E  A$lcc1766419$236                   animation
     00001E8F  A$lcc1766419$237                   animation
     00001E90  A$lcc1766419$241                   animation
     00001E90  C$animation.c$41$2_0$141           animation
     00001E91  A$lcc1766419$242                   animation
     00001E92  A$lcc1766419$243                   animation
     00001E93  A$lcc1766419$244                   animation
     00001E94  A$lcc1766419$245                   animation
     00001E95  A$lcc1766419$246                   animation
     00001E96  A$lcc1766419$247                   animation
     00001E98  A$lcc1766419$248                   animation
     00001E99  A$lcc1766419$249                   animation
     00001E9B  A$lcc1766419$250                   animation
     00001E9C  A$lcc1766419$251                   animation
     00001E9D  A$lcc1766419$252                   animation
     00001E9F  A$lcc1766419$256                   animation
     00001E9F  C$animation.c$43$3_0$142           animation
     00001EA0  A$lcc1766419$257                   animation
     00001EA1  A$lcc1766419$261                   animation
     00001EA1  C$animation.c$44$3_0$142           animation
     00001EA2  A$lcc1766419$262                   animation
     00001EA3  A$lcc1766419$263                   animation
     00001EA4  A$lcc1766419$264                   animation
     00001EA5  A$lcc1766419$265                   animation
     00001EA6  A$lcc1766419$266                   animation
     00001EA7  A$lcc1766419$270                   animation
ASxxxx Linker V03.00/V05.40 + sdld,  page 19.
Hexadecimal  [32-Bits]

Area                                    Addr        Size        Decimal Bytes (Attributes)
--------------------------------        ----        ----        ------- ----- ------------
_CODE                               00000200    0000319C =       12700. bytes (REL,CON)

      Value  Global                              Global Defined In Module
      -----  --------------------------------   ------------------------
     00001EA7  C$animation.c$45$4_0$143           animation
     00001EA8  A$lcc1766419$271                   animation
     00001EA9  A$lcc1766419$272                   animation
     00001EAA  A$lcc1766419$273                   animation
     00001EAB  A$lcc1766419$274                   animation
     00001EAC  A$lcc1766419$275                   animation
     00001EAE  A$lcc1766419$279                   animation
     00001EAE  C$animation.c$46$4_0$143           animation
     00001EB0  A$lcc1766419$284                   animation
     00001EB1  A$lcc1766419$285                   animation
     00001EB2  A$lcc1766419$290                   animation
     00001EB2  C$animation.c$48$2_0$140           animation
     00001EB2  XG$update_animation$0$0            animation
     00001EB3  A$lcc1766419$300                   animation
     00001EB3  C$animation.c$50$2_0$145           animation
     00001EB3  G$set_animation$0$0                animation
     00001EB3  _set_animation                     animation
     00001EB4  A$lcc1766419$301                   animation
     00001EB5  A$lcc1766419$302                   animation
     00001EB6  A$lcc1766419$306                   animation
     00001EB6  C$animation.c$52$2_0$146           animation
     00001EB7  A$lcc1766419$307                   animation
     00001EB9  A$lcc1766419$308                   animation
     00001EBA  A$lcc1766419$309                   animation
     00001EBB  A$lcc1766419$310                   animation
     00001EBD  A$lcc1766419$311                   animation
     00001EBE  A$lcc1766419$312                   animation
     00001EBF  A$lcc1766419$313                   animation
     00001EC0  A$lcc1766419$314                   animation
     00001EC1  A$lcc1766419$321                   animation
     00001EC1  C$animation.c$53$2_0$146           animation
     00001EC1  C$animation.c$55$1_0$145           animation
     00001EC2  A$lcc1766419$322                   animation
     00001EC3  A$lcc1766419$326                   animation
     00001EC3  C$animation.c$56$1_1$147           animation
     00001EC4  A$lcc1766419$327                   animation
     00001EC5  A$lcc1766419$328                   animation
     00001EC6  A$lcc1766419$329                   animation
     00001EC7  A$lcc1766419$330                   animation
     00001EC9  A$lcc1766419$331                   animation
     00001ECA  A$lcc1766419$335                   animation
     00001ECA  C$animation.c$57$1_1$147           animation
     00001ECB  A$lcc1766419$336                   animation
     00001ECC  A$lcc1766419$337                   animation
     00001ECD  A$lcc1766419$338                   animation
     00001ECE  A$lcc1766419$339                   animation
     00001ECF  A$lcc1766419$340                   animation
     00001ED0  A$lcc1766419$344                   animation
     00001ED0  C$animation.c$58$1_1$147           animation
     00001ED3  A$lcc1766419$345                   animation
     00001ED4  A$lcc1766419$346                   animation
ASxxxx Linker V03.00/V05.40 + sdld,  page 20.
Hexadecimal  [32-Bits]

Area                                    Addr        Size        Decimal Bytes (Attributes)
--------------------------------        ----        ----        ------- ----- ------------
_CODE                               00000200    0000319C =       12700. bytes (REL,CON)

      Value  Global                              Global Defined In Module
      -----  --------------------------------   ------------------------
     00001ED6  A$lcc1766419$354                   animation
     00001ED6  C$animation.c$59$1_1$145           animation
     00001ED6  XG$set_animation$0$0               animation
     00001ED7  A$lcc1766421$52                    char_to_tile
     00001ED7  C$char_to_tile.c$3$0_0$3           char_to_tile
     00001ED7  G$char_to_tile$0$0                 char_to_tile
     00001ED7  _char_to_tile                      char_to_tile
     00001ED9  A$lcc1766421$53                    char_to_tile
     00001EDB  A$lcc1766421$54                    char_to_tile
     00001EDC  A$lcc1766421$58                    char_to_tile
     00001EDC  C$char_to_tile.c$4$2_0$3           char_to_tile
     00001EDE  A$lcc1766421$59                    char_to_tile
     00001EE0  A$lcc1766421$60                    char_to_tile
     00001EE1  A$lcc1766421$61                    char_to_tile
     00001EE3  A$lcc1766421$62                    char_to_tile
     00001EE4  A$lcc1766421$63                    char_to_tile
     00001EE6  A$lcc1766421$64                    char_to_tile
     00001EE7  A$lcc1766421$65                    char_to_tile
     00001EE9  A$lcc1766421$66                    char_to_tile
     00001EEA  A$lcc1766421$67                    char_to_tile
     00001EEC  A$lcc1766421$68                    char_to_tile
     00001EED  A$lcc1766421$69                    char_to_tile
     00001EEF  A$lcc1766421$70                    char_to_tile
     00001EF0  A$lcc1766421$71                    char_to_tile
     00001EF2  A$lcc1766421$72                    char_to_tile
     00001EF3  A$lcc1766421$73                    char_to_tile
     00001EF5  A$lcc1766421$74                    char_to_tile
     00001EF6  A$lcc1766421$75                    char_to_tile
     00001EF8  A$lcc1766421$76                    char_to_tile
     00001EF9  A$lcc1766421$77                    char_to_tile
     00001EFB  A$lcc1766421$78                    char_to_tile
     00001EFC  A$lcc1766421$79                    char_to_tile
     00001EFE  A$lcc1766421$80                    char_to_tile
     00001EFF  A$lcc1766421$81                    char_to_tile
     00001F01  A$lcc1766421$82                    char_to_tile
     00001F02  A$lcc1766421$83                    char_to_tile
     00001F04  A$lcc1766421$84                    char_to_tile
     00001F05  A$lcc1766421$85                    char_to_tile
     00001F07  A$lcc1766421$86                    char_to_tile
     00001F08  A$lcc1766421$87                    char_to_tile
     00001F0A  A$lcc1766421$88                    char_to_tile
     00001F0B  A$lcc1766421$89                    char_to_tile
     00001F0D  A$lcc1766421$90                    char_to_tile
     00001F0E  A$lcc1766421$91                    char_to_tile
     00001F10  A$lcc1766421$92                    char_to_tile
     00001F11  A$lcc1766421$93                    char_to_tile
     00001F13  A$lcc1766421$94                    char_to_tile
     00001F14  A$lcc1766421$95                    char_to_tile
     00001F16  A$lcc1766421$96                    char_to_tile
     00001F17  A$lcc1766421$97                    char_to_tile
     00001F19  A$lcc1766421$98                    char_to_tile
ASxxxx Linker V03.00/V05.40 + sdld,  page 21.
Hexadecimal  [32-Bits]

Area                                    Addr        Size        Decimal Bytes (Attributes)
--------------------------------        ----        ----        ------- ----- ------------
_CODE                               00000200    0000319C =       12700. bytes (REL,CON)

      Value  Global                              Global Defined In Module
      -----  --------------------------------   ------------------------
     00001F1A  A$lcc1766421$99                    char_to_tile
     00001F1C  A$lcc1766421$100                   char_to_tile
     00001F1D  A$lcc1766421$101                   char_to_tile
     00001F1F  A$lcc1766421$102                   char_to_tile
     00001F20  A$lcc1766421$103                   char_to_tile
     00001F22  A$lcc1766421$104                   char_to_tile
     00001F23  A$lcc1766421$105                   char_to_tile
     00001F25  A$lcc1766421$106                   char_to_tile
     00001F26  A$lcc1766421$107                   char_to_tile
     00001F28  A$lcc1766421$108                   char_to_tile
     00001F29  A$lcc1766421$109                   char_to_tile
     00001F2B  A$lcc1766421$110                   char_to_tile
     00001F2C  A$lcc1766421$111                   char_to_tile
     00001F2E  A$lcc1766421$112                   char_to_tile
     00001F2F  A$lcc1766421$113                   char_to_tile
     00001F31  A$lcc1766421$114                   char_to_tile
     00001F32  A$lcc1766421$115                   char_to_tile
     00001F34  A$lcc1766421$116                   char_to_tile
     00001F35  A$lcc1766421$117                   char_to_tile
     00001F37  A$lcc1766421$118                   char_to_tile
     00001F38  A$lcc1766421$122                   char_to_tile
     00001F38  C$char_to_tile.c$5$3_0$4           char_to_tile
     00001F39  A$lcc1766421$123                   char_to_tile
     00001F3A  A$lcc1766421$124                   char_to_tile
     00001F3B  A$lcc1766421$125                   char_to_tile
     00001F3C  A$lcc1766421$126                   char_to_tile
     00001F3F  A$lcc1766421$128                   char_to_tile
     00001F40  A$lcc1766421$129                   char_to_tile
     00001F42  A$lcc1766421$130                   char_to_tile
     00001F44  A$lcc1766421$134                   char_to_tile
     00001F44  C$char_to_tile.c$6$4_0$6           char_to_tile
     00001F47  A$lcc1766421$135                   char_to_tile
     00001F48  A$lcc1766421$136                   char_to_tile
     00001F49  A$lcc1766421$137                   char_to_tile
     00001F4A  A$lcc1766421$138                   char_to_tile
     00001F4C  A$lcc1766421$139                   char_to_tile
     00001F4D  A$lcc1766421$140                   char_to_tile
     00001F4E  A$lcc1766421$141                   char_to_tile
     00001F50  A$lcc1766421$145                   char_to_tile
     00001F50  C$char_to_tile.c$7$5_0$7           char_to_tile
     00001F52  A$lcc1766421$146                   char_to_tile
     00001F53  A$lcc1766421$147                   char_to_tile
     00001F55  A$lcc1766421$148                   char_to_tile
     00001F56  A$lcc1766421$149                   char_to_tile
     00001F58  A$lcc1766421$154                   char_to_tile
     00001F58  C$char_to_tile.c$5$2_0$4           char_to_tile
     00001F59  A$lcc1766421$155                   char_to_tile
     00001F5B  A$lcc1766421$156                   char_to_tile
     00001F5C  A$lcc1766421$157                   char_to_tile
     00001F5D  A$lcc1766421$158                   char_to_tile
     00001F5E  A$lcc1766421$159                   char_to_tile
ASxxxx Linker V03.00/V05.40 + sdld,  page 22.
Hexadecimal  [32-Bits]

Area                                    Addr        Size        Decimal Bytes (Attributes)
--------------------------------        ----        ----        ------- ----- ------------
_CODE                               00000200    0000319C =       12700. bytes (REL,CON)

      Value  Global                              Global Defined In Module
      -----  --------------------------------   ------------------------
     00001F60  A$lcc1766421$164                   char_to_tile
     00001F60  C$char_to_tile.c$11$1_0$3          char_to_tile
     00001F63  A$lcc1766421$169                   char_to_tile
     00001F65  A$lcc1766421$174                   char_to_tile
     00001F65  C$char_to_tile.c$12$1_0$3          char_to_tile
     00001F65  XG$char_to_tile$0$0                char_to_tile
     00001F66  A$lcc1766422$52                    draw
     00001F66  C$draw.c$6$0_0$136                 draw
     00001F66  G$draw_actor$0$0                   draw
     00001F66  _draw_actor                        draw
     00001F68  A$lcc1766422$53                    draw
     00001F6A  A$lcc1766422$54                    draw
     00001F6B  A$lcc1766422$58                    draw
     00001F6B  C$draw.c$8$1_0$136                 draw
     00001F6E  A$lcc1766422$59                    draw
     00001F6F  A$lcc1766422$60                    draw
     00001F71  A$lcc1766422$61                    draw
     00001F72  A$lcc1766422$62                    draw
     00001F73  A$lcc1766422$63                    draw
     00001F74  A$lcc1766422$64                    draw
     00001F75  A$lcc1766422$65                    draw
     00001F77  A$lcc1766422$66                    draw
     00001F78  A$lcc1766422$70                    draw
     00001F78  C$draw.c$9$1_0$136                 draw
     00001F7B  A$lcc1766422$71                    draw
     00001F7D  A$lcc1766422$72                    draw
     00001F7E  A$lcc1766422$73                    draw
     00001F80  A$lcc1766422$74                    draw
     00001F81  A$lcc1766422$75                    draw
     00001F82  A$lcc1766422$76                    draw
     00001F83  A$lcc1766422$77                    draw
     00001F84  A$lcc1766422$78                    draw
     00001F86  A$lcc1766422$79                    draw
     00001F87  A$lcc1766422$83                    draw
     00001F87  C$draw.c$11$1_0$136                draw
     00001F8A  A$lcc1766422$84                    draw
     00001F8C  A$lcc1766422$85                    draw
     00001F8D  A$lcc1766422$86                    draw
     00001F8F  A$lcc1766422$87                    draw
     00001F90  A$lcc1766422$88                    draw
     00001F91  A$lcc1766422$89                    draw
     00001F92  A$lcc1766422$90                    draw
     00001F93  A$lcc1766422$91                    draw
     00001F94  A$lcc1766422$92                    draw
     00001F95  A$lcc1766422$93                    draw
     00001F96  A$lcc1766422$94                    draw
     00001F97  A$lcc1766422$95                    draw
     00001F98  A$lcc1766422$96                    draw
     00001F99  A$lcc1766422$97                    draw
     00001F9A  A$lcc1766422$98                    draw
     00001F9B  A$lcc1766422$102                   draw
ASxxxx Linker V03.00/V05.40 + sdld,  page 23.
Hexadecimal  [32-Bits]

Area                                    Addr        Size        Decimal Bytes (Attributes)
--------------------------------        ----        ----        ------- ----- ------------
_CODE                               00000200    0000319C =       12700. bytes (REL,CON)

      Value  Global                              Global Defined In Module
      -----  --------------------------------   ------------------------
     00001F9B  C$draw.c$12$1_0$136                draw
     00001F9E  A$lcc1766422$103                   draw
     00001F9F  A$lcc1766422$104                   draw
     00001FA0  A$lcc1766422$105                   draw
     00001FA1  A$lcc1766422$106                   draw
     00001FA2  A$lcc1766422$107                   draw
     00001FA3  A$lcc1766422$108                   draw
     00001FA4  A$lcc1766422$109                   draw
     00001FA5  A$lcc1766422$110                   draw
     00001FA6  A$lcc1766422$111                   draw
     00001FA8  A$lcc1766422$112                   draw
     00001FA9  A$lcc1766422$113                   draw
     00001FAA  A$lcc1766422$117                   draw
     00001FAA  C$draw.c$14$1_0$136                draw
     00001FAD  A$lcc1766422$118                   draw
     00001FAE  A$lcc1766422$119                   draw
     00001FAF  A$lcc1766422$120                   draw
     00001FB1  A$lcc1766422$121                   draw
     00001FB2  A$lcc1766422$125                   draw
     00001FB2  C$draw.c$15$1_0$136                draw
     00001FB3  A$lcc1766422$126                   draw
     00001FB4  A$lcc1766422$127                   draw
     00001FB5  A$lcc1766422$128                   draw
     00001FB6  A$lcc1766422$129                   draw
     00001FB7  A$lcc1766422$130                   draw
     00001FB8  A$lcc1766422$131                   draw
     00001FBB  A$lcc1766422$132                   draw
     00001FBC  A$lcc1766422$133                   draw
     00001FBD  A$lcc1766422$134                   draw
     00001FBE  A$lcc1766422$135                   draw
     00001FC0  A$lcc1766422$139                   draw
     00001FC0  C$draw.c$17$1_0$136                draw
     00001FC1  A$lcc1766422$140                   draw
     00001FC2  A$lcc1766422$141                   draw
     00001FC3  A$lcc1766422$142                   draw
     00001FC4  A$lcc1766422$143                   draw
     00001FC5  A$lcc1766422$147                   draw
     00001FC5  C$draw.c$18$1_0$136                draw
     00001FC7  A$lcc1766422$148                   draw
     00001FC8  A$lcc1766422$149                   draw
     00001FC9  A$lcc1766422$150                   draw
     00001FCA  A$lcc1766422$151                   draw
     00001FCB  A$lcc1766422$152                   draw
     00001FCC  A$lcc1766422$153                   draw
     00001FCD  A$lcc1766422$154                   draw
     00001FCE  A$lcc1766422$155                   draw
     00001FCF  A$lcc1766422$156                   draw
     00001FD0  A$lcc1766422$157                   draw
     00001FD1  A$lcc1766422$158                   draw
     00001FD2  A$lcc1766422$159                   draw
     00001FD3  A$lcc1766422$160                   draw
ASxxxx Linker V03.00/V05.40 + sdld,  page 24.
Hexadecimal  [32-Bits]

Area                                    Addr        Size        Decimal Bytes (Attributes)
--------------------------------        ----        ----        ------- ----- ------------
_CODE                               00000200    0000319C =       12700. bytes (REL,CON)

      Value  Global                              Global Defined In Module
      -----  --------------------------------   ------------------------
     00001FD4  A$lcc1766422$161                   draw
     00001FD5  A$lcc1766422$165                   draw
     00001FD5  C$draw.c$20$2_0$137                draw
     00001FD7  A$lcc1766422$166                   draw
     00001FD8  A$lcc1766422$173                   draw
     00001FD8  C$draw.c$21$2_0$137                draw
     00001FD8  C$draw.c$24$2_0$136                draw
     00001FDB  A$lcc1766422$174                   draw
     00001FDD  A$lcc1766422$176                   draw
     00001FDE  A$lcc1766422$177                   draw
     00001FE0  A$lcc1766422$178                   draw
     00001FE1  A$lcc1766422$179                   draw
     00001FE3  A$lcc1766422$181                   draw
     00001FE4  A$lcc1766422$182                   draw
     00001FE5  A$lcc1766422$183                   draw
     00001FE6  A$lcc1766422$184                   draw
     00001FE7  A$lcc1766422$185                   draw
     00001FE8  A$lcc1766422$186                   draw
     00001FEA  A$lcc1766422$187                   draw
     00001FED  A$lcc1766422$188                   draw
     00001FEE  A$lcc1766422$189                   draw
     00001FEF  A$lcc1766422$190                   draw
     00001FF0  A$lcc1766422$191                   draw
     00001FF1  A$lcc1766422$193                   draw
     00001FF2  A$lcc1766422$194                   draw
     00001FF3  A$lcc1766422$195                   draw
     00001FF4  A$lcc1766422$196                   draw
     00001FF5  A$lcc1766422$197                   draw
     00001FF6  A$lcc1766422$198                   draw
     00001FF7  A$lcc1766422$199                   draw
     00001FFA  A$lcc1766422$200                   draw
     00001FFB  A$lcc1766422$201                   draw
     00001FFC  A$lcc1766422$202                   draw
     00001FFD  A$lcc1766422$203                   draw
     00001FFE  A$lcc1766422$204                   draw
     00001FFF  A$lcc1766422$208                   draw
     00001FFF  C$draw.c$24$2_0$138                draw
     00002000  A$lcc1766422$209                   draw
     00002002  A$lcc1766422$214                   draw
     00002002  C$draw.c$28$2_0$139                draw
     00002004  A$lcc1766422$215                   draw
     00002005  A$lcc1766422$216                   draw
     00002006  A$lcc1766422$217                   draw
     00002008  A$lcc1766422$219                   draw
     0000200A  A$lcc1766422$220                   draw
     0000200B  A$lcc1766422$222                   draw
     0000200C  A$lcc1766422$223                   draw
     0000200D  A$lcc1766422$224                   draw
     0000200E  A$lcc1766422$225                   draw
     0000200F  A$lcc1766422$226                   draw
     00002010  A$lcc1766422$227                   draw
ASxxxx Linker V03.00/V05.40 + sdld,  page 25.
Hexadecimal  [32-Bits]

Area                                    Addr        Size        Decimal Bytes (Attributes)
--------------------------------        ----        ----        ------- ----- ------------
_CODE                               00000200    0000319C =       12700. bytes (REL,CON)

      Value  Global                              Global Defined In Module
      -----  --------------------------------   ------------------------
     00002013  A$lcc1766422$228                   draw
     00002014  A$lcc1766422$229                   draw
     00002015  A$lcc1766422$230                   draw
     00002016  A$lcc1766422$232                   draw
     00002018  A$lcc1766422$233                   draw
     00002019  A$lcc1766422$234                   draw
     0000201A  A$lcc1766422$235                   draw
     0000201B  A$lcc1766422$236                   draw
     0000201C  A$lcc1766422$237                   draw
     0000201D  A$lcc1766422$241                   draw
     0000201D  C$draw.c$30$2_0$139                draw
     00002020  A$lcc1766422$246                   draw
     00002020  C$draw.c$32$3_0$141                draw
     00002022  A$lcc1766422$247                   draw
     00002023  A$lcc1766422$248                   draw
     00002025  A$lcc1766422$249                   draw
     00002027  A$lcc1766422$253                   draw
     0000202A  A$lcc1766422$254                   draw
     0000202C  A$lcc1766422$255                   draw
     0000202D  A$lcc1766422$256                   draw
     0000202F  A$lcc1766422$257                   draw
     00002030  A$lcc1766422$258                   draw
     00002031  A$lcc1766422$259                   draw
     00002032  A$lcc1766422$260                   draw
     00002033  A$lcc1766422$261                   draw
     00002034  A$lcc1766422$265                   draw
     00002034  C$draw.c$30$2_0$136                draw
     00002036  A$lcc1766422$266                   draw
     00002037  A$lcc1766422$270                   draw
     00002037  C$draw.c$34$5_0$143                draw
     00002039  A$lcc1766422$271                   draw
     0000203B  A$lcc1766422$274                   draw
     0000203C  A$lcc1766422$275                   draw
     0000203D  A$lcc1766422$276                   draw
     0000203E  A$lcc1766422$277                   draw
     0000203F  A$lcc1766422$278                   draw
     00002040  A$lcc1766422$279                   draw
     00002043  A$lcc1766422$280                   draw
     00002044  A$lcc1766422$281                   draw
     00002045  A$lcc1766422$282                   draw
     00002046  A$lcc1766422$284                   draw
     00002048  A$lcc1766422$285                   draw
     00002049  A$lcc1766422$286                   draw
     0000204A  A$lcc1766422$287                   draw
     0000204B  A$lcc1766422$289                   draw
     0000204C  A$lcc1766422$290                   draw
     0000204D  A$lcc1766422$291                   draw
     0000204E  A$lcc1766422$292                   draw
     00002050  A$lcc1766422$293                   draw
     00002051  A$lcc1766422$294                   draw
     00002053  A$lcc1766422$296                   draw
ASxxxx Linker V03.00/V05.40 + sdld,  page 26.
Hexadecimal  [32-Bits]

Area                                    Addr        Size        Decimal Bytes (Attributes)
--------------------------------        ----        ----        ------- ----- ------------
_CODE                               00000200    0000319C =       12700. bytes (REL,CON)

      Value  Global                              Global Defined In Module
      -----  --------------------------------   ------------------------
     00002054  A$lcc1766422$297                   draw
     00002057  A$lcc1766422$298                   draw
     00002058  A$lcc1766422$299                   draw
     00002059  A$lcc1766422$300                   draw
     0000205A  A$lcc1766422$301                   draw
     0000205B  A$lcc1766422$302                   draw
     0000205C  A$lcc1766422$303                   draw
     0000205D  A$lcc1766422$304                   draw
     0000205E  A$lcc1766422$306                   draw
     0000205F  A$lcc1766422$307                   draw
     00002060  A$lcc1766422$308                   draw
     00002061  A$lcc1766422$309                   draw
     00002063  A$lcc1766422$310                   draw
     00002064  A$lcc1766422$311                   draw
     00002065  A$lcc1766422$315                   draw
     00002065  C$draw.c$37$5_0$143                draw
     00002068  A$lcc1766422$319                   draw
     00002069  A$lcc1766422$320                   draw
     0000206A  A$lcc1766422$321                   draw
     0000206B  A$lcc1766422$322                   draw
     0000206C  A$lcc1766422$323                   draw
     0000206D  A$lcc1766422$324                   draw
     00002070  A$lcc1766422$325                   draw
     00002071  A$lcc1766422$326                   draw
     00002072  A$lcc1766422$327                   draw
     00002073  A$lcc1766422$329                   draw
     00002075  A$lcc1766422$330                   draw
     00002076  A$lcc1766422$331                   draw
     00002077  A$lcc1766422$332                   draw
     00002078  A$lcc1766422$333                   draw
     00002079  A$lcc1766422$334                   draw
     0000207A  A$lcc1766422$336                   draw
     0000207B  A$lcc1766422$337                   draw
     0000207D  A$lcc1766422$338                   draw
     0000207E  A$lcc1766422$339                   draw
     00002080  A$lcc1766422$341                   draw
     00002081  A$lcc1766422$342                   draw
     00002082  A$lcc1766422$343                   draw
     00002083  A$lcc1766422$344                   draw
     00002084  A$lcc1766422$345                   draw
     00002085  A$lcc1766422$346                   draw
     00002088  A$lcc1766422$347                   draw
     00002089  A$lcc1766422$349                   draw
     0000208A  A$lcc1766422$350                   draw
     0000208C  A$lcc1766422$351                   draw
     0000208D  A$lcc1766422$352                   draw
     0000208E  A$lcc1766422$353                   draw
     0000208F  A$lcc1766422$354                   draw
     00002090  A$lcc1766422$358                   draw
     00002090  C$draw.c$42$3_0$141                draw
     00002092  A$lcc1766422$363                   draw
ASxxxx Linker V03.00/V05.40 + sdld,  page 27.
Hexadecimal  [32-Bits]

Area                                    Addr        Size        Decimal Bytes (Attributes)
--------------------------------        ----        ----        ------- ----- ------------
_CODE                               00000200    0000319C =       12700. bytes (REL,CON)

      Value  Global                              Global Defined In Module
      -----  --------------------------------   ------------------------
     00002092  C$draw.c$45$4_0$146                draw
     00002094  A$lcc1766422$364                   draw
     00002095  A$lcc1766422$365                   draw
     00002097  A$lcc1766422$366                   draw
     00002099  A$lcc1766422$368                   draw
     0000209B  A$lcc1766422$369                   draw
     0000209C  A$lcc1766422$371                   draw
     0000209D  A$lcc1766422$372                   draw
     0000209E  A$lcc1766422$373                   draw
     0000209F  A$lcc1766422$374                   draw
     000020A0  A$lcc1766422$375                   draw
     000020A1  A$lcc1766422$376                   draw
     000020A4  A$lcc1766422$377                   draw
     000020A5  A$lcc1766422$378                   draw
     000020A6  A$lcc1766422$379                   draw
     000020A7  A$lcc1766422$381                   draw
     000020A9  A$lcc1766422$382                   draw
     000020AA  A$lcc1766422$383                   draw
     000020AB  A$lcc1766422$384                   draw
     000020AC  A$lcc1766422$385                   draw
     000020AD  A$lcc1766422$386                   draw
     000020AE  A$lcc1766422$388                   draw
     000020AF  A$lcc1766422$389                   draw
     000020B1  A$lcc1766422$390                   draw
     000020B3  A$lcc1766422$391                   draw
     000020B4  A$lcc1766422$392                   draw
     000020B5  A$lcc1766422$393                   draw
     000020B7  A$lcc1766422$395                   draw
     000020B8  A$lcc1766422$396                   draw
     000020B9  A$lcc1766422$397                   draw
     000020BA  A$lcc1766422$398                   draw
     000020BB  A$lcc1766422$399                   draw
     000020BC  A$lcc1766422$400                   draw
     000020BF  A$lcc1766422$401                   draw
     000020C0  A$lcc1766422$403                   draw
     000020C1  A$lcc1766422$404                   draw
     000020C3  A$lcc1766422$405                   draw
     000020C4  A$lcc1766422$406                   draw
     000020C5  A$lcc1766422$407                   draw
     000020C6  A$lcc1766422$408                   draw
     000020C7  A$lcc1766422$410                   draw
     000020C9  A$lcc1766422$411                   draw
     000020CA  A$lcc1766422$412                   draw
     000020CC  A$lcc1766422$413                   draw
     000020CD  A$lcc1766422$414                   draw
     000020CE  A$lcc1766422$415                   draw
     000020D0  A$lcc1766422$417                   draw
     000020D1  A$lcc1766422$418                   draw
     000020D2  A$lcc1766422$419                   draw
     000020D3  A$lcc1766422$420                   draw
     000020D4  A$lcc1766422$421                   draw
ASxxxx Linker V03.00/V05.40 + sdld,  page 28.
Hexadecimal  [32-Bits]

Area                                    Addr        Size        Decimal Bytes (Attributes)
--------------------------------        ----        ----        ------- ----- ------------
_CODE                               00000200    0000319C =       12700. bytes (REL,CON)

      Value  Global                              Global Defined In Module
      -----  --------------------------------   ------------------------
     000020D5  A$lcc1766422$422                   draw
     000020D8  A$lcc1766422$423                   draw
     000020D9  A$lcc1766422$424                   draw
     000020DA  A$lcc1766422$425                   draw
     000020DB  A$lcc1766422$427                   draw
     000020DD  A$lcc1766422$428                   draw
     000020DE  A$lcc1766422$429                   draw
     000020DF  A$lcc1766422$430                   draw
     000020E0  A$lcc1766422$431                   draw
     000020E1  A$lcc1766422$433                   draw
     000020E2  A$lcc1766422$434                   draw
     000020E3  A$lcc1766422$436                   draw
     000020E4  A$lcc1766422$437                   draw
     000020E7  A$lcc1766422$438                   draw
     000020E8  A$lcc1766422$439                   draw
     000020E9  A$lcc1766422$440                   draw
     000020EA  A$lcc1766422$441                   draw
     000020EB  A$lcc1766422$442                   draw
     000020EC  A$lcc1766422$443                   draw
     000020ED  A$lcc1766422$444                   draw
     000020EE  A$lcc1766422$446                   draw
     000020EF  A$lcc1766422$447                   draw
     000020F0  A$lcc1766422$448                   draw
     000020F1  A$lcc1766422$449                   draw
     000020F3  A$lcc1766422$450                   draw
     000020F4  A$lcc1766422$451                   draw
     000020F5  A$lcc1766422$459                   draw
     000020F5  C$draw.c$50$2_0$136                draw
     000020F7  A$lcc1766422$464                   draw
     000020F7  C$draw.c$52$2_0$136                draw
     000020F7  XG$draw_actor$0$0                  draw
     000020F8  A$lcc1766423$60                    entity
     000020F8  C$entity.c$7$0_0$3                 entity
     000020F8  C$entity.c$9$2_0$4                 entity
     000020F8  G$create_entity$0$0                entity
     000020F8  _create_entity                     entity
     000020FB  A$lcc1766423$61                    entity
     000020FD  A$lcc1766423$62                    entity
     000020FF  A$lcc1766423$66                    entity
     000020FF  C$entity.c$10$3_0$5                entity
     00002100  A$lcc1766423$67                    entity
     00002101  A$lcc1766423$72                    entity
     00002101  C$entity.c$13$1_0$3                entity
     00002104  A$lcc1766423$73                    entity
     00002105  A$lcc1766423$74                    entity
     00002108  A$lcc1766423$75                    entity
     00002109  A$lcc1766423$76                    entity
     0000210A  A$lcc1766423$84                    entity
     0000210A  C$entity.c$14$1_0$3                entity
     0000210A  XG$create_entity$0$0               entity
     0000210B  A$lcc1766423$97                    entity
ASxxxx Linker V03.00/V05.40 + sdld,  page 29.
Hexadecimal  [32-Bits]

Area                                    Addr        Size        Decimal Bytes (Attributes)
--------------------------------        ----        ----        ------- ----- ------------
_CODE                               00000200    0000319C =       12700. bytes (REL,CON)

      Value  Global                              Global Defined In Module
      -----  --------------------------------   ------------------------
     0000210B  C$entity.c$16$1_0$6                entity
     0000210B  C$entity.c$18$1_0$6                entity
     0000210B  G$reset_entities$0$0               entity
     0000210B  _reset_entities                    entity
     0000210E  A$lcc1766423$98                    entity
     00002110  A$lcc1766423$106                   entity
     00002110  C$entity.c$19$1_0$6                entity
     00002110  XG$reset_entities$0$0              entity
     00002111  A$lcc1766425$56                    global_action
     00002111  C$global_action.c$4$0_0$142        global_action
     00002111  C$global_action.c$6$1_0$142        global_action
     00002111  G$check_global_input$0$0           global_action
     00002111  _check_global_input                global_action
     00002114  A$lcc1766425$60                    global_action
     00002114  C$global_action.c$9$1_0$142        global_action
     00002117  A$lcc1766425$61                    global_action
     0000211A  A$lcc1766425$69                    global_action
     0000211A  C$global_action.c$10$1_0$142       global_action
     0000211A  XG$check_global_input$0$0          global_action
     0000211B  A$lcc1766427$57                    inventory
     0000211B  C$inventory.c$11$0_0$140           inventory
     0000211B  G$init_arrow$0$0                   inventory
     0000211B  _init_arrow                        inventory
     0000211C  A$lcc1766427$58                    inventory
     0000211D  A$lcc1766427$62                    inventory
     0000211D  C$inventory.c$13$1_0$140           inventory
     00002120  A$lcc1766427$63                    inventory
     00002121  A$lcc1766427$64                    inventory
     00002123  A$lcc1766427$65                    inventory
     00002126  A$lcc1766427$66                    inventory
     00002127  A$lcc1766427$67                    inventory
     00002129  A$lcc1766427$71                    inventory
     00002129  C$inventory.c$14$1_0$140           inventory
     0000212C  A$lcc1766427$72                    inventory
     0000212F  A$lcc1766427$73                    inventory
     00002130  A$lcc1766427$74                    inventory
     00002132  A$lcc1766427$75                    inventory
     00002133  A$lcc1766427$76                    inventory
     00002135  A$lcc1766427$80                    inventory
     00002135  C$inventory.c$16$1_0$140           inventory
     00002138  A$lcc1766427$81                    inventory
     0000213B  A$lcc1766427$82                    inventory
     0000213C  A$lcc1766427$83                    inventory
     0000213D  A$lcc1766427$84                    inventory
     0000213F  A$lcc1766427$85                    inventory
     00002140  A$lcc1766427$86                    inventory
     00002143  A$lcc1766427$87                    inventory
     00002145  A$lcc1766427$88                    inventory
     00002146  A$lcc1766427$89                    inventory
     00002148  A$lcc1766427$90                    inventory
     0000214A  A$lcc1766427$91                    inventory
ASxxxx Linker V03.00/V05.40 + sdld,  page 30.
Hexadecimal  [32-Bits]

Area                                    Addr        Size        Decimal Bytes (Attributes)
--------------------------------        ----        ----        ------- ----- ------------
_CODE                               00000200    0000319C =       12700. bytes (REL,CON)

      Value  Global                              Global Defined In Module
      -----  --------------------------------   ------------------------
     0000214B  A$lcc1766427$92                    inventory
     0000214C  A$lcc1766427$93                    inventory
     0000214D  A$lcc1766427$94                    inventory
     0000214E  A$lcc1766427$95                    inventory
     0000214F  A$lcc1766427$96                    inventory
     00002150  A$lcc1766427$100                   inventory
     00002150  C$inventory.c$17$1_0$140           inventory
     00002153  A$lcc1766427$101                   inventory
     00002154  A$lcc1766427$102                   inventory
     00002155  A$lcc1766427$103                   inventory
     00002157  A$lcc1766427$104                   inventory
     00002158  A$lcc1766427$105                   inventory
     0000215A  A$lcc1766427$106                   inventory
     0000215C  A$lcc1766427$107                   inventory
     0000215D  A$lcc1766427$108                   inventory
     0000215E  A$lcc1766427$109                   inventory
     00002160  A$lcc1766427$110                   inventory
     00002161  A$lcc1766427$111                   inventory
     00002162  A$lcc1766427$112                   inventory
     00002163  A$lcc1766427$113                   inventory
     00002164  A$lcc1766427$114                   inventory
     00002165  A$lcc1766427$115                   inventory
     00002166  A$lcc1766427$116                   inventory
     00002167  A$lcc1766427$120                   inventory
     00002167  C$inventory.c$19$1_0$140           inventory
     0000216A  A$lcc1766427$121                   inventory
     0000216B  A$lcc1766427$122                   inventory
     0000216D  A$lcc1766427$123                   inventory
     00002170  A$lcc1766427$124                   inventory
     00002171  A$lcc1766427$125                   inventory
     00002173  A$lcc1766427$129                   inventory
     00002173  C$inventory.c$20$1_0$140           inventory
     00002176  A$lcc1766427$130                   inventory
     00002179  A$lcc1766427$131                   inventory
     0000217A  A$lcc1766427$132                   inventory
     0000217C  A$lcc1766427$133                   inventory
     0000217D  A$lcc1766427$134                   inventory
     0000217F  A$lcc1766427$138                   inventory
     0000217F  C$inventory.c$21$1_0$140           inventory
     00002182  A$lcc1766427$139                   inventory
     00002185  A$lcc1766427$140                   inventory
     00002186  A$lcc1766427$141                   inventory
     00002188  A$lcc1766427$142                   inventory
     00002189  A$lcc1766427$143                   inventory
     0000218B  A$lcc1766427$147                   inventory
     0000218B  C$inventory.c$23$2_0$141           inventory
     0000218D  A$lcc1766427$148                   inventory
     0000218F  A$lcc1766427$149                   inventory
     00002190  A$lcc1766427$150                   inventory
     00002192  A$lcc1766427$154                   inventory
     00002192  C$inventory.c$25$1_1$141           inventory
ASxxxx Linker V03.00/V05.40 + sdld,  page 31.
Hexadecimal  [32-Bits]

Area                                    Addr        Size        Decimal Bytes (Attributes)
--------------------------------        ----        ----        ------- ----- ------------
_CODE                               00000200    0000319C =       12700. bytes (REL,CON)

      Value  Global                              Global Defined In Module
      -----  --------------------------------   ------------------------
     00002195  A$lcc1766427$155                   inventory
     00002196  A$lcc1766427$156                   inventory
     00002198  A$lcc1766427$157                   inventory
     00002199  A$lcc1766427$158                   inventory
     0000219A  A$lcc1766427$159                   inventory
     0000219B  A$lcc1766427$160                   inventory
     0000219C  A$lcc1766427$161                   inventory
     0000219D  A$lcc1766427$162                   inventory
     0000219E  A$lcc1766427$163                   inventory
     0000219F  A$lcc1766427$164                   inventory
     000021A0  A$lcc1766427$165                   inventory
     000021A1  A$lcc1766427$166                   inventory
     000021A4  A$lcc1766427$167                   inventory
     000021A5  A$lcc1766427$168                   inventory
     000021A6  A$lcc1766427$169                   inventory
     000021A7  A$lcc1766427$170                   inventory
     000021AA  A$lcc1766427$171                   inventory
     000021AB  A$lcc1766427$172                   inventory
     000021AD  A$lcc1766427$173                   inventory
     000021AE  A$lcc1766427$174                   inventory
     000021AF  A$lcc1766427$175                   inventory
     000021B2  A$lcc1766427$176                   inventory
     000021B3  A$lcc1766427$177                   inventory
     000021B4  A$lcc1766427$178                   inventory
     000021B5  A$lcc1766427$179                   inventory
     000021B6  A$lcc1766427$180                   inventory
     000021B7  A$lcc1766427$181                   inventory
     000021B8  A$lcc1766427$182                   inventory
     000021BB  A$lcc1766427$186                   inventory
     000021BE  A$lcc1766427$187                   inventory
     000021BF  A$lcc1766427$192                   inventory
     000021BF  C$inventory.c$26$1_1$140           inventory
     000021BF  XG$init_arrow$0$0                  inventory
     000021C0  A$lcc1766428$63                    inventory_input
     000021C0  C$inventory_input.c$19$0_0$145     inventory_input
     000021C0  C$inventory_input.c$21$1_0$145     inventory_input
     000021C0  G$inventory_input$0$0              inventory_input
     000021C0  _inventory_input                   inventory_input
     000021C3  A$lcc1766428$64                    inventory_input
     000021C6  A$lcc1766428$65                    inventory_input
     000021C7  A$lcc1766428$69                    inventory_input
     000021C7  C$inventory_input.c$23$2_0$146     inventory_input
     000021C9  A$lcc1766428$70                    inventory_input
     000021CB  A$lcc1766428$71                    inventory_input
     000021CE  A$lcc1766428$72                    inventory_input
     000021D0  A$lcc1766428$73                    inventory_input
     000021D2  A$lcc1766428$77                    inventory_input
     000021D2  C$inventory_input.c$25$3_0$147     inventory_input
     000021D5  A$lcc1766428$78                    inventory_input
     000021D8  A$lcc1766428$79                    inventory_input
     000021D9  A$lcc1766428$80                    inventory_input
ASxxxx Linker V03.00/V05.40 + sdld,  page 32.
Hexadecimal  [32-Bits]

Area                                    Addr        Size        Decimal Bytes (Attributes)
--------------------------------        ----        ----        ------- ----- ------------
_CODE                               00000200    0000319C =       12700. bytes (REL,CON)

      Value  Global                              Global Defined In Module
      -----  --------------------------------   ------------------------
     000021DA  A$lcc1766428$81                    inventory_input
     000021DB  A$lcc1766428$82                    inventory_input
     000021DC  A$lcc1766428$83                    inventory_input
     000021DD  A$lcc1766428$84                    inventory_input
     000021DE  A$lcc1766428$85                    inventory_input
     000021DF  A$lcc1766428$86                    inventory_input
     000021E2  A$lcc1766428$87                    inventory_input
     000021E4  A$lcc1766428$88                    inventory_input
     000021E5  A$lcc1766428$89                    inventory_input
     000021E7  A$lcc1766428$90                    inventory_input
     000021E8  A$lcc1766428$91                    inventory_input
     000021E9  A$lcc1766428$92                    inventory_input
     000021EC  A$lcc1766428$96                    inventory_input
     000021EC  C$inventory_input.c$26$3_0$147     inventory_input
     000021EF  A$lcc1766428$97                    inventory_input
     000021F2  A$lcc1766428$98                    inventory_input
     000021F3  A$lcc1766428$99                    inventory_input
     000021F5  A$lcc1766428$100                   inventory_input
     000021F6  A$lcc1766428$101                   inventory_input
     000021F8  A$lcc1766428$105                   inventory_input
     000021F8  C$inventory_input.c$27$3_0$147     inventory_input
     000021FB  A$lcc1766428$106                   inventory_input
     000021FE  A$lcc1766428$114                   inventory_input
     000021FE  C$inventory_input.c$26$1_1$145     inventory_input
     00002201  A$lcc1766428$115                   inventory_input
     00002202  A$lcc1766428$119                   inventory_input
     00002202  C$inventory_input.c$30$1_1$148     inventory_input
     00002205  A$lcc1766428$120                   inventory_input
     00002207  A$lcc1766428$121                   inventory_input
     00002208  A$lcc1766428$122                   inventory_input
     00002209  A$lcc1766428$126                   inventory_input
     00002209  C$inventory_input.c$31$1_1$148     inventory_input
     0000220C  A$lcc1766428$127                   inventory_input
     0000220E  A$lcc1766428$128                   inventory_input
     0000220F  A$lcc1766428$129                   inventory_input
     00002210  A$lcc1766428$133                   inventory_input
     00002210  C$inventory_input.c$23$1_1$145     inventory_input
     00002213  A$lcc1766428$134                   inventory_input
     00002214  A$lcc1766428$135                   inventory_input
     00002217  A$lcc1766428$139                   inventory_input
     00002217  C$inventory_input.c$33$2_1$149     inventory_input
     00002219  A$lcc1766428$140                   inventory_input
     0000221B  A$lcc1766428$141                   inventory_input
     0000221D  A$lcc1766428$142                   inventory_input
     0000221F  A$lcc1766428$146                   inventory_input
     0000221F  C$inventory_input.c$35$3_1$150     inventory_input
     00002220  A$lcc1766428$147                   inventory_input
     00002222  A$lcc1766428$148                   inventory_input
     00002223  A$lcc1766428$149                   inventory_input
     00002225  A$lcc1766428$154                   inventory_input
     00002225  C$inventory_input.c$37$3_1$151     inventory_input
ASxxxx Linker V03.00/V05.40 + sdld,  page 33.
Hexadecimal  [32-Bits]

Area                                    Addr        Size        Decimal Bytes (Attributes)
--------------------------------        ----        ----        ------- ----- ------------
_CODE                               00000200    0000319C =       12700. bytes (REL,CON)

      Value  Global                              Global Defined In Module
      -----  --------------------------------   ------------------------
     00002227  A$lcc1766428$155                   inventory_input
     00002229  A$lcc1766428$156                   inventory_input
     0000222B  A$lcc1766428$157                   inventory_input
     0000222D  A$lcc1766428$161                   inventory_input
     0000222D  C$inventory_input.c$39$4_1$152     inventory_input
     0000222E  A$lcc1766428$162                   inventory_input
     00002230  A$lcc1766428$163                   inventory_input
     00002231  A$lcc1766428$164                   inventory_input
     00002233  A$lcc1766428$169                   inventory_input
     00002233  C$inventory_input.c$41$4_1$153     inventory_input
     00002235  A$lcc1766428$170                   inventory_input
     00002237  A$lcc1766428$171                   inventory_input
     00002239  A$lcc1766428$172                   inventory_input
     0000223B  A$lcc1766428$176                   inventory_input
     0000223B  C$inventory_input.c$43$5_1$154     inventory_input
     0000223C  A$lcc1766428$177                   inventory_input
     0000223E  A$lcc1766428$178                   inventory_input
     0000223F  A$lcc1766428$179                   inventory_input
     00002241  A$lcc1766428$184                   inventory_input
     00002241  C$inventory_input.c$45$5_1$155     inventory_input
     00002243  A$lcc1766428$185                   inventory_input
     00002245  A$lcc1766428$186                   inventory_input
     00002247  A$lcc1766428$187                   inventory_input
     00002249  A$lcc1766428$191                   inventory_input
     00002249  C$inventory_input.c$47$6_1$156     inventory_input
     0000224A  A$lcc1766428$192                   inventory_input
     0000224C  A$lcc1766428$193                   inventory_input
     0000224D  A$lcc1766428$198                   inventory_input
     0000224D  C$inventory_input.c$50$2_1$157     inventory_input
     0000224F  A$lcc1766428$199                   inventory_input
     00002250  A$lcc1766428$200                   inventory_input
     00002252  A$lcc1766428$204                   inventory_input
     00002252  C$inventory_input.c$51$2_1$157     inventory_input
     00002254  A$lcc1766428$209                   inventory_input
     00002254  C$inventory_input.c$52$2_1$158     inventory_input
     00002255  A$lcc1766428$210                   inventory_input
     00002257  A$lcc1766428$211                   inventory_input
     00002259  A$lcc1766428$215                   inventory_input
     00002259  C$inventory_input.c$53$2_1$158     inventory_input
     0000225B  A$lcc1766428$220                   inventory_input
     0000225B  C$inventory_input.c$55$2_1$159     inventory_input
     0000225D  A$lcc1766428$221                   inventory_input
     0000225E  A$lcc1766428$222                   inventory_input
     00002260  A$lcc1766428$226                   inventory_input
     00002260  C$inventory_input.c$56$2_1$159     inventory_input
     00002262  A$lcc1766428$231                   inventory_input
     00002262  C$inventory_input.c$57$2_1$160     inventory_input
     00002263  A$lcc1766428$232                   inventory_input
     00002265  A$lcc1766428$233                   inventory_input
     00002267  A$lcc1766428$237                   inventory_input
     00002267  C$inventory_input.c$58$2_1$160     inventory_input
ASxxxx Linker V03.00/V05.40 + sdld,  page 34.
Hexadecimal  [32-Bits]

Area                                    Addr        Size        Decimal Bytes (Attributes)
--------------------------------        ----        ----        ------- ----- ------------
_CODE                               00000200    0000319C =       12700. bytes (REL,CON)

      Value  Global                              Global Defined In Module
      -----  --------------------------------   ------------------------
     00002269  A$lcc1766428$242                   inventory_input
     00002269  C$inventory_input.c$60$1_1$148     inventory_input
     0000226A  A$lcc1766428$246                   inventory_input
     0000226A  C$inventory_input.c$61$1_1$148     inventory_input
     0000226D  A$lcc1766428$247                   inventory_input
     0000226E  A$lcc1766428$248                   inventory_input
     00002270  A$lcc1766428$249                   inventory_input
     00002273  A$lcc1766428$250                   inventory_input
     00002274  A$lcc1766428$251                   inventory_input
     00002275  A$lcc1766428$255                   inventory_input
     00002275  C$inventory_input.c$63$1_1$148     inventory_input
     00002278  A$lcc1766428$256                   inventory_input
     0000227B  A$lcc1766428$264                   inventory_input
     0000227B  C$inventory_input.c$64$1_1$145     inventory_input
     0000227B  XG$inventory_input$0$0             inventory_input
     0000227C  G$top_limit$0_0$0                  inventory_input
     0000227C  _top_limit                         inventory_input
     0000227D  G$bottom_limit$0_0$0               inventory_input
     0000227D  _bottom_limit                      inventory_input
     0000227E  G$left_limit$0_0$0                 inventory_input
     0000227E  _left_limit                        inventory_input
     0000227F  G$right_limit$0_0$0                inventory_input
     0000227F  _right_limit                       inventory_input
     00002280  G$VERTICAL_MOVEMENT$0_0$0          inventory_input
     00002280  _VERTICAL_MOVEMENT                 inventory_input
     00002281  G$HORIZONTAL_MOVEMENT$0_0$0        inventory_input
     00002281  _HORIZONTAL_MOVEMENT               inventory_input
     00002282  A$lcc1766429$58                    load
     00002282  C$load.c$8$0_0$132                 load
     00002282  G$load_actor_tiles$0$0             load
     00002282  _load_actor_tiles                  load
     00002284  A$lcc1766429$59                    load
     00002286  A$lcc1766429$60                    load
     00002287  A$lcc1766429$61                    load
     00002288  A$lcc1766429$62                    load
     00002289  A$lcc1766429$63                    load
     0000228A  A$lcc1766429$64                    load
     0000228B  A$lcc1766429$68                    load
     0000228B  C$load.c$9$2_0$132                 load
     0000228E  A$lcc1766429$69                    load
     0000228F  A$lcc1766429$73                    load
     0000228F  C$load.c$12$1_0$132                load
     00002291  A$lcc1766429$75                    load
     00002292  A$lcc1766429$76                    load
     00002294  A$lcc1766429$77                    load
     00002295  A$lcc1766429$78                    load
     00002297  A$lcc1766429$82                    load
     00002297  C$load.c$13$3_0$134                load
     00002298  A$lcc1766429$83                    load
     0000229A  A$lcc1766429$84                    load
     0000229B  A$lcc1766429$85                    load
ASxxxx Linker V03.00/V05.40 + sdld,  page 35.
Hexadecimal  [32-Bits]

Area                                    Addr        Size        Decimal Bytes (Attributes)
--------------------------------        ----        ----        ------- ----- ------------
_CODE                               00000200    0000319C =       12700. bytes (REL,CON)

      Value  Global                              Global Defined In Module
      -----  --------------------------------   ------------------------
     0000229C  A$lcc1766429$86                    load
     0000229D  A$lcc1766429$87                    load
     0000229F  A$lcc1766429$88                    load
     000022A0  A$lcc1766429$89                    load
     000022A1  A$lcc1766429$90                    load
     000022A2  A$lcc1766429$91                    load
     000022A3  A$lcc1766429$92                    load
     000022A4  A$lcc1766429$93                    load
     000022A5  A$lcc1766429$94                    load
     000022A6  A$lcc1766429$95                    load
     000022A7  A$lcc1766429$96                    load
     000022A8  A$lcc1766429$97                    load
     000022A9  A$lcc1766429$98                    load
     000022AA  A$lcc1766429$99                    load
     000022AB  A$lcc1766429$100                   load
     000022AC  A$lcc1766429$101                   load
     000022AD  A$lcc1766429$102                   load
     000022AE  A$lcc1766429$103                   load
     000022AF  A$lcc1766429$104                   load
     000022B0  A$lcc1766429$105                   load
     000022B2  A$lcc1766429$106                   load
     000022B3  A$lcc1766429$107                   load
     000022B4  A$lcc1766429$108                   load
     000022B5  A$lcc1766429$109                   load
     000022B6  A$lcc1766429$110                   load
     000022B9  A$lcc1766429$111                   load
     000022BB  A$lcc1766429$115                   load
     000022BB  C$load.c$12$2_0$133                load
     000022BC  A$lcc1766429$116                   load
     000022BE  A$lcc1766429$121                   load
     000022BE  C$load.c$17$1_0$132                load
     000022C1  A$lcc1766429$122                   load
     000022C3  A$lcc1766429$123                   load
     000022C4  A$lcc1766429$124                   load
     000022C6  A$lcc1766429$125                   load
     000022C7  A$lcc1766429$126                   load
     000022C8  A$lcc1766429$127                   load
     000022C9  A$lcc1766429$128                   load
     000022CA  A$lcc1766429$129                   load
     000022CB  A$lcc1766429$133                   load
     000022CB  C$load.c$18$1_0$132                load
     000022CE  A$lcc1766429$134                   load
     000022D0  A$lcc1766429$135                   load
     000022D1  A$lcc1766429$136                   load
     000022D3  A$lcc1766429$137                   load
     000022D4  A$lcc1766429$138                   load
     000022D5  A$lcc1766429$139                   load
     000022D6  A$lcc1766429$140                   load
     000022D8  A$lcc1766429$141                   load
     000022D9  A$lcc1766429$142                   load
     000022DA  A$lcc1766429$146                   load
ASxxxx Linker V03.00/V05.40 + sdld,  page 36.
Hexadecimal  [32-Bits]

Area                                    Addr        Size        Decimal Bytes (Attributes)
--------------------------------        ----        ----        ------- ----- ------------
_CODE                               00000200    0000319C =       12700. bytes (REL,CON)

      Value  Global                              Global Defined In Module
      -----  --------------------------------   ------------------------
     000022DA  C$load.c$21$1_0$132                load
     000022DD  A$lcc1766429$147                   load
     000022DF  A$lcc1766429$148                   load
     000022E0  A$lcc1766429$149                   load
     000022E3  A$lcc1766429$153                   load
     000022E3  C$load.c$23$1_0$132                load
     000022E4  A$lcc1766429$157                   load
     000022E4  C$load.c$24$1_0$132                load
     000022E6  A$lcc1766429$158                   load
     000022E7  A$lcc1766429$159                   load
     000022E8  A$lcc1766429$160                   load
     000022E9  A$lcc1766429$173                   load
     000022E9  C$load.c$26$1_0$136                load
     000022E9  C$load.c$27$3_0$138                load
     000022E9  G$reset_render_component$0$0       load
     000022E9  _reset_render_component            load
     000022EB  A$lcc1766429$175                   load
     000022EC  A$lcc1766429$176                   load
     000022EF  A$lcc1766429$177                   load
     000022F0  A$lcc1766429$178                   load
     000022F2  A$lcc1766429$182                   load
     000022F2  C$load.c$28$3_0$138                load
     000022F5  A$lcc1766429$183                   load
     000022F7  A$lcc1766429$184                   load
     000022F8  A$lcc1766429$185                   load
     000022FA  A$lcc1766429$189                   load
     000022FA  C$load.c$29$3_0$138                load
     000022FD  A$lcc1766429$190                   load
     000022FF  A$lcc1766429$191                   load
     00002300  A$lcc1766429$192                   load
     00002302  A$lcc1766429$196                   load
     00002302  C$load.c$27$2_0$137                load
     00002303  A$lcc1766429$197                   load
     00002305  A$lcc1766429$202                   load
     00002305  C$load.c$32$1_0$136                load
     00002306  A$lcc1766429$203                   load
     00002309  A$lcc1766429$211                   load
     00002309  C$load.c$33$1_0$136                load
     00002309  XG$reset_render_component$0$0      load
     0000230A  A$lcc1766430$56                    map_scenes
     0000230A  C$map_scenes.c$10$0_0$44           map_scenes
     0000230A  G$scene_manager_MapScene$0$0       map_scenes
     0000230A  _scene_manager_MapScene            map_scenes
     0000230B  A$lcc1766430$60                    map_scenes
     0000230B  C$map_scenes.c$12$2_0$44           map_scenes
     0000230D  A$lcc1766430$61                    map_scenes
     0000230E  A$lcc1766430$62                    map_scenes
     00002310  A$lcc1766430$63                    map_scenes
     00002312  A$lcc1766430$64                    map_scenes
     00002315  A$lcc1766430$65                    map_scenes
     00002316  A$lcc1766430$66                    map_scenes
ASxxxx Linker V03.00/V05.40 + sdld,  page 37.
Hexadecimal  [32-Bits]

Area                                    Addr        Size        Decimal Bytes (Attributes)
--------------------------------        ----        ----        ------- ----- ------------
_CODE                               00000200    0000319C =       12700. bytes (REL,CON)

      Value  Global                              Global Defined In Module
      -----  --------------------------------   ------------------------
     00002317  A$lcc1766430$67                    map_scenes
     00002318  A$lcc1766430$68                    map_scenes
     00002319  A$lcc1766430$69                    map_scenes
     0000231A  A$lcc1766430$70                    map_scenes
     0000231B  A$lcc1766430$71                    map_scenes
     00002324  A$lcc1766430$84                    map_scenes
     00002324  C$map_scenes.c$14$3_0$45           map_scenes
     00002324  C$map_scenes.c$15$3_0$45           map_scenes
     00002327  A$lcc1766430$88                    map_scenes
     00002327  C$map_scenes.c$16$3_0$45           map_scenes
     0000232A  A$lcc1766430$89                    map_scenes
     0000232B  A$lcc1766430$97                    map_scenes
     0000232B  C$map_scenes.c$17$3_0$45           map_scenes
     0000232B  C$map_scenes.c$18$3_0$45           map_scenes
     0000232E  A$lcc1766430$101                   map_scenes
     0000232E  C$map_scenes.c$19$3_0$45           map_scenes
     00002331  A$lcc1766430$102                   map_scenes
     00002332  A$lcc1766430$110                   map_scenes
     00002332  C$map_scenes.c$20$3_0$45           map_scenes
     00002332  C$map_scenes.c$21$3_0$45           map_scenes
     00002335  A$lcc1766430$114                   map_scenes
     00002335  C$map_scenes.c$22$3_0$45           map_scenes
     00002338  A$lcc1766430$115                   map_scenes
     00002339  A$lcc1766430$123                   map_scenes
     00002339  C$map_scenes.c$23$3_0$45           map_scenes
     00002339  C$map_scenes.c$24$3_0$45           map_scenes
     0000233C  A$lcc1766430$127                   map_scenes
     0000233C  C$map_scenes.c$25$3_0$45           map_scenes
     0000233F  A$lcc1766430$128                   map_scenes
     00002340  A$lcc1766430$136                   map_scenes
     00002340  C$map_scenes.c$26$3_0$45           map_scenes
     00002340  C$map_scenes.c$27$3_0$45           map_scenes
     00002343  A$lcc1766430$147                   map_scenes
     00002343  C$map_scenes.c$28$2_0$44           map_scenes
     00002343  C$map_scenes.c$29$2_0$44           map_scenes
     00002343  XG$scene_manager_MapScene$0$0      map_scenes
     00002344  A$lcc1766431$56                    money
     00002344  C$money.c$5$0_0$3                  money
     00002344  G$add_money$0$0                    money
     00002344  _add_money                         money
     00002345  A$lcc1766431$60                    money
     00002345  C$money.c$6$1_0$3                  money
     00002346  A$lcc1766431$61                    money
     00002348  A$lcc1766431$62                    money
     00002349  A$lcc1766431$63                    money
     0000234A  A$lcc1766431$64                    money
     0000234B  A$lcc1766431$65                    money
     0000234C  A$lcc1766431$66                    money
     0000234D  A$lcc1766431$67                    money
     0000234E  A$lcc1766431$68                    money
     0000234F  A$lcc1766431$69                    money
ASxxxx Linker V03.00/V05.40 + sdld,  page 38.
Hexadecimal  [32-Bits]

Area                                    Addr        Size        Decimal Bytes (Attributes)
--------------------------------        ----        ----        ------- ----- ------------
_CODE                               00000200    0000319C =       12700. bytes (REL,CON)

      Value  Global                              Global Defined In Module
      -----  --------------------------------   ------------------------
     00002350  A$lcc1766431$70                    money
     00002351  A$lcc1766431$71                    money
     00002354  A$lcc1766431$72                    money
     00002355  A$lcc1766431$73                    money
     00002358  A$lcc1766431$74                    money
     00002359  A$lcc1766431$75                    money
     0000235A  A$lcc1766431$76                    money
     0000235B  A$lcc1766431$77                    money
     0000235C  A$lcc1766431$78                    money
     0000235D  A$lcc1766431$79                    money
     0000235E  A$lcc1766431$80                    money
     00002361  A$lcc1766431$81                    money
     00002362  A$lcc1766431$82                    money
     00002363  A$lcc1766431$83                    money
     00002364  A$lcc1766431$87                    money
     00002364  C$money.c$7$1_0$3                  money
     00002366  A$lcc1766431$88                    money
     00002367  A$lcc1766431$89                    money
     00002368  A$lcc1766431$90                    money
     00002369  A$lcc1766431$91                    money
     0000236A  A$lcc1766431$92                    money
     0000236B  A$lcc1766431$93                    money
     0000236C  A$lcc1766431$94                    money
     0000236D  A$lcc1766431$95                    money
     0000236E  A$lcc1766431$96                    money
     0000236F  A$lcc1766431$97                    money
     00002370  A$lcc1766431$98                    money
     00002371  A$lcc1766431$99                    money
     00002372  A$lcc1766431$100                   money
     00002375  A$lcc1766431$101                   money
     00002378  A$lcc1766431$102                   money
     00002379  A$lcc1766431$103                   money
     0000237A  A$lcc1766431$104                   money
     0000237B  A$lcc1766431$105                   money
     0000237C  A$lcc1766431$106                   money
     0000237D  A$lcc1766431$107                   money
     0000237E  A$lcc1766431$108                   money
     0000237F  A$lcc1766431$109                   money
     00002380  A$lcc1766431$110                   money
     00002381  A$lcc1766431$118                   money
     00002381  C$money.c$8$1_0$3                  money
     00002381  XG$add_money$0$0                   money
     00002382  A$lcc1766433$72                    npcs
     00002382  C$npcs.c$10$0_0$3                  npcs
     00002382  C$npcs.c$12$1_0$3                  npcs
     00002382  G$init_NPCs$0$0                    npcs
     00002382  _init_NPCs                         npcs
     00002385  A$lcc1766433$73                    npcs
     00002388  A$lcc1766433$77                    npcs
     00002388  C$npcs.c$13$1_0$3                  npcs
     0000238B  A$lcc1766433$78                    npcs
ASxxxx Linker V03.00/V05.40 + sdld,  page 39.
Hexadecimal  [32-Bits]

Area                                    Addr        Size        Decimal Bytes (Attributes)
--------------------------------        ----        ----        ------- ----- ------------
_CODE                               00000200    0000319C =       12700. bytes (REL,CON)

      Value  Global                              Global Defined In Module
      -----  --------------------------------   ------------------------
     0000238E  A$lcc1766433$82                    npcs
     0000238E  C$npcs.c$14$1_0$3                  npcs
     00002391  A$lcc1766433$83                    npcs
     00002394  A$lcc1766433$91                    npcs
     00002394  C$npcs.c$15$1_0$3                  npcs
     00002394  XG$init_NPCs$0$0                   npcs
     00002395  A$lcc1766434$66                    player
     00002395  C$player.c$7$0_0$136               player
     00002395  G$init_player$0$0                  player
     00002395  _init_player                       player
     00002397  A$lcc1766434$70                    player
     00002397  C$player.c$9$1_0$136               player
     0000239A  A$lcc1766434$71                    player
     0000239D  A$lcc1766434$72                    player
     0000239E  A$lcc1766434$76                    player
     0000239E  C$player.c$11$1_0$136              player
     0000239F  A$lcc1766434$77                    player
     000023A1  A$lcc1766434$78                    player
     000023A4  A$lcc1766434$79                    player
     000023A5  A$lcc1766434$80                    player
     000023A7  A$lcc1766434$84                    player
     000023A7  C$player.c$12$1_0$136              player
     000023AA  A$lcc1766434$85                    player
     000023AD  A$lcc1766434$86                    player
     000023AE  A$lcc1766434$87                    player
     000023B0  A$lcc1766434$88                    player
     000023B1  A$lcc1766434$89                    player
     000023B3  A$lcc1766434$93                    player
     000023B3  C$player.c$11$1_1$136              player
     000023B6  A$lcc1766434$94                    player
     000023B7  A$lcc1766434$98                    player
     000023B7  C$player.c$14$1_0$136              player
     000023B8  A$lcc1766434$99                    player
     000023BA  A$lcc1766434$100                   player
     000023BB  A$lcc1766434$101                   player
     000023BC  A$lcc1766434$102                   player
     000023BF  A$lcc1766434$106                   player
     000023BF  C$player.c$16$1_0$136              player
     000023C2  A$lcc1766434$107                   player
     000023C3  A$lcc1766434$108                   player
     000023C5  A$lcc1766434$109                   player
     000023C6  A$lcc1766434$110                   player
     000023C8  A$lcc1766434$111                   player
     000023CA  A$lcc1766434$112                   player
     000023CB  A$lcc1766434$113                   player
     000023CD  A$lcc1766434$114                   player
     000023CE  A$lcc1766434$115                   player
     000023CF  A$lcc1766434$116                   player
     000023D1  A$lcc1766434$117                   player
     000023D3  A$lcc1766434$118                   player
     000023D4  A$lcc1766434$119                   player
ASxxxx Linker V03.00/V05.40 + sdld,  page 40.
Hexadecimal  [32-Bits]

Area                                    Addr        Size        Decimal Bytes (Attributes)
--------------------------------        ----        ----        ------- ----- ------------
_CODE                               00000200    0000319C =       12700. bytes (REL,CON)

      Value  Global                              Global Defined In Module
      -----  --------------------------------   ------------------------
     000023D5  A$lcc1766434$120                   player
     000023D6  A$lcc1766434$121                   player
     000023D7  A$lcc1766434$122                   player
     000023D8  A$lcc1766434$123                   player
     000023D9  A$lcc1766434$127                   player
     000023D9  C$player.c$17$1_0$136              player
     000023DC  A$lcc1766434$128                   player
     000023DD  A$lcc1766434$129                   player
     000023DE  A$lcc1766434$130                   player
     000023E0  A$lcc1766434$131                   player
     000023E1  A$lcc1766434$132                   player
     000023E3  A$lcc1766434$133                   player
     000023E5  A$lcc1766434$134                   player
     000023E6  A$lcc1766434$135                   player
     000023E7  A$lcc1766434$136                   player
     000023E9  A$lcc1766434$137                   player
     000023EA  A$lcc1766434$138                   player
     000023EB  A$lcc1766434$139                   player
     000023EC  A$lcc1766434$140                   player
     000023ED  A$lcc1766434$141                   player
     000023EE  A$lcc1766434$142                   player
     000023EF  A$lcc1766434$143                   player
     000023F0  A$lcc1766434$147                   player
     000023F0  C$player.c$19$1_0$136              player
     000023F3  A$lcc1766434$148                   player
     000023F4  A$lcc1766434$149                   player
     000023F6  A$lcc1766434$150                   player
     000023F9  A$lcc1766434$151                   player
     000023FA  A$lcc1766434$152                   player
     000023FC  A$lcc1766434$156                   player
     000023FC  C$player.c$20$1_0$136              player
     000023FF  A$lcc1766434$157                   player
     00002402  A$lcc1766434$158                   player
     00002403  A$lcc1766434$159                   player
     00002405  A$lcc1766434$160                   player
     00002406  A$lcc1766434$161                   player
     00002408  A$lcc1766434$165                   player
     00002408  C$player.c$21$1_0$136              player
     0000240B  A$lcc1766434$166                   player
     0000240E  A$lcc1766434$167                   player
     0000240F  A$lcc1766434$168                   player
     00002411  A$lcc1766434$169                   player
     00002412  A$lcc1766434$170                   player
     00002414  A$lcc1766434$174                   player
     00002414  C$player.c$24$2_0$137              player
     00002417  A$lcc1766434$175                   player
     00002418  A$lcc1766434$176                   player
     00002419  A$lcc1766434$177                   player
     0000241A  A$lcc1766434$178                   player
     0000241C  A$lcc1766434$179                   player
     0000241E  A$lcc1766434$180                   player
ASxxxx Linker V03.00/V05.40 + sdld,  page 41.
Hexadecimal  [32-Bits]

Area                                    Addr        Size        Decimal Bytes (Attributes)
--------------------------------        ----        ----        ------- ----- ------------
_CODE                               00000200    0000319C =       12700. bytes (REL,CON)

      Value  Global                              Global Defined In Module
      -----  --------------------------------   ------------------------
     0000241F  A$lcc1766434$181                   player
     00002421  A$lcc1766434$182                   player
     00002422  A$lcc1766434$183                   player
     00002424  A$lcc1766434$184                   player
     00002425  A$lcc1766434$185                   player
     00002427  A$lcc1766434$186                   player
     00002428  A$lcc1766434$187                   player
     0000242A  A$lcc1766434$188                   player
     0000242B  A$lcc1766434$189                   player
     0000242D  A$lcc1766434$193                   player
     0000242D  C$player.c$30$2_0$137              player
     0000242E  A$lcc1766434$194                   player
     00002430  A$lcc1766434$195                   player
     00002431  A$lcc1766434$196                   player
     00002433  A$lcc1766434$197                   player
     00002434  A$lcc1766434$198                   player
     00002436  A$lcc1766434$199                   player
     00002437  A$lcc1766434$200                   player
     00002439  A$lcc1766434$201                   player
     0000243A  A$lcc1766434$202                   player
     0000243C  A$lcc1766434$203                   player
     0000243D  A$lcc1766434$204                   player
     0000243F  A$lcc1766434$205                   player
     00002440  A$lcc1766434$206                   player
     00002442  A$lcc1766434$207                   player
     00002443  A$lcc1766434$208                   player
     00002445  A$lcc1766434$209                   player
     00002446  A$lcc1766434$210                   player
     00002447  A$lcc1766434$211                   player
     00002448  A$lcc1766434$212                   player
     00002449  A$lcc1766434$213                   player
     0000244A  A$lcc1766434$214                   player
     0000244C  A$lcc1766434$215                   player
     0000244D  A$lcc1766434$216                   player
     0000244F  A$lcc1766434$217                   player
     00002450  A$lcc1766434$218                   player
     00002452  A$lcc1766434$219                   player
     00002453  A$lcc1766434$220                   player
     00002455  A$lcc1766434$221                   player
     00002456  A$lcc1766434$222                   player
     00002458  A$lcc1766434$223                   player
     00002459  A$lcc1766434$224                   player
     0000245B  A$lcc1766434$225                   player
     0000245C  A$lcc1766434$226                   player
     0000245E  A$lcc1766434$227                   player
     0000245F  A$lcc1766434$228                   player
     00002461  A$lcc1766434$229                   player
     00002462  A$lcc1766434$230                   player
     00002464  A$lcc1766434$231                   player
     00002465  A$lcc1766434$232                   player
     00002467  A$lcc1766434$233                   player
ASxxxx Linker V03.00/V05.40 + sdld,  page 42.
Hexadecimal  [32-Bits]

Area                                    Addr        Size        Decimal Bytes (Attributes)
--------------------------------        ----        ----        ------- ----- ------------
_CODE                               00000200    0000319C =       12700. bytes (REL,CON)

      Value  Global                              Global Defined In Module
      -----  --------------------------------   ------------------------
     00002468  A$lcc1766434$234                   player
     0000246A  A$lcc1766434$235                   player
     0000246B  A$lcc1766434$236                   player
     0000246D  A$lcc1766434$237                   player
     0000246E  A$lcc1766434$238                   player
     00002470  A$lcc1766434$239                   player
     00002471  A$lcc1766434$240                   player
     00002473  A$lcc1766434$241                   player
     00002474  A$lcc1766434$242                   player
     00002475  A$lcc1766434$243                   player
     00002476  A$lcc1766434$244                   player
     00002477  A$lcc1766434$245                   player
     00002478  A$lcc1766434$246                   player
     0000247A  A$lcc1766434$247                   player
     0000247B  A$lcc1766434$248                   player
     0000247D  A$lcc1766434$249                   player
     0000247E  A$lcc1766434$250                   player
     00002480  A$lcc1766434$251                   player
     00002481  A$lcc1766434$252                   player
     00002483  A$lcc1766434$253                   player
     00002484  A$lcc1766434$254                   player
     00002486  A$lcc1766434$255                   player
     00002487  A$lcc1766434$256                   player
     00002489  A$lcc1766434$260                   player
     00002489  C$player.c$53$2_0$137              player
     0000248A  A$lcc1766434$261                   player
     0000248D  A$lcc1766434$262                   player
     0000248E  A$lcc1766434$263                   player
     0000248F  A$lcc1766434$264                   player
     00002490  A$lcc1766434$265                   player
     00002491  A$lcc1766434$266                   player
     00002493  A$lcc1766434$267                   player
     00002494  A$lcc1766434$268                   player
     00002496  A$lcc1766434$269                   player
     00002497  A$lcc1766434$270                   player
     00002499  A$lcc1766434$271                   player
     0000249A  A$lcc1766434$272                   player
     0000249C  A$lcc1766434$273                   player
     0000249D  A$lcc1766434$274                   player
     0000249F  A$lcc1766434$275                   player
     000024A0  A$lcc1766434$276                   player
     000024A2  A$lcc1766434$280                   player
     000024A2  C$player.c$59$2_0$137              player
     000024A3  A$lcc1766434$281                   player
     000024A5  A$lcc1766434$282                   player
     000024A6  A$lcc1766434$283                   player
     000024A8  A$lcc1766434$284                   player
     000024A9  A$lcc1766434$285                   player
     000024AB  A$lcc1766434$286                   player
     000024AC  A$lcc1766434$287                   player
     000024AE  A$lcc1766434$288                   player
ASxxxx Linker V03.00/V05.40 + sdld,  page 43.
Hexadecimal  [32-Bits]

Area                                    Addr        Size        Decimal Bytes (Attributes)
--------------------------------        ----        ----        ------- ----- ------------
_CODE                               00000200    0000319C =       12700. bytes (REL,CON)

      Value  Global                              Global Defined In Module
      -----  --------------------------------   ------------------------
     000024AF  A$lcc1766434$289                   player
     000024B1  A$lcc1766434$290                   player
     000024B2  A$lcc1766434$291                   player
     000024B4  A$lcc1766434$292                   player
     000024B5  A$lcc1766434$293                   player
     000024B7  A$lcc1766434$294                   player
     000024B8  A$lcc1766434$295                   player
     000024BA  A$lcc1766434$296                   player
     000024BB  A$lcc1766434$297                   player
     000024BC  A$lcc1766434$298                   player
     000024BD  A$lcc1766434$299                   player
     000024BE  A$lcc1766434$300                   player
     000024BF  A$lcc1766434$301                   player
     000024C1  A$lcc1766434$302                   player
     000024C2  A$lcc1766434$303                   player
     000024C4  A$lcc1766434$304                   player
     000024C5  A$lcc1766434$305                   player
     000024C7  A$lcc1766434$306                   player
     000024C8  A$lcc1766434$307                   player
     000024CA  A$lcc1766434$308                   player
     000024CB  A$lcc1766434$309                   player
     000024CD  A$lcc1766434$310                   player
     000024CE  A$lcc1766434$311                   player
     000024D0  A$lcc1766434$312                   player
     000024D1  A$lcc1766434$313                   player
     000024D3  A$lcc1766434$314                   player
     000024D4  A$lcc1766434$315                   player
     000024D6  A$lcc1766434$316                   player
     000024D7  A$lcc1766434$317                   player
     000024D9  A$lcc1766434$318                   player
     000024DA  A$lcc1766434$319                   player
     000024DC  A$lcc1766434$320                   player
     000024DD  A$lcc1766434$321                   player
     000024DF  A$lcc1766434$322                   player
     000024E0  A$lcc1766434$323                   player
     000024E2  A$lcc1766434$324                   player
     000024E3  A$lcc1766434$325                   player
     000024E5  A$lcc1766434$326                   player
     000024E6  A$lcc1766434$327                   player
     000024E8  A$lcc1766434$328                   player
     000024E9  A$lcc1766434$329                   player
     000024EA  A$lcc1766434$330                   player
     000024EB  A$lcc1766434$331                   player
     000024EC  A$lcc1766434$332                   player
     000024ED  A$lcc1766434$333                   player
     000024EF  A$lcc1766434$334                   player
     000024F0  A$lcc1766434$335                   player
     000024F2  A$lcc1766434$336                   player
     000024F3  A$lcc1766434$337                   player
     000024F5  A$lcc1766434$338                   player
     000024F6  A$lcc1766434$339                   player
ASxxxx Linker V03.00/V05.40 + sdld,  page 44.
Hexadecimal  [32-Bits]

Area                                    Addr        Size        Decimal Bytes (Attributes)
--------------------------------        ----        ----        ------- ----- ------------
_CODE                               00000200    0000319C =       12700. bytes (REL,CON)

      Value  Global                              Global Defined In Module
      -----  --------------------------------   ------------------------
     000024F8  A$lcc1766434$340                   player
     000024F9  A$lcc1766434$341                   player
     000024FB  A$lcc1766434$342                   player
     000024FC  A$lcc1766434$343                   player
     000024FE  A$lcc1766434$347                   player
     000024FE  C$player.c$81$1_1$137              player
     00002501  A$lcc1766434$348                   player
     00002502  A$lcc1766434$349                   player
     00002504  A$lcc1766434$350                   player
     00002505  A$lcc1766434$351                   player
     00002506  A$lcc1766434$352                   player
     00002507  A$lcc1766434$353                   player
     00002508  A$lcc1766434$354                   player
     00002509  A$lcc1766434$355                   player
     0000250A  A$lcc1766434$356                   player
     0000250B  A$lcc1766434$357                   player
     0000250C  A$lcc1766434$358                   player
     0000250D  A$lcc1766434$359                   player
     00002510  A$lcc1766434$360                   player
     00002511  A$lcc1766434$361                   player
     00002512  A$lcc1766434$362                   player
     00002513  A$lcc1766434$363                   player
     00002516  A$lcc1766434$364                   player
     00002517  A$lcc1766434$365                   player
     00002519  A$lcc1766434$366                   player
     0000251A  A$lcc1766434$367                   player
     0000251B  A$lcc1766434$368                   player
     0000251E  A$lcc1766434$369                   player
     0000251F  A$lcc1766434$370                   player
     00002520  A$lcc1766434$371                   player
     00002521  A$lcc1766434$372                   player
     00002522  A$lcc1766434$373                   player
     00002523  A$lcc1766434$374                   player
     00002524  A$lcc1766434$375                   player
     00002527  A$lcc1766434$376                   player
     0000252A  A$lcc1766434$380                   player
     0000252A  C$player.c$82$1_1$137              player
     0000252D  A$lcc1766434$381                   player
     0000252E  A$lcc1766434$382                   player
     00002530  A$lcc1766434$383                   player
     00002531  A$lcc1766434$384                   player
     00002532  A$lcc1766434$385                   player
     00002533  A$lcc1766434$386                   player
     00002534  A$lcc1766434$387                   player
     00002535  A$lcc1766434$388                   player
     00002536  A$lcc1766434$389                   player
     00002537  A$lcc1766434$390                   player
     00002538  A$lcc1766434$391                   player
     00002539  A$lcc1766434$392                   player
     0000253C  A$lcc1766434$393                   player
     0000253D  A$lcc1766434$394                   player
ASxxxx Linker V03.00/V05.40 + sdld,  page 45.
Hexadecimal  [32-Bits]

Area                                    Addr        Size        Decimal Bytes (Attributes)
--------------------------------        ----        ----        ------- ----- ------------
_CODE                               00000200    0000319C =       12700. bytes (REL,CON)

      Value  Global                              Global Defined In Module
      -----  --------------------------------   ------------------------
     0000253E  A$lcc1766434$395                   player
     0000253F  A$lcc1766434$396                   player
     00002542  A$lcc1766434$397                   player
     00002543  A$lcc1766434$398                   player
     00002545  A$lcc1766434$399                   player
     00002546  A$lcc1766434$400                   player
     00002547  A$lcc1766434$401                   player
     0000254A  A$lcc1766434$402                   player
     0000254B  A$lcc1766434$403                   player
     0000254C  A$lcc1766434$404                   player
     0000254E  A$lcc1766434$405                   player
     0000254F  A$lcc1766434$406                   player
     00002550  A$lcc1766434$407                   player
     00002551  A$lcc1766434$408                   player
     00002554  A$lcc1766434$409                   player
     00002557  A$lcc1766434$413                   player
     00002557  C$player.c$83$1_1$137              player
     0000255A  A$lcc1766434$414                   player
     0000255B  A$lcc1766434$415                   player
     0000255D  A$lcc1766434$416                   player
     0000255E  A$lcc1766434$417                   player
     0000255F  A$lcc1766434$418                   player
     00002560  A$lcc1766434$419                   player
     00002561  A$lcc1766434$420                   player
     00002562  A$lcc1766434$421                   player
     00002563  A$lcc1766434$422                   player
     00002564  A$lcc1766434$423                   player
     00002565  A$lcc1766434$424                   player
     00002566  A$lcc1766434$425                   player
     00002569  A$lcc1766434$426                   player
     0000256A  A$lcc1766434$427                   player
     0000256B  A$lcc1766434$428                   player
     0000256C  A$lcc1766434$429                   player
     0000256F  A$lcc1766434$430                   player
     00002570  A$lcc1766434$431                   player
     00002572  A$lcc1766434$432                   player
     00002573  A$lcc1766434$433                   player
     00002574  A$lcc1766434$434                   player
     00002577  A$lcc1766434$435                   player
     00002578  A$lcc1766434$436                   player
     00002579  A$lcc1766434$437                   player
     0000257B  A$lcc1766434$438                   player
     0000257C  A$lcc1766434$439                   player
     0000257D  A$lcc1766434$440                   player
     0000257E  A$lcc1766434$441                   player
     00002581  A$lcc1766434$442                   player
     00002584  A$lcc1766434$446                   player
     00002584  C$player.c$84$1_1$137              player
     00002587  A$lcc1766434$447                   player
     00002588  A$lcc1766434$448                   player
     0000258A  A$lcc1766434$449                   player
ASxxxx Linker V03.00/V05.40 + sdld,  page 46.
Hexadecimal  [32-Bits]

Area                                    Addr        Size        Decimal Bytes (Attributes)
--------------------------------        ----        ----        ------- ----- ------------
_CODE                               00000200    0000319C =       12700. bytes (REL,CON)

      Value  Global                              Global Defined In Module
      -----  --------------------------------   ------------------------
     0000258B  A$lcc1766434$450                   player
     0000258C  A$lcc1766434$451                   player
     0000258D  A$lcc1766434$452                   player
     0000258E  A$lcc1766434$453                   player
     0000258F  A$lcc1766434$454                   player
     00002590  A$lcc1766434$455                   player
     00002591  A$lcc1766434$456                   player
     00002592  A$lcc1766434$457                   player
     00002593  A$lcc1766434$458                   player
     00002596  A$lcc1766434$459                   player
     00002597  A$lcc1766434$460                   player
     00002598  A$lcc1766434$461                   player
     00002599  A$lcc1766434$462                   player
     0000259C  A$lcc1766434$463                   player
     0000259D  A$lcc1766434$464                   player
     0000259F  A$lcc1766434$465                   player
     000025A0  A$lcc1766434$466                   player
     000025A1  A$lcc1766434$467                   player
     000025A4  A$lcc1766434$468                   player
     000025A5  A$lcc1766434$469                   player
     000025A6  A$lcc1766434$470                   player
     000025A8  A$lcc1766434$471                   player
     000025A9  A$lcc1766434$472                   player
     000025AA  A$lcc1766434$473                   player
     000025AB  A$lcc1766434$474                   player
     000025AE  A$lcc1766434$475                   player
     000025B1  A$lcc1766434$479                   player
     000025B1  C$player.c$86$1_1$137              player
     000025B4  A$lcc1766434$483                   player
     000025B4  C$player.c$87$1_1$137              player
     000025B5  A$lcc1766434$484                   player
     000025B6  A$lcc1766434$485                   player
     000025B8  A$lcc1766434$489                   player
     000025B8  C$player.c$88$1_1$137              player
     000025BB  A$lcc1766434$490                   player
     000025BD  A$lcc1766434$494                   player
     000025BD  C$player.c$89$1_1$137              player
     000025C0  A$lcc1766434$495                   player
     000025C2  A$lcc1766434$499                   player
     000025C2  C$player.c$91$1_1$137              player
     000025C5  A$lcc1766434$503                   player
     000025C7  A$lcc1766434$508                   player
     000025C7  C$player.c$92$1_1$136              player
     000025C7  XG$init_player$0$0                 player
     000025C8  A$lcc1766436$56                    render
     000025C8  C$render.c$5$0_0$130               render
     000025C8  G$render_reset$0$0                 render
     000025C8  _render_reset                      render
     000025C9  A$lcc1766436$60                    render
     000025C9  C$render.c$6$1_0$130               render
     000025CC  A$lcc1766436$61                    render
ASxxxx Linker V03.00/V05.40 + sdld,  page 47.
Hexadecimal  [32-Bits]

Area                                    Addr        Size        Decimal Bytes (Attributes)
--------------------------------        ----        ----        ------- ----- ------------
_CODE                               00000200    0000319C =       12700. bytes (REL,CON)

      Value  Global                              Global Defined In Module
      -----  --------------------------------   ------------------------
     000025CE  A$lcc1766436$62                    render
     000025CF  A$lcc1766436$63                    render
     000025D1  A$lcc1766436$67                    render
     000025D1  C$render.c$7$1_0$130               render
     000025D4  A$lcc1766436$68                    render
     000025D6  A$lcc1766436$69                    render
     000025D7  A$lcc1766436$70                    render
     000025D9  A$lcc1766436$78                    render
     000025D9  C$render.c$8$1_0$130               render
     000025D9  XG$render_reset$0$0                render
     000025DA  A$lcc1766437$56                    scene
     000025DA  C$scene.c$6$0_0$27                 scene
     000025DA  C$scene.c$8$2_0$28                 scene
     000025DA  G$Scene_Destroy$0$0                scene
     000025DA  _Scene_Destroy                     scene
     000025DD  A$lcc1766437$57                    scene
     000025DE  A$lcc1766437$58                    scene
     000025DF  A$lcc1766437$59                    scene
     000025E0  A$lcc1766437$60                    scene
     000025E1  A$lcc1766437$61                    scene
     000025E2  A$lcc1766437$62                    scene
     000025E3  A$lcc1766437$63                    scene
     000025E4  A$lcc1766437$67                    scene
     000025E4  C$scene.c$9$2_0$28                 scene
     000025E5  A$lcc1766437$71                    scene
     000025E5  C$scene.c$11$1_0$27                scene
     000025E6  A$lcc1766437$72                    scene
     000025E7  A$lcc1766437$73                    scene
     000025E8  A$lcc1766437$74                    scene
     000025EB  A$lcc1766437$75                    scene
     000025EC  A$lcc1766437$79                    scene
     000025EC  C$scene.c$12$1_0$27                scene
     000025ED  A$lcc1766437$80                    scene
     000025EE  A$lcc1766437$81                    scene
     000025EF  A$lcc1766437$82                    scene
     000025F0  A$lcc1766437$90                    scene
     000025F0  C$scene.c$13$1_0$27                scene
     000025F0  XG$Scene_Destroy$0$0               scene
     000025F1  A$lcc1766438$63                    scene_manager
     000025F1  C$scene_manager.c$14$0_0$163       scene_manager
     000025F1  C$scene_manager.c$17$1_0$163       scene_manager
     000025F1  G$SceneManager_CleanScreen$0$0     scene_manager
     000025F1  _SceneManager_CleanScreen          scene_manager
     000025F4  A$lcc1766438$64                    scene_manager
     000025F7  A$lcc1766438$65                    scene_manager
     000025F8  A$lcc1766438$66                    scene_manager
     000025FA  A$lcc1766438$67                    scene_manager
     000025FB  A$lcc1766438$68                    scene_manager
     000025FD  A$lcc1766438$72                    scene_manager
     000025FD  C$scene_manager.c$18$1_0$163       scene_manager
     00002600  A$lcc1766438$73                    scene_manager
ASxxxx Linker V03.00/V05.40 + sdld,  page 48.
Hexadecimal  [32-Bits]

Area                                    Addr        Size        Decimal Bytes (Attributes)
--------------------------------        ----        ----        ------- ----- ------------
_CODE                               00000200    0000319C =       12700. bytes (REL,CON)

      Value  Global                              Global Defined In Module
      -----  --------------------------------   ------------------------
     00002601  A$lcc1766438$74                    scene_manager
     00002603  A$lcc1766438$75                    scene_manager
     00002604  A$lcc1766438$76                    scene_manager
     00002606  A$lcc1766438$80                    scene_manager
     00002606  C$scene_manager.c$19$1_0$163       scene_manager
     00002609  A$lcc1766438$81                    scene_manager
     0000260A  A$lcc1766438$82                    scene_manager
     0000260C  A$lcc1766438$83                    scene_manager
     0000260D  A$lcc1766438$84                    scene_manager
     0000260F  A$lcc1766438$88                    scene_manager
     0000260F  C$scene_manager.c$20$1_0$163       scene_manager
     00002612  A$lcc1766438$89                    scene_manager
     00002613  A$lcc1766438$90                    scene_manager
     00002615  A$lcc1766438$91                    scene_manager
     00002616  A$lcc1766438$92                    scene_manager
     00002618  A$lcc1766438$100                   scene_manager
     00002618  C$scene_manager.c$21$1_0$163       scene_manager
     00002618  XG$SceneManager_CleanScreen$0$0    scene_manager
     00002619  A$lcc1766438$113                   scene_manager
     00002619  C$scene_manager.c$23$1_0$165       scene_manager
     00002619  C$scene_manager.c$25$1_0$165       scene_manager
     00002619  G$SceneManager_Create$0$0          scene_manager
     00002619  _SceneManager_Create               scene_manager
     0000261A  A$lcc1766438$114                   scene_manager
     0000261D  A$lcc1766438$115                   scene_manager
     00002620  A$lcc1766438$116                   scene_manager
     00002621  A$lcc1766438$117                   scene_manager
     00002624  A$lcc1766438$118                   scene_manager
     00002625  A$lcc1766438$119                   scene_manager
     00002626  A$lcc1766438$123                   scene_manager
     00002626  C$scene_manager.c$27$1_0$165       scene_manager
     00002627  A$lcc1766438$124                   scene_manager
     00002628  A$lcc1766438$125                   scene_manager
     00002629  A$lcc1766438$126                   scene_manager
     0000262C  A$lcc1766438$127                   scene_manager
     0000262D  A$lcc1766438$128                   scene_manager
     0000262E  A$lcc1766438$129                   scene_manager
     0000262F  A$lcc1766438$130                   scene_manager
     00002630  A$lcc1766438$134                   scene_manager
     00002630  C$scene_manager.c$28$1_0$165       scene_manager
     00002633  A$lcc1766438$135                   scene_manager
     00002636  A$lcc1766438$136                   scene_manager
     00002637  A$lcc1766438$137                   scene_manager
     00002638  A$lcc1766438$138                   scene_manager
     00002639  A$lcc1766438$139                   scene_manager
     0000263A  A$lcc1766438$140                   scene_manager
     0000263C  A$lcc1766438$141                   scene_manager
     0000263D  A$lcc1766438$142                   scene_manager
     0000263F  A$lcc1766438$150                   scene_manager
     0000263F  C$scene_manager.c$29$1_0$165       scene_manager
     0000263F  XG$SceneManager_Create$0$0         scene_manager
ASxxxx Linker V03.00/V05.40 + sdld,  page 49.
Hexadecimal  [32-Bits]

Area                                    Addr        Size        Decimal Bytes (Attributes)
--------------------------------        ----        ----        ------- ----- ------------
_CODE                               00000200    0000319C =       12700. bytes (REL,CON)

      Value  Global                              Global Defined In Module
      -----  --------------------------------   ------------------------
     00002640  A$lcc1766438$160                   scene_manager
     00002640  C$scene_manager.c$31$1_0$167       scene_manager
     00002640  G$SceneManager_ChangeScene$0$0     scene_manager
     00002640  _SceneManager_ChangeScene          scene_manager
     00002642  A$lcc1766438$161                   scene_manager
     00002644  A$lcc1766438$162                   scene_manager
     00002645  A$lcc1766438$163                   scene_manager
     00002646  A$lcc1766438$164                   scene_manager
     00002647  A$lcc1766438$165                   scene_manager
     00002648  A$lcc1766438$166                   scene_manager
     00002649  A$lcc1766438$170                   scene_manager
     0000264C  A$lcc1766438$171                   scene_manager
     0000264D  A$lcc1766438$172                   scene_manager
     0000264E  A$lcc1766438$173                   scene_manager
     0000264F  A$lcc1766438$174                   scene_manager
     00002650  A$lcc1766438$175                   scene_manager
     00002651  A$lcc1766438$176                   scene_manager
     00002652  A$lcc1766438$177                   scene_manager
     00002653  A$lcc1766438$178                   scene_manager
     00002654  A$lcc1766438$182                   scene_manager
     00002654  C$scene_manager.c$34$2_0$168       scene_manager
     00002656  A$lcc1766438$186                   scene_manager
     00002657  A$lcc1766438$187                   scene_manager
     00002658  A$lcc1766438$188                   scene_manager
     00002659  A$lcc1766438$189                   scene_manager
     0000265A  A$lcc1766438$190                   scene_manager
     0000265B  A$lcc1766438$191                   scene_manager
     0000265C  A$lcc1766438$192                   scene_manager
     0000265D  A$lcc1766438$193                   scene_manager
     0000265F  A$lcc1766438$194                   scene_manager
     00002662  A$lcc1766438$195                   scene_manager
     00002663  A$lcc1766438$196                   scene_manager
     00002664  A$lcc1766438$197                   scene_manager
     00002665  A$lcc1766438$198                   scene_manager
     00002666  A$lcc1766438$199                   scene_manager
     00002667  A$lcc1766438$200                   scene_manager
     00002669  A$lcc1766438$204                   scene_manager
     00002669  C$scene_manager.c$37$2_0$169       scene_manager
     0000266A  A$lcc1766438$205                   scene_manager
     0000266B  A$lcc1766438$206                   scene_manager
     0000266E  A$lcc1766438$207                   scene_manager
     0000266F  A$lcc1766438$208                   scene_manager
     00002670  A$lcc1766438$209                   scene_manager
     00002671  A$lcc1766438$215                   scene_manager
     00002671  C$scene_manager.c$39$1_0$167       scene_manager
     00002674  A$lcc1766438$216                   scene_manager
     00002675  A$lcc1766438$217                   scene_manager
     00002676  A$lcc1766438$218                   scene_manager
     00002677  A$lcc1766438$219                   scene_manager
     00002678  A$lcc1766438$220                   scene_manager
     00002679  A$lcc1766438$221                   scene_manager
ASxxxx Linker V03.00/V05.40 + sdld,  page 50.
Hexadecimal  [32-Bits]

Area                                    Addr        Size        Decimal Bytes (Attributes)
--------------------------------        ----        ----        ------- ----- ------------
_CODE                               00000200    0000319C =       12700. bytes (REL,CON)

      Value  Global                              Global Defined In Module
      -----  --------------------------------   ------------------------
     0000267A  A$lcc1766438$222                   scene_manager
     0000267B  A$lcc1766438$223                   scene_manager
     0000267D  A$lcc1766438$224                   scene_manager
     0000267E  A$lcc1766438$225                   scene_manager
     00002681  A$lcc1766438$226                   scene_manager
     00002682  A$lcc1766438$227                   scene_manager
     00002683  A$lcc1766438$228                   scene_manager
     00002684  A$lcc1766438$229                   scene_manager
     00002685  A$lcc1766438$230                   scene_manager
     00002686  A$lcc1766438$231                   scene_manager
     00002687  A$lcc1766438$232                   scene_manager
     00002688  A$lcc1766438$233                   scene_manager
     00002689  A$lcc1766438$237                   scene_manager
     00002689  C$scene_manager.c$41$1_0$167       scene_manager
     0000268C  A$lcc1766438$241                   scene_manager
     0000268C  C$scene_manager.c$33$1_0$167       scene_manager
     0000268F  A$lcc1766438$242                   scene_manager
     00002690  A$lcc1766438$243                   scene_manager
     00002691  A$lcc1766438$244                   scene_manager
     00002692  A$lcc1766438$245                   scene_manager
     00002693  A$lcc1766438$246                   scene_manager
     00002694  A$lcc1766438$247                   scene_manager
     00002695  A$lcc1766438$251                   scene_manager
     00002695  C$scene_manager.c$36$1_0$167       scene_manager
     00002696  A$lcc1766438$252                   scene_manager
     00002697  A$lcc1766438$253                   scene_manager
     00002698  A$lcc1766438$254                   scene_manager
     00002699  A$lcc1766438$255                   scene_manager
     0000269A  A$lcc1766438$259                   scene_manager
     0000269A  C$scene_manager.c$42$1_0$167       scene_manager
     0000269B  A$lcc1766438$260                   scene_manager
     0000269C  A$lcc1766438$261                   scene_manager
     0000269D  A$lcc1766438$262                   scene_manager
     0000269F  A$lcc1766438$263                   scene_manager
     000026A0  A$lcc1766438$264                   scene_manager
     000026A1  A$lcc1766438$265                   scene_manager
     000026A2  A$lcc1766438$266                   scene_manager
     000026A3  A$lcc1766438$267                   scene_manager
     000026A4  A$lcc1766438$268                   scene_manager
     000026A5  A$lcc1766438$269                   scene_manager
     000026A6  A$lcc1766438$270                   scene_manager
     000026A7  A$lcc1766438$271                   scene_manager
     000026A8  A$lcc1766438$272                   scene_manager
     000026AB  A$lcc1766438$276                   scene_manager
     000026AB  C$scene_manager.c$44$1_0$167       scene_manager
     000026AD  A$lcc1766438$277                   scene_manager
     000026AF  A$lcc1766438$278                   scene_manager
     000026B1  A$lcc1766438$283                   scene_manager
     000026B3  A$lcc1766438$288                   scene_manager
     000026B3  C$scene_manager.c$45$1_0$167       scene_manager
     000026B3  XG$SceneManager_ChangeScene$0$0    scene_manager
ASxxxx Linker V03.00/V05.40 + sdld,  page 51.
Hexadecimal  [32-Bits]

Area                                    Addr        Size        Decimal Bytes (Attributes)
--------------------------------        ----        ----        ------- ----- ------------
_CODE                               00000200    0000319C =       12700. bytes (REL,CON)

      Value  Global                              Global Defined In Module
      -----  --------------------------------   ------------------------
     000026B4  A$lcc1766439$61                    gender_select
     000026B4  C$gender_select.c$6$0_0$30         gender_select
     000026B4  C$gender_select.c$8$1_0$30         gender_select
     000026B4  G$GenderSelect_Create$0$0          gender_select
     000026B4  _GenderSelect_Create               gender_select
     000026B7  A$lcc1766439$62                    gender_select
     000026B9  A$lcc1766439$63                    gender_select
     000026BA  A$lcc1766439$64                    gender_select
     000026BC  A$lcc1766439$68                    gender_select
     000026BC  C$gender_select.c$9$1_0$30         gender_select
     000026BD  A$lcc1766439$69                    gender_select
     000026BF  A$lcc1766439$70                    gender_select
     000026C0  A$lcc1766439$71                    gender_select
     000026C2  A$lcc1766439$75                    gender_select
     000026C2  C$gender_select.c$11$1_0$30        gender_select
     000026C5  A$lcc1766439$76                    gender_select
     000026C6  A$lcc1766439$77                    gender_select
     000026C7  A$lcc1766439$78                    gender_select
     000026C8  A$lcc1766439$86                    gender_select
     000026C8  C$gender_select.c$12$1_0$30        gender_select
     000026C8  XG$GenderSelect_Create$0$0         gender_select
     000026C9  A$lcc1766440$58                    gender_select_init
     000026C9  C$gender_select_init.c$11$1_0$15   gender_select_init
     000026C9  C$gender_select_init.c$9$0_0$155   gender_select_init
     000026C9  G$GenderSelect_Init$0$0            gender_select_init
     000026C9  _GenderSelect_Init                 gender_select_init
     000026CA  A$lcc1766440$59                    gender_select_init
     000026CD  A$lcc1766440$60                    gender_select_init
     000026D0  A$lcc1766440$61                    gender_select_init
     000026D1  A$lcc1766440$62                    gender_select_init
     000026D2  A$lcc1766440$63                    gender_select_init
     000026D3  A$lcc1766440$67                    gender_select_init
     000026D3  C$gender_select_init.c$12$2_0$15   gender_select_init
     000026D4  A$lcc1766440$68                    gender_select_init
     000026D5  A$lcc1766440$72                    gender_select_init
     000026D5  C$gender_select_init.c$13$2_0$15   gender_select_init
     000026D6  A$lcc1766440$76                    gender_select_init
     000026D6  C$gender_select_init.c$15$1_0$15   gender_select_init
     000026D7  A$lcc1766440$77                    gender_select_init
     000026D8  A$lcc1766440$81                    gender_select_init
     000026D8  C$gender_select_init.c$16$1_0$15   gender_select_init
     000026DB  A$lcc1766440$82                    gender_select_init
     000026DC  A$lcc1766440$83                    gender_select_init
     000026DD  A$lcc1766440$84                    gender_select_init
     000026DE  A$lcc1766440$85                    gender_select_init
     000026DF  A$lcc1766440$89                    gender_select_init
     000026DF  C$gender_select_init.c$18$1_0$15   gender_select_init
     000026E2  A$lcc1766440$90                    gender_select_init
     000026E3  A$lcc1766440$91                    gender_select_init
     000026E6  A$lcc1766440$92                    gender_select_init
     000026E7  A$lcc1766440$93                    gender_select_init
ASxxxx Linker V03.00/V05.40 + sdld,  page 52.
Hexadecimal  [32-Bits]

Area                                    Addr        Size        Decimal Bytes (Attributes)
--------------------------------        ----        ----        ------- ----- ------------
_CODE                               00000200    0000319C =       12700. bytes (REL,CON)

      Value  Global                              Global Defined In Module
      -----  --------------------------------   ------------------------
     000026EA  A$lcc1766440$94                    gender_select_init
     000026EC  A$lcc1766440$98                    gender_select_init
     000026EC  C$gender_select_init.c$19$1_0$15   gender_select_init
     000026EF  A$lcc1766440$99                    gender_select_init
     000026F0  A$lcc1766440$100                   gender_select_init
     000026F3  A$lcc1766440$101                   gender_select_init
     000026F4  A$lcc1766440$102                   gender_select_init
     000026F5  A$lcc1766440$103                   gender_select_init
     000026F6  A$lcc1766440$104                   gender_select_init
     000026F7  A$lcc1766440$105                   gender_select_init
     000026FA  A$lcc1766440$106                   gender_select_init
     000026FC  A$lcc1766440$114                   gender_select_init
     000026FC  C$gender_select_init.c$20$1_0$15   gender_select_init
     000026FC  XG$GenderSelect_Init$0$0           gender_select_init
     000026FD  A$lcc1766441$62                    gender_select_update
     000026FD  C$gender_select_update.c$6$0_0$1   gender_select_update
     000026FD  C$gender_select_update.c$8$1_0$1   gender_select_update
     000026FD  C$gender_select_update.c$9$1_0$1   gender_select_update
     000026FD  G$GenderSelect_Update$0$0          gender_select_update
     000026FD  XG$GenderSelect_Update$0$0         gender_select_update
     000026FD  _GenderSelect_Update               gender_select_update
     000026FE  A$lcc1766442$61                    inventory_scene
     000026FE  C$inventory_scene.c$6$0_0$30       inventory_scene
     000026FE  C$inventory_scene.c$8$1_0$30       inventory_scene
     000026FE  G$InventoryScene_Create$0$0        inventory_scene
     000026FE  _InventoryScene_Create             inventory_scene
     00002701  A$lcc1766442$62                    inventory_scene
     00002703  A$lcc1766442$63                    inventory_scene
     00002704  A$lcc1766442$64                    inventory_scene
     00002706  A$lcc1766442$68                    inventory_scene
     00002706  C$inventory_scene.c$9$1_0$30       inventory_scene
     00002707  A$lcc1766442$69                    inventory_scene
     00002709  A$lcc1766442$70                    inventory_scene
     0000270A  A$lcc1766442$71                    inventory_scene
     0000270C  A$lcc1766442$75                    inventory_scene
     0000270C  C$inventory_scene.c$11$1_0$30      inventory_scene
     0000270F  A$lcc1766442$76                    inventory_scene
     00002710  A$lcc1766442$77                    inventory_scene
     00002711  A$lcc1766442$78                    inventory_scene
     00002712  A$lcc1766442$86                    inventory_scene
     00002712  C$inventory_scene.c$12$1_0$30      inventory_scene
     00002712  XG$InventoryScene_Create$0$0       inventory_scene
     00002713  A$lcc1766443$56                    inventory_scene_init
     00002713  C$inventory_scene_init.c$13$0_0$   inventory_scene_init
     00002713  G$InventoryScene_DrawCoins$0$0     inventory_scene_init
     00002713  _InventoryScene_DrawCoins          inventory_scene_init
     00002715  A$lcc1766443$60                    inventory_scene_init
     00002715  C$inventory_scene_init.c$15$1_0$   inventory_scene_init
     00002718  A$lcc1766443$61                    inventory_scene_init
     0000271A  A$lcc1766443$62                    inventory_scene_init
     0000271B  A$lcc1766443$63                    inventory_scene_init
ASxxxx Linker V03.00/V05.40 + sdld,  page 53.
Hexadecimal  [32-Bits]

Area                                    Addr        Size        Decimal Bytes (Attributes)
--------------------------------        ----        ----        ------- ----- ------------
_CODE                               00000200    0000319C =       12700. bytes (REL,CON)

      Value  Global                              Global Defined In Module
      -----  --------------------------------   ------------------------
     0000271E  A$lcc1766443$64                    inventory_scene_init
     00002720  A$lcc1766443$65                    inventory_scene_init
     00002721  A$lcc1766443$66                    inventory_scene_init
     00002724  A$lcc1766443$67                    inventory_scene_init
     00002725  A$lcc1766443$68                    inventory_scene_init
     00002726  A$lcc1766443$69                    inventory_scene_init
     00002727  A$lcc1766443$70                    inventory_scene_init
     0000272A  A$lcc1766443$71                    inventory_scene_init
     0000272B  A$lcc1766443$72                    inventory_scene_init
     0000272D  A$lcc1766443$73                    inventory_scene_init
     00002730  A$lcc1766443$74                    inventory_scene_init
     00002731  A$lcc1766443$75                    inventory_scene_init
     00002733  A$lcc1766443$76                    inventory_scene_init
     00002735  A$lcc1766443$77                    inventory_scene_init
     00002736  A$lcc1766443$81                    inventory_scene_init
     00002736  C$inventory_scene_init.c$16$1_0$   inventory_scene_init
     00002739  A$lcc1766443$82                    inventory_scene_init
     0000273B  A$lcc1766443$83                    inventory_scene_init
     0000273C  A$lcc1766443$84                    inventory_scene_init
     0000273D  A$lcc1766443$85                    inventory_scene_init
     0000273E  A$lcc1766443$86                    inventory_scene_init
     00002741  A$lcc1766443$87                    inventory_scene_init
     00002742  A$lcc1766443$88                    inventory_scene_init
     00002743  A$lcc1766443$89                    inventory_scene_init
     00002746  A$lcc1766443$90                    inventory_scene_init
     00002749  A$lcc1766443$91                    inventory_scene_init
     0000274A  A$lcc1766443$92                    inventory_scene_init
     0000274C  A$lcc1766443$93                    inventory_scene_init
     0000274E  A$lcc1766443$94                    inventory_scene_init
     0000274F  A$lcc1766443$98                    inventory_scene_init
     0000274F  C$inventory_scene_init.c$17$1_0$   inventory_scene_init
     00002752  A$lcc1766443$99                    inventory_scene_init
     00002754  A$lcc1766443$100                   inventory_scene_init
     00002755  A$lcc1766443$101                   inventory_scene_init
     00002756  A$lcc1766443$102                   inventory_scene_init
     00002757  A$lcc1766443$103                   inventory_scene_init
     0000275A  A$lcc1766443$104                   inventory_scene_init
     0000275B  A$lcc1766443$105                   inventory_scene_init
     0000275C  A$lcc1766443$106                   inventory_scene_init
     0000275F  A$lcc1766443$107                   inventory_scene_init
     00002762  A$lcc1766443$108                   inventory_scene_init
     00002763  A$lcc1766443$109                   inventory_scene_init
     00002765  A$lcc1766443$110                   inventory_scene_init
     00002767  A$lcc1766443$114                   inventory_scene_init
     00002767  C$inventory_scene_init.c$18$1_0$   inventory_scene_init
     00002768  A$lcc1766443$115                   inventory_scene_init
     00002769  A$lcc1766443$116                   inventory_scene_init
     0000276C  A$lcc1766443$117                   inventory_scene_init
     0000276D  A$lcc1766443$118                   inventory_scene_init
     0000276E  A$lcc1766443$119                   inventory_scene_init
     0000276F  A$lcc1766443$120                   inventory_scene_init
ASxxxx Linker V03.00/V05.40 + sdld,  page 54.
Hexadecimal  [32-Bits]

Area                                    Addr        Size        Decimal Bytes (Attributes)
--------------------------------        ----        ----        ------- ----- ------------
_CODE                               00000200    0000319C =       12700. bytes (REL,CON)

      Value  Global                              Global Defined In Module
      -----  --------------------------------   ------------------------
     00002772  A$lcc1766443$121                   inventory_scene_init
     00002773  A$lcc1766443$122                   inventory_scene_init
     00002775  A$lcc1766443$123                   inventory_scene_init
     00002777  A$lcc1766443$124                   inventory_scene_init
     00002778  A$lcc1766443$128                   inventory_scene_init
     00002778  C$inventory_scene_init.c$20$1_0$   inventory_scene_init
     0000277A  A$lcc1766443$129                   inventory_scene_init
     0000277B  A$lcc1766443$130                   inventory_scene_init
     0000277E  A$lcc1766443$131                   inventory_scene_init
     0000277F  A$lcc1766443$132                   inventory_scene_init
     00002782  A$lcc1766443$133                   inventory_scene_init
     00002783  A$lcc1766443$134                   inventory_scene_init
     00002786  A$lcc1766443$135                   inventory_scene_init
     00002788  A$lcc1766443$139                   inventory_scene_init
     00002788  C$inventory_scene_init.c$21$1_0$   inventory_scene_init
     0000278A  A$lcc1766443$140                   inventory_scene_init
     0000278B  A$lcc1766443$141                   inventory_scene_init
     0000278E  A$lcc1766443$142                   inventory_scene_init
     0000278F  A$lcc1766443$143                   inventory_scene_init
     00002792  A$lcc1766443$144                   inventory_scene_init
     00002793  A$lcc1766443$145                   inventory_scene_init
     00002796  A$lcc1766443$146                   inventory_scene_init
     00002798  A$lcc1766443$150                   inventory_scene_init
     00002798  C$inventory_scene_init.c$22$1_0$   inventory_scene_init
     0000279A  A$lcc1766443$151                   inventory_scene_init
     0000279B  A$lcc1766443$152                   inventory_scene_init
     0000279E  A$lcc1766443$153                   inventory_scene_init
     0000279F  A$lcc1766443$154                   inventory_scene_init
     000027A2  A$lcc1766443$155                   inventory_scene_init
     000027A3  A$lcc1766443$156                   inventory_scene_init
     000027A6  A$lcc1766443$157                   inventory_scene_init
     000027A8  A$lcc1766443$161                   inventory_scene_init
     000027A8  C$inventory_scene_init.c$23$1_0$   inventory_scene_init
     000027AA  A$lcc1766443$162                   inventory_scene_init
     000027AB  A$lcc1766443$163                   inventory_scene_init
     000027AC  A$lcc1766443$164                   inventory_scene_init
     000027AD  A$lcc1766443$165                   inventory_scene_init
     000027B0  A$lcc1766443$166                   inventory_scene_init
     000027B1  A$lcc1766443$167                   inventory_scene_init
     000027B4  A$lcc1766443$168                   inventory_scene_init
     000027B5  A$lcc1766443$169                   inventory_scene_init
     000027B8  A$lcc1766443$173                   inventory_scene_init
     000027BA  A$lcc1766443$178                   inventory_scene_init
     000027BA  C$inventory_scene_init.c$24$1_0$   inventory_scene_init
     000027BA  XG$InventoryScene_DrawCoins$0$0    inventory_scene_init
     000027BB  A$lcc1766443$188                   inventory_scene_init
     000027BB  C$inventory_scene_init.c$26$1_0$   inventory_scene_init
     000027BB  G$InventoryScene_Init$0$0          inventory_scene_init
     000027BB  _InventoryScene_Init               inventory_scene_init
     000027BC  A$lcc1766443$192                   inventory_scene_init
     000027BC  C$inventory_scene_init.c$28$1_0$   inventory_scene_init
ASxxxx Linker V03.00/V05.40 + sdld,  page 55.
Hexadecimal  [32-Bits]

Area                                    Addr        Size        Decimal Bytes (Attributes)
--------------------------------        ----        ----        ------- ----- ------------
_CODE                               00000200    0000319C =       12700. bytes (REL,CON)

      Value  Global                              Global Defined In Module
      -----  --------------------------------   ------------------------
     000027BF  A$lcc1766443$193                   inventory_scene_init
     000027C0  A$lcc1766443$194                   inventory_scene_init
     000027C1  A$lcc1766443$195                   inventory_scene_init
     000027C2  A$lcc1766443$196                   inventory_scene_init
     000027C3  A$lcc1766443$200                   inventory_scene_init
     000027C3  C$inventory_scene_init.c$29$1_0$   inventory_scene_init
     000027C6  A$lcc1766443$204                   inventory_scene_init
     000027C6  C$inventory_scene_init.c$31$2_0$   inventory_scene_init
     000027C8  A$lcc1766443$205                   inventory_scene_init
     000027CA  A$lcc1766443$209                   inventory_scene_init
     000027CA  C$inventory_scene_init.c$33$1_1$   inventory_scene_init
     000027CD  A$lcc1766443$210                   inventory_scene_init
     000027CE  A$lcc1766443$211                   inventory_scene_init
     000027D1  A$lcc1766443$212                   inventory_scene_init
     000027D2  A$lcc1766443$213                   inventory_scene_init
     000027D5  A$lcc1766443$214                   inventory_scene_init
     000027D7  A$lcc1766443$218                   inventory_scene_init
     000027D7  C$inventory_scene_init.c$34$1_1$   inventory_scene_init
     000027DA  A$lcc1766443$219                   inventory_scene_init
     000027DB  A$lcc1766443$220                   inventory_scene_init
     000027DE  A$lcc1766443$221                   inventory_scene_init
     000027DF  A$lcc1766443$222                   inventory_scene_init
     000027E0  A$lcc1766443$223                   inventory_scene_init
     000027E1  A$lcc1766443$224                   inventory_scene_init
     000027E2  A$lcc1766443$225                   inventory_scene_init
     000027E5  A$lcc1766443$226                   inventory_scene_init
     000027E7  A$lcc1766443$230                   inventory_scene_init
     000027E7  C$inventory_scene_init.c$36$1_1$   inventory_scene_init
     000027EA  A$lcc1766443$231                   inventory_scene_init
     000027EB  A$lcc1766443$232                   inventory_scene_init
     000027EE  A$lcc1766443$233                   inventory_scene_init
     000027EF  A$lcc1766443$234                   inventory_scene_init
     000027F2  A$lcc1766443$235                   inventory_scene_init
     000027F4  A$lcc1766443$239                   inventory_scene_init
     000027F4  C$inventory_scene_init.c$37$1_1$   inventory_scene_init
     000027F6  A$lcc1766443$240                   inventory_scene_init
     000027F7  A$lcc1766443$241                   inventory_scene_init
     000027FA  A$lcc1766443$242                   inventory_scene_init
     000027FB  A$lcc1766443$243                   inventory_scene_init
     000027FE  A$lcc1766443$244                   inventory_scene_init
     000027FF  A$lcc1766443$245                   inventory_scene_init
     00002802  A$lcc1766443$246                   inventory_scene_init
     00002804  A$lcc1766443$250                   inventory_scene_init
     00002804  C$inventory_scene_init.c$39$1_1$   inventory_scene_init
     00002807  A$lcc1766443$254                   inventory_scene_init
     00002808  A$lcc1766443$259                   inventory_scene_init
     00002808  C$inventory_scene_init.c$40$1_1$   inventory_scene_init
     00002808  XG$InventoryScene_Init$0$0         inventory_scene_init
     00002809  A$lcc1766444$57                    inventory_scene_update
     00002809  C$inventory_scene_update.c$8$0_0   inventory_scene_update
     00002809  C$inventory_scene_update.c$9$1_0   inventory_scene_update
ASxxxx Linker V03.00/V05.40 + sdld,  page 56.
Hexadecimal  [32-Bits]

Area                                    Addr        Size        Decimal Bytes (Attributes)
--------------------------------        ----        ----        ------- ----- ------------
_CODE                               00000200    0000319C =       12700. bytes (REL,CON)

      Value  Global                              Global Defined In Module
      -----  --------------------------------   ------------------------
     00002809  G$InventoryScene_Update$0$0        inventory_scene_update
     00002809  _InventoryScene_Update             inventory_scene_update
     0000280C  A$lcc1766444$58                    inventory_scene_update
     0000280F  A$lcc1766444$69                    inventory_scene_update
     0000280F  C$inventory_scene_update.c$10$1_   inventory_scene_update
     0000280F  C$inventory_scene_update.c$11$1_   inventory_scene_update
     0000280F  XG$InventoryScene_Update$0$0       inventory_scene_update
     00002812  A$lcc1766445$77                    main_menu
     00002812  C$main_menu.c$10$0_0$32            main_menu
     00002812  C$main_menu.c$11$1_0$32            main_menu
     00002812  G$MainMenu_Create$0$0              main_menu
     00002812  _MainMenu_Create                   main_menu
     00002815  A$lcc1766445$78                    main_menu
     00002817  A$lcc1766445$79                    main_menu
     00002818  A$lcc1766445$80                    main_menu
     0000281A  A$lcc1766445$84                    main_menu
     0000281A  C$main_menu.c$12$1_0$32            main_menu
     0000281B  A$lcc1766445$85                    main_menu
     0000281D  A$lcc1766445$86                    main_menu
     0000281E  A$lcc1766445$87                    main_menu
     00002820  A$lcc1766445$91                    main_menu
     00002820  C$main_menu.c$14$1_0$32            main_menu
     00002823  A$lcc1766445$92                    main_menu
     00002824  A$lcc1766445$93                    main_menu
     00002825  A$lcc1766445$94                    main_menu
     00002826  A$lcc1766445$102                   main_menu
     00002826  C$main_menu.c$15$1_0$32            main_menu
     00002826  XG$MainMenu_Create$0$0             main_menu
     00002827  A$lcc1766446$57                    main_menu_init
     00002827  C$main_menu_init.c$7$0_0$164       main_menu_init
     00002827  C$main_menu_init.c$9$1_0$164       main_menu_init
     00002827  G$MainMenu_Init$0$0                main_menu_init
     00002827  _MainMenu_Init                     main_menu_init
     0000282A  A$lcc1766446$58                    main_menu_init
     0000282B  A$lcc1766446$59                    main_menu_init
     0000282C  A$lcc1766446$60                    main_menu_init
     0000282D  A$lcc1766446$61                    main_menu_init
     0000282E  A$lcc1766446$65                    main_menu_init
     0000282E  C$main_menu_init.c$11$1_0$164      main_menu_init
     00002831  A$lcc1766446$66                    main_menu_init
     00002832  A$lcc1766446$67                    main_menu_init
     00002835  A$lcc1766446$68                    main_menu_init
     00002836  A$lcc1766446$69                    main_menu_init
     00002839  A$lcc1766446$70                    main_menu_init
     0000283B  A$lcc1766446$74                    main_menu_init
     0000283B  C$main_menu_init.c$12$1_0$164      main_menu_init
     0000283E  A$lcc1766446$75                    main_menu_init
     0000283F  A$lcc1766446$76                    main_menu_init
     00002842  A$lcc1766446$77                    main_menu_init
     00002843  A$lcc1766446$78                    main_menu_init
     00002844  A$lcc1766446$79                    main_menu_init
ASxxxx Linker V03.00/V05.40 + sdld,  page 57.
Hexadecimal  [32-Bits]

Area                                    Addr        Size        Decimal Bytes (Attributes)
--------------------------------        ----        ----        ------- ----- ------------
_CODE                               00000200    0000319C =       12700. bytes (REL,CON)

      Value  Global                              Global Defined In Module
      -----  --------------------------------   ------------------------
     00002845  A$lcc1766446$80                    main_menu_init
     00002846  A$lcc1766446$81                    main_menu_init
     00002849  A$lcc1766446$82                    main_menu_init
     0000284B  A$lcc1766446$90                    main_menu_init
     0000284B  C$main_menu_init.c$13$1_0$164      main_menu_init
     0000284B  XG$MainMenu_Init$0$0               main_menu_init
     0000284C  A$lcc1766447$59                    main_menu_init_stats
     0000284C  C$main_menu_init_stats.c$3$0_0$3   main_menu_init_stats
     0000284C  C$main_menu_init_stats.c$5$0_0$3   main_menu_init_stats
     0000284C  G$MainMenu_InitRandomStats$0$0     main_menu_init_stats
     0000284C  XG$MainMenu_InitRandomStats$0$0    main_menu_init_stats
     0000284C  _MainMenu_InitRandomStats          main_menu_init_stats
     0000284D  A$lcc1766448$53                    main_menu_input
     0000284D  C$main_menu_input.c$9$0_0$168      main_menu_input
     0000284D  G$MainMenu_CheckInput$0$0          main_menu_input
     0000284D  _MainMenu_CheckInput               main_menu_input
     0000284F  A$lcc1766448$57                    main_menu_input
     0000284F  C$main_menu_input.c$11$1_0$168     main_menu_input
     00002852  A$lcc1766448$58                    main_menu_input
     00002855  A$lcc1766448$59                    main_menu_input
     00002856  A$lcc1766448$63                    main_menu_input
     00002856  C$main_menu_input.c$13$2_0$169     main_menu_input
     00002857  A$lcc1766448$64                    main_menu_input
     00002858  A$lcc1766448$65                    main_menu_input
     0000285A  A$lcc1766448$66                    main_menu_input
     0000285D  A$lcc1766448$67                    main_menu_input
     0000285E  A$lcc1766448$68                    main_menu_input
     00002860  A$lcc1766448$72                    main_menu_input
     00002860  C$main_menu_input.c$15$3_0$170     main_menu_input
     00002862  A$lcc1766448$73                    main_menu_input
     00002865  A$lcc1766448$74                    main_menu_input
     00002866  A$lcc1766448$75                    main_menu_input
     00002868  A$lcc1766448$79                    main_menu_input
     00002868  C$main_menu_input.c$16$3_0$170     main_menu_input
     0000286A  A$lcc1766448$80                    main_menu_input
     0000286B  A$lcc1766448$81                    main_menu_input
     0000286C  A$lcc1766448$85                    main_menu_input
     0000286C  C$main_menu_input.c$18$5_0$172     main_menu_input
     0000286E  A$lcc1766448$86                    main_menu_input
     00002870  A$lcc1766448$88                    main_menu_input
     00002872  A$lcc1766448$89                    main_menu_input
     00002873  A$lcc1766448$90                    main_menu_input
     00002875  A$lcc1766448$91                    main_menu_input
     00002877  A$lcc1766448$95                    main_menu_input
     00002877  C$main_menu_input.c$20$5_0$172     main_menu_input
     0000287A  A$lcc1766448$96                    main_menu_input
     0000287B  A$lcc1766448$97                    main_menu_input
     0000287D  A$lcc1766448$98                    main_menu_input
     0000287E  A$lcc1766448$99                    main_menu_input
     0000287F  A$lcc1766448$100                   main_menu_input
     00002880  A$lcc1766448$101                   main_menu_input
ASxxxx Linker V03.00/V05.40 + sdld,  page 58.
Hexadecimal  [32-Bits]

Area                                    Addr        Size        Decimal Bytes (Attributes)
--------------------------------        ----        ----        ------- ----- ------------
_CODE                               00000200    0000319C =       12700. bytes (REL,CON)

      Value  Global                              Global Defined In Module
      -----  --------------------------------   ------------------------
     00002881  A$lcc1766448$103                   main_menu_input
     00002884  A$lcc1766448$104                   main_menu_input
     00002885  A$lcc1766448$105                   main_menu_input
     00002886  A$lcc1766448$106                   main_menu_input
     00002887  A$lcc1766448$107                   main_menu_input
     00002888  A$lcc1766448$108                   main_menu_input
     00002889  A$lcc1766448$109                   main_menu_input
     0000288A  A$lcc1766448$110                   main_menu_input
     0000288B  A$lcc1766448$111                   main_menu_input
     0000288C  A$lcc1766448$112                   main_menu_input
     0000288D  A$lcc1766448$113                   main_menu_input
     0000288E  A$lcc1766448$114                   main_menu_input
     0000288F  A$lcc1766448$115                   main_menu_input
     00002890  A$lcc1766448$116                   main_menu_input
     00002891  A$lcc1766448$117                   main_menu_input
     00002892  A$lcc1766448$118                   main_menu_input
     00002893  A$lcc1766448$119                   main_menu_input
     00002894  A$lcc1766448$120                   main_menu_input
     00002895  A$lcc1766448$121                   main_menu_input
     00002896  A$lcc1766448$122                   main_menu_input
     00002897  A$lcc1766448$123                   main_menu_input
     00002898  A$lcc1766448$124                   main_menu_input
     00002899  A$lcc1766448$125                   main_menu_input
     0000289A  A$lcc1766448$126                   main_menu_input
     0000289B  A$lcc1766448$127                   main_menu_input
     0000289C  A$lcc1766448$128                   main_menu_input
     0000289D  A$lcc1766448$129                   main_menu_input
     0000289E  A$lcc1766448$130                   main_menu_input
     0000289F  A$lcc1766448$131                   main_menu_input
     000028A0  A$lcc1766448$132                   main_menu_input
     000028A2  A$lcc1766448$133                   main_menu_input
     000028A5  A$lcc1766448$134                   main_menu_input
     000028A6  A$lcc1766448$135                   main_menu_input
     000028A7  A$lcc1766448$136                   main_menu_input
     000028A9  A$lcc1766448$138                   main_menu_input
     000028AA  A$lcc1766448$139                   main_menu_input
     000028AB  A$lcc1766448$140                   main_menu_input
     000028AC  A$lcc1766448$144                   main_menu_input
     000028AC  C$main_menu_input.c$20$1_0$168     main_menu_input
     000028AF  A$lcc1766448$145                   main_menu_input
     000028B0  A$lcc1766448$146                   main_menu_input
     000028B3  A$lcc1766448$147                   main_menu_input
     000028B4  A$lcc1766448$148                   main_menu_input
     000028B5  A$lcc1766448$149                   main_menu_input
     000028B6  A$lcc1766448$153                   main_menu_input
     000028B6  C$main_menu_input.c$18$4_0$171     main_menu_input
     000028B8  A$lcc1766448$154                   main_menu_input
     000028B9  A$lcc1766448$155                   main_menu_input
     000028BB  A$lcc1766448$160                   main_menu_input
     000028BB  C$main_menu_input.c$23$3_0$170     main_menu_input
     000028BE  A$lcc1766448$161                   main_menu_input
ASxxxx Linker V03.00/V05.40 + sdld,  page 59.
Hexadecimal  [32-Bits]

Area                                    Addr        Size        Decimal Bytes (Attributes)
--------------------------------        ----        ----        ------- ----- ------------
_CODE                               00000200    0000319C =       12700. bytes (REL,CON)

      Value  Global                              Global Defined In Module
      -----  --------------------------------   ------------------------
     000028BF  A$lcc1766448$162                   main_menu_input
     000028C2  A$lcc1766448$163                   main_menu_input
     000028C3  A$lcc1766448$164                   main_menu_input
     000028C4  A$lcc1766448$165                   main_menu_input
     000028C5  A$lcc1766448$166                   main_menu_input
     000028C6  A$lcc1766448$167                   main_menu_input
     000028C7  A$lcc1766448$168                   main_menu_input
     000028C8  A$lcc1766448$169                   main_menu_input
     000028CB  A$lcc1766448$170                   main_menu_input
     000028CD  A$lcc1766448$171                   main_menu_input
     000028CE  A$lcc1766448$172                   main_menu_input
     000028D0  A$lcc1766448$173                   main_menu_input
     000028D1  A$lcc1766448$174                   main_menu_input
     000028D2  A$lcc1766448$175                   main_menu_input
     000028D5  A$lcc1766448$180                   main_menu_input
     000028D5  C$main_menu_input.c$26$1_0$168     main_menu_input
     000028D8  A$lcc1766448$181                   main_menu_input
     000028DB  A$lcc1766448$185                   main_menu_input
     000028DD  A$lcc1766448$190                   main_menu_input
     000028DD  C$main_menu_input.c$27$1_0$168     main_menu_input
     000028DD  XG$MainMenu_CheckInput$0$0         main_menu_input
     000028DE  A$lcc1766449$55                    main_menu_update
     000028DE  C$main_menu_update.c$7$0_0$158     main_menu_update
     000028DE  G$MainMenu_Update$0$0              main_menu_update
     000028DE  _MainMenu_Update                   main_menu_update
     000028E0  A$lcc1766449$59                    main_menu_update
     000028E0  C$main_menu_update.c$9$1_0$158     main_menu_update
     000028E3  A$lcc1766449$60                    main_menu_update
     000028E4  A$lcc1766449$61                    main_menu_update
     000028E6  A$lcc1766449$62                    main_menu_update
     000028E7  A$lcc1766449$63                    main_menu_update
     000028E8  A$lcc1766449$68                    main_menu_update
     000028E8  C$main_menu_update.c$10$1_0$158    main_menu_update
     000028EB  A$lcc1766449$72                    main_menu_update
     000028EB  C$main_menu_update.c$12$2_0$159    main_menu_update
     000028EE  A$lcc1766449$73                    main_menu_update
     000028EF  A$lcc1766449$74                    main_menu_update
     000028F1  A$lcc1766449$75                    main_menu_update
     000028F4  A$lcc1766449$76                    main_menu_update
     000028F5  A$lcc1766449$77                    main_menu_update
     000028F6  A$lcc1766449$78                    main_menu_update
     000028F7  A$lcc1766449$79                    main_menu_update
     000028F8  A$lcc1766449$80                    main_menu_update
     000028FB  A$lcc1766449$84                    main_menu_update
     000028FB  C$main_menu_update.c$14$3_0$160    main_menu_update
     000028FC  A$lcc1766449$85                    main_menu_update
     000028FD  A$lcc1766449$86                    main_menu_update
     000028FE  A$lcc1766449$87                    main_menu_update
     000028FF  A$lcc1766449$91                    main_menu_update
     000028FF  C$main_menu_update.c$16$4_0$161    main_menu_update
     00002902  A$lcc1766449$95                    main_menu_update
ASxxxx Linker V03.00/V05.40 + sdld,  page 60.
Hexadecimal  [32-Bits]

Area                                    Addr        Size        Decimal Bytes (Attributes)
--------------------------------        ----        ----        ------- ----- ------------
_CODE                               00000200    0000319C =       12700. bytes (REL,CON)

      Value  Global                              Global Defined In Module
      -----  --------------------------------   ------------------------
     00002902  C$main_menu_update.c$18$5_0$162    main_menu_update
     00002903  A$lcc1766449$96                    main_menu_update
     00002905  A$lcc1766449$97                    main_menu_update
     00002908  A$lcc1766449$101                   main_menu_update
     00002908  C$main_menu_update.c$20$6_0$164    main_menu_update
     0000290A  A$lcc1766449$102                   main_menu_update
     0000290C  A$lcc1766449$106                   main_menu_update
     0000290C  C$main_menu_update.c$21$2_0$158    main_menu_update
     0000290E  A$lcc1766449$108                   main_menu_update
     0000290F  A$lcc1766449$109                   main_menu_update
     00002911  A$lcc1766449$110                   main_menu_update
     00002913  A$lcc1766449$114                   main_menu_update
     00002913  C$main_menu_update.c$23$7_1$165    main_menu_update
     00002914  A$lcc1766449$115                   main_menu_update
     00002917  A$lcc1766449$116                   main_menu_update
     00002918  A$lcc1766449$117                   main_menu_update
     00002919  A$lcc1766449$118                   main_menu_update
     0000291C  A$lcc1766449$119                   main_menu_update
     0000291D  A$lcc1766449$120                   main_menu_update
     0000291F  A$lcc1766449$121                   main_menu_update
     00002920  A$lcc1766449$122                   main_menu_update
     00002921  A$lcc1766449$123                   main_menu_update
     00002922  A$lcc1766449$124                   main_menu_update
     00002923  A$lcc1766449$125                   main_menu_update
     00002926  A$lcc1766449$126                   main_menu_update
     00002928  A$lcc1766449$130                   main_menu_update
     00002928  C$main_menu_update.c$21$6_1$164    main_menu_update
     00002929  A$lcc1766449$131                   main_menu_update
     0000292B  A$lcc1766449$136                   main_menu_update
     0000292B  C$main_menu_update.c$28$5_0$166    main_menu_update
     0000292E  A$lcc1766449$137                   main_menu_update
     00002930  A$lcc1766449$141                   main_menu_update
     00002930  C$main_menu_update.c$30$6_0$168    main_menu_update
     00002932  A$lcc1766449$142                   main_menu_update
     00002934  A$lcc1766449$143                   main_menu_update
     00002935  A$lcc1766449$144                   main_menu_update
     00002937  A$lcc1766449$145                   main_menu_update
     00002938  A$lcc1766449$146                   main_menu_update
     0000293A  A$lcc1766449$147                   main_menu_update
     0000293B  A$lcc1766449$148                   main_menu_update
     0000293D  A$lcc1766449$149                   main_menu_update
     0000293E  A$lcc1766449$150                   main_menu_update
     0000293F  A$lcc1766449$151                   main_menu_update
     00002941  A$lcc1766449$152                   main_menu_update
     00002942  A$lcc1766449$153                   main_menu_update
     00002943  A$lcc1766449$154                   main_menu_update
     00002945  A$lcc1766449$155                   main_menu_update
     00002946  A$lcc1766449$156                   main_menu_update
     00002948  A$lcc1766449$157                   main_menu_update
     00002949  A$lcc1766449$158                   main_menu_update
     0000294B  A$lcc1766449$159                   main_menu_update
ASxxxx Linker V03.00/V05.40 + sdld,  page 61.
Hexadecimal  [32-Bits]

Area                                    Addr        Size        Decimal Bytes (Attributes)
--------------------------------        ----        ----        ------- ----- ------------
_CODE                               00000200    0000319C =       12700. bytes (REL,CON)

      Value  Global                              Global Defined In Module
      -----  --------------------------------   ------------------------
     0000294C  A$lcc1766449$160                   main_menu_update
     0000294E  A$lcc1766449$161                   main_menu_update
     0000294F  A$lcc1766449$162                   main_menu_update
     00002951  A$lcc1766449$163                   main_menu_update
     00002952  A$lcc1766449$167                   main_menu_update
     00002952  C$main_menu_update.c$33$2_0$158    main_menu_update
     00002955  A$lcc1766449$168                   main_menu_update
     00002956  A$lcc1766449$170                   main_menu_update
     00002957  A$lcc1766449$171                   main_menu_update
     00002959  A$lcc1766449$172                   main_menu_update
     0000295B  A$lcc1766449$176                   main_menu_update
     0000295B  C$main_menu_update.c$35$7_1$169    main_menu_update
     0000295C  A$lcc1766449$177                   main_menu_update
     0000295E  A$lcc1766449$178                   main_menu_update
     00002961  A$lcc1766449$179                   main_menu_update
     00002962  A$lcc1766449$180                   main_menu_update
     00002963  A$lcc1766449$181                   main_menu_update
     00002964  A$lcc1766449$182                   main_menu_update
     00002965  A$lcc1766449$183                   main_menu_update
     00002968  A$lcc1766449$184                   main_menu_update
     00002969  A$lcc1766449$185                   main_menu_update
     0000296A  A$lcc1766449$186                   main_menu_update
     0000296B  A$lcc1766449$187                   main_menu_update
     0000296D  A$lcc1766449$191                   main_menu_update
     0000296D  C$main_menu_update.c$36$7_1$169    main_menu_update
     0000296F  A$lcc1766449$192                   main_menu_update
     00002970  A$lcc1766449$193                   main_menu_update
     00002971  A$lcc1766449$194                   main_menu_update
     00002974  A$lcc1766449$195                   main_menu_update
     00002975  A$lcc1766449$196                   main_menu_update
     00002977  A$lcc1766449$197                   main_menu_update
     00002978  A$lcc1766449$198                   main_menu_update
     00002979  A$lcc1766449$199                   main_menu_update
     0000297A  A$lcc1766449$200                   main_menu_update
     0000297B  A$lcc1766449$201                   main_menu_update
     0000297E  A$lcc1766449$202                   main_menu_update
     00002980  A$lcc1766449$206                   main_menu_update
     00002980  C$main_menu_update.c$37$7_1$169    main_menu_update
     00002981  A$lcc1766449$210                   main_menu_update
     00002981  C$main_menu_update.c$33$6_1$168    main_menu_update
     00002982  A$lcc1766449$211                   main_menu_update
     00002984  A$lcc1766449$216                   main_menu_update
     00002986  A$lcc1766449$221                   main_menu_update
     00002986  C$main_menu_update.c$41$2_0$158    main_menu_update
     00002986  XG$MainMenu_Update$0$0             main_menu_update
     00002987  A$lcc1766450$57                    clean_text
     00002987  C$clean_text.c$7$0_0$133           clean_text
     00002987  C$clean_text.c$9$1_0$133           clean_text
     00002987  G$clean$0$0                        clean_text
     00002987  _clean                             clean_text
     0000298A  A$lcc1766450$58                    clean_text
ASxxxx Linker V03.00/V05.40 + sdld,  page 62.
Hexadecimal  [32-Bits]

Area                                    Addr        Size        Decimal Bytes (Attributes)
--------------------------------        ----        ----        ------- ----- ------------
_CODE                               00000200    0000319C =       12700. bytes (REL,CON)

      Value  Global                              Global Defined In Module
      -----  --------------------------------   ------------------------
     0000298C  A$lcc1766450$62                    clean_text
     0000298C  C$clean_text.c$11$2_0$133          clean_text
     0000298E  A$lcc1766450$64                    clean_text
     00002990  A$lcc1766450$65                    clean_text
     00002991  A$lcc1766450$66                    clean_text
     00002993  A$lcc1766450$70                    clean_text
     00002993  C$clean_text.c$13$3_0$135          clean_text
     00002996  A$lcc1766450$71                    clean_text
     00002997  A$lcc1766450$72                    clean_text
     00002998  A$lcc1766450$73                    clean_text
     00002999  A$lcc1766450$74                    clean_text
     0000299C  A$lcc1766450$75                    clean_text
     0000299D  A$lcc1766450$76                    clean_text
     0000299F  A$lcc1766450$77                    clean_text
     000029A0  A$lcc1766450$78                    clean_text
     000029A1  A$lcc1766450$79                    clean_text
     000029A2  A$lcc1766450$80                    clean_text
     000029A3  A$lcc1766450$81                    clean_text
     000029A6  A$lcc1766450$82                    clean_text
     000029A8  A$lcc1766450$86                    clean_text
     000029A8  C$clean_text.c$14$3_0$135          clean_text
     000029AB  A$lcc1766450$87                    clean_text
     000029AC  A$lcc1766450$88                    clean_text
     000029AE  A$lcc1766450$89                    clean_text
     000029AF  A$lcc1766450$90                    clean_text
     000029B0  A$lcc1766450$91                    clean_text
     000029B1  A$lcc1766450$92                    clean_text
     000029B2  A$lcc1766450$93                    clean_text
     000029B5  A$lcc1766450$94                    clean_text
     000029B7  A$lcc1766450$98                    clean_text
     000029B7  C$clean_text.c$11$2_0$134          clean_text
     000029B8  A$lcc1766450$99                    clean_text
     000029BA  A$lcc1766450$104                   clean_text
     000029BA  C$clean_text.c$17$2_0$133          clean_text
     000029BC  A$lcc1766450$109                   clean_text
     000029BC  C$clean_text.c$18$3_0$137          clean_text
     000029BD  A$lcc1766450$110                   clean_text
     000029BF  A$lcc1766450$111                   clean_text
     000029C0  A$lcc1766450$112                   clean_text
     000029C3  A$lcc1766450$113                   clean_text
     000029C4  A$lcc1766450$114                   clean_text
     000029C6  A$lcc1766450$115                   clean_text
     000029C7  A$lcc1766450$116                   clean_text
     000029C8  A$lcc1766450$117                   clean_text
     000029CA  A$lcc1766450$118                   clean_text
     000029CB  A$lcc1766450$119                   clean_text
     000029CC  A$lcc1766450$120                   clean_text
     000029CE  A$lcc1766450$121                   clean_text
     000029CF  A$lcc1766450$122                   clean_text
     000029D0  A$lcc1766450$123                   clean_text
     000029D1  A$lcc1766450$124                   clean_text
ASxxxx Linker V03.00/V05.40 + sdld,  page 63.
Hexadecimal  [32-Bits]

Area                                    Addr        Size        Decimal Bytes (Attributes)
--------------------------------        ----        ----        ------- ----- ------------
_CODE                               00000200    0000319C =       12700. bytes (REL,CON)

      Value  Global                              Global Defined In Module
      -----  --------------------------------   ------------------------
     000029D2  A$lcc1766450$125                   clean_text
     000029D5  A$lcc1766450$126                   clean_text
     000029D7  A$lcc1766450$130                   clean_text
     000029D7  C$clean_text.c$17$2_0$136          clean_text
     000029D8  A$lcc1766450$138                   clean_text
     000029D8  C$clean_text.c$20$2_0$133          clean_text
     000029D8  XG$clean$0$0                       clean_text
     000029DA  G$empty_tile$0_0$0                 clean_text
     000029DA  _empty_tile                        clean_text
     000029DB  A$lcc1766451$53                    map_collision
     000029DB  C$map_collision.c$12$0_0$135       map_collision
     000029DB  Fmap_collision$get_tile$0$0        map_collision
     000029DD  A$lcc1766451$54                    map_collision
     000029DF  A$lcc1766451$55                    map_collision
     000029E0  A$lcc1766451$56                    map_collision
     000029E1  A$lcc1766451$57                    map_collision
     000029E2  A$lcc1766451$61                    map_collision
     000029E2  C$map_collision.c$14$1_0$135       map_collision
     000029E5  A$lcc1766451$62                    map_collision
     000029E6  A$lcc1766451$63                    map_collision
     000029E7  A$lcc1766451$64                    map_collision
     000029E8  A$lcc1766451$65                    map_collision
     000029E9  A$lcc1766451$66                    map_collision
     000029EB  A$lcc1766451$67                    map_collision
     000029EC  A$lcc1766451$68                    map_collision
     000029ED  A$lcc1766451$69                    map_collision
     000029EE  A$lcc1766451$70                    map_collision
     000029EF  A$lcc1766451$71                    map_collision
     000029F1  A$lcc1766451$72                    map_collision
     000029F2  A$lcc1766451$73                    map_collision
     000029F3  A$lcc1766451$74                    map_collision
     000029F4  A$lcc1766451$75                    map_collision
     000029F5  A$lcc1766451$76                    map_collision
     000029F6  A$lcc1766451$77                    map_collision
     000029F7  A$lcc1766451$78                    map_collision
     000029F8  A$lcc1766451$79                    map_collision
     000029F9  A$lcc1766451$80                    map_collision
     000029FA  A$lcc1766451$81                    map_collision
     000029FB  A$lcc1766451$82                    map_collision
     000029FC  A$lcc1766451$83                    map_collision
     000029FD  A$lcc1766451$84                    map_collision
     000029FF  A$lcc1766451$85                    map_collision
     00002A00  A$lcc1766451$86                    map_collision
     00002A01  A$lcc1766451$87                    map_collision
     00002A02  A$lcc1766451$88                    map_collision
     00002A03  A$lcc1766451$89                    map_collision
     00002A04  A$lcc1766451$90                    map_collision
     00002A05  A$lcc1766451$91                    map_collision
     00002A06  A$lcc1766451$92                    map_collision
     00002A07  A$lcc1766451$93                    map_collision
     00002A08  A$lcc1766451$94                    map_collision
ASxxxx Linker V03.00/V05.40 + sdld,  page 64.
Hexadecimal  [32-Bits]

Area                                    Addr        Size        Decimal Bytes (Attributes)
--------------------------------        ----        ----        ------- ----- ------------
_CODE                               00000200    0000319C =       12700. bytes (REL,CON)

      Value  Global                              Global Defined In Module
      -----  --------------------------------   ------------------------
     00002A09  A$lcc1766451$95                    map_collision
     00002A0A  A$lcc1766451$96                    map_collision
     00002A0B  A$lcc1766451$97                    map_collision
     00002A0C  A$lcc1766451$98                    map_collision
     00002A0D  A$lcc1766451$99                    map_collision
     00002A0E  A$lcc1766451$100                   map_collision
     00002A0F  A$lcc1766451$101                   map_collision
     00002A10  A$lcc1766451$105                   map_collision
     00002A10  C$map_collision.c$15$1_0$135       map_collision
     00002A12  A$lcc1766451$106                   map_collision
     00002A13  A$lcc1766451$107                   map_collision
     00002A14  A$lcc1766451$108                   map_collision
     00002A15  A$lcc1766451$118                   map_collision
     00002A15  C$map_collision.c$18$1_0$137       map_collision
     00002A15  G$Map_Collision$0$0                map_collision
     00002A15  _Map_Collision                     map_collision
     00002A17  A$lcc1766451$122                   map_collision
     00002A17  C$map_collision.c$20$1_0$137       map_collision
     00002A1A  A$lcc1766451$123                   map_collision
     00002A1B  A$lcc1766451$124                   map_collision
     00002A1C  A$lcc1766451$125                   map_collision
     00002A1D  A$lcc1766451$126                   map_collision
     00002A1F  A$lcc1766451$127                   map_collision
     00002A20  A$lcc1766451$128                   map_collision
     00002A21  A$lcc1766451$132                   map_collision
     00002A21  C$map_collision.c$21$1_0$137       map_collision
     00002A22  A$lcc1766451$133                   map_collision
     00002A23  A$lcc1766451$134                   map_collision
     00002A24  A$lcc1766451$135                   map_collision
     00002A25  A$lcc1766451$136                   map_collision
     00002A26  A$lcc1766451$137                   map_collision
     00002A27  A$lcc1766451$141                   map_collision
     00002A27  C$map_collision.c$29$1_0$137       map_collision
     00002A2A  A$lcc1766451$142                   map_collision
     00002A2C  A$lcc1766451$143                   map_collision
     00002A2D  A$lcc1766451$144                   map_collision
     00002A2E  A$lcc1766451$145                   map_collision
     00002A30  A$lcc1766451$146                   map_collision
     00002A31  A$lcc1766451$147                   map_collision
     00002A33  A$lcc1766451$148                   map_collision
     00002A35  A$lcc1766451$149                   map_collision
     00002A36  A$lcc1766451$153                   map_collision
     00002A36  C$map_collision.c$30$1_0$137       map_collision
     00002A39  A$lcc1766451$154                   map_collision
     00002A3B  A$lcc1766451$155                   map_collision
     00002A3C  A$lcc1766451$156                   map_collision
     00002A3D  A$lcc1766451$157                   map_collision
     00002A3F  A$lcc1766451$158                   map_collision
     00002A40  A$lcc1766451$159                   map_collision
     00002A42  A$lcc1766451$160                   map_collision
     00002A43  A$lcc1766451$164                   map_collision
ASxxxx Linker V03.00/V05.40 + sdld,  page 65.
Hexadecimal  [32-Bits]

Area                                    Addr        Size        Decimal Bytes (Attributes)
--------------------------------        ----        ----        ------- ----- ------------
_CODE                               00000200    0000319C =       12700. bytes (REL,CON)

      Value  Global                              Global Defined In Module
      -----  --------------------------------   ------------------------
     00002A43  C$map_collision.c$35$1_0$137       map_collision
     00002A44  A$lcc1766451$165                   map_collision
     00002A45  A$lcc1766451$166                   map_collision
     00002A48  A$lcc1766451$167                   map_collision
     00002A49  A$lcc1766451$168                   map_collision
     00002A4A  A$lcc1766451$169                   map_collision
     00002A4B  A$lcc1766451$170                   map_collision
     00002A4D  A$lcc1766451$171                   map_collision
     00002A4E  A$lcc1766451$172                   map_collision
     00002A4F  A$lcc1766451$173                   map_collision
     00002A50  A$lcc1766451$174                   map_collision
     00002A52  A$lcc1766451$175                   map_collision
     00002A53  A$lcc1766451$176                   map_collision
     00002A54  A$lcc1766451$177                   map_collision
     00002A55  A$lcc1766451$178                   map_collision
     00002A56  A$lcc1766451$179                   map_collision
     00002A57  A$lcc1766451$180                   map_collision
     00002A59  A$lcc1766451$181                   map_collision
     00002A5A  A$lcc1766451$182                   map_collision
     00002A5B  A$lcc1766451$183                   map_collision
     00002A5C  A$lcc1766451$184                   map_collision
     00002A5D  A$lcc1766451$185                   map_collision
     00002A5F  A$lcc1766451$186                   map_collision
     00002A60  A$lcc1766451$187                   map_collision
     00002A61  A$lcc1766451$188                   map_collision
     00002A62  A$lcc1766451$189                   map_collision
     00002A63  A$lcc1766451$190                   map_collision
     00002A64  A$lcc1766451$191                   map_collision
     00002A65  A$lcc1766451$192                   map_collision
     00002A66  A$lcc1766451$193                   map_collision
     00002A67  A$lcc1766451$194                   map_collision
     00002A68  A$lcc1766451$195                   map_collision
     00002A6A  A$lcc1766451$196                   map_collision
     00002A6B  A$lcc1766451$197                   map_collision
     00002A6C  A$lcc1766451$198                   map_collision
     00002A6D  A$lcc1766451$199                   map_collision
     00002A6F  A$lcc1766451$200                   map_collision
     00002A70  A$lcc1766451$201                   map_collision
     00002A71  A$lcc1766451$202                   map_collision
     00002A72  A$lcc1766451$203                   map_collision
     00002A73  A$lcc1766451$204                   map_collision
     00002A75  A$lcc1766451$205                   map_collision
     00002A76  A$lcc1766451$206                   map_collision
     00002A77  A$lcc1766451$207                   map_collision
     00002A78  A$lcc1766451$208                   map_collision
     00002A79  A$lcc1766451$209                   map_collision
     00002A7A  A$lcc1766451$210                   map_collision
     00002A7B  A$lcc1766451$211                   map_collision
     00002A7D  A$lcc1766451$212                   map_collision
     00002A7E  A$lcc1766451$213                   map_collision
     00002A7F  A$lcc1766451$214                   map_collision
ASxxxx Linker V03.00/V05.40 + sdld,  page 66.
Hexadecimal  [32-Bits]

Area                                    Addr        Size        Decimal Bytes (Attributes)
--------------------------------        ----        ----        ------- ----- ------------
_CODE                               00000200    0000319C =       12700. bytes (REL,CON)

      Value  Global                              Global Defined In Module
      -----  --------------------------------   ------------------------
     00002A80  A$lcc1766451$215                   map_collision
     00002A82  A$lcc1766451$216                   map_collision
     00002A83  A$lcc1766451$217                   map_collision
     00002A84  A$lcc1766451$218                   map_collision
     00002A85  A$lcc1766451$219                   map_collision
     00002A87  A$lcc1766451$220                   map_collision
     00002A89  A$lcc1766451$221                   map_collision
     00002A8A  A$lcc1766451$223                   map_collision
     00002A8C  A$lcc1766451$224                   map_collision
     00002A8F  A$lcc1766451$228                   map_collision
     00002A8F  C$map_collision.c$36$1_0$137       map_collision
     00002A91  A$lcc1766451$229                   map_collision
     00002A92  A$lcc1766451$230                   map_collision
     00002A93  A$lcc1766451$231                   map_collision
     00002A94  A$lcc1766451$232                   map_collision
     00002A95  A$lcc1766451$233                   map_collision
     00002A97  A$lcc1766451$234                   map_collision
     00002A98  A$lcc1766451$235                   map_collision
     00002A99  A$lcc1766451$236                   map_collision
     00002A9A  A$lcc1766451$237                   map_collision
     00002A9B  A$lcc1766451$238                   map_collision
     00002A9C  A$lcc1766451$239                   map_collision
     00002A9D  A$lcc1766451$240                   map_collision
     00002A9E  A$lcc1766451$241                   map_collision
     00002AA0  A$lcc1766451$242                   map_collision
     00002AA1  A$lcc1766451$243                   map_collision
     00002AA2  A$lcc1766451$244                   map_collision
     00002AA3  A$lcc1766451$245                   map_collision
     00002AA4  A$lcc1766451$246                   map_collision
     00002AA5  A$lcc1766451$247                   map_collision
     00002AA6  A$lcc1766451$248                   map_collision
     00002AA7  A$lcc1766451$249                   map_collision
     00002AA8  A$lcc1766451$250                   map_collision
     00002AAA  A$lcc1766451$251                   map_collision
     00002AAB  A$lcc1766451$252                   map_collision
     00002AAC  A$lcc1766451$253                   map_collision
     00002AAD  A$lcc1766451$254                   map_collision
     00002AAF  A$lcc1766451$255                   map_collision
     00002AB1  A$lcc1766451$256                   map_collision
     00002AB2  A$lcc1766451$258                   map_collision
     00002AB4  A$lcc1766451$259                   map_collision
     00002AB7  A$lcc1766451$263                   map_collision
     00002AB7  C$map_collision.c$37$1_0$137       map_collision
     00002AB9  A$lcc1766451$264                   map_collision
     00002ABA  A$lcc1766451$265                   map_collision
     00002ABB  A$lcc1766451$266                   map_collision
     00002ABC  A$lcc1766451$267                   map_collision
     00002ABD  A$lcc1766451$268                   map_collision
     00002ABF  A$lcc1766451$269                   map_collision
     00002AC0  A$lcc1766451$270                   map_collision
     00002AC1  A$lcc1766451$271                   map_collision
ASxxxx Linker V03.00/V05.40 + sdld,  page 67.
Hexadecimal  [32-Bits]

Area                                    Addr        Size        Decimal Bytes (Attributes)
--------------------------------        ----        ----        ------- ----- ------------
_CODE                               00000200    0000319C =       12700. bytes (REL,CON)

      Value  Global                              Global Defined In Module
      -----  --------------------------------   ------------------------
     00002AC2  A$lcc1766451$272                   map_collision
     00002AC3  A$lcc1766451$273                   map_collision
     00002AC4  A$lcc1766451$274                   map_collision
     00002AC5  A$lcc1766451$275                   map_collision
     00002AC6  A$lcc1766451$276                   map_collision
     00002AC7  A$lcc1766451$277                   map_collision
     00002AC8  A$lcc1766451$278                   map_collision
     00002AC9  A$lcc1766451$279                   map_collision
     00002ACA  A$lcc1766451$280                   map_collision
     00002ACB  A$lcc1766451$281                   map_collision
     00002ACC  A$lcc1766451$282                   map_collision
     00002ACD  A$lcc1766451$283                   map_collision
     00002ACE  A$lcc1766451$284                   map_collision
     00002ACF  A$lcc1766451$285                   map_collision
     00002AD0  A$lcc1766451$286                   map_collision
     00002AD1  A$lcc1766451$287                   map_collision
     00002AD2  A$lcc1766451$288                   map_collision
     00002AD3  A$lcc1766451$289                   map_collision
     00002AD4  A$lcc1766451$290                   map_collision
     00002AD6  A$lcc1766451$291                   map_collision
     00002AD7  A$lcc1766451$292                   map_collision
     00002AD8  A$lcc1766451$293                   map_collision
     00002AD9  A$lcc1766451$294                   map_collision
     00002ADA  A$lcc1766451$295                   map_collision
     00002ADB  A$lcc1766451$296                   map_collision
     00002ADC  A$lcc1766451$297                   map_collision
     00002ADE  A$lcc1766451$298                   map_collision
     00002ADF  A$lcc1766451$299                   map_collision
     00002AE1  A$lcc1766451$300                   map_collision
     00002AE2  A$lcc1766451$301                   map_collision
     00002AE3  A$lcc1766451$302                   map_collision
     00002AE4  A$lcc1766451$303                   map_collision
     00002AE5  A$lcc1766451$304                   map_collision
     00002AE6  A$lcc1766451$305                   map_collision
     00002AE8  A$lcc1766451$306                   map_collision
     00002AEA  A$lcc1766451$307                   map_collision
     00002AEB  A$lcc1766451$309                   map_collision
     00002AED  A$lcc1766451$310                   map_collision
     00002AF0  A$lcc1766451$314                   map_collision
     00002AF0  C$map_collision.c$38$1_0$137       map_collision
     00002AF2  A$lcc1766451$315                   map_collision
     00002AF3  A$lcc1766451$316                   map_collision
     00002AF4  A$lcc1766451$317                   map_collision
     00002AF5  A$lcc1766451$318                   map_collision
     00002AF6  A$lcc1766451$319                   map_collision
     00002AF7  A$lcc1766451$320                   map_collision
     00002AF8  A$lcc1766451$321                   map_collision
     00002AF9  A$lcc1766451$322                   map_collision
     00002AFA  A$lcc1766451$323                   map_collision
     00002AFC  A$lcc1766451$324                   map_collision
     00002AFD  A$lcc1766451$325                   map_collision
ASxxxx Linker V03.00/V05.40 + sdld,  page 68.
Hexadecimal  [32-Bits]

Area                                    Addr        Size        Decimal Bytes (Attributes)
--------------------------------        ----        ----        ------- ----- ------------
_CODE                               00000200    0000319C =       12700. bytes (REL,CON)

      Value  Global                              Global Defined In Module
      -----  --------------------------------   ------------------------
     00002AFF  A$lcc1766451$326                   map_collision
     00002B00  A$lcc1766451$327                   map_collision
     00002B01  A$lcc1766451$328                   map_collision
     00002B02  A$lcc1766451$329                   map_collision
     00002B03  A$lcc1766451$330                   map_collision
     00002B04  A$lcc1766451$331                   map_collision
     00002B05  A$lcc1766451$332                   map_collision
     00002B06  A$lcc1766451$333                   map_collision
     00002B07  A$lcc1766451$334                   map_collision
     00002B08  A$lcc1766451$335                   map_collision
     00002B09  A$lcc1766451$336                   map_collision
     00002B0A  A$lcc1766451$337                   map_collision
     00002B0B  A$lcc1766451$338                   map_collision
     00002B0D  A$lcc1766451$339                   map_collision
     00002B0E  A$lcc1766451$340                   map_collision
     00002B10  A$lcc1766451$341                   map_collision
     00002B11  A$lcc1766451$342                   map_collision
     00002B12  A$lcc1766451$343                   map_collision
     00002B13  A$lcc1766451$344                   map_collision
     00002B14  A$lcc1766451$345                   map_collision
     00002B15  A$lcc1766451$346                   map_collision
     00002B17  A$lcc1766451$347                   map_collision
     00002B19  A$lcc1766451$348                   map_collision
     00002B1A  A$lcc1766451$350                   map_collision
     00002B1C  A$lcc1766451$351                   map_collision
     00002B1F  A$lcc1766451$355                   map_collision
     00002B1F  C$map_collision.c$44$2_0$138       map_collision
     00002B21  A$lcc1766451$356                   map_collision
     00002B22  A$lcc1766451$357                   map_collision
     00002B23  A$lcc1766451$358                   map_collision
     00002B24  A$lcc1766451$359                   map_collision
     00002B25  A$lcc1766451$360                   map_collision
     00002B26  A$lcc1766451$361                   map_collision
     00002B27  A$lcc1766451$362                   map_collision
     00002B28  A$lcc1766451$363                   map_collision
     00002B29  A$lcc1766451$364                   map_collision
     00002B2A  A$lcc1766451$365                   map_collision
     00002B2B  A$lcc1766451$366                   map_collision
     00002B2C  A$lcc1766451$367                   map_collision
     00002B2D  A$lcc1766451$368                   map_collision
     00002B2E  A$lcc1766451$369                   map_collision
     00002B2F  A$lcc1766451$370                   map_collision
     00002B30  A$lcc1766451$371                   map_collision
     00002B32  A$lcc1766451$372                   map_collision
     00002B33  A$lcc1766451$373                   map_collision
     00002B35  A$lcc1766451$374                   map_collision
     00002B36  A$lcc1766451$375                   map_collision
     00002B37  A$lcc1766451$376                   map_collision
     00002B38  A$lcc1766451$377                   map_collision
     00002B39  A$lcc1766451$378                   map_collision
     00002B3A  A$lcc1766451$379                   map_collision
ASxxxx Linker V03.00/V05.40 + sdld,  page 69.
Hexadecimal  [32-Bits]

Area                                    Addr        Size        Decimal Bytes (Attributes)
--------------------------------        ----        ----        ------- ----- ------------
_CODE                               00000200    0000319C =       12700. bytes (REL,CON)

      Value  Global                              Global Defined In Module
      -----  --------------------------------   ------------------------
     00002B3C  A$lcc1766451$380                   map_collision
     00002B3E  A$lcc1766451$381                   map_collision
     00002B3F  A$lcc1766451$383                   map_collision
     00002B40  A$lcc1766451$384                   map_collision
     00002B43  A$lcc1766451$385                   map_collision
     00002B44  A$lcc1766451$386                   map_collision
     00002B46  A$lcc1766451$387                   map_collision
     00002B48  A$lcc1766451$388                   map_collision
     00002B49  A$lcc1766451$390                   map_collision
     00002B4A  A$lcc1766451$391                   map_collision
     00002B4C  A$lcc1766451$395                   map_collision
     00002B4C  C$map_collision.c$46$3_0$139       map_collision
     00002B4F  A$lcc1766451$400                   map_collision
     00002B4F  C$map_collision.c$49$2_0$140       map_collision
     00002B51  A$lcc1766451$401                   map_collision
     00002B52  A$lcc1766451$402                   map_collision
     00002B53  A$lcc1766451$403                   map_collision
     00002B54  A$lcc1766451$404                   map_collision
     00002B55  A$lcc1766451$405                   map_collision
     00002B56  A$lcc1766451$406                   map_collision
     00002B57  A$lcc1766451$407                   map_collision
     00002B58  A$lcc1766451$408                   map_collision
     00002B59  A$lcc1766451$409                   map_collision
     00002B5A  A$lcc1766451$410                   map_collision
     00002B5B  A$lcc1766451$411                   map_collision
     00002B5C  A$lcc1766451$412                   map_collision
     00002B5D  A$lcc1766451$413                   map_collision
     00002B5E  A$lcc1766451$414                   map_collision
     00002B5F  A$lcc1766451$415                   map_collision
     00002B60  A$lcc1766451$416                   map_collision
     00002B62  A$lcc1766451$417                   map_collision
     00002B63  A$lcc1766451$418                   map_collision
     00002B65  A$lcc1766451$419                   map_collision
     00002B66  A$lcc1766451$420                   map_collision
     00002B67  A$lcc1766451$421                   map_collision
     00002B68  A$lcc1766451$422                   map_collision
     00002B69  A$lcc1766451$423                   map_collision
     00002B6A  A$lcc1766451$424                   map_collision
     00002B6C  A$lcc1766451$431                   map_collision
     00002B6C  C$map_collision.c$51$3_0$141       map_collision
     00002B6C  C$map_collision.c$52$3_0$141       map_collision
     00002B6D  A$lcc1766451$432                   map_collision
     00002B6E  A$lcc1766451$433                   map_collision
     00002B6F  A$lcc1766451$437                   map_collision
     00002B6F  C$map_collision.c$54$4_0$142       map_collision
     00002B70  A$lcc1766451$438                   map_collision
     00002B71  A$lcc1766451$439                   map_collision
     00002B74  A$lcc1766451$440                   map_collision
     00002B75  A$lcc1766451$441                   map_collision
     00002B76  A$lcc1766451$442                   map_collision
     00002B77  A$lcc1766451$443                   map_collision
ASxxxx Linker V03.00/V05.40 + sdld,  page 70.
Hexadecimal  [32-Bits]

Area                                    Addr        Size        Decimal Bytes (Attributes)
--------------------------------        ----        ----        ------- ----- ------------
_CODE                               00000200    0000319C =       12700. bytes (REL,CON)

      Value  Global                              Global Defined In Module
      -----  --------------------------------   ------------------------
     00002B78  A$lcc1766451$444                   map_collision
     00002B79  A$lcc1766451$445                   map_collision
     00002B7A  A$lcc1766451$446                   map_collision
     00002B7B  A$lcc1766451$447                   map_collision
     00002B7D  A$lcc1766451$448                   map_collision
     00002B7F  A$lcc1766451$452                   map_collision
     00002B7F  C$map_collision.c$55$4_0$142       map_collision
     00002B81  A$lcc1766451$456                   map_collision
     00002B81  C$map_collision.c$57$4_0$143       map_collision
     00002B82  A$lcc1766451$457                   map_collision
     00002B83  A$lcc1766451$458                   map_collision
     00002B86  A$lcc1766451$459                   map_collision
     00002B87  A$lcc1766451$460                   map_collision
     00002B88  A$lcc1766451$461                   map_collision
     00002B89  A$lcc1766451$462                   map_collision
     00002B8A  A$lcc1766451$463                   map_collision
     00002B8B  A$lcc1766451$464                   map_collision
     00002B8C  A$lcc1766451$465                   map_collision
     00002B8E  A$lcc1766451$466                   map_collision
     00002B8F  A$lcc1766451$467                   map_collision
     00002B90  A$lcc1766451$468                   map_collision
     00002B91  A$lcc1766451$469                   map_collision
     00002B92  A$lcc1766451$470                   map_collision
     00002B93  A$lcc1766451$471                   map_collision
     00002B94  A$lcc1766451$475                   map_collision
     00002B94  C$map_collision.c$58$4_0$143       map_collision
     00002B96  A$lcc1766451$479                   map_collision
     00002B96  C$map_collision.c$60$3_0$141       map_collision
     00002B97  A$lcc1766451$480                   map_collision
     00002B98  A$lcc1766451$481                   map_collision
     00002B9B  A$lcc1766451$486                   map_collision
     00002B9D  A$lcc1766451$491                   map_collision
     00002B9D  C$map_collision.c$62$2_0$137       map_collision
     00002B9D  XG$Map_Collision$0$0               map_collision
     00002B9E  A$lcc1766453$61                    map_00
     00002B9E  C$map_00.c$6$0_0$32                map_00
     00002B9E  C$map_00.c$7$1_0$32                map_00
     00002B9E  G$Map_00_Create$0$0                map_00
     00002B9E  _Map_00_Create                     map_00
     00002BA1  A$lcc1766453$62                    map_00
     00002BA3  A$lcc1766453$63                    map_00
     00002BA4  A$lcc1766453$64                    map_00
     00002BA6  A$lcc1766453$68                    map_00
     00002BA6  C$map_00.c$8$1_0$32                map_00
     00002BA7  A$lcc1766453$69                    map_00
     00002BA9  A$lcc1766453$70                    map_00
     00002BAA  A$lcc1766453$71                    map_00
     00002BAC  A$lcc1766453$75                    map_00
     00002BAC  C$map_00.c$10$1_0$32               map_00
     00002BAF  A$lcc1766453$76                    map_00
     00002BB0  A$lcc1766453$77                    map_00
ASxxxx Linker V03.00/V05.40 + sdld,  page 71.
Hexadecimal  [32-Bits]

Area                                    Addr        Size        Decimal Bytes (Attributes)
--------------------------------        ----        ----        ------- ----- ------------
_CODE                               00000200    0000319C =       12700. bytes (REL,CON)

      Value  Global                              Global Defined In Module
      -----  --------------------------------   ------------------------
     00002BB1  A$lcc1766453$78                    map_00
     00002BB2  A$lcc1766453$86                    map_00
     00002BB2  C$map_00.c$11$1_0$32               map_00
     00002BB2  XG$Map_00_Create$0$0               map_00
     00002BB3  G$map_00_example_collision$0_0$0   map_00_collision
     00002BB3  _map_00_example_collision          map_00_collision
     00002D1B  A$lcc1766455$57                    map_00_init
     00002D1B  C$map_00_init.c$19$0_0$164         map_00_init
     00002D1B  G$hello_event$0$0                  map_00_init
     00002D1B  _hello_event                       map_00_init
     00002D1D  A$lcc1766455$61                    map_00_init
     00002D1D  C$map_00_init.c$21$2_0$165         map_00_init
     00002D20  A$lcc1766455$62                    map_00_init
     00002D21  A$lcc1766455$63                    map_00_init
     00002D22  A$lcc1766455$64                    map_00_init
     00002D25  A$lcc1766455$71                    map_00_init
     00002D25  C$map_00_init.c$22$2_0$165         map_00_init
     00002D25  C$map_00_init.c$24$1_0$164         map_00_init
     00002D27  A$lcc1766455$72                    map_00_init
     00002D28  A$lcc1766455$76                    map_00_init
     00002D28  C$map_00_init.c$25$2_0$166         map_00_init
     00002D2A  A$lcc1766455$77                    map_00_init
     00002D2C  A$lcc1766455$78                    map_00_init
     00002D2D  A$lcc1766455$79                    map_00_init
     00002D2F  A$lcc1766455$80                    map_00_init
     00002D30  A$lcc1766455$81                    map_00_init
     00002D32  A$lcc1766455$82                    map_00_init
     00002D33  A$lcc1766455$83                    map_00_init
     00002D34  A$lcc1766455$84                    map_00_init
     00002D36  A$lcc1766455$85                    map_00_init
     00002D37  A$lcc1766455$86                    map_00_init
     00002D39  A$lcc1766455$87                    map_00_init
     00002D3A  A$lcc1766455$88                    map_00_init
     00002D3C  A$lcc1766455$89                    map_00_init
     00002D3D  A$lcc1766455$90                    map_00_init
     00002D3F  A$lcc1766455$91                    map_00_init
     00002D40  A$lcc1766455$92                    map_00_init
     00002D42  A$lcc1766455$93                    map_00_init
     00002D43  A$lcc1766455$94                    map_00_init
     00002D45  A$lcc1766455$95                    map_00_init
     00002D46  A$lcc1766455$96                    map_00_init
     00002D48  A$lcc1766455$97                    map_00_init
     00002D49  A$lcc1766455$98                    map_00_init
     00002D4B  A$lcc1766455$99                    map_00_init
     00002D4C  A$lcc1766455$100                   map_00_init
     00002D4E  A$lcc1766455$101                   map_00_init
     00002D4F  A$lcc1766455$105                   map_00_init
     00002D4F  C$map_00_init.c$26$1_2$164         map_00_init
     00002D52  A$lcc1766455$106                   map_00_init
     00002D53  A$lcc1766455$108                   map_00_init
     00002D56  A$lcc1766455$109                   map_00_init
ASxxxx Linker V03.00/V05.40 + sdld,  page 72.
Hexadecimal  [32-Bits]

Area                                    Addr        Size        Decimal Bytes (Attributes)
--------------------------------        ----        ----        ------- ----- ------------
_CODE                               00000200    0000319C =       12700. bytes (REL,CON)

      Value  Global                              Global Defined In Module
      -----  --------------------------------   ------------------------
     00002D57  A$lcc1766455$110                   map_00_init
     00002D58  A$lcc1766455$111                   map_00_init
     00002D59  A$lcc1766455$112                   map_00_init
     00002D5A  A$lcc1766455$113                   map_00_init
     00002D5C  A$lcc1766455$117                   map_00_init
     00002D5C  C$map_00_init.c$28$3_1$168         map_00_init
     00002D5D  A$lcc1766455$118                   map_00_init
     00002D60  A$lcc1766455$119                   map_00_init
     00002D61  A$lcc1766455$120                   map_00_init
     00002D62  A$lcc1766455$121                   map_00_init
     00002D64  A$lcc1766455$125                   map_00_init
     00002D64  C$map_00_init.c$29$3_1$168         map_00_init
     00002D66  A$lcc1766455$126                   map_00_init
     00002D67  A$lcc1766455$127                   map_00_init
     00002D68  A$lcc1766455$128                   map_00_init
     00002D69  A$lcc1766455$129                   map_00_init
     00002D6A  A$lcc1766455$130                   map_00_init
     00002D6B  A$lcc1766455$131                   map_00_init
     00002D6C  A$lcc1766455$132                   map_00_init
     00002D6D  A$lcc1766455$133                   map_00_init
     00002D6F  A$lcc1766455$134                   map_00_init
     00002D70  A$lcc1766455$135                   map_00_init
     00002D71  A$lcc1766455$136                   map_00_init
     00002D73  A$lcc1766455$137                   map_00_init
     00002D74  A$lcc1766455$138                   map_00_init
     00002D75  A$lcc1766455$139                   map_00_init
     00002D77  A$lcc1766455$140                   map_00_init
     00002D78  A$lcc1766455$141                   map_00_init
     00002D79  A$lcc1766455$142                   map_00_init
     00002D7A  A$lcc1766455$143                   map_00_init
     00002D7B  A$lcc1766455$144                   map_00_init
     00002D7E  A$lcc1766455$145                   map_00_init
     00002D80  A$lcc1766455$146                   map_00_init
     00002D81  A$lcc1766455$150                   map_00_init
     00002D81  C$map_00_init.c$26$2_1$167         map_00_init
     00002D82  A$lcc1766455$151                   map_00_init
     00002D84  A$lcc1766455$156                   map_00_init
     00002D87  A$lcc1766455$158                   map_00_init
     00002D8A  A$lcc1766455$159                   map_00_init
     00002D8B  A$lcc1766455$160                   map_00_init
     00002D8D  A$lcc1766455$161                   map_00_init
     00002D8E  A$lcc1766455$162                   map_00_init
     00002D8F  A$lcc1766455$163                   map_00_init
     00002D90  A$lcc1766455$164                   map_00_init
     00002D91  A$lcc1766455$165                   map_00_init
     00002D92  A$lcc1766455$166                   map_00_init
     00002D93  A$lcc1766455$167                   map_00_init
     00002D94  A$lcc1766455$168                   map_00_init
     00002D95  A$lcc1766455$169                   map_00_init
     00002D97  A$lcc1766455$170                   map_00_init
     00002D98  A$lcc1766455$171                   map_00_init
ASxxxx Linker V03.00/V05.40 + sdld,  page 73.
Hexadecimal  [32-Bits]

Area                                    Addr        Size        Decimal Bytes (Attributes)
--------------------------------        ----        ----        ------- ----- ------------
_CODE                               00000200    0000319C =       12700. bytes (REL,CON)

      Value  Global                              Global Defined In Module
      -----  --------------------------------   ------------------------
     00002D99  A$lcc1766455$172                   map_00_init
     00002D9A  A$lcc1766455$173                   map_00_init
     00002D9C  A$lcc1766455$174                   map_00_init
     00002D9D  A$lcc1766455$175                   map_00_init
     00002D9E  A$lcc1766455$176                   map_00_init
     00002D9F  A$lcc1766455$177                   map_00_init
     00002DA0  A$lcc1766455$178                   map_00_init
     00002DA3  A$lcc1766455$179                   map_00_init
     00002DA4  A$lcc1766455$180                   map_00_init
     00002DA5  A$lcc1766455$181                   map_00_init
     00002DA6  A$lcc1766455$182                   map_00_init
     00002DA7  A$lcc1766455$183                   map_00_init
     00002DA9  A$lcc1766455$187                   map_00_init
     00002DA9  C$map_00_init.c$34$3_1$170         map_00_init
     00002DAA  A$lcc1766455$188                   map_00_init
     00002DAD  A$lcc1766455$189                   map_00_init
     00002DAE  A$lcc1766455$190                   map_00_init
     00002DAF  A$lcc1766455$191                   map_00_init
     00002DB0  A$lcc1766455$192                   map_00_init
     00002DB2  A$lcc1766455$196                   map_00_init
     00002DB2  C$map_00_init.c$35$3_1$170         map_00_init
     00002DB4  A$lcc1766455$197                   map_00_init
     00002DB5  A$lcc1766455$198                   map_00_init
     00002DB6  A$lcc1766455$199                   map_00_init
     00002DB7  A$lcc1766455$200                   map_00_init
     00002DB8  A$lcc1766455$201                   map_00_init
     00002DB9  A$lcc1766455$202                   map_00_init
     00002DBA  A$lcc1766455$203                   map_00_init
     00002DBC  A$lcc1766455$204                   map_00_init
     00002DBD  A$lcc1766455$205                   map_00_init
     00002DBE  A$lcc1766455$206                   map_00_init
     00002DC0  A$lcc1766455$207                   map_00_init
     00002DC1  A$lcc1766455$208                   map_00_init
     00002DC2  A$lcc1766455$209                   map_00_init
     00002DC4  A$lcc1766455$210                   map_00_init
     00002DC5  A$lcc1766455$211                   map_00_init
     00002DC6  A$lcc1766455$212                   map_00_init
     00002DC7  A$lcc1766455$213                   map_00_init
     00002DC8  A$lcc1766455$214                   map_00_init
     00002DCB  A$lcc1766455$215                   map_00_init
     00002DCD  A$lcc1766455$219                   map_00_init
     00002DCD  C$map_00_init.c$32$2_1$169         map_00_init
     00002DCE  A$lcc1766455$220                   map_00_init
     00002DD0  A$lcc1766455$225                   map_00_init
     00002DD0  C$map_00_init.c$38$1_2$171         map_00_init
     00002DD3  A$lcc1766455$226                   map_00_init
     00002DD5  A$lcc1766455$227                   map_00_init
     00002DD7  A$lcc1766455$228                   map_00_init
     00002DD8  A$lcc1766455$232                   map_00_init
     00002DD8  C$map_00_init.c$39$1_2$171         map_00_init
     00002DDB  A$lcc1766455$233                   map_00_init
ASxxxx Linker V03.00/V05.40 + sdld,  page 74.
Hexadecimal  [32-Bits]

Area                                    Addr        Size        Decimal Bytes (Attributes)
--------------------------------        ----        ----        ------- ----- ------------
_CODE                               00000200    0000319C =       12700. bytes (REL,CON)

      Value  Global                              Global Defined In Module
      -----  --------------------------------   ------------------------
     00002DDC  A$lcc1766455$234                   map_00_init
     00002DDD  A$lcc1766455$235                   map_00_init
     00002DE0  A$lcc1766455$236                   map_00_init
     00002DE1  A$lcc1766455$237                   map_00_init
     00002DE4  A$lcc1766455$238                   map_00_init
     00002DE5  A$lcc1766455$239                   map_00_init
     00002DE8  A$lcc1766455$240                   map_00_init
     00002DEA  A$lcc1766455$245                   map_00_init
     00002DEC  A$lcc1766455$250                   map_00_init
     00002DEC  C$map_00_init.c$40$1_2$164         map_00_init
     00002DEC  XG$hello_event$0$0                 map_00_init
     00002DED  A$lcc1766455$260                   map_00_init
     00002DED  C$map_00_init.c$42$1_2$173         map_00_init
     00002DED  G$Map_00_Init$0$0                  map_00_init
     00002DED  _Map_00_Init                       map_00_init
     00002DEE  A$lcc1766455$261                   map_00_init
     00002DEF  A$lcc1766455$262                   map_00_init
     00002DF0  A$lcc1766455$266                   map_00_init
     00002DF0  C$map_00_init.c$44$1_0$173         map_00_init
     00002DF3  A$lcc1766455$267                   map_00_init
     00002DF5  A$lcc1766455$268                   map_00_init
     00002DF6  A$lcc1766455$269                   map_00_init
     00002DF8  A$lcc1766455$270                   map_00_init
     00002DFA  A$lcc1766455$271                   map_00_init
     00002DFB  A$lcc1766455$272                   map_00_init
     00002DFE  A$lcc1766455$273                   map_00_init
     00002DFF  A$lcc1766455$277                   map_00_init
     00002DFF  C$map_00_init.c$45$1_0$173         map_00_init
     00002E02  A$lcc1766455$278                   map_00_init
     00002E03  A$lcc1766455$282                   map_00_init
     00002E03  C$map_00_init.c$46$1_0$173         map_00_init
     00002E06  A$lcc1766455$283                   map_00_init
     00002E08  A$lcc1766455$284                   map_00_init
     00002E09  A$lcc1766455$285                   map_00_init
     00002E0B  A$lcc1766455$289                   map_00_init
     00002E0B  C$map_00_init.c$47$1_0$173         map_00_init
     00002E0E  A$lcc1766455$290                   map_00_init
     00002E10  A$lcc1766455$294                   map_00_init
     00002E10  C$map_00_init.c$48$1_0$173         map_00_init
     00002E11  A$lcc1766455$295                   map_00_init
     00002E12  A$lcc1766455$296                   map_00_init
     00002E14  A$lcc1766455$300                   map_00_init
     00002E14  C$map_00_init.c$50$1_0$173         map_00_init
     00002E17  A$lcc1766455$301                   map_00_init
     00002E19  A$lcc1766455$305                   map_00_init
     00002E19  C$map_00_init.c$51$1_0$173         map_00_init
     00002E1C  A$lcc1766455$306                   map_00_init
     00002E1E  A$lcc1766455$307                   map_00_init
     00002E1F  A$lcc1766455$308                   map_00_init
     00002E21  A$lcc1766455$312                   map_00_init
     00002E21  C$map_00_init.c$52$1_0$173         map_00_init
ASxxxx Linker V03.00/V05.40 + sdld,  page 75.
Hexadecimal  [32-Bits]

Area                                    Addr        Size        Decimal Bytes (Attributes)
--------------------------------        ----        ----        ------- ----- ------------
_CODE                               00000200    0000319C =       12700. bytes (REL,CON)

      Value  Global                              Global Defined In Module
      -----  --------------------------------   ------------------------
     00002E24  A$lcc1766455$313                   map_00_init
     00002E26  A$lcc1766455$317                   map_00_init
     00002E26  C$map_00_init.c$54$1_0$173         map_00_init
     00002E29  A$lcc1766455$318                   map_00_init
     00002E2A  A$lcc1766455$319                   map_00_init
     00002E2C  A$lcc1766455$320                   map_00_init
     00002E2D  A$lcc1766455$321                   map_00_init
     00002E2F  A$lcc1766455$325                   map_00_init
     00002E2F  C$map_00_init.c$55$1_0$173         map_00_init
     00002E30  A$lcc1766455$326                   map_00_init
     00002E31  A$lcc1766455$327                   map_00_init
     00002E34  A$lcc1766455$331                   map_00_init
     00002E34  C$map_00_init.c$57$1_0$173         map_00_init
     00002E37  A$lcc1766455$332                   map_00_init
     00002E38  A$lcc1766455$333                   map_00_init
     00002E3B  A$lcc1766455$334                   map_00_init
     00002E3C  A$lcc1766455$335                   map_00_init
     00002E3F  A$lcc1766455$336                   map_00_init
     00002E41  A$lcc1766455$340                   map_00_init
     00002E41  C$map_00_init.c$58$1_0$173         map_00_init
     00002E44  A$lcc1766455$341                   map_00_init
     00002E45  A$lcc1766455$342                   map_00_init
     00002E48  A$lcc1766455$343                   map_00_init
     00002E49  A$lcc1766455$344                   map_00_init
     00002E4A  A$lcc1766455$345                   map_00_init
     00002E4B  A$lcc1766455$346                   map_00_init
     00002E4C  A$lcc1766455$347                   map_00_init
     00002E4F  A$lcc1766455$348                   map_00_init
     00002E51  A$lcc1766455$356                   map_00_init
     00002E51  C$map_00_init.c$59$1_0$173         map_00_init
     00002E51  XG$Map_00_Init$0$0                 map_00_init
     00002E52  A$lcc1766456$53                    map_00_init_npc
     00002E52  C$map_00_init_npc.c$12$0_0$163     map_00_init_npc
     00002E52  G$Map_00_NPC_Init$0$0              map_00_init_npc
     00002E52  _Map_00_NPC_Init                   map_00_init_npc
     00002E54  A$lcc1766456$57                    map_00_init_npc
     00002E54  C$map_00_init_npc.c$14$1_0$163     map_00_init_npc
     00002E57  A$lcc1766456$58                    map_00_init_npc
     00002E58  A$lcc1766456$59                    map_00_init_npc
     00002E5A  A$lcc1766456$60                    map_00_init_npc
     00002E5D  A$lcc1766456$61                    map_00_init_npc
     00002E5E  A$lcc1766456$62                    map_00_init_npc
     00002E60  A$lcc1766456$66                    map_00_init_npc
     00002E60  C$map_00_init_npc.c$15$1_0$163     map_00_init_npc
     00002E63  A$lcc1766456$67                    map_00_init_npc
     00002E64  A$lcc1766456$68                    map_00_init_npc
     00002E66  A$lcc1766456$69                    map_00_init_npc
     00002E69  A$lcc1766456$70                    map_00_init_npc
     00002E6A  A$lcc1766456$71                    map_00_init_npc
     00002E6C  A$lcc1766456$75                    map_00_init_npc
     00002E6C  C$map_00_init_npc.c$17$2_0$164     map_00_init_npc
ASxxxx Linker V03.00/V05.40 + sdld,  page 76.
Hexadecimal  [32-Bits]

Area                                    Addr        Size        Decimal Bytes (Attributes)
--------------------------------        ----        ----        ------- ----- ------------
_CODE                               00000200    0000319C =       12700. bytes (REL,CON)

      Value  Global                              Global Defined In Module
      -----  --------------------------------   ------------------------
     00002E6E  A$lcc1766456$76                    map_00_init_npc
     00002E70  A$lcc1766456$77                    map_00_init_npc
     00002E71  A$lcc1766456$78                    map_00_init_npc
     00002E73  A$lcc1766456$79                    map_00_init_npc
     00002E74  A$lcc1766456$80                    map_00_init_npc
     00002E76  A$lcc1766456$81                    map_00_init_npc
     00002E77  A$lcc1766456$82                    map_00_init_npc
     00002E79  A$lcc1766456$83                    map_00_init_npc
     00002E7A  A$lcc1766456$84                    map_00_init_npc
     00002E7C  A$lcc1766456$85                    map_00_init_npc
     00002E7D  A$lcc1766456$86                    map_00_init_npc
     00002E7E  A$lcc1766456$87                    map_00_init_npc
     00002E7F  A$lcc1766456$88                    map_00_init_npc
     00002E80  A$lcc1766456$89                    map_00_init_npc
     00002E81  A$lcc1766456$90                    map_00_init_npc
     00002E82  A$lcc1766456$91                    map_00_init_npc
     00002E83  A$lcc1766456$95                    map_00_init_npc
     00002E86  A$lcc1766456$96                    map_00_init_npc
     00002E87  A$lcc1766456$98                    map_00_init_npc
     00002E8A  A$lcc1766456$99                    map_00_init_npc
     00002E8B  A$lcc1766456$100                   map_00_init_npc
     00002E8C  A$lcc1766456$101                   map_00_init_npc
     00002E8D  A$lcc1766456$102                   map_00_init_npc
     00002E8F  A$lcc1766456$103                   map_00_init_npc
     00002E90  A$lcc1766456$104                   map_00_init_npc
     00002E92  A$lcc1766456$105                   map_00_init_npc
     00002E94  A$lcc1766456$109                   map_00_init_npc
     00002E94  C$map_00_init_npc.c$19$2_1$165     map_00_init_npc
     00002E97  A$lcc1766456$110                   map_00_init_npc
     00002E98  A$lcc1766456$111                   map_00_init_npc
     00002E9A  A$lcc1766456$112                   map_00_init_npc
     00002E9B  A$lcc1766456$113                   map_00_init_npc
     00002E9C  A$lcc1766456$114                   map_00_init_npc
     00002E9D  A$lcc1766456$115                   map_00_init_npc
     00002E9E  A$lcc1766456$116                   map_00_init_npc
     00002E9F  A$lcc1766456$117                   map_00_init_npc
     00002EA0  A$lcc1766456$118                   map_00_init_npc
     00002EA1  A$lcc1766456$119                   map_00_init_npc
     00002EA2  A$lcc1766456$120                   map_00_init_npc
     00002EA4  A$lcc1766456$121                   map_00_init_npc
     00002EA5  A$lcc1766456$122                   map_00_init_npc
     00002EA6  A$lcc1766456$123                   map_00_init_npc
     00002EA7  A$lcc1766456$124                   map_00_init_npc
     00002EA9  A$lcc1766456$125                   map_00_init_npc
     00002EAA  A$lcc1766456$126                   map_00_init_npc
     00002EAB  A$lcc1766456$127                   map_00_init_npc
     00002EAC  A$lcc1766456$128                   map_00_init_npc
     00002EAD  A$lcc1766456$129                   map_00_init_npc
     00002EB0  A$lcc1766456$130                   map_00_init_npc
     00002EB1  A$lcc1766456$131                   map_00_init_npc
     00002EB2  A$lcc1766456$132                   map_00_init_npc
ASxxxx Linker V03.00/V05.40 + sdld,  page 77.
Hexadecimal  [32-Bits]

Area                                    Addr        Size        Decimal Bytes (Attributes)
--------------------------------        ----        ----        ------- ----- ------------
_CODE                               00000200    0000319C =       12700. bytes (REL,CON)

      Value  Global                              Global Defined In Module
      -----  --------------------------------   ------------------------
     00002EB3  A$lcc1766456$133                   map_00_init_npc
     00002EB5  A$lcc1766456$134                   map_00_init_npc
     00002EB6  A$lcc1766456$135                   map_00_init_npc
     00002EB7  A$lcc1766456$136                   map_00_init_npc
     00002EB8  A$lcc1766456$140                   map_00_init_npc
     00002EB8  C$map_00_init_npc.c$18$2_1$165     map_00_init_npc
     00002EB9  A$lcc1766456$141                   map_00_init_npc
     00002EBB  A$lcc1766456$146                   map_00_init_npc
     00002EBB  C$map_00_init_npc.c$21$1_1$164     map_00_init_npc
     00002EBE  A$lcc1766456$147                   map_00_init_npc
     00002EBF  A$lcc1766456$148                   map_00_init_npc
     00002EC0  A$lcc1766456$149                   map_00_init_npc
     00002EC2  A$lcc1766456$150                   map_00_init_npc
     00002EC5  A$lcc1766456$151                   map_00_init_npc
     00002EC6  A$lcc1766456$152                   map_00_init_npc
     00002EC9  A$lcc1766456$153                   map_00_init_npc
     00002ECB  A$lcc1766456$154                   map_00_init_npc
     00002ECC  A$lcc1766456$155                   map_00_init_npc
     00002ECE  A$lcc1766456$156                   map_00_init_npc
     00002ED0  A$lcc1766456$157                   map_00_init_npc
     00002ED1  A$lcc1766456$158                   map_00_init_npc
     00002ED2  A$lcc1766456$159                   map_00_init_npc
     00002ED3  A$lcc1766456$160                   map_00_init_npc
     00002ED4  A$lcc1766456$161                   map_00_init_npc
     00002ED5  A$lcc1766456$162                   map_00_init_npc
     00002ED6  A$lcc1766456$166                   map_00_init_npc
     00002ED6  C$map_00_init_npc.c$22$1_1$164     map_00_init_npc
     00002ED9  A$lcc1766456$167                   map_00_init_npc
     00002EDA  A$lcc1766456$168                   map_00_init_npc
     00002EDB  A$lcc1766456$169                   map_00_init_npc
     00002EDD  A$lcc1766456$170                   map_00_init_npc
     00002EE0  A$lcc1766456$171                   map_00_init_npc
     00002EE1  A$lcc1766456$172                   map_00_init_npc
     00002EE4  A$lcc1766456$173                   map_00_init_npc
     00002EE6  A$lcc1766456$174                   map_00_init_npc
     00002EE7  A$lcc1766456$175                   map_00_init_npc
     00002EE9  A$lcc1766456$176                   map_00_init_npc
     00002EEB  A$lcc1766456$177                   map_00_init_npc
     00002EEC  A$lcc1766456$178                   map_00_init_npc
     00002EED  A$lcc1766456$179                   map_00_init_npc
     00002EEE  A$lcc1766456$180                   map_00_init_npc
     00002EEF  A$lcc1766456$181                   map_00_init_npc
     00002EF0  A$lcc1766456$182                   map_00_init_npc
     00002EF1  A$lcc1766456$186                   map_00_init_npc
     00002EF1  C$map_00_init_npc.c$24$1_1$164     map_00_init_npc
     00002EF4  A$lcc1766456$187                   map_00_init_npc
     00002EF5  A$lcc1766456$188                   map_00_init_npc
     00002EF7  A$lcc1766456$189                   map_00_init_npc
     00002EFA  A$lcc1766456$190                   map_00_init_npc
     00002EFB  A$lcc1766456$191                   map_00_init_npc
     00002EFD  A$lcc1766456$195                   map_00_init_npc
ASxxxx Linker V03.00/V05.40 + sdld,  page 78.
Hexadecimal  [32-Bits]

Area                                    Addr        Size        Decimal Bytes (Attributes)
--------------------------------        ----        ----        ------- ----- ------------
_CODE                               00000200    0000319C =       12700. bytes (REL,CON)

      Value  Global                              Global Defined In Module
      -----  --------------------------------   ------------------------
     00002EFD  C$map_00_init_npc.c$25$1_1$164     map_00_init_npc
     00002F00  A$lcc1766456$196                   map_00_init_npc
     00002F01  A$lcc1766456$197                   map_00_init_npc
     00002F03  A$lcc1766456$198                   map_00_init_npc
     00002F06  A$lcc1766456$199                   map_00_init_npc
     00002F07  A$lcc1766456$200                   map_00_init_npc
     00002F09  A$lcc1766456$204                   map_00_init_npc
     00002F09  C$map_00_init_npc.c$26$1_1$164     map_00_init_npc
     00002F0C  A$lcc1766456$205                   map_00_init_npc
     00002F0D  A$lcc1766456$206                   map_00_init_npc
     00002F0F  A$lcc1766456$207                   map_00_init_npc
     00002F12  A$lcc1766456$208                   map_00_init_npc
     00002F13  A$lcc1766456$209                   map_00_init_npc
     00002F15  A$lcc1766456$213                   map_00_init_npc
     00002F15  C$map_00_init_npc.c$29$2_1$166     map_00_init_npc
     00002F17  A$lcc1766456$214                   map_00_init_npc
     00002F19  A$lcc1766456$215                   map_00_init_npc
     00002F1A  A$lcc1766456$216                   map_00_init_npc
     00002F1C  A$lcc1766456$217                   map_00_init_npc
     00002F1D  A$lcc1766456$218                   map_00_init_npc
     00002F1F  A$lcc1766456$219                   map_00_init_npc
     00002F20  A$lcc1766456$220                   map_00_init_npc
     00002F22  A$lcc1766456$221                   map_00_init_npc
     00002F23  A$lcc1766456$222                   map_00_init_npc
     00002F25  A$lcc1766456$223                   map_00_init_npc
     00002F26  A$lcc1766456$224                   map_00_init_npc
     00002F28  A$lcc1766456$225                   map_00_init_npc
     00002F29  A$lcc1766456$226                   map_00_init_npc
     00002F2B  A$lcc1766456$227                   map_00_init_npc
     00002F2C  A$lcc1766456$228                   map_00_init_npc
     00002F2E  A$lcc1766456$232                   map_00_init_npc
     00002F2E  C$map_00_init_npc.c$35$1_2$166     map_00_init_npc
     00002F31  A$lcc1766456$233                   map_00_init_npc
     00002F32  A$lcc1766456$234                   map_00_init_npc
     00002F34  A$lcc1766456$235                   map_00_init_npc
     00002F35  A$lcc1766456$236                   map_00_init_npc
     00002F36  A$lcc1766456$237                   map_00_init_npc
     00002F37  A$lcc1766456$238                   map_00_init_npc
     00002F38  A$lcc1766456$239                   map_00_init_npc
     00002F39  A$lcc1766456$240                   map_00_init_npc
     00002F3A  A$lcc1766456$241                   map_00_init_npc
     00002F3B  A$lcc1766456$242                   map_00_init_npc
     00002F3C  A$lcc1766456$243                   map_00_init_npc
     00002F3D  A$lcc1766456$244                   map_00_init_npc
     00002F40  A$lcc1766456$245                   map_00_init_npc
     00002F41  A$lcc1766456$246                   map_00_init_npc
     00002F42  A$lcc1766456$247                   map_00_init_npc
     00002F43  A$lcc1766456$248                   map_00_init_npc
     00002F46  A$lcc1766456$249                   map_00_init_npc
     00002F47  A$lcc1766456$250                   map_00_init_npc
     00002F49  A$lcc1766456$251                   map_00_init_npc
ASxxxx Linker V03.00/V05.40 + sdld,  page 79.
Hexadecimal  [32-Bits]

Area                                    Addr        Size        Decimal Bytes (Attributes)
--------------------------------        ----        ----        ------- ----- ------------
_CODE                               00000200    0000319C =       12700. bytes (REL,CON)

      Value  Global                              Global Defined In Module
      -----  --------------------------------   ------------------------
     00002F4A  A$lcc1766456$252                   map_00_init_npc
     00002F4B  A$lcc1766456$253                   map_00_init_npc
     00002F4E  A$lcc1766456$254                   map_00_init_npc
     00002F4F  A$lcc1766456$255                   map_00_init_npc
     00002F50  A$lcc1766456$256                   map_00_init_npc
     00002F51  A$lcc1766456$257                   map_00_init_npc
     00002F52  A$lcc1766456$258                   map_00_init_npc
     00002F53  A$lcc1766456$259                   map_00_init_npc
     00002F56  A$lcc1766456$260                   map_00_init_npc
     00002F59  A$lcc1766456$264                   map_00_init_npc
     00002F5B  A$lcc1766456$269                   map_00_init_npc
     00002F5B  C$map_00_init_npc.c$36$1_2$163     map_00_init_npc
     00002F5B  XG$Map_00_NPC_Init$0$0             map_00_init_npc
     00002F5C  A$lcc1766457$56                    map_00_update
     00002F5C  C$map_00_update.c$11$0_0$171       map_00_update
     00002F5C  G$Map_00_Update$0$0                map_00_update
     00002F5C  _Map_00_Update                     map_00_update
     00002F5E  A$lcc1766457$57                    map_00_update
     00002F60  A$lcc1766457$58                    map_00_update
     00002F61  A$lcc1766457$59                    map_00_update
     00002F62  A$lcc1766457$60                    map_00_update
     00002F63  A$lcc1766457$64                    map_00_update
     00002F63  C$map_00_update.c$13$1_0$171       map_00_update
     00002F66  A$lcc1766457$68                    map_00_update
     00002F66  C$map_00_update.c$15$1_1$172       map_00_update
     00002F68  A$lcc1766457$69                    map_00_update
     00002F69  A$lcc1766457$70                    map_00_update
     00002F6A  A$lcc1766457$71                    map_00_update
     00002F6B  A$lcc1766457$72                    map_00_update
     00002F6E  A$lcc1766457$73                    map_00_update
     00002F6F  A$lcc1766457$74                    map_00_update
     00002F70  A$lcc1766457$75                    map_00_update
     00002F71  A$lcc1766457$76                    map_00_update
     00002F72  A$lcc1766457$77                    map_00_update
     00002F74  A$lcc1766457$78                    map_00_update
     00002F75  A$lcc1766457$79                    map_00_update
     00002F76  A$lcc1766457$80                    map_00_update
     00002F77  A$lcc1766457$84                    map_00_update
     00002F78  A$lcc1766457$85                    map_00_update
     00002F79  A$lcc1766457$86                    map_00_update
     00002F7C  A$lcc1766457$87                    map_00_update
     00002F7D  A$lcc1766457$88                    map_00_update
     00002F7E  A$lcc1766457$89                    map_00_update
     00002F7F  A$lcc1766457$90                    map_00_update
     00002F81  A$lcc1766457$91                    map_00_update
     00002F82  A$lcc1766457$92                    map_00_update
     00002F83  A$lcc1766457$93                    map_00_update
     00002F84  A$lcc1766457$94                    map_00_update
     00002F86  A$lcc1766457$95                    map_00_update
     00002F87  A$lcc1766457$96                    map_00_update
     00002F8A  A$lcc1766457$98                    map_00_update
ASxxxx Linker V03.00/V05.40 + sdld,  page 80.
Hexadecimal  [32-Bits]

Area                                    Addr        Size        Decimal Bytes (Attributes)
--------------------------------        ----        ----        ------- ----- ------------
_CODE                               00000200    0000319C =       12700. bytes (REL,CON)

      Value  Global                              Global Defined In Module
      -----  --------------------------------   ------------------------
     00002F8C  A$lcc1766457$99                    map_00_update
     00002F8D  A$lcc1766457$100                   map_00_update
     00002F8E  A$lcc1766457$101                   map_00_update
     00002F8F  A$lcc1766457$102                   map_00_update
     00002F90  A$lcc1766457$103                   map_00_update
     00002F91  A$lcc1766457$104                   map_00_update
     00002F93  A$lcc1766457$105                   map_00_update
     00002F94  A$lcc1766457$106                   map_00_update
     00002F95  A$lcc1766457$107                   map_00_update
     00002F96  A$lcc1766457$108                   map_00_update
     00002F97  A$lcc1766457$109                   map_00_update
     00002F99  A$lcc1766457$113                   map_00_update
     00002F99  C$map_00_update.c$18$3_1$174       map_00_update
     00002F9A  A$lcc1766457$114                   map_00_update
     00002F9B  A$lcc1766457$115                   map_00_update
     00002F9C  A$lcc1766457$116                   map_00_update
     00002F9D  A$lcc1766457$117                   map_00_update
     00002F9E  A$lcc1766457$118                   map_00_update
     00002F9F  A$lcc1766457$119                   map_00_update
     00002FA0  A$lcc1766457$120                   map_00_update
     00002FA3  A$lcc1766457$121                   map_00_update
     00002FA4  A$lcc1766457$125                   map_00_update
     00002FA4  C$map_00_update.c$17$2_1$173       map_00_update
     00002FA5  A$lcc1766457$126                   map_00_update
     00002FA7  A$lcc1766457$131                   map_00_update
     00002FA7  C$map_00_update.c$21$1_1$172       map_00_update
     00002FAA  A$lcc1766457$132                   map_00_update
     00002FAD  A$lcc1766457$136                   map_00_update
     00002FAD  C$map_00_update.c$22$1_1$172       map_00_update
     00002FAE  A$lcc1766457$137                   map_00_update
     00002FAF  A$lcc1766457$138                   map_00_update
     00002FB0  A$lcc1766457$139                   map_00_update
     00002FB1  A$lcc1766457$140                   map_00_update
     00002FB2  A$lcc1766457$141                   map_00_update
     00002FB3  A$lcc1766457$142                   map_00_update
     00002FB6  A$lcc1766457$146                   map_00_update
     00002FB6  C$map_00_update.c$24$1_1$172       map_00_update
     00002FB8  A$lcc1766457$147                   map_00_update
     00002FB9  A$lcc1766457$148                   map_00_update
     00002FBA  A$lcc1766457$149                   map_00_update
     00002FBB  A$lcc1766457$150                   map_00_update
     00002FBE  A$lcc1766457$157                   map_00_update
     00002FBE  C$map_00_update.c$26$1_1$172       map_00_update
     00002FC0  A$lcc1766457$162                   map_00_update
     00002FC0  C$map_00_update.c$27$1_1$171       map_00_update
     00002FC0  XG$Map_00_Update$0$0               map_00_update
     00002FC1  A$lcc1766458$64                    main
     00002FC1  C$main.c$29$0_0$173                main
     00002FC1  C$main.c$31$1_0$173                main
     00002FC1  G$load_number_tiles$0$0            main
     00002FC1  _load_number_tiles                 main
ASxxxx Linker V03.00/V05.40 + sdld,  page 81.
Hexadecimal  [32-Bits]

Area                                    Addr        Size        Decimal Bytes (Attributes)
--------------------------------        ----        ----        ------- ----- ------------
_CODE                               00000200    0000319C =       12700. bytes (REL,CON)

      Value  Global                              Global Defined In Module
      -----  --------------------------------   ------------------------
     00002FC4  A$lcc1766458$65                    main
     00002FC5  A$lcc1766458$66                    main
     00002FC8  A$lcc1766458$67                    main
     00002FC9  A$lcc1766458$68                    main
     00002FCC  A$lcc1766458$69                    main
     00002FCE  A$lcc1766458$73                    main
     00002FCE  C$main.c$32$1_0$173                main
     00002FD1  A$lcc1766458$74                    main
     00002FD2  A$lcc1766458$75                    main
     00002FD5  A$lcc1766458$76                    main
     00002FD6  A$lcc1766458$77                    main
     00002FD9  A$lcc1766458$78                    main
     00002FDB  A$lcc1766458$86                    main
     00002FDB  C$main.c$33$1_0$173                main
     00002FDB  XG$load_number_tiles$0$0           main
     00002FDC  A$lcc1766458$99                    main
     00002FDC  C$main.c$35$1_0$175                main
     00002FDC  C$main.c$37$1_0$175                main
     00002FDC  G$main$0$0                         main
     00002FDC  _main                              main
     00002FDE  A$lcc1766458$100                   main
     00002FE0  A$lcc1766458$101                   main
     00002FE2  A$lcc1766458$105                   main
     00002FE2  C$main.c$38$1_0$175                main
     00002FE4  A$lcc1766458$106                   main
     00002FE6  A$lcc1766458$107                   main
     00002FE8  A$lcc1766458$111                   main
     00002FE8  C$main.c$47$1_1$176                main
     00002FEB  A$lcc1766458$112                   main
     00002FED  A$lcc1766458$113                   main
     00002FEE  A$lcc1766458$114                   main
     00002FF0  A$lcc1766458$118                   main
     00002FF0  C$main.c$49$1_1$176                main
     00002FF3  A$lcc1766458$122                   main
     00002FF3  C$main.c$50$1_1$176                main
     00002FF6  A$lcc1766458$126                   main
     00002FF6  C$main.c$53$1_2$177                main
     00002FF9  A$lcc1766458$127                   main
     00002FFC  A$lcc1766458$131                   main
     00002FFC  C$main.c$55$1_2$177                main
     00002FFF  A$lcc1766458$132                   main
     00003002  A$lcc1766458$133                   main
     00003003  A$lcc1766458$134                   main
     00003004  A$lcc1766458$135                   main
     00003005  A$lcc1766458$136                   main
     00003006  A$lcc1766458$137                   main
     00003007  A$lcc1766458$138                   main
     00003008  A$lcc1766458$139                   main
     00003009  A$lcc1766458$140                   main
     0000300C  A$lcc1766458$141                   main
     0000300E  A$lcc1766458$142                   main
ASxxxx Linker V03.00/V05.40 + sdld,  page 82.
Hexadecimal  [32-Bits]

Area                                    Addr        Size        Decimal Bytes (Attributes)
--------------------------------        ----        ----        ------- ----- ------------
_CODE                               00000200    0000319C =       12700. bytes (REL,CON)

      Value  Global                              Global Defined In Module
      -----  --------------------------------   ------------------------
     0000300F  A$lcc1766458$143                   main
     00003010  A$lcc1766458$144                   main
     00003011  A$lcc1766458$145                   main
     00003012  A$lcc1766458$146                   main
     00003015  A$lcc1766458$150                   main
     00003015  C$main.c$57$1_2$177                main
     00003018  A$lcc1766458$155                   main
     00003018  C$main.c$59$1_2$177                main
     0000301B  A$lcc1766458$156                   main
     0000301C  A$lcc1766458$157                   main
     0000301D  A$lcc1766458$158                   main
     0000301E  A$lcc1766458$162                   main
     0000301E  C$main.c$61$2_2$178                main
     00003021  A$lcc1766458$163                   main
     00003022  A$lcc1766458$164                   main
     00003023  A$lcc1766458$165                   main
     00003024  A$lcc1766458$166                   main
     00003025  A$lcc1766458$167                   main
     00003026  A$lcc1766458$168                   main
     00003027  A$lcc1766458$169                   main
     00003028  A$lcc1766458$170                   main
     00003029  A$lcc1766458$171                   main
     0000302A  A$lcc1766458$172                   main
     0000302B  A$lcc1766458$173                   main
     0000302C  A$lcc1766458$174                   main
     0000302D  A$lcc1766458$175                   main
     00003030  A$lcc1766458$176                   main
     00003031  A$lcc1766458$177                   main
     00003032  A$lcc1766458$178                   main
     00003033  A$lcc1766458$183                   main
     00003033  C$main.c$63$2_2$178                main
     00003036  A$lcc1766458$191                   main
     00003036  C$main.c$65$1_2$175                main
     00003036  XG$main$0$0                        main
     00003038  __divsuchar                        divmod
     0000303E  __modsuchar                        divmod
     00003047  __divuschar                        divmod
     00003050  __moduschar                        divmod
     0000305C  __divschar                         divmod
     00003061  __modschar                         divmod
     00003068  __divsint                          divmod
     00003071  __modsint                          divmod
     0000307D  __divuchar                         divmod
     00003082  __moduchar                         divmod
     00003089  __divuint                          divmod
     00003092  __moduint                          divmod
     0000309E  .div8                              divmod
     0000309E  .mod8                              divmod
     000030A6  .div16                             divmod
     000030A6  .mod16                             divmod
     000030DC  .divu8                             divmod
ASxxxx Linker V03.00/V05.40 + sdld,  page 83.
Hexadecimal  [32-Bits]

Area                                    Addr        Size        Decimal Bytes (Attributes)
--------------------------------        ----        ----        ------- ----- ------------
_CODE                               00000200    0000319C =       12700. bytes (REL,CON)

      Value  Global                              Global Defined In Module
      -----  --------------------------------   ------------------------
     000030DC  .modu8                             divmod
     000030DF  .divu16                            divmod
     000030DF  .modu16                            divmod
     0000311F  _free                              free
     0000322F  ___sdcc_heap_init                  malloc
     00003251  _malloc                            malloc
     00003357  __mulsuchar                        mul
     0000335A  __muluschar                        mul
     00003363  __mulschar                         mul
     0000336B  __mulint                           mul
     0000338A  __muluchar                         mul

ASxxxx Linker V03.00/V05.40 + sdld,  page 84.
Hexadecimal  [32-Bits]

Area                                    Addr        Size        Decimal Bytes (Attributes)
--------------------------------        ----        ----        ------- ----- ------------
_HEADER0                            00000000    00000001 =           1. bytes (ABS,CON)

      Value  Global                              Global Defined In Module
      -----  --------------------------------   ------------------------
     00000020  .call_hl                           Runtime

ASxxxx Linker V03.00/V05.40 + sdld,  page 85.
Hexadecimal  [32-Bits]

Area                                    Addr        Size        Decimal Bytes (Attributes)
--------------------------------        ----        ----        ------- ----- ------------
_HEADER1                            00000000    00000005 =           5. bytes (ABS,CON)

      Value  Global                              Global Defined In Module
      -----  --------------------------------   ------------------------
     00000028  .MemsetSmall                       Runtime

ASxxxx Linker V03.00/V05.40 + sdld,  page 86.
Hexadecimal  [32-Bits]

Area                                    Addr        Size        Decimal Bytes (Attributes)
--------------------------------        ----        ----        ------- ----- ------------
_HEADER2                            00000000    00000007 =           7. bytes (ABS,CON)

      Value  Global                              Global Defined In Module
      -----  --------------------------------   ------------------------
     00000030  .MemcpySmall                       Runtime

ASxxxx Linker V03.00/V05.40 + sdld,  page 87.
Hexadecimal  [32-Bits]

Area                                    Addr        Size        Decimal Bytes (Attributes)
--------------------------------        ----        ----        ------- ----- ------------
_HEADER3                            00000000    00000008 =           8. bytes (ABS,CON)

      Value  Global                              Global Defined In Module
      -----  --------------------------------   ------------------------
ASxxxx Linker V03.00/V05.40 + sdld,  page 88.
Hexadecimal  [32-Bits]

Area                                    Addr        Size        Decimal Bytes (Attributes)
--------------------------------        ----        ----        ------- ----- ------------
_HEADER4                            00000000    00000060 =          96. bytes (ABS,CON)

      Value  Global                              Global Defined In Module
      -----  --------------------------------   ------------------------
     00000080  .int                               Runtime
     0000008F  _wait_int_handler                  Runtime
     0000009C  __standard_VBL_handler             Runtime
     000000AB  _refresh_OAM                       Runtime
     000000CC  _set_interrupts                    Runtime

ASxxxx Linker V03.00/V05.40 + sdld,  page 89.
Hexadecimal  [32-Bits]

Area                                    Addr        Size        Decimal Bytes (Attributes)
--------------------------------        ----        ----        ------- ----- ------------
_HEADER5                            00000000    00000001 =           1. bytes (ABS,CON)

      Value  Global                              Global Defined In Module
      -----  --------------------------------   ------------------------
ASxxxx Linker V03.00/V05.40 + sdld,  page 90.
Hexadecimal  [32-Bits]

Area                                    Addr        Size        Decimal Bytes (Attributes)
--------------------------------        ----        ----        ------- ----- ------------
_HEADER6                            00000000    00000002 =           2. bytes (ABS,CON)

      Value  Global                              Global Defined In Module
      -----  --------------------------------   ------------------------
ASxxxx Linker V03.00/V05.40 + sdld,  page 91.
Hexadecimal  [32-Bits]

Area                                    Addr        Size        Decimal Bytes (Attributes)
--------------------------------        ----        ----        ------- ----- ------------
_HEADER7                            00000000    00000030 =          48. bytes (ABS,CON)

      Value  Global                              Global Defined In Module
      -----  --------------------------------   ------------------------
ASxxxx Linker V03.00/V05.40 + sdld,  page 92.
Hexadecimal  [32-Bits]

Area                                    Addr        Size        Decimal Bytes (Attributes)
--------------------------------        ----        ----        ------- ----- ------------
_HEADER8                            00000000    00000006 =           6. bytes (ABS,CON)

      Value  Global                              Global Defined In Module
      -----  --------------------------------   ------------------------
ASxxxx Linker V03.00/V05.40 + sdld,  page 93.
Hexadecimal  [32-Bits]

Area                                    Addr        Size        Decimal Bytes (Attributes)
--------------------------------        ----        ----        ------- ----- ------------
_HEADER9                            00000000    00000003 =           3. bytes (ABS,CON)

      Value  Global                              Global Defined In Module
      -----  --------------------------------   ------------------------
ASxxxx Linker V03.00/V05.40 + sdld,  page 94.
Hexadecimal  [32-Bits]

Area                                    Addr        Size        Decimal Bytes (Attributes)
--------------------------------        ----        ----        ------- ----- ------------
_HEADERa                            00000000    00000001 =           1. bytes (ABS,CON)

      Value  Global                              Global Defined In Module
      -----  --------------------------------   ------------------------
ASxxxx Linker V03.00/V05.40 + sdld,  page 95.
Hexadecimal  [32-Bits]

Area                                    Addr        Size        Decimal Bytes (Attributes)
--------------------------------        ----        ----        ------- ----- ------------
_HEADERb                            00000000    00000001 =           1. bytes (ABS,CON)

      Value  Global                              Global Defined In Module
      -----  --------------------------------   ------------------------
ASxxxx Linker V03.00/V05.40 + sdld,  page 96.
Hexadecimal  [32-Bits]

Area                                    Addr        Size        Decimal Bytes (Attributes)
--------------------------------        ----        ----        ------- ----- ------------
_HEADERc                            00000000    00000001 =           1. bytes (ABS,CON)

      Value  Global                              Global Defined In Module
      -----  --------------------------------   ------------------------
ASxxxx Linker V03.00/V05.40 + sdld,  page 97.
Hexadecimal  [32-Bits]

Area                                    Addr        Size        Decimal Bytes (Attributes)
--------------------------------        ----        ----        ------- ----- ------------
_HEADERd                            00000000    00000002 =           2. bytes (ABS,CON)

      Value  Global                              Global Defined In Module
      -----  --------------------------------   ------------------------
ASxxxx Linker V03.00/V05.40 + sdld,  page 98.
Hexadecimal  [32-Bits]

Area                                    Addr        Size        Decimal Bytes (Attributes)
--------------------------------        ----        ----        ------- ----- ------------
_HEADERe                            00000000    00000001 =           1. bytes (ABS,CON)

      Value  Global                              Global Defined In Module
      -----  --------------------------------   ------------------------
ASxxxx Linker V03.00/V05.40 + sdld,  page 99.
Hexadecimal  [32-Bits]

Area                                    Addr        Size        Decimal Bytes (Attributes)
--------------------------------        ----        ----        ------- ----- ------------
_HEADERf                            00000000    00000001 =           1. bytes (ABS,CON)

      Value  Global                              Global Defined In Module
      -----  --------------------------------   ------------------------
ASxxxx Linker V03.00/V05.40 + sdld,  page 100.
Hexadecimal  [32-Bits]

Area                                    Addr        Size        Decimal Bytes (Attributes)
--------------------------------        ----        ----        ------- ----- ------------
_HEADER10                           00000000    00000002 =           2. bytes (ABS,CON)

      Value  Global                              Global Defined In Module
      -----  --------------------------------   ------------------------
ASxxxx Linker V03.00/V05.40 + sdld,  page 101.
Hexadecimal  [32-Bits]

Area                                    Addr        Size        Decimal Bytes (Attributes)
--------------------------------        ----        ----        ------- ----- ------------
_HEADER11                           00000000    000000AB =         171. bytes (ABS,CON)

      Value  Global                              Global Defined In Module
      -----  --------------------------------   ------------------------
     00000150  .reset                             Runtime
     00000150  _reset                             Runtime
     00000157  .code_start                        Runtime
     000001B9  _exit                              Runtime
     000001BD  .wait_vbl_done                     Runtime
     000001BD  _vsync                             Runtime
     000001BD  _wait_vbl_done                     Runtime
     000001CD  .remove_VBL                        Runtime
     000001CD  _remove_VBL                        Runtime
     000001D0  .remove_int                        Runtime
     000001ED  .add_VBL                           Runtime
     000001ED  _add_VBL                           Runtime
     000001F0  .add_int                           Runtime

ASxxxx Linker V03.00/V05.40 + sdld,  page 102.
Hexadecimal  [32-Bits]

Area                                    Addr        Size        Decimal Bytes (Attributes)
--------------------------------        ----        ----        ------- ----- ------------
_HOME                               0000339C    0000012C =         300. bytes (REL,CON)

      Value  Global                              Global Defined In Module
      -----  --------------------------------   ------------------------
     0000339C  .memset_simple                     Runtime
     000033A5  .memcpy_simple                     Runtime
     000033C2  .display_off                       Runtime
     000033C2  _display_off                       Runtime
     000033DA  _set_tile_data                     
     000033DF  _set_bkg_data                      
     000033DF  _set_win_data                      
     000033E7  _set_sprite_data                   
     00003417  .padup                             
     00003417  _waitpadup                         
     00003427  .jpad                              
     00003427  _joypad                            
     0000344F  _waitpad                           
     00003450  .wait_pad                          
     00003457  ___sdcc_call_hl                    call_hl
     00003458  _set_bkg_tiles                     
     0000346C  .set_xy_wtt                        SetTileMap
     00003475  .set_xy_btt                        SetTileMap
     00003484  .set_xy_tt                         SetTileMap

ASxxxx Linker V03.00/V05.40 + sdld,  page 103.
Hexadecimal  [32-Bits]

Area                                    Addr        Size        Decimal Bytes (Attributes)
--------------------------------        ----        ----        ------- ----- ------------
_INITIALIZER                        000034C8    000001E5 =         485. bytes (REL,CON)

      Value  Global                              Global Defined In Module
      -----  --------------------------------   ------------------------
     000034C8  Fspr_InventoryArrow_idle$__xinit   spr_InventoryArrow_idle
     000034D8  Fexample_npc$__xinit_spr_example   example_npc
     000034E8  Fexample_npc$__xinit_spr_example   example_npc
     000034F8  Fexample_npc$__xinit_spr_example   example_npc
     00003508  Fexample_npc$__xinit_spr_example   example_npc
     00003518  Fspr_Player_down0$__xinit_spr_Pl   spr_Player_down0
     00003528  Fspr_Player_down0$__xinit_spr_Pl   spr_Player_down0
     00003538  Fspr_Player_down0$__xinit_spr_Pl   spr_Player_down0
     00003548  Fspr_Player_down0$__xinit_spr_Pl   spr_Player_down0
     00003558  Fspr_Player_down1$__xinit_spr_Pl   spr_Player_down1
     00003568  Fspr_Player_down1$__xinit_spr_Pl   spr_Player_down1
     00003578  Fspr_Player_down1$__xinit_spr_Pl   spr_Player_down1
     00003588  Fspr_Player_down1$__xinit_spr_Pl   spr_Player_down1
     00003598  Fspr_Player_down2$__xinit_spr_Pl   spr_Player_down2
     000035A8  Fspr_Player_down2$__xinit_spr_Pl   spr_Player_down2
     000035B8  Fspr_Player_down2$__xinit_spr_Pl   spr_Player_down2
     000035C8  Fspr_Player_down2$__xinit_spr_Pl   spr_Player_down2
     000035D8  Fspr_Player_up0$__xinit_spr_Play   spr_Player_up0
     000035E8  Fspr_Player_up0$__xinit_spr_Play   spr_Player_up0
     000035F8  Fspr_Player_up0$__xinit_spr_Play   spr_Player_up0
     00003608  Fspr_Player_up0$__xinit_spr_Play   spr_Player_up0
     00003618  Fspr_Player_up1$__xinit_spr_Play   spr_Player_up1
     00003628  Fspr_Player_up1$__xinit_spr_Play   spr_Player_up1
     00003638  Fspr_Player_up1$__xinit_spr_Play   spr_Player_up1
     00003648  Fspr_Player_up1$__xinit_spr_Play   spr_Player_up1
     00003658  Fspr_Player_up2$__xinit_spr_Play   spr_Player_up2
     00003668  Fspr_Player_up2$__xinit_spr_Play   spr_Player_up2
     00003678  Fspr_Player_up2$__xinit_spr_Play   spr_Player_up2
     00003688  Fspr_Player_up2$__xinit_spr_Play   spr_Player_up2
     00003698  Faction$__xinit_MOVE_SPEED$0_0$0   action
     00003699  Faction$__xinit_current_directio   action
     0000369A  Fcan_move$__xinit_can_move$0_0$0   can_move
     0000369E  Fentity$__xinit_next_entity_id$0   entity
     0000369F  Fgender_selection$__xinit_GENDER   gender_selection
     000036A0  Finput$__xinit_keys$0_0$0          input
     000036A1  Finput$__xinit_prev_keys$0_0$0     input
     000036A2  Finventory$__xinit_inventory_act   inventory
     000036A3  Fload$__xinit_vram_next_index$0_   load
     000036A4  Fmoney$__xinit_money$0_0$0         money
     000036A6  Fmain_menu$__xinit_timer$0_0$0     main_menu
     000036A8  Fmain_menu$__xinit_rate$0_0$0      main_menu
     000036A9  Fmain_menu$__xinit_show_text$0_0   main_menu
     000036AA  Fmain_menu$__xinit_seed$0_0$0      main_menu

ASxxxx Linker V03.00/V05.40 + sdld,  page 104.
Hexadecimal  [32-Bits]

Area                                    Addr        Size        Decimal Bytes (Attributes)
--------------------------------        ----        ----        ------- ----- ------------
_GSINIT                             000036AD    0000000F =          15. bytes (REL,CON)

      Value  Global                              Global Defined In Module
      -----  --------------------------------   ------------------------
     000036AD  gsinit                             Runtime

ASxxxx Linker V03.00/V05.40 + sdld,  page 105.
Hexadecimal  [32-Bits]

Area                                    Addr        Size        Decimal Bytes (Attributes)
--------------------------------        ----        ----        ------- ----- ------------
_GSFINAL                            000036BC    00000001 =           1. bytes (REL,CON)

      Value  Global                              Global Defined In Module
      -----  --------------------------------   ------------------------
ASxxxx Linker V03.00/V05.40 + sdld,  page 106.
Hexadecimal  [32-Bits]

Area                                    Addr        Size        Decimal Bytes (Attributes)
--------------------------------        ----        ----        ------- ----- ------------
_DATA                               0000C0A0    000001B7 =         439. bytes (REL,CON)

      Value  Global                              Global Defined In Module
      -----  --------------------------------   ------------------------
     0000C0A0  __cpu                              Runtime
     0000C0A1  __is_GBA                           Runtime
     0000C0A2  .mode                              Runtime
     0000C0A3  .sys_time                          Runtime
     0000C0A3  _sys_time                          Runtime
     0000C0A5  .int_0x40                          Runtime
     0000C0B1  G$animation$0_0$0                  animation
     0000C0B1  _animation                         animation
     0000C1A6  G$names$0_0$0                      name
     0000C1A6  _names                             name
     0000C1D8  G$npc_1$0_0$0                      npcs
     0000C1D8  _npc_1                             npcs
     0000C1D9  G$npc_2$0_0$0                      npcs
     0000C1D9  _npc_2                             npcs
     0000C1DA  G$option_actor$0_0$0               npcs
     0000C1DA  _option_actor                      npcs
     0000C1DB  G$humor_stats$0_0$0                npcs
     0000C1DB  _humor_stats                       npcs
     0000C1EA  G$player$0_0$0                     player
     0000C1EA  _player                            player
     0000C1EB  G$player_animations$0_0$0          player
     0000C1EB  _player_animations                 player
     0000C1EF  G$player_y_cache$0_0$0             player
     0000C1EF  _player_y_cache                    player
     0000C1F0  G$position$0_0$0                   position
     0000C1F0  _position                          position
     0000C20E  G$render$0_0$0                     render
     0000C20E  _render                            render
     0000C21D  G$scene_manager$0_0$0              scene_manager
     0000C21D  _scene_manager                     scene_manager
     0000C21F  G$GenderSelect$0_0$0               gender_select
     0000C21F  _GenderSelect                      gender_select
     0000C227  G$InventoryScene$0_0$0             inventory_scene
     0000C227  _InventoryScene                    inventory_scene
     0000C22F  G$MainMenu$0_0$0                   main_menu
     0000C22F  _MainMenu                          main_menu
     0000C237  G$CurrentMapData$0_0$0             map_data
     0000C237  _CurrentMapData                    map_data
     0000C249  G$Map_00$0_0$0                     map_00
     0000C249  _Map_00                            map_00
     0000C251  Lmain.main$game$1_1$176            main
     0000C255  ___sdcc_heap_free                  malloc
ASxxxx Linker V03.00/V05.40 + sdld,  page 107.
Hexadecimal  [32-Bits]

Area                                    Addr        Size        Decimal Bytes (Attributes)
--------------------------------        ----        ----        ------- ----- ------------
_INITIALIZED                        0000C257    000001E5 =         485. bytes (REL,CON)

      Value  Global                              Global Defined In Module
      -----  --------------------------------   ------------------------
     0000C257  G$spr_InventoryArrow_idle$0_0$0    spr_InventoryArrow_idle
     0000C257  _spr_InventoryArrow_idle           spr_InventoryArrow_idle
     0000C267  G$spr_example_NPC_00$0_0$0         example_npc
     0000C267  _spr_example_NPC_00                example_npc
     0000C277  G$spr_example_NPC_01$0_0$0         example_npc
     0000C277  _spr_example_NPC_01                example_npc
     0000C287  G$spr_example_NPC_10$0_0$0         example_npc
     0000C287  _spr_example_NPC_10                example_npc
     0000C297  G$spr_example_NPC_11$0_0$0         example_npc
     0000C297  _spr_example_NPC_11                example_npc
     0000C2A7  G$spr_Player_down0_00$0_0$0        spr_Player_down0
     0000C2A7  _spr_Player_down0_00               spr_Player_down0
     0000C2B7  G$spr_Player_down0_10$0_0$0        spr_Player_down0
     0000C2B7  _spr_Player_down0_10               spr_Player_down0
     0000C2C7  G$spr_Player_down0_01$0_0$0        spr_Player_down0
     0000C2C7  _spr_Player_down0_01               spr_Player_down0
     0000C2D7  G$spr_Player_down0_11$0_0$0        spr_Player_down0
     0000C2D7  _spr_Player_down0_11               spr_Player_down0
     0000C2E7  G$spr_Player_down1_00$0_0$0        spr_Player_down1
     0000C2E7  _spr_Player_down1_00               spr_Player_down1
     0000C2F7  G$spr_Player_down1_10$0_0$0        spr_Player_down1
     0000C2F7  _spr_Player_down1_10               spr_Player_down1
     0000C307  G$spr_Player_down1_01$0_0$0        spr_Player_down1
     0000C307  _spr_Player_down1_01               spr_Player_down1
     0000C317  G$spr_Player_down1_11$0_0$0        spr_Player_down1
     0000C317  _spr_Player_down1_11               spr_Player_down1
     0000C327  G$spr_Player_down2_00$0_0$0        spr_Player_down2
     0000C327  _spr_Player_down2_00               spr_Player_down2
     0000C337  G$spr_Player_down2_10$0_0$0        spr_Player_down2
     0000C337  _spr_Player_down2_10               spr_Player_down2
     0000C347  G$spr_Player_down2_01$0_0$0        spr_Player_down2
     0000C347  _spr_Player_down2_01               spr_Player_down2
     0000C357  G$spr_Player_down2_11$0_0$0        spr_Player_down2
     0000C357  _spr_Player_down2_11               spr_Player_down2
     0000C367  G$spr_Player_up0_00$0_0$0          spr_Player_up0
     0000C367  _spr_Player_up0_00                 spr_Player_up0
     0000C377  G$spr_Player_up0_10$0_0$0          spr_Player_up0
     0000C377  _spr_Player_up0_10                 spr_Player_up0
     0000C387  G$spr_Player_up0_01$0_0$0          spr_Player_up0
     0000C387  _spr_Player_up0_01                 spr_Player_up0
     0000C397  G$spr_Player_up0_11$0_0$0          spr_Player_up0
     0000C397  _spr_Player_up0_11                 spr_Player_up0
     0000C3A7  G$spr_Player_up1_00$0_0$0          spr_Player_up1
     0000C3A7  _spr_Player_up1_00                 spr_Player_up1
     0000C3B7  G$spr_Player_up1_10$0_0$0          spr_Player_up1
     0000C3B7  _spr_Player_up1_10                 spr_Player_up1
     0000C3C7  G$spr_Player_up1_01$0_0$0          spr_Player_up1
     0000C3C7  _spr_Player_up1_01                 spr_Player_up1
     0000C3D7  G$spr_Player_up1_11$0_0$0          spr_Player_up1
     0000C3D7  _spr_Player_up1_11                 spr_Player_up1
ASxxxx Linker V03.00/V05.40 + sdld,  page 108.
Hexadecimal  [32-Bits]

Area                                    Addr        Size        Decimal Bytes (Attributes)
--------------------------------        ----        ----        ------- ----- ------------
_INITIALIZED                        0000C257    000001E5 =         485. bytes (REL,CON)

      Value  Global                              Global Defined In Module
      -----  --------------------------------   ------------------------
     0000C3E7  G$spr_Player_up2_00$0_0$0          spr_Player_up2
     0000C3E7  _spr_Player_up2_00                 spr_Player_up2
     0000C3F7  G$spr_Player_up2_10$0_0$0          spr_Player_up2
     0000C3F7  _spr_Player_up2_10                 spr_Player_up2
     0000C407  G$spr_Player_up2_01$0_0$0          spr_Player_up2
     0000C407  _spr_Player_up2_01                 spr_Player_up2
     0000C417  G$spr_Player_up2_11$0_0$0          spr_Player_up2
     0000C417  _spr_Player_up2_11                 spr_Player_up2
     0000C427  G$MOVE_SPEED$0_0$0                 action
     0000C427  _MOVE_SPEED                        action
     0000C428  G$current_direction$0_0$0          action
     0000C428  _current_direction                 action
     0000C429  G$can_move$0_0$0                   can_move
     0000C429  _can_move                          can_move
     0000C42D  G$next_entity_id$0_0$0             entity
     0000C42D  _next_entity_id                    entity
     0000C42E  G$GENDER$0_0$0                     gender_selection
     0000C42E  _GENDER                            gender_selection
     0000C42F  G$keys$0_0$0                       input
     0000C42F  _keys                              input
     0000C430  G$prev_keys$0_0$0                  input
     0000C430  _prev_keys                         input
     0000C431  G$inventory_active$0_0$0           inventory
     0000C431  _inventory_active                  inventory
     0000C432  G$vram_next_index$0_0$0            load
     0000C432  _vram_next_index                   load
     0000C433  G$money$0_0$0                      money
     0000C433  _money                             money
     0000C435  G$timer$0_0$0                      main_menu
     0000C435  _timer                             main_menu
     0000C437  G$rate$0_0$0                       main_menu
     0000C437  _rate                              main_menu
     0000C438  G$show_text$0_0$0                  main_menu
     0000C438  _show_text                         main_menu
     0000C439  G$seed$0_0$0                       main_menu
     0000C439  _seed                              main_menu
     0000C43B  __map_tile_offset                  SetTileMap
ASxxxx Linker V03.00/V05.40 + sdld,  page 109.
Hexadecimal  [32-Bits]

Area                                    Addr        Size        Decimal Bytes (Attributes)
--------------------------------        ----        ----        ------- ----- ------------
_HEAP                               0000C43C    000007FF =        2047. bytes (REL,CON)

      Value  Global                              Global Defined In Module
      -----  --------------------------------   ------------------------
     0000C43C  ___sdcc_heap                       

ASxxxx Linker V03.00/V05.40 + sdld,  page 110.
Hexadecimal  [32-Bits]

Area                                    Addr        Size        Decimal Bytes (Attributes)
--------------------------------        ----        ----        ------- ----- ------------
_HEAP_END                           0000CC3B    00000001 =           1. bytes (REL,CON)

      Value  Global                              Global Defined In Module
      -----  --------------------------------   ------------------------
     0000CC3B  ___sdcc_heap_end                   

ASxxxx Linker V03.00/V05.40 + sdld,  page 111.
Hexadecimal  [32-Bits]

Area                                    Addr        Size        Decimal Bytes (Attributes)
--------------------------------        ----        ----        ------- ----- ------------
_HRAM                               0000FF80    00000013 =          19. bytes (REL,CON)

      Value  Global                              Global Defined In Module
      -----  --------------------------------   ------------------------
     0000FF80  .refresh_OAM                       Runtime
     0000FF90  __current_bank                     Runtime
     0000FF91  __vbl_done                         Runtime
     0000FF92  __shadow_OAM_base                  Runtime

ASxxxx Linker V03.00/V05.40 + sdld,  page 112.

Files Linked                              [ module(s) ]

C:\Program Files\GBDK\lib/gb/crt0.o       [ Runtime ]
C:\Users\Bau_M\AppData\Local\Temp/lcc176640.o
                                          [ chars ]
C:\Users\Bau_M\AppData\Local\Temp/lcc176641.o
                                          [ numbers ]
C:\Users\Bau_M\AppData\Local\Temp/lcc176642.o
                                          [ gender_select_tilemap ]
C:\Users\Bau_M\AppData\Local\Temp/lcc176643.o
                                          [ gender_select_tileset ]
C:\Users\Bau_M\AppData\Local\Temp/lcc176644.o
                                          [ inventory_bkg ]
C:\Users\Bau_M\AppData\Local\Temp/lcc176645.o
                                          [ bkg_MainMenu ]
C:\Users\Bau_M\AppData\Local\Temp/lcc176646.o
                                          [ map_example ]
C:\Users\Bau_M\AppData\Local\Temp/lcc176647.o
                                          [ template_tilemap ]
C:\Users\Bau_M\AppData\Local\Temp/lcc176648.o
                                          [ template_tileset ]
C:\Users\Bau_M\AppData\Local\Temp/lcc176649.o
                                          [ spr_InventoryArrow_idle ]
C:\Users\Bau_M\AppData\Local\Temp/lcc1766410.o
                                          [ spr_Branch ]
C:\Users\Bau_M\AppData\Local\Temp/lcc1766411.o
                                          [ example_npc ]
C:\Users\Bau_M\AppData\Local\Temp/lcc1766412.o
                                          [ spr_Player_down0 ]
C:\Users\Bau_M\AppData\Local\Temp/lcc1766413.o
                                          [ spr_Player_down1 ]
C:\Users\Bau_M\AppData\Local\Temp/lcc1766414.o
                                          [ spr_Player_down2 ]
C:\Users\Bau_M\AppData\Local\Temp/lcc1766415.o
                                          [ spr_Player_up0 ]
C:\Users\Bau_M\AppData\Local\Temp/lcc1766416.o
                                          [ spr_Player_up1 ]
C:\Users\Bau_M\AppData\Local\Temp/lcc1766417.o
                                          [ spr_Player_up2 ]
C:\Users\Bau_M\AppData\Local\Temp/lcc1766418.o
                                          [ action ]
C:\Users\Bau_M\AppData\Local\Temp/lcc1766419.o
                                          [ animation ]
C:\Users\Bau_M\AppData\Local\Temp/lcc1766420.o
                                          [ can_move ]
C:\Users\Bau_M\AppData\Local\Temp/lcc1766421.o
                                          [ char_to_tile ]
C:\Users\Bau_M\AppData\Local\Temp/lcc1766422.o
                                          [ draw ]
C:\Users\Bau_M\AppData\Local\Temp/lcc1766423.o
                                          [ entity ]
C:\Users\Bau_M\AppData\Local\Temp/lcc1766424.o
                                          [ gender_selection ]
C:\Users\Bau_M\AppData\Local\Temp/lcc1766425.o
                                          [ global_action ]
C:\Users\Bau_M\AppData\Local\Temp/lcc1766426.o
                                          [ input ]
C:\Users\Bau_M\AppData\Local\Temp/lcc1766427.o
                                          [ inventory ]
C:\Users\Bau_M\AppData\Local\Temp/lcc1766428.o
                                          [ inventory_input ]
C:\Users\Bau_M\AppData\Local\Temp/lcc1766429.o
                                          [ load ]
C:\Users\Bau_M\AppData\Local\Temp/lcc1766430.o
                                          [ map_scenes ]
C:\Users\Bau_M\AppData\Local\Temp/lcc1766431.o
                                          [ money ]
C:\Users\Bau_M\AppData\Local\Temp/lcc1766432.o
                                          [ name ]
C:\Users\Bau_M\AppData\Local\Temp/lcc1766433.o
                                          [ npcs ]
C:\Users\Bau_M\AppData\Local\Temp/lcc1766434.o
                                          [ player ]
C:\Users\Bau_M\AppData\Local\Temp/lcc1766435.o
                                          [ position ]
C:\Users\Bau_M\AppData\Local\Temp/lcc1766436.o
                                          [ render ]
C:\Users\Bau_M\AppData\Local\Temp/lcc1766437.o
                                          [ scene ]
C:\Users\Bau_M\AppData\Local\Temp/lcc1766438.o
                                          [ scene_manager ]
C:\Users\Bau_M\AppData\Local\Temp/lcc1766439.o
                                          [ gender_select ]
C:\Users\Bau_M\AppData\Local\Temp/lcc1766440.o
                                          [ gender_select_init ]
C:\Users\Bau_M\AppData\Local\Temp/lcc1766441.o
                                          [ gender_select_update ]
C:\Users\Bau_M\AppData\Local\Temp/lcc1766442.o
                                          [ inventory_scene ]
C:\Users\Bau_M\AppData\Local\Temp/lcc1766443.o
                                          [ inventory_scene_init ]
C:\Users\Bau_M\AppData\Local\Temp/lcc1766444.o
                                          [ inventory_scene_update ]
C:\Users\Bau_M\AppData\Local\Temp/lcc1766445.o
                                          [ main_menu ]
C:\Users\Bau_M\AppData\Local\Temp/lcc1766446.o
                                          [ main_menu_init ]
C:\Users\Bau_M\AppData\Local\Temp/lcc1766447.o
                                          [ main_menu_init_stats ]
C:\Users\Bau_M\AppData\Local\Temp/lcc1766448.o
                                          [ main_menu_input ]
C:\Users\Bau_M\AppData\Local\Temp/lcc1766449.o
                                          [ main_menu_update ]
C:\Users\Bau_M\AppData\Local\Temp/lcc1766450.o
                                          [ clean_text ]
C:\Users\Bau_M\AppData\Local\Temp/lcc1766451.o
                                          [ map_collision ]
C:\Users\Bau_M\AppData\Local\Temp/lcc1766452.o
                                          [ map_data ]
C:\Users\Bau_M\AppData\Local\Temp/lcc1766453.o
                                          [ map_00 ]
C:\Users\Bau_M\AppData\Local\Temp/lcc1766454.o
                                          [ map_00_collision ]
C:\Users\Bau_M\AppData\Local\Temp/lcc1766455.o
                                          [ map_00_init ]
C:\Users\Bau_M\AppData\Local\Temp/lcc1766456.o
                                          [ map_00_init_npc ]
C:\Users\Bau_M\AppData\Local\Temp/lcc1766457.o
                                          [ map_00_update ]
C:\Users\Bau_M\AppData\Local\Temp/lcc1766458.o
                                          [ main ]


Libraries Linked                          [ object file ]

C:\Program Files\GBDK\lib/gb/gb.lib       [ sfr.o ]
C:\Program Files\GBDK\lib/sm83/sm83.lib   [ div.o ]
C:\Program Files\GBDK\lib/sm83/sm83.lib   [ free.o ]
C:\Program Files\GBDK\lib/sm83/sm83.lib   [ malloc.o ]
C:\Program Files\GBDK\lib/gb/gb.lib       [ set_data.o ]
C:\Program Files\GBDK\lib/sm83/sm83.lib   [ mul.o ]
C:\Program Files\GBDK\lib/gb/gb.lib       [ pad.o ]
C:\Program Files\GBDK\lib/sm83/sm83.lib   [ __sdcc_call_hl.o ]
C:\Program Files\GBDK\lib/gb/gb.lib       [ heap.o ]
C:\Program Files\GBDK\lib/gb/gb.lib       [ set_bk_t.o ]
C:\Program Files\GBDK\lib/gb/gb.lib       [ set_xy_t.o ]

ASxxxx Linker V03.00/V05.40 + sdld,  page 113.

User Base Address Definitions

_DATA=0xC0A0
_CODE=0x0200
_HRAM=0xFF80
ASxxxx Linker V03.00/V05.40 + sdld,  page 114.

User Global Definitions

_shadow_OAM=0xC000
.STACK=0xE000

