ASxxxx Linker V03.00/V05.40 + sdld,  page 1.
Hexadecimal  [32-Bits]

Area                                    Addr        Size        Decimal Bytes (Attributes)
--------------------------------        ----        ----        ------- ----- ------------
.  .ABS.                            00000000    00000000 =           0. bytes (ABS,CON)

      Value  Global                              Global Defined In Module
      -----  --------------------------------   ------------------------
     00000000  .__.ABS.                           SetTileMap
     00000000  _rMBC7_SRAM_ENABLE_1               
     00000000  _rRAMG                             
     00000000  l__BASE                         
     00000000  l__BSS                          
     00000000  l__CABS                         
     00000000  l__CODE_0                       
     00000000  l__DABS                         
     00000000  l__HEADER                       
     00000000  l__LIT                          
     00000000  s__CABS                         
     00000000  s__DABS                         
     00000000  s__HEADER                       
     00000000  s__HEADER0                      
     00000000  s__HEADER1                      
     00000000  s__HEADER10                     
     00000000  s__HEADER11                     
     00000000  s__HEADER2                      
     00000000  s__HEADER3                      
     00000000  s__HEADER4                      
     00000000  s__HEADER5                      
     00000000  s__HEADER6                      
     00000000  s__HEADER7                      
     00000000  s__HEADER8                      
     00000000  s__HEADER9                      
     00000000  s__HEADERa                      
     00000000  s__HEADERb                      
     00000000  s__HEADERc                      
     00000000  s__HEADERd                      
     00000000  s__HEADERe                      
     00000000  s__HEADERf                      
     00000001  l__GSFINAL                      
     00000001  l__HEADER0                      
     00000001  l__HEADER5                      
     00000001  l__HEADERa                      
     00000001  l__HEADERb                      
     00000001  l__HEADERc                      
     00000001  l__HEADERe                      
     00000001  l__HEADERf                      
     00000001  l__HEAP_END                     
     00000002  l__HEADER10                     
     00000002  l__HEADER6                      
     00000002  l__HEADERd                      
     00000003  l__HEADER9                      
     00000005  l__HEADER1                      
     00000006  l__HEADER8                      
     00000007  l__HEADER2                      
     00000008  l__HEADER3                      
     0000000F  l__GSINIT                       
     00000013  l__HRAM                         
ASxxxx Linker V03.00/V05.40 + sdld,  page 2.
Hexadecimal  [32-Bits]

Area                                    Addr        Size        Decimal Bytes (Attributes)
--------------------------------        ----        ----        ------- ----- ------------
.  .ABS.                            00000000    00000000 =           0. bytes (ABS,CON)

      Value  Global                              Global Defined In Module
      -----  --------------------------------   ------------------------
     00000030  l__HEADER7                      
     00000060  l__HEADER4                      
     000000AB  l__HEADER11                     
     0000012C  l__HOME                         
     00000200  s__CODE                         
     00000217  l__INITIALIZED                  
     00000217  l__INITIALIZER                  
     000002C4  l__DATA                         
     0000035D  l__CODE_2                       
     000007FF  l__HEAP                         
     00001220  l__CODE_1                       
     00002000  _rROMB0                            
     00002728  l__CODE                         
     00002928  s__HOME                         
     00002A54  s__BASE                         
     00002A54  s__CODE_0                       
     00002A54  s__INITIALIZER                  
     00002A54  s__LIT                          
     00002C6B  s__GSINIT                       
     00002C7A  s__GSFINAL                      
     00003000  _rROMB1                            
     00004000  _rMBC7_SRAM_ENABLE_2               
     00004000  _rRAMB                             
     00008000  __VRAM                             
     00008000  __VRAM8000                         
     00008800  __VRAM8800                         
     00009000  __VRAM9000                         
     00009800  __SCRN0                            
     00009C00  __SCRN1                            
     0000A000  __SRAM                             
     0000A000  _rMBC7_LATCH_1                     
     0000A010  _rMBC7_LATCH_2                     
     0000A020  _rMBC7_ACCEL_X_LO                  
     0000A030  _rMBC7_ACCEL_X_HI                  
     0000A040  _rMBC7_ACCEL_Y_LO                  
     0000A050  _rMBC7_ACCEL_Y_HI                  
     0000C000  __RAM                              
     0000C000  _shadow_OAM                     
     0000C0A0  s__DATA                         
     0000C364  s__BSS                          
     0000C364  s__INITIALIZED                  
     0000C57B  s__HEAP                         
     0000CD7A  s__HEAP_END                     
     0000D000  __RAMBANK                          
     0000E000  .STACK                          
     0000FE00  __OAMRAM                           
     0000FF00  _P1_REG                            
     0000FF00  __IO                               
     0000FF01  _SB_REG                            
     0000FF02  _SC_REG                            
     0000FF04  _DIV_REG                           
ASxxxx Linker V03.00/V05.40 + sdld,  page 3.
Hexadecimal  [32-Bits]

Area                                    Addr        Size        Decimal Bytes (Attributes)
--------------------------------        ----        ----        ------- ----- ------------
.  .ABS.                            00000000    00000000 =           0. bytes (ABS,CON)

      Value  Global                              Global Defined In Module
      -----  --------------------------------   ------------------------
     0000FF05  _TIMA_REG                          
     0000FF06  _TMA_REG                           
     0000FF07  _TAC_REG                           
     0000FF0F  _IF_REG                            
     0000FF10  _NR10_REG                          
     0000FF11  _NR11_REG                          
     0000FF12  _NR12_REG                          
     0000FF13  _NR13_REG                          
     0000FF14  _NR14_REG                          
     0000FF16  _NR21_REG                          
     0000FF17  _NR22_REG                          
     0000FF18  _NR23_REG                          
     0000FF19  _NR24_REG                          
     0000FF1A  _NR30_REG                          
     0000FF1B  _NR31_REG                          
     0000FF1C  _NR32_REG                          
     0000FF1D  _NR33_REG                          
     0000FF1E  _NR34_REG                          
     0000FF20  _NR41_REG                          
     0000FF21  _NR42_REG                          
     0000FF22  _NR43_REG                          
     0000FF23  _NR44_REG                          
     0000FF24  _NR50_REG                          
     0000FF25  _NR51_REG                          
     0000FF26  _NR52_REG                          
     0000FF30  _AUD3WAVE                          
     0000FF30  _PCM_SAMPLE                        
     0000FF30  __AUD3WAVERAM                      
     0000FF40  _LCDC_REG                          
     0000FF41  _STAT_REG                          
     0000FF42  _SCY_REG                           
     0000FF43  _SCX_REG                           
     0000FF44  _LY_REG                            
     0000FF45  _LYC_REG                           
     0000FF46  _DMA_REG                           
     0000FF47  _BGP_REG                           
     0000FF48  _OBP0_REG                          
     0000FF49  _OBP1_REG                          
     0000FF4A  _WY_REG                            
     0000FF4B  _WX_REG                            
     0000FF4D  _KEY1_REG                          
     0000FF4F  _VBK_REG                           
     0000FF51  _HDMA1_REG                         
     0000FF52  _HDMA2_REG                         
     0000FF53  _HDMA3_REG                         
     0000FF54  _HDMA4_REG                         
     0000FF55  _HDMA5_REG                         
     0000FF56  _RP_REG                            
     0000FF68  _BCPS_REG                          
     0000FF69  _BCPD_REG                          
     0000FF6A  _OCPS_REG                          
ASxxxx Linker V03.00/V05.40 + sdld,  page 4.
Hexadecimal  [32-Bits]

Area                                    Addr        Size        Decimal Bytes (Attributes)
--------------------------------        ----        ----        ------- ----- ------------
.  .ABS.                            00000000    00000000 =           0. bytes (ABS,CON)

      Value  Global                              Global Defined In Module
      -----  --------------------------------   ------------------------
     0000FF6B  _OCPD_REG                          
     0000FF70  _SVBK_REG                          
     0000FF76  _PCM12_REG                         
     0000FF77  _PCM34_REG                         
     0000FF80  __HRAM                             
     0000FF80  s__HRAM                         
     0000FFFF  _IE_REG                            
     00014000  s__CODE_1                       
     00024000  s__CODE_2                       

ASxxxx Linker V03.00/V05.40 + sdld,  page 5.
Hexadecimal  [32-Bits]

Area                                    Addr        Size        Decimal Bytes (Attributes)
--------------------------------        ----        ----        ------- ----- ------------
_CODE                               00000200    00002728 =       10024. bytes (REL,CON)

      Value  Global                              Global Defined In Module
      -----  --------------------------------   ------------------------
     00000200  G$chars_tileset$0_0$0              chars
     00000200  _chars_tileset                     chars
     00000400  G$chars_tilemap$0_0$0              chars
     00000400  _chars_tilemap                     chars
     0000041F  G$numbers_tileset$0_0$0            numbers
     0000041F  _numbers_tileset                   numbers
     000004BF  G$numbers_tilemap$0_0$0            numbers
     000004BF  _numbers_tilemap                   numbers
     000004C9  G$gender_select_tilemap$0_0$0      gender_select_tilemap
     000004C9  _gender_select_tilemap             gender_select_tilemap
     00000631  G$gender_select_tileset$0_0$0      gender_select_tileset
     00000631  _gender_select_tileset             gender_select_tileset
     00000921  A$lcc76167$58                      npc_icons
     00000921  C$npc_icons.c$27$0_0$127           npc_icons
     00000921  C$npc_icons.c$28$1_0$127           npc_icons
     00000921  G$InitNPCIcons$0$0                 npc_icons
     00000921  _InitNPCIcons                      npc_icons
     00000924  A$lcc76167$59                      npc_icons
     00000925  A$lcc76167$60                      npc_icons
     00000928  A$lcc76167$61                      npc_icons
     00000929  A$lcc76167$62                      npc_icons
     0000092C  A$lcc76167$63                      npc_icons
     0000092E  A$lcc76167$71                      npc_icons
     0000092E  C$npc_icons.c$29$1_0$127           npc_icons
     0000092E  XG$InitNPCIcons$0$0                npc_icons
     0000092F  G$npc_icons_tileset$0_0$0          npc_icons
     0000092F  _npc_icons_tileset                 npc_icons
     0000098F  G$npc_icons_tilemap$0_0$0          npc_icons
     0000098F  _npc_icons_tilemap                 npc_icons
     00000995  G$spr_Branch$0_0$0                 spr_Branch
     00000995  _spr_Branch                        spr_Branch
     000009A5  A$lcc761620$59                     action
     000009A5  C$action.c$11$0_0$169              action
     000009A5  G$move_up$0$0                      action
     000009A5  _move_up                           action
     000009A7  A$lcc761620$60                     action
     000009A9  A$lcc761620$61                     action
     000009AA  A$lcc761620$65                     action
     000009AA  C$action.c$13$2_0$170              action
     000009AD  A$lcc761620$66                     action
     000009AF  A$lcc761620$70                     action
     000009AF  C$action.c$14$2_0$170              action
     000009B1  A$lcc761620$74                     action
     000009B1  C$action.c$16$1_0$169              action
     000009B3  A$lcc761620$75                     action
     000009B4  A$lcc761620$76                     action
     000009B5  A$lcc761620$77                     action
     000009B7  A$lcc761620$78                     action
     000009B8  A$lcc761620$79                     action
     000009BA  A$lcc761620$80                     action
ASxxxx Linker V03.00/V05.40 + sdld,  page 6.
Hexadecimal  [32-Bits]

Area                                    Addr        Size        Decimal Bytes (Attributes)
--------------------------------        ----        ----        ------- ----- ------------
_CODE                               00000200    00002728 =       10024. bytes (REL,CON)

      Value  Global                              Global Defined In Module
      -----  --------------------------------   ------------------------
     000009BC  A$lcc761620$81                     action
     000009BD  A$lcc761620$82                     action
     000009BE  A$lcc761620$83                     action
     000009BF  A$lcc761620$84                     action
     000009C0  A$lcc761620$85                     action
     000009C1  A$lcc761620$86                     action
     000009C2  A$lcc761620$87                     action
     000009C5  A$lcc761620$88                     action
     000009C6  A$lcc761620$89                     action
     000009C7  A$lcc761620$90                     action
     000009C8  A$lcc761620$91                     action
     000009C9  A$lcc761620$92                     action
     000009CB  A$lcc761620$93                     action
     000009CC  A$lcc761620$94                     action
     000009CD  A$lcc761620$95                     action
     000009CE  A$lcc761620$96                     action
     000009CF  A$lcc761620$97                     action
     000009D0  A$lcc761620$98                     action
     000009D1  A$lcc761620$99                     action
     000009D2  A$lcc761620$100                    action
     000009D4  A$lcc761620$101                    action
     000009D5  A$lcc761620$102                    action
     000009D6  A$lcc761620$103                    action
     000009D7  A$lcc761620$104                    action
     000009D8  A$lcc761620$105                    action
     000009D9  A$lcc761620$106                    action
     000009DA  A$lcc761620$107                    action
     000009DB  A$lcc761620$108                    action
     000009DC  A$lcc761620$109                    action
     000009DD  A$lcc761620$110                    action
     000009DE  A$lcc761620$111                    action
     000009DF  A$lcc761620$112                    action
     000009E0  A$lcc761620$113                    action
     000009E1  A$lcc761620$114                    action
     000009E2  A$lcc761620$115                    action
     000009E4  A$lcc761620$116                    action
     000009E5  A$lcc761620$117                    action
     000009E6  A$lcc761620$118                    action
     000009E7  A$lcc761620$119                    action
     000009E8  A$lcc761620$120                    action
     000009E9  A$lcc761620$124                    action
     000009E9  C$action.c$17$1_0$169              action
     000009EA  A$lcc761620$125                    action
     000009EB  A$lcc761620$126                    action
     000009EE  A$lcc761620$127                    action
     000009EF  A$lcc761620$128                    action
     000009F1  A$lcc761620$129                    action
     000009F2  A$lcc761620$130                    action
     000009F3  A$lcc761620$131                    action
     000009F4  A$lcc761620$132                    action
     000009F6  A$lcc761620$133                    action
ASxxxx Linker V03.00/V05.40 + sdld,  page 7.
Hexadecimal  [32-Bits]

Area                                    Addr        Size        Decimal Bytes (Attributes)
--------------------------------        ----        ----        ------- ----- ------------
_CODE                               00000200    00002728 =       10024. bytes (REL,CON)

      Value  Global                              Global Defined In Module
      -----  --------------------------------   ------------------------
     000009F7  A$lcc761620$134                    action
     000009F8  A$lcc761620$139                    action
     000009FA  A$lcc761620$144                    action
     000009FA  C$action.c$18$1_0$169              action
     000009FA  XG$move_up$0$0                     action
     000009FB  A$lcc761620$154                    action
     000009FB  C$action.c$20$1_0$172              action
     000009FB  G$move_down$0$0                    action
     000009FB  _move_down                         action
     000009FD  A$lcc761620$155                    action
     000009FF  A$lcc761620$156                    action
     00000A00  A$lcc761620$160                    action
     00000A00  C$action.c$22$2_0$173              action
     00000A03  A$lcc761620$161                    action
     00000A05  A$lcc761620$165                    action
     00000A05  C$action.c$23$2_0$173              action
     00000A07  A$lcc761620$169                    action
     00000A07  C$action.c$25$1_0$172              action
     00000A09  A$lcc761620$170                    action
     00000A0A  A$lcc761620$171                    action
     00000A0B  A$lcc761620$172                    action
     00000A0D  A$lcc761620$173                    action
     00000A0E  A$lcc761620$174                    action
     00000A10  A$lcc761620$175                    action
     00000A12  A$lcc761620$176                    action
     00000A13  A$lcc761620$177                    action
     00000A14  A$lcc761620$178                    action
     00000A15  A$lcc761620$179                    action
     00000A16  A$lcc761620$180                    action
     00000A17  A$lcc761620$181                    action
     00000A18  A$lcc761620$182                    action
     00000A1B  A$lcc761620$183                    action
     00000A1C  A$lcc761620$184                    action
     00000A1D  A$lcc761620$185                    action
     00000A1E  A$lcc761620$186                    action
     00000A1F  A$lcc761620$187                    action
     00000A21  A$lcc761620$188                    action
     00000A22  A$lcc761620$189                    action
     00000A23  A$lcc761620$190                    action
     00000A24  A$lcc761620$191                    action
     00000A25  A$lcc761620$192                    action
     00000A26  A$lcc761620$193                    action
     00000A27  A$lcc761620$194                    action
     00000A28  A$lcc761620$195                    action
     00000A2A  A$lcc761620$196                    action
     00000A2B  A$lcc761620$197                    action
     00000A2C  A$lcc761620$198                    action
     00000A2D  A$lcc761620$199                    action
     00000A2E  A$lcc761620$200                    action
     00000A2F  A$lcc761620$201                    action
     00000A30  A$lcc761620$202                    action
ASxxxx Linker V03.00/V05.40 + sdld,  page 8.
Hexadecimal  [32-Bits]

Area                                    Addr        Size        Decimal Bytes (Attributes)
--------------------------------        ----        ----        ------- ----- ------------
_CODE                               00000200    00002728 =       10024. bytes (REL,CON)

      Value  Global                              Global Defined In Module
      -----  --------------------------------   ------------------------
     00000A31  A$lcc761620$203                    action
     00000A32  A$lcc761620$204                    action
     00000A33  A$lcc761620$205                    action
     00000A34  A$lcc761620$206                    action
     00000A35  A$lcc761620$207                    action
     00000A36  A$lcc761620$208                    action
     00000A37  A$lcc761620$209                    action
     00000A38  A$lcc761620$210                    action
     00000A39  A$lcc761620$211                    action
     00000A3A  A$lcc761620$212                    action
     00000A3B  A$lcc761620$216                    action
     00000A3B  C$action.c$26$1_0$172              action
     00000A3E  A$lcc761620$217                    action
     00000A40  A$lcc761620$218                    action
     00000A41  A$lcc761620$219                    action
     00000A43  A$lcc761620$220                    action
     00000A44  A$lcc761620$221                    action
     00000A45  A$lcc761620$222                    action
     00000A46  A$lcc761620$223                    action
     00000A47  A$lcc761620$224                    action
     00000A48  A$lcc761620$229                    action
     00000A4A  A$lcc761620$234                    action
     00000A4A  C$action.c$27$1_0$172              action
     00000A4A  XG$move_down$0$0                   action
     00000A4B  A$lcc761620$244                    action
     00000A4B  C$action.c$29$1_0$175              action
     00000A4B  G$move_left$0$0                    action
     00000A4B  _move_left                         action
     00000A4D  A$lcc761620$245                    action
     00000A4F  A$lcc761620$246                    action
     00000A50  A$lcc761620$250                    action
     00000A50  C$action.c$31$2_0$176              action
     00000A53  A$lcc761620$251                    action
     00000A55  A$lcc761620$255                    action
     00000A55  C$action.c$32$2_0$176              action
     00000A57  A$lcc761620$259                    action
     00000A57  C$action.c$34$1_0$175              action
     00000A59  A$lcc761620$260                    action
     00000A5A  A$lcc761620$261                    action
     00000A5B  A$lcc761620$262                    action
     00000A5D  A$lcc761620$263                    action
     00000A5E  A$lcc761620$264                    action
     00000A60  A$lcc761620$265                    action
     00000A62  A$lcc761620$266                    action
     00000A63  A$lcc761620$267                    action
     00000A64  A$lcc761620$268                    action
     00000A65  A$lcc761620$269                    action
     00000A66  A$lcc761620$270                    action
     00000A67  A$lcc761620$271                    action
     00000A68  A$lcc761620$272                    action
     00000A6B  A$lcc761620$273                    action
ASxxxx Linker V03.00/V05.40 + sdld,  page 9.
Hexadecimal  [32-Bits]

Area                                    Addr        Size        Decimal Bytes (Attributes)
--------------------------------        ----        ----        ------- ----- ------------
_CODE                               00000200    00002728 =       10024. bytes (REL,CON)

      Value  Global                              Global Defined In Module
      -----  --------------------------------   ------------------------
     00000A6C  A$lcc761620$274                    action
     00000A6D  A$lcc761620$275                    action
     00000A6E  A$lcc761620$276                    action
     00000A6F  A$lcc761620$277                    action
     00000A71  A$lcc761620$278                    action
     00000A72  A$lcc761620$279                    action
     00000A73  A$lcc761620$280                    action
     00000A74  A$lcc761620$281                    action
     00000A75  A$lcc761620$282                    action
     00000A76  A$lcc761620$283                    action
     00000A77  A$lcc761620$284                    action
     00000A78  A$lcc761620$285                    action
     00000A7A  A$lcc761620$286                    action
     00000A7B  A$lcc761620$287                    action
     00000A7C  A$lcc761620$288                    action
     00000A7D  A$lcc761620$289                    action
     00000A7E  A$lcc761620$290                    action
     00000A7F  A$lcc761620$291                    action
     00000A80  A$lcc761620$292                    action
     00000A81  A$lcc761620$293                    action
     00000A82  A$lcc761620$294                    action
     00000A83  A$lcc761620$295                    action
     00000A84  A$lcc761620$296                    action
     00000A85  A$lcc761620$297                    action
     00000A86  A$lcc761620$298                    action
     00000A87  A$lcc761620$299                    action
     00000A88  A$lcc761620$300                    action
     00000A8A  A$lcc761620$301                    action
     00000A8B  A$lcc761620$302                    action
     00000A8C  A$lcc761620$303                    action
     00000A8D  A$lcc761620$304                    action
     00000A8E  A$lcc761620$305                    action
     00000A8F  A$lcc761620$309                    action
     00000A8F  C$action.c$35$1_0$175              action
     00000A90  A$lcc761620$310                    action
     00000A91  A$lcc761620$311                    action
     00000A94  A$lcc761620$312                    action
     00000A95  A$lcc761620$313                    action
     00000A97  A$lcc761620$314                    action
     00000A98  A$lcc761620$315                    action
     00000A99  A$lcc761620$316                    action
     00000A9A  A$lcc761620$317                    action
     00000A9C  A$lcc761620$318                    action
     00000A9D  A$lcc761620$319                    action
     00000A9E  A$lcc761620$324                    action
     00000AA0  A$lcc761620$329                    action
     00000AA0  C$action.c$36$1_0$175              action
     00000AA0  XG$move_left$0$0                   action
     00000AA1  A$lcc761620$339                    action
     00000AA1  C$action.c$38$1_0$178              action
     00000AA1  G$move_right$0$0                   action
ASxxxx Linker V03.00/V05.40 + sdld,  page 10.
Hexadecimal  [32-Bits]

Area                                    Addr        Size        Decimal Bytes (Attributes)
--------------------------------        ----        ----        ------- ----- ------------
_CODE                               00000200    00002728 =       10024. bytes (REL,CON)

      Value  Global                              Global Defined In Module
      -----  --------------------------------   ------------------------
     00000AA1  _move_right                        action
     00000AA3  A$lcc761620$340                    action
     00000AA5  A$lcc761620$341                    action
     00000AA6  A$lcc761620$345                    action
     00000AA6  C$action.c$40$2_0$179              action
     00000AA9  A$lcc761620$346                    action
     00000AAB  A$lcc761620$350                    action
     00000AAB  C$action.c$41$2_0$179              action
     00000AAD  A$lcc761620$354                    action
     00000AAD  C$action.c$43$1_0$178              action
     00000AAF  A$lcc761620$355                    action
     00000AB0  A$lcc761620$356                    action
     00000AB1  A$lcc761620$357                    action
     00000AB3  A$lcc761620$358                    action
     00000AB4  A$lcc761620$359                    action
     00000AB6  A$lcc761620$360                    action
     00000AB8  A$lcc761620$361                    action
     00000AB9  A$lcc761620$362                    action
     00000ABA  A$lcc761620$363                    action
     00000ABB  A$lcc761620$364                    action
     00000ABC  A$lcc761620$365                    action
     00000ABD  A$lcc761620$366                    action
     00000ABE  A$lcc761620$367                    action
     00000AC1  A$lcc761620$368                    action
     00000AC2  A$lcc761620$369                    action
     00000AC3  A$lcc761620$370                    action
     00000AC4  A$lcc761620$371                    action
     00000AC5  A$lcc761620$372                    action
     00000AC7  A$lcc761620$373                    action
     00000AC8  A$lcc761620$374                    action
     00000AC9  A$lcc761620$375                    action
     00000ACA  A$lcc761620$376                    action
     00000ACB  A$lcc761620$377                    action
     00000ACC  A$lcc761620$378                    action
     00000ACD  A$lcc761620$379                    action
     00000ACE  A$lcc761620$380                    action
     00000AD0  A$lcc761620$381                    action
     00000AD1  A$lcc761620$382                    action
     00000AD2  A$lcc761620$383                    action
     00000AD3  A$lcc761620$384                    action
     00000AD4  A$lcc761620$385                    action
     00000AD5  A$lcc761620$386                    action
     00000AD6  A$lcc761620$387                    action
     00000AD7  A$lcc761620$388                    action
     00000AD8  A$lcc761620$389                    action
     00000AD9  A$lcc761620$390                    action
     00000ADA  A$lcc761620$391                    action
     00000ADB  A$lcc761620$392                    action
     00000ADC  A$lcc761620$393                    action
     00000ADD  A$lcc761620$394                    action
     00000ADE  A$lcc761620$395                    action
ASxxxx Linker V03.00/V05.40 + sdld,  page 11.
Hexadecimal  [32-Bits]

Area                                    Addr        Size        Decimal Bytes (Attributes)
--------------------------------        ----        ----        ------- ----- ------------
_CODE                               00000200    00002728 =       10024. bytes (REL,CON)

      Value  Global                              Global Defined In Module
      -----  --------------------------------   ------------------------
     00000ADF  A$lcc761620$396                    action
     00000AE0  A$lcc761620$397                    action
     00000AE1  A$lcc761620$401                    action
     00000AE1  C$action.c$44$1_0$178              action
     00000AE2  A$lcc761620$402                    action
     00000AE5  A$lcc761620$403                    action
     00000AE7  A$lcc761620$404                    action
     00000AE8  A$lcc761620$405                    action
     00000AEA  A$lcc761620$406                    action
     00000AEB  A$lcc761620$407                    action
     00000AEC  A$lcc761620$408                    action
     00000AED  A$lcc761620$409                    action
     00000AEE  A$lcc761620$410                    action
     00000AEF  A$lcc761620$411                    action
     00000AF0  A$lcc761620$416                    action
     00000AF2  A$lcc761620$421                    action
     00000AF2  C$action.c$45$1_0$178              action
     00000AF2  XG$move_right$0$0                  action
     00000AF3  A$lcc761621$59                     animation
     00000AF3  C$animation.c$7$0_0$137            animation
     00000AF3  G$init_animation$0$0               animation
     00000AF3  _init_animation                    animation
     00000AF5  A$lcc761621$60                     animation
     00000AF7  A$lcc761621$61                     animation
     00000AF8  A$lcc761621$62                     animation
     00000AF9  A$lcc761621$63                     animation
     00000AFA  A$lcc761621$64                     animation
     00000AFB  A$lcc761621$65                     animation
     00000AFC  A$lcc761621$69                     animation
     00000AFC  C$animation.c$12$1_0$137           animation
     00000AFE  A$lcc761621$70                     animation
     00000AFF  A$lcc761621$71                     animation
     00000B00  A$lcc761621$72                     animation
     00000B01  A$lcc761621$73                     animation
     00000B02  A$lcc761621$74                     animation
     00000B03  A$lcc761621$75                     animation
     00000B04  A$lcc761621$76                     animation
     00000B06  A$lcc761621$77                     animation
     00000B08  A$lcc761621$78                     animation
     00000B09  A$lcc761621$79                     animation
     00000B0A  A$lcc761621$80                     animation
     00000B0B  A$lcc761621$81                     animation
     00000B0C  A$lcc761621$82                     animation
     00000B0D  A$lcc761621$83                     animation
     00000B0E  A$lcc761621$87                     animation
     00000B0E  C$animation.c$14$1_0$137           animation
     00000B0F  A$lcc761621$88                     animation
     00000B10  A$lcc761621$89                     animation
     00000B11  A$lcc761621$90                     animation
     00000B13  A$lcc761621$91                     animation
     00000B14  A$lcc761621$92                     animation
ASxxxx Linker V03.00/V05.40 + sdld,  page 12.
Hexadecimal  [32-Bits]

Area                                    Addr        Size        Decimal Bytes (Attributes)
--------------------------------        ----        ----        ------- ----- ------------
_CODE                               00000200    00002728 =       10024. bytes (REL,CON)

      Value  Global                              Global Defined In Module
      -----  --------------------------------   ------------------------
     00000B15  A$lcc761621$96                     animation
     00000B15  C$animation.c$15$1_0$137           animation
     00000B16  A$lcc761621$97                     animation
     00000B17  A$lcc761621$98                     animation
     00000B18  A$lcc761621$99                     animation
     00000B19  A$lcc761621$100                    animation
     00000B1A  A$lcc761621$101                    animation
     00000B1B  A$lcc761621$102                    animation
     00000B1D  A$lcc761621$103                    animation
     00000B1E  A$lcc761621$104                    animation
     00000B1F  A$lcc761621$105                    animation
     00000B20  A$lcc761621$109                    animation
     00000B20  C$animation.c$16$1_0$137           animation
     00000B23  A$lcc761621$110                    animation
     00000B24  A$lcc761621$111                    animation
     00000B26  A$lcc761621$115                    animation
     00000B26  C$animation.c$17$1_0$137           animation
     00000B27  A$lcc761621$116                    animation
     00000B28  A$lcc761621$117                    animation
     00000B29  A$lcc761621$118                    animation
     00000B2A  A$lcc761621$119                    animation
     00000B2C  A$lcc761621$123                    animation
     00000B2C  C$animation.c$18$1_0$137           animation
     00000B2F  A$lcc761621$124                    animation
     00000B30  A$lcc761621$125                    animation
     00000B31  A$lcc761621$126                    animation
     00000B33  A$lcc761621$127                    animation
     00000B34  A$lcc761621$128                    animation
     00000B35  A$lcc761621$129                    animation
     00000B36  A$lcc761621$133                    animation
     00000B36  C$animation.c$21$1_0$137           animation
     00000B37  A$lcc761621$134                    animation
     00000B38  A$lcc761621$135                    animation
     00000B39  A$lcc761621$136                    animation
     00000B3A  A$lcc761621$137                    animation
     00000B3C  A$lcc761621$138                    animation
     00000B3D  A$lcc761621$139                    animation
     00000B3E  A$lcc761621$140                    animation
     00000B3F  A$lcc761621$141                    animation
     00000B40  A$lcc761621$142                    animation
     00000B43  A$lcc761621$143                    animation
     00000B44  A$lcc761621$144                    animation
     00000B45  A$lcc761621$145                    animation
     00000B46  A$lcc761621$146                    animation
     00000B48  A$lcc761621$147                    animation
     00000B49  A$lcc761621$148                    animation
     00000B4A  A$lcc761621$149                    animation
     00000B4B  A$lcc761621$150                    animation
     00000B4D  A$lcc761621$151                    animation
     00000B4E  A$lcc761621$152                    animation
     00000B51  A$lcc761621$153                    animation
ASxxxx Linker V03.00/V05.40 + sdld,  page 13.
Hexadecimal  [32-Bits]

Area                                    Addr        Size        Decimal Bytes (Attributes)
--------------------------------        ----        ----        ------- ----- ------------
_CODE                               00000200    00002728 =       10024. bytes (REL,CON)

      Value  Global                              Global Defined In Module
      -----  --------------------------------   ------------------------
     00000B52  A$lcc761621$154                    animation
     00000B53  A$lcc761621$155                    animation
     00000B54  A$lcc761621$156                    animation
     00000B55  A$lcc761621$160                    animation
     00000B55  C$animation.c$24$2_0$137           animation
     00000B57  A$lcc761621$162                    animation
     00000B58  A$lcc761621$163                    animation
     00000B59  A$lcc761621$164                    animation
     00000B5A  A$lcc761621$165                    animation
     00000B5B  A$lcc761621$166                    animation
     00000B5D  A$lcc761621$167                    animation
     00000B5E  A$lcc761621$168                    animation
     00000B60  A$lcc761621$173                    animation
     00000B60  C$animation.c$32$2_0$140           animation
     00000B62  A$lcc761621$174                    animation
     00000B63  A$lcc761621$175                    animation
     00000B64  A$lcc761621$176                    animation
     00000B65  A$lcc761621$177                    animation
     00000B68  A$lcc761621$178                    animation
     00000B69  A$lcc761621$179                    animation
     00000B6A  A$lcc761621$180                    animation
     00000B6B  A$lcc761621$181                    animation
     00000B6C  A$lcc761621$182                    animation
     00000B6D  A$lcc761621$183                    animation
     00000B6F  A$lcc761621$187                    animation
     00000B6F  C$animation.c$33$2_0$140           animation
     00000B71  A$lcc761621$188                    animation
     00000B72  A$lcc761621$189                    animation
     00000B73  A$lcc761621$194                    animation
     00000B73  C$animation.c$34$2_0$137           animation
     00000B75  A$lcc761621$195                    animation
     00000B76  A$lcc761621$196                    animation
     00000B78  A$lcc761621$197                    animation
     00000B79  A$lcc761621$207                    animation
     00000B79  C$animation.c$36$2_0$142           animation
     00000B79  G$update_animation$0$0             animation
     00000B79  _update_animation                  animation
     00000B7A  A$lcc761621$208                    animation
     00000B7B  A$lcc761621$209                    animation
     00000B7C  A$lcc761621$210                    animation
     00000B7D  A$lcc761621$214                    animation
     00000B7D  C$animation.c$38$1_0$142           animation
     00000B80  A$lcc761621$215                    animation
     00000B81  A$lcc761621$216                    animation
     00000B82  A$lcc761621$217                    animation
     00000B83  A$lcc761621$218                    animation
     00000B84  A$lcc761621$219                    animation
     00000B85  A$lcc761621$220                    animation
     00000B86  A$lcc761621$221                    animation
     00000B87  A$lcc761621$222                    animation
     00000B88  A$lcc761621$223                    animation
ASxxxx Linker V03.00/V05.40 + sdld,  page 14.
Hexadecimal  [32-Bits]

Area                                    Addr        Size        Decimal Bytes (Attributes)
--------------------------------        ----        ----        ------- ----- ------------
_CODE                               00000200    00002728 =       10024. bytes (REL,CON)

      Value  Global                              Global Defined In Module
      -----  --------------------------------   ------------------------
     00000B8A  A$lcc761621$224                    animation
     00000B8B  A$lcc761621$225                    animation
     00000B8C  A$lcc761621$229                    animation
     00000B8C  C$animation.c$40$1_0$142           animation
     00000B8F  A$lcc761621$230                    animation
     00000B90  A$lcc761621$231                    animation
     00000B91  A$lcc761621$232                    animation
     00000B92  A$lcc761621$233                    animation
     00000B93  A$lcc761621$234                    animation
     00000B94  A$lcc761621$235                    animation
     00000B96  A$lcc761621$236                    animation
     00000B97  A$lcc761621$237                    animation
     00000B98  A$lcc761621$241                    animation
     00000B98  C$animation.c$41$2_0$143           animation
     00000B99  A$lcc761621$242                    animation
     00000B9A  A$lcc761621$243                    animation
     00000B9B  A$lcc761621$244                    animation
     00000B9C  A$lcc761621$245                    animation
     00000B9D  A$lcc761621$246                    animation
     00000B9E  A$lcc761621$247                    animation
     00000BA0  A$lcc761621$248                    animation
     00000BA1  A$lcc761621$249                    animation
     00000BA3  A$lcc761621$250                    animation
     00000BA4  A$lcc761621$251                    animation
     00000BA5  A$lcc761621$252                    animation
     00000BA7  A$lcc761621$256                    animation
     00000BA7  C$animation.c$43$3_0$144           animation
     00000BA8  A$lcc761621$257                    animation
     00000BA9  A$lcc761621$261                    animation
     00000BA9  C$animation.c$44$3_0$144           animation
     00000BAA  A$lcc761621$262                    animation
     00000BAB  A$lcc761621$263                    animation
     00000BAC  A$lcc761621$264                    animation
     00000BAD  A$lcc761621$265                    animation
     00000BAE  A$lcc761621$266                    animation
     00000BAF  A$lcc761621$270                    animation
     00000BAF  C$animation.c$45$4_0$145           animation
     00000BB0  A$lcc761621$271                    animation
     00000BB1  A$lcc761621$272                    animation
     00000BB2  A$lcc761621$273                    animation
     00000BB3  A$lcc761621$274                    animation
     00000BB4  A$lcc761621$275                    animation
     00000BB6  A$lcc761621$279                    animation
     00000BB6  C$animation.c$46$4_0$145           animation
     00000BB8  A$lcc761621$284                    animation
     00000BB9  A$lcc761621$285                    animation
     00000BBA  A$lcc761621$290                    animation
     00000BBA  C$animation.c$48$2_0$142           animation
     00000BBA  XG$update_animation$0$0            animation
     00000BBB  A$lcc761621$300                    animation
     00000BBB  C$animation.c$50$2_0$147           animation
ASxxxx Linker V03.00/V05.40 + sdld,  page 15.
Hexadecimal  [32-Bits]

Area                                    Addr        Size        Decimal Bytes (Attributes)
--------------------------------        ----        ----        ------- ----- ------------
_CODE                               00000200    00002728 =       10024. bytes (REL,CON)

      Value  Global                              Global Defined In Module
      -----  --------------------------------   ------------------------
     00000BBB  G$set_animation$0$0                animation
     00000BBB  _set_animation                     animation
     00000BBC  A$lcc761621$301                    animation
     00000BBD  A$lcc761621$302                    animation
     00000BBE  A$lcc761621$306                    animation
     00000BBE  C$animation.c$52$2_0$148           animation
     00000BBF  A$lcc761621$307                    animation
     00000BC1  A$lcc761621$308                    animation
     00000BC2  A$lcc761621$309                    animation
     00000BC3  A$lcc761621$310                    animation
     00000BC5  A$lcc761621$311                    animation
     00000BC6  A$lcc761621$312                    animation
     00000BC7  A$lcc761621$313                    animation
     00000BC8  A$lcc761621$314                    animation
     00000BC9  A$lcc761621$321                    animation
     00000BC9  C$animation.c$53$2_0$148           animation
     00000BC9  C$animation.c$55$1_0$147           animation
     00000BCA  A$lcc761621$322                    animation
     00000BCB  A$lcc761621$326                    animation
     00000BCB  C$animation.c$56$1_1$149           animation
     00000BCC  A$lcc761621$327                    animation
     00000BCD  A$lcc761621$328                    animation
     00000BCE  A$lcc761621$329                    animation
     00000BCF  A$lcc761621$330                    animation
     00000BD1  A$lcc761621$331                    animation
     00000BD2  A$lcc761621$335                    animation
     00000BD2  C$animation.c$57$1_1$149           animation
     00000BD3  A$lcc761621$336                    animation
     00000BD4  A$lcc761621$337                    animation
     00000BD5  A$lcc761621$338                    animation
     00000BD6  A$lcc761621$339                    animation
     00000BD7  A$lcc761621$340                    animation
     00000BD8  A$lcc761621$344                    animation
     00000BD8  C$animation.c$58$1_1$149           animation
     00000BDB  A$lcc761621$345                    animation
     00000BDC  A$lcc761621$346                    animation
     00000BDE  A$lcc761621$354                    animation
     00000BDE  C$animation.c$59$1_1$147           animation
     00000BDE  XG$set_animation$0$0               animation
     00000BDF  A$lcc761623$52                     char_to_tile
     00000BDF  C$char_to_tile.c$3$0_0$3           char_to_tile
     00000BDF  G$char_to_tile$0$0                 char_to_tile
     00000BDF  _char_to_tile                      char_to_tile
     00000BE1  A$lcc761623$53                     char_to_tile
     00000BE3  A$lcc761623$54                     char_to_tile
     00000BE4  A$lcc761623$58                     char_to_tile
     00000BE4  C$char_to_tile.c$4$2_0$3           char_to_tile
     00000BE6  A$lcc761623$59                     char_to_tile
     00000BE8  A$lcc761623$60                     char_to_tile
     00000BE9  A$lcc761623$61                     char_to_tile
     00000BEB  A$lcc761623$62                     char_to_tile
ASxxxx Linker V03.00/V05.40 + sdld,  page 16.
Hexadecimal  [32-Bits]

Area                                    Addr        Size        Decimal Bytes (Attributes)
--------------------------------        ----        ----        ------- ----- ------------
_CODE                               00000200    00002728 =       10024. bytes (REL,CON)

      Value  Global                              Global Defined In Module
      -----  --------------------------------   ------------------------
     00000BEC  A$lcc761623$63                     char_to_tile
     00000BEE  A$lcc761623$64                     char_to_tile
     00000BEF  A$lcc761623$65                     char_to_tile
     00000BF1  A$lcc761623$66                     char_to_tile
     00000BF2  A$lcc761623$67                     char_to_tile
     00000BF4  A$lcc761623$68                     char_to_tile
     00000BF5  A$lcc761623$69                     char_to_tile
     00000BF7  A$lcc761623$70                     char_to_tile
     00000BF8  A$lcc761623$71                     char_to_tile
     00000BFA  A$lcc761623$72                     char_to_tile
     00000BFB  A$lcc761623$73                     char_to_tile
     00000BFD  A$lcc761623$74                     char_to_tile
     00000BFE  A$lcc761623$75                     char_to_tile
     00000C00  A$lcc761623$76                     char_to_tile
     00000C01  A$lcc761623$77                     char_to_tile
     00000C03  A$lcc761623$78                     char_to_tile
     00000C04  A$lcc761623$79                     char_to_tile
     00000C06  A$lcc761623$80                     char_to_tile
     00000C07  A$lcc761623$81                     char_to_tile
     00000C09  A$lcc761623$82                     char_to_tile
     00000C0A  A$lcc761623$83                     char_to_tile
     00000C0C  A$lcc761623$84                     char_to_tile
     00000C0D  A$lcc761623$85                     char_to_tile
     00000C0F  A$lcc761623$86                     char_to_tile
     00000C10  A$lcc761623$87                     char_to_tile
     00000C12  A$lcc761623$88                     char_to_tile
     00000C13  A$lcc761623$89                     char_to_tile
     00000C15  A$lcc761623$90                     char_to_tile
     00000C16  A$lcc761623$91                     char_to_tile
     00000C18  A$lcc761623$92                     char_to_tile
     00000C19  A$lcc761623$93                     char_to_tile
     00000C1B  A$lcc761623$94                     char_to_tile
     00000C1C  A$lcc761623$95                     char_to_tile
     00000C1E  A$lcc761623$96                     char_to_tile
     00000C1F  A$lcc761623$97                     char_to_tile
     00000C21  A$lcc761623$98                     char_to_tile
     00000C22  A$lcc761623$99                     char_to_tile
     00000C24  A$lcc761623$100                    char_to_tile
     00000C25  A$lcc761623$101                    char_to_tile
     00000C27  A$lcc761623$102                    char_to_tile
     00000C28  A$lcc761623$103                    char_to_tile
     00000C2A  A$lcc761623$104                    char_to_tile
     00000C2B  A$lcc761623$105                    char_to_tile
     00000C2D  A$lcc761623$106                    char_to_tile
     00000C2E  A$lcc761623$107                    char_to_tile
     00000C30  A$lcc761623$108                    char_to_tile
     00000C31  A$lcc761623$109                    char_to_tile
     00000C33  A$lcc761623$110                    char_to_tile
     00000C34  A$lcc761623$111                    char_to_tile
     00000C36  A$lcc761623$112                    char_to_tile
     00000C37  A$lcc761623$113                    char_to_tile
ASxxxx Linker V03.00/V05.40 + sdld,  page 17.
Hexadecimal  [32-Bits]

Area                                    Addr        Size        Decimal Bytes (Attributes)
--------------------------------        ----        ----        ------- ----- ------------
_CODE                               00000200    00002728 =       10024. bytes (REL,CON)

      Value  Global                              Global Defined In Module
      -----  --------------------------------   ------------------------
     00000C39  A$lcc761623$114                    char_to_tile
     00000C3A  A$lcc761623$115                    char_to_tile
     00000C3C  A$lcc761623$116                    char_to_tile
     00000C3D  A$lcc761623$117                    char_to_tile
     00000C3F  A$lcc761623$118                    char_to_tile
     00000C40  A$lcc761623$119                    char_to_tile
     00000C42  A$lcc761623$120                    char_to_tile
     00000C43  A$lcc761623$124                    char_to_tile
     00000C43  C$char_to_tile.c$5$3_0$4           char_to_tile
     00000C44  A$lcc761623$125                    char_to_tile
     00000C45  A$lcc761623$126                    char_to_tile
     00000C46  A$lcc761623$127                    char_to_tile
     00000C47  A$lcc761623$128                    char_to_tile
     00000C4A  A$lcc761623$130                    char_to_tile
     00000C4B  A$lcc761623$131                    char_to_tile
     00000C4D  A$lcc761623$132                    char_to_tile
     00000C4F  A$lcc761623$136                    char_to_tile
     00000C4F  C$char_to_tile.c$6$4_0$6           char_to_tile
     00000C52  A$lcc761623$137                    char_to_tile
     00000C53  A$lcc761623$138                    char_to_tile
     00000C54  A$lcc761623$139                    char_to_tile
     00000C55  A$lcc761623$140                    char_to_tile
     00000C57  A$lcc761623$141                    char_to_tile
     00000C58  A$lcc761623$142                    char_to_tile
     00000C59  A$lcc761623$143                    char_to_tile
     00000C5B  A$lcc761623$147                    char_to_tile
     00000C5B  C$char_to_tile.c$7$5_0$7           char_to_tile
     00000C5D  A$lcc761623$148                    char_to_tile
     00000C5E  A$lcc761623$149                    char_to_tile
     00000C60  A$lcc761623$150                    char_to_tile
     00000C61  A$lcc761623$151                    char_to_tile
     00000C63  A$lcc761623$156                    char_to_tile
     00000C63  C$char_to_tile.c$5$2_0$4           char_to_tile
     00000C64  A$lcc761623$157                    char_to_tile
     00000C66  A$lcc761623$158                    char_to_tile
     00000C67  A$lcc761623$159                    char_to_tile
     00000C68  A$lcc761623$160                    char_to_tile
     00000C69  A$lcc761623$161                    char_to_tile
     00000C6B  A$lcc761623$166                    char_to_tile
     00000C6B  C$char_to_tile.c$11$1_0$3          char_to_tile
     00000C6E  A$lcc761623$171                    char_to_tile
     00000C70  A$lcc761623$176                    char_to_tile
     00000C70  C$char_to_tile.c$12$1_0$3          char_to_tile
     00000C70  XG$char_to_tile$0$0                char_to_tile
     00000C71  A$lcc761624$52                     collision
     00000C71  C$collision.c$3$0_0$3              collision
     00000C71  G$check_collision$0$0              collision
     00000C71  _check_collision                   collision
     00000C73  A$lcc761624$53                     collision
     00000C74  A$lcc761624$54                     collision
     00000C76  A$lcc761624$55                     collision
ASxxxx Linker V03.00/V05.40 + sdld,  page 18.
Hexadecimal  [32-Bits]

Area                                    Addr        Size        Decimal Bytes (Attributes)
--------------------------------        ----        ----        ------- ----- ------------
_CODE                               00000200    00002728 =       10024. bytes (REL,CON)

      Value  Global                              Global Defined In Module
      -----  --------------------------------   ------------------------
     00000C77  A$lcc761624$59                     collision
     00000C77  C$collision.c$8$1_0$3              collision
     00000C79  A$lcc761624$60                     collision
     00000C7A  A$lcc761624$61                     collision
     00000C7C  A$lcc761624$62                     collision
     00000C7D  A$lcc761624$63                     collision
     00000C7F  A$lcc761624$64                     collision
     00000C81  A$lcc761624$65                     collision
     00000C82  A$lcc761624$66                     collision
     00000C84  A$lcc761624$67                     collision
     00000C85  A$lcc761624$68                     collision
     00000C86  A$lcc761624$69                     collision
     00000C87  A$lcc761624$70                     collision
     00000C88  A$lcc761624$71                     collision
     00000C89  A$lcc761624$72                     collision
     00000C8A  A$lcc761624$73                     collision
     00000C8B  A$lcc761624$74                     collision
     00000C8C  A$lcc761624$75                     collision
     00000C8D  A$lcc761624$76                     collision
     00000C8E  A$lcc761624$77                     collision
     00000C8F  A$lcc761624$78                     collision
     00000C91  A$lcc761624$79                     collision
     00000C92  A$lcc761624$80                     collision
     00000C93  A$lcc761624$81                     collision
     00000C94  A$lcc761624$82                     collision
     00000C96  A$lcc761624$83                     collision
     00000C97  A$lcc761624$84                     collision
     00000C99  A$lcc761624$85                     collision
     00000C9A  A$lcc761624$86                     collision
     00000C9B  A$lcc761624$87                     collision
     00000C9C  A$lcc761624$88                     collision
     00000C9D  A$lcc761624$89                     collision
     00000C9E  A$lcc761624$90                     collision
     00000CA0  A$lcc761624$94                     collision
     00000CA0  C$collision.c$9$1_0$3              collision
     00000CA1  A$lcc761624$95                     collision
     00000CA2  A$lcc761624$96                     collision
     00000CA3  A$lcc761624$97                     collision
     00000CA4  A$lcc761624$98                     collision
     00000CA5  A$lcc761624$99                     collision
     00000CA7  A$lcc761624$100                    collision
     00000CA8  A$lcc761624$101                    collision
     00000CA9  A$lcc761624$102                    collision
     00000CAA  A$lcc761624$103                    collision
     00000CAB  A$lcc761624$104                    collision
     00000CAD  A$lcc761624$108                    collision
     00000CAD  C$collision.c$10$1_0$3             collision
     00000CAF  A$lcc761624$109                    collision
     00000CB0  A$lcc761624$110                    collision
     00000CB2  A$lcc761624$111                    collision
     00000CB3  A$lcc761624$112                    collision
ASxxxx Linker V03.00/V05.40 + sdld,  page 19.
Hexadecimal  [32-Bits]

Area                                    Addr        Size        Decimal Bytes (Attributes)
--------------------------------        ----        ----        ------- ----- ------------
_CODE                               00000200    00002728 =       10024. bytes (REL,CON)

      Value  Global                              Global Defined In Module
      -----  --------------------------------   ------------------------
     00000CB4  A$lcc761624$113                    collision
     00000CB5  A$lcc761624$114                    collision
     00000CB6  A$lcc761624$115                    collision
     00000CB7  A$lcc761624$116                    collision
     00000CB8  A$lcc761624$117                    collision
     00000CB9  A$lcc761624$118                    collision
     00000CBA  A$lcc761624$119                    collision
     00000CBB  A$lcc761624$120                    collision
     00000CBC  A$lcc761624$121                    collision
     00000CBD  A$lcc761624$122                    collision
     00000CBF  A$lcc761624$123                    collision
     00000CC0  A$lcc761624$124                    collision
     00000CC1  A$lcc761624$125                    collision
     00000CC2  A$lcc761624$126                    collision
     00000CC4  A$lcc761624$127                    collision
     00000CC5  A$lcc761624$128                    collision
     00000CC6  A$lcc761624$129                    collision
     00000CC7  A$lcc761624$130                    collision
     00000CC8  A$lcc761624$131                    collision
     00000CCA  A$lcc761624$132                    collision
     00000CCB  A$lcc761624$133                    collision
     00000CCC  A$lcc761624$134                    collision
     00000CCD  A$lcc761624$135                    collision
     00000CCE  A$lcc761624$136                    collision
     00000CCF  A$lcc761624$137                    collision
     00000CD1  A$lcc761624$141                    collision
     00000CD1  C$collision.c$11$1_0$3             collision
     00000CD2  A$lcc761624$142                    collision
     00000CD3  A$lcc761624$143                    collision
     00000CD4  A$lcc761624$144                    collision
     00000CD5  A$lcc761624$145                    collision
     00000CD6  A$lcc761624$146                    collision
     00000CD8  A$lcc761624$147                    collision
     00000CD9  A$lcc761624$148                    collision
     00000CDA  A$lcc761624$149                    collision
     00000CDB  A$lcc761624$150                    collision
     00000CDC  A$lcc761624$151                    collision
     00000CDE  A$lcc761624$153                    collision
     00000CDF  A$lcc761624$154                    collision
     00000CE1  A$lcc761624$156                    collision
     00000CE3  A$lcc761624$161                    collision
     00000CE3  C$collision.c$12$1_0$3             collision
     00000CE5  A$lcc761624$162                    collision
     00000CE6  A$lcc761624$163                    collision
     00000CE8  A$lcc761624$164                    collision
     00000CE9  A$lcc761625$53                     draw
     00000CE9  C$draw.c$7$0_0$139                 draw
     00000CE9  G$draw_actor$0$0                   draw
     00000CE9  _draw_actor                        draw
     00000CEB  A$lcc761625$54                     draw
     00000CED  A$lcc761625$55                     draw
ASxxxx Linker V03.00/V05.40 + sdld,  page 20.
Hexadecimal  [32-Bits]

Area                                    Addr        Size        Decimal Bytes (Attributes)
--------------------------------        ----        ----        ------- ----- ------------
_CODE                               00000200    00002728 =       10024. bytes (REL,CON)

      Value  Global                              Global Defined In Module
      -----  --------------------------------   ------------------------
     00000CEE  A$lcc761625$59                     draw
     00000CEE  C$draw.c$9$1_0$139                 draw
     00000CF1  A$lcc761625$60                     draw
     00000CF2  A$lcc761625$61                     draw
     00000CF4  A$lcc761625$62                     draw
     00000CF5  A$lcc761625$63                     draw
     00000CF6  A$lcc761625$64                     draw
     00000CF7  A$lcc761625$65                     draw
     00000CF8  A$lcc761625$66                     draw
     00000CFA  A$lcc761625$67                     draw
     00000CFB  A$lcc761625$71                     draw
     00000CFB  C$draw.c$10$1_0$139                draw
     00000CFE  A$lcc761625$72                     draw
     00000D00  A$lcc761625$73                     draw
     00000D01  A$lcc761625$74                     draw
     00000D03  A$lcc761625$75                     draw
     00000D04  A$lcc761625$76                     draw
     00000D05  A$lcc761625$77                     draw
     00000D06  A$lcc761625$78                     draw
     00000D07  A$lcc761625$79                     draw
     00000D09  A$lcc761625$80                     draw
     00000D0A  A$lcc761625$84                     draw
     00000D0A  C$draw.c$12$1_0$139                draw
     00000D0D  A$lcc761625$85                     draw
     00000D0F  A$lcc761625$86                     draw
     00000D10  A$lcc761625$87                     draw
     00000D12  A$lcc761625$88                     draw
     00000D13  A$lcc761625$89                     draw
     00000D14  A$lcc761625$90                     draw
     00000D15  A$lcc761625$91                     draw
     00000D16  A$lcc761625$92                     draw
     00000D17  A$lcc761625$93                     draw
     00000D18  A$lcc761625$94                     draw
     00000D19  A$lcc761625$95                     draw
     00000D1A  A$lcc761625$96                     draw
     00000D1B  A$lcc761625$97                     draw
     00000D1C  A$lcc761625$98                     draw
     00000D1D  A$lcc761625$99                     draw
     00000D1E  A$lcc761625$103                    draw
     00000D1E  C$draw.c$13$1_0$139                draw
     00000D21  A$lcc761625$104                    draw
     00000D22  A$lcc761625$105                    draw
     00000D23  A$lcc761625$106                    draw
     00000D24  A$lcc761625$107                    draw
     00000D25  A$lcc761625$108                    draw
     00000D26  A$lcc761625$109                    draw
     00000D27  A$lcc761625$110                    draw
     00000D28  A$lcc761625$111                    draw
     00000D29  A$lcc761625$112                    draw
     00000D2B  A$lcc761625$113                    draw
     00000D2C  A$lcc761625$114                    draw
ASxxxx Linker V03.00/V05.40 + sdld,  page 21.
Hexadecimal  [32-Bits]

Area                                    Addr        Size        Decimal Bytes (Attributes)
--------------------------------        ----        ----        ------- ----- ------------
_CODE                               00000200    00002728 =       10024. bytes (REL,CON)

      Value  Global                              Global Defined In Module
      -----  --------------------------------   ------------------------
     00000D2D  A$lcc761625$118                    draw
     00000D2D  C$draw.c$15$1_0$139                draw
     00000D30  A$lcc761625$119                    draw
     00000D31  A$lcc761625$120                    draw
     00000D32  A$lcc761625$121                    draw
     00000D34  A$lcc761625$122                    draw
     00000D35  A$lcc761625$126                    draw
     00000D35  C$draw.c$16$1_0$139                draw
     00000D36  A$lcc761625$127                    draw
     00000D37  A$lcc761625$128                    draw
     00000D38  A$lcc761625$129                    draw
     00000D39  A$lcc761625$130                    draw
     00000D3A  A$lcc761625$131                    draw
     00000D3B  A$lcc761625$132                    draw
     00000D3E  A$lcc761625$133                    draw
     00000D3F  A$lcc761625$134                    draw
     00000D40  A$lcc761625$135                    draw
     00000D41  A$lcc761625$136                    draw
     00000D43  A$lcc761625$140                    draw
     00000D43  C$draw.c$18$1_0$139                draw
     00000D44  A$lcc761625$141                    draw
     00000D45  A$lcc761625$142                    draw
     00000D46  A$lcc761625$143                    draw
     00000D47  A$lcc761625$144                    draw
     00000D48  A$lcc761625$148                    draw
     00000D48  C$draw.c$19$1_0$139                draw
     00000D4A  A$lcc761625$149                    draw
     00000D4B  A$lcc761625$150                    draw
     00000D4C  A$lcc761625$151                    draw
     00000D4D  A$lcc761625$152                    draw
     00000D4E  A$lcc761625$153                    draw
     00000D4F  A$lcc761625$154                    draw
     00000D50  A$lcc761625$155                    draw
     00000D51  A$lcc761625$156                    draw
     00000D52  A$lcc761625$157                    draw
     00000D53  A$lcc761625$158                    draw
     00000D54  A$lcc761625$159                    draw
     00000D55  A$lcc761625$160                    draw
     00000D56  A$lcc761625$161                    draw
     00000D57  A$lcc761625$162                    draw
     00000D58  A$lcc761625$166                    draw
     00000D58  C$draw.c$21$2_0$140                draw
     00000D5A  A$lcc761625$167                    draw
     00000D5B  A$lcc761625$174                    draw
     00000D5B  C$draw.c$22$2_0$140                draw
     00000D5B  C$draw.c$25$2_0$139                draw
     00000D5E  A$lcc761625$175                    draw
     00000D60  A$lcc761625$177                    draw
     00000D61  A$lcc761625$178                    draw
     00000D63  A$lcc761625$179                    draw
     00000D64  A$lcc761625$180                    draw
ASxxxx Linker V03.00/V05.40 + sdld,  page 22.
Hexadecimal  [32-Bits]

Area                                    Addr        Size        Decimal Bytes (Attributes)
--------------------------------        ----        ----        ------- ----- ------------
_CODE                               00000200    00002728 =       10024. bytes (REL,CON)

      Value  Global                              Global Defined In Module
      -----  --------------------------------   ------------------------
     00000D66  A$lcc761625$182                    draw
     00000D67  A$lcc761625$183                    draw
     00000D68  A$lcc761625$184                    draw
     00000D69  A$lcc761625$185                    draw
     00000D6A  A$lcc761625$186                    draw
     00000D6B  A$lcc761625$187                    draw
     00000D6D  A$lcc761625$188                    draw
     00000D70  A$lcc761625$189                    draw
     00000D71  A$lcc761625$190                    draw
     00000D72  A$lcc761625$191                    draw
     00000D73  A$lcc761625$192                    draw
     00000D74  A$lcc761625$194                    draw
     00000D75  A$lcc761625$195                    draw
     00000D76  A$lcc761625$196                    draw
     00000D77  A$lcc761625$197                    draw
     00000D78  A$lcc761625$198                    draw
     00000D79  A$lcc761625$199                    draw
     00000D7A  A$lcc761625$200                    draw
     00000D7D  A$lcc761625$201                    draw
     00000D7E  A$lcc761625$202                    draw
     00000D7F  A$lcc761625$203                    draw
     00000D80  A$lcc761625$204                    draw
     00000D81  A$lcc761625$205                    draw
     00000D82  A$lcc761625$209                    draw
     00000D82  C$draw.c$25$2_0$141                draw
     00000D83  A$lcc761625$210                    draw
     00000D85  A$lcc761625$215                    draw
     00000D85  C$draw.c$29$2_0$142                draw
     00000D87  A$lcc761625$216                    draw
     00000D88  A$lcc761625$217                    draw
     00000D89  A$lcc761625$218                    draw
     00000D8B  A$lcc761625$220                    draw
     00000D8D  A$lcc761625$221                    draw
     00000D8E  A$lcc761625$223                    draw
     00000D8F  A$lcc761625$224                    draw
     00000D90  A$lcc761625$225                    draw
     00000D91  A$lcc761625$226                    draw
     00000D92  A$lcc761625$227                    draw
     00000D93  A$lcc761625$228                    draw
     00000D96  A$lcc761625$229                    draw
     00000D97  A$lcc761625$230                    draw
     00000D98  A$lcc761625$231                    draw
     00000D99  A$lcc761625$233                    draw
     00000D9B  A$lcc761625$234                    draw
     00000D9C  A$lcc761625$235                    draw
     00000D9D  A$lcc761625$236                    draw
     00000D9E  A$lcc761625$237                    draw
     00000D9F  A$lcc761625$238                    draw
     00000DA0  A$lcc761625$242                    draw
     00000DA0  C$draw.c$31$2_0$142                draw
     00000DA3  A$lcc761625$247                    draw
ASxxxx Linker V03.00/V05.40 + sdld,  page 23.
Hexadecimal  [32-Bits]

Area                                    Addr        Size        Decimal Bytes (Attributes)
--------------------------------        ----        ----        ------- ----- ------------
_CODE                               00000200    00002728 =       10024. bytes (REL,CON)

      Value  Global                              Global Defined In Module
      -----  --------------------------------   ------------------------
     00000DA3  C$draw.c$33$3_0$144                draw
     00000DA5  A$lcc761625$248                    draw
     00000DA6  A$lcc761625$249                    draw
     00000DA8  A$lcc761625$250                    draw
     00000DAA  A$lcc761625$254                    draw
     00000DAD  A$lcc761625$255                    draw
     00000DAF  A$lcc761625$256                    draw
     00000DB0  A$lcc761625$257                    draw
     00000DB2  A$lcc761625$258                    draw
     00000DB3  A$lcc761625$259                    draw
     00000DB4  A$lcc761625$260                    draw
     00000DB5  A$lcc761625$261                    draw
     00000DB6  A$lcc761625$262                    draw
     00000DB7  A$lcc761625$266                    draw
     00000DB7  C$draw.c$31$2_0$139                draw
     00000DB9  A$lcc761625$267                    draw
     00000DBA  A$lcc761625$271                    draw
     00000DBA  C$draw.c$35$5_0$146                draw
     00000DBC  A$lcc761625$272                    draw
     00000DBE  A$lcc761625$275                    draw
     00000DBF  A$lcc761625$276                    draw
     00000DC0  A$lcc761625$277                    draw
     00000DC1  A$lcc761625$278                    draw
     00000DC2  A$lcc761625$279                    draw
     00000DC3  A$lcc761625$280                    draw
     00000DC6  A$lcc761625$281                    draw
     00000DC7  A$lcc761625$282                    draw
     00000DC8  A$lcc761625$283                    draw
     00000DC9  A$lcc761625$285                    draw
     00000DCB  A$lcc761625$286                    draw
     00000DCC  A$lcc761625$287                    draw
     00000DCD  A$lcc761625$288                    draw
     00000DCE  A$lcc761625$290                    draw
     00000DCF  A$lcc761625$291                    draw
     00000DD0  A$lcc761625$292                    draw
     00000DD1  A$lcc761625$293                    draw
     00000DD3  A$lcc761625$294                    draw
     00000DD4  A$lcc761625$295                    draw
     00000DD6  A$lcc761625$297                    draw
     00000DD7  A$lcc761625$298                    draw
     00000DDA  A$lcc761625$299                    draw
     00000DDB  A$lcc761625$300                    draw
     00000DDC  A$lcc761625$301                    draw
     00000DDD  A$lcc761625$302                    draw
     00000DDE  A$lcc761625$303                    draw
     00000DDF  A$lcc761625$304                    draw
     00000DE0  A$lcc761625$305                    draw
     00000DE1  A$lcc761625$307                    draw
     00000DE2  A$lcc761625$308                    draw
     00000DE3  A$lcc761625$309                    draw
     00000DE4  A$lcc761625$310                    draw
ASxxxx Linker V03.00/V05.40 + sdld,  page 24.
Hexadecimal  [32-Bits]

Area                                    Addr        Size        Decimal Bytes (Attributes)
--------------------------------        ----        ----        ------- ----- ------------
_CODE                               00000200    00002728 =       10024. bytes (REL,CON)

      Value  Global                              Global Defined In Module
      -----  --------------------------------   ------------------------
     00000DE6  A$lcc761625$311                    draw
     00000DE7  A$lcc761625$312                    draw
     00000DE8  A$lcc761625$316                    draw
     00000DE8  C$draw.c$38$5_0$146                draw
     00000DEB  A$lcc761625$320                    draw
     00000DEC  A$lcc761625$321                    draw
     00000DED  A$lcc761625$322                    draw
     00000DEE  A$lcc761625$323                    draw
     00000DEF  A$lcc761625$324                    draw
     00000DF0  A$lcc761625$325                    draw
     00000DF3  A$lcc761625$326                    draw
     00000DF4  A$lcc761625$327                    draw
     00000DF5  A$lcc761625$328                    draw
     00000DF6  A$lcc761625$330                    draw
     00000DF8  A$lcc761625$331                    draw
     00000DF9  A$lcc761625$332                    draw
     00000DFA  A$lcc761625$333                    draw
     00000DFB  A$lcc761625$334                    draw
     00000DFC  A$lcc761625$335                    draw
     00000DFD  A$lcc761625$337                    draw
     00000DFE  A$lcc761625$338                    draw
     00000E00  A$lcc761625$339                    draw
     00000E01  A$lcc761625$340                    draw
     00000E03  A$lcc761625$342                    draw
     00000E04  A$lcc761625$343                    draw
     00000E05  A$lcc761625$344                    draw
     00000E06  A$lcc761625$345                    draw
     00000E07  A$lcc761625$346                    draw
     00000E08  A$lcc761625$347                    draw
     00000E0B  A$lcc761625$348                    draw
     00000E0C  A$lcc761625$350                    draw
     00000E0D  A$lcc761625$351                    draw
     00000E0F  A$lcc761625$352                    draw
     00000E10  A$lcc761625$353                    draw
     00000E11  A$lcc761625$354                    draw
     00000E12  A$lcc761625$355                    draw
     00000E13  A$lcc761625$359                    draw
     00000E13  C$draw.c$43$3_0$144                draw
     00000E15  A$lcc761625$364                    draw
     00000E15  C$draw.c$46$4_0$149                draw
     00000E17  A$lcc761625$365                    draw
     00000E18  A$lcc761625$366                    draw
     00000E1A  A$lcc761625$367                    draw
     00000E1C  A$lcc761625$369                    draw
     00000E1E  A$lcc761625$370                    draw
     00000E1F  A$lcc761625$372                    draw
     00000E20  A$lcc761625$373                    draw
     00000E21  A$lcc761625$374                    draw
     00000E22  A$lcc761625$375                    draw
     00000E23  A$lcc761625$376                    draw
     00000E24  A$lcc761625$377                    draw
ASxxxx Linker V03.00/V05.40 + sdld,  page 25.
Hexadecimal  [32-Bits]

Area                                    Addr        Size        Decimal Bytes (Attributes)
--------------------------------        ----        ----        ------- ----- ------------
_CODE                               00000200    00002728 =       10024. bytes (REL,CON)

      Value  Global                              Global Defined In Module
      -----  --------------------------------   ------------------------
     00000E27  A$lcc761625$378                    draw
     00000E28  A$lcc761625$379                    draw
     00000E29  A$lcc761625$380                    draw
     00000E2A  A$lcc761625$382                    draw
     00000E2C  A$lcc761625$383                    draw
     00000E2D  A$lcc761625$384                    draw
     00000E2E  A$lcc761625$385                    draw
     00000E2F  A$lcc761625$386                    draw
     00000E30  A$lcc761625$387                    draw
     00000E31  A$lcc761625$389                    draw
     00000E32  A$lcc761625$390                    draw
     00000E34  A$lcc761625$391                    draw
     00000E36  A$lcc761625$392                    draw
     00000E37  A$lcc761625$393                    draw
     00000E38  A$lcc761625$394                    draw
     00000E3A  A$lcc761625$396                    draw
     00000E3B  A$lcc761625$397                    draw
     00000E3C  A$lcc761625$398                    draw
     00000E3D  A$lcc761625$399                    draw
     00000E3E  A$lcc761625$400                    draw
     00000E3F  A$lcc761625$401                    draw
     00000E42  A$lcc761625$402                    draw
     00000E43  A$lcc761625$404                    draw
     00000E44  A$lcc761625$405                    draw
     00000E46  A$lcc761625$406                    draw
     00000E47  A$lcc761625$407                    draw
     00000E48  A$lcc761625$408                    draw
     00000E49  A$lcc761625$409                    draw
     00000E4A  A$lcc761625$411                    draw
     00000E4C  A$lcc761625$412                    draw
     00000E4D  A$lcc761625$413                    draw
     00000E4F  A$lcc761625$414                    draw
     00000E50  A$lcc761625$415                    draw
     00000E51  A$lcc761625$416                    draw
     00000E53  A$lcc761625$418                    draw
     00000E54  A$lcc761625$419                    draw
     00000E55  A$lcc761625$420                    draw
     00000E56  A$lcc761625$421                    draw
     00000E57  A$lcc761625$422                    draw
     00000E58  A$lcc761625$423                    draw
     00000E5B  A$lcc761625$424                    draw
     00000E5C  A$lcc761625$425                    draw
     00000E5D  A$lcc761625$426                    draw
     00000E5E  A$lcc761625$428                    draw
     00000E60  A$lcc761625$429                    draw
     00000E61  A$lcc761625$430                    draw
     00000E62  A$lcc761625$431                    draw
     00000E63  A$lcc761625$432                    draw
     00000E64  A$lcc761625$434                    draw
     00000E65  A$lcc761625$435                    draw
     00000E66  A$lcc761625$437                    draw
ASxxxx Linker V03.00/V05.40 + sdld,  page 26.
Hexadecimal  [32-Bits]

Area                                    Addr        Size        Decimal Bytes (Attributes)
--------------------------------        ----        ----        ------- ----- ------------
_CODE                               00000200    00002728 =       10024. bytes (REL,CON)

      Value  Global                              Global Defined In Module
      -----  --------------------------------   ------------------------
     00000E67  A$lcc761625$438                    draw
     00000E6A  A$lcc761625$439                    draw
     00000E6B  A$lcc761625$440                    draw
     00000E6C  A$lcc761625$441                    draw
     00000E6D  A$lcc761625$442                    draw
     00000E6E  A$lcc761625$443                    draw
     00000E6F  A$lcc761625$444                    draw
     00000E70  A$lcc761625$445                    draw
     00000E71  A$lcc761625$447                    draw
     00000E72  A$lcc761625$448                    draw
     00000E73  A$lcc761625$449                    draw
     00000E74  A$lcc761625$450                    draw
     00000E76  A$lcc761625$451                    draw
     00000E77  A$lcc761625$452                    draw
     00000E78  A$lcc761625$460                    draw
     00000E78  C$draw.c$51$2_0$139                draw
     00000E7A  A$lcc761625$465                    draw
     00000E7A  C$draw.c$53$2_0$139                draw
     00000E7A  XG$draw_actor$0$0                  draw
     00000E7B  A$lcc761625$475                    draw
     00000E7B  C$draw.c$55$2_0$182                draw
     00000E7B  G$draw_extra$0$0                   draw
     00000E7B  _draw_extra                        draw
     00000E7D  A$lcc761625$476                    draw
     00000E7E  A$lcc761625$477                    draw
     00000E80  A$lcc761625$478                    draw
     00000E81  A$lcc761625$482                    draw
     00000E81  C$draw.c$58$1_0$182                draw
     00000E83  A$lcc761625$483                    draw
     00000E84  A$lcc761625$484                    draw
     00000E85  A$lcc761625$485                    draw
     00000E86  A$lcc761625$486                    draw
     00000E87  A$lcc761625$487                    draw
     00000E8A  A$lcc761625$488                    draw
     00000E8B  A$lcc761625$489                    draw
     00000E8C  A$lcc761625$490                    draw
     00000E8D  A$lcc761625$491                    draw
     00000E8F  A$lcc761625$492                    draw
     00000E90  A$lcc761625$496                    draw
     00000E90  C$draw.c$61$2_0$182                draw
     00000E92  A$lcc761625$497                    draw
     00000E93  A$lcc761625$498                    draw
     00000E94  A$lcc761625$499                    draw
     00000E97  A$lcc761625$500                    draw
     00000E98  A$lcc761625$501                    draw
     00000E9A  A$lcc761625$502                    draw
     00000E9C  A$lcc761625$503                    draw
     00000E9D  A$lcc761625$507                    draw
     00000E9D  C$draw.c$64$2_0$183                draw
     00000E9E  A$lcc761625$508                    draw
     00000EA0  A$lcc761625$509                    draw
ASxxxx Linker V03.00/V05.40 + sdld,  page 27.
Hexadecimal  [32-Bits]

Area                                    Addr        Size        Decimal Bytes (Attributes)
--------------------------------        ----        ----        ------- ----- ------------
_CODE                               00000200    00002728 =       10024. bytes (REL,CON)

      Value  Global                              Global Defined In Module
      -----  --------------------------------   ------------------------
     00000EA2  A$lcc761625$510                    draw
     00000EA3  A$lcc761625$511                    draw
     00000EA5  A$lcc761625$512                    draw
     00000EA6  A$lcc761625$513                    draw
     00000EA7  A$lcc761625$514                    draw
     00000EA9  A$lcc761625$515                    draw
     00000EAA  A$lcc761625$516                    draw
     00000EAC  A$lcc761625$517                    draw
     00000EAD  A$lcc761625$524                    draw
     00000EAD  C$draw.c$65$2_0$183                draw
     00000EAD  C$draw.c$68$2_0$182                draw
     00000EB0  A$lcc761625$525                    draw
     00000EB2  A$lcc761625$527                    draw
     00000EB3  A$lcc761625$528                    draw
     00000EB5  A$lcc761625$529                    draw
     00000EB6  A$lcc761625$530                    draw
     00000EB8  A$lcc761625$532                    draw
     00000EBA  A$lcc761625$533                    draw
     00000EBB  A$lcc761625$534                    draw
     00000EBC  A$lcc761625$535                    draw
     00000EBD  A$lcc761625$536                    draw
     00000EBE  A$lcc761625$537                    draw
     00000EBF  A$lcc761625$538                    draw
     00000EC0  A$lcc761625$540                    draw
     00000EC1  A$lcc761625$541                    draw
     00000EC2  A$lcc761625$542                    draw
     00000EC3  A$lcc761625$543                    draw
     00000EC4  A$lcc761625$544                    draw
     00000EC5  A$lcc761625$545                    draw
     00000EC6  A$lcc761625$546                    draw
     00000EC9  A$lcc761625$547                    draw
     00000ECA  A$lcc761625$548                    draw
     00000ECB  A$lcc761625$549                    draw
     00000ECC  A$lcc761625$550                    draw
     00000ECD  A$lcc761625$551                    draw
     00000ECE  A$lcc761625$552                    draw
     00000ED0  A$lcc761625$553                    draw
     00000ED1  A$lcc761625$554                    draw
     00000ED2  A$lcc761625$555                    draw
     00000ED3  A$lcc761625$559                    draw
     00000ED3  C$draw.c$68$2_0$184                draw
     00000ED4  A$lcc761625$560                    draw
     00000ED6  A$lcc761625$565                    draw
     00000ED6  C$draw.c$74$2_0$182                draw
     00000ED8  A$lcc761625$566                    draw
     00000ED9  A$lcc761625$567                    draw
     00000EDB  A$lcc761625$568                    draw
     00000EDC  A$lcc761625$572                    draw
     00000EDC  C$draw.c$72$2_0$185                draw
     00000EDE  A$lcc761625$573                    draw
     00000EDF  A$lcc761625$574                    draw
ASxxxx Linker V03.00/V05.40 + sdld,  page 28.
Hexadecimal  [32-Bits]

Area                                    Addr        Size        Decimal Bytes (Attributes)
--------------------------------        ----        ----        ------- ----- ------------
_CODE                               00000200    00002728 =       10024. bytes (REL,CON)

      Value  Global                              Global Defined In Module
      -----  --------------------------------   ------------------------
     00000EE0  A$lcc761625$575                    draw
     00000EE2  A$lcc761625$577                    draw
     00000EE3  A$lcc761625$578                    draw
     00000EE4  A$lcc761625$579                    draw
     00000EE5  A$lcc761625$580                    draw
     00000EE6  A$lcc761625$581                    draw
     00000EE9  A$lcc761625$582                    draw
     00000EEA  A$lcc761625$583                    draw
     00000EEB  A$lcc761625$584                    draw
     00000EEC  A$lcc761625$586                    draw
     00000EEE  A$lcc761625$587                    draw
     00000EEF  A$lcc761625$588                    draw
     00000EF0  A$lcc761625$589                    draw
     00000EF1  A$lcc761625$590                    draw
     00000EF3  A$lcc761625$591                    draw
     00000EF4  A$lcc761625$592                    draw
     00000EF5  A$lcc761625$596                    draw
     00000EF5  C$draw.c$74$2_0$185                draw
     00000EF8  A$lcc761625$601                    draw
     00000EF8  C$draw.c$76$3_0$187                draw
     00000EFA  A$lcc761625$602                    draw
     00000EFB  A$lcc761625$603                    draw
     00000EFD  A$lcc761625$604                    draw
     00000EFF  A$lcc761625$608                    draw
     00000EFF  C$draw.c$78$5_0$189                draw
     00000F01  A$lcc761625$609                    draw
     00000F02  A$lcc761625$610                    draw
     00000F03  A$lcc761625$611                    draw
     00000F05  A$lcc761625$613                    draw
     00000F06  A$lcc761625$614                    draw
     00000F07  A$lcc761625$615                    draw
     00000F08  A$lcc761625$616                    draw
     00000F09  A$lcc761625$617                    draw
     00000F0C  A$lcc761625$618                    draw
     00000F0D  A$lcc761625$619                    draw
     00000F0E  A$lcc761625$620                    draw
     00000F0F  A$lcc761625$622                    draw
     00000F11  A$lcc761625$623                    draw
     00000F12  A$lcc761625$624                    draw
     00000F13  A$lcc761625$625                    draw
     00000F14  A$lcc761625$626                    draw
     00000F16  A$lcc761625$627                    draw
     00000F17  A$lcc761625$628                    draw
     00000F18  A$lcc761625$630                    draw
     00000F1A  A$lcc761625$631                    draw
     00000F1B  A$lcc761625$632                    draw
     00000F1C  A$lcc761625$633                    draw
     00000F1E  A$lcc761625$634                    draw
     00000F1F  A$lcc761625$635                    draw
     00000F20  A$lcc761625$636                    draw
     00000F21  A$lcc761625$638                    draw
ASxxxx Linker V03.00/V05.40 + sdld,  page 29.
Hexadecimal  [32-Bits]

Area                                    Addr        Size        Decimal Bytes (Attributes)
--------------------------------        ----        ----        ------- ----- ------------
_CODE                               00000200    00002728 =       10024. bytes (REL,CON)

      Value  Global                              Global Defined In Module
      -----  --------------------------------   ------------------------
     00000F22  A$lcc761625$639                    draw
     00000F23  A$lcc761625$640                    draw
     00000F24  A$lcc761625$641                    draw
     00000F25  A$lcc761625$642                    draw
     00000F26  A$lcc761625$643                    draw
     00000F29  A$lcc761625$644                    draw
     00000F2A  A$lcc761625$646                    draw
     00000F2B  A$lcc761625$647                    draw
     00000F2C  A$lcc761625$648                    draw
     00000F2D  A$lcc761625$649                    draw
     00000F2E  A$lcc761625$650                    draw
     00000F30  A$lcc761625$651                    draw
     00000F31  A$lcc761625$652                    draw
     00000F32  A$lcc761625$656                    draw
     00000F32  C$draw.c$81$5_0$189                draw
     00000F35  A$lcc761625$659                    draw
     00000F36  A$lcc761625$660                    draw
     00000F37  A$lcc761625$661                    draw
     00000F38  A$lcc761625$662                    draw
     00000F39  A$lcc761625$663                    draw
     00000F3C  A$lcc761625$664                    draw
     00000F3D  A$lcc761625$665                    draw
     00000F3E  A$lcc761625$666                    draw
     00000F3F  A$lcc761625$668                    draw
     00000F41  A$lcc761625$669                    draw
     00000F42  A$lcc761625$670                    draw
     00000F43  A$lcc761625$671                    draw
     00000F44  A$lcc761625$672                    draw
     00000F46  A$lcc761625$673                    draw
     00000F47  A$lcc761625$674                    draw
     00000F48  A$lcc761625$676                    draw
     00000F49  A$lcc761625$677                    draw
     00000F4B  A$lcc761625$678                    draw
     00000F4C  A$lcc761625$679                    draw
     00000F4D  A$lcc761625$680                    draw
     00000F4E  A$lcc761625$682                    draw
     00000F4F  A$lcc761625$683                    draw
     00000F50  A$lcc761625$684                    draw
     00000F51  A$lcc761625$685                    draw
     00000F52  A$lcc761625$686                    draw
     00000F53  A$lcc761625$687                    draw
     00000F56  A$lcc761625$688                    draw
     00000F57  A$lcc761625$690                    draw
     00000F58  A$lcc761625$691                    draw
     00000F5A  A$lcc761625$692                    draw
     00000F5B  A$lcc761625$693                    draw
     00000F5C  A$lcc761625$694                    draw
     00000F5D  A$lcc761625$695                    draw
     00000F5E  A$lcc761625$699                    draw
     00000F5E  C$draw.c$86$3_0$187                draw
     00000F60  A$lcc761625$704                    draw
ASxxxx Linker V03.00/V05.40 + sdld,  page 30.
Hexadecimal  [32-Bits]

Area                                    Addr        Size        Decimal Bytes (Attributes)
--------------------------------        ----        ----        ------- ----- ------------
_CODE                               00000200    00002728 =       10024. bytes (REL,CON)

      Value  Global                              Global Defined In Module
      -----  --------------------------------   ------------------------
     00000F60  C$draw.c$89$4_0$192                draw
     00000F62  A$lcc761625$705                    draw
     00000F63  A$lcc761625$706                    draw
     00000F65  A$lcc761625$707                    draw
     00000F67  A$lcc761625$709                    draw
     00000F68  A$lcc761625$710                    draw
     00000F69  A$lcc761625$711                    draw
     00000F6A  A$lcc761625$712                    draw
     00000F6B  A$lcc761625$713                    draw
     00000F6E  A$lcc761625$714                    draw
     00000F6F  A$lcc761625$715                    draw
     00000F70  A$lcc761625$716                    draw
     00000F71  A$lcc761625$718                    draw
     00000F73  A$lcc761625$719                    draw
     00000F74  A$lcc761625$720                    draw
     00000F75  A$lcc761625$721                    draw
     00000F76  A$lcc761625$722                    draw
     00000F78  A$lcc761625$723                    draw
     00000F79  A$lcc761625$724                    draw
     00000F7A  A$lcc761625$726                    draw
     00000F7B  A$lcc761625$727                    draw
     00000F7C  A$lcc761625$728                    draw
     00000F7E  A$lcc761625$729                    draw
     00000F7F  A$lcc761625$730                    draw
     00000F80  A$lcc761625$731                    draw
     00000F81  A$lcc761625$732                    draw
     00000F82  A$lcc761625$733                    draw
     00000F83  A$lcc761625$735                    draw
     00000F84  A$lcc761625$736                    draw
     00000F85  A$lcc761625$737                    draw
     00000F86  A$lcc761625$738                    draw
     00000F87  A$lcc761625$739                    draw
     00000F88  A$lcc761625$740                    draw
     00000F8B  A$lcc761625$741                    draw
     00000F8C  A$lcc761625$743                    draw
     00000F8D  A$lcc761625$744                    draw
     00000F8F  A$lcc761625$745                    draw
     00000F90  A$lcc761625$746                    draw
     00000F91  A$lcc761625$747                    draw
     00000F92  A$lcc761625$748                    draw
     00000F93  A$lcc761625$750                    draw
     00000F95  A$lcc761625$751                    draw
     00000F96  A$lcc761625$752                    draw
     00000F98  A$lcc761625$753                    draw
     00000F99  A$lcc761625$754                    draw
     00000F9A  A$lcc761625$755                    draw
     00000F9B  A$lcc761625$756                    draw
     00000F9C  A$lcc761625$757                    draw
     00000F9D  A$lcc761625$758                    draw
     00000F9E  A$lcc761625$760                    draw
     00000FA1  A$lcc761625$761                    draw
ASxxxx Linker V03.00/V05.40 + sdld,  page 31.
Hexadecimal  [32-Bits]

Area                                    Addr        Size        Decimal Bytes (Attributes)
--------------------------------        ----        ----        ------- ----- ------------
_CODE                               00000200    00002728 =       10024. bytes (REL,CON)

      Value  Global                              Global Defined In Module
      -----  --------------------------------   ------------------------
     00000FA2  A$lcc761625$762                    draw
     00000FA3  A$lcc761625$763                    draw
     00000FA4  A$lcc761625$764                    draw
     00000FA5  A$lcc761625$765                    draw
     00000FA6  A$lcc761625$766                    draw
     00000FA7  A$lcc761625$767                    draw
     00000FA8  A$lcc761625$768                    draw
     00000FA9  A$lcc761625$770                    draw
     00000FAB  A$lcc761625$771                    draw
     00000FAC  A$lcc761625$772                    draw
     00000FAD  A$lcc761625$773                    draw
     00000FAE  A$lcc761625$774                    draw
     00000FB0  A$lcc761625$776                    draw
     00000FB1  A$lcc761625$777                    draw
     00000FB2  A$lcc761625$778                    draw
     00000FB3  A$lcc761625$779                    draw
     00000FB4  A$lcc761625$780                    draw
     00000FB5  A$lcc761625$781                    draw
     00000FB6  A$lcc761625$783                    draw
     00000FB9  A$lcc761625$784                    draw
     00000FBA  A$lcc761625$785                    draw
     00000FBB  A$lcc761625$786                    draw
     00000FBC  A$lcc761625$787                    draw
     00000FBD  A$lcc761625$788                    draw
     00000FBE  A$lcc761625$789                    draw
     00000FBF  A$lcc761625$790                    draw
     00000FC0  A$lcc761625$791                    draw
     00000FC1  A$lcc761625$793                    draw
     00000FC2  A$lcc761625$794                    draw
     00000FC3  A$lcc761625$795                    draw
     00000FC4  A$lcc761625$796                    draw
     00000FC6  A$lcc761625$797                    draw
     00000FC7  A$lcc761625$798                    draw
     00000FC8  A$lcc761625$806                    draw
     00000FC8  C$draw.c$94$2_0$182                draw
     00000FC8  C$draw.c$96$2_0$182                draw
     00000FCA  A$lcc761625$807                    draw
     00000FCB  A$lcc761625$808                    draw
     00000FCD  A$lcc761625$809                    draw
     00000FCE  A$lcc761626$60                     entity
     00000FCE  C$entity.c$7$0_0$3                 entity
     00000FCE  C$entity.c$9$2_0$4                 entity
     00000FCE  G$create_entity$0$0                entity
     00000FCE  _create_entity                     entity
     00000FD1  A$lcc761626$61                     entity
     00000FD3  A$lcc761626$62                     entity
     00000FD5  A$lcc761626$66                     entity
     00000FD5  C$entity.c$10$3_0$5                entity
     00000FD6  A$lcc761626$67                     entity
     00000FD7  A$lcc761626$72                     entity
     00000FD7  C$entity.c$13$1_0$3                entity
ASxxxx Linker V03.00/V05.40 + sdld,  page 32.
Hexadecimal  [32-Bits]

Area                                    Addr        Size        Decimal Bytes (Attributes)
--------------------------------        ----        ----        ------- ----- ------------
_CODE                               00000200    00002728 =       10024. bytes (REL,CON)

      Value  Global                              Global Defined In Module
      -----  --------------------------------   ------------------------
     00000FDA  A$lcc761626$73                     entity
     00000FDB  A$lcc761626$74                     entity
     00000FDE  A$lcc761626$75                     entity
     00000FDF  A$lcc761626$76                     entity
     00000FE0  A$lcc761626$84                     entity
     00000FE0  C$entity.c$14$1_0$3                entity
     00000FE0  XG$create_entity$0$0               entity
     00000FE1  A$lcc761626$97                     entity
     00000FE1  C$entity.c$16$1_0$6                entity
     00000FE1  C$entity.c$18$1_0$6                entity
     00000FE1  G$reset_entities$0$0               entity
     00000FE1  _reset_entities                    entity
     00000FE4  A$lcc761626$98                     entity
     00000FE6  A$lcc761626$106                    entity
     00000FE6  C$entity.c$19$1_0$6                entity
     00000FE6  XG$reset_entities$0$0              entity
     00000FE7  A$lcc761630$57                     inventory
     00000FE7  C$inventory.c$11$0_0$143           inventory
     00000FE7  G$init_arrow$0$0                   inventory
     00000FE7  _init_arrow                        inventory
     00000FE8  A$lcc761630$58                     inventory
     00000FE9  A$lcc761630$62                     inventory
     00000FE9  C$inventory.c$13$1_0$143           inventory
     00000FEC  A$lcc761630$63                     inventory
     00000FED  A$lcc761630$64                     inventory
     00000FEF  A$lcc761630$65                     inventory
     00000FF2  A$lcc761630$66                     inventory
     00000FF3  A$lcc761630$67                     inventory
     00000FF5  A$lcc761630$71                     inventory
     00000FF5  C$inventory.c$14$1_0$143           inventory
     00000FF8  A$lcc761630$72                     inventory
     00000FFB  A$lcc761630$73                     inventory
     00000FFC  A$lcc761630$74                     inventory
     00000FFE  A$lcc761630$75                     inventory
     00000FFF  A$lcc761630$76                     inventory
     00001001  A$lcc761630$80                     inventory
     00001001  C$inventory.c$16$1_0$143           inventory
     00001004  A$lcc761630$81                     inventory
     00001007  A$lcc761630$82                     inventory
     00001008  A$lcc761630$83                     inventory
     00001009  A$lcc761630$84                     inventory
     0000100B  A$lcc761630$85                     inventory
     0000100C  A$lcc761630$86                     inventory
     0000100F  A$lcc761630$87                     inventory
     00001011  A$lcc761630$88                     inventory
     00001012  A$lcc761630$89                     inventory
     00001014  A$lcc761630$90                     inventory
     00001016  A$lcc761630$91                     inventory
     00001017  A$lcc761630$92                     inventory
     00001018  A$lcc761630$93                     inventory
     00001019  A$lcc761630$94                     inventory
ASxxxx Linker V03.00/V05.40 + sdld,  page 33.
Hexadecimal  [32-Bits]

Area                                    Addr        Size        Decimal Bytes (Attributes)
--------------------------------        ----        ----        ------- ----- ------------
_CODE                               00000200    00002728 =       10024. bytes (REL,CON)

      Value  Global                              Global Defined In Module
      -----  --------------------------------   ------------------------
     0000101A  A$lcc761630$95                     inventory
     0000101B  A$lcc761630$96                     inventory
     0000101C  A$lcc761630$100                    inventory
     0000101C  C$inventory.c$17$1_0$143           inventory
     0000101F  A$lcc761630$101                    inventory
     00001020  A$lcc761630$102                    inventory
     00001021  A$lcc761630$103                    inventory
     00001023  A$lcc761630$104                    inventory
     00001024  A$lcc761630$105                    inventory
     00001026  A$lcc761630$106                    inventory
     00001028  A$lcc761630$107                    inventory
     00001029  A$lcc761630$108                    inventory
     0000102A  A$lcc761630$109                    inventory
     0000102C  A$lcc761630$110                    inventory
     0000102D  A$lcc761630$111                    inventory
     0000102E  A$lcc761630$112                    inventory
     0000102F  A$lcc761630$113                    inventory
     00001030  A$lcc761630$114                    inventory
     00001031  A$lcc761630$115                    inventory
     00001032  A$lcc761630$116                    inventory
     00001033  A$lcc761630$120                    inventory
     00001033  C$inventory.c$19$1_0$143           inventory
     00001036  A$lcc761630$121                    inventory
     00001037  A$lcc761630$122                    inventory
     00001039  A$lcc761630$123                    inventory
     0000103C  A$lcc761630$124                    inventory
     0000103D  A$lcc761630$125                    inventory
     0000103F  A$lcc761630$129                    inventory
     0000103F  C$inventory.c$20$1_0$143           inventory
     00001042  A$lcc761630$130                    inventory
     00001045  A$lcc761630$131                    inventory
     00001046  A$lcc761630$132                    inventory
     00001048  A$lcc761630$133                    inventory
     00001049  A$lcc761630$134                    inventory
     0000104B  A$lcc761630$138                    inventory
     0000104B  C$inventory.c$21$1_0$143           inventory
     0000104E  A$lcc761630$139                    inventory
     00001051  A$lcc761630$140                    inventory
     00001052  A$lcc761630$141                    inventory
     00001054  A$lcc761630$142                    inventory
     00001055  A$lcc761630$143                    inventory
     00001057  A$lcc761630$147                    inventory
     00001057  C$inventory.c$23$2_0$144           inventory
     00001059  A$lcc761630$148                    inventory
     0000105B  A$lcc761630$149                    inventory
     0000105C  A$lcc761630$150                    inventory
     0000105E  A$lcc761630$154                    inventory
     0000105E  C$inventory.c$25$1_1$144           inventory
     00001061  A$lcc761630$155                    inventory
     00001062  A$lcc761630$156                    inventory
     00001064  A$lcc761630$157                    inventory
ASxxxx Linker V03.00/V05.40 + sdld,  page 34.
Hexadecimal  [32-Bits]

Area                                    Addr        Size        Decimal Bytes (Attributes)
--------------------------------        ----        ----        ------- ----- ------------
_CODE                               00000200    00002728 =       10024. bytes (REL,CON)

      Value  Global                              Global Defined In Module
      -----  --------------------------------   ------------------------
     00001065  A$lcc761630$158                    inventory
     00001066  A$lcc761630$159                    inventory
     00001067  A$lcc761630$160                    inventory
     00001068  A$lcc761630$161                    inventory
     00001069  A$lcc761630$162                    inventory
     0000106A  A$lcc761630$163                    inventory
     0000106B  A$lcc761630$164                    inventory
     0000106C  A$lcc761630$165                    inventory
     0000106D  A$lcc761630$166                    inventory
     00001070  A$lcc761630$167                    inventory
     00001071  A$lcc761630$168                    inventory
     00001072  A$lcc761630$169                    inventory
     00001073  A$lcc761630$170                    inventory
     00001076  A$lcc761630$171                    inventory
     00001077  A$lcc761630$172                    inventory
     00001079  A$lcc761630$173                    inventory
     0000107A  A$lcc761630$174                    inventory
     0000107B  A$lcc761630$175                    inventory
     0000107E  A$lcc761630$176                    inventory
     0000107F  A$lcc761630$177                    inventory
     00001080  A$lcc761630$178                    inventory
     00001081  A$lcc761630$179                    inventory
     00001082  A$lcc761630$180                    inventory
     00001083  A$lcc761630$181                    inventory
     00001084  A$lcc761630$182                    inventory
     00001087  A$lcc761630$186                    inventory
     0000108A  A$lcc761630$187                    inventory
     0000108B  A$lcc761630$192                    inventory
     0000108B  C$inventory.c$26$1_1$143           inventory
     0000108B  XG$init_arrow$0$0                  inventory
     0000108C  A$lcc761631$62                     inventory_input
     0000108C  C$inventory_input.c$19$0_0$149     inventory_input
     0000108C  C$inventory_input.c$23$2_0$150     inventory_input
     0000108C  G$inventory_input$0$0              inventory_input
     0000108C  _inventory_input                   inventory_input
     0000108F  A$lcc761631$63                     inventory_input
     00001091  A$lcc761631$64                     inventory_input
     00001093  A$lcc761631$65                     inventory_input
     00001096  A$lcc761631$66                     inventory_input
     00001098  A$lcc761631$67                     inventory_input
     0000109A  A$lcc761631$71                     inventory_input
     0000109A  C$inventory_input.c$25$3_0$151     inventory_input
     0000109D  A$lcc761631$72                     inventory_input
     000010A0  A$lcc761631$73                     inventory_input
     000010A1  A$lcc761631$74                     inventory_input
     000010A2  A$lcc761631$75                     inventory_input
     000010A3  A$lcc761631$76                     inventory_input
     000010A4  A$lcc761631$77                     inventory_input
     000010A5  A$lcc761631$78                     inventory_input
     000010A6  A$lcc761631$79                     inventory_input
     000010A7  A$lcc761631$80                     inventory_input
ASxxxx Linker V03.00/V05.40 + sdld,  page 35.
Hexadecimal  [32-Bits]

Area                                    Addr        Size        Decimal Bytes (Attributes)
--------------------------------        ----        ----        ------- ----- ------------
_CODE                               00000200    00002728 =       10024. bytes (REL,CON)

      Value  Global                              Global Defined In Module
      -----  --------------------------------   ------------------------
     000010AA  A$lcc761631$81                     inventory_input
     000010AC  A$lcc761631$82                     inventory_input
     000010AD  A$lcc761631$83                     inventory_input
     000010AF  A$lcc761631$84                     inventory_input
     000010B0  A$lcc761631$85                     inventory_input
     000010B1  A$lcc761631$86                     inventory_input
     000010B4  A$lcc761631$90                     inventory_input
     000010B4  C$inventory_input.c$26$3_0$151     inventory_input
     000010B7  A$lcc761631$91                     inventory_input
     000010BA  A$lcc761631$92                     inventory_input
     000010BB  A$lcc761631$93                     inventory_input
     000010BD  A$lcc761631$94                     inventory_input
     000010BE  A$lcc761631$95                     inventory_input
     000010C0  A$lcc761631$99                     inventory_input
     000010C0  C$inventory_input.c$27$3_0$151     inventory_input
     000010C3  A$lcc761631$100                    inventory_input
     000010C6  A$lcc761631$108                    inventory_input
     000010C6  C$inventory_input.c$26$1_1$149     inventory_input
     000010C9  A$lcc761631$109                    inventory_input
     000010CA  A$lcc761631$113                    inventory_input
     000010CA  C$inventory_input.c$30$1_1$152     inventory_input
     000010CD  A$lcc761631$114                    inventory_input
     000010CF  A$lcc761631$115                    inventory_input
     000010D0  A$lcc761631$116                    inventory_input
     000010D1  A$lcc761631$120                    inventory_input
     000010D1  C$inventory_input.c$31$1_1$152     inventory_input
     000010D4  A$lcc761631$121                    inventory_input
     000010D6  A$lcc761631$122                    inventory_input
     000010D7  A$lcc761631$123                    inventory_input
     000010D8  A$lcc761631$127                    inventory_input
     000010D8  C$inventory_input.c$23$1_1$149     inventory_input
     000010DB  A$lcc761631$128                    inventory_input
     000010DC  A$lcc761631$129                    inventory_input
     000010DF  A$lcc761631$133                    inventory_input
     000010DF  C$inventory_input.c$33$2_1$153     inventory_input
     000010E1  A$lcc761631$134                    inventory_input
     000010E3  A$lcc761631$135                    inventory_input
     000010E5  A$lcc761631$136                    inventory_input
     000010E7  A$lcc761631$140                    inventory_input
     000010E7  C$inventory_input.c$35$3_1$154     inventory_input
     000010E8  A$lcc761631$141                    inventory_input
     000010EA  A$lcc761631$142                    inventory_input
     000010EB  A$lcc761631$143                    inventory_input
     000010ED  A$lcc761631$148                    inventory_input
     000010ED  C$inventory_input.c$37$3_1$155     inventory_input
     000010EF  A$lcc761631$149                    inventory_input
     000010F1  A$lcc761631$150                    inventory_input
     000010F3  A$lcc761631$151                    inventory_input
     000010F5  A$lcc761631$155                    inventory_input
     000010F5  C$inventory_input.c$39$4_1$156     inventory_input
     000010F6  A$lcc761631$156                    inventory_input
ASxxxx Linker V03.00/V05.40 + sdld,  page 36.
Hexadecimal  [32-Bits]

Area                                    Addr        Size        Decimal Bytes (Attributes)
--------------------------------        ----        ----        ------- ----- ------------
_CODE                               00000200    00002728 =       10024. bytes (REL,CON)

      Value  Global                              Global Defined In Module
      -----  --------------------------------   ------------------------
     000010F8  A$lcc761631$157                    inventory_input
     000010F9  A$lcc761631$158                    inventory_input
     000010FB  A$lcc761631$163                    inventory_input
     000010FB  C$inventory_input.c$41$4_1$157     inventory_input
     000010FD  A$lcc761631$164                    inventory_input
     000010FF  A$lcc761631$165                    inventory_input
     00001101  A$lcc761631$166                    inventory_input
     00001103  A$lcc761631$170                    inventory_input
     00001103  C$inventory_input.c$43$5_1$158     inventory_input
     00001104  A$lcc761631$171                    inventory_input
     00001106  A$lcc761631$172                    inventory_input
     00001107  A$lcc761631$173                    inventory_input
     00001109  A$lcc761631$178                    inventory_input
     00001109  C$inventory_input.c$45$5_1$159     inventory_input
     0000110B  A$lcc761631$179                    inventory_input
     0000110D  A$lcc761631$180                    inventory_input
     0000110F  A$lcc761631$181                    inventory_input
     00001111  A$lcc761631$185                    inventory_input
     00001111  C$inventory_input.c$47$6_1$160     inventory_input
     00001112  A$lcc761631$186                    inventory_input
     00001114  A$lcc761631$187                    inventory_input
     00001115  A$lcc761631$192                    inventory_input
     00001115  C$inventory_input.c$50$2_1$161     inventory_input
     00001117  A$lcc761631$193                    inventory_input
     00001118  A$lcc761631$194                    inventory_input
     0000111A  A$lcc761631$198                    inventory_input
     0000111A  C$inventory_input.c$51$2_1$161     inventory_input
     0000111C  A$lcc761631$203                    inventory_input
     0000111C  C$inventory_input.c$52$2_1$162     inventory_input
     0000111D  A$lcc761631$204                    inventory_input
     0000111F  A$lcc761631$205                    inventory_input
     00001121  A$lcc761631$209                    inventory_input
     00001121  C$inventory_input.c$53$2_1$162     inventory_input
     00001123  A$lcc761631$214                    inventory_input
     00001123  C$inventory_input.c$55$2_1$163     inventory_input
     00001125  A$lcc761631$215                    inventory_input
     00001126  A$lcc761631$216                    inventory_input
     00001128  A$lcc761631$220                    inventory_input
     00001128  C$inventory_input.c$56$2_1$163     inventory_input
     0000112A  A$lcc761631$225                    inventory_input
     0000112A  C$inventory_input.c$57$2_1$164     inventory_input
     0000112B  A$lcc761631$226                    inventory_input
     0000112D  A$lcc761631$227                    inventory_input
     0000112F  A$lcc761631$231                    inventory_input
     0000112F  C$inventory_input.c$58$2_1$164     inventory_input
     00001131  A$lcc761631$236                    inventory_input
     00001131  C$inventory_input.c$60$1_1$152     inventory_input
     00001132  A$lcc761631$240                    inventory_input
     00001132  C$inventory_input.c$61$1_1$152     inventory_input
     00001135  A$lcc761631$241                    inventory_input
     00001136  A$lcc761631$242                    inventory_input
ASxxxx Linker V03.00/V05.40 + sdld,  page 37.
Hexadecimal  [32-Bits]

Area                                    Addr        Size        Decimal Bytes (Attributes)
--------------------------------        ----        ----        ------- ----- ------------
_CODE                               00000200    00002728 =       10024. bytes (REL,CON)

      Value  Global                              Global Defined In Module
      -----  --------------------------------   ------------------------
     00001138  A$lcc761631$243                    inventory_input
     0000113B  A$lcc761631$244                    inventory_input
     0000113C  A$lcc761631$245                    inventory_input
     0000113D  A$lcc761631$253                    inventory_input
     0000113D  C$inventory_input.c$64$1_1$149     inventory_input
     0000113D  XG$inventory_input$0$0             inventory_input
     0000113E  G$top_limit$0_0$0                  inventory_input
     0000113E  _top_limit                         inventory_input
     0000113F  G$bottom_limit$0_0$0               inventory_input
     0000113F  _bottom_limit                      inventory_input
     00001140  G$left_limit$0_0$0                 inventory_input
     00001140  _left_limit                        inventory_input
     00001141  G$right_limit$0_0$0                inventory_input
     00001141  _right_limit                       inventory_input
     00001142  G$VERTICAL_MOVEMENT$0_0$0          inventory_input
     00001142  _VERTICAL_MOVEMENT                 inventory_input
     00001143  G$HORIZONTAL_MOVEMENT$0_0$0        inventory_input
     00001143  _HORIZONTAL_MOVEMENT               inventory_input
     00001144  A$lcc761632$64                     load
     00001144  C$load.c$10$0_0$134                load
     00001144  G$load_actor_tiles$0$0             load
     00001144  _load_actor_tiles                  load
     00001146  A$lcc761632$65                     load
     00001148  A$lcc761632$66                     load
     00001149  A$lcc761632$67                     load
     0000114A  A$lcc761632$68                     load
     0000114B  A$lcc761632$69                     load
     0000114C  A$lcc761632$70                     load
     0000114D  A$lcc761632$74                     load
     0000114D  C$load.c$12$2_0$134                load
     00001150  A$lcc761632$75                     load
     00001151  A$lcc761632$79                     load
     00001151  C$load.c$15$1_0$134                load
     00001153  A$lcc761632$81                     load
     00001154  A$lcc761632$82                     load
     00001156  A$lcc761632$83                     load
     00001157  A$lcc761632$84                     load
     00001159  A$lcc761632$88                     load
     00001159  C$load.c$17$3_0$136                load
     0000115A  A$lcc761632$89                     load
     0000115C  A$lcc761632$90                     load
     0000115D  A$lcc761632$91                     load
     0000115E  A$lcc761632$92                     load
     0000115F  A$lcc761632$93                     load
     00001161  A$lcc761632$94                     load
     00001162  A$lcc761632$95                     load
     00001163  A$lcc761632$96                     load
     00001164  A$lcc761632$97                     load
     00001165  A$lcc761632$98                     load
     00001166  A$lcc761632$99                     load
     00001167  A$lcc761632$100                    load
ASxxxx Linker V03.00/V05.40 + sdld,  page 38.
Hexadecimal  [32-Bits]

Area                                    Addr        Size        Decimal Bytes (Attributes)
--------------------------------        ----        ----        ------- ----- ------------
_CODE                               00000200    00002728 =       10024. bytes (REL,CON)

      Value  Global                              Global Defined In Module
      -----  --------------------------------   ------------------------
     00001168  A$lcc761632$101                    load
     00001169  A$lcc761632$102                    load
     0000116A  A$lcc761632$103                    load
     0000116B  A$lcc761632$104                    load
     0000116C  A$lcc761632$105                    load
     0000116D  A$lcc761632$106                    load
     0000116E  A$lcc761632$107                    load
     0000116F  A$lcc761632$108                    load
     00001170  A$lcc761632$109                    load
     00001171  A$lcc761632$110                    load
     00001172  A$lcc761632$111                    load
     00001174  A$lcc761632$112                    load
     00001175  A$lcc761632$113                    load
     00001176  A$lcc761632$114                    load
     00001177  A$lcc761632$115                    load
     00001178  A$lcc761632$116                    load
     0000117B  A$lcc761632$117                    load
     0000117D  A$lcc761632$121                    load
     0000117D  C$load.c$15$2_0$135                load
     0000117E  A$lcc761632$122                    load
     00001180  A$lcc761632$127                    load
     00001180  C$load.c$21$1_0$134                load
     00001183  A$lcc761632$128                    load
     00001185  A$lcc761632$129                    load
     00001186  A$lcc761632$130                    load
     00001188  A$lcc761632$131                    load
     00001189  A$lcc761632$132                    load
     0000118A  A$lcc761632$133                    load
     0000118B  A$lcc761632$134                    load
     0000118C  A$lcc761632$135                    load
     0000118D  A$lcc761632$139                    load
     0000118D  C$load.c$22$1_0$134                load
     00001190  A$lcc761632$140                    load
     00001192  A$lcc761632$141                    load
     00001193  A$lcc761632$142                    load
     00001195  A$lcc761632$143                    load
     00001196  A$lcc761632$144                    load
     00001197  A$lcc761632$145                    load
     00001198  A$lcc761632$146                    load
     0000119A  A$lcc761632$147                    load
     0000119B  A$lcc761632$148                    load
     0000119C  A$lcc761632$152                    load
     0000119C  C$load.c$25$1_0$134                load
     0000119F  A$lcc761632$153                    load
     000011A1  A$lcc761632$154                    load
     000011A2  A$lcc761632$155                    load
     000011A5  A$lcc761632$159                    load
     000011A5  C$load.c$27$1_0$134                load
     000011A6  A$lcc761632$163                    load
     000011A6  C$load.c$28$1_0$134                load
     000011A8  A$lcc761632$164                    load
ASxxxx Linker V03.00/V05.40 + sdld,  page 39.
Hexadecimal  [32-Bits]

Area                                    Addr        Size        Decimal Bytes (Attributes)
--------------------------------        ----        ----        ------- ----- ------------
_CODE                               00000200    00002728 =       10024. bytes (REL,CON)

      Value  Global                              Global Defined In Module
      -----  --------------------------------   ------------------------
     000011A9  A$lcc761632$165                    load
     000011AA  A$lcc761632$166                    load
     000011AB  A$lcc761632$176                    load
     000011AB  C$load.c$30$1_0$138                load
     000011AB  G$load_extra_tiles$0$0             load
     000011AB  _load_extra_tiles                  load
     000011AD  A$lcc761632$177                    load
     000011AE  A$lcc761632$181                    load
     000011AE  C$load.c$32$2_0$139                load
     000011B1  A$lcc761632$182                    load
     000011B2  A$lcc761632$183                    load
     000011B4  A$lcc761632$184                    load
     000011B6  A$lcc761632$188                    load
     000011B6  C$load.c$33$2_0$139                load
     000011B8  A$lcc761632$193                    load
     000011B8  C$load.c$35$2_0$140                load
     000011BB  A$lcc761632$194                    load
     000011BC  A$lcc761632$198                    load
     000011BC  C$load.c$37$1_1$140                load
     000011BD  A$lcc761632$199                    load
     000011BF  A$lcc761632$200                    load
     000011C0  A$lcc761632$201                    load
     000011C1  A$lcc761632$202                    load
     000011C2  A$lcc761632$203                    load
     000011C3  A$lcc761632$204                    load
     000011C4  A$lcc761632$205                    load
     000011C7  A$lcc761632$206                    load
     000011C9  A$lcc761632$210                    load
     000011C9  C$load.c$39$1_1$140                load
     000011CC  A$lcc761632$211                    load
     000011CE  A$lcc761632$212                    load
     000011CF  A$lcc761632$213                    load
     000011D2  A$lcc761632$217                    load
     000011D2  C$load.c$42$1_2$141                load
     000011D4  A$lcc761632$218                    load
     000011D5  A$lcc761632$222                    load
     000011D5  C$load.c$43$1_2$141                load
     000011D7  A$lcc761632$223                    load
     000011D8  A$lcc761632$224                    load
     000011DA  A$lcc761632$228                    load
     000011DA  C$load.c$44$1_2$141                load
     000011DB  A$lcc761632$229                    load
     000011DC  A$lcc761632$233                    load
     000011DC  C$load.c$46$1_2$141                load
     000011DF  A$lcc761632$234                    load
     000011E0  A$lcc761632$235                    load
     000011E2  A$lcc761632$236                    load
     000011E3  A$lcc761632$237                    load
     000011E4  A$lcc761632$238                    load
     000011E5  A$lcc761632$239                    load
     000011E6  A$lcc761632$240                    load
ASxxxx Linker V03.00/V05.40 + sdld,  page 40.
Hexadecimal  [32-Bits]

Area                                    Addr        Size        Decimal Bytes (Attributes)
--------------------------------        ----        ----        ------- ----- ------------
_CODE                               00000200    00002728 =       10024. bytes (REL,CON)

      Value  Global                              Global Defined In Module
      -----  --------------------------------   ------------------------
     000011E9  A$lcc761632$241                    load
     000011EA  A$lcc761632$242                    load
     000011EB  A$lcc761632$243                    load
     000011EC  A$lcc761632$244                    load
     000011EF  A$lcc761632$245                    load
     000011F0  A$lcc761632$246                    load
     000011F3  A$lcc761632$247                    load
     000011F4  A$lcc761632$248                    load
     000011F5  A$lcc761632$249                    load
     000011F6  A$lcc761632$250                    load
     000011F9  A$lcc761632$254                    load
     000011F9  C$load.c$48$1_2$141                load
     000011FC  A$lcc761632$255                    load
     000011FD  A$lcc761632$256                    load
     00001200  A$lcc761632$257                    load
     00001201  A$lcc761632$258                    load
     00001202  A$lcc761632$262                    load
     00001202  C$load.c$49$1_2$138                load
     00001204  A$lcc761632$263                    load
     00001205  A$lcc761632$264                    load
     00001206  A$lcc761632$265                    load
     00001207  A$lcc761632$278                    load
     00001207  C$load.c$51$1_2$142                load
     00001207  C$load.c$53$1_0$142                load
     00001207  G$reset_extra_tiles$0$0            load
     00001207  _reset_extra_tiles                 load
     0000120A  A$lcc761632$279                    load
     0000120C  A$lcc761632$287                    load
     0000120C  C$load.c$54$1_0$142                load
     0000120C  XG$reset_extra_tiles$0$0           load
     0000120D  A$lcc761632$300                    load
     0000120D  C$load.c$56$1_0$144                load
     0000120D  C$load.c$58$3_0$146                load
     0000120D  G$reset_render_component$0$0       load
     0000120D  _reset_render_component            load
     0000120F  A$lcc761632$302                    load
     00001210  A$lcc761632$303                    load
     00001213  A$lcc761632$304                    load
     00001214  A$lcc761632$305                    load
     00001216  A$lcc761632$309                    load
     00001216  C$load.c$60$3_0$146                load
     00001219  A$lcc761632$310                    load
     0000121B  A$lcc761632$311                    load
     0000121C  A$lcc761632$312                    load
     0000121E  A$lcc761632$316                    load
     0000121E  C$load.c$61$3_0$146                load
     00001221  A$lcc761632$317                    load
     00001223  A$lcc761632$318                    load
     00001224  A$lcc761632$319                    load
     00001226  A$lcc761632$323                    load
     00001226  C$load.c$58$2_0$145                load
ASxxxx Linker V03.00/V05.40 + sdld,  page 41.
Hexadecimal  [32-Bits]

Area                                    Addr        Size        Decimal Bytes (Attributes)
--------------------------------        ----        ----        ------- ----- ------------
_CODE                               00000200    00002728 =       10024. bytes (REL,CON)

      Value  Global                              Global Defined In Module
      -----  --------------------------------   ------------------------
     00001227  A$lcc761632$324                    load
     00001229  A$lcc761632$329                    load
     00001229  C$load.c$64$1_0$144                load
     0000122A  A$lcc761632$330                    load
     0000122D  A$lcc761632$338                    load
     0000122D  C$load.c$65$1_0$144                load
     0000122D  XG$reset_render_component$0$0      load
     0000122E  A$lcc761633$57                     map_scenes
     0000122E  C$map_scenes.c$17$0_0$173          map_scenes
     0000122E  G$scene_manager_MapScene$0$0       map_scenes
     0000122E  _scene_manager_MapScene            map_scenes
     0000122F  A$lcc761633$61                     map_scenes
     0000122F  C$map_scenes.c$19$2_0$173          map_scenes
     00001231  A$lcc761633$62                     map_scenes
     00001232  A$lcc761633$63                     map_scenes
     00001234  A$lcc761633$64                     map_scenes
     00001236  A$lcc761633$65                     map_scenes
     00001239  A$lcc761633$66                     map_scenes
     0000123A  A$lcc761633$67                     map_scenes
     0000123B  A$lcc761633$68                     map_scenes
     0000123C  A$lcc761633$69                     map_scenes
     0000123D  A$lcc761633$70                     map_scenes
     0000123E  A$lcc761633$71                     map_scenes
     0000123F  A$lcc761633$72                     map_scenes
     0000124A  A$lcc761633$86                     map_scenes
     0000124A  C$map_scenes.c$21$3_0$174          map_scenes
     0000124A  C$map_scenes.c$22$3_0$174          map_scenes
     0000124D  A$lcc761633$90                     map_scenes
     0000124D  C$map_scenes.c$23$3_0$174          map_scenes
     00001250  A$lcc761633$91                     map_scenes
     00001251  A$lcc761633$99                     map_scenes
     00001251  C$map_scenes.c$24$3_0$174          map_scenes
     00001251  C$map_scenes.c$25$3_0$174          map_scenes
     00001254  A$lcc761633$103                    map_scenes
     00001254  C$map_scenes.c$26$3_0$174          map_scenes
     00001257  A$lcc761633$104                    map_scenes
     00001258  A$lcc761633$112                    map_scenes
     00001258  C$map_scenes.c$27$3_0$174          map_scenes
     00001258  C$map_scenes.c$28$3_0$174          map_scenes
     0000125B  A$lcc761633$116                    map_scenes
     0000125B  C$map_scenes.c$29$3_0$174          map_scenes
     0000125E  A$lcc761633$117                    map_scenes
     0000125F  A$lcc761633$125                    map_scenes
     0000125F  C$map_scenes.c$32$3_0$174          map_scenes
     0000125F  C$map_scenes.c$33$3_0$174          map_scenes
     00001262  A$lcc761633$129                    map_scenes
     00001262  C$map_scenes.c$34$3_0$174          map_scenes
     00001265  A$lcc761633$130                    map_scenes
     00001266  A$lcc761633$138                    map_scenes
     00001266  C$map_scenes.c$36$3_0$174          map_scenes
     00001266  C$map_scenes.c$37$3_0$174          map_scenes
ASxxxx Linker V03.00/V05.40 + sdld,  page 42.
Hexadecimal  [32-Bits]

Area                                    Addr        Size        Decimal Bytes (Attributes)
--------------------------------        ----        ----        ------- ----- ------------
_CODE                               00000200    00002728 =       10024. bytes (REL,CON)

      Value  Global                              Global Defined In Module
      -----  --------------------------------   ------------------------
     00001269  A$lcc761633$142                    map_scenes
     00001269  C$map_scenes.c$38$3_0$174          map_scenes
     0000126C  A$lcc761633$143                    map_scenes
     0000126D  A$lcc761633$151                    map_scenes
     0000126D  C$map_scenes.c$39$3_0$174          map_scenes
     0000126D  C$map_scenes.c$40$3_0$174          map_scenes
     00001270  A$lcc761633$162                    map_scenes
     00001270  C$map_scenes.c$41$2_0$173          map_scenes
     00001270  C$map_scenes.c$42$2_0$173          map_scenes
     00001270  XG$scene_manager_MapScene$0$0      map_scenes
     00001271  A$lcc761634$56                     money
     00001271  C$money.c$5$0_0$3                  money
     00001271  G$add_money$0$0                    money
     00001271  _add_money                         money
     00001272  A$lcc761634$60                     money
     00001272  C$money.c$6$1_0$3                  money
     00001273  A$lcc761634$61                     money
     00001275  A$lcc761634$62                     money
     00001276  A$lcc761634$63                     money
     00001277  A$lcc761634$64                     money
     00001278  A$lcc761634$65                     money
     00001279  A$lcc761634$66                     money
     0000127A  A$lcc761634$67                     money
     0000127B  A$lcc761634$68                     money
     0000127C  A$lcc761634$69                     money
     0000127D  A$lcc761634$70                     money
     0000127E  A$lcc761634$71                     money
     00001281  A$lcc761634$72                     money
     00001282  A$lcc761634$73                     money
     00001285  A$lcc761634$74                     money
     00001286  A$lcc761634$75                     money
     00001287  A$lcc761634$76                     money
     00001288  A$lcc761634$77                     money
     00001289  A$lcc761634$78                     money
     0000128A  A$lcc761634$79                     money
     0000128B  A$lcc761634$80                     money
     0000128E  A$lcc761634$81                     money
     0000128F  A$lcc761634$82                     money
     00001290  A$lcc761634$83                     money
     00001291  A$lcc761634$87                     money
     00001291  C$money.c$7$1_0$3                  money
     00001293  A$lcc761634$88                     money
     00001294  A$lcc761634$89                     money
     00001295  A$lcc761634$90                     money
     00001296  A$lcc761634$91                     money
     00001297  A$lcc761634$92                     money
     00001298  A$lcc761634$93                     money
     00001299  A$lcc761634$94                     money
     0000129A  A$lcc761634$95                     money
     0000129B  A$lcc761634$96                     money
     0000129C  A$lcc761634$97                     money
ASxxxx Linker V03.00/V05.40 + sdld,  page 43.
Hexadecimal  [32-Bits]

Area                                    Addr        Size        Decimal Bytes (Attributes)
--------------------------------        ----        ----        ------- ----- ------------
_CODE                               00000200    00002728 =       10024. bytes (REL,CON)

      Value  Global                              Global Defined In Module
      -----  --------------------------------   ------------------------
     0000129D  A$lcc761634$98                     money
     0000129E  A$lcc761634$99                     money
     0000129F  A$lcc761634$100                    money
     000012A2  A$lcc761634$101                    money
     000012A5  A$lcc761634$102                    money
     000012A6  A$lcc761634$103                    money
     000012A7  A$lcc761634$104                    money
     000012A8  A$lcc761634$105                    money
     000012A9  A$lcc761634$106                    money
     000012AA  A$lcc761634$107                    money
     000012AB  A$lcc761634$108                    money
     000012AC  A$lcc761634$109                    money
     000012AD  A$lcc761634$110                    money
     000012AE  A$lcc761634$118                    money
     000012AE  C$money.c$8$1_0$3                  money
     000012AE  XG$add_money$0$0                   money
     000012AF  A$lcc761636$75                     npcs
     000012AF  C$npcs.c$21$0_0$135                npcs
     000012AF  C$npcs.c$23$1_0$135                npcs
     000012AF  G$init_NPCs$0$0                    npcs
     000012AF  _init_NPCs                         npcs
     000012B2  A$lcc761636$76                     npcs
     000012B5  A$lcc761636$80                     npcs
     000012B5  C$npcs.c$24$1_0$135                npcs
     000012B8  A$lcc761636$81                     npcs
     000012BB  A$lcc761636$85                     npcs
     000012BB  C$npcs.c$25$1_0$135                npcs
     000012BE  A$lcc761636$86                     npcs
     000012C1  A$lcc761636$94                     npcs
     000012C1  C$npcs.c$26$1_0$135                npcs
     000012C1  XG$init_NPCs$0$0                   npcs
     000012C2  A$lcc761636$104                    npcs
     000012C2  C$npcs.c$28$1_0$137                npcs
     000012C2  G$Scene_DrawNPCLine$0$0            npcs
     000012C2  _Scene_DrawNPCLine                 npcs
     000012C4  A$lcc761636$105                    npcs
     000012C6  A$lcc761636$106                    npcs
     000012C7  A$lcc761636$110                    npcs
     000012C7  C$npcs.c$36$1_0$137                npcs
     000012C9  A$lcc761636$111                    npcs
     000012CC  A$lcc761636$112                    npcs
     000012CD  A$lcc761636$113                    npcs
     000012CE  A$lcc761636$114                    npcs
     000012CF  A$lcc761636$115                    npcs
     000012D1  A$lcc761636$116                    npcs
     000012D2  A$lcc761636$117                    npcs
     000012D3  A$lcc761636$118                    npcs
     000012D4  A$lcc761636$119                    npcs
     000012D6  A$lcc761636$120                    npcs
     000012D7  A$lcc761636$121                    npcs
     000012D8  A$lcc761636$122                    npcs
ASxxxx Linker V03.00/V05.40 + sdld,  page 44.
Hexadecimal  [32-Bits]

Area                                    Addr        Size        Decimal Bytes (Attributes)
--------------------------------        ----        ----        ------- ----- ------------
_CODE                               00000200    00002728 =       10024. bytes (REL,CON)

      Value  Global                              Global Defined In Module
      -----  --------------------------------   ------------------------
     000012D9  A$lcc761636$123                    npcs
     000012DA  A$lcc761636$124                    npcs
     000012DB  A$lcc761636$125                    npcs
     000012DD  A$lcc761636$126                    npcs
     000012DE  A$lcc761636$130                    npcs
     000012DE  C$npcs.c$38$1_0$137                npcs
     000012E1  A$lcc761636$131                    npcs
     000012E3  A$lcc761636$132                    npcs
     000012E4  A$lcc761636$133                    npcs
     000012E5  A$lcc761636$134                    npcs
     000012E6  A$lcc761636$135                    npcs
     000012E7  A$lcc761636$136                    npcs
     000012E8  A$lcc761636$137                    npcs
     000012E9  A$lcc761636$138                    npcs
     000012EA  A$lcc761636$139                    npcs
     000012EB  A$lcc761636$140                    npcs
     000012EC  A$lcc761636$144                    npcs
     000012EC  C$npcs.c$40$1_0$137                npcs
     000012EF  A$lcc761636$145                    npcs
     000012F0  A$lcc761636$146                    npcs
     000012F1  A$lcc761636$147                    npcs
     000012F2  A$lcc761636$148                    npcs
     000012F4  A$lcc761636$149                    npcs
     000012F5  A$lcc761636$150                    npcs
     000012F6  A$lcc761636$151                    npcs
     000012F7  A$lcc761636$152                    npcs
     000012F8  A$lcc761636$153                    npcs
     000012F9  A$lcc761636$154                    npcs
     000012FA  A$lcc761636$155                    npcs
     000012FB  A$lcc761636$156                    npcs
     000012FC  A$lcc761636$157                    npcs
     000012FD  A$lcc761636$158                    npcs
     000012FE  A$lcc761636$159                    npcs
     00001300  A$lcc761636$160                    npcs
     00001301  A$lcc761636$161                    npcs
     00001302  A$lcc761636$162                    npcs
     00001303  A$lcc761636$163                    npcs
     00001304  A$lcc761636$164                    npcs
     00001305  A$lcc761636$168                    npcs
     00001305  C$npcs.c$41$1_0$137                npcs
     00001308  A$lcc761636$169                    npcs
     00001309  A$lcc761636$170                    npcs
     0000130A  A$lcc761636$171                    npcs
     0000130B  A$lcc761636$175                    npcs
     0000130B  C$npcs.c$44$1_2$137                npcs
     0000130C  A$lcc761636$176                    npcs
     0000130E  A$lcc761636$177                    npcs
     0000130F  A$lcc761636$178                    npcs
     00001310  A$lcc761636$180                    npcs
     00001311  A$lcc761636$181                    npcs
     00001313  A$lcc761636$182                    npcs
ASxxxx Linker V03.00/V05.40 + sdld,  page 45.
Hexadecimal  [32-Bits]

Area                                    Addr        Size        Decimal Bytes (Attributes)
--------------------------------        ----        ----        ------- ----- ------------
_CODE                               00000200    00002728 =       10024. bytes (REL,CON)

      Value  Global                              Global Defined In Module
      -----  --------------------------------   ------------------------
     00001314  A$lcc761636$183                    npcs
     00001315  A$lcc761636$184                    npcs
     00001316  A$lcc761636$185                    npcs
     00001318  A$lcc761636$186                    npcs
     00001319  A$lcc761636$187                    npcs
     0000131A  A$lcc761636$188                    npcs
     0000131B  A$lcc761636$189                    npcs
     0000131C  A$lcc761636$190                    npcs
     0000131D  A$lcc761636$191                    npcs
     0000131E  A$lcc761636$192                    npcs
     0000131F  A$lcc761636$193                    npcs
     00001320  A$lcc761636$194                    npcs
     00001321  A$lcc761636$195                    npcs
     00001323  A$lcc761636$199                    npcs
     00001323  C$npcs.c$46$3_0$139                npcs
     00001324  A$lcc761636$200                    npcs
     00001327  A$lcc761636$201                    npcs
     00001328  A$lcc761636$202                    npcs
     00001329  A$lcc761636$203                    npcs
     0000132B  A$lcc761636$204                    npcs
     0000132D  A$lcc761636$205                    npcs
     0000132E  A$lcc761636$209                    npcs
     0000132E  C$npcs.c$47$3_0$139                npcs
     00001330  A$lcc761636$210                    npcs
     00001331  A$lcc761636$211                    npcs
     00001332  A$lcc761636$212                    npcs
     00001333  A$lcc761636$213                    npcs
     00001336  A$lcc761636$214                    npcs
     00001337  A$lcc761636$215                    npcs
     00001338  A$lcc761636$216                    npcs
     0000133B  A$lcc761636$217                    npcs
     0000133C  A$lcc761636$218                    npcs
     0000133E  A$lcc761636$219                    npcs
     0000133F  A$lcc761636$220                    npcs
     00001340  A$lcc761636$221                    npcs
     00001341  A$lcc761636$222                    npcs
     00001342  A$lcc761636$223                    npcs
     00001345  A$lcc761636$224                    npcs
     00001347  A$lcc761636$225                    npcs
     00001348  A$lcc761636$229                    npcs
     00001348  C$npcs.c$44$2_0$138                npcs
     0000134A  A$lcc761636$230                    npcs
     0000134B  A$lcc761636$231                    npcs
     0000134D  A$lcc761636$232                    npcs
     0000134E  A$lcc761636$233                    npcs
     0000134F  A$lcc761636$234                    npcs
     00001351  A$lcc761636$239                    npcs
     00001351  C$npcs.c$51$1_2$137                npcs
     00001352  A$lcc761636$240                    npcs
     00001354  A$lcc761636$241                    npcs
     00001355  A$lcc761636$242                    npcs
ASxxxx Linker V03.00/V05.40 + sdld,  page 46.
Hexadecimal  [32-Bits]

Area                                    Addr        Size        Decimal Bytes (Attributes)
--------------------------------        ----        ----        ------- ----- ------------
_CODE                               00000200    00002728 =       10024. bytes (REL,CON)

      Value  Global                              Global Defined In Module
      -----  --------------------------------   ------------------------
     00001356  A$lcc761636$244                    npcs
     00001357  A$lcc761636$245                    npcs
     00001359  A$lcc761636$246                    npcs
     0000135A  A$lcc761636$247                    npcs
     0000135B  A$lcc761636$248                    npcs
     0000135C  A$lcc761636$249                    npcs
     0000135D  A$lcc761636$250                    npcs
     0000135E  A$lcc761636$251                    npcs
     0000135F  A$lcc761636$252                    npcs
     00001360  A$lcc761636$253                    npcs
     00001361  A$lcc761636$254                    npcs
     00001362  A$lcc761636$255                    npcs
     00001364  A$lcc761636$259                    npcs
     00001364  C$npcs.c$53$3_0$141                npcs
     00001365  A$lcc761636$260                    npcs
     00001368  A$lcc761636$261                    npcs
     00001369  A$lcc761636$262                    npcs
     0000136A  A$lcc761636$263                    npcs
     0000136C  A$lcc761636$267                    npcs
     0000136C  C$npcs.c$54$3_0$141                npcs
     0000136E  A$lcc761636$268                    npcs
     0000136F  A$lcc761636$269                    npcs
     00001370  A$lcc761636$270                    npcs
     00001371  A$lcc761636$271                    npcs
     00001373  A$lcc761636$272                    npcs
     00001374  A$lcc761636$273                    npcs
     00001375  A$lcc761636$274                    npcs
     00001376  A$lcc761636$275                    npcs
     00001377  A$lcc761636$276                    npcs
     00001379  A$lcc761636$277                    npcs
     0000137A  A$lcc761636$278                    npcs
     0000137B  A$lcc761636$279                    npcs
     0000137D  A$lcc761636$280                    npcs
     0000137E  A$lcc761636$281                    npcs
     0000137F  A$lcc761636$282                    npcs
     00001381  A$lcc761636$283                    npcs
     00001382  A$lcc761636$284                    npcs
     00001383  A$lcc761636$285                    npcs
     00001384  A$lcc761636$286                    npcs
     00001385  A$lcc761636$287                    npcs
     00001388  A$lcc761636$288                    npcs
     0000138A  A$lcc761636$289                    npcs
     0000138B  A$lcc761636$293                    npcs
     0000138B  C$npcs.c$51$2_0$140                npcs
     0000138D  A$lcc761636$294                    npcs
     0000138E  A$lcc761636$295                    npcs
     00001390  A$lcc761636$296                    npcs
     00001391  A$lcc761636$297                    npcs
     00001392  A$lcc761636$298                    npcs
     00001394  A$lcc761636$303                    npcs
     00001396  A$lcc761636$304                    npcs
ASxxxx Linker V03.00/V05.40 + sdld,  page 47.
Hexadecimal  [32-Bits]

Area                                    Addr        Size        Decimal Bytes (Attributes)
--------------------------------        ----        ----        ------- ----- ------------
_CODE                               00000200    00002728 =       10024. bytes (REL,CON)

      Value  Global                              Global Defined In Module
      -----  --------------------------------   ------------------------
     00001397  A$lcc761636$305                    npcs
     00001399  A$lcc761636$306                    npcs
     0000139A  A$lcc761636$307                    npcs
     0000139B  A$lcc761636$308                    npcs
     0000139C  A$lcc761636$309                    npcs
     0000139D  A$lcc761636$310                    npcs
     0000139E  A$lcc761636$311                    npcs
     0000139F  A$lcc761636$312                    npcs
     000013A2  A$lcc761636$313                    npcs
     000013A3  A$lcc761636$314                    npcs
     000013A4  A$lcc761636$315                    npcs
     000013A5  A$lcc761636$316                    npcs
     000013A7  A$lcc761636$317                    npcs
     000013A8  A$lcc761636$318                    npcs
     000013A9  A$lcc761636$319                    npcs
     000013AA  A$lcc761636$320                    npcs
     000013AC  A$lcc761636$321                    npcs
     000013AD  A$lcc761636$322                    npcs
     000013B0  A$lcc761636$324                    npcs
     000013B2  A$lcc761636$325                    npcs
     000013B3  A$lcc761636$326                    npcs
     000013B4  A$lcc761636$327                    npcs
     000013B5  A$lcc761636$328                    npcs
     000013B6  A$lcc761636$329                    npcs
     000013B7  A$lcc761636$330                    npcs
     000013B8  A$lcc761636$331                    npcs
     000013B9  A$lcc761636$332                    npcs
     000013BA  A$lcc761636$333                    npcs
     000013BC  A$lcc761636$337                    npcs
     000013BC  C$npcs.c$60$3_0$143                npcs
     000013BD  A$lcc761636$338                    npcs
     000013C0  A$lcc761636$339                    npcs
     000013C1  A$lcc761636$340                    npcs
     000013C2  A$lcc761636$341                    npcs
     000013C3  A$lcc761636$342                    npcs
     000013C5  A$lcc761636$343                    npcs
     000013C7  A$lcc761636$344                    npcs
     000013C8  A$lcc761636$348                    npcs
     000013C8  C$npcs.c$61$3_0$143                npcs
     000013C9  A$lcc761636$349                    npcs
     000013CA  A$lcc761636$350                    npcs
     000013CD  A$lcc761636$351                    npcs
     000013CE  A$lcc761636$352                    npcs
     000013CF  A$lcc761636$353                    npcs
     000013D2  A$lcc761636$354                    npcs
     000013D3  A$lcc761636$355                    npcs
     000013D5  A$lcc761636$356                    npcs
     000013D6  A$lcc761636$357                    npcs
     000013D9  A$lcc761636$358                    npcs
     000013DB  A$lcc761636$362                    npcs
     000013DB  C$npcs.c$58$2_0$142                npcs
ASxxxx Linker V03.00/V05.40 + sdld,  page 48.
Hexadecimal  [32-Bits]

Area                                    Addr        Size        Decimal Bytes (Attributes)
--------------------------------        ----        ----        ------- ----- ------------
_CODE                               00000200    00002728 =       10024. bytes (REL,CON)

      Value  Global                              Global Defined In Module
      -----  --------------------------------   ------------------------
     000013DC  A$lcc761636$363                    npcs
     000013DE  A$lcc761636$368                    npcs
     000013DE  C$npcs.c$65$1_1$144                npcs
     000013E0  A$lcc761636$369                    npcs
     000013E1  A$lcc761636$370                    npcs
     000013E2  A$lcc761636$371                    npcs
     000013E3  A$lcc761636$372                    npcs
     000013E4  A$lcc761636$373                    npcs
     000013E6  A$lcc761636$374                    npcs
     000013E8  A$lcc761636$375                    npcs
     000013E9  A$lcc761636$379                    npcs
     000013E9  C$npcs.c$66$1_1$144                npcs
     000013EC  A$lcc761636$380                    npcs
     000013ED  A$lcc761636$381                    npcs
     000013EE  A$lcc761636$382                    npcs
     000013F1  A$lcc761636$383                    npcs
     000013F2  A$lcc761636$384                    npcs
     000013F5  A$lcc761636$385                    npcs
     000013F6  A$lcc761636$386                    npcs
     000013F9  A$lcc761636$387                    npcs
     000013FB  A$lcc761636$391                    npcs
     000013FB  C$npcs.c$69$2_1$145                npcs
     000013FD  A$lcc761636$392                    npcs
     000013FF  A$lcc761636$396                    npcs
     000013FF  C$npcs.c$70$1_2$145                npcs
     00001402  A$lcc761636$397                    npcs
     00001403  A$lcc761636$398                    npcs
     00001404  A$lcc761636$399                    npcs
     00001407  A$lcc761636$400                    npcs
     00001408  A$lcc761636$401                    npcs
     0000140B  A$lcc761636$402                    npcs
     0000140C  A$lcc761636$403                    npcs
     0000140F  A$lcc761636$407                    npcs
     0000140F  C$npcs.c$71$1_2$137                npcs
     00001411  A$lcc761636$408                    npcs
     00001412  A$lcc761636$409                    npcs
     00001414  A$lcc761636$410                    npcs
     00001415  A$lcc761638$70                     player
     00001415  C$player.c$10$0_0$157              player
     00001415  G$init_player$0$0                  player
     00001415  _init_player                       player
     00001417  A$lcc761638$74                     player
     00001417  C$player.c$12$1_0$157              player
     0000141A  A$lcc761638$75                     player
     0000141D  A$lcc761638$79                     player
     0000141D  C$player.c$13$1_0$157              player
     00001420  A$lcc761638$80                     player
     00001423  A$lcc761638$84                     player
     00001423  C$player.c$15$1_0$157              player
     00001426  A$lcc761638$85                     player
     00001427  A$lcc761638$86                     player
ASxxxx Linker V03.00/V05.40 + sdld,  page 49.
Hexadecimal  [32-Bits]

Area                                    Addr        Size        Decimal Bytes (Attributes)
--------------------------------        ----        ----        ------- ----- ------------
_CODE                               00000200    00002728 =       10024. bytes (REL,CON)

      Value  Global                              Global Defined In Module
      -----  --------------------------------   ------------------------
     00001429  A$lcc761638$87                     player
     0000142C  A$lcc761638$88                     player
     0000142D  A$lcc761638$89                     player
     0000142F  A$lcc761638$93                     player
     0000142F  C$player.c$16$1_0$157              player
     00001432  A$lcc761638$94                     player
     00001435  A$lcc761638$95                     player
     00001436  A$lcc761638$96                     player
     00001438  A$lcc761638$97                     player
     00001439  A$lcc761638$98                     player
     0000143B  A$lcc761638$102                    player
     0000143B  C$player.c$18$1_0$157              player
     0000143E  A$lcc761638$103                    player
     00001441  A$lcc761638$104                    player
     00001442  A$lcc761638$105                    player
     00001443  A$lcc761638$106                    player
     00001444  A$lcc761638$107                    player
     00001445  A$lcc761638$108                    player
     00001446  A$lcc761638$109                    player
     00001448  A$lcc761638$110                    player
     00001449  A$lcc761638$111                    player
     0000144B  A$lcc761638$115                    player
     0000144B  C$player.c$15$1_1$157              player
     0000144E  A$lcc761638$116                    player
     0000144F  A$lcc761638$120                    player
     0000144F  C$player.c$20$1_0$157              player
     00001450  A$lcc761638$121                    player
     00001452  A$lcc761638$122                    player
     00001453  A$lcc761638$123                    player
     00001454  A$lcc761638$124                    player
     00001457  A$lcc761638$128                    player
     00001457  C$player.c$22$1_0$157              player
     0000145A  A$lcc761638$129                    player
     0000145B  A$lcc761638$130                    player
     0000145D  A$lcc761638$131                    player
     0000145E  A$lcc761638$132                    player
     00001460  A$lcc761638$133                    player
     00001462  A$lcc761638$134                    player
     00001463  A$lcc761638$135                    player
     00001465  A$lcc761638$136                    player
     00001466  A$lcc761638$137                    player
     00001467  A$lcc761638$138                    player
     00001469  A$lcc761638$139                    player
     0000146B  A$lcc761638$140                    player
     0000146C  A$lcc761638$141                    player
     0000146D  A$lcc761638$142                    player
     0000146E  A$lcc761638$143                    player
     0000146F  A$lcc761638$144                    player
     00001470  A$lcc761638$145                    player
     00001471  A$lcc761638$149                    player
     00001471  C$player.c$23$1_0$157              player
ASxxxx Linker V03.00/V05.40 + sdld,  page 50.
Hexadecimal  [32-Bits]

Area                                    Addr        Size        Decimal Bytes (Attributes)
--------------------------------        ----        ----        ------- ----- ------------
_CODE                               00000200    00002728 =       10024. bytes (REL,CON)

      Value  Global                              Global Defined In Module
      -----  --------------------------------   ------------------------
     00001474  A$lcc761638$150                    player
     00001475  A$lcc761638$151                    player
     00001476  A$lcc761638$152                    player
     00001478  A$lcc761638$153                    player
     00001479  A$lcc761638$154                    player
     0000147B  A$lcc761638$155                    player
     0000147D  A$lcc761638$156                    player
     0000147E  A$lcc761638$157                    player
     0000147F  A$lcc761638$158                    player
     00001481  A$lcc761638$159                    player
     00001482  A$lcc761638$160                    player
     00001483  A$lcc761638$161                    player
     00001484  A$lcc761638$162                    player
     00001485  A$lcc761638$163                    player
     00001486  A$lcc761638$164                    player
     00001487  A$lcc761638$165                    player
     00001488  A$lcc761638$169                    player
     00001488  C$player.c$25$1_0$157              player
     0000148B  A$lcc761638$170                    player
     0000148C  A$lcc761638$171                    player
     0000148E  A$lcc761638$172                    player
     00001491  A$lcc761638$173                    player
     00001492  A$lcc761638$174                    player
     00001494  A$lcc761638$178                    player
     00001494  C$player.c$26$1_0$157              player
     00001497  A$lcc761638$179                    player
     0000149A  A$lcc761638$180                    player
     0000149B  A$lcc761638$181                    player
     0000149D  A$lcc761638$182                    player
     0000149E  A$lcc761638$183                    player
     000014A0  A$lcc761638$187                    player
     000014A0  C$player.c$27$1_0$157              player
     000014A3  A$lcc761638$188                    player
     000014A6  A$lcc761638$189                    player
     000014A7  A$lcc761638$190                    player
     000014A9  A$lcc761638$191                    player
     000014AA  A$lcc761638$192                    player
     000014AC  A$lcc761638$196                    player
     000014AC  C$player.c$30$2_0$158              player
     000014AF  A$lcc761638$197                    player
     000014B0  A$lcc761638$198                    player
     000014B1  A$lcc761638$199                    player
     000014B2  A$lcc761638$200                    player
     000014B4  A$lcc761638$201                    player
     000014B6  A$lcc761638$202                    player
     000014B7  A$lcc761638$203                    player
     000014B9  A$lcc761638$204                    player
     000014BA  A$lcc761638$205                    player
     000014BC  A$lcc761638$206                    player
     000014BD  A$lcc761638$207                    player
     000014BF  A$lcc761638$208                    player
ASxxxx Linker V03.00/V05.40 + sdld,  page 51.
Hexadecimal  [32-Bits]

Area                                    Addr        Size        Decimal Bytes (Attributes)
--------------------------------        ----        ----        ------- ----- ------------
_CODE                               00000200    00002728 =       10024. bytes (REL,CON)

      Value  Global                              Global Defined In Module
      -----  --------------------------------   ------------------------
     000014C0  A$lcc761638$209                    player
     000014C2  A$lcc761638$210                    player
     000014C3  A$lcc761638$211                    player
     000014C5  A$lcc761638$215                    player
     000014C5  C$player.c$36$2_0$158              player
     000014C6  A$lcc761638$216                    player
     000014C8  A$lcc761638$217                    player
     000014C9  A$lcc761638$218                    player
     000014CB  A$lcc761638$219                    player
     000014CC  A$lcc761638$220                    player
     000014CE  A$lcc761638$221                    player
     000014CF  A$lcc761638$222                    player
     000014D1  A$lcc761638$223                    player
     000014D2  A$lcc761638$224                    player
     000014D4  A$lcc761638$225                    player
     000014D5  A$lcc761638$226                    player
     000014D7  A$lcc761638$227                    player
     000014D8  A$lcc761638$228                    player
     000014DA  A$lcc761638$229                    player
     000014DB  A$lcc761638$230                    player
     000014DD  A$lcc761638$231                    player
     000014DE  A$lcc761638$232                    player
     000014DF  A$lcc761638$233                    player
     000014E0  A$lcc761638$234                    player
     000014E1  A$lcc761638$235                    player
     000014E2  A$lcc761638$236                    player
     000014E4  A$lcc761638$237                    player
     000014E5  A$lcc761638$238                    player
     000014E7  A$lcc761638$239                    player
     000014E8  A$lcc761638$240                    player
     000014EA  A$lcc761638$241                    player
     000014EB  A$lcc761638$242                    player
     000014ED  A$lcc761638$243                    player
     000014EE  A$lcc761638$244                    player
     000014F0  A$lcc761638$245                    player
     000014F1  A$lcc761638$246                    player
     000014F3  A$lcc761638$247                    player
     000014F4  A$lcc761638$248                    player
     000014F6  A$lcc761638$249                    player
     000014F7  A$lcc761638$250                    player
     000014F9  A$lcc761638$251                    player
     000014FA  A$lcc761638$252                    player
     000014FC  A$lcc761638$253                    player
     000014FD  A$lcc761638$254                    player
     000014FF  A$lcc761638$255                    player
     00001500  A$lcc761638$256                    player
     00001502  A$lcc761638$257                    player
     00001503  A$lcc761638$258                    player
     00001505  A$lcc761638$259                    player
     00001506  A$lcc761638$260                    player
     00001508  A$lcc761638$261                    player
ASxxxx Linker V03.00/V05.40 + sdld,  page 52.
Hexadecimal  [32-Bits]

Area                                    Addr        Size        Decimal Bytes (Attributes)
--------------------------------        ----        ----        ------- ----- ------------
_CODE                               00000200    00002728 =       10024. bytes (REL,CON)

      Value  Global                              Global Defined In Module
      -----  --------------------------------   ------------------------
     00001509  A$lcc761638$262                    player
     0000150B  A$lcc761638$263                    player
     0000150C  A$lcc761638$264                    player
     0000150D  A$lcc761638$265                    player
     0000150E  A$lcc761638$266                    player
     0000150F  A$lcc761638$267                    player
     00001510  A$lcc761638$268                    player
     00001512  A$lcc761638$269                    player
     00001513  A$lcc761638$270                    player
     00001515  A$lcc761638$271                    player
     00001516  A$lcc761638$272                    player
     00001518  A$lcc761638$273                    player
     00001519  A$lcc761638$274                    player
     0000151B  A$lcc761638$275                    player
     0000151C  A$lcc761638$276                    player
     0000151E  A$lcc761638$277                    player
     0000151F  A$lcc761638$278                    player
     00001521  A$lcc761638$282                    player
     00001521  C$player.c$59$2_0$158              player
     00001522  A$lcc761638$283                    player
     00001525  A$lcc761638$284                    player
     00001526  A$lcc761638$285                    player
     00001527  A$lcc761638$286                    player
     00001528  A$lcc761638$287                    player
     00001529  A$lcc761638$288                    player
     0000152B  A$lcc761638$289                    player
     0000152C  A$lcc761638$290                    player
     0000152E  A$lcc761638$291                    player
     0000152F  A$lcc761638$292                    player
     00001531  A$lcc761638$293                    player
     00001532  A$lcc761638$294                    player
     00001534  A$lcc761638$295                    player
     00001535  A$lcc761638$296                    player
     00001537  A$lcc761638$297                    player
     00001538  A$lcc761638$298                    player
     0000153A  A$lcc761638$302                    player
     0000153A  C$player.c$65$2_0$158              player
     0000153B  A$lcc761638$303                    player
     0000153D  A$lcc761638$304                    player
     0000153E  A$lcc761638$305                    player
     00001540  A$lcc761638$306                    player
     00001541  A$lcc761638$307                    player
     00001543  A$lcc761638$308                    player
     00001544  A$lcc761638$309                    player
     00001546  A$lcc761638$310                    player
     00001547  A$lcc761638$311                    player
     00001549  A$lcc761638$312                    player
     0000154A  A$lcc761638$313                    player
     0000154C  A$lcc761638$314                    player
     0000154D  A$lcc761638$315                    player
     0000154F  A$lcc761638$316                    player
ASxxxx Linker V03.00/V05.40 + sdld,  page 53.
Hexadecimal  [32-Bits]

Area                                    Addr        Size        Decimal Bytes (Attributes)
--------------------------------        ----        ----        ------- ----- ------------
_CODE                               00000200    00002728 =       10024. bytes (REL,CON)

      Value  Global                              Global Defined In Module
      -----  --------------------------------   ------------------------
     00001550  A$lcc761638$317                    player
     00001552  A$lcc761638$318                    player
     00001553  A$lcc761638$319                    player
     00001554  A$lcc761638$320                    player
     00001555  A$lcc761638$321                    player
     00001556  A$lcc761638$322                    player
     00001557  A$lcc761638$323                    player
     00001559  A$lcc761638$324                    player
     0000155A  A$lcc761638$325                    player
     0000155C  A$lcc761638$326                    player
     0000155D  A$lcc761638$327                    player
     0000155F  A$lcc761638$328                    player
     00001560  A$lcc761638$329                    player
     00001562  A$lcc761638$330                    player
     00001563  A$lcc761638$331                    player
     00001565  A$lcc761638$332                    player
     00001566  A$lcc761638$333                    player
     00001568  A$lcc761638$334                    player
     00001569  A$lcc761638$335                    player
     0000156B  A$lcc761638$336                    player
     0000156C  A$lcc761638$337                    player
     0000156E  A$lcc761638$338                    player
     0000156F  A$lcc761638$339                    player
     00001571  A$lcc761638$340                    player
     00001572  A$lcc761638$341                    player
     00001574  A$lcc761638$342                    player
     00001575  A$lcc761638$343                    player
     00001577  A$lcc761638$344                    player
     00001578  A$lcc761638$345                    player
     0000157A  A$lcc761638$346                    player
     0000157B  A$lcc761638$347                    player
     0000157D  A$lcc761638$348                    player
     0000157E  A$lcc761638$349                    player
     00001580  A$lcc761638$350                    player
     00001581  A$lcc761638$351                    player
     00001582  A$lcc761638$352                    player
     00001583  A$lcc761638$353                    player
     00001584  A$lcc761638$354                    player
     00001585  A$lcc761638$355                    player
     00001587  A$lcc761638$356                    player
     00001588  A$lcc761638$357                    player
     0000158A  A$lcc761638$358                    player
     0000158B  A$lcc761638$359                    player
     0000158D  A$lcc761638$360                    player
     0000158E  A$lcc761638$361                    player
     00001590  A$lcc761638$362                    player
     00001591  A$lcc761638$363                    player
     00001593  A$lcc761638$364                    player
     00001594  A$lcc761638$365                    player
     00001596  A$lcc761638$369                    player
     00001596  C$player.c$87$1_1$158              player
ASxxxx Linker V03.00/V05.40 + sdld,  page 54.
Hexadecimal  [32-Bits]

Area                                    Addr        Size        Decimal Bytes (Attributes)
--------------------------------        ----        ----        ------- ----- ------------
_CODE                               00000200    00002728 =       10024. bytes (REL,CON)

      Value  Global                              Global Defined In Module
      -----  --------------------------------   ------------------------
     00001599  A$lcc761638$370                    player
     0000159A  A$lcc761638$371                    player
     0000159C  A$lcc761638$372                    player
     0000159D  A$lcc761638$373                    player
     0000159E  A$lcc761638$374                    player
     0000159F  A$lcc761638$375                    player
     000015A0  A$lcc761638$376                    player
     000015A1  A$lcc761638$377                    player
     000015A2  A$lcc761638$378                    player
     000015A3  A$lcc761638$379                    player
     000015A4  A$lcc761638$380                    player
     000015A5  A$lcc761638$381                    player
     000015A8  A$lcc761638$382                    player
     000015A9  A$lcc761638$383                    player
     000015AA  A$lcc761638$384                    player
     000015AB  A$lcc761638$385                    player
     000015AE  A$lcc761638$386                    player
     000015AF  A$lcc761638$387                    player
     000015B1  A$lcc761638$388                    player
     000015B2  A$lcc761638$389                    player
     000015B3  A$lcc761638$390                    player
     000015B6  A$lcc761638$391                    player
     000015B7  A$lcc761638$392                    player
     000015B8  A$lcc761638$393                    player
     000015B9  A$lcc761638$394                    player
     000015BA  A$lcc761638$395                    player
     000015BB  A$lcc761638$396                    player
     000015BC  A$lcc761638$397                    player
     000015BF  A$lcc761638$398                    player
     000015C2  A$lcc761638$402                    player
     000015C2  C$player.c$88$1_1$158              player
     000015C5  A$lcc761638$403                    player
     000015C6  A$lcc761638$404                    player
     000015C8  A$lcc761638$405                    player
     000015C9  A$lcc761638$406                    player
     000015CA  A$lcc761638$407                    player
     000015CB  A$lcc761638$408                    player
     000015CC  A$lcc761638$409                    player
     000015CD  A$lcc761638$410                    player
     000015CE  A$lcc761638$411                    player
     000015CF  A$lcc761638$412                    player
     000015D0  A$lcc761638$413                    player
     000015D1  A$lcc761638$414                    player
     000015D4  A$lcc761638$415                    player
     000015D5  A$lcc761638$416                    player
     000015D6  A$lcc761638$417                    player
     000015D7  A$lcc761638$418                    player
     000015DA  A$lcc761638$419                    player
     000015DB  A$lcc761638$420                    player
     000015DD  A$lcc761638$421                    player
     000015DE  A$lcc761638$422                    player
ASxxxx Linker V03.00/V05.40 + sdld,  page 55.
Hexadecimal  [32-Bits]

Area                                    Addr        Size        Decimal Bytes (Attributes)
--------------------------------        ----        ----        ------- ----- ------------
_CODE                               00000200    00002728 =       10024. bytes (REL,CON)

      Value  Global                              Global Defined In Module
      -----  --------------------------------   ------------------------
     000015DF  A$lcc761638$423                    player
     000015E2  A$lcc761638$424                    player
     000015E3  A$lcc761638$425                    player
     000015E4  A$lcc761638$426                    player
     000015E6  A$lcc761638$427                    player
     000015E7  A$lcc761638$428                    player
     000015E8  A$lcc761638$429                    player
     000015E9  A$lcc761638$430                    player
     000015EC  A$lcc761638$431                    player
     000015EF  A$lcc761638$435                    player
     000015EF  C$player.c$89$1_1$158              player
     000015F2  A$lcc761638$436                    player
     000015F3  A$lcc761638$437                    player
     000015F5  A$lcc761638$438                    player
     000015F6  A$lcc761638$439                    player
     000015F7  A$lcc761638$440                    player
     000015F8  A$lcc761638$441                    player
     000015F9  A$lcc761638$442                    player
     000015FA  A$lcc761638$443                    player
     000015FB  A$lcc761638$444                    player
     000015FC  A$lcc761638$445                    player
     000015FD  A$lcc761638$446                    player
     000015FE  A$lcc761638$447                    player
     00001601  A$lcc761638$448                    player
     00001602  A$lcc761638$449                    player
     00001603  A$lcc761638$450                    player
     00001604  A$lcc761638$451                    player
     00001607  A$lcc761638$452                    player
     00001608  A$lcc761638$453                    player
     0000160A  A$lcc761638$454                    player
     0000160B  A$lcc761638$455                    player
     0000160C  A$lcc761638$456                    player
     0000160F  A$lcc761638$457                    player
     00001610  A$lcc761638$458                    player
     00001611  A$lcc761638$459                    player
     00001613  A$lcc761638$460                    player
     00001614  A$lcc761638$461                    player
     00001615  A$lcc761638$462                    player
     00001616  A$lcc761638$463                    player
     00001619  A$lcc761638$464                    player
     0000161C  A$lcc761638$468                    player
     0000161C  C$player.c$90$1_1$158              player
     0000161F  A$lcc761638$469                    player
     00001620  A$lcc761638$470                    player
     00001622  A$lcc761638$471                    player
     00001623  A$lcc761638$472                    player
     00001624  A$lcc761638$473                    player
     00001625  A$lcc761638$474                    player
     00001626  A$lcc761638$475                    player
     00001627  A$lcc761638$476                    player
     00001628  A$lcc761638$477                    player
ASxxxx Linker V03.00/V05.40 + sdld,  page 56.
Hexadecimal  [32-Bits]

Area                                    Addr        Size        Decimal Bytes (Attributes)
--------------------------------        ----        ----        ------- ----- ------------
_CODE                               00000200    00002728 =       10024. bytes (REL,CON)

      Value  Global                              Global Defined In Module
      -----  --------------------------------   ------------------------
     00001629  A$lcc761638$478                    player
     0000162A  A$lcc761638$479                    player
     0000162B  A$lcc761638$480                    player
     0000162E  A$lcc761638$481                    player
     0000162F  A$lcc761638$482                    player
     00001630  A$lcc761638$483                    player
     00001631  A$lcc761638$484                    player
     00001634  A$lcc761638$485                    player
     00001635  A$lcc761638$486                    player
     00001637  A$lcc761638$487                    player
     00001638  A$lcc761638$488                    player
     00001639  A$lcc761638$489                    player
     0000163C  A$lcc761638$490                    player
     0000163D  A$lcc761638$491                    player
     0000163E  A$lcc761638$492                    player
     00001640  A$lcc761638$493                    player
     00001641  A$lcc761638$494                    player
     00001642  A$lcc761638$495                    player
     00001643  A$lcc761638$496                    player
     00001646  A$lcc761638$497                    player
     00001649  A$lcc761638$501                    player
     00001649  C$player.c$92$1_1$158              player
     0000164C  A$lcc761638$505                    player
     0000164C  C$player.c$93$1_1$158              player
     0000164D  A$lcc761638$506                    player
     0000164E  A$lcc761638$507                    player
     00001650  A$lcc761638$511                    player
     00001650  C$player.c$94$1_1$158              player
     00001653  A$lcc761638$512                    player
     00001655  A$lcc761638$516                    player
     00001655  C$player.c$95$1_1$158              player
     00001658  A$lcc761638$517                    player
     0000165A  A$lcc761638$521                    player
     0000165A  C$player.c$97$1_1$158              player
     0000165D  A$lcc761638$525                    player
     0000165F  A$lcc761638$530                    player
     0000165F  C$player.c$98$1_1$157              player
     0000165F  XG$init_player$0$0                 player
     00001660  A$lcc761640$59                     random
     00001660  C$random.c$5$0_0$1                 random
     00001660  C$random.c$7$1_0$1                 random
     00001660  G$my_rand$0$0                      random
     00001660  _my_rand                           random
     00001663  A$lcc761640$60                     random
     00001664  A$lcc761640$61                     random
     00001665  A$lcc761640$62                     random
     00001666  A$lcc761640$63                     random
     00001667  A$lcc761640$64                     random
     00001668  A$lcc761640$65                     random
     00001669  A$lcc761640$66                     random
     0000166A  A$lcc761640$67                     random
ASxxxx Linker V03.00/V05.40 + sdld,  page 57.
Hexadecimal  [32-Bits]

Area                                    Addr        Size        Decimal Bytes (Attributes)
--------------------------------        ----        ----        ------- ----- ------------
_CODE                               00000200    00002728 =       10024. bytes (REL,CON)

      Value  Global                              Global Defined In Module
      -----  --------------------------------   ------------------------
     0000166B  A$lcc761640$68                     random
     0000166C  A$lcc761640$69                     random
     0000166D  A$lcc761640$70                     random
     0000166E  A$lcc761640$71                     random
     0000166F  A$lcc761640$72                     random
     00001670  A$lcc761640$73                     random
     00001671  A$lcc761640$74                     random
     00001672  A$lcc761640$75                     random
     00001673  A$lcc761640$76                     random
     00001674  A$lcc761640$77                     random
     00001675  A$lcc761640$78                     random
     00001676  A$lcc761640$79                     random
     00001677  A$lcc761640$80                     random
     00001678  A$lcc761640$81                     random
     00001679  A$lcc761640$82                     random
     0000167A  A$lcc761640$83                     random
     0000167B  A$lcc761640$84                     random
     0000167C  A$lcc761640$85                     random
     0000167D  A$lcc761640$86                     random
     0000167E  A$lcc761640$87                     random
     0000167F  A$lcc761640$88                     random
     00001681  A$lcc761640$89                     random
     00001684  A$lcc761640$90                     random
     00001685  A$lcc761640$91                     random
     00001686  A$lcc761640$92                     random
     00001688  A$lcc761640$96                     random
     00001688  C$random.c$8$1_0$1                 random
     00001689  A$lcc761640$97                     random
     0000168A  A$lcc761640$98                     random
     0000168B  A$lcc761640$99                     random
     0000168C  A$lcc761640$107                    random
     0000168C  C$random.c$9$1_0$1                 random
     0000168C  XG$my_rand$0$0                     random
     0000168D  A$lcc761641$56                     render
     0000168D  C$render.c$5$0_0$130               render
     0000168D  G$render_reset$0$0                 render
     0000168D  _render_reset                      render
     0000168E  A$lcc761641$60                     render
     0000168E  C$render.c$6$1_0$130               render
     00001691  A$lcc761641$61                     render
     00001693  A$lcc761641$62                     render
     00001694  A$lcc761641$63                     render
     00001696  A$lcc761641$67                     render
     00001696  C$render.c$7$1_0$130               render
     00001699  A$lcc761641$68                     render
     0000169B  A$lcc761641$69                     render
     0000169C  A$lcc761641$70                     render
     0000169E  A$lcc761641$78                     render
     0000169E  C$render.c$8$1_0$130               render
     0000169E  XG$render_reset$0$0                render
     0000169F  A$lcc761642$56                     scene
ASxxxx Linker V03.00/V05.40 + sdld,  page 58.
Hexadecimal  [32-Bits]

Area                                    Addr        Size        Decimal Bytes (Attributes)
--------------------------------        ----        ----        ------- ----- ------------
_CODE                               00000200    00002728 =       10024. bytes (REL,CON)

      Value  Global                              Global Defined In Module
      -----  --------------------------------   ------------------------
     0000169F  C$scene.c$6$0_0$27                 scene
     0000169F  C$scene.c$8$2_0$28                 scene
     0000169F  G$Scene_Destroy$0$0                scene
     0000169F  _Scene_Destroy                     scene
     000016A2  A$lcc761642$57                     scene
     000016A3  A$lcc761642$58                     scene
     000016A4  A$lcc761642$59                     scene
     000016A5  A$lcc761642$60                     scene
     000016A6  A$lcc761642$61                     scene
     000016A7  A$lcc761642$62                     scene
     000016A8  A$lcc761642$63                     scene
     000016A9  A$lcc761642$67                     scene
     000016A9  C$scene.c$9$2_0$28                 scene
     000016AA  A$lcc761642$71                     scene
     000016AA  C$scene.c$11$1_0$27                scene
     000016AB  A$lcc761642$72                     scene
     000016AC  A$lcc761642$73                     scene
     000016AD  A$lcc761642$74                     scene
     000016B0  A$lcc761642$75                     scene
     000016B1  A$lcc761642$79                     scene
     000016B1  C$scene.c$12$1_0$27                scene
     000016B2  A$lcc761642$80                     scene
     000016B3  A$lcc761642$81                     scene
     000016B4  A$lcc761642$82                     scene
     000016B5  A$lcc761642$90                     scene
     000016B5  C$scene.c$13$1_0$27                scene
     000016B5  XG$Scene_Destroy$0$0               scene
     000016B6  A$lcc761643$64                     scene_manager
     000016B6  C$scene_manager.c$14$0_0$167       scene_manager
     000016B6  C$scene_manager.c$17$1_0$167       scene_manager
     000016B6  G$SceneManager_CleanScreen$0$0     scene_manager
     000016B6  _SceneManager_CleanScreen          scene_manager
     000016B9  A$lcc761643$65                     scene_manager
     000016BC  A$lcc761643$66                     scene_manager
     000016BD  A$lcc761643$67                     scene_manager
     000016BF  A$lcc761643$68                     scene_manager
     000016C0  A$lcc761643$69                     scene_manager
     000016C2  A$lcc761643$73                     scene_manager
     000016C2  C$scene_manager.c$18$1_0$167       scene_manager
     000016C5  A$lcc761643$74                     scene_manager
     000016C6  A$lcc761643$75                     scene_manager
     000016C8  A$lcc761643$76                     scene_manager
     000016C9  A$lcc761643$77                     scene_manager
     000016CB  A$lcc761643$81                     scene_manager
     000016CB  C$scene_manager.c$19$1_0$167       scene_manager
     000016CE  A$lcc761643$82                     scene_manager
     000016CF  A$lcc761643$83                     scene_manager
     000016D1  A$lcc761643$84                     scene_manager
     000016D2  A$lcc761643$85                     scene_manager
     000016D4  A$lcc761643$89                     scene_manager
     000016D4  C$scene_manager.c$20$1_0$167       scene_manager
ASxxxx Linker V03.00/V05.40 + sdld,  page 59.
Hexadecimal  [32-Bits]

Area                                    Addr        Size        Decimal Bytes (Attributes)
--------------------------------        ----        ----        ------- ----- ------------
_CODE                               00000200    00002728 =       10024. bytes (REL,CON)

      Value  Global                              Global Defined In Module
      -----  --------------------------------   ------------------------
     000016D7  A$lcc761643$90                     scene_manager
     000016D8  A$lcc761643$91                     scene_manager
     000016DA  A$lcc761643$92                     scene_manager
     000016DB  A$lcc761643$93                     scene_manager
     000016DD  A$lcc761643$97                     scene_manager
     000016DD  C$scene_manager.c$22$1_0$167       scene_manager
     000016E0  A$lcc761643$98                     scene_manager
     000016E3  A$lcc761643$102                    scene_manager
     000016E3  C$scene_manager.c$23$1_0$167       scene_manager
     000016E6  A$lcc761643$103                    scene_manager
     000016E9  A$lcc761643$107                    scene_manager
     000016E9  C$scene_manager.c$24$1_0$167       scene_manager
     000016EC  A$lcc761643$108                    scene_manager
     000016EF  A$lcc761643$112                    scene_manager
     000016EF  C$scene_manager.c$25$1_0$167       scene_manager
     000016F2  A$lcc761643$120                    scene_manager
     000016F2  C$scene_manager.c$26$1_0$167       scene_manager
     000016F2  XG$SceneManager_CleanScreen$0$0    scene_manager
     000016F5  A$lcc761643$133                    scene_manager
     000016F5  C$scene_manager.c$28$1_0$169       scene_manager
     000016F5  C$scene_manager.c$30$1_0$169       scene_manager
     000016F5  G$SceneManager_Create$0$0          scene_manager
     000016F5  _SceneManager_Create               scene_manager
     000016F6  A$lcc761643$134                    scene_manager
     000016F9  A$lcc761643$135                    scene_manager
     000016FC  A$lcc761643$136                    scene_manager
     000016FD  A$lcc761643$137                    scene_manager
     00001700  A$lcc761643$138                    scene_manager
     00001701  A$lcc761643$139                    scene_manager
     00001702  A$lcc761643$143                    scene_manager
     00001702  C$scene_manager.c$32$1_0$169       scene_manager
     00001703  A$lcc761643$144                    scene_manager
     00001704  A$lcc761643$145                    scene_manager
     00001705  A$lcc761643$146                    scene_manager
     00001708  A$lcc761643$147                    scene_manager
     00001709  A$lcc761643$148                    scene_manager
     0000170A  A$lcc761643$149                    scene_manager
     0000170B  A$lcc761643$150                    scene_manager
     0000170C  A$lcc761643$154                    scene_manager
     0000170C  C$scene_manager.c$33$1_0$169       scene_manager
     0000170F  A$lcc761643$155                    scene_manager
     00001712  A$lcc761643$156                    scene_manager
     00001713  A$lcc761643$157                    scene_manager
     00001714  A$lcc761643$158                    scene_manager
     00001715  A$lcc761643$159                    scene_manager
     00001716  A$lcc761643$160                    scene_manager
     00001718  A$lcc761643$161                    scene_manager
     00001719  A$lcc761643$162                    scene_manager
     0000171B  A$lcc761643$170                    scene_manager
     0000171B  C$scene_manager.c$34$1_0$169       scene_manager
     0000171B  XG$SceneManager_Create$0$0         scene_manager
ASxxxx Linker V03.00/V05.40 + sdld,  page 60.
Hexadecimal  [32-Bits]

Area                                    Addr        Size        Decimal Bytes (Attributes)
--------------------------------        ----        ----        ------- ----- ------------
_CODE                               00000200    00002728 =       10024. bytes (REL,CON)

      Value  Global                              Global Defined In Module
      -----  --------------------------------   ------------------------
     0000171C  A$lcc761643$180                    scene_manager
     0000171C  C$scene_manager.c$36$1_0$171       scene_manager
     0000171C  G$SceneManager_ChangeScene$0$0     scene_manager
     0000171C  _SceneManager_ChangeScene          scene_manager
     0000171E  A$lcc761643$181                    scene_manager
     00001720  A$lcc761643$182                    scene_manager
     00001721  A$lcc761643$183                    scene_manager
     00001722  A$lcc761643$184                    scene_manager
     00001723  A$lcc761643$185                    scene_manager
     00001724  A$lcc761643$186                    scene_manager
     00001725  A$lcc761643$190                    scene_manager
     00001728  A$lcc761643$191                    scene_manager
     00001729  A$lcc761643$192                    scene_manager
     0000172A  A$lcc761643$193                    scene_manager
     0000172B  A$lcc761643$194                    scene_manager
     0000172C  A$lcc761643$195                    scene_manager
     0000172D  A$lcc761643$196                    scene_manager
     0000172E  A$lcc761643$197                    scene_manager
     0000172F  A$lcc761643$198                    scene_manager
     00001730  A$lcc761643$202                    scene_manager
     00001730  C$scene_manager.c$39$2_0$172       scene_manager
     00001733  A$lcc761643$206                    scene_manager
     00001734  A$lcc761643$207                    scene_manager
     00001735  A$lcc761643$208                    scene_manager
     00001736  A$lcc761643$209                    scene_manager
     00001737  A$lcc761643$210                    scene_manager
     00001738  A$lcc761643$211                    scene_manager
     00001739  A$lcc761643$212                    scene_manager
     0000173A  A$lcc761643$213                    scene_manager
     0000173C  A$lcc761643$214                    scene_manager
     0000173F  A$lcc761643$215                    scene_manager
     00001740  A$lcc761643$216                    scene_manager
     00001741  A$lcc761643$217                    scene_manager
     00001742  A$lcc761643$218                    scene_manager
     00001744  A$lcc761643$219                    scene_manager
     00001745  A$lcc761643$220                    scene_manager
     00001746  A$lcc761643$221                    scene_manager
     00001747  A$lcc761643$222                    scene_manager
     00001749  A$lcc761643$223                    scene_manager
     0000174A  A$lcc761643$224                    scene_manager
     0000174B  A$lcc761643$225                    scene_manager
     0000174C  A$lcc761643$226                    scene_manager
     0000174D  A$lcc761643$227                    scene_manager
     0000174E  A$lcc761643$228                    scene_manager
     0000174F  A$lcc761643$229                    scene_manager
     00001750  A$lcc761643$230                    scene_manager
     00001751  A$lcc761643$231                    scene_manager
     00001752  A$lcc761643$232                    scene_manager
     00001753  A$lcc761643$233                    scene_manager
     00001755  A$lcc761643$237                    scene_manager
     00001755  C$scene_manager.c$42$2_0$173       scene_manager
ASxxxx Linker V03.00/V05.40 + sdld,  page 61.
Hexadecimal  [32-Bits]

Area                                    Addr        Size        Decimal Bytes (Attributes)
--------------------------------        ----        ----        ------- ----- ------------
_CODE                               00000200    00002728 =       10024. bytes (REL,CON)

      Value  Global                              Global Defined In Module
      -----  --------------------------------   ------------------------
     00001756  A$lcc761643$238                    scene_manager
     00001757  A$lcc761643$239                    scene_manager
     0000175A  A$lcc761643$240                    scene_manager
     0000175B  A$lcc761643$241                    scene_manager
     0000175C  A$lcc761643$242                    scene_manager
     0000175D  A$lcc761643$248                    scene_manager
     0000175D  C$scene_manager.c$44$1_0$171       scene_manager
     00001760  A$lcc761643$249                    scene_manager
     00001761  A$lcc761643$250                    scene_manager
     00001762  A$lcc761643$251                    scene_manager
     00001763  A$lcc761643$252                    scene_manager
     00001764  A$lcc761643$253                    scene_manager
     00001765  A$lcc761643$254                    scene_manager
     00001766  A$lcc761643$255                    scene_manager
     00001767  A$lcc761643$256                    scene_manager
     00001769  A$lcc761643$257                    scene_manager
     0000176A  A$lcc761643$258                    scene_manager
     0000176D  A$lcc761643$259                    scene_manager
     0000176E  A$lcc761643$260                    scene_manager
     0000176F  A$lcc761643$261                    scene_manager
     00001770  A$lcc761643$262                    scene_manager
     00001771  A$lcc761643$263                    scene_manager
     00001772  A$lcc761643$264                    scene_manager
     00001773  A$lcc761643$265                    scene_manager
     00001774  A$lcc761643$266                    scene_manager
     00001775  A$lcc761643$270                    scene_manager
     00001775  C$scene_manager.c$46$1_0$171       scene_manager
     00001778  A$lcc761643$274                    scene_manager
     00001778  C$scene_manager.c$48$2_0$174       scene_manager
     0000177A  A$lcc761643$275                    scene_manager
     0000177C  A$lcc761643$276                    scene_manager
     0000177D  A$lcc761643$280                    scene_manager
     00001780  A$lcc761643$281                    scene_manager
     00001781  A$lcc761643$282                    scene_manager
     00001782  A$lcc761643$283                    scene_manager
     00001783  A$lcc761643$284                    scene_manager
     00001784  A$lcc761643$285                    scene_manager
     00001785  A$lcc761643$286                    scene_manager
     00001786  A$lcc761643$287                    scene_manager
     00001787  A$lcc761643$288                    scene_manager
     00001788  A$lcc761643$289                    scene_manager
     00001789  A$lcc761643$290                    scene_manager
     0000178A  A$lcc761643$291                    scene_manager
     0000178B  A$lcc761643$292                    scene_manager
     0000178E  A$lcc761643$293                    scene_manager
     0000178F  A$lcc761643$294                    scene_manager
     00001790  A$lcc761643$295                    scene_manager
     00001792  A$lcc761643$296                    scene_manager
     00001793  A$lcc761643$297                    scene_manager
     00001795  A$lcc761643$298                    scene_manager
     00001797  A$lcc761643$299                    scene_manager
ASxxxx Linker V03.00/V05.40 + sdld,  page 62.
Hexadecimal  [32-Bits]

Area                                    Addr        Size        Decimal Bytes (Attributes)
--------------------------------        ----        ----        ------- ----- ------------
_CODE                               00000200    00002728 =       10024. bytes (REL,CON)

      Value  Global                              Global Defined In Module
      -----  --------------------------------   ------------------------
     00001798  A$lcc761643$301                    scene_manager
     00001799  A$lcc761643$305                    scene_manager
     0000179C  A$lcc761643$306                    scene_manager
     0000179D  A$lcc761643$307                    scene_manager
     000017A0  A$lcc761643$308                    scene_manager
     000017A1  A$lcc761643$312                    scene_manager
     000017A1  C$scene_manager.c$49$2_1$175       scene_manager
     000017A3  A$lcc761643$313                    scene_manager
     000017A5  A$lcc761643$317                    scene_manager
     000017A5  C$scene_manager.c$50$2_1$175       scene_manager
     000017A6  A$lcc761643$318                    scene_manager
     000017A7  A$lcc761643$319                    scene_manager
     000017A8  A$lcc761643$320                    scene_manager
     000017A9  A$lcc761643$321                    scene_manager
     000017AA  A$lcc761643$322                    scene_manager
     000017AB  A$lcc761643$323                    scene_manager
     000017AC  A$lcc761643$324                    scene_manager
     000017AD  A$lcc761643$325                    scene_manager
     000017B0  A$lcc761643$326                    scene_manager
     000017B1  A$lcc761643$327                    scene_manager
     000017B2  A$lcc761643$328                    scene_manager
     000017B4  A$lcc761643$329                    scene_manager
     000017B5  A$lcc761643$330                    scene_manager
     000017B6  A$lcc761643$331                    scene_manager
     000017B7  A$lcc761643$332                    scene_manager
     000017B8  A$lcc761643$333                    scene_manager
     000017B9  A$lcc761643$334                    scene_manager
     000017BA  A$lcc761643$335                    scene_manager
     000017BB  A$lcc761643$336                    scene_manager
     000017BC  A$lcc761643$337                    scene_manager
     000017BF  A$lcc761643$338                    scene_manager
     000017C0  A$lcc761643$339                    scene_manager
     000017C1  A$lcc761643$340                    scene_manager
     000017C4  A$lcc761643$345                    scene_manager
     000017C4  C$scene_manager.c$38$1_1$171       scene_manager
     000017C5  A$lcc761643$346                    scene_manager
     000017C6  A$lcc761643$347                    scene_manager
     000017C7  A$lcc761643$348                    scene_manager
     000017C8  A$lcc761643$349                    scene_manager
     000017C9  A$lcc761643$353                    scene_manager
     000017C9  C$scene_manager.c$41$1_1$171       scene_manager
     000017CA  A$lcc761643$354                    scene_manager
     000017CB  A$lcc761643$355                    scene_manager
     000017CC  A$lcc761643$359                    scene_manager
     000017CC  C$scene_manager.c$52$1_1$174       scene_manager
     000017CD  A$lcc761643$360                    scene_manager
     000017CE  A$lcc761643$361                    scene_manager
     000017CF  A$lcc761643$362                    scene_manager
     000017D1  A$lcc761643$363                    scene_manager
     000017D2  A$lcc761643$364                    scene_manager
     000017D3  A$lcc761643$365                    scene_manager
ASxxxx Linker V03.00/V05.40 + sdld,  page 63.
Hexadecimal  [32-Bits]

Area                                    Addr        Size        Decimal Bytes (Attributes)
--------------------------------        ----        ----        ------- ----- ------------
_CODE                               00000200    00002728 =       10024. bytes (REL,CON)

      Value  Global                              Global Defined In Module
      -----  --------------------------------   ------------------------
     000017D4  A$lcc761643$366                    scene_manager
     000017D5  A$lcc761643$367                    scene_manager
     000017D6  A$lcc761643$368                    scene_manager
     000017D7  A$lcc761643$369                    scene_manager
     000017D8  A$lcc761643$370                    scene_manager
     000017D9  A$lcc761643$371                    scene_manager
     000017DB  A$lcc761643$372                    scene_manager
     000017DC  A$lcc761643$373                    scene_manager
     000017DD  A$lcc761643$374                    scene_manager
     000017DE  A$lcc761643$375                    scene_manager
     000017DF  A$lcc761643$376                    scene_manager
     000017E2  A$lcc761643$380                    scene_manager
     000017E2  C$scene_manager.c$54$2_1$176       scene_manager
     000017E4  A$lcc761643$381                    scene_manager
     000017E6  A$lcc761643$382                    scene_manager
     000017E7  A$lcc761643$383                    scene_manager
     000017E9  A$lcc761643$387                    scene_manager
     000017E9  C$scene_manager.c$55$2_1$176       scene_manager
     000017EB  A$lcc761643$388                    scene_manager
     000017EC  A$lcc761643$389                    scene_manager
     000017EE  A$lcc761643$390                    scene_manager
     000017EF  A$lcc761643$391                    scene_manager
     000017F2  A$lcc761643$396                    scene_manager
     000017F2  C$scene_manager.c$57$1_1$174       scene_manager
     000017F4  A$lcc761643$397                    scene_manager
     000017F6  A$lcc761643$398                    scene_manager
     000017F8  A$lcc761643$403                    scene_manager
     000017FA  A$lcc761643$408                    scene_manager
     000017FA  C$scene_manager.c$58$1_1$171       scene_manager
     000017FA  XG$SceneManager_ChangeScene$0$0    scene_manager
     000017FB  A$lcc761645$61                     gender_select
     000017FB  C$gender_select.c$6$0_0$30         gender_select
     000017FB  C$gender_select.c$8$1_0$30         gender_select
     000017FB  G$GenderSelect_Create$0$0          gender_select
     000017FB  _GenderSelect_Create               gender_select
     000017FE  A$lcc761645$62                     gender_select
     00001800  A$lcc761645$63                     gender_select
     00001801  A$lcc761645$64                     gender_select
     00001803  A$lcc761645$68                     gender_select
     00001803  C$gender_select.c$9$1_0$30         gender_select
     00001804  A$lcc761645$69                     gender_select
     00001806  A$lcc761645$70                     gender_select
     00001807  A$lcc761645$71                     gender_select
     00001809  A$lcc761645$75                     gender_select
     00001809  C$gender_select.c$11$1_0$30        gender_select
     0000180C  A$lcc761645$76                     gender_select
     0000180D  A$lcc761645$77                     gender_select
     0000180E  A$lcc761645$78                     gender_select
     0000180F  A$lcc761645$86                     gender_select
     0000180F  C$gender_select.c$12$1_0$30        gender_select
     0000180F  XG$GenderSelect_Create$0$0         gender_select
ASxxxx Linker V03.00/V05.40 + sdld,  page 64.
Hexadecimal  [32-Bits]

Area                                    Addr        Size        Decimal Bytes (Attributes)
--------------------------------        ----        ----        ------- ----- ------------
_CODE                               00000200    00002728 =       10024. bytes (REL,CON)

      Value  Global                              Global Defined In Module
      -----  --------------------------------   ------------------------
     00001810  A$lcc761646$58                     gender_select_init
     00001810  C$gender_select_init.c$11$1_0$15   gender_select_init
     00001810  C$gender_select_init.c$9$0_0$155   gender_select_init
     00001810  G$GenderSelect_Init$0$0            gender_select_init
     00001810  _GenderSelect_Init                 gender_select_init
     00001811  A$lcc761646$59                     gender_select_init
     00001814  A$lcc761646$60                     gender_select_init
     00001817  A$lcc761646$61                     gender_select_init
     00001818  A$lcc761646$62                     gender_select_init
     00001819  A$lcc761646$63                     gender_select_init
     0000181A  A$lcc761646$67                     gender_select_init
     0000181A  C$gender_select_init.c$12$2_0$15   gender_select_init
     0000181B  A$lcc761646$68                     gender_select_init
     0000181C  A$lcc761646$72                     gender_select_init
     0000181C  C$gender_select_init.c$13$2_0$15   gender_select_init
     0000181D  A$lcc761646$76                     gender_select_init
     0000181D  C$gender_select_init.c$15$1_0$15   gender_select_init
     0000181E  A$lcc761646$77                     gender_select_init
     0000181F  A$lcc761646$81                     gender_select_init
     0000181F  C$gender_select_init.c$16$1_0$15   gender_select_init
     00001822  A$lcc761646$82                     gender_select_init
     00001823  A$lcc761646$83                     gender_select_init
     00001824  A$lcc761646$84                     gender_select_init
     00001825  A$lcc761646$85                     gender_select_init
     00001826  A$lcc761646$89                     gender_select_init
     00001826  C$gender_select_init.c$18$1_0$15   gender_select_init
     00001829  A$lcc761646$90                     gender_select_init
     0000182A  A$lcc761646$91                     gender_select_init
     0000182D  A$lcc761646$92                     gender_select_init
     0000182E  A$lcc761646$93                     gender_select_init
     00001831  A$lcc761646$94                     gender_select_init
     00001833  A$lcc761646$98                     gender_select_init
     00001833  C$gender_select_init.c$19$1_0$15   gender_select_init
     00001836  A$lcc761646$99                     gender_select_init
     00001837  A$lcc761646$100                    gender_select_init
     0000183A  A$lcc761646$101                    gender_select_init
     0000183B  A$lcc761646$102                    gender_select_init
     0000183C  A$lcc761646$103                    gender_select_init
     0000183D  A$lcc761646$104                    gender_select_init
     0000183E  A$lcc761646$105                    gender_select_init
     00001841  A$lcc761646$106                    gender_select_init
     00001843  A$lcc761646$114                    gender_select_init
     00001843  C$gender_select_init.c$20$1_0$15   gender_select_init
     00001843  XG$GenderSelect_Init$0$0           gender_select_init
     00001844  A$lcc761647$62                     gender_select_update
     00001844  C$gender_select_update.c$6$0_0$1   gender_select_update
     00001844  C$gender_select_update.c$8$1_0$1   gender_select_update
     00001844  C$gender_select_update.c$9$1_0$1   gender_select_update
     00001844  G$GenderSelect_Update$0$0          gender_select_update
     00001844  XG$GenderSelect_Update$0$0         gender_select_update
     00001844  _GenderSelect_Update               gender_select_update
ASxxxx Linker V03.00/V05.40 + sdld,  page 65.
Hexadecimal  [32-Bits]

Area                                    Addr        Size        Decimal Bytes (Attributes)
--------------------------------        ----        ----        ------- ----- ------------
_CODE                               00000200    00002728 =       10024. bytes (REL,CON)

      Value  Global                              Global Defined In Module
      -----  --------------------------------   ------------------------
     00001845  A$lcc761648$61                     inventory_scene
     00001845  C$inventory_scene.c$6$0_0$30       inventory_scene
     00001845  C$inventory_scene.c$8$1_0$30       inventory_scene
     00001845  G$InventoryScene_Create$0$0        inventory_scene
     00001845  _InventoryScene_Create             inventory_scene
     00001848  A$lcc761648$62                     inventory_scene
     0000184A  A$lcc761648$63                     inventory_scene
     0000184B  A$lcc761648$64                     inventory_scene
     0000184D  A$lcc761648$68                     inventory_scene
     0000184D  C$inventory_scene.c$9$1_0$30       inventory_scene
     0000184E  A$lcc761648$69                     inventory_scene
     00001850  A$lcc761648$70                     inventory_scene
     00001851  A$lcc761648$71                     inventory_scene
     00001853  A$lcc761648$75                     inventory_scene
     00001853  C$inventory_scene.c$10$1_0$30      inventory_scene
     00001856  A$lcc761648$76                     inventory_scene
     00001858  A$lcc761648$80                     inventory_scene
     00001858  C$inventory_scene.c$11$1_0$30      inventory_scene
     0000185B  A$lcc761648$81                     inventory_scene
     0000185C  A$lcc761648$82                     inventory_scene
     0000185D  A$lcc761648$83                     inventory_scene
     0000185E  A$lcc761648$91                     inventory_scene
     0000185E  C$inventory_scene.c$12$1_0$30      inventory_scene
     0000185E  XG$InventoryScene_Create$0$0       inventory_scene
     0000185F  A$lcc761649$56                     inventory_scene_init
     0000185F  C$inventory_scene_init.c$13$0_0$   inventory_scene_init
     0000185F  G$InventoryScene_DrawCoins$0$0     inventory_scene_init
     0000185F  _InventoryScene_DrawCoins          inventory_scene_init
     00001861  A$lcc761649$60                     inventory_scene_init
     00001861  C$inventory_scene_init.c$15$1_0$   inventory_scene_init
     00001864  A$lcc761649$61                     inventory_scene_init
     00001866  A$lcc761649$62                     inventory_scene_init
     00001867  A$lcc761649$63                     inventory_scene_init
     0000186A  A$lcc761649$64                     inventory_scene_init
     0000186C  A$lcc761649$65                     inventory_scene_init
     0000186D  A$lcc761649$66                     inventory_scene_init
     00001870  A$lcc761649$67                     inventory_scene_init
     00001871  A$lcc761649$68                     inventory_scene_init
     00001872  A$lcc761649$69                     inventory_scene_init
     00001873  A$lcc761649$70                     inventory_scene_init
     00001876  A$lcc761649$71                     inventory_scene_init
     00001877  A$lcc761649$72                     inventory_scene_init
     00001879  A$lcc761649$73                     inventory_scene_init
     0000187C  A$lcc761649$74                     inventory_scene_init
     0000187D  A$lcc761649$75                     inventory_scene_init
     0000187F  A$lcc761649$76                     inventory_scene_init
     00001881  A$lcc761649$77                     inventory_scene_init
     00001882  A$lcc761649$81                     inventory_scene_init
     00001882  C$inventory_scene_init.c$16$1_0$   inventory_scene_init
     00001885  A$lcc761649$82                     inventory_scene_init
     00001887  A$lcc761649$83                     inventory_scene_init
ASxxxx Linker V03.00/V05.40 + sdld,  page 66.
Hexadecimal  [32-Bits]

Area                                    Addr        Size        Decimal Bytes (Attributes)
--------------------------------        ----        ----        ------- ----- ------------
_CODE                               00000200    00002728 =       10024. bytes (REL,CON)

      Value  Global                              Global Defined In Module
      -----  --------------------------------   ------------------------
     00001888  A$lcc761649$84                     inventory_scene_init
     00001889  A$lcc761649$85                     inventory_scene_init
     0000188A  A$lcc761649$86                     inventory_scene_init
     0000188D  A$lcc761649$87                     inventory_scene_init
     0000188E  A$lcc761649$88                     inventory_scene_init
     0000188F  A$lcc761649$89                     inventory_scene_init
     00001892  A$lcc761649$90                     inventory_scene_init
     00001895  A$lcc761649$91                     inventory_scene_init
     00001896  A$lcc761649$92                     inventory_scene_init
     00001898  A$lcc761649$93                     inventory_scene_init
     0000189A  A$lcc761649$94                     inventory_scene_init
     0000189B  A$lcc761649$98                     inventory_scene_init
     0000189B  C$inventory_scene_init.c$17$1_0$   inventory_scene_init
     0000189E  A$lcc761649$99                     inventory_scene_init
     000018A0  A$lcc761649$100                    inventory_scene_init
     000018A1  A$lcc761649$101                    inventory_scene_init
     000018A2  A$lcc761649$102                    inventory_scene_init
     000018A3  A$lcc761649$103                    inventory_scene_init
     000018A6  A$lcc761649$104                    inventory_scene_init
     000018A7  A$lcc761649$105                    inventory_scene_init
     000018A8  A$lcc761649$106                    inventory_scene_init
     000018AB  A$lcc761649$107                    inventory_scene_init
     000018AE  A$lcc761649$108                    inventory_scene_init
     000018AF  A$lcc761649$109                    inventory_scene_init
     000018B1  A$lcc761649$110                    inventory_scene_init
     000018B3  A$lcc761649$114                    inventory_scene_init
     000018B3  C$inventory_scene_init.c$18$1_0$   inventory_scene_init
     000018B4  A$lcc761649$115                    inventory_scene_init
     000018B5  A$lcc761649$116                    inventory_scene_init
     000018B8  A$lcc761649$117                    inventory_scene_init
     000018B9  A$lcc761649$118                    inventory_scene_init
     000018BA  A$lcc761649$119                    inventory_scene_init
     000018BB  A$lcc761649$120                    inventory_scene_init
     000018BE  A$lcc761649$121                    inventory_scene_init
     000018BF  A$lcc761649$122                    inventory_scene_init
     000018C1  A$lcc761649$123                    inventory_scene_init
     000018C3  A$lcc761649$124                    inventory_scene_init
     000018C4  A$lcc761649$128                    inventory_scene_init
     000018C4  C$inventory_scene_init.c$20$1_0$   inventory_scene_init
     000018C6  A$lcc761649$129                    inventory_scene_init
     000018C7  A$lcc761649$130                    inventory_scene_init
     000018CA  A$lcc761649$131                    inventory_scene_init
     000018CB  A$lcc761649$132                    inventory_scene_init
     000018CE  A$lcc761649$133                    inventory_scene_init
     000018CF  A$lcc761649$134                    inventory_scene_init
     000018D2  A$lcc761649$135                    inventory_scene_init
     000018D4  A$lcc761649$139                    inventory_scene_init
     000018D4  C$inventory_scene_init.c$21$1_0$   inventory_scene_init
     000018D6  A$lcc761649$140                    inventory_scene_init
     000018D7  A$lcc761649$141                    inventory_scene_init
     000018DA  A$lcc761649$142                    inventory_scene_init
ASxxxx Linker V03.00/V05.40 + sdld,  page 67.
Hexadecimal  [32-Bits]

Area                                    Addr        Size        Decimal Bytes (Attributes)
--------------------------------        ----        ----        ------- ----- ------------
_CODE                               00000200    00002728 =       10024. bytes (REL,CON)

      Value  Global                              Global Defined In Module
      -----  --------------------------------   ------------------------
     000018DB  A$lcc761649$143                    inventory_scene_init
     000018DE  A$lcc761649$144                    inventory_scene_init
     000018DF  A$lcc761649$145                    inventory_scene_init
     000018E2  A$lcc761649$146                    inventory_scene_init
     000018E4  A$lcc761649$150                    inventory_scene_init
     000018E4  C$inventory_scene_init.c$22$1_0$   inventory_scene_init
     000018E6  A$lcc761649$151                    inventory_scene_init
     000018E7  A$lcc761649$152                    inventory_scene_init
     000018EA  A$lcc761649$153                    inventory_scene_init
     000018EB  A$lcc761649$154                    inventory_scene_init
     000018EE  A$lcc761649$155                    inventory_scene_init
     000018EF  A$lcc761649$156                    inventory_scene_init
     000018F2  A$lcc761649$157                    inventory_scene_init
     000018F4  A$lcc761649$161                    inventory_scene_init
     000018F4  C$inventory_scene_init.c$23$1_0$   inventory_scene_init
     000018F6  A$lcc761649$162                    inventory_scene_init
     000018F7  A$lcc761649$163                    inventory_scene_init
     000018F8  A$lcc761649$164                    inventory_scene_init
     000018F9  A$lcc761649$165                    inventory_scene_init
     000018FC  A$lcc761649$166                    inventory_scene_init
     000018FD  A$lcc761649$167                    inventory_scene_init
     00001900  A$lcc761649$168                    inventory_scene_init
     00001901  A$lcc761649$169                    inventory_scene_init
     00001904  A$lcc761649$173                    inventory_scene_init
     00001906  A$lcc761649$178                    inventory_scene_init
     00001906  C$inventory_scene_init.c$24$1_0$   inventory_scene_init
     00001906  XG$InventoryScene_DrawCoins$0$0    inventory_scene_init
     00001907  A$lcc761649$188                    inventory_scene_init
     00001907  C$inventory_scene_init.c$26$1_0$   inventory_scene_init
     00001907  G$InventoryScene_Init$0$0          inventory_scene_init
     00001907  _InventoryScene_Init               inventory_scene_init
     00001908  A$lcc761649$192                    inventory_scene_init
     00001908  C$inventory_scene_init.c$28$1_0$   inventory_scene_init
     0000190B  A$lcc761649$193                    inventory_scene_init
     0000190C  A$lcc761649$194                    inventory_scene_init
     0000190D  A$lcc761649$195                    inventory_scene_init
     0000190E  A$lcc761649$196                    inventory_scene_init
     0000190F  A$lcc761649$200                    inventory_scene_init
     0000190F  C$inventory_scene_init.c$29$1_0$   inventory_scene_init
     00001912  A$lcc761649$204                    inventory_scene_init
     00001912  C$inventory_scene_init.c$31$2_0$   inventory_scene_init
     00001914  A$lcc761649$205                    inventory_scene_init
     00001916  A$lcc761649$209                    inventory_scene_init
     00001916  C$inventory_scene_init.c$33$2_0$   inventory_scene_init
     00001918  A$lcc761649$210                    inventory_scene_init
     00001919  A$lcc761649$214                    inventory_scene_init
     00001919  C$inventory_scene_init.c$34$1_1$   inventory_scene_init
     0000191B  A$lcc761649$215                    inventory_scene_init
     0000191D  A$lcc761649$216                    inventory_scene_init
     00001920  A$lcc761649$217                    inventory_scene_init
     00001922  A$lcc761649$221                    inventory_scene_init
ASxxxx Linker V03.00/V05.40 + sdld,  page 68.
Hexadecimal  [32-Bits]

Area                                    Addr        Size        Decimal Bytes (Attributes)
--------------------------------        ----        ----        ------- ----- ------------
_CODE                               00000200    00002728 =       10024. bytes (REL,CON)

      Value  Global                              Global Defined In Module
      -----  --------------------------------   ------------------------
     00001922  C$inventory_scene_init.c$36$1_1$   inventory_scene_init
     00001925  A$lcc761649$222                    inventory_scene_init
     00001926  A$lcc761649$223                    inventory_scene_init
     00001929  A$lcc761649$224                    inventory_scene_init
     0000192A  A$lcc761649$225                    inventory_scene_init
     0000192D  A$lcc761649$226                    inventory_scene_init
     0000192F  A$lcc761649$230                    inventory_scene_init
     0000192F  C$inventory_scene_init.c$37$1_1$   inventory_scene_init
     00001932  A$lcc761649$231                    inventory_scene_init
     00001933  A$lcc761649$232                    inventory_scene_init
     00001936  A$lcc761649$233                    inventory_scene_init
     00001937  A$lcc761649$234                    inventory_scene_init
     00001938  A$lcc761649$235                    inventory_scene_init
     00001939  A$lcc761649$236                    inventory_scene_init
     0000193A  A$lcc761649$237                    inventory_scene_init
     0000193D  A$lcc761649$238                    inventory_scene_init
     0000193F  A$lcc761649$242                    inventory_scene_init
     0000193F  C$inventory_scene_init.c$39$1_1$   inventory_scene_init
     00001942  A$lcc761649$243                    inventory_scene_init
     00001943  A$lcc761649$244                    inventory_scene_init
     00001946  A$lcc761649$245                    inventory_scene_init
     00001947  A$lcc761649$246                    inventory_scene_init
     0000194A  A$lcc761649$247                    inventory_scene_init
     0000194C  A$lcc761649$251                    inventory_scene_init
     0000194C  C$inventory_scene_init.c$40$1_1$   inventory_scene_init
     0000194F  A$lcc761649$252                    inventory_scene_init
     00001950  A$lcc761649$253                    inventory_scene_init
     00001951  A$lcc761649$254                    inventory_scene_init
     00001954  A$lcc761649$255                    inventory_scene_init
     00001955  A$lcc761649$256                    inventory_scene_init
     00001958  A$lcc761649$257                    inventory_scene_init
     00001959  A$lcc761649$258                    inventory_scene_init
     0000195C  A$lcc761649$259                    inventory_scene_init
     0000195E  A$lcc761649$263                    inventory_scene_init
     0000195E  C$inventory_scene_init.c$42$1_1$   inventory_scene_init
     0000195F  A$lcc761649$264                    inventory_scene_init
     00001962  A$lcc761649$265                    inventory_scene_init
     00001963  A$lcc761649$269                    inventory_scene_init
     00001963  C$inventory_scene_init.c$44$1_1$   inventory_scene_init
     00001964  A$lcc761649$270                    inventory_scene_init
     00001966  A$lcc761649$271                    inventory_scene_init
     00001969  A$lcc761649$272                    inventory_scene_init
     0000196A  A$lcc761649$276                    inventory_scene_init
     0000196B  A$lcc761649$281                    inventory_scene_init
     0000196B  C$inventory_scene_init.c$45$1_1$   inventory_scene_init
     0000196B  XG$InventoryScene_Init$0$0         inventory_scene_init
     0000196C  A$lcc761650$57                     inventory_scene_update
     0000196C  C$inventory_scene_update.c$8$0_0   inventory_scene_update
     0000196C  C$inventory_scene_update.c$9$1_0   inventory_scene_update
     0000196C  G$InventoryScene_Update$0$0        inventory_scene_update
     0000196C  _InventoryScene_Update             inventory_scene_update
ASxxxx Linker V03.00/V05.40 + sdld,  page 69.
Hexadecimal  [32-Bits]

Area                                    Addr        Size        Decimal Bytes (Attributes)
--------------------------------        ----        ----        ------- ----- ------------
_CODE                               00000200    00002728 =       10024. bytes (REL,CON)

      Value  Global                              Global Defined In Module
      -----  --------------------------------   ------------------------
     0000196F  A$lcc761650$58                     inventory_scene_update
     00001972  A$lcc761650$69                     inventory_scene_update
     00001972  C$inventory_scene_update.c$10$1_   inventory_scene_update
     00001972  C$inventory_scene_update.c$11$1_   inventory_scene_update
     00001972  XG$InventoryScene_Update$0$0       inventory_scene_update
     00001975  A$lcc761651$73                     main_menu
     00001975  C$main_menu.c$11$1_0$31            main_menu
     00001975  C$main_menu.c$9$0_0$31             main_menu
     00001975  G$MainMenu_Create$0$0              main_menu
     00001975  _MainMenu_Create                   main_menu
     00001978  A$lcc761651$74                     main_menu
     0000197A  A$lcc761651$75                     main_menu
     0000197B  A$lcc761651$76                     main_menu
     0000197D  A$lcc761651$80                     main_menu
     0000197D  C$main_menu.c$12$1_0$31            main_menu
     0000197E  A$lcc761651$81                     main_menu
     00001980  A$lcc761651$82                     main_menu
     00001981  A$lcc761651$83                     main_menu
     00001983  A$lcc761651$87                     main_menu
     00001983  C$main_menu.c$13$1_0$31            main_menu
     00001986  A$lcc761651$88                     main_menu
     00001988  A$lcc761651$92                     main_menu
     00001988  C$main_menu.c$15$1_0$31            main_menu
     0000198B  A$lcc761651$93                     main_menu
     0000198C  A$lcc761651$94                     main_menu
     0000198D  A$lcc761651$95                     main_menu
     0000198E  A$lcc761651$103                    main_menu
     0000198E  C$main_menu.c$16$1_0$31            main_menu
     0000198E  XG$MainMenu_Create$0$0             main_menu
     0000198F  A$lcc761652$57                     main_menu_init
     0000198F  C$main_menu_init.c$10$1_0$165      main_menu_init
     0000198F  C$main_menu_init.c$8$0_0$165       main_menu_init
     0000198F  G$MainMenu_Init$0$0                main_menu_init
     0000198F  _MainMenu_Init                     main_menu_init
     00001992  A$lcc761652$58                     main_menu_init
     00001993  A$lcc761652$59                     main_menu_init
     00001994  A$lcc761652$60                     main_menu_init
     00001995  A$lcc761652$61                     main_menu_init
     00001996  A$lcc761652$65                     main_menu_init
     00001996  C$main_menu_init.c$12$2_0$166      main_menu_init
     00001998  A$lcc761652$66                     main_menu_init
     00001999  A$lcc761652$70                     main_menu_init
     00001999  C$main_menu_init.c$13$1_1$166      main_menu_init
     0000199B  A$lcc761652$71                     main_menu_init
     0000199D  A$lcc761652$72                     main_menu_init
     000019A0  A$lcc761652$73                     main_menu_init
     000019A2  A$lcc761652$77                     main_menu_init
     000019A2  C$main_menu_init.c$15$1_1$166      main_menu_init
     000019A5  A$lcc761652$78                     main_menu_init
     000019A6  A$lcc761652$79                     main_menu_init
     000019A9  A$lcc761652$80                     main_menu_init
ASxxxx Linker V03.00/V05.40 + sdld,  page 70.
Hexadecimal  [32-Bits]

Area                                    Addr        Size        Decimal Bytes (Attributes)
--------------------------------        ----        ----        ------- ----- ------------
_CODE                               00000200    00002728 =       10024. bytes (REL,CON)

      Value  Global                              Global Defined In Module
      -----  --------------------------------   ------------------------
     000019AA  A$lcc761652$81                     main_menu_init
     000019AD  A$lcc761652$82                     main_menu_init
     000019AF  A$lcc761652$86                     main_menu_init
     000019AF  C$main_menu_init.c$16$1_1$166      main_menu_init
     000019B2  A$lcc761652$87                     main_menu_init
     000019B3  A$lcc761652$88                     main_menu_init
     000019B6  A$lcc761652$89                     main_menu_init
     000019B7  A$lcc761652$90                     main_menu_init
     000019B8  A$lcc761652$91                     main_menu_init
     000019B9  A$lcc761652$92                     main_menu_init
     000019BA  A$lcc761652$93                     main_menu_init
     000019BD  A$lcc761652$94                     main_menu_init
     000019BF  A$lcc761652$98                     main_menu_init
     000019BF  C$main_menu_init.c$18$1_1$166      main_menu_init
     000019C0  A$lcc761652$99                     main_menu_init
     000019C2  A$lcc761652$100                    main_menu_init
     000019C5  A$lcc761652$101                    main_menu_init
     000019C6  A$lcc761652$109                    main_menu_init
     000019C6  C$main_menu_init.c$19$1_1$165      main_menu_init
     000019C6  XG$MainMenu_Init$0$0               main_menu_init
     000019C7  A$lcc761653$59                     main_menu_init_stats
     000019C7  C$main_menu_init_stats.c$3$0_0$3   main_menu_init_stats
     000019C7  C$main_menu_init_stats.c$5$0_0$3   main_menu_init_stats
     000019C7  G$MainMenu_InitRandomStats$0$0     main_menu_init_stats
     000019C7  XG$MainMenu_InitRandomStats$0$0    main_menu_init_stats
     000019C7  _MainMenu_InitRandomStats          main_menu_init_stats
     000019C8  A$lcc761654$53                     main_menu_input
     000019C8  C$main_menu_input.c$12$0_0$171     main_menu_input
     000019C8  G$MainMenu_CheckInput$0$0          main_menu_input
     000019C8  _MainMenu_CheckInput               main_menu_input
     000019C9  A$lcc761654$57                     main_menu_input
     000019C9  C$main_menu_input.c$14$2_0$171     main_menu_input
     000019CC  A$lcc761654$58                     main_menu_input
     000019CD  A$lcc761654$59                     main_menu_input
     000019CF  A$lcc761654$60                     main_menu_input
     000019D2  A$lcc761654$61                     main_menu_input
     000019D3  A$lcc761654$62                     main_menu_input
     000019D5  A$lcc761654$66                     main_menu_input
     000019D5  C$main_menu_input.c$16$3_0$172     main_menu_input
     000019D7  A$lcc761654$67                     main_menu_input
     000019DA  A$lcc761654$68                     main_menu_input
     000019DB  A$lcc761654$69                     main_menu_input
     000019DD  A$lcc761654$73                     main_menu_input
     000019DD  C$main_menu_input.c$17$3_0$172     main_menu_input
     000019DF  A$lcc761654$74                     main_menu_input
     000019E0  A$lcc761654$75                     main_menu_input
     000019E1  A$lcc761654$79                     main_menu_input
     000019E1  C$main_menu_input.c$19$5_0$174     main_menu_input
     000019E3  A$lcc761654$80                     main_menu_input
     000019E5  A$lcc761654$82                     main_menu_input
     000019E7  A$lcc761654$83                     main_menu_input
ASxxxx Linker V03.00/V05.40 + sdld,  page 71.
Hexadecimal  [32-Bits]

Area                                    Addr        Size        Decimal Bytes (Attributes)
--------------------------------        ----        ----        ------- ----- ------------
_CODE                               00000200    00002728 =       10024. bytes (REL,CON)

      Value  Global                              Global Defined In Module
      -----  --------------------------------   ------------------------
     000019E8  A$lcc761654$84                     main_menu_input
     000019EA  A$lcc761654$85                     main_menu_input
     000019EC  A$lcc761654$89                     main_menu_input
     000019EC  C$main_menu_input.c$21$5_0$174     main_menu_input
     000019EF  A$lcc761654$90                     main_menu_input
     000019F0  A$lcc761654$91                     main_menu_input
     000019F2  A$lcc761654$92                     main_menu_input
     000019F3  A$lcc761654$93                     main_menu_input
     000019F4  A$lcc761654$94                     main_menu_input
     000019F7  A$lcc761654$95                     main_menu_input
     000019F8  A$lcc761654$96                     main_menu_input
     000019F9  A$lcc761654$97                     main_menu_input
     000019FC  A$lcc761654$98                     main_menu_input
     000019FD  A$lcc761654$99                     main_menu_input
     000019FE  A$lcc761654$100                    main_menu_input
     00001A01  A$lcc761654$101                    main_menu_input
     00001A02  A$lcc761654$102                    main_menu_input
     00001A03  A$lcc761654$103                    main_menu_input
     00001A04  A$lcc761654$107                    main_menu_input
     00001A04  C$main_menu_input.c$19$4_0$173     main_menu_input
     00001A06  A$lcc761654$108                    main_menu_input
     00001A07  A$lcc761654$109                    main_menu_input
     00001A09  A$lcc761654$114                    main_menu_input
     00001A09  C$main_menu_input.c$24$3_0$172     main_menu_input
     00001A0C  A$lcc761654$115                    main_menu_input
     00001A0F  A$lcc761654$116                    main_menu_input
     00001A10  A$lcc761654$117                    main_menu_input
     00001A11  A$lcc761654$118                    main_menu_input
     00001A12  A$lcc761654$119                    main_menu_input
     00001A13  A$lcc761654$120                    main_menu_input
     00001A14  A$lcc761654$121                    main_menu_input
     00001A15  A$lcc761654$122                    main_menu_input
     00001A16  A$lcc761654$123                    main_menu_input
     00001A19  A$lcc761654$124                    main_menu_input
     00001A1B  A$lcc761654$125                    main_menu_input
     00001A1C  A$lcc761654$126                    main_menu_input
     00001A1E  A$lcc761654$127                    main_menu_input
     00001A1F  A$lcc761654$128                    main_menu_input
     00001A20  A$lcc761654$129                    main_menu_input
     00001A21  A$lcc761654$130                    main_menu_input
     00001A22  A$lcc761654$135                    main_menu_input
     00001A23  A$lcc761654$140                    main_menu_input
     00001A23  C$main_menu_input.c$26$2_0$171     main_menu_input
     00001A23  XG$MainMenu_CheckInput$0$0         main_menu_input
     00001A24  A$lcc761655$55                     main_menu_update
     00001A24  C$main_menu_update.c$7$0_0$157     main_menu_update
     00001A24  G$MainMenu_Update$0$0              main_menu_update
     00001A24  _MainMenu_Update                   main_menu_update
     00001A26  A$lcc761655$59                     main_menu_update
     00001A26  C$main_menu_update.c$9$1_0$157     main_menu_update
     00001A29  A$lcc761655$60                     main_menu_update
ASxxxx Linker V03.00/V05.40 + sdld,  page 72.
Hexadecimal  [32-Bits]

Area                                    Addr        Size        Decimal Bytes (Attributes)
--------------------------------        ----        ----        ------- ----- ------------
_CODE                               00000200    00002728 =       10024. bytes (REL,CON)

      Value  Global                              Global Defined In Module
      -----  --------------------------------   ------------------------
     00001A2A  A$lcc761655$61                     main_menu_update
     00001A2C  A$lcc761655$62                     main_menu_update
     00001A2D  A$lcc761655$63                     main_menu_update
     00001A2E  A$lcc761655$68                     main_menu_update
     00001A2E  C$main_menu_update.c$10$1_0$157    main_menu_update
     00001A31  A$lcc761655$72                     main_menu_update
     00001A31  C$main_menu_update.c$12$2_0$158    main_menu_update
     00001A34  A$lcc761655$73                     main_menu_update
     00001A35  A$lcc761655$74                     main_menu_update
     00001A37  A$lcc761655$75                     main_menu_update
     00001A3A  A$lcc761655$76                     main_menu_update
     00001A3B  A$lcc761655$77                     main_menu_update
     00001A3C  A$lcc761655$78                     main_menu_update
     00001A3D  A$lcc761655$79                     main_menu_update
     00001A3E  A$lcc761655$80                     main_menu_update
     00001A41  A$lcc761655$84                     main_menu_update
     00001A41  C$main_menu_update.c$14$3_0$159    main_menu_update
     00001A42  A$lcc761655$85                     main_menu_update
     00001A43  A$lcc761655$86                     main_menu_update
     00001A44  A$lcc761655$87                     main_menu_update
     00001A45  A$lcc761655$91                     main_menu_update
     00001A45  C$main_menu_update.c$16$4_0$160    main_menu_update
     00001A48  A$lcc761655$95                     main_menu_update
     00001A48  C$main_menu_update.c$18$5_0$161    main_menu_update
     00001A49  A$lcc761655$96                     main_menu_update
     00001A4B  A$lcc761655$97                     main_menu_update
     00001A4E  A$lcc761655$101                    main_menu_update
     00001A4E  C$main_menu_update.c$20$6_0$163    main_menu_update
     00001A50  A$lcc761655$102                    main_menu_update
     00001A52  A$lcc761655$106                    main_menu_update
     00001A52  C$main_menu_update.c$21$2_0$157    main_menu_update
     00001A54  A$lcc761655$108                    main_menu_update
     00001A55  A$lcc761655$109                    main_menu_update
     00001A57  A$lcc761655$110                    main_menu_update
     00001A59  A$lcc761655$114                    main_menu_update
     00001A59  C$main_menu_update.c$23$7_1$164    main_menu_update
     00001A5A  A$lcc761655$115                    main_menu_update
     00001A5D  A$lcc761655$116                    main_menu_update
     00001A5E  A$lcc761655$117                    main_menu_update
     00001A5F  A$lcc761655$118                    main_menu_update
     00001A62  A$lcc761655$119                    main_menu_update
     00001A63  A$lcc761655$120                    main_menu_update
     00001A65  A$lcc761655$121                    main_menu_update
     00001A66  A$lcc761655$122                    main_menu_update
     00001A67  A$lcc761655$123                    main_menu_update
     00001A68  A$lcc761655$124                    main_menu_update
     00001A69  A$lcc761655$125                    main_menu_update
     00001A6C  A$lcc761655$126                    main_menu_update
     00001A6E  A$lcc761655$130                    main_menu_update
     00001A6E  C$main_menu_update.c$21$6_1$163    main_menu_update
     00001A6F  A$lcc761655$131                    main_menu_update
ASxxxx Linker V03.00/V05.40 + sdld,  page 73.
Hexadecimal  [32-Bits]

Area                                    Addr        Size        Decimal Bytes (Attributes)
--------------------------------        ----        ----        ------- ----- ------------
_CODE                               00000200    00002728 =       10024. bytes (REL,CON)

      Value  Global                              Global Defined In Module
      -----  --------------------------------   ------------------------
     00001A71  A$lcc761655$136                    main_menu_update
     00001A71  C$main_menu_update.c$28$5_0$165    main_menu_update
     00001A74  A$lcc761655$137                    main_menu_update
     00001A76  A$lcc761655$141                    main_menu_update
     00001A76  C$main_menu_update.c$30$6_0$167    main_menu_update
     00001A78  A$lcc761655$142                    main_menu_update
     00001A7A  A$lcc761655$143                    main_menu_update
     00001A7B  A$lcc761655$144                    main_menu_update
     00001A7D  A$lcc761655$145                    main_menu_update
     00001A7E  A$lcc761655$146                    main_menu_update
     00001A80  A$lcc761655$147                    main_menu_update
     00001A81  A$lcc761655$148                    main_menu_update
     00001A83  A$lcc761655$149                    main_menu_update
     00001A84  A$lcc761655$150                    main_menu_update
     00001A85  A$lcc761655$151                    main_menu_update
     00001A87  A$lcc761655$152                    main_menu_update
     00001A88  A$lcc761655$153                    main_menu_update
     00001A89  A$lcc761655$154                    main_menu_update
     00001A8B  A$lcc761655$155                    main_menu_update
     00001A8C  A$lcc761655$156                    main_menu_update
     00001A8E  A$lcc761655$157                    main_menu_update
     00001A8F  A$lcc761655$158                    main_menu_update
     00001A91  A$lcc761655$159                    main_menu_update
     00001A92  A$lcc761655$160                    main_menu_update
     00001A94  A$lcc761655$161                    main_menu_update
     00001A95  A$lcc761655$162                    main_menu_update
     00001A97  A$lcc761655$163                    main_menu_update
     00001A98  A$lcc761655$167                    main_menu_update
     00001A98  C$main_menu_update.c$33$2_0$157    main_menu_update
     00001A9B  A$lcc761655$168                    main_menu_update
     00001A9C  A$lcc761655$170                    main_menu_update
     00001A9D  A$lcc761655$171                    main_menu_update
     00001A9F  A$lcc761655$172                    main_menu_update
     00001AA1  A$lcc761655$176                    main_menu_update
     00001AA1  C$main_menu_update.c$35$7_1$168    main_menu_update
     00001AA2  A$lcc761655$177                    main_menu_update
     00001AA4  A$lcc761655$178                    main_menu_update
     00001AA7  A$lcc761655$179                    main_menu_update
     00001AA8  A$lcc761655$180                    main_menu_update
     00001AA9  A$lcc761655$181                    main_menu_update
     00001AAA  A$lcc761655$182                    main_menu_update
     00001AAB  A$lcc761655$183                    main_menu_update
     00001AAE  A$lcc761655$184                    main_menu_update
     00001AAF  A$lcc761655$185                    main_menu_update
     00001AB0  A$lcc761655$186                    main_menu_update
     00001AB1  A$lcc761655$187                    main_menu_update
     00001AB3  A$lcc761655$191                    main_menu_update
     00001AB3  C$main_menu_update.c$36$7_1$168    main_menu_update
     00001AB5  A$lcc761655$192                    main_menu_update
     00001AB6  A$lcc761655$193                    main_menu_update
     00001AB7  A$lcc761655$194                    main_menu_update
ASxxxx Linker V03.00/V05.40 + sdld,  page 74.
Hexadecimal  [32-Bits]

Area                                    Addr        Size        Decimal Bytes (Attributes)
--------------------------------        ----        ----        ------- ----- ------------
_CODE                               00000200    00002728 =       10024. bytes (REL,CON)

      Value  Global                              Global Defined In Module
      -----  --------------------------------   ------------------------
     00001ABA  A$lcc761655$195                    main_menu_update
     00001ABB  A$lcc761655$196                    main_menu_update
     00001ABD  A$lcc761655$197                    main_menu_update
     00001ABE  A$lcc761655$198                    main_menu_update
     00001ABF  A$lcc761655$199                    main_menu_update
     00001AC0  A$lcc761655$200                    main_menu_update
     00001AC1  A$lcc761655$201                    main_menu_update
     00001AC4  A$lcc761655$202                    main_menu_update
     00001AC6  A$lcc761655$206                    main_menu_update
     00001AC6  C$main_menu_update.c$37$7_1$168    main_menu_update
     00001AC7  A$lcc761655$210                    main_menu_update
     00001AC7  C$main_menu_update.c$33$6_1$167    main_menu_update
     00001AC8  A$lcc761655$211                    main_menu_update
     00001ACA  A$lcc761655$216                    main_menu_update
     00001ACC  A$lcc761655$221                    main_menu_update
     00001ACC  C$main_menu_update.c$41$2_0$157    main_menu_update
     00001ACC  XG$MainMenu_Update$0$0             main_menu_update
     00001ACD  A$lcc761656$57                     clean_text
     00001ACD  C$clean_text.c$7$0_0$133           clean_text
     00001ACD  C$clean_text.c$9$1_0$133           clean_text
     00001ACD  G$clean$0$0                        clean_text
     00001ACD  _clean                             clean_text
     00001AD0  A$lcc761656$58                     clean_text
     00001AD2  A$lcc761656$62                     clean_text
     00001AD2  C$clean_text.c$11$1_0$133          clean_text
     00001AD4  A$lcc761656$64                     clean_text
     00001AD6  A$lcc761656$65                     clean_text
     00001AD7  A$lcc761656$66                     clean_text
     00001AD9  A$lcc761656$70                     clean_text
     00001AD9  C$clean_text.c$13$3_0$135          clean_text
     00001ADC  A$lcc761656$71                     clean_text
     00001ADD  A$lcc761656$72                     clean_text
     00001ADE  A$lcc761656$73                     clean_text
     00001ADF  A$lcc761656$74                     clean_text
     00001AE2  A$lcc761656$75                     clean_text
     00001AE3  A$lcc761656$76                     clean_text
     00001AE5  A$lcc761656$77                     clean_text
     00001AE6  A$lcc761656$78                     clean_text
     00001AE7  A$lcc761656$79                     clean_text
     00001AE8  A$lcc761656$80                     clean_text
     00001AE9  A$lcc761656$81                     clean_text
     00001AEC  A$lcc761656$82                     clean_text
     00001AEE  A$lcc761656$86                     clean_text
     00001AEE  C$clean_text.c$14$3_0$135          clean_text
     00001AF1  A$lcc761656$87                     clean_text
     00001AF2  A$lcc761656$88                     clean_text
     00001AF4  A$lcc761656$89                     clean_text
     00001AF5  A$lcc761656$90                     clean_text
     00001AF6  A$lcc761656$91                     clean_text
     00001AF7  A$lcc761656$92                     clean_text
     00001AF8  A$lcc761656$93                     clean_text
ASxxxx Linker V03.00/V05.40 + sdld,  page 75.
Hexadecimal  [32-Bits]

Area                                    Addr        Size        Decimal Bytes (Attributes)
--------------------------------        ----        ----        ------- ----- ------------
_CODE                               00000200    00002728 =       10024. bytes (REL,CON)

      Value  Global                              Global Defined In Module
      -----  --------------------------------   ------------------------
     00001AFB  A$lcc761656$94                     clean_text
     00001AFD  A$lcc761656$98                     clean_text
     00001AFD  C$clean_text.c$11$2_0$134          clean_text
     00001AFE  A$lcc761656$99                     clean_text
     00001B00  A$lcc761656$104                    clean_text
     00001B00  C$clean_text.c$17$1_0$133          clean_text
     00001B02  A$lcc761656$109                    clean_text
     00001B02  C$clean_text.c$19$3_0$137          clean_text
     00001B03  A$lcc761656$110                    clean_text
     00001B05  A$lcc761656$111                    clean_text
     00001B07  A$lcc761656$112                    clean_text
     00001B0A  A$lcc761656$113                    clean_text
     00001B0B  A$lcc761656$114                    clean_text
     00001B0D  A$lcc761656$115                    clean_text
     00001B0E  A$lcc761656$116                    clean_text
     00001B0F  A$lcc761656$117                    clean_text
     00001B11  A$lcc761656$118                    clean_text
     00001B12  A$lcc761656$119                    clean_text
     00001B13  A$lcc761656$120                    clean_text
     00001B15  A$lcc761656$121                    clean_text
     00001B16  A$lcc761656$122                    clean_text
     00001B17  A$lcc761656$123                    clean_text
     00001B18  A$lcc761656$124                    clean_text
     00001B19  A$lcc761656$125                    clean_text
     00001B1C  A$lcc761656$126                    clean_text
     00001B1E  A$lcc761656$130                    clean_text
     00001B1E  C$clean_text.c$17$2_0$136          clean_text
     00001B1F  A$lcc761656$131                    clean_text
     00001B21  A$lcc761656$136                    clean_text
     00001B21  C$clean_text.c$22$1_0$133          clean_text
     00001B24  A$lcc761656$137                    clean_text
     00001B25  A$lcc761656$138                    clean_text
     00001B28  A$lcc761656$139                    clean_text
     00001B29  A$lcc761656$140                    clean_text
     00001B2C  A$lcc761656$141                    clean_text
     00001B2D  A$lcc761656$142                    clean_text
     00001B30  A$lcc761656$143                    clean_text
     00001B32  A$lcc761656$147                    clean_text
     00001B32  C$clean_text.c$23$1_0$133          clean_text
     00001B33  A$lcc761656$148                    clean_text
     00001B36  A$lcc761656$149                    clean_text
     00001B37  A$lcc761656$150                    clean_text
     00001B3A  A$lcc761656$151                    clean_text
     00001B3B  A$lcc761656$152                    clean_text
     00001B3E  A$lcc761656$153                    clean_text
     00001B40  A$lcc761656$161                    clean_text
     00001B40  C$clean_text.c$24$1_0$133          clean_text
     00001B40  XG$clean$0$0                       clean_text
     00001B41  G$empty_tile$0_0$0                 clean_text
     00001B41  _empty_tile                        clean_text
     00001B42  A$lcc761657$53                     map_collision
ASxxxx Linker V03.00/V05.40 + sdld,  page 76.
Hexadecimal  [32-Bits]

Area                                    Addr        Size        Decimal Bytes (Attributes)
--------------------------------        ----        ----        ------- ----- ------------
_CODE                               00000200    00002728 =       10024. bytes (REL,CON)

      Value  Global                              Global Defined In Module
      -----  --------------------------------   ------------------------
     00001B42  C$map_collision.c$12$0_0$135       map_collision
     00001B42  Fmap_collision$get_tile$0$0        map_collision
     00001B44  A$lcc761657$54                     map_collision
     00001B46  A$lcc761657$55                     map_collision
     00001B47  A$lcc761657$56                     map_collision
     00001B48  A$lcc761657$57                     map_collision
     00001B49  A$lcc761657$61                     map_collision
     00001B49  C$map_collision.c$14$1_0$135       map_collision
     00001B4C  A$lcc761657$62                     map_collision
     00001B4D  A$lcc761657$63                     map_collision
     00001B4E  A$lcc761657$64                     map_collision
     00001B4F  A$lcc761657$65                     map_collision
     00001B50  A$lcc761657$66                     map_collision
     00001B52  A$lcc761657$67                     map_collision
     00001B53  A$lcc761657$68                     map_collision
     00001B54  A$lcc761657$69                     map_collision
     00001B55  A$lcc761657$70                     map_collision
     00001B56  A$lcc761657$71                     map_collision
     00001B58  A$lcc761657$72                     map_collision
     00001B59  A$lcc761657$73                     map_collision
     00001B5A  A$lcc761657$74                     map_collision
     00001B5B  A$lcc761657$75                     map_collision
     00001B5C  A$lcc761657$76                     map_collision
     00001B5D  A$lcc761657$77                     map_collision
     00001B5E  A$lcc761657$78                     map_collision
     00001B5F  A$lcc761657$79                     map_collision
     00001B60  A$lcc761657$80                     map_collision
     00001B61  A$lcc761657$81                     map_collision
     00001B62  A$lcc761657$82                     map_collision
     00001B63  A$lcc761657$83                     map_collision
     00001B64  A$lcc761657$84                     map_collision
     00001B66  A$lcc761657$85                     map_collision
     00001B67  A$lcc761657$86                     map_collision
     00001B68  A$lcc761657$87                     map_collision
     00001B69  A$lcc761657$88                     map_collision
     00001B6A  A$lcc761657$89                     map_collision
     00001B6B  A$lcc761657$90                     map_collision
     00001B6C  A$lcc761657$91                     map_collision
     00001B6D  A$lcc761657$92                     map_collision
     00001B6E  A$lcc761657$93                     map_collision
     00001B6F  A$lcc761657$94                     map_collision
     00001B70  A$lcc761657$95                     map_collision
     00001B71  A$lcc761657$96                     map_collision
     00001B72  A$lcc761657$97                     map_collision
     00001B73  A$lcc761657$98                     map_collision
     00001B74  A$lcc761657$99                     map_collision
     00001B75  A$lcc761657$100                    map_collision
     00001B76  A$lcc761657$101                    map_collision
     00001B77  A$lcc761657$105                    map_collision
     00001B77  C$map_collision.c$15$1_0$135       map_collision
     00001B79  A$lcc761657$106                    map_collision
ASxxxx Linker V03.00/V05.40 + sdld,  page 77.
Hexadecimal  [32-Bits]

Area                                    Addr        Size        Decimal Bytes (Attributes)
--------------------------------        ----        ----        ------- ----- ------------
_CODE                               00000200    00002728 =       10024. bytes (REL,CON)

      Value  Global                              Global Defined In Module
      -----  --------------------------------   ------------------------
     00001B7A  A$lcc761657$107                    map_collision
     00001B7B  A$lcc761657$108                    map_collision
     00001B7C  A$lcc761657$118                    map_collision
     00001B7C  C$map_collision.c$18$1_0$137       map_collision
     00001B7C  G$Map_Collision$0$0                map_collision
     00001B7C  _Map_Collision                     map_collision
     00001B7E  A$lcc761657$122                    map_collision
     00001B7E  C$map_collision.c$20$1_0$137       map_collision
     00001B81  A$lcc761657$123                    map_collision
     00001B82  A$lcc761657$124                    map_collision
     00001B83  A$lcc761657$125                    map_collision
     00001B84  A$lcc761657$126                    map_collision
     00001B86  A$lcc761657$127                    map_collision
     00001B87  A$lcc761657$128                    map_collision
     00001B88  A$lcc761657$132                    map_collision
     00001B88  C$map_collision.c$21$1_0$137       map_collision
     00001B89  A$lcc761657$133                    map_collision
     00001B8A  A$lcc761657$134                    map_collision
     00001B8B  A$lcc761657$135                    map_collision
     00001B8C  A$lcc761657$136                    map_collision
     00001B8D  A$lcc761657$137                    map_collision
     00001B8E  A$lcc761657$141                    map_collision
     00001B8E  C$map_collision.c$29$1_0$137       map_collision
     00001B91  A$lcc761657$142                    map_collision
     00001B93  A$lcc761657$143                    map_collision
     00001B94  A$lcc761657$144                    map_collision
     00001B95  A$lcc761657$145                    map_collision
     00001B97  A$lcc761657$146                    map_collision
     00001B98  A$lcc761657$147                    map_collision
     00001B9A  A$lcc761657$148                    map_collision
     00001B9C  A$lcc761657$149                    map_collision
     00001B9D  A$lcc761657$153                    map_collision
     00001B9D  C$map_collision.c$30$1_0$137       map_collision
     00001BA0  A$lcc761657$154                    map_collision
     00001BA2  A$lcc761657$155                    map_collision
     00001BA3  A$lcc761657$156                    map_collision
     00001BA4  A$lcc761657$157                    map_collision
     00001BA6  A$lcc761657$158                    map_collision
     00001BA7  A$lcc761657$159                    map_collision
     00001BA9  A$lcc761657$160                    map_collision
     00001BAA  A$lcc761657$164                    map_collision
     00001BAA  C$map_collision.c$35$1_0$137       map_collision
     00001BAB  A$lcc761657$165                    map_collision
     00001BAC  A$lcc761657$166                    map_collision
     00001BAF  A$lcc761657$167                    map_collision
     00001BB0  A$lcc761657$168                    map_collision
     00001BB1  A$lcc761657$169                    map_collision
     00001BB2  A$lcc761657$170                    map_collision
     00001BB4  A$lcc761657$171                    map_collision
     00001BB5  A$lcc761657$172                    map_collision
     00001BB6  A$lcc761657$173                    map_collision
ASxxxx Linker V03.00/V05.40 + sdld,  page 78.
Hexadecimal  [32-Bits]

Area                                    Addr        Size        Decimal Bytes (Attributes)
--------------------------------        ----        ----        ------- ----- ------------
_CODE                               00000200    00002728 =       10024. bytes (REL,CON)

      Value  Global                              Global Defined In Module
      -----  --------------------------------   ------------------------
     00001BB7  A$lcc761657$174                    map_collision
     00001BB9  A$lcc761657$175                    map_collision
     00001BBA  A$lcc761657$176                    map_collision
     00001BBB  A$lcc761657$177                    map_collision
     00001BBC  A$lcc761657$178                    map_collision
     00001BBD  A$lcc761657$179                    map_collision
     00001BBE  A$lcc761657$180                    map_collision
     00001BC0  A$lcc761657$181                    map_collision
     00001BC1  A$lcc761657$182                    map_collision
     00001BC2  A$lcc761657$183                    map_collision
     00001BC3  A$lcc761657$184                    map_collision
     00001BC4  A$lcc761657$185                    map_collision
     00001BC6  A$lcc761657$186                    map_collision
     00001BC7  A$lcc761657$187                    map_collision
     00001BC8  A$lcc761657$188                    map_collision
     00001BC9  A$lcc761657$189                    map_collision
     00001BCA  A$lcc761657$190                    map_collision
     00001BCB  A$lcc761657$191                    map_collision
     00001BCC  A$lcc761657$192                    map_collision
     00001BCD  A$lcc761657$193                    map_collision
     00001BCE  A$lcc761657$194                    map_collision
     00001BCF  A$lcc761657$195                    map_collision
     00001BD1  A$lcc761657$196                    map_collision
     00001BD2  A$lcc761657$197                    map_collision
     00001BD3  A$lcc761657$198                    map_collision
     00001BD4  A$lcc761657$199                    map_collision
     00001BD6  A$lcc761657$200                    map_collision
     00001BD7  A$lcc761657$201                    map_collision
     00001BD8  A$lcc761657$202                    map_collision
     00001BD9  A$lcc761657$203                    map_collision
     00001BDA  A$lcc761657$204                    map_collision
     00001BDC  A$lcc761657$205                    map_collision
     00001BDD  A$lcc761657$206                    map_collision
     00001BDE  A$lcc761657$207                    map_collision
     00001BDF  A$lcc761657$208                    map_collision
     00001BE0  A$lcc761657$209                    map_collision
     00001BE1  A$lcc761657$210                    map_collision
     00001BE2  A$lcc761657$211                    map_collision
     00001BE4  A$lcc761657$212                    map_collision
     00001BE5  A$lcc761657$213                    map_collision
     00001BE6  A$lcc761657$214                    map_collision
     00001BE7  A$lcc761657$215                    map_collision
     00001BE9  A$lcc761657$216                    map_collision
     00001BEA  A$lcc761657$217                    map_collision
     00001BEB  A$lcc761657$218                    map_collision
     00001BEC  A$lcc761657$219                    map_collision
     00001BEE  A$lcc761657$220                    map_collision
     00001BF0  A$lcc761657$221                    map_collision
     00001BF1  A$lcc761657$223                    map_collision
     00001BF3  A$lcc761657$224                    map_collision
     00001BF6  A$lcc761657$228                    map_collision
ASxxxx Linker V03.00/V05.40 + sdld,  page 79.
Hexadecimal  [32-Bits]

Area                                    Addr        Size        Decimal Bytes (Attributes)
--------------------------------        ----        ----        ------- ----- ------------
_CODE                               00000200    00002728 =       10024. bytes (REL,CON)

      Value  Global                              Global Defined In Module
      -----  --------------------------------   ------------------------
     00001BF6  C$map_collision.c$36$1_0$137       map_collision
     00001BF8  A$lcc761657$229                    map_collision
     00001BF9  A$lcc761657$230                    map_collision
     00001BFA  A$lcc761657$231                    map_collision
     00001BFB  A$lcc761657$232                    map_collision
     00001BFC  A$lcc761657$233                    map_collision
     00001BFE  A$lcc761657$234                    map_collision
     00001BFF  A$lcc761657$235                    map_collision
     00001C00  A$lcc761657$236                    map_collision
     00001C01  A$lcc761657$237                    map_collision
     00001C02  A$lcc761657$238                    map_collision
     00001C03  A$lcc761657$239                    map_collision
     00001C04  A$lcc761657$240                    map_collision
     00001C05  A$lcc761657$241                    map_collision
     00001C07  A$lcc761657$242                    map_collision
     00001C08  A$lcc761657$243                    map_collision
     00001C09  A$lcc761657$244                    map_collision
     00001C0A  A$lcc761657$245                    map_collision
     00001C0B  A$lcc761657$246                    map_collision
     00001C0C  A$lcc761657$247                    map_collision
     00001C0D  A$lcc761657$248                    map_collision
     00001C0E  A$lcc761657$249                    map_collision
     00001C0F  A$lcc761657$250                    map_collision
     00001C11  A$lcc761657$251                    map_collision
     00001C12  A$lcc761657$252                    map_collision
     00001C13  A$lcc761657$253                    map_collision
     00001C14  A$lcc761657$254                    map_collision
     00001C16  A$lcc761657$255                    map_collision
     00001C18  A$lcc761657$256                    map_collision
     00001C19  A$lcc761657$258                    map_collision
     00001C1B  A$lcc761657$259                    map_collision
     00001C1E  A$lcc761657$263                    map_collision
     00001C1E  C$map_collision.c$37$1_0$137       map_collision
     00001C20  A$lcc761657$264                    map_collision
     00001C21  A$lcc761657$265                    map_collision
     00001C22  A$lcc761657$266                    map_collision
     00001C23  A$lcc761657$267                    map_collision
     00001C24  A$lcc761657$268                    map_collision
     00001C26  A$lcc761657$269                    map_collision
     00001C27  A$lcc761657$270                    map_collision
     00001C28  A$lcc761657$271                    map_collision
     00001C29  A$lcc761657$272                    map_collision
     00001C2A  A$lcc761657$273                    map_collision
     00001C2B  A$lcc761657$274                    map_collision
     00001C2C  A$lcc761657$275                    map_collision
     00001C2D  A$lcc761657$276                    map_collision
     00001C2E  A$lcc761657$277                    map_collision
     00001C2F  A$lcc761657$278                    map_collision
     00001C30  A$lcc761657$279                    map_collision
     00001C31  A$lcc761657$280                    map_collision
     00001C32  A$lcc761657$281                    map_collision
ASxxxx Linker V03.00/V05.40 + sdld,  page 80.
Hexadecimal  [32-Bits]

Area                                    Addr        Size        Decimal Bytes (Attributes)
--------------------------------        ----        ----        ------- ----- ------------
_CODE                               00000200    00002728 =       10024. bytes (REL,CON)

      Value  Global                              Global Defined In Module
      -----  --------------------------------   ------------------------
     00001C33  A$lcc761657$282                    map_collision
     00001C34  A$lcc761657$283                    map_collision
     00001C35  A$lcc761657$284                    map_collision
     00001C36  A$lcc761657$285                    map_collision
     00001C37  A$lcc761657$286                    map_collision
     00001C38  A$lcc761657$287                    map_collision
     00001C39  A$lcc761657$288                    map_collision
     00001C3A  A$lcc761657$289                    map_collision
     00001C3B  A$lcc761657$290                    map_collision
     00001C3D  A$lcc761657$291                    map_collision
     00001C3E  A$lcc761657$292                    map_collision
     00001C3F  A$lcc761657$293                    map_collision
     00001C40  A$lcc761657$294                    map_collision
     00001C41  A$lcc761657$295                    map_collision
     00001C42  A$lcc761657$296                    map_collision
     00001C43  A$lcc761657$297                    map_collision
     00001C45  A$lcc761657$298                    map_collision
     00001C46  A$lcc761657$299                    map_collision
     00001C48  A$lcc761657$300                    map_collision
     00001C49  A$lcc761657$301                    map_collision
     00001C4A  A$lcc761657$302                    map_collision
     00001C4B  A$lcc761657$303                    map_collision
     00001C4C  A$lcc761657$304                    map_collision
     00001C4D  A$lcc761657$305                    map_collision
     00001C4F  A$lcc761657$306                    map_collision
     00001C51  A$lcc761657$307                    map_collision
     00001C52  A$lcc761657$309                    map_collision
     00001C54  A$lcc761657$310                    map_collision
     00001C57  A$lcc761657$314                    map_collision
     00001C57  C$map_collision.c$38$1_0$137       map_collision
     00001C59  A$lcc761657$315                    map_collision
     00001C5A  A$lcc761657$316                    map_collision
     00001C5B  A$lcc761657$317                    map_collision
     00001C5C  A$lcc761657$318                    map_collision
     00001C5D  A$lcc761657$319                    map_collision
     00001C5E  A$lcc761657$320                    map_collision
     00001C5F  A$lcc761657$321                    map_collision
     00001C60  A$lcc761657$322                    map_collision
     00001C61  A$lcc761657$323                    map_collision
     00001C63  A$lcc761657$324                    map_collision
     00001C64  A$lcc761657$325                    map_collision
     00001C66  A$lcc761657$326                    map_collision
     00001C67  A$lcc761657$327                    map_collision
     00001C68  A$lcc761657$328                    map_collision
     00001C69  A$lcc761657$329                    map_collision
     00001C6A  A$lcc761657$330                    map_collision
     00001C6B  A$lcc761657$331                    map_collision
     00001C6C  A$lcc761657$332                    map_collision
     00001C6D  A$lcc761657$333                    map_collision
     00001C6E  A$lcc761657$334                    map_collision
     00001C6F  A$lcc761657$335                    map_collision
ASxxxx Linker V03.00/V05.40 + sdld,  page 81.
Hexadecimal  [32-Bits]

Area                                    Addr        Size        Decimal Bytes (Attributes)
--------------------------------        ----        ----        ------- ----- ------------
_CODE                               00000200    00002728 =       10024. bytes (REL,CON)

      Value  Global                              Global Defined In Module
      -----  --------------------------------   ------------------------
     00001C70  A$lcc761657$336                    map_collision
     00001C71  A$lcc761657$337                    map_collision
     00001C72  A$lcc761657$338                    map_collision
     00001C74  A$lcc761657$339                    map_collision
     00001C75  A$lcc761657$340                    map_collision
     00001C77  A$lcc761657$341                    map_collision
     00001C78  A$lcc761657$342                    map_collision
     00001C79  A$lcc761657$343                    map_collision
     00001C7A  A$lcc761657$344                    map_collision
     00001C7B  A$lcc761657$345                    map_collision
     00001C7C  A$lcc761657$346                    map_collision
     00001C7E  A$lcc761657$347                    map_collision
     00001C80  A$lcc761657$348                    map_collision
     00001C81  A$lcc761657$350                    map_collision
     00001C83  A$lcc761657$351                    map_collision
     00001C86  A$lcc761657$355                    map_collision
     00001C86  C$map_collision.c$44$2_0$138       map_collision
     00001C88  A$lcc761657$356                    map_collision
     00001C89  A$lcc761657$357                    map_collision
     00001C8A  A$lcc761657$358                    map_collision
     00001C8B  A$lcc761657$359                    map_collision
     00001C8C  A$lcc761657$360                    map_collision
     00001C8D  A$lcc761657$361                    map_collision
     00001C8E  A$lcc761657$362                    map_collision
     00001C8F  A$lcc761657$363                    map_collision
     00001C90  A$lcc761657$364                    map_collision
     00001C91  A$lcc761657$365                    map_collision
     00001C92  A$lcc761657$366                    map_collision
     00001C93  A$lcc761657$367                    map_collision
     00001C94  A$lcc761657$368                    map_collision
     00001C95  A$lcc761657$369                    map_collision
     00001C96  A$lcc761657$370                    map_collision
     00001C97  A$lcc761657$371                    map_collision
     00001C99  A$lcc761657$372                    map_collision
     00001C9A  A$lcc761657$373                    map_collision
     00001C9C  A$lcc761657$374                    map_collision
     00001C9D  A$lcc761657$375                    map_collision
     00001C9E  A$lcc761657$376                    map_collision
     00001C9F  A$lcc761657$377                    map_collision
     00001CA0  A$lcc761657$378                    map_collision
     00001CA1  A$lcc761657$379                    map_collision
     00001CA3  A$lcc761657$380                    map_collision
     00001CA5  A$lcc761657$381                    map_collision
     00001CA6  A$lcc761657$383                    map_collision
     00001CA7  A$lcc761657$384                    map_collision
     00001CAA  A$lcc761657$385                    map_collision
     00001CAB  A$lcc761657$386                    map_collision
     00001CAD  A$lcc761657$387                    map_collision
     00001CAF  A$lcc761657$388                    map_collision
     00001CB0  A$lcc761657$390                    map_collision
     00001CB1  A$lcc761657$391                    map_collision
ASxxxx Linker V03.00/V05.40 + sdld,  page 82.
Hexadecimal  [32-Bits]

Area                                    Addr        Size        Decimal Bytes (Attributes)
--------------------------------        ----        ----        ------- ----- ------------
_CODE                               00000200    00002728 =       10024. bytes (REL,CON)

      Value  Global                              Global Defined In Module
      -----  --------------------------------   ------------------------
     00001CB3  A$lcc761657$395                    map_collision
     00001CB3  C$map_collision.c$46$3_0$139       map_collision
     00001CB6  A$lcc761657$400                    map_collision
     00001CB6  C$map_collision.c$49$2_0$140       map_collision
     00001CB8  A$lcc761657$401                    map_collision
     00001CB9  A$lcc761657$402                    map_collision
     00001CBA  A$lcc761657$403                    map_collision
     00001CBB  A$lcc761657$404                    map_collision
     00001CBC  A$lcc761657$405                    map_collision
     00001CBD  A$lcc761657$406                    map_collision
     00001CBE  A$lcc761657$407                    map_collision
     00001CBF  A$lcc761657$408                    map_collision
     00001CC0  A$lcc761657$409                    map_collision
     00001CC1  A$lcc761657$410                    map_collision
     00001CC2  A$lcc761657$411                    map_collision
     00001CC3  A$lcc761657$412                    map_collision
     00001CC4  A$lcc761657$413                    map_collision
     00001CC5  A$lcc761657$414                    map_collision
     00001CC6  A$lcc761657$415                    map_collision
     00001CC7  A$lcc761657$416                    map_collision
     00001CC9  A$lcc761657$417                    map_collision
     00001CCA  A$lcc761657$418                    map_collision
     00001CCC  A$lcc761657$419                    map_collision
     00001CCD  A$lcc761657$420                    map_collision
     00001CCE  A$lcc761657$421                    map_collision
     00001CCF  A$lcc761657$422                    map_collision
     00001CD0  A$lcc761657$423                    map_collision
     00001CD1  A$lcc761657$424                    map_collision
     00001CD3  A$lcc761657$431                    map_collision
     00001CD3  C$map_collision.c$51$3_0$141       map_collision
     00001CD3  C$map_collision.c$52$3_0$141       map_collision
     00001CD4  A$lcc761657$432                    map_collision
     00001CD5  A$lcc761657$433                    map_collision
     00001CD6  A$lcc761657$437                    map_collision
     00001CD6  C$map_collision.c$54$4_0$142       map_collision
     00001CD7  A$lcc761657$438                    map_collision
     00001CD8  A$lcc761657$439                    map_collision
     00001CDB  A$lcc761657$440                    map_collision
     00001CDC  A$lcc761657$441                    map_collision
     00001CDD  A$lcc761657$442                    map_collision
     00001CDE  A$lcc761657$443                    map_collision
     00001CDF  A$lcc761657$444                    map_collision
     00001CE0  A$lcc761657$445                    map_collision
     00001CE1  A$lcc761657$446                    map_collision
     00001CE2  A$lcc761657$447                    map_collision
     00001CE4  A$lcc761657$448                    map_collision
     00001CE6  A$lcc761657$452                    map_collision
     00001CE6  C$map_collision.c$55$4_0$142       map_collision
     00001CE8  A$lcc761657$456                    map_collision
     00001CE8  C$map_collision.c$57$4_0$143       map_collision
     00001CE9  A$lcc761657$457                    map_collision
ASxxxx Linker V03.00/V05.40 + sdld,  page 83.
Hexadecimal  [32-Bits]

Area                                    Addr        Size        Decimal Bytes (Attributes)
--------------------------------        ----        ----        ------- ----- ------------
_CODE                               00000200    00002728 =       10024. bytes (REL,CON)

      Value  Global                              Global Defined In Module
      -----  --------------------------------   ------------------------
     00001CEA  A$lcc761657$458                    map_collision
     00001CED  A$lcc761657$459                    map_collision
     00001CEE  A$lcc761657$460                    map_collision
     00001CEF  A$lcc761657$461                    map_collision
     00001CF0  A$lcc761657$462                    map_collision
     00001CF1  A$lcc761657$463                    map_collision
     00001CF2  A$lcc761657$464                    map_collision
     00001CF3  A$lcc761657$465                    map_collision
     00001CF5  A$lcc761657$466                    map_collision
     00001CF6  A$lcc761657$467                    map_collision
     00001CF7  A$lcc761657$468                    map_collision
     00001CF8  A$lcc761657$469                    map_collision
     00001CF9  A$lcc761657$470                    map_collision
     00001CFA  A$lcc761657$471                    map_collision
     00001CFB  A$lcc761657$475                    map_collision
     00001CFB  C$map_collision.c$58$4_0$143       map_collision
     00001CFD  A$lcc761657$479                    map_collision
     00001CFD  C$map_collision.c$60$3_0$141       map_collision
     00001CFE  A$lcc761657$480                    map_collision
     00001CFF  A$lcc761657$481                    map_collision
     00001D02  A$lcc761657$486                    map_collision
     00001D04  A$lcc761657$491                    map_collision
     00001D04  C$map_collision.c$62$2_0$137       map_collision
     00001D04  XG$Map_Collision$0$0               map_collision
     00001D05  A$lcc761659$57                     map_player_movement
     00001D05  C$map_player_movement.c$10$0_0$1   map_player_movement
     00001D05  G$Map_PlayerMovement$0$0           map_player_movement
     00001D05  _Map_PlayerMovement                map_player_movement
     00001D06  A$lcc761659$61                     map_player_movement
     00001D06  C$map_player_movement.c$12$2_0$1   map_player_movement
     00001D09  A$lcc761659$62                     map_player_movement
     00001D0B  A$lcc761659$63                     map_player_movement
     00001D0D  A$lcc761659$64                     map_player_movement
     00001D10  A$lcc761659$65                     map_player_movement
     00001D12  A$lcc761659$66                     map_player_movement
     00001D14  A$lcc761659$70                     map_player_movement
     00001D14  C$map_player_movement.c$14$3_0$1   map_player_movement
     00001D17  A$lcc761659$71                     map_player_movement
     00001D1A  A$lcc761659$72                     map_player_movement
     00001D1B  A$lcc761659$73                     map_player_movement
     00001D1C  A$lcc761659$74                     map_player_movement
     00001D1D  A$lcc761659$75                     map_player_movement
     00001D1E  A$lcc761659$76                     map_player_movement
     00001D1F  A$lcc761659$77                     map_player_movement
     00001D20  A$lcc761659$78                     map_player_movement
     00001D21  A$lcc761659$79                     map_player_movement
     00001D24  A$lcc761659$80                     map_player_movement
     00001D26  A$lcc761659$81                     map_player_movement
     00001D27  A$lcc761659$82                     map_player_movement
     00001D29  A$lcc761659$83                     map_player_movement
     00001D2A  A$lcc761659$84                     map_player_movement
ASxxxx Linker V03.00/V05.40 + sdld,  page 84.
Hexadecimal  [32-Bits]

Area                                    Addr        Size        Decimal Bytes (Attributes)
--------------------------------        ----        ----        ------- ----- ------------
_CODE                               00000200    00002728 =       10024. bytes (REL,CON)

      Value  Global                              Global Defined In Module
      -----  --------------------------------   ------------------------
     00001D2B  A$lcc761659$85                     map_player_movement
     00001D2E  A$lcc761659$90                     map_player_movement
     00001D2E  C$map_player_movement.c$18$2_0$1   map_player_movement
     00001D31  A$lcc761659$91                     map_player_movement
     00001D32  A$lcc761659$92                     map_player_movement
     00001D34  A$lcc761659$96                     map_player_movement
     00001D37  A$lcc761659$100                    map_player_movement
     00001D37  C$map_player_movement.c$20$4_0$1   map_player_movement
     00001D39  A$lcc761659$101                    map_player_movement
     00001D3B  A$lcc761659$105                    map_player_movement
     00001D3B  C$map_player_movement.c$21$4_0$1   map_player_movement
     00001D3E  A$lcc761659$106                    map_player_movement
     00001D40  A$lcc761659$107                    map_player_movement
     00001D42  A$lcc761659$112                    map_player_movement
     00001D42  C$map_player_movement.c$22$5_0$1   map_player_movement
     00001D44  A$lcc761659$113                    map_player_movement
     00001D46  A$lcc761659$117                    map_player_movement
     00001D46  C$map_player_movement.c$23$5_0$1   map_player_movement
     00001D49  A$lcc761659$118                    map_player_movement
     00001D4B  A$lcc761659$119                    map_player_movement
     00001D4D  A$lcc761659$124                    map_player_movement
     00001D4D  C$map_player_movement.c$24$6_0$1   map_player_movement
     00001D4F  A$lcc761659$125                    map_player_movement
     00001D51  A$lcc761659$129                    map_player_movement
     00001D51  C$map_player_movement.c$25$6_0$1   map_player_movement
     00001D54  A$lcc761659$130                    map_player_movement
     00001D56  A$lcc761659$131                    map_player_movement
     00001D58  A$lcc761659$136                    map_player_movement
     00001D58  C$map_player_movement.c$26$7_0$1   map_player_movement
     00001D59  A$lcc761659$137                    map_player_movement
     00001D5B  A$lcc761659$141                    map_player_movement
     00001D5B  C$map_player_movement.c$27$7_0$1   map_player_movement
     00001D5E  A$lcc761659$142                    map_player_movement
     00001D60  A$lcc761659$147                    map_player_movement
     00001D60  C$map_player_movement.c$31$2_0$1   map_player_movement
     00001D63  A$lcc761659$148                    map_player_movement
     00001D64  A$lcc761659$149                    map_player_movement
     00001D66  A$lcc761659$150                    map_player_movement
     00001D69  A$lcc761659$151                    map_player_movement
     00001D6B  A$lcc761659$152                    map_player_movement
     00001D6D  A$lcc761659$153                    map_player_movement
     00001D6F  A$lcc761659$154                    map_player_movement
     00001D71  A$lcc761659$155                    map_player_movement
     00001D73  A$lcc761659$156                    map_player_movement
     00001D75  A$lcc761659$157                    map_player_movement
     00001D77  A$lcc761659$165                    map_player_movement
     00001D77  C$map_player_movement.c$33$3_0$1   map_player_movement
     00001D77  C$map_player_movement.c$34$3_0$1   map_player_movement
     00001D7A  A$lcc761659$166                    map_player_movement
     00001D7D  A$lcc761659$170                    map_player_movement
     00001D7D  C$map_player_movement.c$35$3_0$1   map_player_movement
ASxxxx Linker V03.00/V05.40 + sdld,  page 85.
Hexadecimal  [32-Bits]

Area                                    Addr        Size        Decimal Bytes (Attributes)
--------------------------------        ----        ----        ------- ----- ------------
_CODE                               00000200    00002728 =       10024. bytes (REL,CON)

      Value  Global                              Global Defined In Module
      -----  --------------------------------   ------------------------
     00001D80  A$lcc761659$171                    map_player_movement
     00001D82  A$lcc761659$172                    map_player_movement
     00001D83  A$lcc761659$173                    map_player_movement
     00001D86  A$lcc761659$174                    map_player_movement
     00001D87  A$lcc761659$175                    map_player_movement
     00001D89  A$lcc761659$176                    map_player_movement
     00001D8A  A$lcc761659$177                    map_player_movement
     00001D8B  A$lcc761659$178                    map_player_movement
     00001D8C  A$lcc761659$179                    map_player_movement
     00001D8D  A$lcc761659$180                    map_player_movement
     00001D8E  A$lcc761659$181                    map_player_movement
     00001D8F  A$lcc761659$182                    map_player_movement
     00001D90  A$lcc761659$183                    map_player_movement
     00001D91  A$lcc761659$184                    map_player_movement
     00001D92  A$lcc761659$185                    map_player_movement
     00001D95  A$lcc761659$186                    map_player_movement
     00001D96  A$lcc761659$187                    map_player_movement
     00001D97  A$lcc761659$188                    map_player_movement
     00001D98  A$lcc761659$189                    map_player_movement
     00001D9A  A$lcc761659$190                    map_player_movement
     00001D9B  A$lcc761659$191                    map_player_movement
     00001D9E  A$lcc761659$195                    map_player_movement
     00001D9E  C$map_player_movement.c$36$3_0$1   map_player_movement
     00001DA0  A$lcc761659$203                    map_player_movement
     00001DA0  C$map_player_movement.c$37$3_0$1   map_player_movement
     00001DA0  C$map_player_movement.c$38$3_0$1   map_player_movement
     00001DA3  A$lcc761659$204                    map_player_movement
     00001DA6  A$lcc761659$208                    map_player_movement
     00001DA6  C$map_player_movement.c$39$3_0$1   map_player_movement
     00001DA9  A$lcc761659$209                    map_player_movement
     00001DAB  A$lcc761659$210                    map_player_movement
     00001DAC  A$lcc761659$211                    map_player_movement
     00001DAF  A$lcc761659$212                    map_player_movement
     00001DB0  A$lcc761659$213                    map_player_movement
     00001DB2  A$lcc761659$214                    map_player_movement
     00001DB3  A$lcc761659$215                    map_player_movement
     00001DB4  A$lcc761659$216                    map_player_movement
     00001DB5  A$lcc761659$217                    map_player_movement
     00001DB6  A$lcc761659$218                    map_player_movement
     00001DB7  A$lcc761659$219                    map_player_movement
     00001DB8  A$lcc761659$220                    map_player_movement
     00001DB9  A$lcc761659$221                    map_player_movement
     00001DBA  A$lcc761659$222                    map_player_movement
     00001DBB  A$lcc761659$223                    map_player_movement
     00001DBE  A$lcc761659$224                    map_player_movement
     00001DBF  A$lcc761659$225                    map_player_movement
     00001DC0  A$lcc761659$226                    map_player_movement
     00001DC1  A$lcc761659$227                    map_player_movement
     00001DC3  A$lcc761659$228                    map_player_movement
     00001DC4  A$lcc761659$229                    map_player_movement
     00001DC7  A$lcc761659$233                    map_player_movement
ASxxxx Linker V03.00/V05.40 + sdld,  page 86.
Hexadecimal  [32-Bits]

Area                                    Addr        Size        Decimal Bytes (Attributes)
--------------------------------        ----        ----        ------- ----- ------------
_CODE                               00000200    00002728 =       10024. bytes (REL,CON)

      Value  Global                              Global Defined In Module
      -----  --------------------------------   ------------------------
     00001DC7  C$map_player_movement.c$40$3_0$1   map_player_movement
     00001DC9  A$lcc761659$241                    map_player_movement
     00001DC9  C$map_player_movement.c$41$3_0$1   map_player_movement
     00001DC9  C$map_player_movement.c$42$3_0$1   map_player_movement
     00001DCC  A$lcc761659$242                    map_player_movement
     00001DCF  A$lcc761659$246                    map_player_movement
     00001DCF  C$map_player_movement.c$43$3_0$1   map_player_movement
     00001DD1  A$lcc761659$254                    map_player_movement
     00001DD1  C$map_player_movement.c$44$3_0$1   map_player_movement
     00001DD1  C$map_player_movement.c$45$3_0$1   map_player_movement
     00001DD4  A$lcc761659$255                    map_player_movement
     00001DD7  A$lcc761659$263                    map_player_movement
     00001DD7  C$map_player_movement.c$49$2_0$1   map_player_movement
     00001DD7  C$map_player_movement.c$52$2_0$1   map_player_movement
     00001DDA  A$lcc761659$264                    map_player_movement
     00001DDB  A$lcc761659$265                    map_player_movement
     00001DDD  A$lcc761659$266                    map_player_movement
     00001DE0  A$lcc761659$267                    map_player_movement
     00001DE2  A$lcc761659$268                    map_player_movement
     00001DE4  A$lcc761659$272                    map_player_movement
     00001DE4  C$map_player_movement.c$54$3_0$1   map_player_movement
     00001DE5  A$lcc761659$273                    map_player_movement
     00001DE8  A$lcc761659$277                    map_player_movement
     00001DE8  C$map_player_movement.c$55$3_0$1   map_player_movement
     00001DEB  A$lcc761659$278                    map_player_movement
     00001DED  A$lcc761659$279                    map_player_movement
     00001DEE  A$lcc761659$280                    map_player_movement
     00001DF1  A$lcc761659$281                    map_player_movement
     00001DF2  A$lcc761659$282                    map_player_movement
     00001DF4  A$lcc761659$283                    map_player_movement
     00001DF5  A$lcc761659$284                    map_player_movement
     00001DF6  A$lcc761659$285                    map_player_movement
     00001DF7  A$lcc761659$286                    map_player_movement
     00001DF8  A$lcc761659$287                    map_player_movement
     00001DF9  A$lcc761659$288                    map_player_movement
     00001DFA  A$lcc761659$289                    map_player_movement
     00001DFB  A$lcc761659$290                    map_player_movement
     00001DFC  A$lcc761659$291                    map_player_movement
     00001DFD  A$lcc761659$292                    map_player_movement
     00001E00  A$lcc761659$293                    map_player_movement
     00001E01  A$lcc761659$294                    map_player_movement
     00001E02  A$lcc761659$295                    map_player_movement
     00001E03  A$lcc761659$296                    map_player_movement
     00001E05  A$lcc761659$297                    map_player_movement
     00001E06  A$lcc761659$298                    map_player_movement
     00001E09  A$lcc761659$303                    map_player_movement
     00001E09  C$map_player_movement.c$58$2_0$1   map_player_movement
     00001E0C  A$lcc761659$304                    map_player_movement
     00001E0E  A$lcc761659$305                    map_player_movement
     00001E10  A$lcc761659$306                    map_player_movement
     00001E13  A$lcc761659$307                    map_player_movement
ASxxxx Linker V03.00/V05.40 + sdld,  page 87.
Hexadecimal  [32-Bits]

Area                                    Addr        Size        Decimal Bytes (Attributes)
--------------------------------        ----        ----        ------- ----- ------------
_CODE                               00000200    00002728 =       10024. bytes (REL,CON)

      Value  Global                              Global Defined In Module
      -----  --------------------------------   ------------------------
     00001E15  A$lcc761659$308                    map_player_movement
     00001E17  A$lcc761659$312                    map_player_movement
     00001E17  C$map_player_movement.c$60$3_0$1   map_player_movement
     00001E18  A$lcc761659$313                    map_player_movement
     00001E1B  A$lcc761659$317                    map_player_movement
     00001E1B  C$map_player_movement.c$61$3_0$1   map_player_movement
     00001E1E  A$lcc761659$318                    map_player_movement
     00001E20  A$lcc761659$319                    map_player_movement
     00001E21  A$lcc761659$320                    map_player_movement
     00001E24  A$lcc761659$321                    map_player_movement
     00001E25  A$lcc761659$322                    map_player_movement
     00001E27  A$lcc761659$323                    map_player_movement
     00001E28  A$lcc761659$324                    map_player_movement
     00001E29  A$lcc761659$325                    map_player_movement
     00001E2A  A$lcc761659$326                    map_player_movement
     00001E2B  A$lcc761659$327                    map_player_movement
     00001E2C  A$lcc761659$328                    map_player_movement
     00001E2D  A$lcc761659$329                    map_player_movement
     00001E2E  A$lcc761659$330                    map_player_movement
     00001E2F  A$lcc761659$331                    map_player_movement
     00001E30  A$lcc761659$332                    map_player_movement
     00001E33  A$lcc761659$333                    map_player_movement
     00001E34  A$lcc761659$334                    map_player_movement
     00001E35  A$lcc761659$335                    map_player_movement
     00001E36  A$lcc761659$336                    map_player_movement
     00001E38  A$lcc761659$337                    map_player_movement
     00001E39  A$lcc761659$338                    map_player_movement
     00001E3C  A$lcc761659$343                    map_player_movement
     00001E3C  C$map_player_movement.c$12$2_0$1   map_player_movement
     00001E3F  A$lcc761659$344                    map_player_movement
     00001E40  A$lcc761659$348                    map_player_movement
     00001E40  C$map_player_movement.c$64$2_0$1   map_player_movement
     00001E43  A$lcc761659$349                    map_player_movement
     00001E45  A$lcc761659$350                    map_player_movement
     00001E47  A$lcc761659$351                    map_player_movement
     00001E49  A$lcc761659$352                    map_player_movement
     00001E4B  A$lcc761659$356                    map_player_movement
     00001E4B  C$map_player_movement.c$65$2_0$1   map_player_movement
     00001E4C  A$lcc761659$357                    map_player_movement
     00001E4F  A$lcc761659$362                    map_player_movement
     00001E4F  C$map_player_movement.c$66$2_0$1   map_player_movement
     00001E52  A$lcc761659$363                    map_player_movement
     00001E54  A$lcc761659$364                    map_player_movement
     00001E56  A$lcc761659$365                    map_player_movement
     00001E58  A$lcc761659$366                    map_player_movement
     00001E5A  A$lcc761659$370                    map_player_movement
     00001E5A  C$map_player_movement.c$67$2_0$1   map_player_movement
     00001E5B  A$lcc761659$371                    map_player_movement
     00001E5E  A$lcc761659$376                    map_player_movement
     00001E5F  A$lcc761659$381                    map_player_movement
     00001E5F  C$map_player_movement.c$68$2_0$1   map_player_movement
ASxxxx Linker V03.00/V05.40 + sdld,  page 88.
Hexadecimal  [32-Bits]

Area                                    Addr        Size        Decimal Bytes (Attributes)
--------------------------------        ----        ----        ------- ----- ------------
_CODE                               00000200    00002728 =       10024. bytes (REL,CON)

      Value  Global                              Global Defined In Module
      -----  --------------------------------   ------------------------
     00001E5F  XG$Map_PlayerMovement$0$0          map_player_movement
     00001E60  A$lcc761660$61                     map_00
     00001E60  C$map_00.c$6$0_0$34                map_00
     00001E60  C$map_00.c$8$1_0$34                map_00
     00001E60  G$Map_00_Create$0$0                map_00
     00001E60  _Map_00_Create                     map_00
     00001E63  A$lcc761660$62                     map_00
     00001E65  A$lcc761660$63                     map_00
     00001E66  A$lcc761660$64                     map_00
     00001E68  A$lcc761660$68                     map_00
     00001E68  C$map_00.c$9$1_0$34                map_00
     00001E69  A$lcc761660$69                     map_00
     00001E6B  A$lcc761660$70                     map_00
     00001E6C  A$lcc761660$71                     map_00
     00001E6E  A$lcc761660$75                     map_00
     00001E6E  C$map_00.c$10$1_0$34               map_00
     00001E71  A$lcc761660$76                     map_00
     00001E73  A$lcc761660$80                     map_00
     00001E73  C$map_00.c$11$1_0$34               map_00
     00001E76  A$lcc761660$81                     map_00
     00001E77  A$lcc761660$82                     map_00
     00001E78  A$lcc761660$83                     map_00
     00001E79  A$lcc761660$91                     map_00
     00001E79  C$map_00.c$12$1_0$34               map_00
     00001E79  XG$Map_00_Create$0$0               map_00
     00001E7A  G$map_00_example_collision$0_0$0   map_00_collision
     00001E7A  _map_00_example_collision          map_00_collision
     00001FE2  A$lcc761662$62                     map_00_init
     00001FE2  C$map_00_init.c$21$0_0$170         map_00_init
     00001FE2  C$map_00_init.c$23$2_0$171         map_00_init
     00001FE2  G$hello_event$0$0                  map_00_init
     00001FE2  _hello_event                       map_00_init
     00001FE5  A$lcc761662$63                     map_00_init
     00001FE6  A$lcc761662$64                     map_00_init
     00001FE7  A$lcc761662$65                     map_00_init
     00001FE8  A$lcc761662$72                     map_00_init
     00001FE8  C$map_00_init.c$24$2_0$171         map_00_init
     00001FE8  C$map_00_init.c$26$1_0$170         map_00_init
     00001FEA  A$lcc761662$73                     map_00_init
     00001FEB  A$lcc761662$77                     map_00_init
     00001FEB  C$map_00_init.c$27$1_0$170         map_00_init
     00001FED  A$lcc761662$78                     map_00_init
     00001FEE  A$lcc761662$79                     map_00_init
     00001FEF  A$lcc761662$80                     map_00_init
     00001FF0  A$lcc761662$81                     map_00_init
     00001FF1  A$lcc761662$82                     map_00_init
     00001FF2  A$lcc761662$83                     map_00_init
     00001FF4  A$lcc761662$84                     map_00_init
     00001FF7  A$lcc761662$85                     map_00_init
     00001FFA  A$lcc761662$93                     map_00_init
     00001FFA  C$map_00_init.c$28$1_0$170         map_00_init
ASxxxx Linker V03.00/V05.40 + sdld,  page 89.
Hexadecimal  [32-Bits]

Area                                    Addr        Size        Decimal Bytes (Attributes)
--------------------------------        ----        ----        ------- ----- ------------
_CODE                               00000200    00002728 =       10024. bytes (REL,CON)

      Value  Global                              Global Defined In Module
      -----  --------------------------------   ------------------------
     00001FFA  XG$hello_event$0$0                 map_00_init
     00001FFB  A$lcc761662$103                    map_00_init
     00001FFB  C$map_00_init.c$30$1_0$173         map_00_init
     00001FFB  G$Map_00_Init$0$0                  map_00_init
     00001FFB  _Map_00_Init                       map_00_init
     00001FFC  A$lcc761662$104                    map_00_init
     00001FFD  A$lcc761662$105                    map_00_init
     00001FFE  A$lcc761662$109                    map_00_init
     00001FFE  C$map_00_init.c$32$1_0$173         map_00_init
     00002001  A$lcc761662$110                    map_00_init
     00002003  A$lcc761662$111                    map_00_init
     00002004  A$lcc761662$112                    map_00_init
     00002006  A$lcc761662$113                    map_00_init
     00002008  A$lcc761662$114                    map_00_init
     00002009  A$lcc761662$115                    map_00_init
     0000200C  A$lcc761662$116                    map_00_init
     0000200D  A$lcc761662$120                    map_00_init
     0000200D  C$map_00_init.c$33$1_0$173         map_00_init
     00002010  A$lcc761662$121                    map_00_init
     00002011  A$lcc761662$125                    map_00_init
     00002011  C$map_00_init.c$34$1_0$173         map_00_init
     00002014  A$lcc761662$126                    map_00_init
     00002016  A$lcc761662$127                    map_00_init
     00002017  A$lcc761662$128                    map_00_init
     00002019  A$lcc761662$132                    map_00_init
     00002019  C$map_00_init.c$35$1_0$173         map_00_init
     0000201C  A$lcc761662$133                    map_00_init
     0000201E  A$lcc761662$137                    map_00_init
     0000201E  C$map_00_init.c$36$1_0$173         map_00_init
     0000201F  A$lcc761662$138                    map_00_init
     00002020  A$lcc761662$139                    map_00_init
     00002022  A$lcc761662$143                    map_00_init
     00002022  C$map_00_init.c$38$1_0$173         map_00_init
     00002025  A$lcc761662$144                    map_00_init
     00002027  A$lcc761662$148                    map_00_init
     00002027  C$map_00_init.c$39$1_0$173         map_00_init
     0000202A  A$lcc761662$149                    map_00_init
     0000202C  A$lcc761662$150                    map_00_init
     0000202D  A$lcc761662$151                    map_00_init
     0000202F  A$lcc761662$155                    map_00_init
     0000202F  C$map_00_init.c$40$1_0$173         map_00_init
     00002032  A$lcc761662$156                    map_00_init
     00002034  A$lcc761662$160                    map_00_init
     00002034  C$map_00_init.c$42$1_0$173         map_00_init
     00002037  A$lcc761662$161                    map_00_init
     00002038  A$lcc761662$162                    map_00_init
     0000203A  A$lcc761662$163                    map_00_init
     0000203B  A$lcc761662$164                    map_00_init
     0000203D  A$lcc761662$168                    map_00_init
     0000203D  C$map_00_init.c$44$1_0$173         map_00_init
     0000203E  A$lcc761662$169                    map_00_init
ASxxxx Linker V03.00/V05.40 + sdld,  page 90.
Hexadecimal  [32-Bits]

Area                                    Addr        Size        Decimal Bytes (Attributes)
--------------------------------        ----        ----        ------- ----- ------------
_CODE                               00000200    00002728 =       10024. bytes (REL,CON)

      Value  Global                              Global Defined In Module
      -----  --------------------------------   ------------------------
     0000203F  A$lcc761662$170                    map_00_init
     00002042  A$lcc761662$174                    map_00_init
     00002042  C$map_00_init.c$45$1_0$173         map_00_init
     00002045  A$lcc761662$178                    map_00_init
     00002045  C$map_00_init.c$47$2_0$174         map_00_init
     00002047  A$lcc761662$179                    map_00_init
     00002048  A$lcc761662$183                    map_00_init
     00002048  C$map_00_init.c$48$1_1$174         map_00_init
     0000204A  A$lcc761662$184                    map_00_init
     0000204C  A$lcc761662$185                    map_00_init
     0000204F  A$lcc761662$186                    map_00_init
     00002051  A$lcc761662$190                    map_00_init
     00002051  C$map_00_init.c$50$1_1$174         map_00_init
     00002054  A$lcc761662$191                    map_00_init
     00002055  A$lcc761662$192                    map_00_init
     00002058  A$lcc761662$193                    map_00_init
     00002059  A$lcc761662$194                    map_00_init
     0000205C  A$lcc761662$195                    map_00_init
     0000205E  A$lcc761662$199                    map_00_init
     0000205E  C$map_00_init.c$51$1_1$174         map_00_init
     00002061  A$lcc761662$200                    map_00_init
     00002062  A$lcc761662$201                    map_00_init
     00002065  A$lcc761662$202                    map_00_init
     00002066  A$lcc761662$203                    map_00_init
     00002067  A$lcc761662$204                    map_00_init
     00002068  A$lcc761662$205                    map_00_init
     00002069  A$lcc761662$206                    map_00_init
     0000206C  A$lcc761662$207                    map_00_init
     0000206E  A$lcc761662$211                    map_00_init
     0000206E  C$map_00_init.c$53$1_1$174         map_00_init
     0000206F  A$lcc761662$212                    map_00_init
     00002071  A$lcc761662$213                    map_00_init
     00002074  A$lcc761662$214                    map_00_init
     00002075  A$lcc761662$218                    map_00_init
     00002075  C$map_00_init.c$55$1_1$174         map_00_init
     00002078  A$lcc761662$226                    map_00_init
     00002078  C$map_00_init.c$56$1_1$173         map_00_init
     00002078  XG$Map_00_Init$0$0                 map_00_init
     0000207B  A$lcc761663$56                     map_00_init_dialogues
     0000207B  C$map_00_init_dialogues.c$11$1_0   map_00_init_dialogues
     0000207B  C$map_00_init_dialogues.c$9$0_0$   map_00_init_dialogues
     0000207B  G$Map_00_InitDialogues$0$0         map_00_init_dialogues
     0000207B  _Map_00_InitDialogues              map_00_init_dialogues
     0000207E  A$lcc761663$57                     map_00_init_dialogues
     00002080  A$lcc761663$58                     map_00_init_dialogues
     00002081  A$lcc761663$59                     map_00_init_dialogues
     00002083  A$lcc761663$67                     map_00_init_dialogues
     00002083  C$map_00_init_dialogues.c$12$1_0   map_00_init_dialogues
     00002083  XG$Map_00_InitDialogues$0$0        map_00_init_dialogues
     00002084  G$dialogue_00$0_0$0                map_00_init_dialogues
     00002084  _dialogue_00                       map_00_init_dialogues
ASxxxx Linker V03.00/V05.40 + sdld,  page 91.
Hexadecimal  [32-Bits]

Area                                    Addr        Size        Decimal Bytes (Attributes)
--------------------------------        ----        ----        ------- ----- ------------
_CODE                               00000200    00002728 =       10024. bytes (REL,CON)

      Value  Global                              Global Defined In Module
      -----  --------------------------------   ------------------------
     000021C8  A$lcc761664$53                     map_00_init_npc
     000021C8  C$map_00_init_npc.c$12$0_0$167     map_00_init_npc
     000021C8  G$Map_00_NPC_Init$0$0              map_00_init_npc
     000021C8  _Map_00_NPC_Init                   map_00_init_npc
     000021CA  A$lcc761664$57                     map_00_init_npc
     000021CA  C$map_00_init_npc.c$14$1_0$167     map_00_init_npc
     000021CD  A$lcc761664$58                     map_00_init_npc
     000021CE  A$lcc761664$59                     map_00_init_npc
     000021D0  A$lcc761664$60                     map_00_init_npc
     000021D3  A$lcc761664$61                     map_00_init_npc
     000021D4  A$lcc761664$62                     map_00_init_npc
     000021D6  A$lcc761664$66                     map_00_init_npc
     000021D6  C$map_00_init_npc.c$15$1_0$167     map_00_init_npc
     000021D9  A$lcc761664$67                     map_00_init_npc
     000021DA  A$lcc761664$68                     map_00_init_npc
     000021DC  A$lcc761664$69                     map_00_init_npc
     000021DF  A$lcc761664$70                     map_00_init_npc
     000021E0  A$lcc761664$71                     map_00_init_npc
     000021E2  A$lcc761664$75                     map_00_init_npc
     000021E2  C$map_00_init_npc.c$17$2_0$168     map_00_init_npc
     000021E4  A$lcc761664$76                     map_00_init_npc
     000021E6  A$lcc761664$77                     map_00_init_npc
     000021E7  A$lcc761664$78                     map_00_init_npc
     000021E9  A$lcc761664$79                     map_00_init_npc
     000021EA  A$lcc761664$80                     map_00_init_npc
     000021EC  A$lcc761664$81                     map_00_init_npc
     000021ED  A$lcc761664$82                     map_00_init_npc
     000021EF  A$lcc761664$83                     map_00_init_npc
     000021F0  A$lcc761664$84                     map_00_init_npc
     000021F2  A$lcc761664$85                     map_00_init_npc
     000021F3  A$lcc761664$86                     map_00_init_npc
     000021F4  A$lcc761664$87                     map_00_init_npc
     000021F5  A$lcc761664$88                     map_00_init_npc
     000021F6  A$lcc761664$89                     map_00_init_npc
     000021F7  A$lcc761664$90                     map_00_init_npc
     000021F8  A$lcc761664$91                     map_00_init_npc
     000021F9  A$lcc761664$95                     map_00_init_npc
     000021FC  A$lcc761664$96                     map_00_init_npc
     000021FD  A$lcc761664$98                     map_00_init_npc
     00002200  A$lcc761664$99                     map_00_init_npc
     00002201  A$lcc761664$100                    map_00_init_npc
     00002202  A$lcc761664$101                    map_00_init_npc
     00002203  A$lcc761664$102                    map_00_init_npc
     00002205  A$lcc761664$103                    map_00_init_npc
     00002206  A$lcc761664$104                    map_00_init_npc
     00002207  A$lcc761664$105                    map_00_init_npc
     00002209  A$lcc761664$109                    map_00_init_npc
     00002209  C$map_00_init_npc.c$19$2_1$169     map_00_init_npc
     0000220C  A$lcc761664$110                    map_00_init_npc
     0000220D  A$lcc761664$111                    map_00_init_npc
     0000220F  A$lcc761664$112                    map_00_init_npc
ASxxxx Linker V03.00/V05.40 + sdld,  page 92.
Hexadecimal  [32-Bits]

Area                                    Addr        Size        Decimal Bytes (Attributes)
--------------------------------        ----        ----        ------- ----- ------------
_CODE                               00000200    00002728 =       10024. bytes (REL,CON)

      Value  Global                              Global Defined In Module
      -----  --------------------------------   ------------------------
     00002210  A$lcc761664$113                    map_00_init_npc
     00002211  A$lcc761664$114                    map_00_init_npc
     00002212  A$lcc761664$115                    map_00_init_npc
     00002213  A$lcc761664$116                    map_00_init_npc
     00002214  A$lcc761664$117                    map_00_init_npc
     00002215  A$lcc761664$118                    map_00_init_npc
     00002216  A$lcc761664$119                    map_00_init_npc
     00002217  A$lcc761664$120                    map_00_init_npc
     00002219  A$lcc761664$121                    map_00_init_npc
     0000221A  A$lcc761664$122                    map_00_init_npc
     0000221B  A$lcc761664$123                    map_00_init_npc
     0000221C  A$lcc761664$124                    map_00_init_npc
     0000221E  A$lcc761664$125                    map_00_init_npc
     0000221F  A$lcc761664$126                    map_00_init_npc
     00002220  A$lcc761664$127                    map_00_init_npc
     00002221  A$lcc761664$128                    map_00_init_npc
     00002222  A$lcc761664$129                    map_00_init_npc
     00002225  A$lcc761664$130                    map_00_init_npc
     00002226  A$lcc761664$131                    map_00_init_npc
     00002227  A$lcc761664$132                    map_00_init_npc
     00002228  A$lcc761664$133                    map_00_init_npc
     0000222A  A$lcc761664$134                    map_00_init_npc
     0000222B  A$lcc761664$135                    map_00_init_npc
     0000222C  A$lcc761664$136                    map_00_init_npc
     0000222D  A$lcc761664$140                    map_00_init_npc
     0000222D  C$map_00_init_npc.c$18$2_1$169     map_00_init_npc
     0000222E  A$lcc761664$141                    map_00_init_npc
     00002230  A$lcc761664$146                    map_00_init_npc
     00002230  C$map_00_init_npc.c$21$1_1$168     map_00_init_npc
     00002233  A$lcc761664$147                    map_00_init_npc
     00002234  A$lcc761664$148                    map_00_init_npc
     00002235  A$lcc761664$149                    map_00_init_npc
     00002237  A$lcc761664$150                    map_00_init_npc
     0000223A  A$lcc761664$151                    map_00_init_npc
     0000223B  A$lcc761664$152                    map_00_init_npc
     0000223E  A$lcc761664$153                    map_00_init_npc
     00002240  A$lcc761664$154                    map_00_init_npc
     00002241  A$lcc761664$155                    map_00_init_npc
     00002243  A$lcc761664$156                    map_00_init_npc
     00002245  A$lcc761664$157                    map_00_init_npc
     00002246  A$lcc761664$158                    map_00_init_npc
     00002247  A$lcc761664$159                    map_00_init_npc
     00002248  A$lcc761664$160                    map_00_init_npc
     00002249  A$lcc761664$161                    map_00_init_npc
     0000224A  A$lcc761664$162                    map_00_init_npc
     0000224B  A$lcc761664$166                    map_00_init_npc
     0000224B  C$map_00_init_npc.c$22$1_1$168     map_00_init_npc
     0000224E  A$lcc761664$167                    map_00_init_npc
     0000224F  A$lcc761664$168                    map_00_init_npc
     00002250  A$lcc761664$169                    map_00_init_npc
     00002252  A$lcc761664$170                    map_00_init_npc
ASxxxx Linker V03.00/V05.40 + sdld,  page 93.
Hexadecimal  [32-Bits]

Area                                    Addr        Size        Decimal Bytes (Attributes)
--------------------------------        ----        ----        ------- ----- ------------
_CODE                               00000200    00002728 =       10024. bytes (REL,CON)

      Value  Global                              Global Defined In Module
      -----  --------------------------------   ------------------------
     00002255  A$lcc761664$171                    map_00_init_npc
     00002256  A$lcc761664$172                    map_00_init_npc
     00002259  A$lcc761664$173                    map_00_init_npc
     0000225B  A$lcc761664$174                    map_00_init_npc
     0000225C  A$lcc761664$175                    map_00_init_npc
     0000225E  A$lcc761664$176                    map_00_init_npc
     00002260  A$lcc761664$177                    map_00_init_npc
     00002261  A$lcc761664$178                    map_00_init_npc
     00002262  A$lcc761664$179                    map_00_init_npc
     00002263  A$lcc761664$180                    map_00_init_npc
     00002264  A$lcc761664$181                    map_00_init_npc
     00002265  A$lcc761664$182                    map_00_init_npc
     00002266  A$lcc761664$186                    map_00_init_npc
     00002266  C$map_00_init_npc.c$24$1_1$168     map_00_init_npc
     00002269  A$lcc761664$187                    map_00_init_npc
     0000226A  A$lcc761664$188                    map_00_init_npc
     0000226C  A$lcc761664$189                    map_00_init_npc
     0000226F  A$lcc761664$190                    map_00_init_npc
     00002270  A$lcc761664$191                    map_00_init_npc
     00002272  A$lcc761664$195                    map_00_init_npc
     00002272  C$map_00_init_npc.c$25$1_1$168     map_00_init_npc
     00002275  A$lcc761664$196                    map_00_init_npc
     00002276  A$lcc761664$197                    map_00_init_npc
     00002278  A$lcc761664$198                    map_00_init_npc
     0000227B  A$lcc761664$199                    map_00_init_npc
     0000227C  A$lcc761664$200                    map_00_init_npc
     0000227E  A$lcc761664$204                    map_00_init_npc
     0000227E  C$map_00_init_npc.c$26$1_1$168     map_00_init_npc
     00002281  A$lcc761664$205                    map_00_init_npc
     00002282  A$lcc761664$206                    map_00_init_npc
     00002284  A$lcc761664$207                    map_00_init_npc
     00002287  A$lcc761664$208                    map_00_init_npc
     00002288  A$lcc761664$209                    map_00_init_npc
     0000228A  A$lcc761664$213                    map_00_init_npc
     0000228A  C$map_00_init_npc.c$29$2_1$170     map_00_init_npc
     0000228C  A$lcc761664$214                    map_00_init_npc
     0000228E  A$lcc761664$215                    map_00_init_npc
     0000228F  A$lcc761664$216                    map_00_init_npc
     00002291  A$lcc761664$217                    map_00_init_npc
     00002292  A$lcc761664$218                    map_00_init_npc
     00002294  A$lcc761664$219                    map_00_init_npc
     00002295  A$lcc761664$220                    map_00_init_npc
     00002297  A$lcc761664$221                    map_00_init_npc
     00002298  A$lcc761664$222                    map_00_init_npc
     0000229A  A$lcc761664$223                    map_00_init_npc
     0000229B  A$lcc761664$224                    map_00_init_npc
     0000229D  A$lcc761664$225                    map_00_init_npc
     0000229E  A$lcc761664$226                    map_00_init_npc
     000022A0  A$lcc761664$227                    map_00_init_npc
     000022A1  A$lcc761664$228                    map_00_init_npc
     000022A3  A$lcc761664$232                    map_00_init_npc
ASxxxx Linker V03.00/V05.40 + sdld,  page 94.
Hexadecimal  [32-Bits]

Area                                    Addr        Size        Decimal Bytes (Attributes)
--------------------------------        ----        ----        ------- ----- ------------
_CODE                               00000200    00002728 =       10024. bytes (REL,CON)

      Value  Global                              Global Defined In Module
      -----  --------------------------------   ------------------------
     000022A3  C$map_00_init_npc.c$35$1_2$170     map_00_init_npc
     000022A6  A$lcc761664$233                    map_00_init_npc
     000022A7  A$lcc761664$234                    map_00_init_npc
     000022A9  A$lcc761664$235                    map_00_init_npc
     000022AA  A$lcc761664$236                    map_00_init_npc
     000022AB  A$lcc761664$237                    map_00_init_npc
     000022AC  A$lcc761664$238                    map_00_init_npc
     000022AD  A$lcc761664$239                    map_00_init_npc
     000022AE  A$lcc761664$240                    map_00_init_npc
     000022AF  A$lcc761664$241                    map_00_init_npc
     000022B0  A$lcc761664$242                    map_00_init_npc
     000022B1  A$lcc761664$243                    map_00_init_npc
     000022B2  A$lcc761664$244                    map_00_init_npc
     000022B5  A$lcc761664$245                    map_00_init_npc
     000022B6  A$lcc761664$246                    map_00_init_npc
     000022B7  A$lcc761664$247                    map_00_init_npc
     000022B8  A$lcc761664$248                    map_00_init_npc
     000022BB  A$lcc761664$249                    map_00_init_npc
     000022BC  A$lcc761664$250                    map_00_init_npc
     000022BE  A$lcc761664$251                    map_00_init_npc
     000022BF  A$lcc761664$252                    map_00_init_npc
     000022C0  A$lcc761664$253                    map_00_init_npc
     000022C3  A$lcc761664$254                    map_00_init_npc
     000022C4  A$lcc761664$255                    map_00_init_npc
     000022C5  A$lcc761664$256                    map_00_init_npc
     000022C6  A$lcc761664$257                    map_00_init_npc
     000022C7  A$lcc761664$258                    map_00_init_npc
     000022C8  A$lcc761664$259                    map_00_init_npc
     000022CB  A$lcc761664$260                    map_00_init_npc
     000022CE  A$lcc761664$264                    map_00_init_npc
     000022D0  A$lcc761664$269                    map_00_init_npc
     000022D0  C$map_00_init_npc.c$36$1_2$167     map_00_init_npc
     000022D0  XG$Map_00_NPC_Init$0$0             map_00_init_npc
     000022D1  A$lcc761665$57                     map_00_update
     000022D1  C$map_00_update.c$17$0_0$182       map_00_update
     000022D1  G$Map_00_Update$0$0                map_00_update
     000022D1  _Map_00_Update                     map_00_update
     000022D3  A$lcc761665$58                     map_00_update
     000022D5  A$lcc761665$59                     map_00_update
     000022D6  A$lcc761665$60                     map_00_update
     000022D7  A$lcc761665$61                     map_00_update
     000022D8  A$lcc761665$65                     map_00_update
     000022D8  C$map_00_update.c$19$1_0$182       map_00_update
     000022DB  A$lcc761665$69                     map_00_update
     000022DB  C$map_00_update.c$21$1_1$183       map_00_update
     000022DD  A$lcc761665$70                     map_00_update
     000022DE  A$lcc761665$71                     map_00_update
     000022DF  A$lcc761665$72                     map_00_update
     000022E0  A$lcc761665$73                     map_00_update
     000022E3  A$lcc761665$74                     map_00_update
     000022E4  A$lcc761665$75                     map_00_update
ASxxxx Linker V03.00/V05.40 + sdld,  page 95.
Hexadecimal  [32-Bits]

Area                                    Addr        Size        Decimal Bytes (Attributes)
--------------------------------        ----        ----        ------- ----- ------------
_CODE                               00000200    00002728 =       10024. bytes (REL,CON)

      Value  Global                              Global Defined In Module
      -----  --------------------------------   ------------------------
     000022E5  A$lcc761665$76                     map_00_update
     000022E6  A$lcc761665$77                     map_00_update
     000022E8  A$lcc761665$78                     map_00_update
     000022E9  A$lcc761665$79                     map_00_update
     000022EA  A$lcc761665$80                     map_00_update
     000022EB  A$lcc761665$81                     map_00_update
     000022ED  A$lcc761665$82                     map_00_update
     000022EE  A$lcc761665$83                     map_00_update
     000022EF  A$lcc761665$84                     map_00_update
     000022F0  A$lcc761665$85                     map_00_update
     000022F1  A$lcc761665$86                     map_00_update
     000022F2  A$lcc761665$87                     map_00_update
     000022F3  A$lcc761665$88                     map_00_update
     000022F4  A$lcc761665$89                     map_00_update
     000022F5  A$lcc761665$90                     map_00_update
     000022F6  A$lcc761665$91                     map_00_update
     000022F7  A$lcc761665$92                     map_00_update
     000022F8  A$lcc761665$93                     map_00_update
     000022F9  A$lcc761665$94                     map_00_update
     000022FA  A$lcc761665$98                     map_00_update
     000022FD  A$lcc761665$99                     map_00_update
     000022FE  A$lcc761665$100                    map_00_update
     000022FF  A$lcc761665$101                    map_00_update
     00002300  A$lcc761665$102                    map_00_update
     00002301  A$lcc761665$103                    map_00_update
     00002302  A$lcc761665$104                    map_00_update
     00002304  A$lcc761665$105                    map_00_update
     00002305  A$lcc761665$106                    map_00_update
     00002306  A$lcc761665$108                    map_00_update
     00002307  A$lcc761665$109                    map_00_update
     00002308  A$lcc761665$110                    map_00_update
     00002309  A$lcc761665$111                    map_00_update
     0000230A  A$lcc761665$112                    map_00_update
     0000230C  A$lcc761665$113                    map_00_update
     0000230E  A$lcc761665$114                    map_00_update
     0000230F  A$lcc761665$115                    map_00_update
     00002310  A$lcc761665$116                    map_00_update
     00002311  A$lcc761665$117                    map_00_update
     00002312  A$lcc761665$118                    map_00_update
     00002314  A$lcc761665$122                    map_00_update
     00002314  C$map_00_update.c$25$3_1$185       map_00_update
     00002315  A$lcc761665$123                    map_00_update
     00002316  A$lcc761665$124                    map_00_update
     00002317  A$lcc761665$125                    map_00_update
     00002318  A$lcc761665$126                    map_00_update
     00002319  A$lcc761665$127                    map_00_update
     0000231A  A$lcc761665$128                    map_00_update
     0000231B  A$lcc761665$129                    map_00_update
     0000231C  A$lcc761665$130                    map_00_update
     0000231F  A$lcc761665$131                    map_00_update
     00002320  A$lcc761665$135                    map_00_update
ASxxxx Linker V03.00/V05.40 + sdld,  page 96.
Hexadecimal  [32-Bits]

Area                                    Addr        Size        Decimal Bytes (Attributes)
--------------------------------        ----        ----        ------- ----- ------------
_CODE                               00000200    00002728 =       10024. bytes (REL,CON)

      Value  Global                              Global Defined In Module
      -----  --------------------------------   ------------------------
     00002320  C$map_00_update.c$23$2_1$184       map_00_update
     00002322  A$lcc761665$136                    map_00_update
     00002323  A$lcc761665$137                    map_00_update
     00002325  A$lcc761665$138                    map_00_update
     00002326  A$lcc761665$139                    map_00_update
     00002327  A$lcc761665$140                    map_00_update
     00002329  A$lcc761665$145                    map_00_update
     00002329  C$map_00_update.c$28$1_1$183       map_00_update
     0000232A  A$lcc761665$146                    map_00_update
     0000232D  A$lcc761665$147                    map_00_update
     00002330  A$lcc761665$148                    map_00_update
     00002331  A$lcc761665$152                    map_00_update
     00002331  C$map_00_update.c$29$1_1$183       map_00_update
     00002332  A$lcc761665$153                    map_00_update
     00002333  A$lcc761665$154                    map_00_update
     00002334  A$lcc761665$155                    map_00_update
     00002335  A$lcc761665$156                    map_00_update
     00002338  A$lcc761665$160                    map_00_update
     00002338  C$map_00_update.c$31$1_1$183       map_00_update
     0000233A  A$lcc761665$161                    map_00_update
     0000233B  A$lcc761665$162                    map_00_update
     0000233C  A$lcc761665$163                    map_00_update
     0000233D  A$lcc761665$164                    map_00_update
     00002340  A$lcc761665$168                    map_00_update
     00002340  C$map_00_update.c$33$2_1$186       map_00_update
     00002343  A$lcc761665$169                    map_00_update
     00002345  A$lcc761665$170                    map_00_update
     00002347  A$lcc761665$171                    map_00_update
     0000234A  A$lcc761665$172                    map_00_update
     0000234C  A$lcc761665$173                    map_00_update
     0000234E  A$lcc761665$177                    map_00_update
     0000234E  C$map_00_update.c$35$3_1$187       map_00_update
     00002350  A$lcc761665$178                    map_00_update
     00002353  A$lcc761665$179                    map_00_update
     00002354  A$lcc761665$180                    map_00_update
     00002356  A$lcc761665$184                    map_00_update
     00002356  C$map_00_update.c$36$3_1$187       map_00_update
     00002358  A$lcc761665$185                    map_00_update
     00002359  A$lcc761665$186                    map_00_update
     0000235A  A$lcc761665$190                    map_00_update
     0000235A  C$map_00_update.c$38$5_1$189       map_00_update
     0000235D  A$lcc761665$192                    map_00_update
     0000235E  A$lcc761665$193                    map_00_update
     00002360  A$lcc761665$194                    map_00_update
     00002362  A$lcc761665$198                    map_00_update
     00002362  C$map_00_update.c$40$5_1$189       map_00_update
     00002363  A$lcc761665$199                    map_00_update
     00002366  A$lcc761665$200                    map_00_update
     00002367  A$lcc761665$201                    map_00_update
     00002368  A$lcc761665$202                    map_00_update
     0000236B  A$lcc761665$203                    map_00_update
ASxxxx Linker V03.00/V05.40 + sdld,  page 97.
Hexadecimal  [32-Bits]

Area                                    Addr        Size        Decimal Bytes (Attributes)
--------------------------------        ----        ----        ------- ----- ------------
_CODE                               00000200    00002728 =       10024. bytes (REL,CON)

      Value  Global                              Global Defined In Module
      -----  --------------------------------   ------------------------
     0000236C  A$lcc761665$204                    map_00_update
     0000236D  A$lcc761665$205                    map_00_update
     00002370  A$lcc761665$206                    map_00_update
     00002371  A$lcc761665$210                    map_00_update
     00002371  C$map_00_update.c$41$5_1$189       map_00_update
     00002372  A$lcc761665$211                    map_00_update
     00002373  A$lcc761665$212                    map_00_update
     00002374  A$lcc761665$213                    map_00_update
     00002375  A$lcc761665$214                    map_00_update
     00002378  A$lcc761665$215                    map_00_update
     00002379  A$lcc761665$216                    map_00_update
     0000237A  A$lcc761665$217                    map_00_update
     0000237B  A$lcc761665$218                    map_00_update
     0000237D  A$lcc761665$219                    map_00_update
     0000237E  A$lcc761665$220                    map_00_update
     0000237F  A$lcc761665$221                    map_00_update
     00002381  A$lcc761665$222                    map_00_update
     00002382  A$lcc761665$223                    map_00_update
     00002383  A$lcc761665$224                    map_00_update
     00002384  A$lcc761665$228                    map_00_update
     00002384  C$map_00_update.c$38$4_1$188       map_00_update
     00002385  A$lcc761665$229                    map_00_update
     00002387  A$lcc761665$234                    map_00_update
     00002387  C$map_00_update.c$44$3_1$187       map_00_update
     0000238A  A$lcc761665$235                    map_00_update
     0000238D  A$lcc761665$236                    map_00_update
     0000238E  A$lcc761665$237                    map_00_update
     0000238F  A$lcc761665$238                    map_00_update
     00002390  A$lcc761665$239                    map_00_update
     00002391  A$lcc761665$240                    map_00_update
     00002392  A$lcc761665$241                    map_00_update
     00002393  A$lcc761665$242                    map_00_update
     00002394  A$lcc761665$243                    map_00_update
     00002397  A$lcc761665$244                    map_00_update
     00002399  A$lcc761665$245                    map_00_update
     0000239A  A$lcc761665$246                    map_00_update
     0000239C  A$lcc761665$247                    map_00_update
     0000239D  A$lcc761665$248                    map_00_update
     0000239E  A$lcc761665$249                    map_00_update
     000023A1  A$lcc761665$257                    map_00_update
     000023A1  C$map_00_update.c$47$1_1$183       map_00_update
     000023A3  A$lcc761665$262                    map_00_update
     000023A3  C$map_00_update.c$48$1_1$182       map_00_update
     000023A3  XG$Map_00_Update$0$0               map_00_update
     000023A4  A$lcc761666$56                     mg_player_movement
     000023A4  C$mg_player_movement.c$10$0_0$15   mg_player_movement
     000023A4  G$Mg_PlayerMovement$0$0            mg_player_movement
     000023A4  _Mg_PlayerMovement                 mg_player_movement
     000023A5  A$lcc761666$60                     mg_player_movement
     000023A5  C$mg_player_movement.c$13$2_0$15   mg_player_movement
     000023A8  A$lcc761666$61                     mg_player_movement
ASxxxx Linker V03.00/V05.40 + sdld,  page 98.
Hexadecimal  [32-Bits]

Area                                    Addr        Size        Decimal Bytes (Attributes)
--------------------------------        ----        ----        ------- ----- ------------
_CODE                               00000200    00002728 =       10024. bytes (REL,CON)

      Value  Global                              Global Defined In Module
      -----  --------------------------------   ------------------------
     000023A9  A$lcc761666$62                     mg_player_movement
     000023AB  A$lcc761666$66                     mg_player_movement
     000023AE  A$lcc761666$67                     mg_player_movement
     000023B0  A$lcc761666$68                     mg_player_movement
     000023B2  A$lcc761666$69                     mg_player_movement
     000023B3  A$lcc761666$70                     mg_player_movement
     000023B4  A$lcc761666$71                     mg_player_movement
     000023B6  A$lcc761666$75                     mg_player_movement
     000023B6  C$mg_player_movement.c$16$4_0$15   mg_player_movement
     000023B9  A$lcc761666$76                     mg_player_movement
     000023BB  A$lcc761666$77                     mg_player_movement
     000023BD  A$lcc761666$82                     mg_player_movement
     000023BD  C$mg_player_movement.c$17$5_0$15   mg_player_movement
     000023BF  A$lcc761666$83                     mg_player_movement
     000023C1  A$lcc761666$84                     mg_player_movement
     000023C2  A$lcc761666$85                     mg_player_movement
     000023C3  A$lcc761666$86                     mg_player_movement
     000023C5  A$lcc761666$90                     mg_player_movement
     000023C5  C$mg_player_movement.c$18$5_0$15   mg_player_movement
     000023C8  A$lcc761666$91                     mg_player_movement
     000023CA  A$lcc761666$92                     mg_player_movement
     000023CC  A$lcc761666$97                     mg_player_movement
     000023CC  C$mg_player_movement.c$19$6_0$15   mg_player_movement
     000023CE  A$lcc761666$98                     mg_player_movement
     000023D0  A$lcc761666$99                     mg_player_movement
     000023D1  A$lcc761666$100                    mg_player_movement
     000023D2  A$lcc761666$101                    mg_player_movement
     000023D4  A$lcc761666$105                    mg_player_movement
     000023D4  C$mg_player_movement.c$20$6_0$15   mg_player_movement
     000023D7  A$lcc761666$106                    mg_player_movement
     000023D9  A$lcc761666$107                    mg_player_movement
     000023DB  A$lcc761666$112                    mg_player_movement
     000023DB  C$mg_player_movement.c$21$7_0$15   mg_player_movement
     000023DC  A$lcc761666$113                    mg_player_movement
     000023DE  A$lcc761666$114                    mg_player_movement
     000023DF  A$lcc761666$115                    mg_player_movement
     000023E0  A$lcc761666$116                    mg_player_movement
     000023E2  A$lcc761666$120                    mg_player_movement
     000023E2  C$mg_player_movement.c$22$7_0$15   mg_player_movement
     000023E5  A$lcc761666$121                    mg_player_movement
     000023E7  A$lcc761666$126                    mg_player_movement
     000023E7  C$mg_player_movement.c$26$2_0$15   mg_player_movement
     000023EA  A$lcc761666$127                    mg_player_movement
     000023EB  A$lcc761666$128                    mg_player_movement
     000023ED  A$lcc761666$129                    mg_player_movement
     000023F0  A$lcc761666$130                    mg_player_movement
     000023F2  A$lcc761666$131                    mg_player_movement
     000023F4  A$lcc761666$132                    mg_player_movement
     000023F6  A$lcc761666$133                    mg_player_movement
     000023F8  A$lcc761666$134                    mg_player_movement
     000023FA  A$lcc761666$135                    mg_player_movement
ASxxxx Linker V03.00/V05.40 + sdld,  page 99.
Hexadecimal  [32-Bits]

Area                                    Addr        Size        Decimal Bytes (Attributes)
--------------------------------        ----        ----        ------- ----- ------------
_CODE                               00000200    00002728 =       10024. bytes (REL,CON)

      Value  Global                              Global Defined In Module
      -----  --------------------------------   ------------------------
     000023FC  A$lcc761666$136                    mg_player_movement
     000023FE  A$lcc761666$144                    mg_player_movement
     000023FE  C$mg_player_movement.c$28$3_0$15   mg_player_movement
     000023FE  C$mg_player_movement.c$29$3_0$15   mg_player_movement
     00002401  A$lcc761666$145                    mg_player_movement
     00002404  A$lcc761666$149                    mg_player_movement
     00002404  C$mg_player_movement.c$30$3_0$15   mg_player_movement
     00002406  A$lcc761666$157                    mg_player_movement
     00002406  C$mg_player_movement.c$31$3_0$15   mg_player_movement
     00002406  C$mg_player_movement.c$32$3_0$15   mg_player_movement
     00002409  A$lcc761666$158                    mg_player_movement
     0000240C  A$lcc761666$162                    mg_player_movement
     0000240C  C$mg_player_movement.c$33$3_0$15   mg_player_movement
     0000240E  A$lcc761666$170                    mg_player_movement
     0000240E  C$mg_player_movement.c$34$3_0$15   mg_player_movement
     0000240E  C$mg_player_movement.c$35$3_0$15   mg_player_movement
     00002411  A$lcc761666$171                    mg_player_movement
     00002414  A$lcc761666$175                    mg_player_movement
     00002414  C$mg_player_movement.c$36$3_0$15   mg_player_movement
     00002416  A$lcc761666$183                    mg_player_movement
     00002416  C$mg_player_movement.c$37$3_0$15   mg_player_movement
     00002416  C$mg_player_movement.c$38$3_0$15   mg_player_movement
     00002419  A$lcc761666$184                    mg_player_movement
     0000241C  A$lcc761666$192                    mg_player_movement
     0000241C  C$mg_player_movement.c$15$2_0$15   mg_player_movement
     0000241C  C$mg_player_movement.c$42$2_0$15   mg_player_movement
     0000241F  A$lcc761666$193                    mg_player_movement
     00002420  A$lcc761666$197                    mg_player_movement
     00002420  C$mg_player_movement.c$45$2_0$16   mg_player_movement
     00002423  A$lcc761666$198                    mg_player_movement
     00002424  A$lcc761666$199                    mg_player_movement
     00002426  A$lcc761666$200                    mg_player_movement
     00002428  A$lcc761666$201                    mg_player_movement
     0000242A  A$lcc761666$205                    mg_player_movement
     0000242A  C$mg_player_movement.c$46$2_0$16   mg_player_movement
     0000242B  A$lcc761666$206                    mg_player_movement
     0000242E  A$lcc761666$211                    mg_player_movement
     0000242E  C$mg_player_movement.c$48$2_0$16   mg_player_movement
     00002431  A$lcc761666$212                    mg_player_movement
     00002433  A$lcc761666$213                    mg_player_movement
     00002435  A$lcc761666$214                    mg_player_movement
     00002437  A$lcc761666$215                    mg_player_movement
     00002439  A$lcc761666$219                    mg_player_movement
     00002439  C$mg_player_movement.c$49$2_0$16   mg_player_movement
     0000243A  A$lcc761666$220                    mg_player_movement
     0000243D  A$lcc761666$225                    mg_player_movement
     0000243D  C$mg_player_movement.c$51$2_0$16   mg_player_movement
     00002440  A$lcc761666$226                    mg_player_movement
     00002442  A$lcc761666$227                    mg_player_movement
     00002444  A$lcc761666$228                    mg_player_movement
     00002446  A$lcc761666$229                    mg_player_movement
ASxxxx Linker V03.00/V05.40 + sdld,  page 100.
Hexadecimal  [32-Bits]

Area                                    Addr        Size        Decimal Bytes (Attributes)
--------------------------------        ----        ----        ------- ----- ------------
_CODE                               00000200    00002728 =       10024. bytes (REL,CON)

      Value  Global                              Global Defined In Module
      -----  --------------------------------   ------------------------
     00002448  A$lcc761666$233                    mg_player_movement
     00002448  C$mg_player_movement.c$52$2_0$16   mg_player_movement
     00002449  A$lcc761666$234                    mg_player_movement
     0000244C  A$lcc761666$239                    mg_player_movement
     0000244C  C$mg_player_movement.c$54$2_0$16   mg_player_movement
     0000244F  A$lcc761666$240                    mg_player_movement
     00002451  A$lcc761666$241                    mg_player_movement
     00002452  A$lcc761666$242                    mg_player_movement
     00002454  A$lcc761666$243                    mg_player_movement
     00002455  A$lcc761666$247                    mg_player_movement
     00002455  C$mg_player_movement.c$55$2_0$16   mg_player_movement
     00002456  A$lcc761666$248                    mg_player_movement
     00002459  A$lcc761666$256                    mg_player_movement
     00002459  C$mg_player_movement.c$56$2_0$15   mg_player_movement
     00002459  XG$Mg_PlayerMovement$0$0           mg_player_movement
     0000245A  A$lcc761667$54                     mini_games
     0000245A  C$mini_games.c$9$0_0$149           mini_games
     0000245A  G$Mg_SetTitle$0$0                  mini_games
     0000245A  _Mg_SetTitle                       mini_games
     0000245B  A$lcc761667$58                     mini_games
     0000245D  A$lcc761667$60                     mini_games
     0000245E  A$lcc761667$61                     mini_games
     00002460  A$lcc761667$62                     mini_games
     00002461  A$lcc761667$63                     mini_games
     00002462  A$lcc761667$64                     mini_games
     00002463  A$lcc761667$65                     mini_games
     00002465  A$lcc761667$69                     mini_games
     00002465  C$mini_games.c$13$3_0$150          mini_games
     00002466  A$lcc761667$70                     mini_games
     00002467  A$lcc761667$71                     mini_games
     0000246A  A$lcc761667$72                     mini_games
     0000246B  A$lcc761667$73                     mini_games
     0000246C  A$lcc761667$74                     mini_games
     0000246D  A$lcc761667$75                     mini_games
     0000246E  A$lcc761667$76                     mini_games
     00002470  A$lcc761667$77                     mini_games
     00002472  A$lcc761667$78                     mini_games
     00002473  A$lcc761667$82                     mini_games
     00002473  C$mini_games.c$14$3_0$150          mini_games
     00002474  A$lcc761667$83                     mini_games
     00002475  A$lcc761667$84                     mini_games
     00002476  A$lcc761667$85                     mini_games
     00002479  A$lcc761667$86                     mini_games
     0000247A  A$lcc761667$87                     mini_games
     0000247B  A$lcc761667$88                     mini_games
     0000247D  A$lcc761667$89                     mini_games
     0000247E  A$lcc761667$90                     mini_games
     0000247F  A$lcc761667$91                     mini_games
     00002481  A$lcc761667$92                     mini_games
     00002482  A$lcc761667$93                     mini_games
     00002483  A$lcc761667$94                     mini_games
ASxxxx Linker V03.00/V05.40 + sdld,  page 101.
Hexadecimal  [32-Bits]

Area                                    Addr        Size        Decimal Bytes (Attributes)
--------------------------------        ----        ----        ------- ----- ------------
_CODE                               00000200    00002728 =       10024. bytes (REL,CON)

      Value  Global                              Global Defined In Module
      -----  --------------------------------   ------------------------
     00002485  A$lcc761667$95                     mini_games
     00002486  A$lcc761667$96                     mini_games
     00002487  A$lcc761667$97                     mini_games
     00002488  A$lcc761667$98                     mini_games
     00002489  A$lcc761667$99                     mini_games
     0000248C  A$lcc761667$100                    mini_games
     0000248E  A$lcc761667$101                    mini_games
     0000248F  A$lcc761667$105                    mini_games
     0000248F  C$mini_games.c$11$2_0$149          mini_games
     00002490  A$lcc761667$106                    mini_games
     00002492  A$lcc761667$111                    mini_games
     00002493  A$lcc761667$116                    mini_games
     00002493  C$mini_games.c$16$2_0$149          mini_games
     00002493  XG$Mg_SetTitle$0$0                 mini_games
     00002494  A$lcc761668$61                     mg_leaves
     00002494  C$mg_leaves.c$6$0_0$156            mg_leaves
     00002494  C$mg_leaves.c$8$1_0$156            mg_leaves
     00002494  G$Mg_Leaves_Create$0$0             mg_leaves
     00002494  _Mg_Leaves_Create                  mg_leaves
     00002497  A$lcc761668$62                     mg_leaves
     00002499  A$lcc761668$63                     mg_leaves
     0000249A  A$lcc761668$64                     mg_leaves
     0000249C  A$lcc761668$68                     mg_leaves
     0000249C  C$mg_leaves.c$9$1_0$156            mg_leaves
     0000249D  A$lcc761668$69                     mg_leaves
     0000249F  A$lcc761668$70                     mg_leaves
     000024A0  A$lcc761668$71                     mg_leaves
     000024A2  A$lcc761668$75                     mg_leaves
     000024A2  C$mg_leaves.c$10$1_0$156           mg_leaves
     000024A5  A$lcc761668$76                     mg_leaves
     000024A7  A$lcc761668$80                     mg_leaves
     000024A7  C$mg_leaves.c$11$1_0$156           mg_leaves
     000024AA  A$lcc761668$81                     mg_leaves
     000024AB  A$lcc761668$82                     mg_leaves
     000024AC  A$lcc761668$83                     mg_leaves
     000024AD  A$lcc761668$91                     mg_leaves
     000024AD  C$mg_leaves.c$12$1_0$156           mg_leaves
     000024AD  XG$Mg_Leaves_Create$0$0            mg_leaves
     000024AE  A$lcc761670$57                     mg_leaves_load_bkg
     000024AE  C$mg_leaves_load_bkg.c$5$0_0$155   mg_leaves_load_bkg
     000024AE  C$mg_leaves_load_bkg.c$7$2_0$155   mg_leaves_load_bkg
     000024AE  G$Mg_Leaves_LoadBKG$0$0            mg_leaves_load_bkg
     000024AE  _Mg_Leaves_LoadBKG                 mg_leaves_load_bkg
     000024B0  A$lcc761670$58                     mg_leaves_load_bkg
     000024B1  A$lcc761670$62                     mg_leaves_load_bkg
     000024B1  C$mg_leaves_load_bkg.c$8$1_0$155   mg_leaves_load_bkg
     000024B3  A$lcc761670$63                     mg_leaves_load_bkg
     000024B5  A$lcc761670$64                     mg_leaves_load_bkg
     000024B8  A$lcc761670$65                     mg_leaves_load_bkg
     000024BA  A$lcc761670$69                     mg_leaves_load_bkg
     000024BA  C$mg_leaves_load_bkg.c$10$1_0$15   mg_leaves_load_bkg
ASxxxx Linker V03.00/V05.40 + sdld,  page 102.
Hexadecimal  [32-Bits]

Area                                    Addr        Size        Decimal Bytes (Attributes)
--------------------------------        ----        ----        ------- ----- ------------
_CODE                               00000200    00002728 =       10024. bytes (REL,CON)

      Value  Global                              Global Defined In Module
      -----  --------------------------------   ------------------------
     000024BD  A$lcc761670$70                     mg_leaves_load_bkg
     000024BE  A$lcc761670$71                     mg_leaves_load_bkg
     000024C1  A$lcc761670$72                     mg_leaves_load_bkg
     000024C2  A$lcc761670$73                     mg_leaves_load_bkg
     000024C5  A$lcc761670$74                     mg_leaves_load_bkg
     000024C7  A$lcc761670$78                     mg_leaves_load_bkg
     000024C7  C$mg_leaves_load_bkg.c$11$1_0$15   mg_leaves_load_bkg
     000024CA  A$lcc761670$79                     mg_leaves_load_bkg
     000024CB  A$lcc761670$80                     mg_leaves_load_bkg
     000024CE  A$lcc761670$81                     mg_leaves_load_bkg
     000024CF  A$lcc761670$82                     mg_leaves_load_bkg
     000024D0  A$lcc761670$83                     mg_leaves_load_bkg
     000024D1  A$lcc761670$84                     mg_leaves_load_bkg
     000024D2  A$lcc761670$85                     mg_leaves_load_bkg
     000024D5  A$lcc761670$86                     mg_leaves_load_bkg
     000024D7  A$lcc761670$90                     mg_leaves_load_bkg
     000024D7  C$mg_leaves_load_bkg.c$13$1_0$15   mg_leaves_load_bkg
     000024D8  A$lcc761670$91                     mg_leaves_load_bkg
     000024DA  A$lcc761670$92                     mg_leaves_load_bkg
     000024DD  A$lcc761670$93                     mg_leaves_load_bkg
     000024DE  A$lcc761670$101                    mg_leaves_load_bkg
     000024DE  C$mg_leaves_load_bkg.c$14$1_0$15   mg_leaves_load_bkg
     000024DE  XG$Mg_Leaves_LoadBKG$0$0           mg_leaves_load_bkg
     000024DF  A$lcc761673$66                     main
     000024DF  C$main.c$26$0_0$176                main
     000024DF  C$main.c$28$1_0$176                main
     000024DF  G$load_number_tiles$0$0            main
     000024DF  _load_number_tiles                 main
     000024E2  A$lcc761673$67                     main
     000024E3  A$lcc761673$68                     main
     000024E6  A$lcc761673$69                     main
     000024E7  A$lcc761673$70                     main
     000024EA  A$lcc761673$71                     main
     000024EC  A$lcc761673$75                     main
     000024EC  C$main.c$29$1_0$176                main
     000024EF  A$lcc761673$76                     main
     000024F0  A$lcc761673$77                     main
     000024F3  A$lcc761673$78                     main
     000024F4  A$lcc761673$79                     main
     000024F7  A$lcc761673$80                     main
     000024F9  A$lcc761673$88                     main
     000024F9  C$main.c$30$1_0$176                main
     000024F9  XG$load_number_tiles$0$0           main
     000024FA  A$lcc761673$101                    main
     000024FA  C$main.c$32$1_0$178                main
     000024FA  C$main.c$34$1_0$178                main
     000024FA  G$main$0$0                         main
     000024FA  _main                              main
     000024FC  A$lcc761673$102                    main
     000024FE  A$lcc761673$103                    main
     00002500  A$lcc761673$107                    main
ASxxxx Linker V03.00/V05.40 + sdld,  page 103.
Hexadecimal  [32-Bits]

Area                                    Addr        Size        Decimal Bytes (Attributes)
--------------------------------        ----        ----        ------- ----- ------------
_CODE                               00000200    00002728 =       10024. bytes (REL,CON)

      Value  Global                              Global Defined In Module
      -----  --------------------------------   ------------------------
     00002500  C$main.c$35$1_0$178                main
     00002502  A$lcc761673$108                    main
     00002504  A$lcc761673$109                    main
     00002506  A$lcc761673$113                    main
     00002506  C$main.c$44$1_1$179                main
     00002509  A$lcc761673$114                    main
     0000250B  A$lcc761673$115                    main
     0000250C  A$lcc761673$116                    main
     0000250E  A$lcc761673$120                    main
     0000250E  C$main.c$46$1_1$179                main
     00002511  A$lcc761673$124                    main
     00002511  C$main.c$48$1_1$179                main
     00002514  A$lcc761673$128                    main
     00002514  C$main.c$49$1_1$179                main
     00002517  A$lcc761673$132                    main
     00002517  C$main.c$52$1_2$180                main
     0000251A  A$lcc761673$133                    main
     0000251D  A$lcc761673$137                    main
     0000251D  C$main.c$54$1_2$180                main
     00002520  A$lcc761673$138                    main
     00002523  A$lcc761673$139                    main
     00002524  A$lcc761673$140                    main
     00002525  A$lcc761673$141                    main
     00002526  A$lcc761673$142                    main
     00002527  A$lcc761673$143                    main
     00002528  A$lcc761673$144                    main
     00002529  A$lcc761673$145                    main
     0000252A  A$lcc761673$146                    main
     0000252D  A$lcc761673$147                    main
     0000252F  A$lcc761673$148                    main
     00002530  A$lcc761673$149                    main
     00002531  A$lcc761673$150                    main
     00002532  A$lcc761673$151                    main
     00002533  A$lcc761673$152                    main
     00002536  A$lcc761673$156                    main
     00002536  C$main.c$56$1_2$180                main
     00002539  A$lcc761673$161                    main
     00002539  C$main.c$58$1_2$180                main
     0000253C  A$lcc761673$162                    main
     0000253D  A$lcc761673$163                    main
     0000253E  A$lcc761673$164                    main
     0000253F  A$lcc761673$165                    main
     00002540  A$lcc761673$166                    main
     00002541  A$lcc761673$167                    main
     00002542  A$lcc761673$171                    main
     00002542  C$main.c$60$2_2$181                main
     00002545  A$lcc761673$175                    main
     00002545  C$main.c$62$2_2$181                main
     00002548  A$lcc761673$176                    main
     0000254B  A$lcc761673$180                    main
     0000254B  C$main.c$63$2_2$181                main
ASxxxx Linker V03.00/V05.40 + sdld,  page 104.
Hexadecimal  [32-Bits]

Area                                    Addr        Size        Decimal Bytes (Attributes)
--------------------------------        ----        ----        ------- ----- ------------
_CODE                               00000200    00002728 =       10024. bytes (REL,CON)

      Value  Global                              Global Defined In Module
      -----  --------------------------------   ------------------------
     0000254E  A$lcc761673$181                    main
     00002551  A$lcc761673$185                    main
     00002551  C$main.c$65$3_2$182                main
     00002553  A$lcc761673$186                    main
     00002554  A$lcc761673$190                    main
     00002554  C$main.c$66$3_3$183                main
     00002557  A$lcc761673$191                    main
     00002558  A$lcc761673$192                    main
     00002559  A$lcc761673$193                    main
     0000255A  A$lcc761673$194                    main
     0000255D  A$lcc761673$195                    main
     0000255E  A$lcc761673$196                    main
     0000255F  A$lcc761673$197                    main
     00002561  A$lcc761673$198                    main
     00002562  A$lcc761673$199                    main
     00002564  A$lcc761673$203                    main
     00002564  C$main.c$67$3_3$183                main
     00002565  A$lcc761673$204                    main
     00002567  A$lcc761673$205                    main
     00002568  A$lcc761673$206                    main
     0000256B  A$lcc761673$211                    main
     0000256B  C$main.c$69$2_3$182                main
     0000256E  A$lcc761673$212                    main
     0000256F  A$lcc761673$213                    main
     00002570  A$lcc761673$214                    main
     00002571  A$lcc761673$215                    main
     00002572  A$lcc761673$216                    main
     00002573  A$lcc761673$217                    main
     00002574  A$lcc761673$218                    main
     00002575  A$lcc761673$219                    main
     00002576  A$lcc761673$220                    main
     00002577  A$lcc761673$221                    main
     00002578  A$lcc761673$222                    main
     00002579  A$lcc761673$223                    main
     0000257A  A$lcc761673$224                    main
     0000257B  A$lcc761673$225                    main
     0000257C  A$lcc761673$226                    main
     0000257D  A$lcc761673$227                    main
     00002580  A$lcc761673$228                    main
     00002581  A$lcc761673$229                    main
     00002582  A$lcc761673$230                    main
     00002583  A$lcc761673$232                    main
     00002584  A$lcc761673$236                    main
     00002584  C$main.c$71$3_3$184                main
     00002586  A$lcc761673$237                    main
     00002587  A$lcc761673$238                    main
     00002589  A$lcc761673$242                    main
     00002589  C$main.c$72$3_3$184                main
     0000258A  A$lcc761673$243                    main
     0000258C  A$lcc761673$244                    main
     0000258F  A$lcc761673$245                    main
ASxxxx Linker V03.00/V05.40 + sdld,  page 105.
Hexadecimal  [32-Bits]

Area                                    Addr        Size        Decimal Bytes (Attributes)
--------------------------------        ----        ----        ------- ----- ------------
_CODE                               00000200    00002728 =       10024. bytes (REL,CON)

      Value  Global                              Global Defined In Module
      -----  --------------------------------   ------------------------
     00002590  A$lcc761673$253                    main
     00002590  C$main.c$74$1_2$178                main
     00002590  XG$main$0$0                        main
     00002592  __divsuchar                        divmod
     00002598  __modsuchar                        divmod
     000025A1  __divuschar                        divmod
     000025AA  __moduschar                        divmod
     000025B6  __divschar                         divmod
     000025BB  __modschar                         divmod
     000025C2  __divsint                          divmod
     000025CB  __modsint                          divmod
     000025D7  __divuchar                         divmod
     000025DC  __moduchar                         divmod
     000025E3  __divuint                          divmod
     000025EC  __moduint                          divmod
     000025F8  .div8                              divmod
     000025F8  .mod8                              divmod
     00002600  .div16                             divmod
     00002600  .mod16                             divmod
     00002636  .divu8                             divmod
     00002636  .modu8                             divmod
     00002639  .divu16                            divmod
     00002639  .modu16                            divmod
     00002679  _free                              free
     00002789  ___sdcc_heap_init                  malloc
     000027AB  _malloc                            malloc
     000028B1  __mulsuchar                        mul
     000028B4  __muluschar                        mul
     000028BD  __mulschar                         mul
     000028C5  __mulint                           mul
     000028E4  __muluchar                         mul
     000028F6  ___memcpy                          
     000028F6  _memcpy                            

ASxxxx Linker V03.00/V05.40 + sdld,  page 106.
Hexadecimal  [32-Bits]

Area                                    Addr        Size        Decimal Bytes (Attributes)
--------------------------------        ----        ----        ------- ----- ------------
_HEADER0                            00000000    00000001 =           1. bytes (ABS,CON)

      Value  Global                              Global Defined In Module
      -----  --------------------------------   ------------------------
     00000020  .call_hl                           Runtime

ASxxxx Linker V03.00/V05.40 + sdld,  page 107.
Hexadecimal  [32-Bits]

Area                                    Addr        Size        Decimal Bytes (Attributes)
--------------------------------        ----        ----        ------- ----- ------------
_HEADER1                            00000000    00000005 =           5. bytes (ABS,CON)

      Value  Global                              Global Defined In Module
      -----  --------------------------------   ------------------------
     00000028  .MemsetSmall                       Runtime

ASxxxx Linker V03.00/V05.40 + sdld,  page 108.
Hexadecimal  [32-Bits]

Area                                    Addr        Size        Decimal Bytes (Attributes)
--------------------------------        ----        ----        ------- ----- ------------
_HEADER2                            00000000    00000007 =           7. bytes (ABS,CON)

      Value  Global                              Global Defined In Module
      -----  --------------------------------   ------------------------
     00000030  .MemcpySmall                       Runtime

ASxxxx Linker V03.00/V05.40 + sdld,  page 109.
Hexadecimal  [32-Bits]

Area                                    Addr        Size        Decimal Bytes (Attributes)
--------------------------------        ----        ----        ------- ----- ------------
_HEADER3                            00000000    00000008 =           8. bytes (ABS,CON)

      Value  Global                              Global Defined In Module
      -----  --------------------------------   ------------------------
ASxxxx Linker V03.00/V05.40 + sdld,  page 110.
Hexadecimal  [32-Bits]

Area                                    Addr        Size        Decimal Bytes (Attributes)
--------------------------------        ----        ----        ------- ----- ------------
_HEADER4                            00000000    00000060 =          96. bytes (ABS,CON)

      Value  Global                              Global Defined In Module
      -----  --------------------------------   ------------------------
     00000080  .int                               Runtime
     0000008F  _wait_int_handler                  Runtime
     0000009C  __standard_VBL_handler             Runtime
     000000AB  _refresh_OAM                       Runtime
     000000CC  _set_interrupts                    Runtime

ASxxxx Linker V03.00/V05.40 + sdld,  page 111.
Hexadecimal  [32-Bits]

Area                                    Addr        Size        Decimal Bytes (Attributes)
--------------------------------        ----        ----        ------- ----- ------------
_HEADER5                            00000000    00000001 =           1. bytes (ABS,CON)

      Value  Global                              Global Defined In Module
      -----  --------------------------------   ------------------------
ASxxxx Linker V03.00/V05.40 + sdld,  page 112.
Hexadecimal  [32-Bits]

Area                                    Addr        Size        Decimal Bytes (Attributes)
--------------------------------        ----        ----        ------- ----- ------------
_HEADER6                            00000000    00000002 =           2. bytes (ABS,CON)

      Value  Global                              Global Defined In Module
      -----  --------------------------------   ------------------------
ASxxxx Linker V03.00/V05.40 + sdld,  page 113.
Hexadecimal  [32-Bits]

Area                                    Addr        Size        Decimal Bytes (Attributes)
--------------------------------        ----        ----        ------- ----- ------------
_HEADER7                            00000000    00000030 =          48. bytes (ABS,CON)

      Value  Global                              Global Defined In Module
      -----  --------------------------------   ------------------------
ASxxxx Linker V03.00/V05.40 + sdld,  page 114.
Hexadecimal  [32-Bits]

Area                                    Addr        Size        Decimal Bytes (Attributes)
--------------------------------        ----        ----        ------- ----- ------------
_HEADER8                            00000000    00000006 =           6. bytes (ABS,CON)

      Value  Global                              Global Defined In Module
      -----  --------------------------------   ------------------------
ASxxxx Linker V03.00/V05.40 + sdld,  page 115.
Hexadecimal  [32-Bits]

Area                                    Addr        Size        Decimal Bytes (Attributes)
--------------------------------        ----        ----        ------- ----- ------------
_HEADER9                            00000000    00000003 =           3. bytes (ABS,CON)

      Value  Global                              Global Defined In Module
      -----  --------------------------------   ------------------------
ASxxxx Linker V03.00/V05.40 + sdld,  page 116.
Hexadecimal  [32-Bits]

Area                                    Addr        Size        Decimal Bytes (Attributes)
--------------------------------        ----        ----        ------- ----- ------------
_HEADERa                            00000000    00000001 =           1. bytes (ABS,CON)

      Value  Global                              Global Defined In Module
      -----  --------------------------------   ------------------------
ASxxxx Linker V03.00/V05.40 + sdld,  page 117.
Hexadecimal  [32-Bits]

Area                                    Addr        Size        Decimal Bytes (Attributes)
--------------------------------        ----        ----        ------- ----- ------------
_HEADERb                            00000000    00000001 =           1. bytes (ABS,CON)

      Value  Global                              Global Defined In Module
      -----  --------------------------------   ------------------------
ASxxxx Linker V03.00/V05.40 + sdld,  page 118.
Hexadecimal  [32-Bits]

Area                                    Addr        Size        Decimal Bytes (Attributes)
--------------------------------        ----        ----        ------- ----- ------------
_HEADERc                            00000000    00000001 =           1. bytes (ABS,CON)

      Value  Global                              Global Defined In Module
      -----  --------------------------------   ------------------------
ASxxxx Linker V03.00/V05.40 + sdld,  page 119.
Hexadecimal  [32-Bits]

Area                                    Addr        Size        Decimal Bytes (Attributes)
--------------------------------        ----        ----        ------- ----- ------------
_HEADERd                            00000000    00000002 =           2. bytes (ABS,CON)

      Value  Global                              Global Defined In Module
      -----  --------------------------------   ------------------------
ASxxxx Linker V03.00/V05.40 + sdld,  page 120.
Hexadecimal  [32-Bits]

Area                                    Addr        Size        Decimal Bytes (Attributes)
--------------------------------        ----        ----        ------- ----- ------------
_HEADERe                            00000000    00000001 =           1. bytes (ABS,CON)

      Value  Global                              Global Defined In Module
      -----  --------------------------------   ------------------------
ASxxxx Linker V03.00/V05.40 + sdld,  page 121.
Hexadecimal  [32-Bits]

Area                                    Addr        Size        Decimal Bytes (Attributes)
--------------------------------        ----        ----        ------- ----- ------------
_HEADERf                            00000000    00000001 =           1. bytes (ABS,CON)

      Value  Global                              Global Defined In Module
      -----  --------------------------------   ------------------------
ASxxxx Linker V03.00/V05.40 + sdld,  page 122.
Hexadecimal  [32-Bits]

Area                                    Addr        Size        Decimal Bytes (Attributes)
--------------------------------        ----        ----        ------- ----- ------------
_HEADER10                           00000000    00000002 =           2. bytes (ABS,CON)

      Value  Global                              Global Defined In Module
      -----  --------------------------------   ------------------------
ASxxxx Linker V03.00/V05.40 + sdld,  page 123.
Hexadecimal  [32-Bits]

Area                                    Addr        Size        Decimal Bytes (Attributes)
--------------------------------        ----        ----        ------- ----- ------------
_HEADER11                           00000000    000000AB =         171. bytes (ABS,CON)

      Value  Global                              Global Defined In Module
      -----  --------------------------------   ------------------------
     00000150  .reset                             Runtime
     00000150  _reset                             Runtime
     00000157  .code_start                        Runtime
     000001B9  _exit                              Runtime
     000001BD  .wait_vbl_done                     Runtime
     000001BD  _vsync                             Runtime
     000001BD  _wait_vbl_done                     Runtime
     000001CD  .remove_VBL                        Runtime
     000001CD  _remove_VBL                        Runtime
     000001D0  .remove_int                        Runtime
     000001ED  .add_VBL                           Runtime
     000001ED  _add_VBL                           Runtime
     000001F0  .add_int                           Runtime

ASxxxx Linker V03.00/V05.40 + sdld,  page 124.
Hexadecimal  [32-Bits]

Area                                    Addr        Size        Decimal Bytes (Attributes)
--------------------------------        ----        ----        ------- ----- ------------
_HOME                               00002928    0000012C =         300. bytes (REL,CON)

      Value  Global                              Global Defined In Module
      -----  --------------------------------   ------------------------
     00002928  .memset_simple                     Runtime
     00002931  .memcpy_simple                     Runtime
     0000294E  .display_off                       Runtime
     0000294E  _display_off                       Runtime
     00002966  _set_tile_data                     
     0000296B  _set_bkg_data                      
     0000296B  _set_win_data                      
     00002973  _set_sprite_data                   
     000029A3  .padup                             
     000029A3  _waitpadup                         
     000029B3  .jpad                              
     000029B3  _joypad                            
     000029DB  _waitpad                           
     000029DC  .wait_pad                          
     000029E3  ___sdcc_call_hl                    call_hl
     000029E4  _set_bkg_tiles                     
     000029F8  .set_xy_wtt                        SetTileMap
     00002A01  .set_xy_btt                        SetTileMap
     00002A10  .set_xy_tt                         SetTileMap

ASxxxx Linker V03.00/V05.40 + sdld,  page 125.
Hexadecimal  [32-Bits]

Area                                    Addr        Size        Decimal Bytes (Attributes)
--------------------------------        ----        ----        ------- ----- ------------
_INITIALIZER                        00002A54    00000217 =         535. bytes (REL,CON)

      Value  Global                              Global Defined In Module
      -----  --------------------------------   ------------------------
     00002A54  Fspr_InventoryArrow_idle$__xinit   spr_InventoryArrow_idle
     00002A64  Fbroom$__xinit_spr_broom_00$0_0$   broom
     00002A74  Fbroom$__xinit_spr_broom_01$0_0$   broom
     00002A84  Fleaf$__xinit_spr_leaf_00$0_0$0    leaf
     00002A94  Fexample_npc$__xinit_spr_example   example_npc
     00002AA4  Fexample_npc$__xinit_spr_example   example_npc
     00002AB4  Fexample_npc$__xinit_spr_example   example_npc
     00002AC4  Fexample_npc$__xinit_spr_example   example_npc
     00002AD4  Fspr_Player_down0$__xinit_spr_Pl   spr_Player_down0
     00002AE4  Fspr_Player_down0$__xinit_spr_Pl   spr_Player_down0
     00002AF4  Fspr_Player_down0$__xinit_spr_Pl   spr_Player_down0
     00002B04  Fspr_Player_down0$__xinit_spr_Pl   spr_Player_down0
     00002B14  Fspr_Player_down1$__xinit_spr_Pl   spr_Player_down1
     00002B24  Fspr_Player_down1$__xinit_spr_Pl   spr_Player_down1
     00002B34  Fspr_Player_down1$__xinit_spr_Pl   spr_Player_down1
     00002B44  Fspr_Player_down1$__xinit_spr_Pl   spr_Player_down1
     00002B54  Fspr_Player_down2$__xinit_spr_Pl   spr_Player_down2
     00002B64  Fspr_Player_down2$__xinit_spr_Pl   spr_Player_down2
     00002B74  Fspr_Player_down2$__xinit_spr_Pl   spr_Player_down2
     00002B84  Fspr_Player_down2$__xinit_spr_Pl   spr_Player_down2
     00002B94  Fspr_Player_up0$__xinit_spr_Play   spr_Player_up0
     00002BA4  Fspr_Player_up0$__xinit_spr_Play   spr_Player_up0
     00002BB4  Fspr_Player_up0$__xinit_spr_Play   spr_Player_up0
     00002BC4  Fspr_Player_up0$__xinit_spr_Play   spr_Player_up0
     00002BD4  Fspr_Player_up1$__xinit_spr_Play   spr_Player_up1
     00002BE4  Fspr_Player_up1$__xinit_spr_Play   spr_Player_up1
     00002BF4  Fspr_Player_up1$__xinit_spr_Play   spr_Player_up1
     00002C04  Fspr_Player_up1$__xinit_spr_Play   spr_Player_up1
     00002C14  Fspr_Player_up2$__xinit_spr_Play   spr_Player_up2
     00002C24  Fspr_Player_up2$__xinit_spr_Play   spr_Player_up2
     00002C34  Fspr_Player_up2$__xinit_spr_Play   spr_Player_up2
     00002C44  Fspr_Player_up2$__xinit_spr_Play   spr_Player_up2
     00002C54  Faction$__xinit_current_directio   action
     00002C55  Fcan_move$__xinit_can_move$0_0$0   can_move
     00002C59  Fentity$__xinit_next_entity_id$0   entity
     00002C5A  Fextra_actors$__xinit_extra_acto   extra_actors
     00002C5B  Fgender_selection$__xinit_GENDER   gender_selection
     00002C5C  Finput$__xinit_keys$0_0$0          input
     00002C5D  Finput$__xinit_prev_keys$0_0$0     input
     00002C5E  Finventory$__xinit_inventory_act   inventory
     00002C5F  Fload$__xinit_vram_next_index$0_   load
     00002C60  Fload$__xinit_vram_extra_start$0   load
     00002C61  Fmoney$__xinit_money$0_0$0         money
     00002C63  Frandom$__xinit_seed$0_0$0         random
     00002C65  Fmain_menu$__xinit_timer$0_0$0     main_menu
     00002C67  Fmain_menu$__xinit_rate$0_0$0      main_menu
     00002C68  Fmain_menu$__xinit_show_text$0_0   main_menu
     00002C69  Fmg_leaves_init$__xinit_SWEEPING   mg_leaves_init
ASxxxx Linker V03.00/V05.40 + sdld,  page 126.
Hexadecimal  [32-Bits]

Area                                    Addr        Size        Decimal Bytes (Attributes)
--------------------------------        ----        ----        ------- ----- ------------
_GSINIT                             00002C6B    0000000F =          15. bytes (REL,CON)

      Value  Global                              Global Defined In Module
      -----  --------------------------------   ------------------------
     00002C6B  gsinit                             Runtime

ASxxxx Linker V03.00/V05.40 + sdld,  page 127.
Hexadecimal  [32-Bits]

Area                                    Addr        Size        Decimal Bytes (Attributes)
--------------------------------        ----        ----        ------- ----- ------------
_GSFINAL                            00002C7A    00000001 =           1. bytes (REL,CON)

      Value  Global                              Global Defined In Module
      -----  --------------------------------   ------------------------
ASxxxx Linker V03.00/V05.40 + sdld,  page 128.
Hexadecimal  [32-Bits]

Area                                    Addr        Size        Decimal Bytes (Attributes)
--------------------------------        ----        ----        ------- ----- ------------
_DATA                               0000C0A0    000002C4 =         708. bytes (REL,CON)

      Value  Global                              Global Defined In Module
      -----  --------------------------------   ------------------------
     0000C0A0  __cpu                              Runtime
     0000C0A1  __is_GBA                           Runtime
     0000C0A2  .mode                              Runtime
     0000C0A3  .sys_time                          Runtime
     0000C0A3  _sys_time                          Runtime
     0000C0A5  .int_0x40                          Runtime
     0000C0B1  G$animation$0_0$0                  animation
     0000C0B1  _animation                         animation
     0000C208  G$extra_actors$0_0$0               extra_actors
     0000C208  _extra_actors                      extra_actors
     0000C244  G$names$0_0$0                      name
     0000C244  _names                             name
     0000C28A  G$npc_1$0_0$0                      npcs
     0000C28A  _npc_1                             npcs
     0000C28B  G$npc_2$0_0$0                      npcs
     0000C28B  _npc_2                             npcs
     0000C28C  G$option_actor$0_0$0               npcs
     0000C28C  _option_actor                      npcs
     0000C28D  G$humor_stats$0_0$0                npcs
     0000C28D  _humor_stats                       npcs
     0000C29C  G$CurrentNPCDialogues$0_0$0        npc_lines
     0000C29C  _CurrentNPCDialogues               npc_lines
     0000C2A0  G$player$0_0$0                     player
     0000C2A0  _player                            player
     0000C2A1  G$mg_player$0_0$0                  player
     0000C2A1  _mg_player                         player
     0000C2A2  G$player_animations$0_0$0          player
     0000C2A2  _player_animations                 player
     0000C2A6  G$player_y_cache$0_0$0             player
     0000C2A6  _player_y_cache                    player
     0000C2A7  G$position$0_0$0                   position
     0000C2A7  _position                          position
     0000C2D1  G$render$0_0$0                     render
     0000C2D1  _render                            render
     0000C2E6  G$scene_manager$0_0$0              scene_manager
     0000C2E6  _scene_manager                     scene_manager
     0000C2E8  G$speed$0_0$0                      speed
     0000C2E8  _speed                             speed
     0000C2F6  G$GenderSelect$0_0$0               gender_select
     0000C2F6  _GenderSelect                      gender_select
     0000C2FF  G$InventoryScene$0_0$0             inventory_scene
     0000C2FF  _InventoryScene                    inventory_scene
     0000C308  G$MainMenu$0_0$0                   main_menu
     0000C308  _MainMenu                          main_menu
     0000C311  G$CurrentMapData$0_0$0             map_data
     0000C311  _CurrentMapData                    map_data
     0000C323  G$Map_00$0_0$0                     map_00
     0000C323  _Map_00                            map_00
     0000C32C  G$Mg_Leaves$0_0$0                  mg_leaves
     0000C32C  _Mg_Leaves                         mg_leaves
ASxxxx Linker V03.00/V05.40 + sdld,  page 129.
Hexadecimal  [32-Bits]

Area                                    Addr        Size        Decimal Bytes (Attributes)
--------------------------------        ----        ----        ------- ----- ------------
_DATA                               0000C0A0    000002C4 =         708. bytes (REL,CON)

      Value  Global                              Global Defined In Module
      -----  --------------------------------   ------------------------
     0000C335  G$leaf_ids$0_0$0                   mg_leaves_init
     0000C335  _leaf_ids                          mg_leaves_init
     0000C33A  G$leaf_x$0_0$0                     mg_leaves_init
     0000C33A  _leaf_x                            mg_leaves_init
     0000C33F  G$leaf_y$0_0$0                     mg_leaves_init
     0000C33F  _leaf_y                            mg_leaves_init
     0000C344  G$leaf_active$0_0$0                mg_leaves_init
     0000C344  _leaf_active                       mg_leaves_init
     0000C349  G$leaf_timer$0_0$0                 mg_leaves_init
     0000C349  _leaf_timer                        mg_leaves_init
     0000C34E  G$leaf_spawner$0_0$0               mg_leaves_init
     0000C34E  _leaf_spawner                      mg_leaves_init
     0000C358  G$leaf_state$0_0$0                 mg_leaves_init
     0000C358  _leaf_state                        mg_leaves_init
     0000C35D  G$mg_leaves_DATA$0_0$0             mg_leaves_init
     0000C35D  _mg_leaves_DATA                    mg_leaves_init
     0000C35E  Lmain.main$game$1_1$179            main
     0000C362  ___sdcc_heap_free                  malloc

ASxxxx Linker V03.00/V05.40 + sdld,  page 130.
Hexadecimal  [32-Bits]

Area                                    Addr        Size        Decimal Bytes (Attributes)
--------------------------------        ----        ----        ------- ----- ------------
_INITIALIZED                        0000C364    00000217 =         535. bytes (REL,CON)

      Value  Global                              Global Defined In Module
      -----  --------------------------------   ------------------------
     0000C364  G$spr_InventoryArrow_idle$0_0$0    spr_InventoryArrow_idle
     0000C364  _spr_InventoryArrow_idle           spr_InventoryArrow_idle
     0000C374  G$spr_broom_00$0_0$0               broom
     0000C374  _spr_broom_00                      broom
     0000C384  G$spr_broom_01$0_0$0               broom
     0000C384  _spr_broom_01                      broom
     0000C394  G$spr_leaf_00$0_0$0                leaf
     0000C394  _spr_leaf_00                       leaf
     0000C3A4  G$spr_example_NPC_00$0_0$0         example_npc
     0000C3A4  _spr_example_NPC_00                example_npc
     0000C3B4  G$spr_example_NPC_01$0_0$0         example_npc
     0000C3B4  _spr_example_NPC_01                example_npc
     0000C3C4  G$spr_example_NPC_10$0_0$0         example_npc
     0000C3C4  _spr_example_NPC_10                example_npc
     0000C3D4  G$spr_example_NPC_11$0_0$0         example_npc
     0000C3D4  _spr_example_NPC_11                example_npc
     0000C3E4  G$spr_Player_down0_00$0_0$0        spr_Player_down0
     0000C3E4  _spr_Player_down0_00               spr_Player_down0
     0000C3F4  G$spr_Player_down0_10$0_0$0        spr_Player_down0
     0000C3F4  _spr_Player_down0_10               spr_Player_down0
     0000C404  G$spr_Player_down0_01$0_0$0        spr_Player_down0
     0000C404  _spr_Player_down0_01               spr_Player_down0
     0000C414  G$spr_Player_down0_11$0_0$0        spr_Player_down0
     0000C414  _spr_Player_down0_11               spr_Player_down0
     0000C424  G$spr_Player_down1_00$0_0$0        spr_Player_down1
     0000C424  _spr_Player_down1_00               spr_Player_down1
     0000C434  G$spr_Player_down1_10$0_0$0        spr_Player_down1
     0000C434  _spr_Player_down1_10               spr_Player_down1
     0000C444  G$spr_Player_down1_01$0_0$0        spr_Player_down1
     0000C444  _spr_Player_down1_01               spr_Player_down1
     0000C454  G$spr_Player_down1_11$0_0$0        spr_Player_down1
     0000C454  _spr_Player_down1_11               spr_Player_down1
     0000C464  G$spr_Player_down2_00$0_0$0        spr_Player_down2
     0000C464  _spr_Player_down2_00               spr_Player_down2
     0000C474  G$spr_Player_down2_10$0_0$0        spr_Player_down2
     0000C474  _spr_Player_down2_10               spr_Player_down2
     0000C484  G$spr_Player_down2_01$0_0$0        spr_Player_down2
     0000C484  _spr_Player_down2_01               spr_Player_down2
     0000C494  G$spr_Player_down2_11$0_0$0        spr_Player_down2
     0000C494  _spr_Player_down2_11               spr_Player_down2
     0000C4A4  G$spr_Player_up0_00$0_0$0          spr_Player_up0
     0000C4A4  _spr_Player_up0_00                 spr_Player_up0
     0000C4B4  G$spr_Player_up0_10$0_0$0          spr_Player_up0
     0000C4B4  _spr_Player_up0_10                 spr_Player_up0
     0000C4C4  G$spr_Player_up0_01$0_0$0          spr_Player_up0
     0000C4C4  _spr_Player_up0_01                 spr_Player_up0
     0000C4D4  G$spr_Player_up0_11$0_0$0          spr_Player_up0
     0000C4D4  _spr_Player_up0_11                 spr_Player_up0
     0000C4E4  G$spr_Player_up1_00$0_0$0          spr_Player_up1
     0000C4E4  _spr_Player_up1_00                 spr_Player_up1
ASxxxx Linker V03.00/V05.40 + sdld,  page 131.
Hexadecimal  [32-Bits]

Area                                    Addr        Size        Decimal Bytes (Attributes)
--------------------------------        ----        ----        ------- ----- ------------
_INITIALIZED                        0000C364    00000217 =         535. bytes (REL,CON)

      Value  Global                              Global Defined In Module
      -----  --------------------------------   ------------------------
     0000C4F4  G$spr_Player_up1_10$0_0$0          spr_Player_up1
     0000C4F4  _spr_Player_up1_10                 spr_Player_up1
     0000C504  G$spr_Player_up1_01$0_0$0          spr_Player_up1
     0000C504  _spr_Player_up1_01                 spr_Player_up1
     0000C514  G$spr_Player_up1_11$0_0$0          spr_Player_up1
     0000C514  _spr_Player_up1_11                 spr_Player_up1
     0000C524  G$spr_Player_up2_00$0_0$0          spr_Player_up2
     0000C524  _spr_Player_up2_00                 spr_Player_up2
     0000C534  G$spr_Player_up2_10$0_0$0          spr_Player_up2
     0000C534  _spr_Player_up2_10                 spr_Player_up2
     0000C544  G$spr_Player_up2_01$0_0$0          spr_Player_up2
     0000C544  _spr_Player_up2_01                 spr_Player_up2
     0000C554  G$spr_Player_up2_11$0_0$0          spr_Player_up2
     0000C554  _spr_Player_up2_11                 spr_Player_up2
     0000C564  G$current_direction$0_0$0          action
     0000C564  _current_direction                 action
     0000C565  G$can_move$0_0$0                   can_move
     0000C565  _can_move                          can_move
     0000C569  G$next_entity_id$0_0$0             entity
     0000C569  _next_entity_id                    entity
     0000C56A  G$extra_actor_index$0_0$0          extra_actors
     0000C56A  _extra_actor_index                 extra_actors
     0000C56B  G$GENDER$0_0$0                     gender_selection
     0000C56B  _GENDER                            gender_selection
     0000C56C  G$keys$0_0$0                       input
     0000C56C  _keys                              input
     0000C56D  G$prev_keys$0_0$0                  input
     0000C56D  _prev_keys                         input
     0000C56E  G$inventory_active$0_0$0           inventory
     0000C56E  _inventory_active                  inventory
     0000C56F  G$vram_next_index$0_0$0            load
     0000C56F  _vram_next_index                   load
     0000C570  G$vram_extra_start$0_0$0           load
     0000C570  _vram_extra_start                  load
     0000C571  G$money$0_0$0                      money
     0000C571  _money                             money
     0000C573  G$seed$0_0$0                       random
     0000C573  _seed                              random
     0000C575  G$timer$0_0$0                      main_menu
     0000C575  _timer                             main_menu
     0000C577  G$rate$0_0$0                       main_menu
     0000C577  _rate                              main_menu
     0000C578  G$show_text$0_0$0                  main_menu
     0000C578  _show_text                         main_menu
     0000C579  G$SWEEPING_FLAG$0_0$0              mg_leaves_init
     0000C579  _SWEEPING_FLAG                     mg_leaves_init
     0000C57A  __map_tile_offset                  SetTileMap

ASxxxx Linker V03.00/V05.40 + sdld,  page 132.
Hexadecimal  [32-Bits]

Area                                    Addr        Size        Decimal Bytes (Attributes)
--------------------------------        ----        ----        ------- ----- ------------
_HEAP                               0000C57B    000007FF =        2047. bytes (REL,CON)

      Value  Global                              Global Defined In Module
      -----  --------------------------------   ------------------------
     0000C57B  ___sdcc_heap                       

ASxxxx Linker V03.00/V05.40 + sdld,  page 133.
Hexadecimal  [32-Bits]

Area                                    Addr        Size        Decimal Bytes (Attributes)
--------------------------------        ----        ----        ------- ----- ------------
_HEAP_END                           0000CD7A    00000001 =           1. bytes (REL,CON)

      Value  Global                              Global Defined In Module
      -----  --------------------------------   ------------------------
     0000CD7A  ___sdcc_heap_end                   

ASxxxx Linker V03.00/V05.40 + sdld,  page 134.
Hexadecimal  [32-Bits]

Area                                    Addr        Size        Decimal Bytes (Attributes)
--------------------------------        ----        ----        ------- ----- ------------
_HRAM                               0000FF80    00000013 =          19. bytes (REL,CON)

      Value  Global                              Global Defined In Module
      -----  --------------------------------   ------------------------
     0000FF80  .refresh_OAM                       Runtime
     0000FF90  __current_bank                     Runtime
     0000FF91  __vbl_done                         Runtime
     0000FF92  __shadow_OAM_base                  Runtime

ASxxxx Linker V03.00/V05.40 + sdld,  page 135.
Hexadecimal  [32-Bits]

Area                                    Addr        Size        Decimal Bytes (Attributes)
--------------------------------        ----        ----        ------- ----- ------------
_CODE_1                             00014000    00001220 =        4640. bytes (REL,CON)

      Value  Global                              Global Defined In Module
      -----  --------------------------------   ------------------------
     00014000  G$inventory_bkg_tileset$0_0$0      inventory_bkg
     00014000  _inventory_bkg_tileset             inventory_bkg
     00014340  G$inventory_bkg_tilemap$0_0$0      inventory_bkg
     00014340  _inventory_bkg_tilemap             inventory_bkg
     000144A8  G$bkg_main_menu_tileset$0_0$0      bkg_MainMenu
     000144A8  _bkg_main_menu_tileset             bkg_MainMenu
     00014768  G$bkg_main_menu_tilemap$0_0$0      bkg_MainMenu
     00014768  _bkg_main_menu_tilemap             bkg_MainMenu
     000148D0  G$example_tileset$0_0$0            map_example
     000148D0  _example_tileset                   map_example
     00014D80  G$example_tilemap$0_0$0            map_example
     00014D80  _example_tilemap                   map_example
     00014EE8  G$template_tileset$0_0$0           template_tileset
     00014EE8  _template_tileset                  template_tileset
     000150B8  G$template_tilemap$0_0$0           template_tileset
     000150B8  _template_tilemap                  template_tileset

ASxxxx Linker V03.00/V05.40 + sdld,  page 136.
Hexadecimal  [32-Bits]

Area                                    Addr        Size        Decimal Bytes (Attributes)
--------------------------------        ----        ----        ------- ----- ------------
_CODE_2                             00024000    0000035D =         861. bytes (REL,CON)

      Value  Global                              Global Defined In Module
      -----  --------------------------------   ------------------------
     00024000  A$lcc761669$92                     mg_leaves_init
     00024000  C$mg_leaves_init.c$34$0_0$169      mg_leaves_init
     00024000  G$Mg_Leaves_Init$0$0               mg_leaves_init
     00024000  _Mg_Leaves_Init                    mg_leaves_init
     00024002  A$lcc761669$96                     mg_leaves_init
     00024002  C$mg_leaves_init.c$36$1_0$169      mg_leaves_init
     00024005  A$lcc761669$97                     mg_leaves_init
     00024007  A$lcc761669$98                     mg_leaves_init
     00024008  A$lcc761669$102                    mg_leaves_init
     00024008  C$mg_leaves_init.c$38$1_0$169      mg_leaves_init
     0002400B  A$lcc761669$103                    mg_leaves_init
     0002400C  A$lcc761669$104                    mg_leaves_init
     0002400D  A$lcc761669$105                    mg_leaves_init
     0002400E  A$lcc761669$106                    mg_leaves_init
     0002400F  A$lcc761669$110                    mg_leaves_init
     0002400F  C$mg_leaves_init.c$40$1_0$169      mg_leaves_init
     00024012  A$lcc761669$114                    mg_leaves_init
     00024012  C$mg_leaves_init.c$42$2_0$170      mg_leaves_init
     00024014  A$lcc761669$115                    mg_leaves_init
     00024015  A$lcc761669$116                    mg_leaves_init
     00024016  A$lcc761669$117                    mg_leaves_init
     00024018  A$lcc761669$118                    mg_leaves_init
     0002401A  A$lcc761669$119                    mg_leaves_init
     0002401C  A$lcc761669$120                    mg_leaves_init
     0002401D  A$lcc761669$121                    mg_leaves_init
     0002401F  A$lcc761669$122                    mg_leaves_init
     00024020  A$lcc761669$123                    mg_leaves_init
     00024021  A$lcc761669$124                    mg_leaves_init
     00024023  A$lcc761669$125                    mg_leaves_init
     00024024  A$lcc761669$126                    mg_leaves_init
     00024026  A$lcc761669$127                    mg_leaves_init
     00024027  A$lcc761669$128                    mg_leaves_init
     00024029  A$lcc761669$129                    mg_leaves_init
     0002402A  A$lcc761669$130                    mg_leaves_init
     0002402C  A$lcc761669$131                    mg_leaves_init
     0002402D  A$lcc761669$132                    mg_leaves_init
     0002402F  A$lcc761669$133                    mg_leaves_init
     00024030  A$lcc761669$134                    mg_leaves_init
     00024031  A$lcc761669$135                    mg_leaves_init
     00024032  A$lcc761669$136                    mg_leaves_init
     00024033  A$lcc761669$137                    mg_leaves_init
     00024035  A$lcc761669$141                    mg_leaves_init
     00024035  C$mg_leaves_init.c$43$1_1$170      mg_leaves_init
     00024036  A$lcc761669$142                    mg_leaves_init
     00024037  A$lcc761669$143                    mg_leaves_init
     0002403A  A$lcc761669$147                    mg_leaves_init
     0002403A  C$mg_leaves_init.c$45$1_1$170      mg_leaves_init
     0002403D  A$lcc761669$151                    mg_leaves_init
     0002403D  C$mg_leaves_init.c$49$3_2$173      mg_leaves_init
     0002403F  A$lcc761669$153                    mg_leaves_init
ASxxxx Linker V03.00/V05.40 + sdld,  page 137.
Hexadecimal  [32-Bits]

Area                                    Addr        Size        Decimal Bytes (Attributes)
--------------------------------        ----        ----        ------- ----- ------------
_CODE_2                             00024000    0000035D =         861. bytes (REL,CON)

      Value  Global                              Global Defined In Module
      -----  --------------------------------   ------------------------
     00024040  A$lcc761669$154                    mg_leaves_init
     00024042  A$lcc761669$155                    mg_leaves_init
     00024044  A$lcc761669$159                    mg_leaves_init
     00024044  C$mg_leaves_init.c$51$3_2$173      mg_leaves_init
     00024045  A$lcc761669$160                    mg_leaves_init
     00024047  A$lcc761669$161                    mg_leaves_init
     00024048  A$lcc761669$162                    mg_leaves_init
     00024049  A$lcc761669$163                    mg_leaves_init
     0002404C  A$lcc761669$164                    mg_leaves_init
     0002404D  A$lcc761669$165                    mg_leaves_init
     00024050  A$lcc761669$166                    mg_leaves_init
     00024051  A$lcc761669$167                    mg_leaves_init
     00024052  A$lcc761669$171                    mg_leaves_init
     00024052  C$mg_leaves_init.c$52$3_2$173      mg_leaves_init
     00024055  A$lcc761669$172                    mg_leaves_init
     00024057  A$lcc761669$173                    mg_leaves_init
     00024058  A$lcc761669$174                    mg_leaves_init
     00024059  A$lcc761669$178                    mg_leaves_init
     00024059  C$mg_leaves_init.c$53$3_2$173      mg_leaves_init
     0002405C  A$lcc761669$179                    mg_leaves_init
     0002405E  A$lcc761669$180                    mg_leaves_init
     0002405F  A$lcc761669$181                    mg_leaves_init
     00024061  A$lcc761669$185                    mg_leaves_init
     00024061  C$mg_leaves_init.c$55$3_2$173      mg_leaves_init
     00024064  A$lcc761669$186                    mg_leaves_init
     00024065  A$lcc761669$187                    mg_leaves_init
     00024067  A$lcc761669$188                    mg_leaves_init
     00024068  A$lcc761669$189                    mg_leaves_init
     00024069  A$lcc761669$190                    mg_leaves_init
     0002406A  A$lcc761669$191                    mg_leaves_init
     0002406C  A$lcc761669$192                    mg_leaves_init
     0002406D  A$lcc761669$193                    mg_leaves_init
     0002406E  A$lcc761669$194                    mg_leaves_init
     0002406F  A$lcc761669$195                    mg_leaves_init
     00024071  A$lcc761669$196                    mg_leaves_init
     00024072  A$lcc761669$197                    mg_leaves_init
     00024073  A$lcc761669$198                    mg_leaves_init
     00024074  A$lcc761669$199                    mg_leaves_init
     00024075  A$lcc761669$200                    mg_leaves_init
     00024076  A$lcc761669$201                    mg_leaves_init
     00024077  A$lcc761669$202                    mg_leaves_init
     00024078  A$lcc761669$203                    mg_leaves_init
     00024079  A$lcc761669$204                    mg_leaves_init
     0002407A  A$lcc761669$205                    mg_leaves_init
     0002407C  A$lcc761669$206                    mg_leaves_init
     0002407D  A$lcc761669$207                    mg_leaves_init
     0002407E  A$lcc761669$208                    mg_leaves_init
     0002407F  A$lcc761669$209                    mg_leaves_init
     00024080  A$lcc761669$210                    mg_leaves_init
     00024081  A$lcc761669$214                    mg_leaves_init
     00024081  C$mg_leaves_init.c$57$3_2$173      mg_leaves_init
ASxxxx Linker V03.00/V05.40 + sdld,  page 138.
Hexadecimal  [32-Bits]

Area                                    Addr        Size        Decimal Bytes (Attributes)
--------------------------------        ----        ----        ------- ----- ------------
_CODE_2                             00024000    0000035D =         861. bytes (REL,CON)

      Value  Global                              Global Defined In Module
      -----  --------------------------------   ------------------------
     00024084  A$lcc761669$215                    mg_leaves_init
     00024086  A$lcc761669$216                    mg_leaves_init
     00024087  A$lcc761669$217                    mg_leaves_init
     00024089  A$lcc761669$221                    mg_leaves_init
     00024089  C$mg_leaves_init.c$58$3_2$173      mg_leaves_init
     0002408C  A$lcc761669$222                    mg_leaves_init
     0002408E  A$lcc761669$223                    mg_leaves_init
     0002408F  A$lcc761669$224                    mg_leaves_init
     00024091  A$lcc761669$228                    mg_leaves_init
     00024091  C$mg_leaves_init.c$49$2_2$172      mg_leaves_init
     00024092  A$lcc761669$229                    mg_leaves_init
     00024094  A$lcc761669$234                    mg_leaves_init
     00024096  A$lcc761669$239                    mg_leaves_init
     00024096  C$mg_leaves_init.c$60$2_2$169      mg_leaves_init
     00024096  XG$Mg_Leaves_Init$0$0              mg_leaves_init
     00024097  A$lcc761671$53                     mg_leaves_player_init
     00024097  C$mg_leaves_player_init.c$11$0_0   mg_leaves_player_init
     00024097  G$Mg_Leaves_Player_Init$0$0        mg_leaves_player_init
     00024097  _Mg_Leaves_Player_Init             mg_leaves_player_init
     00024099  A$lcc761671$57                     mg_leaves_player_init
     00024099  C$mg_leaves_player_init.c$13$1_0   mg_leaves_player_init
     0002409C  A$lcc761671$58                     mg_leaves_player_init
     0002409D  A$lcc761671$59                     mg_leaves_player_init
     0002409F  A$lcc761671$60                     mg_leaves_player_init
     000240A2  A$lcc761671$61                     mg_leaves_player_init
     000240A3  A$lcc761671$62                     mg_leaves_player_init
     000240A5  A$lcc761671$66                     mg_leaves_player_init
     000240A5  C$mg_leaves_player_init.c$14$1_0   mg_leaves_player_init
     000240A8  A$lcc761671$67                     mg_leaves_player_init
     000240AB  A$lcc761671$68                     mg_leaves_player_init
     000240AC  A$lcc761671$69                     mg_leaves_player_init
     000240AE  A$lcc761671$70                     mg_leaves_player_init
     000240AF  A$lcc761671$71                     mg_leaves_player_init
     000240B1  A$lcc761671$75                     mg_leaves_player_init
     000240B1  C$mg_leaves_player_init.c$15$1_0   mg_leaves_player_init
     000240B4  A$lcc761671$76                     mg_leaves_player_init
     000240B7  A$lcc761671$77                     mg_leaves_player_init
     000240B8  A$lcc761671$78                     mg_leaves_player_init
     000240B9  A$lcc761671$79                     mg_leaves_player_init
     000240BA  A$lcc761671$80                     mg_leaves_player_init
     000240BB  A$lcc761671$81                     mg_leaves_player_init
     000240BC  A$lcc761671$82                     mg_leaves_player_init
     000240BE  A$lcc761671$83                     mg_leaves_player_init
     000240BF  A$lcc761671$84                     mg_leaves_player_init
     000240C1  A$lcc761671$88                     mg_leaves_player_init
     000240C1  C$mg_leaves_player_init.c$17$1_0   mg_leaves_player_init
     000240C4  A$lcc761671$89                     mg_leaves_player_init
     000240C7  A$lcc761671$90                     mg_leaves_player_init
     000240C8  A$lcc761671$91                     mg_leaves_player_init
     000240C9  A$lcc761671$92                     mg_leaves_player_init
     000240CB  A$lcc761671$93                     mg_leaves_player_init
ASxxxx Linker V03.00/V05.40 + sdld,  page 139.
Hexadecimal  [32-Bits]

Area                                    Addr        Size        Decimal Bytes (Attributes)
--------------------------------        ----        ----        ------- ----- ------------
_CODE_2                             00024000    0000035D =         861. bytes (REL,CON)

      Value  Global                              Global Defined In Module
      -----  --------------------------------   ------------------------
     000240CC  A$lcc761671$94                     mg_leaves_player_init
     000240CF  A$lcc761671$95                     mg_leaves_player_init
     000240D1  A$lcc761671$96                     mg_leaves_player_init
     000240D2  A$lcc761671$97                     mg_leaves_player_init
     000240D4  A$lcc761671$98                     mg_leaves_player_init
     000240D6  A$lcc761671$99                     mg_leaves_player_init
     000240D7  A$lcc761671$100                    mg_leaves_player_init
     000240D8  A$lcc761671$101                    mg_leaves_player_init
     000240D9  A$lcc761671$102                    mg_leaves_player_init
     000240DA  A$lcc761671$103                    mg_leaves_player_init
     000240DB  A$lcc761671$104                    mg_leaves_player_init
     000240DC  A$lcc761671$108                    mg_leaves_player_init
     000240DC  C$mg_leaves_player_init.c$18$1_0   mg_leaves_player_init
     000240DF  A$lcc761671$109                    mg_leaves_player_init
     000240E0  A$lcc761671$110                    mg_leaves_player_init
     000240E1  A$lcc761671$111                    mg_leaves_player_init
     000240E3  A$lcc761671$112                    mg_leaves_player_init
     000240E4  A$lcc761671$113                    mg_leaves_player_init
     000240E6  A$lcc761671$114                    mg_leaves_player_init
     000240E8  A$lcc761671$115                    mg_leaves_player_init
     000240E9  A$lcc761671$116                    mg_leaves_player_init
     000240EA  A$lcc761671$117                    mg_leaves_player_init
     000240EC  A$lcc761671$118                    mg_leaves_player_init
     000240ED  A$lcc761671$119                    mg_leaves_player_init
     000240EE  A$lcc761671$120                    mg_leaves_player_init
     000240EF  A$lcc761671$121                    mg_leaves_player_init
     000240F0  A$lcc761671$122                    mg_leaves_player_init
     000240F1  A$lcc761671$123                    mg_leaves_player_init
     000240F2  A$lcc761671$124                    mg_leaves_player_init
     000240F3  A$lcc761671$128                    mg_leaves_player_init
     000240F3  C$mg_leaves_player_init.c$20$1_0   mg_leaves_player_init
     000240F6  A$lcc761671$129                    mg_leaves_player_init
     000240F7  A$lcc761671$130                    mg_leaves_player_init
     000240F9  A$lcc761671$131                    mg_leaves_player_init
     000240FC  A$lcc761671$132                    mg_leaves_player_init
     000240FD  A$lcc761671$133                    mg_leaves_player_init
     000240FF  A$lcc761671$137                    mg_leaves_player_init
     000240FF  C$mg_leaves_player_init.c$21$1_0   mg_leaves_player_init
     00024102  A$lcc761671$138                    mg_leaves_player_init
     00024105  A$lcc761671$139                    mg_leaves_player_init
     00024106  A$lcc761671$140                    mg_leaves_player_init
     00024108  A$lcc761671$141                    mg_leaves_player_init
     00024109  A$lcc761671$142                    mg_leaves_player_init
     0002410B  A$lcc761671$146                    mg_leaves_player_init
     0002410B  C$mg_leaves_player_init.c$22$1_0   mg_leaves_player_init
     0002410E  A$lcc761671$147                    mg_leaves_player_init
     00024111  A$lcc761671$148                    mg_leaves_player_init
     00024112  A$lcc761671$149                    mg_leaves_player_init
     00024114  A$lcc761671$150                    mg_leaves_player_init
     00024115  A$lcc761671$151                    mg_leaves_player_init
     00024117  A$lcc761671$155                    mg_leaves_player_init
ASxxxx Linker V03.00/V05.40 + sdld,  page 140.
Hexadecimal  [32-Bits]

Area                                    Addr        Size        Decimal Bytes (Attributes)
--------------------------------        ----        ----        ------- ----- ------------
_CODE_2                             00024000    0000035D =         861. bytes (REL,CON)

      Value  Global                              Global Defined In Module
      -----  --------------------------------   ------------------------
     00024117  C$mg_leaves_player_init.c$25$2_0   mg_leaves_player_init
     00024119  A$lcc761671$156                    mg_leaves_player_init
     0002411B  A$lcc761671$157                    mg_leaves_player_init
     0002411C  A$lcc761671$158                    mg_leaves_player_init
     0002411E  A$lcc761671$159                    mg_leaves_player_init
     0002411F  A$lcc761671$160                    mg_leaves_player_init
     00024121  A$lcc761671$161                    mg_leaves_player_init
     00024122  A$lcc761671$162                    mg_leaves_player_init
     00024124  A$lcc761671$166                    mg_leaves_player_init
     00024124  C$mg_leaves_player_init.c$29$1_1   mg_leaves_player_init
     00024127  A$lcc761671$167                    mg_leaves_player_init
     00024128  A$lcc761671$168                    mg_leaves_player_init
     0002412A  A$lcc761671$169                    mg_leaves_player_init
     0002412B  A$lcc761671$170                    mg_leaves_player_init
     0002412C  A$lcc761671$171                    mg_leaves_player_init
     0002412D  A$lcc761671$172                    mg_leaves_player_init
     0002412E  A$lcc761671$173                    mg_leaves_player_init
     0002412F  A$lcc761671$174                    mg_leaves_player_init
     00024130  A$lcc761671$175                    mg_leaves_player_init
     00024131  A$lcc761671$176                    mg_leaves_player_init
     00024132  A$lcc761671$177                    mg_leaves_player_init
     00024133  A$lcc761671$178                    mg_leaves_player_init
     00024136  A$lcc761671$179                    mg_leaves_player_init
     00024137  A$lcc761671$180                    mg_leaves_player_init
     00024138  A$lcc761671$181                    mg_leaves_player_init
     00024139  A$lcc761671$182                    mg_leaves_player_init
     0002413C  A$lcc761671$183                    mg_leaves_player_init
     0002413D  A$lcc761671$184                    mg_leaves_player_init
     0002413F  A$lcc761671$185                    mg_leaves_player_init
     00024140  A$lcc761671$186                    mg_leaves_player_init
     00024141  A$lcc761671$187                    mg_leaves_player_init
     00024144  A$lcc761671$188                    mg_leaves_player_init
     00024145  A$lcc761671$189                    mg_leaves_player_init
     00024146  A$lcc761671$190                    mg_leaves_player_init
     00024147  A$lcc761671$191                    mg_leaves_player_init
     00024148  A$lcc761671$192                    mg_leaves_player_init
     00024149  A$lcc761671$193                    mg_leaves_player_init
     0002414A  A$lcc761671$194                    mg_leaves_player_init
     0002414D  A$lcc761671$195                    mg_leaves_player_init
     00024150  A$lcc761671$199                    mg_leaves_player_init
     00024152  A$lcc761671$204                    mg_leaves_player_init
     00024152  C$mg_leaves_player_init.c$30$1_1   mg_leaves_player_init
     00024152  XG$Mg_Leaves_Player_Init$0$0       mg_leaves_player_init
     00024153  A$lcc761672$58                     mg_leaves_update
     00024153  C$mg_leaves_update.c$14$0_0$169    mg_leaves_update
     00024153  G$check_leaf_status$0$0            mg_leaves_update
     00024153  _check_leaf_status                 mg_leaves_update
     00024155  A$lcc761672$62                     mg_leaves_update
     00024155  C$mg_leaves_update.c$16$4_0$171    mg_leaves_update
     00024157  A$lcc761672$63                     mg_leaves_update
     00024159  A$lcc761672$65                     mg_leaves_update
ASxxxx Linker V03.00/V05.40 + sdld,  page 141.
Hexadecimal  [32-Bits]

Area                                    Addr        Size        Decimal Bytes (Attributes)
--------------------------------        ----        ----        ------- ----- ------------
_CODE_2                             00024000    0000035D =         861. bytes (REL,CON)

      Value  Global                              Global Defined In Module
      -----  --------------------------------   ------------------------
     0002415C  A$lcc761672$66                     mg_leaves_update
     0002415E  A$lcc761672$67                     mg_leaves_update
     0002415F  A$lcc761672$68                     mg_leaves_update
     00024162  A$lcc761672$72                     mg_leaves_update
     00024162  C$mg_leaves_update.c$18$4_0$171    mg_leaves_update
     00024165  A$lcc761672$73                     mg_leaves_update
     00024166  A$lcc761672$74                     mg_leaves_update
     00024168  A$lcc761672$75                     mg_leaves_update
     00024169  A$lcc761672$76                     mg_leaves_update
     0002416A  A$lcc761672$77                     mg_leaves_update
     0002416B  A$lcc761672$78                     mg_leaves_update
     0002416D  A$lcc761672$79                     mg_leaves_update
     0002416E  A$lcc761672$80                     mg_leaves_update
     0002416F  A$lcc761672$81                     mg_leaves_update
     00024170  A$lcc761672$82                     mg_leaves_update
     00024172  A$lcc761672$83                     mg_leaves_update
     00024173  A$lcc761672$84                     mg_leaves_update
     00024174  A$lcc761672$85                     mg_leaves_update
     00024175  A$lcc761672$86                     mg_leaves_update
     00024176  A$lcc761672$87                     mg_leaves_update
     00024177  A$lcc761672$88                     mg_leaves_update
     00024178  A$lcc761672$89                     mg_leaves_update
     0002417A  A$lcc761672$90                     mg_leaves_update
     0002417B  A$lcc761672$91                     mg_leaves_update
     0002417E  A$lcc761672$92                     mg_leaves_update
     0002417F  A$lcc761672$93                     mg_leaves_update
     00024181  A$lcc761672$94                     mg_leaves_update
     00024182  A$lcc761672$95                     mg_leaves_update
     00024183  A$lcc761672$96                     mg_leaves_update
     00024184  A$lcc761672$97                     mg_leaves_update
     00024185  A$lcc761672$98                     mg_leaves_update
     00024186  A$lcc761672$99                     mg_leaves_update
     00024188  A$lcc761672$103                    mg_leaves_update
     00024188  C$mg_leaves_update.c$20$6_0$173    mg_leaves_update
     0002418B  A$lcc761672$104                    mg_leaves_update
     0002418C  A$lcc761672$105                    mg_leaves_update
     0002418D  A$lcc761672$106                    mg_leaves_update
     00024190  A$lcc761672$107                    mg_leaves_update
     00024193  A$lcc761672$108                    mg_leaves_update
     00024194  A$lcc761672$109                    mg_leaves_update
     00024195  A$lcc761672$110                    mg_leaves_update
     00024198  A$lcc761672$114                    mg_leaves_update
     00024198  C$mg_leaves_update.c$22$7_0$174    mg_leaves_update
     0002419A  A$lcc761672$115                    mg_leaves_update
     0002419B  A$lcc761672$116                    mg_leaves_update
     0002419C  A$lcc761672$117                    mg_leaves_update
     0002419D  A$lcc761672$118                    mg_leaves_update
     0002419F  A$lcc761672$122                    mg_leaves_update
     0002419F  C$mg_leaves_update.c$23$7_0$174    mg_leaves_update
     000241A2  A$lcc761672$123                    mg_leaves_update
     000241A4  A$lcc761672$124                    mg_leaves_update
ASxxxx Linker V03.00/V05.40 + sdld,  page 142.
Hexadecimal  [32-Bits]

Area                                    Addr        Size        Decimal Bytes (Attributes)
--------------------------------        ----        ----        ------- ----- ------------
_CODE_2                             00024000    0000035D =         861. bytes (REL,CON)

      Value  Global                              Global Defined In Module
      -----  --------------------------------   ------------------------
     000241A5  A$lcc761672$125                    mg_leaves_update
     000241A7  A$lcc761672$126                    mg_leaves_update
     000241A8  A$lcc761672$127                    mg_leaves_update
     000241A9  A$lcc761672$128                    mg_leaves_update
     000241AA  A$lcc761672$129                    mg_leaves_update
     000241AB  A$lcc761672$130                    mg_leaves_update
     000241AC  A$lcc761672$134                    mg_leaves_update
     000241AC  C$mg_leaves_update.c$24$7_0$174    mg_leaves_update
     000241AF  A$lcc761672$135                    mg_leaves_update
     000241B1  A$lcc761672$136                    mg_leaves_update
     000241B2  A$lcc761672$137                    mg_leaves_update
     000241B4  A$lcc761672$138                    mg_leaves_update
     000241B5  A$lcc761672$139                    mg_leaves_update
     000241B6  A$lcc761672$140                    mg_leaves_update
     000241B7  A$lcc761672$141                    mg_leaves_update
     000241B9  A$lcc761672$145                    mg_leaves_update
     000241B9  C$mg_leaves_update.c$26$7_0$174    mg_leaves_update
     000241BC  A$lcc761672$153                    mg_leaves_update
     000241BC  C$mg_leaves_update.c$29$4_0$171    mg_leaves_update
     000241BC  C$mg_leaves_update.c$32$4_0$175    mg_leaves_update
     000241BF  A$lcc761672$154                    mg_leaves_update
     000241C1  A$lcc761672$155                    mg_leaves_update
     000241C2  A$lcc761672$156                    mg_leaves_update
     000241C4  A$lcc761672$157                    mg_leaves_update
     000241C5  A$lcc761672$158                    mg_leaves_update
     000241C6  A$lcc761672$159                    mg_leaves_update
     000241C7  A$lcc761672$160                    mg_leaves_update
     000241C8  A$lcc761672$161                    mg_leaves_update
     000241C9  A$lcc761672$162                    mg_leaves_update
     000241CA  A$lcc761672$163                    mg_leaves_update
     000241CB  A$lcc761672$164                    mg_leaves_update
     000241CC  A$lcc761672$165                    mg_leaves_update
     000241CE  A$lcc761672$169                    mg_leaves_update
     000241CE  C$mg_leaves_update.c$33$4_0$175    mg_leaves_update
     000241D1  A$lcc761672$170                    mg_leaves_update
     000241D3  A$lcc761672$171                    mg_leaves_update
     000241D4  A$lcc761672$172                    mg_leaves_update
     000241D6  A$lcc761672$173                    mg_leaves_update
     000241D7  A$lcc761672$174                    mg_leaves_update
     000241D8  A$lcc761672$175                    mg_leaves_update
     000241D9  A$lcc761672$176                    mg_leaves_update
     000241DB  A$lcc761672$177                    mg_leaves_update
     000241DC  A$lcc761672$178                    mg_leaves_update
     000241DD  A$lcc761672$179                    mg_leaves_update
     000241DE  A$lcc761672$180                    mg_leaves_update
     000241E0  A$lcc761672$181                    mg_leaves_update
     000241E1  A$lcc761672$182                    mg_leaves_update
     000241E2  A$lcc761672$183                    mg_leaves_update
     000241E3  A$lcc761672$184                    mg_leaves_update
     000241E4  A$lcc761672$185                    mg_leaves_update
     000241E5  A$lcc761672$186                    mg_leaves_update
ASxxxx Linker V03.00/V05.40 + sdld,  page 143.
Hexadecimal  [32-Bits]

Area                                    Addr        Size        Decimal Bytes (Attributes)
--------------------------------        ----        ----        ------- ----- ------------
_CODE_2                             00024000    0000035D =         861. bytes (REL,CON)

      Value  Global                              Global Defined In Module
      -----  --------------------------------   ------------------------
     000241E6  A$lcc761672$187                    mg_leaves_update
     000241E7  A$lcc761672$188                    mg_leaves_update
     000241E8  A$lcc761672$189                    mg_leaves_update
     000241E9  A$lcc761672$190                    mg_leaves_update
     000241EA  A$lcc761672$191                    mg_leaves_update
     000241EB  A$lcc761672$192                    mg_leaves_update
     000241EC  A$lcc761672$197                    mg_leaves_update
     000241EC  C$mg_leaves_update.c$35$4_0$176    mg_leaves_update
     000241EF  A$lcc761672$198                    mg_leaves_update
     000241F1  A$lcc761672$199                    mg_leaves_update
     000241F2  A$lcc761672$200                    mg_leaves_update
     000241F4  A$lcc761672$201                    mg_leaves_update
     000241F5  A$lcc761672$202                    mg_leaves_update
     000241F6  A$lcc761672$203                    mg_leaves_update
     000241F7  A$lcc761672$204                    mg_leaves_update
     000241F8  A$lcc761672$205                    mg_leaves_update
     000241FA  A$lcc761672$206                    mg_leaves_update
     000241FC  A$lcc761672$207                    mg_leaves_update
     000241FE  A$lcc761672$208                    mg_leaves_update
     000241FF  A$lcc761672$209                    mg_leaves_update
     00024200  A$lcc761672$210                    mg_leaves_update
     00024201  A$lcc761672$211                    mg_leaves_update
     00024202  A$lcc761672$212                    mg_leaves_update
     00024204  A$lcc761672$216                    mg_leaves_update
     00024204  C$mg_leaves_update.c$36$4_0$176    mg_leaves_update
     00024205  A$lcc761672$217                    mg_leaves_update
     00024207  A$lcc761672$218                    mg_leaves_update
     00024208  A$lcc761672$223                    mg_leaves_update
     00024208  C$mg_leaves_update.c$38$4_0$177    mg_leaves_update
     00024209  A$lcc761672$224                    mg_leaves_update
     0002420A  A$lcc761672$225                    mg_leaves_update
     0002420B  A$lcc761672$226                    mg_leaves_update
     0002420D  A$lcc761672$227                    mg_leaves_update
     0002420F  A$lcc761672$228                    mg_leaves_update
     00024212  A$lcc761672$229                    mg_leaves_update
     00024213  A$lcc761672$230                    mg_leaves_update
     00024215  A$lcc761672$234                    mg_leaves_update
     00024215  C$mg_leaves_update.c$39$4_0$177    mg_leaves_update
     00024218  A$lcc761672$235                    mg_leaves_update
     0002421A  A$lcc761672$236                    mg_leaves_update
     0002421B  A$lcc761672$237                    mg_leaves_update
     0002421D  A$lcc761672$238                    mg_leaves_update
     0002421E  A$lcc761672$239                    mg_leaves_update
     0002421F  A$lcc761672$240                    mg_leaves_update
     00024220  A$lcc761672$241                    mg_leaves_update
     00024223  A$lcc761672$242                    mg_leaves_update
     00024225  A$lcc761672$243                    mg_leaves_update
     00024226  A$lcc761672$244                    mg_leaves_update
     00024228  A$lcc761672$245                    mg_leaves_update
     0002422A  A$lcc761672$246                    mg_leaves_update
     0002422B  A$lcc761672$247                    mg_leaves_update
ASxxxx Linker V03.00/V05.40 + sdld,  page 144.
Hexadecimal  [32-Bits]

Area                                    Addr        Size        Decimal Bytes (Attributes)
--------------------------------        ----        ----        ------- ----- ------------
_CODE_2                             00024000    0000035D =         861. bytes (REL,CON)

      Value  Global                              Global Defined In Module
      -----  --------------------------------   ------------------------
     0002422C  A$lcc761672$248                    mg_leaves_update
     0002422E  A$lcc761672$249                    mg_leaves_update
     0002422F  A$lcc761672$254                    mg_leaves_update
     0002422F  C$mg_leaves_update.c$41$4_0$178    mg_leaves_update
     00024230  A$lcc761672$255                    mg_leaves_update
     00024231  A$lcc761672$256                    mg_leaves_update
     00024232  A$lcc761672$257                    mg_leaves_update
     00024234  A$lcc761672$258                    mg_leaves_update
     00024236  A$lcc761672$259                    mg_leaves_update
     00024239  A$lcc761672$260                    mg_leaves_update
     0002423A  A$lcc761672$261                    mg_leaves_update
     0002423C  A$lcc761672$265                    mg_leaves_update
     0002423C  C$mg_leaves_update.c$42$4_0$178    mg_leaves_update
     0002423F  A$lcc761672$266                    mg_leaves_update
     00024241  A$lcc761672$267                    mg_leaves_update
     00024242  A$lcc761672$268                    mg_leaves_update
     00024244  A$lcc761672$269                    mg_leaves_update
     00024245  A$lcc761672$270                    mg_leaves_update
     00024246  A$lcc761672$271                    mg_leaves_update
     00024247  A$lcc761672$272                    mg_leaves_update
     0002424A  A$lcc761672$273                    mg_leaves_update
     0002424C  A$lcc761672$274                    mg_leaves_update
     0002424D  A$lcc761672$275                    mg_leaves_update
     0002424F  A$lcc761672$276                    mg_leaves_update
     00024251  A$lcc761672$277                    mg_leaves_update
     00024252  A$lcc761672$278                    mg_leaves_update
     00024253  A$lcc761672$279                    mg_leaves_update
     00024255  A$lcc761672$280                    mg_leaves_update
     00024256  A$lcc761672$285                    mg_leaves_update
     00024256  C$mg_leaves_update.c$44$3_0$170    mg_leaves_update
     00024257  A$lcc761672$286                    mg_leaves_update
     00024258  A$lcc761672$287                    mg_leaves_update
     0002425B  A$lcc761672$288                    mg_leaves_update
     0002425D  A$lcc761672$289                    mg_leaves_update
     0002425E  A$lcc761672$290                    mg_leaves_update
     00024260  A$lcc761672$291                    mg_leaves_update
     00024261  A$lcc761672$292                    mg_leaves_update
     00024262  A$lcc761672$293                    mg_leaves_update
     00024263  A$lcc761672$294                    mg_leaves_update
     00024264  A$lcc761672$295                    mg_leaves_update
     00024265  A$lcc761672$296                    mg_leaves_update
     00024268  A$lcc761672$297                    mg_leaves_update
     0002426A  A$lcc761672$298                    mg_leaves_update
     0002426B  A$lcc761672$299                    mg_leaves_update
     0002426D  A$lcc761672$300                    mg_leaves_update
     0002426E  A$lcc761672$301                    mg_leaves_update
     0002426F  A$lcc761672$302                    mg_leaves_update
     00024270  A$lcc761672$303                    mg_leaves_update
     00024271  A$lcc761672$304                    mg_leaves_update
     00024273  A$lcc761672$305                    mg_leaves_update
     00024274  A$lcc761672$306                    mg_leaves_update
ASxxxx Linker V03.00/V05.40 + sdld,  page 145.
Hexadecimal  [32-Bits]

Area                                    Addr        Size        Decimal Bytes (Attributes)
--------------------------------        ----        ----        ------- ----- ------------
_CODE_2                             00024000    0000035D =         861. bytes (REL,CON)

      Value  Global                              Global Defined In Module
      -----  --------------------------------   ------------------------
     00024275  A$lcc761672$307                    mg_leaves_update
     00024277  A$lcc761672$308                    mg_leaves_update
     00024278  A$lcc761672$309                    mg_leaves_update
     00024279  A$lcc761672$310                    mg_leaves_update
     0002427A  A$lcc761672$311                    mg_leaves_update
     0002427D  A$lcc761672$316                    mg_leaves_update
     0002427D  C$mg_leaves_update.c$16$2_0$169    mg_leaves_update
     0002427F  A$lcc761672$317                    mg_leaves_update
     00024280  A$lcc761672$318                    mg_leaves_update
     00024283  A$lcc761672$323                    mg_leaves_update
     00024285  A$lcc761672$328                    mg_leaves_update
     00024285  C$mg_leaves_update.c$46$2_0$169    mg_leaves_update
     00024285  XG$check_leaf_status$0$0           mg_leaves_update
     00024286  A$lcc761672$338                    mg_leaves_update
     00024286  C$mg_leaves_update.c$48$2_0$180    mg_leaves_update
     00024286  G$check_leaf_collision$0$0         mg_leaves_update
     00024286  _check_leaf_collision              mg_leaves_update
     00024288  A$lcc761672$342                    mg_leaves_update
     00024288  C$mg_leaves_update.c$50$1_0$179    mg_leaves_update
     0002428B  A$lcc761672$343                    mg_leaves_update
     0002428E  A$lcc761672$344                    mg_leaves_update
     0002428F  A$lcc761672$345                    mg_leaves_update
     00024291  A$lcc761672$346                    mg_leaves_update
     00024292  A$lcc761672$347                    mg_leaves_update
     00024293  A$lcc761672$348                    mg_leaves_update
     00024295  A$lcc761672$349                    mg_leaves_update
     00024296  A$lcc761672$353                    mg_leaves_update
     00024296  C$mg_leaves_update.c$52$3_1$183    mg_leaves_update
     00024298  A$lcc761672$354                    mg_leaves_update
     0002429A  A$lcc761672$356                    mg_leaves_update
     0002429C  A$lcc761672$357                    mg_leaves_update
     0002429D  A$lcc761672$358                    mg_leaves_update
     0002429F  A$lcc761672$359                    mg_leaves_update
     000242A2  A$lcc761672$363                    mg_leaves_update
     000242A2  C$mg_leaves_update.c$54$2_0$180    mg_leaves_update
     000242A5  A$lcc761672$364                    mg_leaves_update
     000242A6  A$lcc761672$365                    mg_leaves_update
     000242A8  A$lcc761672$366                    mg_leaves_update
     000242A9  A$lcc761672$367                    mg_leaves_update
     000242AA  A$lcc761672$368                    mg_leaves_update
     000242AB  A$lcc761672$369                    mg_leaves_update
     000242AD  A$lcc761672$370                    mg_leaves_update
     000242AE  A$lcc761672$371                    mg_leaves_update
     000242AF  A$lcc761672$372                    mg_leaves_update
     000242B0  A$lcc761672$373                    mg_leaves_update
     000242B2  A$lcc761672$374                    mg_leaves_update
     000242B3  A$lcc761672$375                    mg_leaves_update
     000242B4  A$lcc761672$376                    mg_leaves_update
     000242B5  A$lcc761672$377                    mg_leaves_update
     000242B6  A$lcc761672$378                    mg_leaves_update
     000242B7  A$lcc761672$379                    mg_leaves_update
ASxxxx Linker V03.00/V05.40 + sdld,  page 146.
Hexadecimal  [32-Bits]

Area                                    Addr        Size        Decimal Bytes (Attributes)
--------------------------------        ----        ----        ------- ----- ------------
_CODE_2                             00024000    0000035D =         861. bytes (REL,CON)

      Value  Global                              Global Defined In Module
      -----  --------------------------------   ------------------------
     000242B9  A$lcc761672$380                    mg_leaves_update
     000242BA  A$lcc761672$381                    mg_leaves_update
     000242BB  A$lcc761672$382                    mg_leaves_update
     000242BD  A$lcc761672$386                    mg_leaves_update
     000242BD  C$mg_leaves_update.c$57$3_1$183    mg_leaves_update
     000242BE  A$lcc761672$387                    mg_leaves_update
     000242C1  A$lcc761672$388                    mg_leaves_update
     000242C2  A$lcc761672$389                    mg_leaves_update
     000242C4  A$lcc761672$390                    mg_leaves_update
     000242C5  A$lcc761672$391                    mg_leaves_update
     000242C6  A$lcc761672$392                    mg_leaves_update
     000242C7  A$lcc761672$393                    mg_leaves_update
     000242C8  A$lcc761672$394                    mg_leaves_update
     000242CA  A$lcc761672$395                    mg_leaves_update
     000242CB  A$lcc761672$399                    mg_leaves_update
     000242CB  C$mg_leaves_update.c$59$4_1$184    mg_leaves_update
     000242CC  A$lcc761672$400                    mg_leaves_update
     000242CD  A$lcc761672$401                    mg_leaves_update
     000242CE  A$lcc761672$402                    mg_leaves_update
     000242CF  A$lcc761672$403                    mg_leaves_update
     000242D0  A$lcc761672$404                    mg_leaves_update
     000242D1  A$lcc761672$405                    mg_leaves_update
     000242D2  A$lcc761672$406                    mg_leaves_update
     000242D5  A$lcc761672$407                    mg_leaves_update
     000242D6  A$lcc761672$408                    mg_leaves_update
     000242D7  A$lcc761672$409                    mg_leaves_update
     000242D8  A$lcc761672$410                    mg_leaves_update
     000242DA  A$lcc761672$411                    mg_leaves_update
     000242DB  A$lcc761672$412                    mg_leaves_update
     000242DC  A$lcc761672$413                    mg_leaves_update
     000242DD  A$lcc761672$414                    mg_leaves_update
     000242DF  A$lcc761672$415                    mg_leaves_update
     000242E0  A$lcc761672$416                    mg_leaves_update
     000242E2  A$lcc761672$417                    mg_leaves_update
     000242E3  A$lcc761672$418                    mg_leaves_update
     000242E5  A$lcc761672$419                    mg_leaves_update
     000242E7  A$lcc761672$420                    mg_leaves_update
     000242E8  A$lcc761672$421                    mg_leaves_update
     000242E9  A$lcc761672$422                    mg_leaves_update
     000242EA  A$lcc761672$423                    mg_leaves_update
     000242EB  A$lcc761672$424                    mg_leaves_update
     000242EC  A$lcc761672$425                    mg_leaves_update
     000242EE  A$lcc761672$426                    mg_leaves_update
     000242F1  A$lcc761672$427                    mg_leaves_update
     000242F2  A$lcc761672$428                    mg_leaves_update
     000242F3  A$lcc761672$429                    mg_leaves_update
     000242F4  A$lcc761672$430                    mg_leaves_update
     000242F6  A$lcc761672$431                    mg_leaves_update
     000242F7  A$lcc761672$432                    mg_leaves_update
     000242F8  A$lcc761672$433                    mg_leaves_update
     000242F9  A$lcc761672$434                    mg_leaves_update
ASxxxx Linker V03.00/V05.40 + sdld,  page 147.
Hexadecimal  [32-Bits]

Area                                    Addr        Size        Decimal Bytes (Attributes)
--------------------------------        ----        ----        ------- ----- ------------
_CODE_2                             00024000    0000035D =         861. bytes (REL,CON)

      Value  Global                              Global Defined In Module
      -----  --------------------------------   ------------------------
     000242FB  A$lcc761672$435                    mg_leaves_update
     000242FC  A$lcc761672$436                    mg_leaves_update
     000242FE  A$lcc761672$437                    mg_leaves_update
     000242FF  A$lcc761672$438                    mg_leaves_update
     00024300  A$lcc761672$439                    mg_leaves_update
     00024302  A$lcc761672$440                    mg_leaves_update
     00024303  A$lcc761672$441                    mg_leaves_update
     00024304  A$lcc761672$442                    mg_leaves_update
     00024305  A$lcc761672$443                    mg_leaves_update
     00024306  A$lcc761672$444                    mg_leaves_update
     00024307  A$lcc761672$445                    mg_leaves_update
     00024308  A$lcc761672$446                    mg_leaves_update
     0002430A  A$lcc761672$450                    mg_leaves_update
     0002430A  C$mg_leaves_update.c$61$6_1$186    mg_leaves_update
     0002430C  A$lcc761672$451                    mg_leaves_update
     0002430D  A$lcc761672$452                    mg_leaves_update
     0002430F  A$lcc761672$453                    mg_leaves_update
     00024310  A$lcc761672$454                    mg_leaves_update
     00024312  A$lcc761672$458                    mg_leaves_update
     00024312  C$mg_leaves_update.c$62$6_1$186    mg_leaves_update
     00024313  A$lcc761672$459                    mg_leaves_update
     00024314  A$lcc761672$460                    mg_leaves_update
     00024315  A$lcc761672$461                    mg_leaves_update
     00024316  A$lcc761672$462                    mg_leaves_update
     00024318  A$lcc761672$467                    mg_leaves_update
     00024318  C$mg_leaves_update.c$64$6_1$187    mg_leaves_update
     0002431A  A$lcc761672$468                    mg_leaves_update
     0002431B  A$lcc761672$469                    mg_leaves_update
     0002431D  A$lcc761672$470                    mg_leaves_update
     0002431E  A$lcc761672$471                    mg_leaves_update
     00024320  A$lcc761672$475                    mg_leaves_update
     00024320  C$mg_leaves_update.c$65$6_1$187    mg_leaves_update
     00024321  A$lcc761672$476                    mg_leaves_update
     00024322  A$lcc761672$477                    mg_leaves_update
     00024323  A$lcc761672$478                    mg_leaves_update
     00024324  A$lcc761672$479                    mg_leaves_update
     00024326  A$lcc761672$480                    mg_leaves_update
     00024328  A$lcc761672$485                    mg_leaves_update
     00024328  C$mg_leaves_update.c$69$5_1$188    mg_leaves_update
     0002432A  A$lcc761672$486                    mg_leaves_update
     0002432B  A$lcc761672$487                    mg_leaves_update
     0002432C  A$lcc761672$488                    mg_leaves_update
     0002432D  A$lcc761672$489                    mg_leaves_update
     0002432F  A$lcc761672$494                    mg_leaves_update
     0002432F  C$mg_leaves_update.c$52$2_0$180    mg_leaves_update
     00024331  A$lcc761672$495                    mg_leaves_update
     00024332  A$lcc761672$496                    mg_leaves_update
     00024335  A$lcc761672$501                    mg_leaves_update
     00024337  A$lcc761672$506                    mg_leaves_update
     00024337  C$mg_leaves_update.c$72$2_0$180    mg_leaves_update
     00024337  XG$check_leaf_collision$0$0        mg_leaves_update
ASxxxx Linker V03.00/V05.40 + sdld,  page 148.
Hexadecimal  [32-Bits]

Area                                    Addr        Size        Decimal Bytes (Attributes)
--------------------------------        ----        ----        ------- ----- ------------
_CODE_2                             00024000    0000035D =         861. bytes (REL,CON)

      Value  Global                              Global Defined In Module
      -----  --------------------------------   ------------------------
     00024338  A$lcc761672$519                    mg_leaves_update
     00024338  C$mg_leaves_update.c$74$2_0$190    mg_leaves_update
     00024338  C$mg_leaves_update.c$77$2_0$191    mg_leaves_update
     00024338  G$Mg_Leaves_Update$0$0             mg_leaves_update
     00024338  _Mg_Leaves_Update                  mg_leaves_update
     0002433B  A$lcc761672$520                    mg_leaves_update
     0002433D  A$lcc761672$521                    mg_leaves_update
     0002433F  A$lcc761672$525                    mg_leaves_update
     0002433F  C$mg_leaves_update.c$78$2_0$191    mg_leaves_update
     00024342  A$lcc761672$526                    mg_leaves_update
     00024344  A$lcc761672$527                    mg_leaves_update
     00024346  A$lcc761672$532                    mg_leaves_update
     00024346  C$mg_leaves_update.c$80$2_0$191    mg_leaves_update
     00024347  A$lcc761672$533                    mg_leaves_update
     0002434A  A$lcc761672$538                    mg_leaves_update
     0002434A  C$mg_leaves_update.c$82$1_0$190    mg_leaves_update
     0002434C  A$lcc761672$539                    mg_leaves_update
     0002434E  A$lcc761672$540                    mg_leaves_update
     00024351  A$lcc761672$544                    mg_leaves_update
     00024351  C$mg_leaves_update.c$84$1_0$190    mg_leaves_update
     00024354  A$lcc761672$548                    mg_leaves_update
     00024354  C$mg_leaves_update.c$85$1_0$190    mg_leaves_update
     00024357  A$lcc761672$552                    mg_leaves_update
     00024357  C$mg_leaves_update.c$87$1_0$190    mg_leaves_update
     0002435A  A$lcc761672$563                    mg_leaves_update
     0002435A  C$mg_leaves_update.c$89$1_0$190    mg_leaves_update
     0002435A  C$mg_leaves_update.c$90$1_0$190    mg_leaves_update
     0002435A  XG$Mg_Leaves_Update$0$0            mg_leaves_update
ASxxxx Linker V03.00/V05.40 + sdld,  page 149.

Files Linked                              [ module(s) ]

C:\Program Files\GBDK\lib/gb/crt0.o       [ Runtime ]
C:\Users\Bau_M\AppData\Local\Temp/lcc76160.o
                                          [ chars ]
C:\Users\Bau_M\AppData\Local\Temp/lcc76161.o
                                          [ numbers ]
C:\Users\Bau_M\AppData\Local\Temp/lcc76162.o
                                          [ gender_select_tilemap ]
C:\Users\Bau_M\AppData\Local\Temp/lcc76163.o
                                          [ gender_select_tileset ]
C:\Users\Bau_M\AppData\Local\Temp/lcc76164.o
                                          [ inventory_bkg ]
C:\Users\Bau_M\AppData\Local\Temp/lcc76165.o
                                          [ bkg_MainMenu ]
C:\Users\Bau_M\AppData\Local\Temp/lcc76166.o
                                          [ map_example ]
C:\Users\Bau_M\AppData\Local\Temp/lcc76167.o
                                          [ npc_icons ]
C:\Users\Bau_M\AppData\Local\Temp/lcc76168.o
                                          [ template_tileset ]
C:\Users\Bau_M\AppData\Local\Temp/lcc76169.o
                                          [ spr_InventoryArrow_idle ]
C:\Users\Bau_M\AppData\Local\Temp/lcc761610.o
                                          [ spr_Branch ]
C:\Users\Bau_M\AppData\Local\Temp/lcc761611.o
                                          [ broom ]
C:\Users\Bau_M\AppData\Local\Temp/lcc761612.o
                                          [ leaf ]
C:\Users\Bau_M\AppData\Local\Temp/lcc761613.o
                                          [ example_npc ]
C:\Users\Bau_M\AppData\Local\Temp/lcc761614.o
                                          [ spr_Player_down0 ]
C:\Users\Bau_M\AppData\Local\Temp/lcc761615.o
                                          [ spr_Player_down1 ]
C:\Users\Bau_M\AppData\Local\Temp/lcc761616.o
                                          [ spr_Player_down2 ]
C:\Users\Bau_M\AppData\Local\Temp/lcc761617.o
                                          [ spr_Player_up0 ]
C:\Users\Bau_M\AppData\Local\Temp/lcc761618.o
                                          [ spr_Player_up1 ]
C:\Users\Bau_M\AppData\Local\Temp/lcc761619.o
                                          [ spr_Player_up2 ]
C:\Users\Bau_M\AppData\Local\Temp/lcc761620.o
                                          [ action ]
C:\Users\Bau_M\AppData\Local\Temp/lcc761621.o
                                          [ animation ]
C:\Users\Bau_M\AppData\Local\Temp/lcc761622.o
                                          [ can_move ]
C:\Users\Bau_M\AppData\Local\Temp/lcc761623.o
                                          [ char_to_tile ]
C:\Users\Bau_M\AppData\Local\Temp/lcc761624.o
                                          [ collision ]
C:\Users\Bau_M\AppData\Local\Temp/lcc761625.o
                                          [ draw ]
C:\Users\Bau_M\AppData\Local\Temp/lcc761626.o
                                          [ entity ]
C:\Users\Bau_M\AppData\Local\Temp/lcc761627.o
                                          [ extra_actors ]
C:\Users\Bau_M\AppData\Local\Temp/lcc761628.o
                                          [ gender_selection ]
C:\Users\Bau_M\AppData\Local\Temp/lcc761629.o
                                          [ input ]
C:\Users\Bau_M\AppData\Local\Temp/lcc761630.o
                                          [ inventory ]
C:\Users\Bau_M\AppData\Local\Temp/lcc761631.o
                                          [ inventory_input ]
C:\Users\Bau_M\AppData\Local\Temp/lcc761632.o
                                          [ load ]
C:\Users\Bau_M\AppData\Local\Temp/lcc761633.o
                                          [ map_scenes ]
C:\Users\Bau_M\AppData\Local\Temp/lcc761634.o
                                          [ money ]
C:\Users\Bau_M\AppData\Local\Temp/lcc761635.o
                                          [ name ]
C:\Users\Bau_M\AppData\Local\Temp/lcc761636.o
                                          [ npcs ]
C:\Users\Bau_M\AppData\Local\Temp/lcc761637.o
                                          [ npc_lines ]
C:\Users\Bau_M\AppData\Local\Temp/lcc761638.o
                                          [ player ]
C:\Users\Bau_M\AppData\Local\Temp/lcc761639.o
                                          [ position ]
C:\Users\Bau_M\AppData\Local\Temp/lcc761640.o
                                          [ random ]
C:\Users\Bau_M\AppData\Local\Temp/lcc761641.o
                                          [ render ]
C:\Users\Bau_M\AppData\Local\Temp/lcc761642.o
                                          [ scene ]
C:\Users\Bau_M\AppData\Local\Temp/lcc761643.o
                                          [ scene_manager ]
C:\Users\Bau_M\AppData\Local\Temp/lcc761644.o
                                          [ speed ]
C:\Users\Bau_M\AppData\Local\Temp/lcc761645.o
                                          [ gender_select ]
C:\Users\Bau_M\AppData\Local\Temp/lcc761646.o
                                          [ gender_select_init ]
C:\Users\Bau_M\AppData\Local\Temp/lcc761647.o
                                          [ gender_select_update ]
C:\Users\Bau_M\AppData\Local\Temp/lcc761648.o
                                          [ inventory_scene ]
C:\Users\Bau_M\AppData\Local\Temp/lcc761649.o
                                          [ inventory_scene_init ]
C:\Users\Bau_M\AppData\Local\Temp/lcc761650.o
                                          [ inventory_scene_update ]
C:\Users\Bau_M\AppData\Local\Temp/lcc761651.o
                                          [ main_menu ]
C:\Users\Bau_M\AppData\Local\Temp/lcc761652.o
                                          [ main_menu_init ]
C:\Users\Bau_M\AppData\Local\Temp/lcc761653.o
                                          [ main_menu_init_stats ]
C:\Users\Bau_M\AppData\Local\Temp/lcc761654.o
                                          [ main_menu_input ]
C:\Users\Bau_M\AppData\Local\Temp/lcc761655.o
                                          [ main_menu_update ]
C:\Users\Bau_M\AppData\Local\Temp/lcc761656.o
                                          [ clean_text ]
C:\Users\Bau_M\AppData\Local\Temp/lcc761657.o
                                          [ map_collision ]
C:\Users\Bau_M\AppData\Local\Temp/lcc761658.o
                                          [ map_data ]
C:\Users\Bau_M\AppData\Local\Temp/lcc761659.o
                                          [ map_player_movement ]
C:\Users\Bau_M\AppData\Local\Temp/lcc761660.o
                                          [ map_00 ]
C:\Users\Bau_M\AppData\Local\Temp/lcc761661.o
                                          [ map_00_collision ]
C:\Users\Bau_M\AppData\Local\Temp/lcc761662.o
                                          [ map_00_init ]
C:\Users\Bau_M\AppData\Local\Temp/lcc761663.o
                                          [ map_00_init_dialogues ]
C:\Users\Bau_M\AppData\Local\Temp/lcc761664.o
                                          [ map_00_init_npc ]
C:\Users\Bau_M\AppData\Local\Temp/lcc761665.o
                                          [ map_00_update ]
C:\Users\Bau_M\AppData\Local\Temp/lcc761666.o
                                          [ mg_player_movement ]
C:\Users\Bau_M\AppData\Local\Temp/lcc761667.o
                                          [ mini_games ]
C:\Users\Bau_M\AppData\Local\Temp/lcc761668.o
                                          [ mg_leaves ]
C:\Users\Bau_M\AppData\Local\Temp/lcc761669.o
                                          [ mg_leaves_init ]
C:\Users\Bau_M\AppData\Local\Temp/lcc761670.o
                                          [ mg_leaves_load_bkg ]
C:\Users\Bau_M\AppData\Local\Temp/lcc761671.o
                                          [ mg_leaves_player_init ]
C:\Users\Bau_M\AppData\Local\Temp/lcc761672.o
                                          [ mg_leaves_update ]
C:\Users\Bau_M\AppData\Local\Temp/lcc761673.o
                                          [ main ]


Libraries Linked                          [ object file ]

C:\Program Files\GBDK\lib/gb/gb.lib       [ sfr.o ]
C:\Program Files\GBDK\lib/sm83/sm83.lib   [ div.o ]
C:\Program Files\GBDK\lib/sm83/sm83.lib   [ free.o ]
C:\Program Files\GBDK\lib/sm83/sm83.lib   [ malloc.o ]
C:\Program Files\GBDK\lib/gb/gb.lib       [ set_data.o ]
C:\Program Files\GBDK\lib/sm83/sm83.lib   [ mul.o ]
C:\Program Files\GBDK\lib/gb/gb.lib       [ pad.o ]
C:\Program Files\GBDK\lib/sm83/sm83.lib   [ memcpy.o ]
C:\Program Files\GBDK\lib/sm83/sm83.lib   [ __sdcc_call_hl.o ]
C:\Program Files\GBDK\lib/gb/gb.lib       [ heap.o ]
C:\Program Files\GBDK\lib/gb/gb.lib       [ set_bk_t.o ]
C:\Program Files\GBDK\lib/gb/gb.lib       [ set_xy_t.o ]

ASxxxx Linker V03.00/V05.40 + sdld,  page 150.

User Base Address Definitions

_DATA=0xC0A0
_CODE=0x0200
_HRAM=0xFF80
ASxxxx Linker V03.00/V05.40 + sdld,  page 151.

User Global Definitions

_shadow_OAM=0xC000
.STACK=0xE000

