ASxxxx Linker V03.00/V05.40 + sdld,  page 1.
Hexadecimal  [32-Bits]

Area                       Addr        Size        Decimal Bytes (Attributes)
--------------------       ----        ----        ------- ----- ------------
.  .ABS.               00000000    00000000 =           0. bytes (ABS,CON)

        Value  Global            Value  Global            Value  Global    
        -----  ------            -----  ------            -----  ------    
     00000000  .__.ABS.  |    00000000  _rMBC7_SR |    00000000  _rRAMG   
     00000000  l__BASE   |    00000000  l__BSS    |    00000000  l__CABS  
     00000000  l__CODE_0 |    00000000  l__DABS   |    00000000  l__HEADER
     00000000  l__LIT    |    00000000  s__CABS   |    00000000  s__DABS  
     00000000  s__HEADER |    00000000  s__HEADER |    00000000  s__HEADER
     00000000  s__HEADER |    00000000  s__HEADER |    00000000  s__HEADER
     00000000  s__HEADER |    00000000  s__HEADER |    00000000  s__HEADER
     00000000  s__HEADER |    00000000  s__HEADER |    00000000  s__HEADER
     00000000  s__HEADER |    00000000  s__HEADER |    00000000  s__HEADER
     00000000  s__HEADER |    00000000  s__HEADER |    00000000  s__HEADER
     00000000  s__HEADER |    00000001  l__GSFINA |    00000001  l__HEADER
     00000001  l__HEADER |    00000001  l__HEADER |    00000001  l__HEADER
     00000001  l__HEADER |    00000001  l__HEADER |    00000001  l__HEADER
     00000001  l__HEAP_E |    00000002  l__HEADER |    00000002  l__HEADER
     00000002  l__HEADER |    00000003  l__HEADER |    00000005  l__HEADER
     00000006  l__HEADER |    00000007  l__HEADER |    00000008  l__HEADER
     0000000F  l__GSINIT |    00000013  l__HRAM   |    00000030  l__HEADER
     00000060  l__HEADER |    000000AB  l__HEADER |    0000012C  l__HOME  
     00000200  s__CODE   |    0000055A  l__DATA   |    000007FF  l__HEAP  
     00000AD1  l__INITIA |    00000AD1  l__INITIA |    00002000  _rROMB0  
     00002B55  l__CODE_2 |    00002BCB  l__CODE   |    00002DCB  s__HOME  
     00002DFD  l__CODE_6 |    00002EF7  s__BASE   |    00002EF7  s__CODE_0
     00002EF7  s__INITIA |    00002EF7  s__LIT    |    00003000  _rROMB1  
     00003253  l__CODE_3 |    000033FA  l__CODE_5 |    000039C8  s__GSINIT
     000039D7  s__GSFINA |    00003CF1  l__CODE_4 |    00003D0B  l__CODE_1
     00004000  _rMBC7_SR |    00004000  _rRAMB    |    00008000  __VRAM   
     00008000  __VRAM800 |    00008800  __VRAM880 |    00009000  __VRAM900
     00009800  __SCRN0   |    00009C00  __SCRN1   |    0000A000  __SRAM   
     0000A000  _rMBC7_LA |    0000A010  _rMBC7_LA |    0000A020  _rMBC7_AC
     0000A030  _rMBC7_AC |    0000A040  _rMBC7_AC |    0000A050  _rMBC7_AC
     0000C000  __RAM     |    0000C000  _shadow_O |    0000C0A0  s__DATA  
     0000C5FA  s__BSS    |    0000C5FA  s__INITIA |    0000D000  __RAMBANK
     0000D0CB  s__HEAP   |    0000D8CA  s__HEAP_E |    0000E000  .STACK   
     0000FE00  __OAMRAM  |    0000FF00  _P1_REG   |    0000FF00  __IO     
     0000FF01  _SB_REG   |    0000FF02  _SC_REG   |    0000FF04  _DIV_REG 
     0000FF05  _TIMA_REG |    0000FF06  _TMA_REG  |    0000FF07  _TAC_REG 
     0000FF0F  _IF_REG   |    0000FF10  _NR10_REG |    0000FF11  _NR11_REG
     0000FF12  _NR12_REG |    0000FF13  _NR13_REG |    0000FF14  _NR14_REG
     0000FF16  _NR21_REG |    0000FF17  _NR22_REG |    0000FF18  _NR23_REG
     0000FF19  _NR24_REG |    0000FF1A  _NR30_REG |    0000FF1B  _NR31_REG
     0000FF1C  _NR32_REG |    0000FF1D  _NR33_REG |    0000FF1E  _NR34_REG
     0000FF20  _NR41_REG |    0000FF21  _NR42_REG |    0000FF22  _NR43_REG
     0000FF23  _NR44_REG |    0000FF24  _NR50_REG |    0000FF25  _NR51_REG
     0000FF26  _NR52_REG |    0000FF30  _AUD3WAVE |    0000FF30  _PCM_SAMP
     0000FF30  __AUD3WAV |    0000FF40  _LCDC_REG |    0000FF41  _STAT_REG
     0000FF42  _SCY_REG  |    0000FF43  _SCX_REG  |    0000FF44  _LY_REG  
     0000FF45  _LYC_REG  |    0000FF46  _DMA_REG  |    0000FF47  _BGP_REG 
     0000FF48  _OBP0_REG |    0000FF49  _OBP1_REG |    0000FF4A  _WY_REG  
     0000FF4B  _WX_REG   |    0000FF4D  _KEY1_REG |    0000FF4F  _VBK_REG 
     0000FF51  _HDMA1_RE |    0000FF52  _HDMA2_RE |    0000FF53  _HDMA3_RE
ASxxxx Linker V03.00/V05.40 + sdld,  page 2.
Hexadecimal  [32-Bits]

Area                       Addr        Size        Decimal Bytes (Attributes)
--------------------       ----        ----        ------- ----- ------------
.  .ABS.               00000000    00000000 =           0. bytes (ABS,CON)

        Value  Global            Value  Global            Value  Global    
        -----  ------            -----  ------            -----  ------    
     0000FF54  _HDMA4_RE |    0000FF55  _HDMA5_RE |    0000FF56  _RP_REG  
     0000FF68  _BCPS_REG |    0000FF69  _BCPD_REG |    0000FF6A  _OCPS_REG
     0000FF6B  _OCPD_REG |    0000FF70  _SVBK_REG |    0000FF76  _PCM12_RE
     0000FF77  _PCM34_RE |    0000FF80  __HRAM    |    0000FF80  s__HRAM  
     0000FFFF  _IE_REG   |    00014000  s__CODE_1 |    00024000  s__CODE_2
     00034000  s__CODE_3 |    00044000  s__CODE_4 |    00054000  s__CODE_5
     00064000  s__CODE_6
ASxxxx Linker V03.00/V05.40 + sdld,  page 3.
Hexadecimal  [32-Bits]

Area                       Addr        Size        Decimal Bytes (Attributes)
--------------------       ----        ----        ------- ----- ------------
_CODE                  00000200    00002BCB =       11211. bytes (REL,CON)

        Value  Global            Value  Global            Value  Global    
        -----  ------            -----  ------            -----  ------    
     00000200  _items_ti |    00000250  _items_ti |    00000254  _numbers_
     000002F4  _numbers_ |    000002FE  _init_but |    0000030C  _buttons_
     0000033C  _buttons_ |    0000033F  _chars_ti |    0000055F  _chars_ti
     00000580  _InitNPCI |    0000058E  _npc_icon |    000005EE  _npc_icon
     000005F4  _homework |    00000624  _homework |    00000626  _text_fra
     00000776  _text_fra |    0000078F  _TextFram |    000007CF  _TextFram
     00000A69  _load_num |    00000A86  _main     |    00000B53  _correct_
     00000B54  _ItemNoUs |    00000CD5  _Map_Coll |    00000F06  _clean   
     00000F6D  _empty_ti |    00000F6E  _Map_Play |    000010B7  _Map_Auto
     000010C8  _Story_Cr |    0000124D  _NewItemS |    00001504  _my_rand 
     00001531  _Scene_De |    00001548  _create_e |    0000155B  _reset_en
     00001561  _check_co |    000015D9  _init_mgm |    000015F9  _init_NPC
     0000160C  _Scene_Dr |    00001A34  _SceneMan |    00001A96  _SceneMan
     00001AA5  _SceneMan |    00001B94  _Intermit |    00001BE2  _render_r
     00001BF4  _draw_act |    00001DA3  _draw_ext |    0000203A  _init_inv
     00002062  _scene_ma |    000022AD  _move_up  |    00002303  _move_dow
     00002353  _move_lef |    000023A9  _move_rig |    000023FB  _init_ani
     00002481  _update_a |    000024C3  _set_anim |    000024E7  _char_to_
     000025F1  _load_act |    00002658  _reset_ex |    0000265E  _reset_re
     0000267F  _create_p |    00002698  _init_pla |    0000294C  _cache_pl
     000029B3  _free     |    00002AC3  __divsuch |    00002AC9  __modsuch
     00002AD2  __divusch |    00002ADB  __modusch |    00002AE7  __divscha
     00002AEC  __modscha |    00002AF3  __divsint |    00002AFC  __modsint
     00002B08  __divucha |    00002B0D  __moducha |    00002B14  __divuint
     00002B1D  __moduint |    00002B29  .div8     |    00002B29  .mod8    
     00002B31  .div16    |    00002B31  .mod16    |    00002B67  .divu8   
     00002B67  .modu8    |    00002B6A  .divu16   |    00002B6A  .modu16  
     00002BAA  _get_vram |    00002BB2  _get_win_ |    00002BBA  _get_bkg_
     00002BE1  ___sdcc_h |    00002C03  _malloc   |    00002D13  _set_vram
     00002D1C  _set_win_ |    00002D25  _set_bkg_ |    00002D54  __mulsuch
     00002D57  __mulusch |    00002D60  __mulscha |    00002D68  __mulint 
     00002D87  __mulucha |    00002D99  ___memcpy |    00002D99  _memcpy  
ASxxxx Linker V03.00/V05.40 + sdld,  page 4.
Hexadecimal  [32-Bits]

Area                       Addr        Size        Decimal Bytes (Attributes)
--------------------       ----        ----        ------- ----- ------------
_HEADER0               00000000    00000001 =           1. bytes (ABS,CON)

        Value  Global            Value  Global            Value  Global    
        -----  ------            -----  ------            -----  ------    
     00000020  .call_hl 
ASxxxx Linker V03.00/V05.40 + sdld,  page 5.
Hexadecimal  [32-Bits]

Area                       Addr        Size        Decimal Bytes (Attributes)
--------------------       ----        ----        ------- ----- ------------
_HEADER1               00000000    00000005 =           5. bytes (ABS,CON)

        Value  Global            Value  Global            Value  Global    
        -----  ------            -----  ------            -----  ------    
     00000028  .MemsetSm
ASxxxx Linker V03.00/V05.40 + sdld,  page 6.
Hexadecimal  [32-Bits]

Area                       Addr        Size        Decimal Bytes (Attributes)
--------------------       ----        ----        ------- ----- ------------
_HEADER2               00000000    00000007 =           7. bytes (ABS,CON)

        Value  Global            Value  Global            Value  Global    
        -----  ------            -----  ------            -----  ------    
     00000030  .MemcpySm
ASxxxx Linker V03.00/V05.40 + sdld,  page 7.
Hexadecimal  [32-Bits]

Area                       Addr        Size        Decimal Bytes (Attributes)
--------------------       ----        ----        ------- ----- ------------
_HEADER3               00000000    00000008 =           8. bytes (ABS,CON)

        Value  Global            Value  Global            Value  Global    
        -----  ------            -----  ------            -----  ------    
ASxxxx Linker V03.00/V05.40 + sdld,  page 8.
Hexadecimal  [32-Bits]

Area                       Addr        Size        Decimal Bytes (Attributes)
--------------------       ----        ----        ------- ----- ------------
_HEADER4               00000000    00000060 =          96. bytes (ABS,CON)

        Value  Global            Value  Global            Value  Global    
        -----  ------            -----  ------            -----  ------    
     00000080  .int      |    0000008F  _wait_int |    0000009C  __standar
     000000AB  _refresh_ |    000000CC  _set_inte
ASxxxx Linker V03.00/V05.40 + sdld,  page 9.
Hexadecimal  [32-Bits]

Area                       Addr        Size        Decimal Bytes (Attributes)
--------------------       ----        ----        ------- ----- ------------
_HEADER5               00000000    00000001 =           1. bytes (ABS,CON)

        Value  Global            Value  Global            Value  Global    
        -----  ------            -----  ------            -----  ------    
ASxxxx Linker V03.00/V05.40 + sdld,  page 10.
Hexadecimal  [32-Bits]

Area                       Addr        Size        Decimal Bytes (Attributes)
--------------------       ----        ----        ------- ----- ------------
_HEADER6               00000000    00000002 =           2. bytes (ABS,CON)

        Value  Global            Value  Global            Value  Global    
        -----  ------            -----  ------            -----  ------    
ASxxxx Linker V03.00/V05.40 + sdld,  page 11.
Hexadecimal  [32-Bits]

Area                       Addr        Size        Decimal Bytes (Attributes)
--------------------       ----        ----        ------- ----- ------------
_HEADER7               00000000    00000030 =          48. bytes (ABS,CON)

        Value  Global            Value  Global            Value  Global    
        -----  ------            -----  ------            -----  ------    
ASxxxx Linker V03.00/V05.40 + sdld,  page 12.
Hexadecimal  [32-Bits]

Area                       Addr        Size        Decimal Bytes (Attributes)
--------------------       ----        ----        ------- ----- ------------
_HEADER8               00000000    00000006 =           6. bytes (ABS,CON)

        Value  Global            Value  Global            Value  Global    
        -----  ------            -----  ------            -----  ------    
ASxxxx Linker V03.00/V05.40 + sdld,  page 13.
Hexadecimal  [32-Bits]

Area                       Addr        Size        Decimal Bytes (Attributes)
--------------------       ----        ----        ------- ----- ------------
_HEADER9               00000000    00000003 =           3. bytes (ABS,CON)

        Value  Global            Value  Global            Value  Global    
        -----  ------            -----  ------            -----  ------    
ASxxxx Linker V03.00/V05.40 + sdld,  page 14.
Hexadecimal  [32-Bits]

Area                       Addr        Size        Decimal Bytes (Attributes)
--------------------       ----        ----        ------- ----- ------------
_HEADERa               00000000    00000001 =           1. bytes (ABS,CON)

        Value  Global            Value  Global            Value  Global    
        -----  ------            -----  ------            -----  ------    
ASxxxx Linker V03.00/V05.40 + sdld,  page 15.
Hexadecimal  [32-Bits]

Area                       Addr        Size        Decimal Bytes (Attributes)
--------------------       ----        ----        ------- ----- ------------
_HEADERb               00000000    00000001 =           1. bytes (ABS,CON)

        Value  Global            Value  Global            Value  Global    
        -----  ------            -----  ------            -----  ------    
ASxxxx Linker V03.00/V05.40 + sdld,  page 16.
Hexadecimal  [32-Bits]

Area                       Addr        Size        Decimal Bytes (Attributes)
--------------------       ----        ----        ------- ----- ------------
_HEADERc               00000000    00000001 =           1. bytes (ABS,CON)

        Value  Global            Value  Global            Value  Global    
        -----  ------            -----  ------            -----  ------    
ASxxxx Linker V03.00/V05.40 + sdld,  page 17.
Hexadecimal  [32-Bits]

Area                       Addr        Size        Decimal Bytes (Attributes)
--------------------       ----        ----        ------- ----- ------------
_HEADERd               00000000    00000002 =           2. bytes (ABS,CON)

        Value  Global            Value  Global            Value  Global    
        -----  ------            -----  ------            -----  ------    
ASxxxx Linker V03.00/V05.40 + sdld,  page 18.
Hexadecimal  [32-Bits]

Area                       Addr        Size        Decimal Bytes (Attributes)
--------------------       ----        ----        ------- ----- ------------
_HEADERe               00000000    00000001 =           1. bytes (ABS,CON)

        Value  Global            Value  Global            Value  Global    
        -----  ------            -----  ------            -----  ------    
ASxxxx Linker V03.00/V05.40 + sdld,  page 19.
Hexadecimal  [32-Bits]

Area                       Addr        Size        Decimal Bytes (Attributes)
--------------------       ----        ----        ------- ----- ------------
_HEADERf               00000000    00000001 =           1. bytes (ABS,CON)

        Value  Global            Value  Global            Value  Global    
        -----  ------            -----  ------            -----  ------    
ASxxxx Linker V03.00/V05.40 + sdld,  page 20.
Hexadecimal  [32-Bits]

Area                       Addr        Size        Decimal Bytes (Attributes)
--------------------       ----        ----        ------- ----- ------------
_HEADER10              00000000    00000002 =           2. bytes (ABS,CON)

        Value  Global            Value  Global            Value  Global    
        -----  ------            -----  ------            -----  ------    
ASxxxx Linker V03.00/V05.40 + sdld,  page 21.
Hexadecimal  [32-Bits]

Area                       Addr        Size        Decimal Bytes (Attributes)
--------------------       ----        ----        ------- ----- ------------
_HEADER11              00000000    000000AB =         171. bytes (ABS,CON)

        Value  Global            Value  Global            Value  Global    
        -----  ------            -----  ------            -----  ------    
     00000150  .reset    |    00000150  _reset    |    00000157  .code_sta
     000001B9  _exit     |    000001BD  .wait_vbl |    000001BD  _vsync   
     000001BD  _wait_vbl |    000001CD  .remove_V |    000001CD  _remove_V
     000001D0  .remove_i |    000001ED  .add_VBL  |    000001ED  _add_VBL 
     000001F0  .add_int 
ASxxxx Linker V03.00/V05.40 + sdld,  page 22.
Hexadecimal  [32-Bits]

Area                       Addr        Size        Decimal Bytes (Attributes)
--------------------       ----        ----        ------- ----- ------------
_HOME                  00002DCB    0000012C =         300. bytes (REL,CON)

        Value  Global            Value  Global            Value  Global    
        -----  ------            -----  ------            -----  ------    
     00002DCB  .memset_s |    00002DD4  .memcpy_s |    00002DF1  .display_
     00002DF1  _display_ |    00002E09  _set_tile |    00002E0E  _set_bkg_
     00002E0E  _set_win_ |    00002E16  _set_spri |    00002E46  .padup   
     00002E46  _waitpadu |    00002E56  .jpad     |    00002E56  _joypad  
     00002E7E  _waitpad  |    00002E7F  .wait_pad |    00002E86  ___sdcc_c
     00002E87  _set_bkg_ |    00002E9B  .set_xy_w |    00002EA4  .set_xy_b
     00002EB3  .set_xy_t
ASxxxx Linker V03.00/V05.40 + sdld,  page 23.
Hexadecimal  [32-Bits]

Area                       Addr        Size        Decimal Bytes (Attributes)
--------------------       ----        ----        ------- ----- ------------
_INITIALIZER           00002EF7    00000AD1 =        2769. bytes (REL,CON)

        Value  Global            Value  Global            Value  Global    
        -----  ------            -----  ------            -----  ------    
ASxxxx Linker V03.00/V05.40 + sdld,  page 24.
Hexadecimal  [32-Bits]

Area                       Addr        Size        Decimal Bytes (Attributes)
--------------------       ----        ----        ------- ----- ------------
_GSINIT                000039C8    0000000F =          15. bytes (REL,CON)

        Value  Global            Value  Global            Value  Global    
        -----  ------            -----  ------            -----  ------    
     000039C8  gsinit   
ASxxxx Linker V03.00/V05.40 + sdld,  page 25.
Hexadecimal  [32-Bits]

Area                       Addr        Size        Decimal Bytes (Attributes)
--------------------       ----        ----        ------- ----- ------------
_GSFINAL               000039D7    00000001 =           1. bytes (REL,CON)

        Value  Global            Value  Global            Value  Global    
        -----  ------            -----  ------            -----  ------    
ASxxxx Linker V03.00/V05.40 + sdld,  page 26.
Hexadecimal  [32-Bits]

Area                       Addr        Size        Decimal Bytes (Attributes)
--------------------       ----        ----        ------- ----- ------------
_DATA                  0000C0A0    0000055A =        1370. bytes (REL,CON)

        Value  Global            Value  Global            Value  Global    
        -----  ------            -----  ------            -----  ------    
     0000C0A0  __cpu     |    0000C0A1  __is_GBA  |    0000C0A2  .mode    
     0000C0A3  .sys_time |    0000C0A3  _sys_time |    0000C0A5  .int_0x40
     0000C0B1  _backup_t |    0000C1B4  _Mg_Leave |    0000C1BD  _actor_id
     0000C1C2  _actor_x  |    0000C1C7  _actor_y  |    0000C1CC  _fixed_y 
     0000C1D6  _actor_ac |    0000C1DB  _actor_ti |    0000C1E0  _actor_sp
     0000C1EA  _actor_sp |    0000C1EF  _actor_st |    0000C1F4  _mg_leave
     0000C1F7  _availabl |    0000C1FC  _Mg_Homew |    0000C205  _Map_20  
     0000C20E  _Map_23   |    0000C217  _Map_00   |    0000C220  _Map_01  
     0000C229  _Map_33   |    0000C232  _Map_10   |    0000C23B  _Map_21  
     0000C244  _Map_11   |    0000C24D  _Map_12   |    0000C256  _Map_13  
     0000C25F  _Map_32   |    0000C268  _Map_30   |    0000C271  _Map_03  
     0000C27A  _Map_22   |    0000C283  _CurrentM |    0000C294  _Map_02  
     0000C29D  _Map_31   |    0000C2A6  _MainMenu |    0000C2AF  _GenderSe
     0000C2B8  _Story    |    0000C2C1  _story_li |    0000C309  _Inventor
     0000C312  _Language |    0000C31B  _CurrentN |    0000C31F  _MGM_stat
     0000C320  _npc_1    |    0000C321  _npc_2    |    0000C322  _option_a
     0000C323  _humor_st |    0000C32C  _relation |    0000C335  _dialogue
     0000C33E  _scene_ma |    0000C342  _render   |    0000C357  _names   
     0000C39D  _position |    0000C3C7  _cache    |    0000C3F8  _actual_t
     0000C3FC  _inventor |    0000C450  _animatio |    0000C5A7  _extra_ac
     0000C5E3  _speed    |    0000C5F1  _player   |    0000C5F2  _mg_playe
     0000C5F3  _player_a |    0000C5F7  _player_y |    0000C5F8  ___sdcc_h
ASxxxx Linker V03.00/V05.40 + sdld,  page 27.
Hexadecimal  [32-Bits]

Area                       Addr        Size        Decimal Bytes (Attributes)
--------------------       ----        ----        ------- ----- ------------
_INITIALIZED           0000C5FA    00000AD1 =        2769. bytes (REL,CON)

        Value  Global            Value  Global            Value  Global    
        -----  ------            -----  ------            -----  ------    
     0000C5FA  _spr_Righ |    0000C60A  _spr_lang |    0000C61A  _spr_Chic
     0000C62A  _spr_Chic |    0000C63A  _spr_Chic |    0000C64A  _spr_Chic
     0000C65A  _spr_Viej |    0000C66A  _spr_Viej |    0000C67A  _spr_Viej
     0000C68A  _spr_Viej |    0000C69A  _spr_Firu |    0000C6AA  _spr_Firu
     0000C6BA  _spr_Firu |    0000C6CA  _spr_Firu |    0000C6DA  _spr_Firu
     0000C6EA  _spr_Firu |    0000C6FA  _spr_Firu |    0000C70A  _spr_Firu
     0000C71A  _spr_Firu |    0000C72A  _spr_Firu |    0000C73A  _spr_Firu
     0000C74A  _spr_Firu |    0000C75A  _spr_Viej |    0000C76A  _spr_Viej
     0000C77A  _spr_Viej |    0000C78A  _spr_Viej |    0000C79A  _spr_Viej
     0000C7AA  _spr_Viej |    0000C7BA  _spr_Viej |    0000C7CA  _spr_Viej
     0000C7DA  _spr_Viej |    0000C7EA  _spr_Viej |    0000C7FA  _spr_Viej
     0000C80A  _spr_Viej |    0000C81A  _spr_Viej |    0000C82A  _spr_Viej
     0000C83A  _spr_Viej |    0000C84A  _spr_Viej |    0000C85A  _spr_Pend
     0000C86A  _spr_Pend |    0000C87A  _spr_Pend |    0000C88A  _spr_Pend
     0000C89A  _spr_Mart |    0000C8AA  _spr_Mart |    0000C8BA  _spr_Mart
     0000C8CA  _spr_Mart |    0000C8DA  _spr_Mart |    0000C8EA  _spr_Mart
     0000C8FA  _spr_Mart |    0000C90A  _spr_Mart |    0000C91A  _spr_Mart
     0000C92A  _spr_Mart |    0000C93A  _spr_Mart |    0000C94A  _spr_Mart
     0000C95A  _spr_Flag |    0000C96A  _spr_Flag |    0000C97A  _spr_Flag
     0000C98A  _spr_Flag |    0000C99A  _spr_Flag |    0000C9AA  _spr_Flag
     0000C9BA  _spr_Flag |    0000C9CA  _spr_Flag |    0000C9DA  _spr_Viej
     0000C9EA  _spr_Viej |    0000C9FA  _spr_Viej |    0000CA0A  _spr_Viej
     0000CA1A  _spr_Pige |    0000CA2A  _spr_Pige |    0000CA3A  _spr_Mart
     0000CA7A  _spr_Mart |    0000CABA  _spr_Mart |    0000CAFA  _spr_Mart
     0000CB3A  _spr_Play |    0000CB4A  _spr_Play |    0000CB5A  _spr_Play
     0000CB6A  _spr_Play |    0000CB7A  _spr_Play |    0000CB8A  _spr_Play
     0000CB9A  _spr_Play |    0000CBAA  _spr_Play |    0000CBBA  _spr_Play
     0000CBCA  _spr_Play |    0000CBDA  _spr_Play |    0000CBEA  _spr_Play
     0000CBFA  _spr_Play |    0000CC0A  _spr_Play |    0000CC1A  _spr_Play
     0000CC2A  _spr_Play |    0000CC3A  _spr_Play |    0000CC4A  _spr_Play
     0000CC5A  _spr_Play |    0000CC6A  _spr_Play |    0000CC7A  _spr_Play
     0000CC8A  _spr_Play |    0000CC9A  _spr_Play |    0000CCAA  _spr_Play
     0000CCBA  _spr_Bran |    0000CCCA  _spr_leaf |    0000CCDA  _spr_leaf
     0000CCEA  _spr_acor |    0000CCFA  _spr_leaf |    0000CD0A  _spr_broo
     0000CD1A  _spr_broo |    0000CD2A  _spr_garb |    0000CD3A  _SWEEPING
     0000CD3B  _error    |    0000CD3C  _scroll_r |    0000CD3D  _next_spa
     0000CD3E  _min_acor |    0000CD3F  _min_leav |    0000CD40  _acorns_c
     0000CD41  _leaves_c |    0000CD42  _mgt_curr |    0000CD44  _mgt_targ
     0000CD46  _mgt_runn |    0000CD47  _mgt_alar |    0000CD48  _row_tile
     0000CD49  _correct_ |    0000CD4A  _test     |    0000CF2A  _mgl_curr
     0000CF2B  _mgl_targ |    0000CF2C  _mgl_acti |    0000CF2D  _mgl_init
     0000CF2E  _tmp_20_r |    0000CF2F  _npc_20_a |    0000CF30  _mission_
     0000CF31  _purchase |    0000CF32  _back     |    0000CF33  _dog_acti
     0000CF34  _map_12_c |    0000D09C  _mg_32_tm |    0000D09D  _tmp_rela
     0000D09E  _map_32_n |    0000D09F  _tmp_rela |    0000D0A0  _mg_ended
     0000D0A1  _npc_appe |    0000D0A2  _temp_rel |    0000D0A3  _auto_cle
     0000D0A4  _auto_cle |    0000D0A5  _book_del |    0000D0A6  _timer   
     0000D0A8  _rate     |    0000D0A9  _show_tex |    0000D0AA  _story_li
     0000D0AB  _story_li |    0000D0AC  _story_li |    0000D0AD  _actual_s
     0000D0AE  _actual_l |    0000D0AF  _ended    |    0000D0B0  _seed    
ASxxxx Linker V03.00/V05.40 + sdld,  page 28.
Hexadecimal  [32-Bits]

Area                       Addr        Size        Decimal Bytes (Attributes)
--------------------       ----        ----        ------- ----- ------------
_INITIALIZED           0000C5FA    00000AD1 =        2769. bytes (REL,CON)

        Value  Global            Value  Global            Value  Global    
        -----  ------            -----  ------            -----  ------    
     0000D0B2  _next_ent |    0000D0B3  _minigame |    0000D0B4  _current_
     0000D0B5  _prev_sce |    0000D0B6  _next_sce |    0000D0B7  _is_trans
     0000D0B8  _can_move |    0000D0BC  _current_ |    0000D0BD  _active_i
     0000D0BE  _active_i |    0000D0BF  _selected |    0000D0C0  _last_sel
     0000D0C1  _language |    0000D0C2  _extra_ac |    0000D0C3  _money   
     0000D0C5  _keys     |    0000D0C6  _prev_key |    0000D0C7  _vram_nex
     0000D0C8  _vram_ext |    0000D0C9  _GENDER   |    0000D0CA  __map_til
ASxxxx Linker V03.00/V05.40 + sdld,  page 29.
Hexadecimal  [32-Bits]

Area                       Addr        Size        Decimal Bytes (Attributes)
--------------------       ----        ----        ------- ----- ------------
_HEAP                  0000D0CB    000007FF =        2047. bytes (REL,CON)

        Value  Global            Value  Global            Value  Global    
        -----  ------            -----  ------            -----  ------    
     0000D0CB  ___sdcc_h
ASxxxx Linker V03.00/V05.40 + sdld,  page 30.
Hexadecimal  [32-Bits]

Area                       Addr        Size        Decimal Bytes (Attributes)
--------------------       ----        ----        ------- ----- ------------
_HEAP_END              0000D8CA    00000001 =           1. bytes (REL,CON)

        Value  Global            Value  Global            Value  Global    
        -----  ------            -----  ------            -----  ------    
     0000D8CA  ___sdcc_h
ASxxxx Linker V03.00/V05.40 + sdld,  page 31.
Hexadecimal  [32-Bits]

Area                       Addr        Size        Decimal Bytes (Attributes)
--------------------       ----        ----        ------- ----- ------------
_HRAM                  0000FF80    00000013 =          19. bytes (REL,CON)

        Value  Global            Value  Global            Value  Global    
        -----  ------            -----  ------            -----  ------    
     0000FF80  .refresh_ |    0000FF90  __current |    0000FF91  __vbl_don
     0000FF92  __shadow_
ASxxxx Linker V03.00/V05.40 + sdld,  page 32.
Hexadecimal  [32-Bits]

Area                       Addr        Size        Decimal Bytes (Attributes)
--------------------       ----        ----        ------- ----- ------------
_CODE_1                00014000    00003D0B =       15627. bytes (REL,CON)

        Value  Global            Value  Global            Value  Global    
        -----  ------            -----  ------            -----  ------    
     00014000  _map_2_0_ |    00014490  _map_2_0_ |    000145F8  _map_0_0_
     000147D8  _map_0_0_ |    00014940  _map_0_1_ |    00014FF0  _map_0_1_
     00015158  _map_0_3_ |    00015708  _map_0_3_ |    00015870  _map_0_2_
     00015DD0  _map_0_2_ |    00015F38  _Map_20_C |    00015F58  _Map_20_D
     00015F7E  _Map_20_U |    00015FB7  _Map_20_I |    0001602C  _dialogue
     00016182  _dialogue |    000162D8  _dialogue |    0001642E  _dialogue
     00016584  _dialogue |    000166DA  _dialogue |    00016830  _dialogue
     00016986  _dialogue |    00016ADC  _map_20_c |    00016C44  _Map_20_C
     00017122  _Map_20_I |    000172A0  _Map_20_I |    0001736D  _map_00_c
     000174D5  _Map_00_C |    000174EF  _Map_00_U |    00017515  _Map_00_I
     00017583  _map_01_c |    000176EB  _Map_01_C |    00017705  _Map_01_U
     0001772B  _Map_01_I |    00017799  _Map_03_C |    000177B3  _Map_03_I
     00017821  _Map_03_U |    00017847  _map_03_c |    000179AF  _Map_02_C
     000179C9  _map_02_c |    00017B31  _Map_02_U |    00017B87  _Map_02_I
     00017C93  _Map_02_I
ASxxxx Linker V03.00/V05.40 + sdld,  page 33.
Hexadecimal  [32-Bits]

Area                       Addr        Size        Decimal Bytes (Attributes)
--------------------       ----        ----        ------- ----- ------------
_CODE_3                00034000    00003253 =       12883. bytes (REL,CON)

        Value  Global            Value  Global            Value  Global    
        -----  ------            -----  ------            -----  ------    
     00034000  _map_2_3_ |    00034700  _map_2_3_ |    00034868  _map_2_1_
     00034E38  _map_2_1_ |    00034FA0  _map_2_2_ |    00035620  _map_2_2_
     00035788  _Map_23_I |    000357C0  _dialogue |    00035916  _dialogue
     00035A6C  _dialogue |    00035BC2  _dialogue |    00035D18  _map_23_c
     00035E80  _Map_23_U |    00035EAF  _Map_23_C |    00035EDF  _Map_23_C
     00035EF3  _Map_23_S |    00036620  _Map_23_I |    000366A9  _Map_23_I
     000367DD  _Map_21_U |    00036803  _Map_21_I |    00036871  _Map_21_C
     0003688F  _map_21_c |    000369F7  _map_22_c |    00036B5F  _Map_22_C
     00036B85  _Map_22_I |    00036CA8  _Map_22_I |    00036CD2  _dialogue
     00036E28  _dialogue |    00036F7E  _dialogue |    000370D4  _Map_22_D
     000370FA  _Map_22_C |    0003711A  _Map_22_C |    00037131  _Map_22_I
     000371E8  _Map_22_U
ASxxxx Linker V03.00/V05.40 + sdld,  page 34.
Hexadecimal  [32-Bits]

Area                       Addr        Size        Decimal Bytes (Attributes)
--------------------       ----        ----        ------- ----- ------------
_CODE_5                00054000    000033FA =       13306. bytes (REL,CON)

        Value  Global            Value  Global            Value  Global    
        -----  ------            -----  ------            -----  ------    
     00054000  _map_3_3_ |    00054660  _map_3_3_ |    000547C8  _bkg_main
     00054A88  _bkg_main |    00054BF0  _gender_s |    00054D58  _gender_s
     00055048  _inventor |    00055398  _inventor |    00055500  _template
     000556D0  _template |    00055838  _bkg_lang |    00055B18  _bkg_lang
     00055C80  _Map_33_I |    00055DE2  _Map_33_U |    00055E3B  _Map_33_L
     00055E59  _Map_33_I |    000563FE  _map_33_c |    00056566  _Map_33_C
     00056996  _Map_33_C |    000569B0  _Map_33_I |    00056A1F  _MainMenu
     00056A91  _MainMenu |    00056AB1  _MainMenu |    00056AB2  _MainMenu
     00056AB3  _MainMenu |    00056AD8  _MainMenu |    00056B86  _GenderSe
     00056B9B  _GenderSe |    00056BD5  _GenderSe |    00056BD6  _Story_In
     00056CDC  _Story_Up |    00056DB1  _Inventor |    00056F63  _Inventor
     00057007  _Inventor |    000570B4  _Inventor |    0005710F  _Inventor
     00057129  _Inventor |    000571A0  _Language |    000571A3  _Language
     000572B5  _Language |    000573E0  _Language
ASxxxx Linker V03.00/V05.40 + sdld,  page 35.
Hexadecimal  [32-Bits]

Area                       Addr        Size        Decimal Bytes (Attributes)
--------------------       ----        ----        ------- ----- ------------
_CODE_2                00024000    00002B55 =       11093. bytes (REL,CON)

        Value  Global            Value  Global            Value  Global    
        -----  ------            -----  ------            -----  ------    
     00024000  _map_1_0_ |    00024600  _map_1_0_ |    00024768  _map_1_1_
     00024BE8  _map_1_1_ |    00024D50  _map_1_2_ |    00025470  _map_1_2_
     000255D8  _map_1_3_ |    00025B18  _map_1_3_ |    00025C80  _Map_10_C
     00025C9A  _Map_10_U |    00025CC0  _Map_10_I |    00025D2E  _map_10_c
     00025E96  _Map_11_C |    00025EB0  _Map_11_I |    00025F1E  _map_11_c
     00026086  _Map_11_U |    000260AC  _Map_12_C |    000260C6  _Map_12_U
     000260F8  _Map_12_I |    00026111  _dialogue |    00026267  _dialogue
     000263BD  _Map_12_I |    00026506  _Map_12_C |    0002652D  _Map_12_I
     000265C0  _Map_12_C |    00026693  _dialogue |    000267E9  _dialogue
     0002693F  _Map_13_U |    00026965  _Map_13_I |    000269D3  _map_13_c
     00026B3B  _Map_13_C
ASxxxx Linker V03.00/V05.40 + sdld,  page 36.
Hexadecimal  [32-Bits]

Area                       Addr        Size        Decimal Bytes (Attributes)
--------------------       ----        ----        ------- ----- ------------
_CODE_4                00044000    00003CF1 =       15601. bytes (REL,CON)

        Value  Global            Value  Global            Value  Global    
        -----  ------            -----  ------            -----  ------    
     00044000  _map_3_2_ |    00044530  _map_3_2_ |    00044698  _map_3_0_
     00044ED8  _map_3_0_ |    00045040  _map_3_1_ |    00045670  _map_3_1_
     000457D8  _Map_32_D |    000457F0  _Map_32_U |    0004584F  _Map_32_C
     000458B3  _map_32_c |    00045A21  _Map_32_I |    00045AE6  _Map_32_C
     00045B00  _Map_32_I |    00046371  _Map_32_I |    000464BB  _Map_30_D
     000464E1  _Map_30_C |    000464FB  _Map_30_C |    00046553  _Map_30_I
     00047080  _Map_30_I |    000471E0  _Map_30_U |    00047258  _Map_30_I
     000472E6  _map_30_c |    0004744E  _Map_31_I |    0004746C  _dialogue
     000475C2  _dialogue |    00047718  _Map_31_U |    00047777  _Map_31_C
     000477FD  _Map_31_C |    00047811  _map_31_c |    00047979  _Map_31_I
     00047C75  _Map_31_I
ASxxxx Linker V03.00/V05.40 + sdld,  page 37.
Hexadecimal  [32-Bits]

Area                       Addr        Size        Decimal Bytes (Attributes)
--------------------       ----        ----        ------- ----- ------------
_CODE_6                00064000    00002DFD =       11773. bytes (REL,CON)

        Value  Global            Value  Global            Value  Global    
        -----  ------            -----  ------            -----  ------    
     00064000  _bkg_miss |    00064270  _bkg_miss |    000643D8  _bkg_leav
     00064968  _bkg_leav |    00064AD0  _bkg_home |    00064FE0  _bkg_home
     00065148  _template |    00065318  _template |    00065480  _Mg_SetCo
     000656D7  _Mg_Playe |    0006578D  _Mg_PlayM |    0006578E  _Mg_PlayE
     0006578F  _Mg_StopM |    00065790  _Mg_Instr |    000659F5  _Mg_Leave
     00065A14  _Mg_Leave |    00065C86  _Mg_Leave |    00065D42  _is_being
     00065DBD  _spawn    |    00065E70  _check_ac |    00065FCF  _check_ac
     00066117  _Mg_Leave |    000663BA  _Mg_Leave |    000663D8  _Mg_SetTi
     00066412  _Mg_Timer |    00066436  _Mg_Timer |    0006645A  _Mg_Timer
     0006645F  _Mg_Homew |    000665C4  _Mg_Homew |    000665E2  _Mgh_clea
     0006665C  _Mg_Homew |    00066979  _Mg_LoadS |    000669AC  _Mg_LoadS
     00066A0D  _Mg_Splas |    00066D82  _Mg_Compl |    00066DA1  _load_ext
ASxxxx Linker V03.00/V05.40 + sdld,  page 38.

Files Linked                              [ module(s) ]

/usr/share/gbdk-2020//lib/gb/crt0.o       [ Runtime ]
/tmp/lcc70620.o                           [ items ]
/tmp/lcc70621.o                           [ numbers ]
/tmp/lcc70622.o                           [ buttons ]
/tmp/lcc70623.o                           [ chars ]
/tmp/lcc70624.o                           [ map_2_0 ]
/tmp/lcc70625.o                           [ map_2_3 ]
/tmp/lcc70626.o                           [ map_0_0 ]
/tmp/lcc70627.o                           [ map_0_1 ]
/tmp/lcc70628.o                           [ map_3_3 ]
/tmp/lcc70629.o                           [ map_1_0 ]
/tmp/lcc706210.o                          [ map_2_1 ]
/tmp/lcc706211.o                          [ map_1_1 ]
/tmp/lcc706212.o                          [ map_1_2 ]
/tmp/lcc706213.o                          [ map_1_3 ]
/tmp/lcc706214.o                          [ map_3_2 ]
/tmp/lcc706215.o                          [ map_3_0 ]
/tmp/lcc706216.o                          [ map_0_3 ]
/tmp/lcc706217.o                          [ map_2_2 ]
/tmp/lcc706218.o                          [ map_0_2 ]
/tmp/lcc706219.o                          [ map_3_1 ]
/tmp/lcc706220.o                          [ bkg_MainMenu ]
/tmp/lcc706221.o                          [ gender_select_tilemap ]
/tmp/lcc706222.o                          [ gender_select_tileset ]
/tmp/lcc706223.o                          [ npc_icons ]
/tmp/lcc706224.o                          [ inventory_bkg ]
/tmp/lcc706225.o                          [ bkg_mission_complete ]
/tmp/lcc706226.o                          [ bkg_leaves_example ]
/tmp/lcc706227.o                          [ bkg_homework ]
/tmp/lcc706228.o                          [ correct_icons ]
/tmp/lcc706229.o                          [ template_tileset ]
/tmp/lcc706230.o                          [ template_mg ]
/tmp/lcc706231.o                          [ spr_language_arrow0 ]
/tmp/lcc706232.o                          [ bkg_LanguageSelect ]
/tmp/lcc706233.o                          [ spr_ChicaLibro0 ]
/tmp/lcc706234.o                          [ spr_ViejoDiario0 ]
/tmp/lcc706235.o                          [ spr_Firulais0 ]
/tmp/lcc706236.o                          [ spr_FirulaisRun0 ]
/tmp/lcc706237.o                          [ spr_FirulaisRun1 ]
/tmp/lcc706238.o                          [ spr_ViejaEscoba1 ]
/tmp/lcc706239.o                          [ spr_ViejaEscoba0 ]
/tmp/lcc706240.o                          [ spr_ViejoSuper1 ]
/tmp/lcc706241.o                          [ spr_ViejoSuper0 ]
/tmp/lcc706242.o                          [ spr_PendejoTarea ]
/tmp/lcc706243.o                          [ martin_npc_0 ]
/tmp/lcc706244.o                          [ martin_npc_2 ]
/tmp/lcc706245.o                          [ martin_npc_1 ]
/tmp/lcc706246.o                          [ spr_flag1 ]
/tmp/lcc706247.o                          [ spr_flag0 ]
/tmp/lcc706248.o                          [ spr_ViejaAnteojos0 ]
/tmp/lcc706249.o                          [ spr_Pigeon0 ]
/tmp/lcc706250.o                          [ text_frame ]
/tmp/lcc706251.o                          [ text_frame_init ]
/tmp/lcc706252.o                          [ spr_Martin_down0 ]
/tmp/lcc706253.o                          [ spr_Player_up2 ]
/tmp/lcc706254.o                          [ spr_Player_up0 ]
/tmp/lcc706255.o                          [ spr_Player_up1 ]
/tmp/lcc706256.o                          [ spr_Player_down2 ]
/tmp/lcc706257.o                          [ spr_Player_down0 ]
/tmp/lcc706258.o                          [ spr_Player_down1 ]
/tmp/lcc706259.o                          [ spr_branch ]
/tmp/lcc706260.o                          [ spr_leaf_a ]
/tmp/lcc706261.o                          [ spr_leaf_b ]
/tmp/lcc706262.o                          [ spr_acorn ]
/tmp/lcc706263.o                          [ leaf ]
/tmp/lcc706264.o                          [ broom ]
/tmp/lcc706265.o                          [ spr_garbage ]
/tmp/lcc706266.o                          [ mg_win ]
/tmp/lcc706267.o                          [ mg_lose ]
/tmp/lcc706268.o                          [ mg_music ]
/tmp/lcc706269.o                          [ main ]
/tmp/lcc706270.o                          [ mg_set_coins_reward ]
/tmp/lcc706271.o                          [ mg_player_movement ]
/tmp/lcc706272.o                          [ mg_play_music ]
/tmp/lcc706273.o                          [ mg_instruction_set ]
/tmp/lcc706274.o                          [ mg_leaves ]
/tmp/lcc706275.o                          [ mg_leaves_create ]
/tmp/lcc706276.o                          [ mg_leaves_init ]
/tmp/lcc706277.o                          [ mg_leaves_player_init ]
/tmp/lcc706278.o                          [ mg_leaves_update ]
/tmp/lcc706279.o                          [ mg_leaves_load_bkg ]
/tmp/lcc706280.o                          [ mini_games ]
/tmp/lcc706281.o                          [ mg_timer ]
/tmp/lcc706282.o                          [ mg_homework_init ]
/tmp/lcc706283.o                          [ mg_homework_create ]
/tmp/lcc706284.o                          [ mg_homework_update ]
/tmp/lcc706285.o                          [ mg_homework ]
/tmp/lcc706286.o                          [ mg_homework_init_question ]
/tmp/lcc706287.o                          [ mg_load_screen ]
/tmp/lcc706288.o                          [ mg_mission_complete ]
/tmp/lcc706289.o                          [ map_20_create ]
/tmp/lcc706290.o                          [ map_20_destroy ]
/tmp/lcc706291.o                          [ map_20 ]
/tmp/lcc706292.o                          [ map_20_update ]
/tmp/lcc706293.o                          [ map_20_dialogues ]
/tmp/lcc706294.o                          [ map_20_collision ]
/tmp/lcc706295.o                          [ map_20_input ]
/tmp/lcc706296.o                          [ map_20_init_npc ]
/tmp/lcc706297.o                          [ map_20_init ]
/tmp/lcc706298.o                          [ map_23 ]
/tmp/lcc706299.o                          [ map_23_dialogues ]
/tmp/lcc7062100.o                         [ map_23_collision ]
/tmp/lcc7062101.o                         [ map_23_update ]
/tmp/lcc7062102.o                         [ map_23_input ]
/tmp/lcc7062103.o                         [ map_23_create ]
/tmp/lcc7062104.o                         [ map_23_show_books ]
/tmp/lcc7062105.o                         [ map_23_init ]
/tmp/lcc7062106.o                         [ map_23_init_npc ]
/tmp/lcc7062107.o                         [ item_no_use ]
/tmp/lcc7062108.o                         [ map_00_collision ]
/tmp/lcc7062109.o                         [ map_00_create ]
/tmp/lcc7062110.o                         [ map_00_update ]
/tmp/lcc7062111.o                         [ map_00 ]
/tmp/lcc7062112.o                         [ map_00_init ]
/tmp/lcc7062113.o                         [ map_collision ]
/tmp/lcc7062114.o                         [ map_01_collision ]
/tmp/lcc7062115.o                         [ map_01_create ]
/tmp/lcc7062116.o                         [ map_01_update ]
/tmp/lcc7062117.o                         [ map_01 ]
/tmp/lcc7062118.o                         [ map_01_init ]
/tmp/lcc7062119.o                         [ map_33_init_npc ]
/tmp/lcc7062120.o                         [ map_33_update ]
/tmp/lcc7062121.o                         [ map_33 ]
/tmp/lcc7062122.o                         [ map_33_bkg ]
/tmp/lcc7062123.o                         [ map_33_dialogue ]
/tmp/lcc7062124.o                         [ map_33_collision ]
/tmp/lcc7062125.o                         [ map_33_input ]
/tmp/lcc7062126.o                         [ map_33_create ]
/tmp/lcc7062127.o                         [ map_33_init ]
/tmp/lcc7062128.o                         [ map_10_create ]
/tmp/lcc7062129.o                         [ map_10_update ]
/tmp/lcc7062130.o                         [ map_10_init ]
/tmp/lcc7062131.o                         [ map_10 ]
/tmp/lcc7062132.o                         [ map_10_collision ]
/tmp/lcc7062133.o                         [ map_21 ]
/tmp/lcc7062134.o                         [ map_21_update ]
/tmp/lcc7062135.o                         [ map_21_init ]
/tmp/lcc7062136.o                         [ map_21_create ]
/tmp/lcc7062137.o                         [ map_21_collision ]
/tmp/lcc7062138.o                         [ map_11_create ]
/tmp/lcc7062139.o                         [ map_11_init ]
/tmp/lcc7062140.o                         [ map_11 ]
/tmp/lcc7062141.o                         [ map_11_collision ]
/tmp/lcc7062142.o                         [ map_11_update ]
/tmp/lcc7062143.o                         [ clean_text ]
/tmp/lcc7062144.o                         [ map_12_create ]
/tmp/lcc7062145.o                         [ map_12_update ]
/tmp/lcc7062146.o                         [ map_12_dialogues ]
/tmp/lcc7062147.o                         [ map_12 ]
/tmp/lcc7062148.o                         [ map_12_init_npc ]
/tmp/lcc7062149.o                         [ map_12_collision ]
/tmp/lcc7062150.o                         [ map_12_input ]
/tmp/lcc7062151.o                         [ map_12_init ]
/tmp/lcc7062152.o                         [ map_12_check_items ]
/tmp/lcc7062153.o                         [ map_13 ]
/tmp/lcc7062154.o                         [ map_13_update ]
/tmp/lcc7062155.o                         [ map_13_init ]
/tmp/lcc7062156.o                         [ map_13_collision ]
/tmp/lcc7062157.o                         [ map_13_create ]
/tmp/lcc7062158.o                         [ map_32_destroy ]
/tmp/lcc7062159.o                         [ map_32_update ]
/tmp/lcc7062160.o                         [ map_32_input ]
/tmp/lcc7062161.o                         [ map_32 ]
/tmp/lcc7062162.o                         [ map_32_collision ]
/tmp/lcc7062163.o                         [ map_32_init ]
/tmp/lcc7062164.o                         [ map_32_create ]
/tmp/lcc7062165.o                         [ map_32_dialogue ]
/tmp/lcc7062166.o                         [ map_32_init_npc ]
/tmp/lcc7062167.o                         [ map_player_movement ]
/tmp/lcc7062168.o                         [ map_30_destroy ]
/tmp/lcc7062169.o                         [ map_30_create ]
/tmp/lcc7062170.o                         [ map_30_input ]
/tmp/lcc7062171.o                         [ map_30_dialogues ]
/tmp/lcc7062172.o                         [ map_30_init_npc ]
/tmp/lcc7062173.o                         [ map_30_update ]
/tmp/lcc7062174.o                         [ map_30_init ]
/tmp/lcc7062175.o                         [ map_30 ]
/tmp/lcc7062176.o                         [ map_30_collision ]
/tmp/lcc7062177.o                         [ map_03_create ]
/tmp/lcc7062178.o                         [ map_03_init ]
/tmp/lcc7062179.o                         [ map_03 ]
/tmp/lcc7062180.o                         [ map_03_update ]
/tmp/lcc7062181.o                         [ map_03_collision ]
/tmp/lcc7062182.o                         [ map_22_collision ]
/tmp/lcc7062183.o                         [ map_22 ]
/tmp/lcc7062184.o                         [ map_22_input ]
/tmp/lcc7062185.o                         [ map_22_init_npc ]
/tmp/lcc7062186.o                         [ map_22_dialogues ]
/tmp/lcc7062187.o                         [ map_22_destroy ]
/tmp/lcc7062188.o                         [ map_22_create ]
/tmp/lcc7062189.o                         [ map_22_check_items ]
/tmp/lcc7062190.o                         [ map_22_init ]
/tmp/lcc7062191.o                         [ map_22_update ]
/tmp/lcc7062192.o                         [ auto_clean ]
/tmp/lcc7062193.o                         [ map_data ]
/tmp/lcc7062194.o                         [ map_02 ]
/tmp/lcc7062195.o                         [ map_02_create ]
/tmp/lcc7062196.o                         [ map_02_collision ]
/tmp/lcc7062197.o                         [ map_02_update ]
/tmp/lcc7062198.o                         [ map_02_init_npc ]
/tmp/lcc7062199.o                         [ map_02_init ]
/tmp/lcc7062200.o                         [ map_31_dialogues ]
/tmp/lcc7062201.o                         [ map_31_update ]
/tmp/lcc7062202.o                         [ map_31_input ]
/tmp/lcc7062203.o                         [ map_31_create ]
/tmp/lcc7062204.o                         [ map_31_collision ]
/tmp/lcc7062205.o                         [ map_31_init_npcs ]
/tmp/lcc7062206.o                         [ map_31 ]
/tmp/lcc7062207.o                         [ map_31_init ]
/tmp/lcc7062208.o                         [ main_menu ]
/tmp/lcc7062209.o                         [ main_menu_input ]
/tmp/lcc7062210.o                         [ main_menu_create ]
/tmp/lcc7062211.o                         [ main_menu_destroy ]
/tmp/lcc7062212.o                         [ main_menu_init_stats ]
/tmp/lcc7062213.o                         [ main_menu_init ]
/tmp/lcc7062214.o                         [ main_menu_update ]
/tmp/lcc7062215.o                         [ gender_select ]
/tmp/lcc7062216.o                         [ gender_select_init ]
/tmp/lcc7062217.o                         [ gender_select_update ]
/tmp/lcc7062218.o                         [ story_init ]
/tmp/lcc7062219.o                         [ story_update ]
/tmp/lcc7062220.o                         [ story ]
/tmp/lcc7062221.o                         [ inventory_scene_init ]
/tmp/lcc7062222.o                         [ inventory_new_item ]
/tmp/lcc7062223.o                         [ inventory_scene_update ]
/tmp/lcc7062224.o                         [ inventory_scene_arrow ]
/tmp/lcc7062225.o                         [ inventory_scene_draw_coins ]
/tmp/lcc7062226.o                         [ inventory_scene_create ]
/tmp/lcc7062227.o                         [ inventory_scene_input ]
/tmp/lcc7062228.o                         [ inventory_scene ]
/tmp/lcc7062229.o                         [ language_select_update ]
/tmp/lcc7062230.o                         [ language_select ]
/tmp/lcc7062231.o                         [ language_select_init ]
/tmp/lcc7062232.o                         [ language_select_input ]
/tmp/lcc7062233.o                         [ language_select_create ]
/tmp/lcc7062234.o                         [ random ]
/tmp/lcc7062235.o                         [ scene ]
/tmp/lcc7062236.o                         [ entity ]
/tmp/lcc7062237.o                         [ npc_lines ]
/tmp/lcc7062238.o                         [ collision ]
/tmp/lcc7062239.o                         [ mgm_states ]
/tmp/lcc7062240.o                         [ minigames ]
/tmp/lcc7062241.o                         [ load_extra ]
/tmp/lcc7062242.o                         [ all_scenes ]
/tmp/lcc7062243.o                         [ npcs ]
/tmp/lcc7062244.o                         [ scene_manager ]
/tmp/lcc7062245.o                         [ intermitent_text ]
/tmp/lcc7062246.o                         [ can_move ]
/tmp/lcc7062247.o                         [ render ]
/tmp/lcc7062248.o                         [ name ]
/tmp/lcc7062249.o                         [ draw ]
/tmp/lcc7062250.o                         [ inventory_init ]
/tmp/lcc7062251.o                         [ map_scenes ]
/tmp/lcc7062252.o                         [ action ]
/tmp/lcc7062253.o                         [ position ]
/tmp/lcc7062254.o                         [ inventory ]
/tmp/lcc7062255.o                         [ animation ]
/tmp/lcc7062256.o                         [ language ]
/tmp/lcc7062257.o                         [ char_to_tile ]
/tmp/lcc7062258.o                         [ extra_actors ]
/tmp/lcc7062259.o                         [ money ]
/tmp/lcc7062260.o                         [ input ]
/tmp/lcc7062261.o                         [ load ]
/tmp/lcc7062262.o                         [ speed ]
/tmp/lcc7062263.o                         [ gender_selection ]
/tmp/lcc7062264.o                         [ player ]


Libraries Linked                          [ object file ]

/usr/share/gbdk-2020//lib/sm83/sm83.lib   [ free.o ]
/usr/share/gbdk-2020//lib/gb/gb.lib       [ sfr.o ]
/usr/share/gbdk-2020//lib/sm83/sm83.lib   [ div.o ]
/usr/share/gbdk-2020//lib/gb/gb.lib       [ get_tile.o ]
/usr/share/gbdk-2020//lib/sm83/sm83.lib   [ malloc.o ]
/usr/share/gbdk-2020//lib/gb/gb.lib       [ set_data.o ]
/usr/share/gbdk-2020//lib/gb/gb.lib       [ set_tile.o ]
/usr/share/gbdk-2020//lib/sm83/sm83.lib   [ mul.o ]
/usr/share/gbdk-2020//lib/gb/gb.lib       [ pad.o ]
/usr/share/gbdk-2020//lib/sm83/sm83.lib   [ memcpy.o ]
/usr/share/gbdk-2020//lib/sm83/sm83.lib   [ __sdcc_call_hl.o ]
/usr/share/gbdk-2020//lib/gb/gb.lib       [ heap.o ]
/usr/share/gbdk-2020//lib/gb/gb.lib       [ set_bk_t.o ]
/usr/share/gbdk-2020//lib/gb/gb.lib       [ set_xy_t.o ]

ASxxxx Linker V03.00/V05.40 + sdld,  page 39.

User Base Address Definitions

_DATA=0xC0A0
_CODE=0x0200
_HRAM=0xFF80
ASxxxx Linker V03.00/V05.40 + sdld,  page 40.

User Global Definitions

_shadow_OAM=0xC000
.STACK=0xE000

