ASxxxx Linker V03.00/V05.40 + sdld,  page 1.
Hexadecimal  [32-Bits]

Area                                    Addr        Size        Decimal Bytes (Attributes)
--------------------------------        ----        ----        ------- ----- ------------
.  .ABS.                            00000000    00000000 =           0. bytes (ABS,CON)

      Value  Global                              Global Defined In Module
      -----  --------------------------------   ------------------------
     00000000  .__.ABS.                           SetTileMap
     00000000  _rMBC7_SRAM_ENABLE_1               
     00000000  _rRAMG                             
     00000000  l__BASE                         
     00000000  l__BSS                          
     00000000  l__CABS                         
     00000000  l__CODE_0                       
     00000000  l__DABS                         
     00000000  l__HEADER                       
     00000000  l__LIT                          
     00000000  s__CABS                         
     00000000  s__DABS                         
     00000000  s__HEADER                       
     00000000  s__HEADER0                      
     00000000  s__HEADER1                      
     00000000  s__HEADER10                     
     00000000  s__HEADER11                     
     00000000  s__HEADER2                      
     00000000  s__HEADER3                      
     00000000  s__HEADER4                      
     00000000  s__HEADER5                      
     00000000  s__HEADER6                      
     00000000  s__HEADER7                      
     00000000  s__HEADER8                      
     00000000  s__HEADER9                      
     00000000  s__HEADERa                      
     00000000  s__HEADERb                      
     00000000  s__HEADERc                      
     00000000  s__HEADERd                      
     00000000  s__HEADERe                      
     00000000  s__HEADERf                      
     00000001  l__GSFINAL                      
     00000001  l__HEADER0                      
     00000001  l__HEADER5                      
     00000001  l__HEADERa                      
     00000001  l__HEADERb                      
     00000001  l__HEADERc                      
     00000001  l__HEADERe                      
     00000001  l__HEADERf                      
     00000001  l__HEAP_END                     
     00000002  l__HEADER10                     
     00000002  l__HEADER6                      
     00000002  l__HEADERd                      
     00000003  l__HEADER9                      
     00000005  l__HEADER1                      
     00000006  l__HEADER8                      
     00000007  l__HEADER2                      
     00000008  l__HEADER3                      
     0000000F  l__GSINIT                       
     00000013  l__HRAM                         
ASxxxx Linker V03.00/V05.40 + sdld,  page 2.
Hexadecimal  [32-Bits]

Area                                    Addr        Size        Decimal Bytes (Attributes)
--------------------------------        ----        ----        ------- ----- ------------
.  .ABS.                            00000000    00000000 =           0. bytes (ABS,CON)

      Value  Global                              Global Defined In Module
      -----  --------------------------------   ------------------------
     00000030  l__HEADER7                      
     00000060  l__HEADER4                      
     000000AB  l__HEADER11                     
     0000012C  l__HOME                         
     000001BB  l__DATA                         
     000001E5  l__INITIALIZED                  
     000001E5  l__INITIALIZER                  
     00000200  s__CODE                         
     000007FF  l__HEAP                         
     00000EE8  l__CODE_1                       
     00002000  _rROMB0                            
     00002573  l__CODE                         
     00002773  s__HOME                         
     0000289F  s__BASE                         
     0000289F  s__CODE_0                       
     0000289F  s__INITIALIZER                  
     0000289F  s__LIT                          
     00002A84  s__GSINIT                       
     00002A93  s__GSFINAL                      
     00003000  _rROMB1                            
     00004000  _rMBC7_SRAM_ENABLE_2               
     00004000  _rRAMB                             
     00008000  __VRAM                             
     00008000  __VRAM8000                         
     00008800  __VRAM8800                         
     00009000  __VRAM9000                         
     00009800  __SCRN0                            
     00009C00  __SCRN1                            
     0000A000  __SRAM                             
     0000A000  _rMBC7_LATCH_1                     
     0000A010  _rMBC7_LATCH_2                     
     0000A020  _rMBC7_ACCEL_X_LO                  
     0000A030  _rMBC7_ACCEL_X_HI                  
     0000A040  _rMBC7_ACCEL_Y_LO                  
     0000A050  _rMBC7_ACCEL_Y_HI                  
     0000C000  __RAM                              
     0000C000  _shadow_OAM                     
     0000C0A0  s__DATA                         
     0000C25B  s__BSS                          
     0000C25B  s__INITIALIZED                  
     0000C440  s__HEAP                         
     0000CC3F  s__HEAP_END                     
     0000D000  __RAMBANK                          
     0000E000  .STACK                          
     0000FE00  __OAMRAM                           
     0000FF00  _P1_REG                            
     0000FF00  __IO                               
     0000FF01  _SB_REG                            
     0000FF02  _SC_REG                            
     0000FF04  _DIV_REG                           
     0000FF05  _TIMA_REG                          
ASxxxx Linker V03.00/V05.40 + sdld,  page 3.
Hexadecimal  [32-Bits]

Area                                    Addr        Size        Decimal Bytes (Attributes)
--------------------------------        ----        ----        ------- ----- ------------
.  .ABS.                            00000000    00000000 =           0. bytes (ABS,CON)

      Value  Global                              Global Defined In Module
      -----  --------------------------------   ------------------------
     0000FF06  _TMA_REG                           
     0000FF07  _TAC_REG                           
     0000FF0F  _IF_REG                            
     0000FF10  _NR10_REG                          
     0000FF11  _NR11_REG                          
     0000FF12  _NR12_REG                          
     0000FF13  _NR13_REG                          
     0000FF14  _NR14_REG                          
     0000FF16  _NR21_REG                          
     0000FF17  _NR22_REG                          
     0000FF18  _NR23_REG                          
     0000FF19  _NR24_REG                          
     0000FF1A  _NR30_REG                          
     0000FF1B  _NR31_REG                          
     0000FF1C  _NR32_REG                          
     0000FF1D  _NR33_REG                          
     0000FF1E  _NR34_REG                          
     0000FF20  _NR41_REG                          
     0000FF21  _NR42_REG                          
     0000FF22  _NR43_REG                          
     0000FF23  _NR44_REG                          
     0000FF24  _NR50_REG                          
     0000FF25  _NR51_REG                          
     0000FF26  _NR52_REG                          
     0000FF30  _AUD3WAVE                          
     0000FF30  _PCM_SAMPLE                        
     0000FF30  __AUD3WAVERAM                      
     0000FF40  _LCDC_REG                          
     0000FF41  _STAT_REG                          
     0000FF42  _SCY_REG                           
     0000FF43  _SCX_REG                           
     0000FF44  _LY_REG                            
     0000FF45  _LYC_REG                           
     0000FF46  _DMA_REG                           
     0000FF47  _BGP_REG                           
     0000FF48  _OBP0_REG                          
     0000FF49  _OBP1_REG                          
     0000FF4A  _WY_REG                            
     0000FF4B  _WX_REG                            
     0000FF4D  _KEY1_REG                          
     0000FF4F  _VBK_REG                           
     0000FF51  _HDMA1_REG                         
     0000FF52  _HDMA2_REG                         
     0000FF53  _HDMA3_REG                         
     0000FF54  _HDMA4_REG                         
     0000FF55  _HDMA5_REG                         
     0000FF56  _RP_REG                            
     0000FF68  _BCPS_REG                          
     0000FF69  _BCPD_REG                          
     0000FF6A  _OCPS_REG                          
     0000FF6B  _OCPD_REG                          
ASxxxx Linker V03.00/V05.40 + sdld,  page 4.
Hexadecimal  [32-Bits]

Area                                    Addr        Size        Decimal Bytes (Attributes)
--------------------------------        ----        ----        ------- ----- ------------
.  .ABS.                            00000000    00000000 =           0. bytes (ABS,CON)

      Value  Global                              Global Defined In Module
      -----  --------------------------------   ------------------------
     0000FF70  _SVBK_REG                          
     0000FF76  _PCM12_REG                         
     0000FF77  _PCM34_REG                         
     0000FF80  __HRAM                             
     0000FF80  s__HRAM                         
     0000FFFF  _IE_REG                            
     00014000  s__CODE_1                       
ASxxxx Linker V03.00/V05.40 + sdld,  page 5.
Hexadecimal  [32-Bits]

Area                                    Addr        Size        Decimal Bytes (Attributes)
--------------------------------        ----        ----        ------- ----- ------------
_CODE                               00000200    00002573 =        9587. bytes (REL,CON)

      Value  Global                              Global Defined In Module
      -----  --------------------------------   ------------------------
     00000200  G$chars_tileset$0_0$0              chars
     00000200  _chars_tileset                     chars
     000003F0  G$chars_tilemap$0_0$0              chars
     000003F0  _chars_tilemap                     chars
     0000040E  G$numbers_tileset$0_0$0            numbers
     0000040E  _numbers_tileset                   numbers
     000004AE  G$numbers_tilemap$0_0$0            numbers
     000004AE  _numbers_tilemap                   numbers
     000004B8  G$gender_select_tilemap$0_0$0      gender_select_tilemap
     000004B8  _gender_select_tilemap             gender_select_tilemap
     00000620  G$gender_select_tileset$0_0$0      gender_select_tileset
     00000620  _gender_select_tileset             gender_select_tileset
     00000910  A$lcc155807$58                     npc_icons
     00000910  C$npc_icons.c$27$0_0$127           npc_icons
     00000910  C$npc_icons.c$28$1_0$127           npc_icons
     00000910  G$InitNPCIcons$0$0                 npc_icons
     00000910  _InitNPCIcons                      npc_icons
     00000913  A$lcc155807$59                     npc_icons
     00000914  A$lcc155807$60                     npc_icons
     00000917  A$lcc155807$61                     npc_icons
     00000918  A$lcc155807$62                     npc_icons
     0000091B  A$lcc155807$63                     npc_icons
     0000091D  A$lcc155807$71                     npc_icons
     0000091D  C$npc_icons.c$29$1_0$127           npc_icons
     0000091D  XG$InitNPCIcons$0$0                npc_icons
     0000091E  G$npc_icons_tileset$0_0$0          npc_icons
     0000091E  _npc_icons_tileset                 npc_icons
     0000097E  G$npc_icons_tilemap$0_0$0          npc_icons
     0000097E  _npc_icons_tilemap                 npc_icons
     00000984  G$template_tilemap$0_0$0           template_tilemap
     00000984  _template_tilemap                  template_tilemap
     00000AEC  G$template_tileset$0_0$0           template_tileset
     00000AEC  _template_tileset                  template_tileset
     00000CBC  G$spr_Branch$0_0$0                 spr_Branch
     00000CBC  _spr_Branch                        spr_Branch
     00000CCC  A$lcc1558019$66                    action
     00000CCC  C$action.c$12$0_0$150              action
     00000CCC  G$move_up$0$0                      action
     00000CCC  _move_up                           action
     00000CCE  A$lcc1558019$67                    action
     00000CD0  A$lcc1558019$68                    action
     00000CD1  A$lcc1558019$72                    action
     00000CD1  C$action.c$14$2_0$151              action
     00000CD4  A$lcc1558019$73                    action
     00000CD6  A$lcc1558019$77                    action
     00000CD6  C$action.c$15$2_0$151              action
     00000CD8  A$lcc1558019$81                    action
     00000CD8  C$action.c$17$1_0$150              action
     00000CDA  A$lcc1558019$82                    action
     00000CDB  A$lcc1558019$83                    action
ASxxxx Linker V03.00/V05.40 + sdld,  page 6.
Hexadecimal  [32-Bits]

Area                                    Addr        Size        Decimal Bytes (Attributes)
--------------------------------        ----        ----        ------- ----- ------------
_CODE                               00000200    00002573 =        9587. bytes (REL,CON)

      Value  Global                              Global Defined In Module
      -----  --------------------------------   ------------------------
     00000CDC  A$lcc1558019$84                    action
     00000CDE  A$lcc1558019$85                    action
     00000CDF  A$lcc1558019$86                    action
     00000CE1  A$lcc1558019$87                    action
     00000CE3  A$lcc1558019$88                    action
     00000CE4  A$lcc1558019$89                    action
     00000CE7  A$lcc1558019$90                    action
     00000CE9  A$lcc1558019$91                    action
     00000CEA  A$lcc1558019$92                    action
     00000CEB  A$lcc1558019$93                    action
     00000CEC  A$lcc1558019$94                    action
     00000CED  A$lcc1558019$95                    action
     00000CEE  A$lcc1558019$96                    action
     00000CEF  A$lcc1558019$97                    action
     00000CF0  A$lcc1558019$98                    action
     00000CF1  A$lcc1558019$99                    action
     00000CF2  A$lcc1558019$100                   action
     00000CF3  A$lcc1558019$101                   action
     00000CF5  A$lcc1558019$102                   action
     00000CF6  A$lcc1558019$103                   action
     00000CF8  A$lcc1558019$104                   action
     00000CF9  A$lcc1558019$105                   action
     00000CFB  A$lcc1558019$106                   action
     00000CFC  A$lcc1558019$107                   action
     00000CFE  A$lcc1558019$108                   action
     00000CFF  A$lcc1558019$109                   action
     00000D01  A$lcc1558019$110                   action
     00000D02  A$lcc1558019$111                   action
     00000D04  A$lcc1558019$112                   action
     00000D05  A$lcc1558019$113                   action
     00000D06  A$lcc1558019$114                   action
     00000D07  A$lcc1558019$115                   action
     00000D08  A$lcc1558019$116                   action
     00000D09  A$lcc1558019$117                   action
     00000D0A  A$lcc1558019$118                   action
     00000D0B  A$lcc1558019$119                   action
     00000D0C  A$lcc1558019$120                   action
     00000D0D  A$lcc1558019$121                   action
     00000D0E  A$lcc1558019$122                   action
     00000D10  A$lcc1558019$123                   action
     00000D11  A$lcc1558019$124                   action
     00000D12  A$lcc1558019$125                   action
     00000D13  A$lcc1558019$126                   action
     00000D14  A$lcc1558019$127                   action
     00000D15  A$lcc1558019$128                   action
     00000D16  A$lcc1558019$129                   action
     00000D17  A$lcc1558019$130                   action
     00000D18  A$lcc1558019$131                   action
     00000D19  A$lcc1558019$132                   action
     00000D1A  A$lcc1558019$136                   action
     00000D1A  C$action.c$18$1_0$150              action
ASxxxx Linker V03.00/V05.40 + sdld,  page 7.
Hexadecimal  [32-Bits]

Area                                    Addr        Size        Decimal Bytes (Attributes)
--------------------------------        ----        ----        ------- ----- ------------
_CODE                               00000200    00002573 =        9587. bytes (REL,CON)

      Value  Global                              Global Defined In Module
      -----  --------------------------------   ------------------------
     00000D1D  A$lcc1558019$137                   action
     00000D1E  A$lcc1558019$138                   action
     00000D1F  A$lcc1558019$139                   action
     00000D21  A$lcc1558019$140                   action
     00000D22  A$lcc1558019$141                   action
     00000D23  A$lcc1558019$142                   action
     00000D24  A$lcc1558019$143                   action
     00000D25  A$lcc1558019$144                   action
     00000D26  A$lcc1558019$149                   action
     00000D28  A$lcc1558019$154                   action
     00000D28  C$action.c$19$1_0$150              action
     00000D28  XG$move_up$0$0                     action
     00000D29  A$lcc1558019$164                   action
     00000D29  C$action.c$21$1_0$153              action
     00000D29  G$move_down$0$0                    action
     00000D29  _move_down                         action
     00000D2B  A$lcc1558019$165                   action
     00000D2D  A$lcc1558019$166                   action
     00000D2E  A$lcc1558019$170                   action
     00000D2E  C$action.c$23$2_0$154              action
     00000D31  A$lcc1558019$171                   action
     00000D33  A$lcc1558019$175                   action
     00000D33  C$action.c$24$2_0$154              action
     00000D35  A$lcc1558019$179                   action
     00000D35  C$action.c$26$1_0$153              action
     00000D37  A$lcc1558019$180                   action
     00000D38  A$lcc1558019$181                   action
     00000D39  A$lcc1558019$182                   action
     00000D3B  A$lcc1558019$183                   action
     00000D3C  A$lcc1558019$184                   action
     00000D3E  A$lcc1558019$185                   action
     00000D40  A$lcc1558019$186                   action
     00000D41  A$lcc1558019$187                   action
     00000D44  A$lcc1558019$188                   action
     00000D46  A$lcc1558019$189                   action
     00000D47  A$lcc1558019$190                   action
     00000D48  A$lcc1558019$191                   action
     00000D49  A$lcc1558019$192                   action
     00000D4A  A$lcc1558019$193                   action
     00000D4B  A$lcc1558019$194                   action
     00000D4C  A$lcc1558019$195                   action
     00000D4D  A$lcc1558019$196                   action
     00000D4F  A$lcc1558019$197                   action
     00000D50  A$lcc1558019$198                   action
     00000D51  A$lcc1558019$199                   action
     00000D53  A$lcc1558019$200                   action
     00000D54  A$lcc1558019$201                   action
     00000D55  A$lcc1558019$202                   action
     00000D56  A$lcc1558019$203                   action
     00000D57  A$lcc1558019$204                   action
     00000D58  A$lcc1558019$205                   action
ASxxxx Linker V03.00/V05.40 + sdld,  page 8.
Hexadecimal  [32-Bits]

Area                                    Addr        Size        Decimal Bytes (Attributes)
--------------------------------        ----        ----        ------- ----- ------------
_CODE                               00000200    00002573 =        9587. bytes (REL,CON)

      Value  Global                              Global Defined In Module
      -----  --------------------------------   ------------------------
     00000D59  A$lcc1558019$206                   action
     00000D5A  A$lcc1558019$207                   action
     00000D5B  A$lcc1558019$208                   action
     00000D5C  A$lcc1558019$209                   action
     00000D5D  A$lcc1558019$213                   action
     00000D5D  C$action.c$27$1_0$153              action
     00000D60  A$lcc1558019$214                   action
     00000D62  A$lcc1558019$215                   action
     00000D63  A$lcc1558019$216                   action
     00000D65  A$lcc1558019$217                   action
     00000D66  A$lcc1558019$218                   action
     00000D67  A$lcc1558019$219                   action
     00000D68  A$lcc1558019$220                   action
     00000D69  A$lcc1558019$221                   action
     00000D6A  A$lcc1558019$226                   action
     00000D6C  A$lcc1558019$231                   action
     00000D6C  C$action.c$28$1_0$153              action
     00000D6C  XG$move_down$0$0                   action
     00000D6D  A$lcc1558019$241                   action
     00000D6D  C$action.c$30$1_0$156              action
     00000D6D  G$move_left$0$0                    action
     00000D6D  _move_left                         action
     00000D6F  A$lcc1558019$242                   action
     00000D71  A$lcc1558019$243                   action
     00000D72  A$lcc1558019$247                   action
     00000D72  C$action.c$32$2_0$157              action
     00000D75  A$lcc1558019$248                   action
     00000D77  A$lcc1558019$252                   action
     00000D77  C$action.c$33$2_0$157              action
     00000D79  A$lcc1558019$256                   action
     00000D79  C$action.c$35$1_0$156              action
     00000D7B  A$lcc1558019$257                   action
     00000D7C  A$lcc1558019$258                   action
     00000D7D  A$lcc1558019$259                   action
     00000D7F  A$lcc1558019$260                   action
     00000D80  A$lcc1558019$261                   action
     00000D82  A$lcc1558019$262                   action
     00000D84  A$lcc1558019$263                   action
     00000D85  A$lcc1558019$264                   action
     00000D88  A$lcc1558019$265                   action
     00000D8A  A$lcc1558019$266                   action
     00000D8B  A$lcc1558019$267                   action
     00000D8C  A$lcc1558019$268                   action
     00000D8D  A$lcc1558019$269                   action
     00000D8E  A$lcc1558019$270                   action
     00000D8F  A$lcc1558019$271                   action
     00000D90  A$lcc1558019$272                   action
     00000D91  A$lcc1558019$273                   action
     00000D92  A$lcc1558019$274                   action
     00000D93  A$lcc1558019$275                   action
     00000D94  A$lcc1558019$276                   action
ASxxxx Linker V03.00/V05.40 + sdld,  page 9.
Hexadecimal  [32-Bits]

Area                                    Addr        Size        Decimal Bytes (Attributes)
--------------------------------        ----        ----        ------- ----- ------------
_CODE                               00000200    00002573 =        9587. bytes (REL,CON)

      Value  Global                              Global Defined In Module
      -----  --------------------------------   ------------------------
     00000D96  A$lcc1558019$277                   action
     00000D97  A$lcc1558019$278                   action
     00000D99  A$lcc1558019$279                   action
     00000D9A  A$lcc1558019$280                   action
     00000D9C  A$lcc1558019$281                   action
     00000D9D  A$lcc1558019$282                   action
     00000D9F  A$lcc1558019$283                   action
     00000DA0  A$lcc1558019$284                   action
     00000DA2  A$lcc1558019$285                   action
     00000DA3  A$lcc1558019$286                   action
     00000DA5  A$lcc1558019$287                   action
     00000DA6  A$lcc1558019$288                   action
     00000DA7  A$lcc1558019$289                   action
     00000DA8  A$lcc1558019$290                   action
     00000DA9  A$lcc1558019$291                   action
     00000DAA  A$lcc1558019$292                   action
     00000DAB  A$lcc1558019$293                   action
     00000DAC  A$lcc1558019$294                   action
     00000DAD  A$lcc1558019$295                   action
     00000DAE  A$lcc1558019$296                   action
     00000DAF  A$lcc1558019$297                   action
     00000DB1  A$lcc1558019$298                   action
     00000DB2  A$lcc1558019$299                   action
     00000DB3  A$lcc1558019$300                   action
     00000DB4  A$lcc1558019$301                   action
     00000DB5  A$lcc1558019$305                   action
     00000DB5  C$action.c$36$1_0$156              action
     00000DB6  A$lcc1558019$306                   action
     00000DB7  A$lcc1558019$307                   action
     00000DB8  A$lcc1558019$308                   action
     00000DB9  A$lcc1558019$309                   action
     00000DBA  A$lcc1558019$310                   action
     00000DBB  A$lcc1558019$311                   action
     00000DBC  A$lcc1558019$312                   action
     00000DBD  A$lcc1558019$313                   action
     00000DC0  A$lcc1558019$314                   action
     00000DC1  A$lcc1558019$315                   action
     00000DC3  A$lcc1558019$316                   action
     00000DC4  A$lcc1558019$317                   action
     00000DC5  A$lcc1558019$318                   action
     00000DC6  A$lcc1558019$319                   action
     00000DC7  A$lcc1558019$320                   action
     00000DC8  A$lcc1558019$321                   action
     00000DC9  A$lcc1558019$326                   action
     00000DCB  A$lcc1558019$331                   action
     00000DCB  C$action.c$37$1_0$156              action
     00000DCB  XG$move_left$0$0                   action
     00000DCC  A$lcc1558019$341                   action
     00000DCC  C$action.c$39$1_0$159              action
     00000DCC  G$move_right$0$0                   action
     00000DCC  _move_right                        action
ASxxxx Linker V03.00/V05.40 + sdld,  page 10.
Hexadecimal  [32-Bits]

Area                                    Addr        Size        Decimal Bytes (Attributes)
--------------------------------        ----        ----        ------- ----- ------------
_CODE                               00000200    00002573 =        9587. bytes (REL,CON)

      Value  Global                              Global Defined In Module
      -----  --------------------------------   ------------------------
     00000DCE  A$lcc1558019$342                   action
     00000DD0  A$lcc1558019$343                   action
     00000DD1  A$lcc1558019$347                   action
     00000DD1  C$action.c$41$2_0$160              action
     00000DD4  A$lcc1558019$348                   action
     00000DD6  A$lcc1558019$352                   action
     00000DD6  C$action.c$42$2_0$160              action
     00000DD8  A$lcc1558019$356                   action
     00000DD8  C$action.c$44$1_0$159              action
     00000DDA  A$lcc1558019$357                   action
     00000DDB  A$lcc1558019$358                   action
     00000DDC  A$lcc1558019$359                   action
     00000DDE  A$lcc1558019$360                   action
     00000DDF  A$lcc1558019$361                   action
     00000DE1  A$lcc1558019$362                   action
     00000DE3  A$lcc1558019$363                   action
     00000DE4  A$lcc1558019$364                   action
     00000DE7  A$lcc1558019$365                   action
     00000DE9  A$lcc1558019$366                   action
     00000DEA  A$lcc1558019$367                   action
     00000DEB  A$lcc1558019$368                   action
     00000DEC  A$lcc1558019$369                   action
     00000DED  A$lcc1558019$370                   action
     00000DEE  A$lcc1558019$371                   action
     00000DEF  A$lcc1558019$372                   action
     00000DF0  A$lcc1558019$373                   action
     00000DF2  A$lcc1558019$374                   action
     00000DF3  A$lcc1558019$375                   action
     00000DF4  A$lcc1558019$376                   action
     00000DF6  A$lcc1558019$377                   action
     00000DF7  A$lcc1558019$378                   action
     00000DF8  A$lcc1558019$379                   action
     00000DF9  A$lcc1558019$380                   action
     00000DFA  A$lcc1558019$381                   action
     00000DFB  A$lcc1558019$382                   action
     00000DFC  A$lcc1558019$383                   action
     00000DFD  A$lcc1558019$384                   action
     00000DFE  A$lcc1558019$385                   action
     00000DFF  A$lcc1558019$386                   action
     00000E00  A$lcc1558019$390                   action
     00000E00  C$action.c$45$1_0$159              action
     00000E01  A$lcc1558019$391                   action
     00000E04  A$lcc1558019$392                   action
     00000E06  A$lcc1558019$393                   action
     00000E07  A$lcc1558019$394                   action
     00000E09  A$lcc1558019$395                   action
     00000E0A  A$lcc1558019$396                   action
     00000E0B  A$lcc1558019$397                   action
     00000E0C  A$lcc1558019$398                   action
     00000E0D  A$lcc1558019$399                   action
     00000E0E  A$lcc1558019$400                   action
ASxxxx Linker V03.00/V05.40 + sdld,  page 11.
Hexadecimal  [32-Bits]

Area                                    Addr        Size        Decimal Bytes (Attributes)
--------------------------------        ----        ----        ------- ----- ------------
_CODE                               00000200    00002573 =        9587. bytes (REL,CON)

      Value  Global                              Global Defined In Module
      -----  --------------------------------   ------------------------
     00000E0F  A$lcc1558019$405                   action
     00000E11  A$lcc1558019$410                   action
     00000E11  C$action.c$46$1_0$159              action
     00000E11  XG$move_right$0$0                  action
     00000E12  A$lcc1558019$420                   action
     00000E12  C$action.c$48$1_0$162              action
     00000E12  G$check_input$0$0                  action
     00000E12  _check_input                       action
     00000E13  A$lcc1558019$424                   action
     00000E13  C$action.c$50$1_0$162              action
     00000E16  A$lcc1558019$425                   action
     00000E19  A$lcc1558019$426                   action
     00000E1A  A$lcc1558019$430                   action
     00000E1A  C$action.c$52$2_0$163              action
     00000E1C  A$lcc1558019$431                   action
     00000E1E  A$lcc1558019$432                   action
     00000E21  A$lcc1558019$433                   action
     00000E23  A$lcc1558019$434                   action
     00000E25  A$lcc1558019$438                   action
     00000E25  C$action.c$54$3_0$164              action
     00000E28  A$lcc1558019$439                   action
     00000E2B  A$lcc1558019$440                   action
     00000E2C  A$lcc1558019$441                   action
     00000E2D  A$lcc1558019$442                   action
     00000E2E  A$lcc1558019$443                   action
     00000E2F  A$lcc1558019$444                   action
     00000E30  A$lcc1558019$445                   action
     00000E31  A$lcc1558019$446                   action
     00000E32  A$lcc1558019$447                   action
     00000E35  A$lcc1558019$448                   action
     00000E37  A$lcc1558019$449                   action
     00000E38  A$lcc1558019$450                   action
     00000E3A  A$lcc1558019$451                   action
     00000E3B  A$lcc1558019$452                   action
     00000E3C  A$lcc1558019$453                   action
     00000E3F  A$lcc1558019$458                   action
     00000E3F  C$action.c$58$2_0$165              action
     00000E42  A$lcc1558019$459                   action
     00000E43  A$lcc1558019$460                   action
     00000E45  A$lcc1558019$464                   action
     00000E48  A$lcc1558019$468                   action
     00000E48  C$action.c$60$4_0$167              action
     00000E4A  A$lcc1558019$469                   action
     00000E4C  A$lcc1558019$473                   action
     00000E4C  C$action.c$61$4_0$167              action
     00000E4F  A$lcc1558019$474                   action
     00000E51  A$lcc1558019$475                   action
     00000E53  A$lcc1558019$480                   action
     00000E53  C$action.c$62$5_0$168              action
     00000E55  A$lcc1558019$481                   action
     00000E57  A$lcc1558019$485                   action
ASxxxx Linker V03.00/V05.40 + sdld,  page 12.
Hexadecimal  [32-Bits]

Area                                    Addr        Size        Decimal Bytes (Attributes)
--------------------------------        ----        ----        ------- ----- ------------
_CODE                               00000200    00002573 =        9587. bytes (REL,CON)

      Value  Global                              Global Defined In Module
      -----  --------------------------------   ------------------------
     00000E57  C$action.c$63$5_0$168              action
     00000E5A  A$lcc1558019$486                   action
     00000E5C  A$lcc1558019$487                   action
     00000E5E  A$lcc1558019$492                   action
     00000E5E  C$action.c$64$6_0$169              action
     00000E60  A$lcc1558019$493                   action
     00000E62  A$lcc1558019$497                   action
     00000E62  C$action.c$65$6_0$169              action
     00000E65  A$lcc1558019$498                   action
     00000E67  A$lcc1558019$499                   action
     00000E69  A$lcc1558019$504                   action
     00000E69  C$action.c$66$7_0$170              action
     00000E6A  A$lcc1558019$505                   action
     00000E6C  A$lcc1558019$509                   action
     00000E6C  C$action.c$67$7_0$170              action
     00000E6F  A$lcc1558019$510                   action
     00000E71  A$lcc1558019$515                   action
     00000E71  C$action.c$71$2_0$171              action
     00000E74  A$lcc1558019$516                   action
     00000E75  A$lcc1558019$517                   action
     00000E77  A$lcc1558019$518                   action
     00000E7A  A$lcc1558019$519                   action
     00000E7C  A$lcc1558019$520                   action
     00000E7E  A$lcc1558019$521                   action
     00000E80  A$lcc1558019$522                   action
     00000E82  A$lcc1558019$523                   action
     00000E84  A$lcc1558019$524                   action
     00000E86  A$lcc1558019$525                   action
     00000E88  A$lcc1558019$533                   action
     00000E88  C$action.c$73$3_0$172              action
     00000E88  C$action.c$74$3_0$172              action
     00000E8B  A$lcc1558019$534                   action
     00000E8E  A$lcc1558019$538                   action
     00000E8E  C$action.c$75$3_0$172              action
     00000E91  A$lcc1558019$539                   action
     00000E93  A$lcc1558019$540                   action
     00000E94  A$lcc1558019$541                   action
     00000E97  A$lcc1558019$542                   action
     00000E98  A$lcc1558019$543                   action
     00000E9A  A$lcc1558019$544                   action
     00000E9B  A$lcc1558019$545                   action
     00000E9C  A$lcc1558019$546                   action
     00000E9D  A$lcc1558019$547                   action
     00000E9E  A$lcc1558019$548                   action
     00000E9F  A$lcc1558019$549                   action
     00000EA0  A$lcc1558019$550                   action
     00000EA1  A$lcc1558019$551                   action
     00000EA2  A$lcc1558019$552                   action
     00000EA3  A$lcc1558019$553                   action
     00000EA6  A$lcc1558019$554                   action
     00000EA7  A$lcc1558019$555                   action
ASxxxx Linker V03.00/V05.40 + sdld,  page 13.
Hexadecimal  [32-Bits]

Area                                    Addr        Size        Decimal Bytes (Attributes)
--------------------------------        ----        ----        ------- ----- ------------
_CODE                               00000200    00002573 =        9587. bytes (REL,CON)

      Value  Global                              Global Defined In Module
      -----  --------------------------------   ------------------------
     00000EA8  A$lcc1558019$556                   action
     00000EA9  A$lcc1558019$557                   action
     00000EAB  A$lcc1558019$558                   action
     00000EAC  A$lcc1558019$559                   action
     00000EAF  A$lcc1558019$563                   action
     00000EAF  C$action.c$76$3_0$172              action
     00000EB1  A$lcc1558019$571                   action
     00000EB1  C$action.c$77$3_0$172              action
     00000EB1  C$action.c$78$3_0$172              action
     00000EB4  A$lcc1558019$572                   action
     00000EB7  A$lcc1558019$576                   action
     00000EB7  C$action.c$79$3_0$172              action
     00000EBA  A$lcc1558019$577                   action
     00000EBC  A$lcc1558019$578                   action
     00000EBD  A$lcc1558019$579                   action
     00000EC0  A$lcc1558019$580                   action
     00000EC1  A$lcc1558019$581                   action
     00000EC3  A$lcc1558019$582                   action
     00000EC4  A$lcc1558019$583                   action
     00000EC5  A$lcc1558019$584                   action
     00000EC6  A$lcc1558019$585                   action
     00000EC7  A$lcc1558019$586                   action
     00000EC8  A$lcc1558019$587                   action
     00000EC9  A$lcc1558019$588                   action
     00000ECA  A$lcc1558019$589                   action
     00000ECB  A$lcc1558019$590                   action
     00000ECC  A$lcc1558019$591                   action
     00000ECF  A$lcc1558019$592                   action
     00000ED0  A$lcc1558019$593                   action
     00000ED1  A$lcc1558019$594                   action
     00000ED2  A$lcc1558019$595                   action
     00000ED4  A$lcc1558019$596                   action
     00000ED5  A$lcc1558019$597                   action
     00000ED8  A$lcc1558019$601                   action
     00000ED8  C$action.c$80$3_0$172              action
     00000EDA  A$lcc1558019$609                   action
     00000EDA  C$action.c$81$3_0$172              action
     00000EDA  C$action.c$82$3_0$172              action
     00000EDD  A$lcc1558019$610                   action
     00000EE0  A$lcc1558019$614                   action
     00000EE0  C$action.c$83$3_0$172              action
     00000EE2  A$lcc1558019$622                   action
     00000EE2  C$action.c$84$3_0$172              action
     00000EE2  C$action.c$85$3_0$172              action
     00000EE5  A$lcc1558019$623                   action
     00000EE8  A$lcc1558019$631                   action
     00000EE8  C$action.c$89$2_0$171              action
     00000EE8  C$action.c$92$2_0$173              action
     00000EEB  A$lcc1558019$632                   action
     00000EEC  A$lcc1558019$633                   action
     00000EEE  A$lcc1558019$634                   action
ASxxxx Linker V03.00/V05.40 + sdld,  page 14.
Hexadecimal  [32-Bits]

Area                                    Addr        Size        Decimal Bytes (Attributes)
--------------------------------        ----        ----        ------- ----- ------------
_CODE                               00000200    00002573 =        9587. bytes (REL,CON)

      Value  Global                              Global Defined In Module
      -----  --------------------------------   ------------------------
     00000EF1  A$lcc1558019$635                   action
     00000EF3  A$lcc1558019$636                   action
     00000EF5  A$lcc1558019$640                   action
     00000EF5  C$action.c$94$3_0$174              action
     00000EF6  A$lcc1558019$641                   action
     00000EF9  A$lcc1558019$645                   action
     00000EF9  C$action.c$95$3_0$174              action
     00000EFC  A$lcc1558019$646                   action
     00000EFE  A$lcc1558019$647                   action
     00000EFF  A$lcc1558019$648                   action
     00000F02  A$lcc1558019$649                   action
     00000F03  A$lcc1558019$650                   action
     00000F05  A$lcc1558019$651                   action
     00000F06  A$lcc1558019$652                   action
     00000F07  A$lcc1558019$653                   action
     00000F08  A$lcc1558019$654                   action
     00000F09  A$lcc1558019$655                   action
     00000F0A  A$lcc1558019$656                   action
     00000F0B  A$lcc1558019$657                   action
     00000F0C  A$lcc1558019$658                   action
     00000F0D  A$lcc1558019$659                   action
     00000F0E  A$lcc1558019$660                   action
     00000F11  A$lcc1558019$661                   action
     00000F12  A$lcc1558019$662                   action
     00000F13  A$lcc1558019$663                   action
     00000F14  A$lcc1558019$664                   action
     00000F16  A$lcc1558019$665                   action
     00000F17  A$lcc1558019$666                   action
     00000F1A  A$lcc1558019$671                   action
     00000F1A  C$action.c$98$2_0$175              action
     00000F1D  A$lcc1558019$672                   action
     00000F1F  A$lcc1558019$673                   action
     00000F21  A$lcc1558019$674                   action
     00000F24  A$lcc1558019$675                   action
     00000F26  A$lcc1558019$676                   action
     00000F28  A$lcc1558019$680                   action
     00000F28  C$action.c$100$3_0$176             action
     00000F29  A$lcc1558019$681                   action
     00000F2C  A$lcc1558019$685                   action
     00000F2C  C$action.c$101$3_0$176             action
     00000F2F  A$lcc1558019$686                   action
     00000F31  A$lcc1558019$687                   action
     00000F32  A$lcc1558019$688                   action
     00000F35  A$lcc1558019$689                   action
     00000F36  A$lcc1558019$690                   action
     00000F38  A$lcc1558019$691                   action
     00000F39  A$lcc1558019$692                   action
     00000F3A  A$lcc1558019$693                   action
     00000F3B  A$lcc1558019$694                   action
     00000F3C  A$lcc1558019$695                   action
     00000F3D  A$lcc1558019$696                   action
ASxxxx Linker V03.00/V05.40 + sdld,  page 15.
Hexadecimal  [32-Bits]

Area                                    Addr        Size        Decimal Bytes (Attributes)
--------------------------------        ----        ----        ------- ----- ------------
_CODE                               00000200    00002573 =        9587. bytes (REL,CON)

      Value  Global                              Global Defined In Module
      -----  --------------------------------   ------------------------
     00000F3E  A$lcc1558019$697                   action
     00000F3F  A$lcc1558019$698                   action
     00000F40  A$lcc1558019$699                   action
     00000F41  A$lcc1558019$700                   action
     00000F44  A$lcc1558019$701                   action
     00000F45  A$lcc1558019$702                   action
     00000F46  A$lcc1558019$703                   action
     00000F47  A$lcc1558019$704                   action
     00000F49  A$lcc1558019$705                   action
     00000F4A  A$lcc1558019$706                   action
     00000F4D  A$lcc1558019$711                   action
     00000F4D  C$action.c$52$1_0$162              action
     00000F50  A$lcc1558019$712                   action
     00000F51  A$lcc1558019$716                   action
     00000F51  C$action.c$104$2_0$177             action
     00000F54  A$lcc1558019$717                   action
     00000F56  A$lcc1558019$718                   action
     00000F58  A$lcc1558019$719                   action
     00000F5A  A$lcc1558019$720                   action
     00000F5C  A$lcc1558019$724                   action
     00000F5C  C$action.c$105$2_0$177             action
     00000F5D  A$lcc1558019$725                   action
     00000F60  A$lcc1558019$730                   action
     00000F60  C$action.c$106$2_0$178             action
     00000F63  A$lcc1558019$731                   action
     00000F65  A$lcc1558019$732                   action
     00000F67  A$lcc1558019$733                   action
     00000F69  A$lcc1558019$734                   action
     00000F6B  A$lcc1558019$738                   action
     00000F6B  C$action.c$107$2_0$178             action
     00000F6C  A$lcc1558019$739                   action
     00000F6F  A$lcc1558019$744                   action
     00000F6F  C$action.c$109$1_0$162             action
     00000F72  A$lcc1558019$745                   action
     00000F75  A$lcc1558019$749                   action
     00000F76  A$lcc1558019$754                   action
     00000F76  C$action.c$110$1_0$162             action
     00000F76  XG$check_input$0$0                 action
     00000F77  A$lcc1558020$59                    animation
     00000F77  C$animation.c$7$0_0$135            animation
     00000F77  G$init_animation$0$0               animation
     00000F77  _init_animation                    animation
     00000F79  A$lcc1558020$60                    animation
     00000F7B  A$lcc1558020$61                    animation
     00000F7C  A$lcc1558020$62                    animation
     00000F7D  A$lcc1558020$63                    animation
     00000F7E  A$lcc1558020$64                    animation
     00000F7F  A$lcc1558020$65                    animation
     00000F80  A$lcc1558020$69                    animation
     00000F80  C$animation.c$12$1_0$135           animation
     00000F82  A$lcc1558020$70                    animation
ASxxxx Linker V03.00/V05.40 + sdld,  page 16.
Hexadecimal  [32-Bits]

Area                                    Addr        Size        Decimal Bytes (Attributes)
--------------------------------        ----        ----        ------- ----- ------------
_CODE                               00000200    00002573 =        9587. bytes (REL,CON)

      Value  Global                              Global Defined In Module
      -----  --------------------------------   ------------------------
     00000F83  A$lcc1558020$71                    animation
     00000F84  A$lcc1558020$72                    animation
     00000F85  A$lcc1558020$73                    animation
     00000F86  A$lcc1558020$74                    animation
     00000F87  A$lcc1558020$75                    animation
     00000F88  A$lcc1558020$76                    animation
     00000F8A  A$lcc1558020$77                    animation
     00000F8C  A$lcc1558020$78                    animation
     00000F8D  A$lcc1558020$79                    animation
     00000F8E  A$lcc1558020$80                    animation
     00000F8F  A$lcc1558020$81                    animation
     00000F90  A$lcc1558020$82                    animation
     00000F91  A$lcc1558020$83                    animation
     00000F92  A$lcc1558020$87                    animation
     00000F92  C$animation.c$14$1_0$135           animation
     00000F93  A$lcc1558020$88                    animation
     00000F94  A$lcc1558020$89                    animation
     00000F95  A$lcc1558020$90                    animation
     00000F97  A$lcc1558020$91                    animation
     00000F98  A$lcc1558020$92                    animation
     00000F99  A$lcc1558020$96                    animation
     00000F99  C$animation.c$15$1_0$135           animation
     00000F9A  A$lcc1558020$97                    animation
     00000F9B  A$lcc1558020$98                    animation
     00000F9C  A$lcc1558020$99                    animation
     00000F9D  A$lcc1558020$100                   animation
     00000F9E  A$lcc1558020$101                   animation
     00000F9F  A$lcc1558020$102                   animation
     00000FA1  A$lcc1558020$103                   animation
     00000FA2  A$lcc1558020$104                   animation
     00000FA3  A$lcc1558020$105                   animation
     00000FA4  A$lcc1558020$109                   animation
     00000FA4  C$animation.c$16$1_0$135           animation
     00000FA7  A$lcc1558020$110                   animation
     00000FA8  A$lcc1558020$111                   animation
     00000FAA  A$lcc1558020$115                   animation
     00000FAA  C$animation.c$17$1_0$135           animation
     00000FAB  A$lcc1558020$116                   animation
     00000FAC  A$lcc1558020$117                   animation
     00000FAD  A$lcc1558020$118                   animation
     00000FAE  A$lcc1558020$119                   animation
     00000FB0  A$lcc1558020$123                   animation
     00000FB0  C$animation.c$18$1_0$135           animation
     00000FB3  A$lcc1558020$124                   animation
     00000FB4  A$lcc1558020$125                   animation
     00000FB5  A$lcc1558020$126                   animation
     00000FB7  A$lcc1558020$127                   animation
     00000FB8  A$lcc1558020$128                   animation
     00000FB9  A$lcc1558020$129                   animation
     00000FBA  A$lcc1558020$133                   animation
     00000FBA  C$animation.c$21$1_0$135           animation
ASxxxx Linker V03.00/V05.40 + sdld,  page 17.
Hexadecimal  [32-Bits]

Area                                    Addr        Size        Decimal Bytes (Attributes)
--------------------------------        ----        ----        ------- ----- ------------
_CODE                               00000200    00002573 =        9587. bytes (REL,CON)

      Value  Global                              Global Defined In Module
      -----  --------------------------------   ------------------------
     00000FBB  A$lcc1558020$134                   animation
     00000FBC  A$lcc1558020$135                   animation
     00000FBD  A$lcc1558020$136                   animation
     00000FBE  A$lcc1558020$137                   animation
     00000FC0  A$lcc1558020$138                   animation
     00000FC1  A$lcc1558020$139                   animation
     00000FC2  A$lcc1558020$140                   animation
     00000FC3  A$lcc1558020$141                   animation
     00000FC4  A$lcc1558020$142                   animation
     00000FC7  A$lcc1558020$143                   animation
     00000FC8  A$lcc1558020$144                   animation
     00000FC9  A$lcc1558020$145                   animation
     00000FCA  A$lcc1558020$146                   animation
     00000FCC  A$lcc1558020$147                   animation
     00000FCD  A$lcc1558020$148                   animation
     00000FCE  A$lcc1558020$149                   animation
     00000FCF  A$lcc1558020$150                   animation
     00000FD1  A$lcc1558020$151                   animation
     00000FD2  A$lcc1558020$152                   animation
     00000FD5  A$lcc1558020$153                   animation
     00000FD6  A$lcc1558020$154                   animation
     00000FD7  A$lcc1558020$155                   animation
     00000FD8  A$lcc1558020$156                   animation
     00000FD9  A$lcc1558020$160                   animation
     00000FD9  C$animation.c$24$2_0$135           animation
     00000FDB  A$lcc1558020$162                   animation
     00000FDC  A$lcc1558020$163                   animation
     00000FDD  A$lcc1558020$164                   animation
     00000FDE  A$lcc1558020$165                   animation
     00000FDF  A$lcc1558020$166                   animation
     00000FE1  A$lcc1558020$167                   animation
     00000FE2  A$lcc1558020$168                   animation
     00000FE4  A$lcc1558020$173                   animation
     00000FE4  C$animation.c$32$2_0$138           animation
     00000FE6  A$lcc1558020$174                   animation
     00000FE7  A$lcc1558020$175                   animation
     00000FE8  A$lcc1558020$176                   animation
     00000FE9  A$lcc1558020$177                   animation
     00000FEC  A$lcc1558020$178                   animation
     00000FED  A$lcc1558020$179                   animation
     00000FEE  A$lcc1558020$180                   animation
     00000FEF  A$lcc1558020$181                   animation
     00000FF0  A$lcc1558020$182                   animation
     00000FF1  A$lcc1558020$183                   animation
     00000FF3  A$lcc1558020$187                   animation
     00000FF3  C$animation.c$33$2_0$138           animation
     00000FF5  A$lcc1558020$188                   animation
     00000FF6  A$lcc1558020$189                   animation
     00000FF7  A$lcc1558020$194                   animation
     00000FF7  C$animation.c$34$2_0$135           animation
     00000FF9  A$lcc1558020$195                   animation
ASxxxx Linker V03.00/V05.40 + sdld,  page 18.
Hexadecimal  [32-Bits]

Area                                    Addr        Size        Decimal Bytes (Attributes)
--------------------------------        ----        ----        ------- ----- ------------
_CODE                               00000200    00002573 =        9587. bytes (REL,CON)

      Value  Global                              Global Defined In Module
      -----  --------------------------------   ------------------------
     00000FFA  A$lcc1558020$196                   animation
     00000FFC  A$lcc1558020$197                   animation
     00000FFD  A$lcc1558020$207                   animation
     00000FFD  C$animation.c$36$2_0$140           animation
     00000FFD  G$update_animation$0$0             animation
     00000FFD  _update_animation                  animation
     00000FFE  A$lcc1558020$208                   animation
     00000FFF  A$lcc1558020$209                   animation
     00001000  A$lcc1558020$210                   animation
     00001001  A$lcc1558020$214                   animation
     00001001  C$animation.c$38$1_0$140           animation
     00001004  A$lcc1558020$215                   animation
     00001005  A$lcc1558020$216                   animation
     00001006  A$lcc1558020$217                   animation
     00001007  A$lcc1558020$218                   animation
     00001008  A$lcc1558020$219                   animation
     00001009  A$lcc1558020$220                   animation
     0000100A  A$lcc1558020$221                   animation
     0000100B  A$lcc1558020$222                   animation
     0000100C  A$lcc1558020$223                   animation
     0000100E  A$lcc1558020$224                   animation
     0000100F  A$lcc1558020$225                   animation
     00001010  A$lcc1558020$229                   animation
     00001010  C$animation.c$40$1_0$140           animation
     00001013  A$lcc1558020$230                   animation
     00001014  A$lcc1558020$231                   animation
     00001015  A$lcc1558020$232                   animation
     00001016  A$lcc1558020$233                   animation
     00001017  A$lcc1558020$234                   animation
     00001018  A$lcc1558020$235                   animation
     0000101A  A$lcc1558020$236                   animation
     0000101B  A$lcc1558020$237                   animation
     0000101C  A$lcc1558020$241                   animation
     0000101C  C$animation.c$41$2_0$141           animation
     0000101D  A$lcc1558020$242                   animation
     0000101E  A$lcc1558020$243                   animation
     0000101F  A$lcc1558020$244                   animation
     00001020  A$lcc1558020$245                   animation
     00001021  A$lcc1558020$246                   animation
     00001022  A$lcc1558020$247                   animation
     00001024  A$lcc1558020$248                   animation
     00001025  A$lcc1558020$249                   animation
     00001027  A$lcc1558020$250                   animation
     00001028  A$lcc1558020$251                   animation
     00001029  A$lcc1558020$252                   animation
     0000102B  A$lcc1558020$256                   animation
     0000102B  C$animation.c$43$3_0$142           animation
     0000102C  A$lcc1558020$257                   animation
     0000102D  A$lcc1558020$261                   animation
     0000102D  C$animation.c$44$3_0$142           animation
     0000102E  A$lcc1558020$262                   animation
ASxxxx Linker V03.00/V05.40 + sdld,  page 19.
Hexadecimal  [32-Bits]

Area                                    Addr        Size        Decimal Bytes (Attributes)
--------------------------------        ----        ----        ------- ----- ------------
_CODE                               00000200    00002573 =        9587. bytes (REL,CON)

      Value  Global                              Global Defined In Module
      -----  --------------------------------   ------------------------
     0000102F  A$lcc1558020$263                   animation
     00001030  A$lcc1558020$264                   animation
     00001031  A$lcc1558020$265                   animation
     00001032  A$lcc1558020$266                   animation
     00001033  A$lcc1558020$270                   animation
     00001033  C$animation.c$45$4_0$143           animation
     00001034  A$lcc1558020$271                   animation
     00001035  A$lcc1558020$272                   animation
     00001036  A$lcc1558020$273                   animation
     00001037  A$lcc1558020$274                   animation
     00001038  A$lcc1558020$275                   animation
     0000103A  A$lcc1558020$279                   animation
     0000103A  C$animation.c$46$4_0$143           animation
     0000103C  A$lcc1558020$284                   animation
     0000103D  A$lcc1558020$285                   animation
     0000103E  A$lcc1558020$290                   animation
     0000103E  C$animation.c$48$2_0$140           animation
     0000103E  XG$update_animation$0$0            animation
     0000103F  A$lcc1558020$300                   animation
     0000103F  C$animation.c$50$2_0$145           animation
     0000103F  G$set_animation$0$0                animation
     0000103F  _set_animation                     animation
     00001040  A$lcc1558020$301                   animation
     00001041  A$lcc1558020$302                   animation
     00001042  A$lcc1558020$306                   animation
     00001042  C$animation.c$52$2_0$146           animation
     00001043  A$lcc1558020$307                   animation
     00001045  A$lcc1558020$308                   animation
     00001046  A$lcc1558020$309                   animation
     00001047  A$lcc1558020$310                   animation
     00001049  A$lcc1558020$311                   animation
     0000104A  A$lcc1558020$312                   animation
     0000104B  A$lcc1558020$313                   animation
     0000104C  A$lcc1558020$314                   animation
     0000104D  A$lcc1558020$321                   animation
     0000104D  C$animation.c$53$2_0$146           animation
     0000104D  C$animation.c$55$1_0$145           animation
     0000104E  A$lcc1558020$322                   animation
     0000104F  A$lcc1558020$326                   animation
     0000104F  C$animation.c$56$1_1$147           animation
     00001050  A$lcc1558020$327                   animation
     00001051  A$lcc1558020$328                   animation
     00001052  A$lcc1558020$329                   animation
     00001053  A$lcc1558020$330                   animation
     00001055  A$lcc1558020$331                   animation
     00001056  A$lcc1558020$335                   animation
     00001056  C$animation.c$57$1_1$147           animation
     00001057  A$lcc1558020$336                   animation
     00001058  A$lcc1558020$337                   animation
     00001059  A$lcc1558020$338                   animation
     0000105A  A$lcc1558020$339                   animation
ASxxxx Linker V03.00/V05.40 + sdld,  page 20.
Hexadecimal  [32-Bits]

Area                                    Addr        Size        Decimal Bytes (Attributes)
--------------------------------        ----        ----        ------- ----- ------------
_CODE                               00000200    00002573 =        9587. bytes (REL,CON)

      Value  Global                              Global Defined In Module
      -----  --------------------------------   ------------------------
     0000105B  A$lcc1558020$340                   animation
     0000105C  A$lcc1558020$344                   animation
     0000105C  C$animation.c$58$1_1$147           animation
     0000105F  A$lcc1558020$345                   animation
     00001060  A$lcc1558020$346                   animation
     00001062  A$lcc1558020$354                   animation
     00001062  C$animation.c$59$1_1$145           animation
     00001062  XG$set_animation$0$0               animation
     00001063  A$lcc1558022$52                    char_to_tile
     00001063  C$char_to_tile.c$3$0_0$3           char_to_tile
     00001063  G$char_to_tile$0$0                 char_to_tile
     00001063  _char_to_tile                      char_to_tile
     00001065  A$lcc1558022$53                    char_to_tile
     00001067  A$lcc1558022$54                    char_to_tile
     00001068  A$lcc1558022$58                    char_to_tile
     00001068  C$char_to_tile.c$4$2_0$3           char_to_tile
     0000106A  A$lcc1558022$59                    char_to_tile
     0000106C  A$lcc1558022$60                    char_to_tile
     0000106D  A$lcc1558022$61                    char_to_tile
     0000106F  A$lcc1558022$62                    char_to_tile
     00001070  A$lcc1558022$63                    char_to_tile
     00001072  A$lcc1558022$64                    char_to_tile
     00001073  A$lcc1558022$65                    char_to_tile
     00001075  A$lcc1558022$66                    char_to_tile
     00001076  A$lcc1558022$67                    char_to_tile
     00001078  A$lcc1558022$68                    char_to_tile
     00001079  A$lcc1558022$69                    char_to_tile
     0000107B  A$lcc1558022$70                    char_to_tile
     0000107C  A$lcc1558022$71                    char_to_tile
     0000107E  A$lcc1558022$72                    char_to_tile
     0000107F  A$lcc1558022$73                    char_to_tile
     00001081  A$lcc1558022$74                    char_to_tile
     00001082  A$lcc1558022$75                    char_to_tile
     00001084  A$lcc1558022$76                    char_to_tile
     00001085  A$lcc1558022$77                    char_to_tile
     00001087  A$lcc1558022$78                    char_to_tile
     00001088  A$lcc1558022$79                    char_to_tile
     0000108A  A$lcc1558022$80                    char_to_tile
     0000108B  A$lcc1558022$81                    char_to_tile
     0000108D  A$lcc1558022$82                    char_to_tile
     0000108E  A$lcc1558022$83                    char_to_tile
     00001090  A$lcc1558022$84                    char_to_tile
     00001091  A$lcc1558022$85                    char_to_tile
     00001093  A$lcc1558022$86                    char_to_tile
     00001094  A$lcc1558022$87                    char_to_tile
     00001096  A$lcc1558022$88                    char_to_tile
     00001097  A$lcc1558022$89                    char_to_tile
     00001099  A$lcc1558022$90                    char_to_tile
     0000109A  A$lcc1558022$91                    char_to_tile
     0000109C  A$lcc1558022$92                    char_to_tile
     0000109D  A$lcc1558022$93                    char_to_tile
ASxxxx Linker V03.00/V05.40 + sdld,  page 21.
Hexadecimal  [32-Bits]

Area                                    Addr        Size        Decimal Bytes (Attributes)
--------------------------------        ----        ----        ------- ----- ------------
_CODE                               00000200    00002573 =        9587. bytes (REL,CON)

      Value  Global                              Global Defined In Module
      -----  --------------------------------   ------------------------
     0000109F  A$lcc1558022$94                    char_to_tile
     000010A0  A$lcc1558022$95                    char_to_tile
     000010A2  A$lcc1558022$96                    char_to_tile
     000010A3  A$lcc1558022$97                    char_to_tile
     000010A5  A$lcc1558022$98                    char_to_tile
     000010A6  A$lcc1558022$99                    char_to_tile
     000010A8  A$lcc1558022$100                   char_to_tile
     000010A9  A$lcc1558022$101                   char_to_tile
     000010AB  A$lcc1558022$102                   char_to_tile
     000010AC  A$lcc1558022$103                   char_to_tile
     000010AE  A$lcc1558022$104                   char_to_tile
     000010AF  A$lcc1558022$105                   char_to_tile
     000010B1  A$lcc1558022$106                   char_to_tile
     000010B2  A$lcc1558022$107                   char_to_tile
     000010B4  A$lcc1558022$108                   char_to_tile
     000010B5  A$lcc1558022$109                   char_to_tile
     000010B7  A$lcc1558022$110                   char_to_tile
     000010B8  A$lcc1558022$111                   char_to_tile
     000010BA  A$lcc1558022$112                   char_to_tile
     000010BB  A$lcc1558022$113                   char_to_tile
     000010BD  A$lcc1558022$114                   char_to_tile
     000010BE  A$lcc1558022$115                   char_to_tile
     000010C0  A$lcc1558022$116                   char_to_tile
     000010C1  A$lcc1558022$117                   char_to_tile
     000010C3  A$lcc1558022$118                   char_to_tile
     000010C4  A$lcc1558022$122                   char_to_tile
     000010C4  C$char_to_tile.c$5$3_0$4           char_to_tile
     000010C5  A$lcc1558022$123                   char_to_tile
     000010C6  A$lcc1558022$124                   char_to_tile
     000010C7  A$lcc1558022$125                   char_to_tile
     000010C8  A$lcc1558022$126                   char_to_tile
     000010CB  A$lcc1558022$128                   char_to_tile
     000010CC  A$lcc1558022$129                   char_to_tile
     000010CE  A$lcc1558022$130                   char_to_tile
     000010D0  A$lcc1558022$134                   char_to_tile
     000010D0  C$char_to_tile.c$6$4_0$6           char_to_tile
     000010D3  A$lcc1558022$135                   char_to_tile
     000010D4  A$lcc1558022$136                   char_to_tile
     000010D5  A$lcc1558022$137                   char_to_tile
     000010D6  A$lcc1558022$138                   char_to_tile
     000010D8  A$lcc1558022$139                   char_to_tile
     000010D9  A$lcc1558022$140                   char_to_tile
     000010DA  A$lcc1558022$141                   char_to_tile
     000010DC  A$lcc1558022$145                   char_to_tile
     000010DC  C$char_to_tile.c$7$5_0$7           char_to_tile
     000010DE  A$lcc1558022$146                   char_to_tile
     000010DF  A$lcc1558022$147                   char_to_tile
     000010E1  A$lcc1558022$148                   char_to_tile
     000010E2  A$lcc1558022$149                   char_to_tile
     000010E4  A$lcc1558022$154                   char_to_tile
     000010E4  C$char_to_tile.c$5$2_0$4           char_to_tile
ASxxxx Linker V03.00/V05.40 + sdld,  page 22.
Hexadecimal  [32-Bits]

Area                                    Addr        Size        Decimal Bytes (Attributes)
--------------------------------        ----        ----        ------- ----- ------------
_CODE                               00000200    00002573 =        9587. bytes (REL,CON)

      Value  Global                              Global Defined In Module
      -----  --------------------------------   ------------------------
     000010E5  A$lcc1558022$155                   char_to_tile
     000010E7  A$lcc1558022$156                   char_to_tile
     000010E8  A$lcc1558022$157                   char_to_tile
     000010E9  A$lcc1558022$158                   char_to_tile
     000010EA  A$lcc1558022$159                   char_to_tile
     000010EC  A$lcc1558022$164                   char_to_tile
     000010EC  C$char_to_tile.c$11$1_0$3          char_to_tile
     000010EF  A$lcc1558022$169                   char_to_tile
     000010F1  A$lcc1558022$174                   char_to_tile
     000010F1  C$char_to_tile.c$12$1_0$3          char_to_tile
     000010F1  XG$char_to_tile$0$0                char_to_tile
     000010F2  A$lcc1558023$52                    draw
     000010F2  C$draw.c$6$0_0$136                 draw
     000010F2  G$draw_actor$0$0                   draw
     000010F2  _draw_actor                        draw
     000010F4  A$lcc1558023$53                    draw
     000010F6  A$lcc1558023$54                    draw
     000010F7  A$lcc1558023$58                    draw
     000010F7  C$draw.c$8$1_0$136                 draw
     000010FA  A$lcc1558023$59                    draw
     000010FB  A$lcc1558023$60                    draw
     000010FD  A$lcc1558023$61                    draw
     000010FE  A$lcc1558023$62                    draw
     000010FF  A$lcc1558023$63                    draw
     00001100  A$lcc1558023$64                    draw
     00001101  A$lcc1558023$65                    draw
     00001103  A$lcc1558023$66                    draw
     00001104  A$lcc1558023$70                    draw
     00001104  C$draw.c$9$1_0$136                 draw
     00001107  A$lcc1558023$71                    draw
     00001109  A$lcc1558023$72                    draw
     0000110A  A$lcc1558023$73                    draw
     0000110C  A$lcc1558023$74                    draw
     0000110D  A$lcc1558023$75                    draw
     0000110E  A$lcc1558023$76                    draw
     0000110F  A$lcc1558023$77                    draw
     00001110  A$lcc1558023$78                    draw
     00001112  A$lcc1558023$79                    draw
     00001113  A$lcc1558023$83                    draw
     00001113  C$draw.c$11$1_0$136                draw
     00001116  A$lcc1558023$84                    draw
     00001118  A$lcc1558023$85                    draw
     00001119  A$lcc1558023$86                    draw
     0000111B  A$lcc1558023$87                    draw
     0000111C  A$lcc1558023$88                    draw
     0000111D  A$lcc1558023$89                    draw
     0000111E  A$lcc1558023$90                    draw
     0000111F  A$lcc1558023$91                    draw
     00001120  A$lcc1558023$92                    draw
     00001121  A$lcc1558023$93                    draw
     00001122  A$lcc1558023$94                    draw
ASxxxx Linker V03.00/V05.40 + sdld,  page 23.
Hexadecimal  [32-Bits]

Area                                    Addr        Size        Decimal Bytes (Attributes)
--------------------------------        ----        ----        ------- ----- ------------
_CODE                               00000200    00002573 =        9587. bytes (REL,CON)

      Value  Global                              Global Defined In Module
      -----  --------------------------------   ------------------------
     00001123  A$lcc1558023$95                    draw
     00001124  A$lcc1558023$96                    draw
     00001125  A$lcc1558023$97                    draw
     00001126  A$lcc1558023$98                    draw
     00001127  A$lcc1558023$102                   draw
     00001127  C$draw.c$12$1_0$136                draw
     0000112A  A$lcc1558023$103                   draw
     0000112B  A$lcc1558023$104                   draw
     0000112C  A$lcc1558023$105                   draw
     0000112D  A$lcc1558023$106                   draw
     0000112E  A$lcc1558023$107                   draw
     0000112F  A$lcc1558023$108                   draw
     00001130  A$lcc1558023$109                   draw
     00001131  A$lcc1558023$110                   draw
     00001132  A$lcc1558023$111                   draw
     00001134  A$lcc1558023$112                   draw
     00001135  A$lcc1558023$113                   draw
     00001136  A$lcc1558023$117                   draw
     00001136  C$draw.c$14$1_0$136                draw
     00001139  A$lcc1558023$118                   draw
     0000113A  A$lcc1558023$119                   draw
     0000113B  A$lcc1558023$120                   draw
     0000113D  A$lcc1558023$121                   draw
     0000113E  A$lcc1558023$125                   draw
     0000113E  C$draw.c$15$1_0$136                draw
     0000113F  A$lcc1558023$126                   draw
     00001140  A$lcc1558023$127                   draw
     00001141  A$lcc1558023$128                   draw
     00001142  A$lcc1558023$129                   draw
     00001143  A$lcc1558023$130                   draw
     00001144  A$lcc1558023$131                   draw
     00001147  A$lcc1558023$132                   draw
     00001148  A$lcc1558023$133                   draw
     00001149  A$lcc1558023$134                   draw
     0000114A  A$lcc1558023$135                   draw
     0000114C  A$lcc1558023$139                   draw
     0000114C  C$draw.c$17$1_0$136                draw
     0000114D  A$lcc1558023$140                   draw
     0000114E  A$lcc1558023$141                   draw
     0000114F  A$lcc1558023$142                   draw
     00001150  A$lcc1558023$143                   draw
     00001151  A$lcc1558023$147                   draw
     00001151  C$draw.c$18$1_0$136                draw
     00001153  A$lcc1558023$148                   draw
     00001154  A$lcc1558023$149                   draw
     00001155  A$lcc1558023$150                   draw
     00001156  A$lcc1558023$151                   draw
     00001157  A$lcc1558023$152                   draw
     00001158  A$lcc1558023$153                   draw
     00001159  A$lcc1558023$154                   draw
     0000115A  A$lcc1558023$155                   draw
ASxxxx Linker V03.00/V05.40 + sdld,  page 24.
Hexadecimal  [32-Bits]

Area                                    Addr        Size        Decimal Bytes (Attributes)
--------------------------------        ----        ----        ------- ----- ------------
_CODE                               00000200    00002573 =        9587. bytes (REL,CON)

      Value  Global                              Global Defined In Module
      -----  --------------------------------   ------------------------
     0000115B  A$lcc1558023$156                   draw
     0000115C  A$lcc1558023$157                   draw
     0000115D  A$lcc1558023$158                   draw
     0000115E  A$lcc1558023$159                   draw
     0000115F  A$lcc1558023$160                   draw
     00001160  A$lcc1558023$161                   draw
     00001161  A$lcc1558023$165                   draw
     00001161  C$draw.c$20$2_0$137                draw
     00001163  A$lcc1558023$166                   draw
     00001164  A$lcc1558023$173                   draw
     00001164  C$draw.c$21$2_0$137                draw
     00001164  C$draw.c$24$2_0$136                draw
     00001167  A$lcc1558023$174                   draw
     00001169  A$lcc1558023$176                   draw
     0000116A  A$lcc1558023$177                   draw
     0000116C  A$lcc1558023$178                   draw
     0000116D  A$lcc1558023$179                   draw
     0000116F  A$lcc1558023$181                   draw
     00001170  A$lcc1558023$182                   draw
     00001171  A$lcc1558023$183                   draw
     00001172  A$lcc1558023$184                   draw
     00001173  A$lcc1558023$185                   draw
     00001174  A$lcc1558023$186                   draw
     00001176  A$lcc1558023$187                   draw
     00001179  A$lcc1558023$188                   draw
     0000117A  A$lcc1558023$189                   draw
     0000117B  A$lcc1558023$190                   draw
     0000117C  A$lcc1558023$191                   draw
     0000117D  A$lcc1558023$193                   draw
     0000117E  A$lcc1558023$194                   draw
     0000117F  A$lcc1558023$195                   draw
     00001180  A$lcc1558023$196                   draw
     00001181  A$lcc1558023$197                   draw
     00001182  A$lcc1558023$198                   draw
     00001183  A$lcc1558023$199                   draw
     00001186  A$lcc1558023$200                   draw
     00001187  A$lcc1558023$201                   draw
     00001188  A$lcc1558023$202                   draw
     00001189  A$lcc1558023$203                   draw
     0000118A  A$lcc1558023$204                   draw
     0000118B  A$lcc1558023$208                   draw
     0000118B  C$draw.c$24$2_0$138                draw
     0000118C  A$lcc1558023$209                   draw
     0000118E  A$lcc1558023$214                   draw
     0000118E  C$draw.c$28$2_0$139                draw
     00001190  A$lcc1558023$215                   draw
     00001191  A$lcc1558023$216                   draw
     00001192  A$lcc1558023$217                   draw
     00001194  A$lcc1558023$219                   draw
     00001196  A$lcc1558023$220                   draw
     00001197  A$lcc1558023$222                   draw
ASxxxx Linker V03.00/V05.40 + sdld,  page 25.
Hexadecimal  [32-Bits]

Area                                    Addr        Size        Decimal Bytes (Attributes)
--------------------------------        ----        ----        ------- ----- ------------
_CODE                               00000200    00002573 =        9587. bytes (REL,CON)

      Value  Global                              Global Defined In Module
      -----  --------------------------------   ------------------------
     00001198  A$lcc1558023$223                   draw
     00001199  A$lcc1558023$224                   draw
     0000119A  A$lcc1558023$225                   draw
     0000119B  A$lcc1558023$226                   draw
     0000119C  A$lcc1558023$227                   draw
     0000119F  A$lcc1558023$228                   draw
     000011A0  A$lcc1558023$229                   draw
     000011A1  A$lcc1558023$230                   draw
     000011A2  A$lcc1558023$232                   draw
     000011A4  A$lcc1558023$233                   draw
     000011A5  A$lcc1558023$234                   draw
     000011A6  A$lcc1558023$235                   draw
     000011A7  A$lcc1558023$236                   draw
     000011A8  A$lcc1558023$237                   draw
     000011A9  A$lcc1558023$241                   draw
     000011A9  C$draw.c$30$2_0$139                draw
     000011AC  A$lcc1558023$246                   draw
     000011AC  C$draw.c$32$3_0$141                draw
     000011AE  A$lcc1558023$247                   draw
     000011AF  A$lcc1558023$248                   draw
     000011B1  A$lcc1558023$249                   draw
     000011B3  A$lcc1558023$253                   draw
     000011B6  A$lcc1558023$254                   draw
     000011B8  A$lcc1558023$255                   draw
     000011B9  A$lcc1558023$256                   draw
     000011BB  A$lcc1558023$257                   draw
     000011BC  A$lcc1558023$258                   draw
     000011BD  A$lcc1558023$259                   draw
     000011BE  A$lcc1558023$260                   draw
     000011BF  A$lcc1558023$261                   draw
     000011C0  A$lcc1558023$265                   draw
     000011C0  C$draw.c$30$2_0$136                draw
     000011C2  A$lcc1558023$266                   draw
     000011C3  A$lcc1558023$270                   draw
     000011C3  C$draw.c$34$5_0$143                draw
     000011C5  A$lcc1558023$271                   draw
     000011C7  A$lcc1558023$274                   draw
     000011C8  A$lcc1558023$275                   draw
     000011C9  A$lcc1558023$276                   draw
     000011CA  A$lcc1558023$277                   draw
     000011CB  A$lcc1558023$278                   draw
     000011CC  A$lcc1558023$279                   draw
     000011CF  A$lcc1558023$280                   draw
     000011D0  A$lcc1558023$281                   draw
     000011D1  A$lcc1558023$282                   draw
     000011D2  A$lcc1558023$284                   draw
     000011D4  A$lcc1558023$285                   draw
     000011D5  A$lcc1558023$286                   draw
     000011D6  A$lcc1558023$287                   draw
     000011D7  A$lcc1558023$289                   draw
     000011D8  A$lcc1558023$290                   draw
ASxxxx Linker V03.00/V05.40 + sdld,  page 26.
Hexadecimal  [32-Bits]

Area                                    Addr        Size        Decimal Bytes (Attributes)
--------------------------------        ----        ----        ------- ----- ------------
_CODE                               00000200    00002573 =        9587. bytes (REL,CON)

      Value  Global                              Global Defined In Module
      -----  --------------------------------   ------------------------
     000011D9  A$lcc1558023$291                   draw
     000011DA  A$lcc1558023$292                   draw
     000011DC  A$lcc1558023$293                   draw
     000011DD  A$lcc1558023$294                   draw
     000011DF  A$lcc1558023$296                   draw
     000011E0  A$lcc1558023$297                   draw
     000011E3  A$lcc1558023$298                   draw
     000011E4  A$lcc1558023$299                   draw
     000011E5  A$lcc1558023$300                   draw
     000011E6  A$lcc1558023$301                   draw
     000011E7  A$lcc1558023$302                   draw
     000011E8  A$lcc1558023$303                   draw
     000011E9  A$lcc1558023$304                   draw
     000011EA  A$lcc1558023$306                   draw
     000011EB  A$lcc1558023$307                   draw
     000011EC  A$lcc1558023$308                   draw
     000011ED  A$lcc1558023$309                   draw
     000011EF  A$lcc1558023$310                   draw
     000011F0  A$lcc1558023$311                   draw
     000011F1  A$lcc1558023$315                   draw
     000011F1  C$draw.c$37$5_0$143                draw
     000011F4  A$lcc1558023$319                   draw
     000011F5  A$lcc1558023$320                   draw
     000011F6  A$lcc1558023$321                   draw
     000011F7  A$lcc1558023$322                   draw
     000011F8  A$lcc1558023$323                   draw
     000011F9  A$lcc1558023$324                   draw
     000011FC  A$lcc1558023$325                   draw
     000011FD  A$lcc1558023$326                   draw
     000011FE  A$lcc1558023$327                   draw
     000011FF  A$lcc1558023$329                   draw
     00001201  A$lcc1558023$330                   draw
     00001202  A$lcc1558023$331                   draw
     00001203  A$lcc1558023$332                   draw
     00001204  A$lcc1558023$333                   draw
     00001205  A$lcc1558023$334                   draw
     00001206  A$lcc1558023$336                   draw
     00001207  A$lcc1558023$337                   draw
     00001209  A$lcc1558023$338                   draw
     0000120A  A$lcc1558023$339                   draw
     0000120C  A$lcc1558023$341                   draw
     0000120D  A$lcc1558023$342                   draw
     0000120E  A$lcc1558023$343                   draw
     0000120F  A$lcc1558023$344                   draw
     00001210  A$lcc1558023$345                   draw
     00001211  A$lcc1558023$346                   draw
     00001214  A$lcc1558023$347                   draw
     00001215  A$lcc1558023$349                   draw
     00001216  A$lcc1558023$350                   draw
     00001218  A$lcc1558023$351                   draw
     00001219  A$lcc1558023$352                   draw
ASxxxx Linker V03.00/V05.40 + sdld,  page 27.
Hexadecimal  [32-Bits]

Area                                    Addr        Size        Decimal Bytes (Attributes)
--------------------------------        ----        ----        ------- ----- ------------
_CODE                               00000200    00002573 =        9587. bytes (REL,CON)

      Value  Global                              Global Defined In Module
      -----  --------------------------------   ------------------------
     0000121A  A$lcc1558023$353                   draw
     0000121B  A$lcc1558023$354                   draw
     0000121C  A$lcc1558023$358                   draw
     0000121C  C$draw.c$42$3_0$141                draw
     0000121E  A$lcc1558023$363                   draw
     0000121E  C$draw.c$45$4_0$146                draw
     00001220  A$lcc1558023$364                   draw
     00001221  A$lcc1558023$365                   draw
     00001223  A$lcc1558023$366                   draw
     00001225  A$lcc1558023$368                   draw
     00001227  A$lcc1558023$369                   draw
     00001228  A$lcc1558023$371                   draw
     00001229  A$lcc1558023$372                   draw
     0000122A  A$lcc1558023$373                   draw
     0000122B  A$lcc1558023$374                   draw
     0000122C  A$lcc1558023$375                   draw
     0000122D  A$lcc1558023$376                   draw
     00001230  A$lcc1558023$377                   draw
     00001231  A$lcc1558023$378                   draw
     00001232  A$lcc1558023$379                   draw
     00001233  A$lcc1558023$381                   draw
     00001235  A$lcc1558023$382                   draw
     00001236  A$lcc1558023$383                   draw
     00001237  A$lcc1558023$384                   draw
     00001238  A$lcc1558023$385                   draw
     00001239  A$lcc1558023$386                   draw
     0000123A  A$lcc1558023$388                   draw
     0000123B  A$lcc1558023$389                   draw
     0000123D  A$lcc1558023$390                   draw
     0000123F  A$lcc1558023$391                   draw
     00001240  A$lcc1558023$392                   draw
     00001241  A$lcc1558023$393                   draw
     00001243  A$lcc1558023$395                   draw
     00001244  A$lcc1558023$396                   draw
     00001245  A$lcc1558023$397                   draw
     00001246  A$lcc1558023$398                   draw
     00001247  A$lcc1558023$399                   draw
     00001248  A$lcc1558023$400                   draw
     0000124B  A$lcc1558023$401                   draw
     0000124C  A$lcc1558023$403                   draw
     0000124D  A$lcc1558023$404                   draw
     0000124F  A$lcc1558023$405                   draw
     00001250  A$lcc1558023$406                   draw
     00001251  A$lcc1558023$407                   draw
     00001252  A$lcc1558023$408                   draw
     00001253  A$lcc1558023$410                   draw
     00001255  A$lcc1558023$411                   draw
     00001256  A$lcc1558023$412                   draw
     00001258  A$lcc1558023$413                   draw
     00001259  A$lcc1558023$414                   draw
     0000125A  A$lcc1558023$415                   draw
ASxxxx Linker V03.00/V05.40 + sdld,  page 28.
Hexadecimal  [32-Bits]

Area                                    Addr        Size        Decimal Bytes (Attributes)
--------------------------------        ----        ----        ------- ----- ------------
_CODE                               00000200    00002573 =        9587. bytes (REL,CON)

      Value  Global                              Global Defined In Module
      -----  --------------------------------   ------------------------
     0000125C  A$lcc1558023$417                   draw
     0000125D  A$lcc1558023$418                   draw
     0000125E  A$lcc1558023$419                   draw
     0000125F  A$lcc1558023$420                   draw
     00001260  A$lcc1558023$421                   draw
     00001261  A$lcc1558023$422                   draw
     00001264  A$lcc1558023$423                   draw
     00001265  A$lcc1558023$424                   draw
     00001266  A$lcc1558023$425                   draw
     00001267  A$lcc1558023$427                   draw
     00001269  A$lcc1558023$428                   draw
     0000126A  A$lcc1558023$429                   draw
     0000126B  A$lcc1558023$430                   draw
     0000126C  A$lcc1558023$431                   draw
     0000126D  A$lcc1558023$433                   draw
     0000126E  A$lcc1558023$434                   draw
     0000126F  A$lcc1558023$436                   draw
     00001270  A$lcc1558023$437                   draw
     00001273  A$lcc1558023$438                   draw
     00001274  A$lcc1558023$439                   draw
     00001275  A$lcc1558023$440                   draw
     00001276  A$lcc1558023$441                   draw
     00001277  A$lcc1558023$442                   draw
     00001278  A$lcc1558023$443                   draw
     00001279  A$lcc1558023$444                   draw
     0000127A  A$lcc1558023$446                   draw
     0000127B  A$lcc1558023$447                   draw
     0000127C  A$lcc1558023$448                   draw
     0000127D  A$lcc1558023$449                   draw
     0000127F  A$lcc1558023$450                   draw
     00001280  A$lcc1558023$451                   draw
     00001281  A$lcc1558023$459                   draw
     00001281  C$draw.c$50$2_0$136                draw
     00001283  A$lcc1558023$464                   draw
     00001283  C$draw.c$52$2_0$136                draw
     00001283  XG$draw_actor$0$0                  draw
     00001284  A$lcc1558024$60                    entity
     00001284  C$entity.c$7$0_0$3                 entity
     00001284  C$entity.c$9$2_0$4                 entity
     00001284  G$create_entity$0$0                entity
     00001284  _create_entity                     entity
     00001287  A$lcc1558024$61                    entity
     00001289  A$lcc1558024$62                    entity
     0000128B  A$lcc1558024$66                    entity
     0000128B  C$entity.c$10$3_0$5                entity
     0000128C  A$lcc1558024$67                    entity
     0000128D  A$lcc1558024$72                    entity
     0000128D  C$entity.c$13$1_0$3                entity
     00001290  A$lcc1558024$73                    entity
     00001291  A$lcc1558024$74                    entity
     00001294  A$lcc1558024$75                    entity
ASxxxx Linker V03.00/V05.40 + sdld,  page 29.
Hexadecimal  [32-Bits]

Area                                    Addr        Size        Decimal Bytes (Attributes)
--------------------------------        ----        ----        ------- ----- ------------
_CODE                               00000200    00002573 =        9587. bytes (REL,CON)

      Value  Global                              Global Defined In Module
      -----  --------------------------------   ------------------------
     00001295  A$lcc1558024$76                    entity
     00001296  A$lcc1558024$84                    entity
     00001296  C$entity.c$14$1_0$3                entity
     00001296  XG$create_entity$0$0               entity
     00001297  A$lcc1558024$97                    entity
     00001297  C$entity.c$16$1_0$6                entity
     00001297  C$entity.c$18$1_0$6                entity
     00001297  G$reset_entities$0$0               entity
     00001297  _reset_entities                    entity
     0000129A  A$lcc1558024$98                    entity
     0000129C  A$lcc1558024$106                   entity
     0000129C  C$entity.c$19$1_0$6                entity
     0000129C  XG$reset_entities$0$0              entity
     0000129D  A$lcc1558026$56                    global_action
     0000129D  C$global_action.c$4$0_0$142        global_action
     0000129D  C$global_action.c$6$1_0$142        global_action
     0000129D  G$check_global_input$0$0           global_action
     0000129D  _check_global_input                global_action
     000012A0  A$lcc1558026$60                    global_action
     000012A0  C$global_action.c$9$1_0$142        global_action
     000012A3  A$lcc1558026$61                    global_action
     000012A6  A$lcc1558026$69                    global_action
     000012A6  C$global_action.c$10$1_0$142       global_action
     000012A6  XG$check_global_input$0$0          global_action
     000012A7  A$lcc1558028$57                    inventory
     000012A7  C$inventory.c$11$0_0$141           inventory
     000012A7  G$init_arrow$0$0                   inventory
     000012A7  _init_arrow                        inventory
     000012A8  A$lcc1558028$58                    inventory
     000012A9  A$lcc1558028$62                    inventory
     000012A9  C$inventory.c$13$1_0$141           inventory
     000012AC  A$lcc1558028$63                    inventory
     000012AD  A$lcc1558028$64                    inventory
     000012AF  A$lcc1558028$65                    inventory
     000012B2  A$lcc1558028$66                    inventory
     000012B3  A$lcc1558028$67                    inventory
     000012B5  A$lcc1558028$71                    inventory
     000012B5  C$inventory.c$14$1_0$141           inventory
     000012B8  A$lcc1558028$72                    inventory
     000012BB  A$lcc1558028$73                    inventory
     000012BC  A$lcc1558028$74                    inventory
     000012BE  A$lcc1558028$75                    inventory
     000012BF  A$lcc1558028$76                    inventory
     000012C1  A$lcc1558028$80                    inventory
     000012C1  C$inventory.c$16$1_0$141           inventory
     000012C4  A$lcc1558028$81                    inventory
     000012C7  A$lcc1558028$82                    inventory
     000012C8  A$lcc1558028$83                    inventory
     000012C9  A$lcc1558028$84                    inventory
     000012CB  A$lcc1558028$85                    inventory
     000012CC  A$lcc1558028$86                    inventory
ASxxxx Linker V03.00/V05.40 + sdld,  page 30.
Hexadecimal  [32-Bits]

Area                                    Addr        Size        Decimal Bytes (Attributes)
--------------------------------        ----        ----        ------- ----- ------------
_CODE                               00000200    00002573 =        9587. bytes (REL,CON)

      Value  Global                              Global Defined In Module
      -----  --------------------------------   ------------------------
     000012CF  A$lcc1558028$87                    inventory
     000012D1  A$lcc1558028$88                    inventory
     000012D2  A$lcc1558028$89                    inventory
     000012D4  A$lcc1558028$90                    inventory
     000012D6  A$lcc1558028$91                    inventory
     000012D7  A$lcc1558028$92                    inventory
     000012D8  A$lcc1558028$93                    inventory
     000012D9  A$lcc1558028$94                    inventory
     000012DA  A$lcc1558028$95                    inventory
     000012DB  A$lcc1558028$96                    inventory
     000012DC  A$lcc1558028$100                   inventory
     000012DC  C$inventory.c$17$1_0$141           inventory
     000012DF  A$lcc1558028$101                   inventory
     000012E0  A$lcc1558028$102                   inventory
     000012E1  A$lcc1558028$103                   inventory
     000012E3  A$lcc1558028$104                   inventory
     000012E4  A$lcc1558028$105                   inventory
     000012E6  A$lcc1558028$106                   inventory
     000012E8  A$lcc1558028$107                   inventory
     000012E9  A$lcc1558028$108                   inventory
     000012EA  A$lcc1558028$109                   inventory
     000012EC  A$lcc1558028$110                   inventory
     000012ED  A$lcc1558028$111                   inventory
     000012EE  A$lcc1558028$112                   inventory
     000012EF  A$lcc1558028$113                   inventory
     000012F0  A$lcc1558028$114                   inventory
     000012F1  A$lcc1558028$115                   inventory
     000012F2  A$lcc1558028$116                   inventory
     000012F3  A$lcc1558028$120                   inventory
     000012F3  C$inventory.c$19$1_0$141           inventory
     000012F6  A$lcc1558028$121                   inventory
     000012F7  A$lcc1558028$122                   inventory
     000012F9  A$lcc1558028$123                   inventory
     000012FC  A$lcc1558028$124                   inventory
     000012FD  A$lcc1558028$125                   inventory
     000012FF  A$lcc1558028$129                   inventory
     000012FF  C$inventory.c$20$1_0$141           inventory
     00001302  A$lcc1558028$130                   inventory
     00001305  A$lcc1558028$131                   inventory
     00001306  A$lcc1558028$132                   inventory
     00001308  A$lcc1558028$133                   inventory
     00001309  A$lcc1558028$134                   inventory
     0000130B  A$lcc1558028$138                   inventory
     0000130B  C$inventory.c$21$1_0$141           inventory
     0000130E  A$lcc1558028$139                   inventory
     00001311  A$lcc1558028$140                   inventory
     00001312  A$lcc1558028$141                   inventory
     00001314  A$lcc1558028$142                   inventory
     00001315  A$lcc1558028$143                   inventory
     00001317  A$lcc1558028$147                   inventory
     00001317  C$inventory.c$23$2_0$142           inventory
ASxxxx Linker V03.00/V05.40 + sdld,  page 31.
Hexadecimal  [32-Bits]

Area                                    Addr        Size        Decimal Bytes (Attributes)
--------------------------------        ----        ----        ------- ----- ------------
_CODE                               00000200    00002573 =        9587. bytes (REL,CON)

      Value  Global                              Global Defined In Module
      -----  --------------------------------   ------------------------
     00001319  A$lcc1558028$148                   inventory
     0000131B  A$lcc1558028$149                   inventory
     0000131C  A$lcc1558028$150                   inventory
     0000131E  A$lcc1558028$154                   inventory
     0000131E  C$inventory.c$25$1_1$142           inventory
     00001321  A$lcc1558028$155                   inventory
     00001322  A$lcc1558028$156                   inventory
     00001324  A$lcc1558028$157                   inventory
     00001325  A$lcc1558028$158                   inventory
     00001326  A$lcc1558028$159                   inventory
     00001327  A$lcc1558028$160                   inventory
     00001328  A$lcc1558028$161                   inventory
     00001329  A$lcc1558028$162                   inventory
     0000132A  A$lcc1558028$163                   inventory
     0000132B  A$lcc1558028$164                   inventory
     0000132C  A$lcc1558028$165                   inventory
     0000132D  A$lcc1558028$166                   inventory
     00001330  A$lcc1558028$167                   inventory
     00001331  A$lcc1558028$168                   inventory
     00001332  A$lcc1558028$169                   inventory
     00001333  A$lcc1558028$170                   inventory
     00001336  A$lcc1558028$171                   inventory
     00001337  A$lcc1558028$172                   inventory
     00001339  A$lcc1558028$173                   inventory
     0000133A  A$lcc1558028$174                   inventory
     0000133B  A$lcc1558028$175                   inventory
     0000133E  A$lcc1558028$176                   inventory
     0000133F  A$lcc1558028$177                   inventory
     00001340  A$lcc1558028$178                   inventory
     00001341  A$lcc1558028$179                   inventory
     00001342  A$lcc1558028$180                   inventory
     00001343  A$lcc1558028$181                   inventory
     00001344  A$lcc1558028$182                   inventory
     00001347  A$lcc1558028$186                   inventory
     0000134A  A$lcc1558028$187                   inventory
     0000134B  A$lcc1558028$192                   inventory
     0000134B  C$inventory.c$26$1_1$141           inventory
     0000134B  XG$init_arrow$0$0                  inventory
     0000134C  A$lcc1558029$63                    inventory_input
     0000134C  C$inventory_input.c$19$0_0$146     inventory_input
     0000134C  C$inventory_input.c$21$1_0$146     inventory_input
     0000134C  G$inventory_input$0$0              inventory_input
     0000134C  _inventory_input                   inventory_input
     0000134F  A$lcc1558029$64                    inventory_input
     00001352  A$lcc1558029$65                    inventory_input
     00001353  A$lcc1558029$69                    inventory_input
     00001353  C$inventory_input.c$23$2_0$147     inventory_input
     00001355  A$lcc1558029$70                    inventory_input
     00001357  A$lcc1558029$71                    inventory_input
     0000135A  A$lcc1558029$72                    inventory_input
     0000135C  A$lcc1558029$73                    inventory_input
ASxxxx Linker V03.00/V05.40 + sdld,  page 32.
Hexadecimal  [32-Bits]

Area                                    Addr        Size        Decimal Bytes (Attributes)
--------------------------------        ----        ----        ------- ----- ------------
_CODE                               00000200    00002573 =        9587. bytes (REL,CON)

      Value  Global                              Global Defined In Module
      -----  --------------------------------   ------------------------
     0000135E  A$lcc1558029$77                    inventory_input
     0000135E  C$inventory_input.c$25$3_0$148     inventory_input
     00001361  A$lcc1558029$78                    inventory_input
     00001364  A$lcc1558029$79                    inventory_input
     00001365  A$lcc1558029$80                    inventory_input
     00001366  A$lcc1558029$81                    inventory_input
     00001367  A$lcc1558029$82                    inventory_input
     00001368  A$lcc1558029$83                    inventory_input
     00001369  A$lcc1558029$84                    inventory_input
     0000136A  A$lcc1558029$85                    inventory_input
     0000136B  A$lcc1558029$86                    inventory_input
     0000136E  A$lcc1558029$87                    inventory_input
     00001370  A$lcc1558029$88                    inventory_input
     00001371  A$lcc1558029$89                    inventory_input
     00001373  A$lcc1558029$90                    inventory_input
     00001374  A$lcc1558029$91                    inventory_input
     00001375  A$lcc1558029$92                    inventory_input
     00001378  A$lcc1558029$96                    inventory_input
     00001378  C$inventory_input.c$26$3_0$148     inventory_input
     0000137B  A$lcc1558029$97                    inventory_input
     0000137E  A$lcc1558029$98                    inventory_input
     0000137F  A$lcc1558029$99                    inventory_input
     00001381  A$lcc1558029$100                   inventory_input
     00001382  A$lcc1558029$101                   inventory_input
     00001384  A$lcc1558029$105                   inventory_input
     00001384  C$inventory_input.c$27$3_0$148     inventory_input
     00001387  A$lcc1558029$106                   inventory_input
     0000138A  A$lcc1558029$114                   inventory_input
     0000138A  C$inventory_input.c$26$1_1$146     inventory_input
     0000138D  A$lcc1558029$115                   inventory_input
     0000138E  A$lcc1558029$119                   inventory_input
     0000138E  C$inventory_input.c$30$1_1$149     inventory_input
     00001391  A$lcc1558029$120                   inventory_input
     00001393  A$lcc1558029$121                   inventory_input
     00001394  A$lcc1558029$122                   inventory_input
     00001395  A$lcc1558029$126                   inventory_input
     00001395  C$inventory_input.c$31$1_1$149     inventory_input
     00001398  A$lcc1558029$127                   inventory_input
     0000139A  A$lcc1558029$128                   inventory_input
     0000139B  A$lcc1558029$129                   inventory_input
     0000139C  A$lcc1558029$133                   inventory_input
     0000139C  C$inventory_input.c$23$1_1$146     inventory_input
     0000139F  A$lcc1558029$134                   inventory_input
     000013A0  A$lcc1558029$135                   inventory_input
     000013A3  A$lcc1558029$139                   inventory_input
     000013A3  C$inventory_input.c$33$2_1$150     inventory_input
     000013A5  A$lcc1558029$140                   inventory_input
     000013A7  A$lcc1558029$141                   inventory_input
     000013A9  A$lcc1558029$142                   inventory_input
     000013AB  A$lcc1558029$146                   inventory_input
     000013AB  C$inventory_input.c$35$3_1$151     inventory_input
ASxxxx Linker V03.00/V05.40 + sdld,  page 33.
Hexadecimal  [32-Bits]

Area                                    Addr        Size        Decimal Bytes (Attributes)
--------------------------------        ----        ----        ------- ----- ------------
_CODE                               00000200    00002573 =        9587. bytes (REL,CON)

      Value  Global                              Global Defined In Module
      -----  --------------------------------   ------------------------
     000013AC  A$lcc1558029$147                   inventory_input
     000013AE  A$lcc1558029$148                   inventory_input
     000013AF  A$lcc1558029$149                   inventory_input
     000013B1  A$lcc1558029$154                   inventory_input
     000013B1  C$inventory_input.c$37$3_1$152     inventory_input
     000013B3  A$lcc1558029$155                   inventory_input
     000013B5  A$lcc1558029$156                   inventory_input
     000013B7  A$lcc1558029$157                   inventory_input
     000013B9  A$lcc1558029$161                   inventory_input
     000013B9  C$inventory_input.c$39$4_1$153     inventory_input
     000013BA  A$lcc1558029$162                   inventory_input
     000013BC  A$lcc1558029$163                   inventory_input
     000013BD  A$lcc1558029$164                   inventory_input
     000013BF  A$lcc1558029$169                   inventory_input
     000013BF  C$inventory_input.c$41$4_1$154     inventory_input
     000013C1  A$lcc1558029$170                   inventory_input
     000013C3  A$lcc1558029$171                   inventory_input
     000013C5  A$lcc1558029$172                   inventory_input
     000013C7  A$lcc1558029$176                   inventory_input
     000013C7  C$inventory_input.c$43$5_1$155     inventory_input
     000013C8  A$lcc1558029$177                   inventory_input
     000013CA  A$lcc1558029$178                   inventory_input
     000013CB  A$lcc1558029$179                   inventory_input
     000013CD  A$lcc1558029$184                   inventory_input
     000013CD  C$inventory_input.c$45$5_1$156     inventory_input
     000013CF  A$lcc1558029$185                   inventory_input
     000013D1  A$lcc1558029$186                   inventory_input
     000013D3  A$lcc1558029$187                   inventory_input
     000013D5  A$lcc1558029$191                   inventory_input
     000013D5  C$inventory_input.c$47$6_1$157     inventory_input
     000013D6  A$lcc1558029$192                   inventory_input
     000013D8  A$lcc1558029$193                   inventory_input
     000013D9  A$lcc1558029$198                   inventory_input
     000013D9  C$inventory_input.c$50$2_1$158     inventory_input
     000013DB  A$lcc1558029$199                   inventory_input
     000013DC  A$lcc1558029$200                   inventory_input
     000013DE  A$lcc1558029$204                   inventory_input
     000013DE  C$inventory_input.c$51$2_1$158     inventory_input
     000013E0  A$lcc1558029$209                   inventory_input
     000013E0  C$inventory_input.c$52$2_1$159     inventory_input
     000013E1  A$lcc1558029$210                   inventory_input
     000013E3  A$lcc1558029$211                   inventory_input
     000013E5  A$lcc1558029$215                   inventory_input
     000013E5  C$inventory_input.c$53$2_1$159     inventory_input
     000013E7  A$lcc1558029$220                   inventory_input
     000013E7  C$inventory_input.c$55$2_1$160     inventory_input
     000013E9  A$lcc1558029$221                   inventory_input
     000013EA  A$lcc1558029$222                   inventory_input
     000013EC  A$lcc1558029$226                   inventory_input
     000013EC  C$inventory_input.c$56$2_1$160     inventory_input
     000013EE  A$lcc1558029$231                   inventory_input
ASxxxx Linker V03.00/V05.40 + sdld,  page 34.
Hexadecimal  [32-Bits]

Area                                    Addr        Size        Decimal Bytes (Attributes)
--------------------------------        ----        ----        ------- ----- ------------
_CODE                               00000200    00002573 =        9587. bytes (REL,CON)

      Value  Global                              Global Defined In Module
      -----  --------------------------------   ------------------------
     000013EE  C$inventory_input.c$57$2_1$161     inventory_input
     000013EF  A$lcc1558029$232                   inventory_input
     000013F1  A$lcc1558029$233                   inventory_input
     000013F3  A$lcc1558029$237                   inventory_input
     000013F3  C$inventory_input.c$58$2_1$161     inventory_input
     000013F5  A$lcc1558029$242                   inventory_input
     000013F5  C$inventory_input.c$60$1_1$149     inventory_input
     000013F6  A$lcc1558029$246                   inventory_input
     000013F6  C$inventory_input.c$61$1_1$149     inventory_input
     000013F9  A$lcc1558029$247                   inventory_input
     000013FA  A$lcc1558029$248                   inventory_input
     000013FC  A$lcc1558029$249                   inventory_input
     000013FF  A$lcc1558029$250                   inventory_input
     00001400  A$lcc1558029$251                   inventory_input
     00001401  A$lcc1558029$255                   inventory_input
     00001401  C$inventory_input.c$63$1_1$149     inventory_input
     00001404  A$lcc1558029$256                   inventory_input
     00001407  A$lcc1558029$264                   inventory_input
     00001407  C$inventory_input.c$64$1_1$146     inventory_input
     00001407  XG$inventory_input$0$0             inventory_input
     00001408  G$top_limit$0_0$0                  inventory_input
     00001408  _top_limit                         inventory_input
     00001409  G$bottom_limit$0_0$0               inventory_input
     00001409  _bottom_limit                      inventory_input
     0000140A  G$left_limit$0_0$0                 inventory_input
     0000140A  _left_limit                        inventory_input
     0000140B  G$right_limit$0_0$0                inventory_input
     0000140B  _right_limit                       inventory_input
     0000140C  G$VERTICAL_MOVEMENT$0_0$0          inventory_input
     0000140C  _VERTICAL_MOVEMENT                 inventory_input
     0000140D  G$HORIZONTAL_MOVEMENT$0_0$0        inventory_input
     0000140D  _HORIZONTAL_MOVEMENT               inventory_input
     0000140E  A$lcc1558030$58                    load
     0000140E  C$load.c$8$0_0$132                 load
     0000140E  G$load_actor_tiles$0$0             load
     0000140E  _load_actor_tiles                  load
     00001410  A$lcc1558030$59                    load
     00001412  A$lcc1558030$60                    load
     00001413  A$lcc1558030$61                    load
     00001414  A$lcc1558030$62                    load
     00001415  A$lcc1558030$63                    load
     00001416  A$lcc1558030$64                    load
     00001417  A$lcc1558030$68                    load
     00001417  C$load.c$9$2_0$132                 load
     0000141A  A$lcc1558030$69                    load
     0000141B  A$lcc1558030$73                    load
     0000141B  C$load.c$12$1_0$132                load
     0000141D  A$lcc1558030$75                    load
     0000141E  A$lcc1558030$76                    load
     00001420  A$lcc1558030$77                    load
     00001421  A$lcc1558030$78                    load
ASxxxx Linker V03.00/V05.40 + sdld,  page 35.
Hexadecimal  [32-Bits]

Area                                    Addr        Size        Decimal Bytes (Attributes)
--------------------------------        ----        ----        ------- ----- ------------
_CODE                               00000200    00002573 =        9587. bytes (REL,CON)

      Value  Global                              Global Defined In Module
      -----  --------------------------------   ------------------------
     00001423  A$lcc1558030$82                    load
     00001423  C$load.c$13$3_0$134                load
     00001424  A$lcc1558030$83                    load
     00001426  A$lcc1558030$84                    load
     00001427  A$lcc1558030$85                    load
     00001428  A$lcc1558030$86                    load
     00001429  A$lcc1558030$87                    load
     0000142B  A$lcc1558030$88                    load
     0000142C  A$lcc1558030$89                    load
     0000142D  A$lcc1558030$90                    load
     0000142E  A$lcc1558030$91                    load
     0000142F  A$lcc1558030$92                    load
     00001430  A$lcc1558030$93                    load
     00001431  A$lcc1558030$94                    load
     00001432  A$lcc1558030$95                    load
     00001433  A$lcc1558030$96                    load
     00001434  A$lcc1558030$97                    load
     00001435  A$lcc1558030$98                    load
     00001436  A$lcc1558030$99                    load
     00001437  A$lcc1558030$100                   load
     00001438  A$lcc1558030$101                   load
     00001439  A$lcc1558030$102                   load
     0000143A  A$lcc1558030$103                   load
     0000143B  A$lcc1558030$104                   load
     0000143C  A$lcc1558030$105                   load
     0000143E  A$lcc1558030$106                   load
     0000143F  A$lcc1558030$107                   load
     00001440  A$lcc1558030$108                   load
     00001441  A$lcc1558030$109                   load
     00001442  A$lcc1558030$110                   load
     00001445  A$lcc1558030$111                   load
     00001447  A$lcc1558030$115                   load
     00001447  C$load.c$12$2_0$133                load
     00001448  A$lcc1558030$116                   load
     0000144A  A$lcc1558030$121                   load
     0000144A  C$load.c$17$1_0$132                load
     0000144D  A$lcc1558030$122                   load
     0000144F  A$lcc1558030$123                   load
     00001450  A$lcc1558030$124                   load
     00001452  A$lcc1558030$125                   load
     00001453  A$lcc1558030$126                   load
     00001454  A$lcc1558030$127                   load
     00001455  A$lcc1558030$128                   load
     00001456  A$lcc1558030$129                   load
     00001457  A$lcc1558030$133                   load
     00001457  C$load.c$18$1_0$132                load
     0000145A  A$lcc1558030$134                   load
     0000145C  A$lcc1558030$135                   load
     0000145D  A$lcc1558030$136                   load
     0000145F  A$lcc1558030$137                   load
     00001460  A$lcc1558030$138                   load
ASxxxx Linker V03.00/V05.40 + sdld,  page 36.
Hexadecimal  [32-Bits]

Area                                    Addr        Size        Decimal Bytes (Attributes)
--------------------------------        ----        ----        ------- ----- ------------
_CODE                               00000200    00002573 =        9587. bytes (REL,CON)

      Value  Global                              Global Defined In Module
      -----  --------------------------------   ------------------------
     00001461  A$lcc1558030$139                   load
     00001462  A$lcc1558030$140                   load
     00001464  A$lcc1558030$141                   load
     00001465  A$lcc1558030$142                   load
     00001466  A$lcc1558030$146                   load
     00001466  C$load.c$21$1_0$132                load
     00001469  A$lcc1558030$147                   load
     0000146B  A$lcc1558030$148                   load
     0000146C  A$lcc1558030$149                   load
     0000146F  A$lcc1558030$153                   load
     0000146F  C$load.c$23$1_0$132                load
     00001470  A$lcc1558030$157                   load
     00001470  C$load.c$24$1_0$132                load
     00001472  A$lcc1558030$158                   load
     00001473  A$lcc1558030$159                   load
     00001474  A$lcc1558030$160                   load
     00001475  A$lcc1558030$173                   load
     00001475  C$load.c$26$1_0$136                load
     00001475  C$load.c$27$3_0$138                load
     00001475  G$reset_render_component$0$0       load
     00001475  _reset_render_component            load
     00001477  A$lcc1558030$175                   load
     00001478  A$lcc1558030$176                   load
     0000147B  A$lcc1558030$177                   load
     0000147C  A$lcc1558030$178                   load
     0000147E  A$lcc1558030$182                   load
     0000147E  C$load.c$28$3_0$138                load
     00001481  A$lcc1558030$183                   load
     00001483  A$lcc1558030$184                   load
     00001484  A$lcc1558030$185                   load
     00001486  A$lcc1558030$189                   load
     00001486  C$load.c$29$3_0$138                load
     00001489  A$lcc1558030$190                   load
     0000148B  A$lcc1558030$191                   load
     0000148C  A$lcc1558030$192                   load
     0000148E  A$lcc1558030$196                   load
     0000148E  C$load.c$27$2_0$137                load
     0000148F  A$lcc1558030$197                   load
     00001491  A$lcc1558030$202                   load
     00001491  C$load.c$32$1_0$136                load
     00001492  A$lcc1558030$203                   load
     00001495  A$lcc1558030$211                   load
     00001495  C$load.c$33$1_0$136                load
     00001495  XG$reset_render_component$0$0      load
     00001496  A$lcc1558031$56                    map_scenes
     00001496  C$map_scenes.c$10$0_0$46           map_scenes
     00001496  G$scene_manager_MapScene$0$0       map_scenes
     00001496  _scene_manager_MapScene            map_scenes
     00001497  A$lcc1558031$60                    map_scenes
     00001497  C$map_scenes.c$12$2_0$46           map_scenes
     00001499  A$lcc1558031$61                    map_scenes
ASxxxx Linker V03.00/V05.40 + sdld,  page 37.
Hexadecimal  [32-Bits]

Area                                    Addr        Size        Decimal Bytes (Attributes)
--------------------------------        ----        ----        ------- ----- ------------
_CODE                               00000200    00002573 =        9587. bytes (REL,CON)

      Value  Global                              Global Defined In Module
      -----  --------------------------------   ------------------------
     0000149A  A$lcc1558031$62                    map_scenes
     0000149C  A$lcc1558031$63                    map_scenes
     0000149E  A$lcc1558031$64                    map_scenes
     000014A1  A$lcc1558031$65                    map_scenes
     000014A2  A$lcc1558031$66                    map_scenes
     000014A3  A$lcc1558031$67                    map_scenes
     000014A4  A$lcc1558031$68                    map_scenes
     000014A5  A$lcc1558031$69                    map_scenes
     000014A6  A$lcc1558031$70                    map_scenes
     000014A7  A$lcc1558031$71                    map_scenes
     000014B0  A$lcc1558031$84                    map_scenes
     000014B0  C$map_scenes.c$14$3_0$47           map_scenes
     000014B0  C$map_scenes.c$15$3_0$47           map_scenes
     000014B3  A$lcc1558031$88                    map_scenes
     000014B3  C$map_scenes.c$16$3_0$47           map_scenes
     000014B6  A$lcc1558031$89                    map_scenes
     000014B7  A$lcc1558031$97                    map_scenes
     000014B7  C$map_scenes.c$17$3_0$47           map_scenes
     000014B7  C$map_scenes.c$18$3_0$47           map_scenes
     000014BA  A$lcc1558031$101                   map_scenes
     000014BA  C$map_scenes.c$19$3_0$47           map_scenes
     000014BD  A$lcc1558031$102                   map_scenes
     000014BE  A$lcc1558031$110                   map_scenes
     000014BE  C$map_scenes.c$20$3_0$47           map_scenes
     000014BE  C$map_scenes.c$21$3_0$47           map_scenes
     000014C1  A$lcc1558031$114                   map_scenes
     000014C1  C$map_scenes.c$22$3_0$47           map_scenes
     000014C4  A$lcc1558031$115                   map_scenes
     000014C5  A$lcc1558031$123                   map_scenes
     000014C5  C$map_scenes.c$23$3_0$47           map_scenes
     000014C5  C$map_scenes.c$24$3_0$47           map_scenes
     000014C8  A$lcc1558031$127                   map_scenes
     000014C8  C$map_scenes.c$25$3_0$47           map_scenes
     000014CB  A$lcc1558031$128                   map_scenes
     000014CC  A$lcc1558031$136                   map_scenes
     000014CC  C$map_scenes.c$26$3_0$47           map_scenes
     000014CC  C$map_scenes.c$27$3_0$47           map_scenes
     000014CF  A$lcc1558031$147                   map_scenes
     000014CF  C$map_scenes.c$28$2_0$46           map_scenes
     000014CF  C$map_scenes.c$29$2_0$46           map_scenes
     000014CF  XG$scene_manager_MapScene$0$0      map_scenes
     000014D0  A$lcc1558032$56                    money
     000014D0  C$money.c$5$0_0$3                  money
     000014D0  G$add_money$0$0                    money
     000014D0  _add_money                         money
     000014D1  A$lcc1558032$60                    money
     000014D1  C$money.c$6$1_0$3                  money
     000014D2  A$lcc1558032$61                    money
     000014D4  A$lcc1558032$62                    money
     000014D5  A$lcc1558032$63                    money
     000014D6  A$lcc1558032$64                    money
ASxxxx Linker V03.00/V05.40 + sdld,  page 38.
Hexadecimal  [32-Bits]

Area                                    Addr        Size        Decimal Bytes (Attributes)
--------------------------------        ----        ----        ------- ----- ------------
_CODE                               00000200    00002573 =        9587. bytes (REL,CON)

      Value  Global                              Global Defined In Module
      -----  --------------------------------   ------------------------
     000014D7  A$lcc1558032$65                    money
     000014D8  A$lcc1558032$66                    money
     000014D9  A$lcc1558032$67                    money
     000014DA  A$lcc1558032$68                    money
     000014DB  A$lcc1558032$69                    money
     000014DC  A$lcc1558032$70                    money
     000014DD  A$lcc1558032$71                    money
     000014E0  A$lcc1558032$72                    money
     000014E1  A$lcc1558032$73                    money
     000014E4  A$lcc1558032$74                    money
     000014E5  A$lcc1558032$75                    money
     000014E6  A$lcc1558032$76                    money
     000014E7  A$lcc1558032$77                    money
     000014E8  A$lcc1558032$78                    money
     000014E9  A$lcc1558032$79                    money
     000014EA  A$lcc1558032$80                    money
     000014ED  A$lcc1558032$81                    money
     000014EE  A$lcc1558032$82                    money
     000014EF  A$lcc1558032$83                    money
     000014F0  A$lcc1558032$87                    money
     000014F0  C$money.c$7$1_0$3                  money
     000014F2  A$lcc1558032$88                    money
     000014F3  A$lcc1558032$89                    money
     000014F4  A$lcc1558032$90                    money
     000014F5  A$lcc1558032$91                    money
     000014F6  A$lcc1558032$92                    money
     000014F7  A$lcc1558032$93                    money
     000014F8  A$lcc1558032$94                    money
     000014F9  A$lcc1558032$95                    money
     000014FA  A$lcc1558032$96                    money
     000014FB  A$lcc1558032$97                    money
     000014FC  A$lcc1558032$98                    money
     000014FD  A$lcc1558032$99                    money
     000014FE  A$lcc1558032$100                   money
     00001501  A$lcc1558032$101                   money
     00001504  A$lcc1558032$102                   money
     00001505  A$lcc1558032$103                   money
     00001506  A$lcc1558032$104                   money
     00001507  A$lcc1558032$105                   money
     00001508  A$lcc1558032$106                   money
     00001509  A$lcc1558032$107                   money
     0000150A  A$lcc1558032$108                   money
     0000150B  A$lcc1558032$109                   money
     0000150C  A$lcc1558032$110                   money
     0000150D  A$lcc1558032$118                   money
     0000150D  C$money.c$8$1_0$3                  money
     0000150D  XG$add_money$0$0                   money
     0000150E  A$lcc1558034$75                    npcs
     0000150E  C$npcs.c$21$0_0$135                npcs
     0000150E  C$npcs.c$23$1_0$135                npcs
     0000150E  G$init_NPCs$0$0                    npcs
ASxxxx Linker V03.00/V05.40 + sdld,  page 39.
Hexadecimal  [32-Bits]

Area                                    Addr        Size        Decimal Bytes (Attributes)
--------------------------------        ----        ----        ------- ----- ------------
_CODE                               00000200    00002573 =        9587. bytes (REL,CON)

      Value  Global                              Global Defined In Module
      -----  --------------------------------   ------------------------
     0000150E  _init_NPCs                         npcs
     00001511  A$lcc1558034$76                    npcs
     00001514  A$lcc1558034$80                    npcs
     00001514  C$npcs.c$24$1_0$135                npcs
     00001517  A$lcc1558034$81                    npcs
     0000151A  A$lcc1558034$85                    npcs
     0000151A  C$npcs.c$25$1_0$135                npcs
     0000151D  A$lcc1558034$86                    npcs
     00001520  A$lcc1558034$94                    npcs
     00001520  C$npcs.c$26$1_0$135                npcs
     00001520  XG$init_NPCs$0$0                   npcs
     00001521  A$lcc1558034$104                   npcs
     00001521  C$npcs.c$28$1_0$137                npcs
     00001521  G$Scene_DrawNPCLine$0$0            npcs
     00001521  _Scene_DrawNPCLine                 npcs
     00001523  A$lcc1558034$105                   npcs
     00001525  A$lcc1558034$106                   npcs
     00001526  A$lcc1558034$110                   npcs
     00001526  C$npcs.c$36$1_0$137                npcs
     00001528  A$lcc1558034$111                   npcs
     0000152B  A$lcc1558034$112                   npcs
     0000152C  A$lcc1558034$113                   npcs
     0000152D  A$lcc1558034$114                   npcs
     0000152E  A$lcc1558034$115                   npcs
     00001530  A$lcc1558034$116                   npcs
     00001531  A$lcc1558034$117                   npcs
     00001532  A$lcc1558034$118                   npcs
     00001533  A$lcc1558034$119                   npcs
     00001535  A$lcc1558034$120                   npcs
     00001536  A$lcc1558034$121                   npcs
     00001537  A$lcc1558034$122                   npcs
     00001538  A$lcc1558034$123                   npcs
     00001539  A$lcc1558034$124                   npcs
     0000153A  A$lcc1558034$125                   npcs
     0000153C  A$lcc1558034$126                   npcs
     0000153D  A$lcc1558034$130                   npcs
     0000153D  C$npcs.c$38$1_0$137                npcs
     00001540  A$lcc1558034$131                   npcs
     00001542  A$lcc1558034$132                   npcs
     00001543  A$lcc1558034$133                   npcs
     00001544  A$lcc1558034$134                   npcs
     00001545  A$lcc1558034$135                   npcs
     00001546  A$lcc1558034$136                   npcs
     00001547  A$lcc1558034$137                   npcs
     00001548  A$lcc1558034$138                   npcs
     00001549  A$lcc1558034$139                   npcs
     0000154A  A$lcc1558034$140                   npcs
     0000154B  A$lcc1558034$144                   npcs
     0000154B  C$npcs.c$40$1_0$137                npcs
     0000154E  A$lcc1558034$145                   npcs
     0000154F  A$lcc1558034$146                   npcs
ASxxxx Linker V03.00/V05.40 + sdld,  page 40.
Hexadecimal  [32-Bits]

Area                                    Addr        Size        Decimal Bytes (Attributes)
--------------------------------        ----        ----        ------- ----- ------------
_CODE                               00000200    00002573 =        9587. bytes (REL,CON)

      Value  Global                              Global Defined In Module
      -----  --------------------------------   ------------------------
     00001550  A$lcc1558034$147                   npcs
     00001551  A$lcc1558034$148                   npcs
     00001553  A$lcc1558034$149                   npcs
     00001554  A$lcc1558034$150                   npcs
     00001555  A$lcc1558034$151                   npcs
     00001556  A$lcc1558034$152                   npcs
     00001557  A$lcc1558034$153                   npcs
     00001558  A$lcc1558034$154                   npcs
     00001559  A$lcc1558034$155                   npcs
     0000155A  A$lcc1558034$156                   npcs
     0000155B  A$lcc1558034$157                   npcs
     0000155C  A$lcc1558034$158                   npcs
     0000155D  A$lcc1558034$159                   npcs
     0000155F  A$lcc1558034$160                   npcs
     00001560  A$lcc1558034$161                   npcs
     00001561  A$lcc1558034$162                   npcs
     00001562  A$lcc1558034$163                   npcs
     00001563  A$lcc1558034$164                   npcs
     00001564  A$lcc1558034$168                   npcs
     00001564  C$npcs.c$41$1_0$137                npcs
     00001567  A$lcc1558034$169                   npcs
     00001568  A$lcc1558034$170                   npcs
     00001569  A$lcc1558034$171                   npcs
     0000156A  A$lcc1558034$175                   npcs
     0000156A  C$npcs.c$44$1_2$137                npcs
     0000156B  A$lcc1558034$176                   npcs
     0000156D  A$lcc1558034$177                   npcs
     0000156E  A$lcc1558034$178                   npcs
     0000156F  A$lcc1558034$180                   npcs
     00001570  A$lcc1558034$181                   npcs
     00001572  A$lcc1558034$182                   npcs
     00001573  A$lcc1558034$183                   npcs
     00001574  A$lcc1558034$184                   npcs
     00001575  A$lcc1558034$185                   npcs
     00001577  A$lcc1558034$186                   npcs
     00001578  A$lcc1558034$187                   npcs
     00001579  A$lcc1558034$188                   npcs
     0000157A  A$lcc1558034$189                   npcs
     0000157B  A$lcc1558034$190                   npcs
     0000157C  A$lcc1558034$191                   npcs
     0000157D  A$lcc1558034$192                   npcs
     0000157E  A$lcc1558034$193                   npcs
     0000157F  A$lcc1558034$194                   npcs
     00001580  A$lcc1558034$195                   npcs
     00001582  A$lcc1558034$199                   npcs
     00001582  C$npcs.c$46$3_0$139                npcs
     00001583  A$lcc1558034$200                   npcs
     00001586  A$lcc1558034$201                   npcs
     00001587  A$lcc1558034$202                   npcs
     00001588  A$lcc1558034$203                   npcs
     0000158A  A$lcc1558034$204                   npcs
ASxxxx Linker V03.00/V05.40 + sdld,  page 41.
Hexadecimal  [32-Bits]

Area                                    Addr        Size        Decimal Bytes (Attributes)
--------------------------------        ----        ----        ------- ----- ------------
_CODE                               00000200    00002573 =        9587. bytes (REL,CON)

      Value  Global                              Global Defined In Module
      -----  --------------------------------   ------------------------
     0000158C  A$lcc1558034$205                   npcs
     0000158D  A$lcc1558034$209                   npcs
     0000158D  C$npcs.c$47$3_0$139                npcs
     0000158F  A$lcc1558034$210                   npcs
     00001590  A$lcc1558034$211                   npcs
     00001591  A$lcc1558034$212                   npcs
     00001592  A$lcc1558034$213                   npcs
     00001595  A$lcc1558034$214                   npcs
     00001596  A$lcc1558034$215                   npcs
     00001597  A$lcc1558034$216                   npcs
     0000159A  A$lcc1558034$217                   npcs
     0000159B  A$lcc1558034$218                   npcs
     0000159D  A$lcc1558034$219                   npcs
     0000159E  A$lcc1558034$220                   npcs
     0000159F  A$lcc1558034$221                   npcs
     000015A0  A$lcc1558034$222                   npcs
     000015A1  A$lcc1558034$223                   npcs
     000015A4  A$lcc1558034$224                   npcs
     000015A6  A$lcc1558034$225                   npcs
     000015A7  A$lcc1558034$229                   npcs
     000015A7  C$npcs.c$44$2_0$138                npcs
     000015A9  A$lcc1558034$230                   npcs
     000015AA  A$lcc1558034$231                   npcs
     000015AC  A$lcc1558034$232                   npcs
     000015AD  A$lcc1558034$233                   npcs
     000015AE  A$lcc1558034$234                   npcs
     000015B0  A$lcc1558034$239                   npcs
     000015B0  C$npcs.c$51$1_2$137                npcs
     000015B1  A$lcc1558034$240                   npcs
     000015B3  A$lcc1558034$241                   npcs
     000015B4  A$lcc1558034$242                   npcs
     000015B5  A$lcc1558034$244                   npcs
     000015B6  A$lcc1558034$245                   npcs
     000015B8  A$lcc1558034$246                   npcs
     000015B9  A$lcc1558034$247                   npcs
     000015BA  A$lcc1558034$248                   npcs
     000015BB  A$lcc1558034$249                   npcs
     000015BC  A$lcc1558034$250                   npcs
     000015BD  A$lcc1558034$251                   npcs
     000015BE  A$lcc1558034$252                   npcs
     000015BF  A$lcc1558034$253                   npcs
     000015C0  A$lcc1558034$254                   npcs
     000015C1  A$lcc1558034$255                   npcs
     000015C3  A$lcc1558034$259                   npcs
     000015C3  C$npcs.c$53$3_0$141                npcs
     000015C4  A$lcc1558034$260                   npcs
     000015C7  A$lcc1558034$261                   npcs
     000015C8  A$lcc1558034$262                   npcs
     000015C9  A$lcc1558034$263                   npcs
     000015CB  A$lcc1558034$267                   npcs
     000015CB  C$npcs.c$54$3_0$141                npcs
ASxxxx Linker V03.00/V05.40 + sdld,  page 42.
Hexadecimal  [32-Bits]

Area                                    Addr        Size        Decimal Bytes (Attributes)
--------------------------------        ----        ----        ------- ----- ------------
_CODE                               00000200    00002573 =        9587. bytes (REL,CON)

      Value  Global                              Global Defined In Module
      -----  --------------------------------   ------------------------
     000015CD  A$lcc1558034$268                   npcs
     000015CE  A$lcc1558034$269                   npcs
     000015CF  A$lcc1558034$270                   npcs
     000015D0  A$lcc1558034$271                   npcs
     000015D2  A$lcc1558034$272                   npcs
     000015D3  A$lcc1558034$273                   npcs
     000015D4  A$lcc1558034$274                   npcs
     000015D5  A$lcc1558034$275                   npcs
     000015D6  A$lcc1558034$276                   npcs
     000015D8  A$lcc1558034$277                   npcs
     000015D9  A$lcc1558034$278                   npcs
     000015DA  A$lcc1558034$279                   npcs
     000015DC  A$lcc1558034$280                   npcs
     000015DD  A$lcc1558034$281                   npcs
     000015DE  A$lcc1558034$282                   npcs
     000015E0  A$lcc1558034$283                   npcs
     000015E1  A$lcc1558034$284                   npcs
     000015E2  A$lcc1558034$285                   npcs
     000015E3  A$lcc1558034$286                   npcs
     000015E4  A$lcc1558034$287                   npcs
     000015E7  A$lcc1558034$288                   npcs
     000015E9  A$lcc1558034$289                   npcs
     000015EA  A$lcc1558034$293                   npcs
     000015EA  C$npcs.c$51$2_0$140                npcs
     000015EC  A$lcc1558034$294                   npcs
     000015ED  A$lcc1558034$295                   npcs
     000015EF  A$lcc1558034$296                   npcs
     000015F0  A$lcc1558034$297                   npcs
     000015F1  A$lcc1558034$298                   npcs
     000015F3  A$lcc1558034$303                   npcs
     000015F5  A$lcc1558034$304                   npcs
     000015F6  A$lcc1558034$305                   npcs
     000015F8  A$lcc1558034$306                   npcs
     000015F9  A$lcc1558034$307                   npcs
     000015FA  A$lcc1558034$308                   npcs
     000015FB  A$lcc1558034$309                   npcs
     000015FC  A$lcc1558034$310                   npcs
     000015FD  A$lcc1558034$311                   npcs
     000015FE  A$lcc1558034$312                   npcs
     00001601  A$lcc1558034$313                   npcs
     00001602  A$lcc1558034$314                   npcs
     00001603  A$lcc1558034$315                   npcs
     00001604  A$lcc1558034$316                   npcs
     00001606  A$lcc1558034$317                   npcs
     00001607  A$lcc1558034$318                   npcs
     00001608  A$lcc1558034$319                   npcs
     00001609  A$lcc1558034$320                   npcs
     0000160B  A$lcc1558034$321                   npcs
     0000160C  A$lcc1558034$322                   npcs
     0000160F  A$lcc1558034$324                   npcs
     00001611  A$lcc1558034$325                   npcs
ASxxxx Linker V03.00/V05.40 + sdld,  page 43.
Hexadecimal  [32-Bits]

Area                                    Addr        Size        Decimal Bytes (Attributes)
--------------------------------        ----        ----        ------- ----- ------------
_CODE                               00000200    00002573 =        9587. bytes (REL,CON)

      Value  Global                              Global Defined In Module
      -----  --------------------------------   ------------------------
     00001612  A$lcc1558034$326                   npcs
     00001613  A$lcc1558034$327                   npcs
     00001614  A$lcc1558034$328                   npcs
     00001615  A$lcc1558034$329                   npcs
     00001616  A$lcc1558034$330                   npcs
     00001617  A$lcc1558034$331                   npcs
     00001618  A$lcc1558034$332                   npcs
     00001619  A$lcc1558034$333                   npcs
     0000161B  A$lcc1558034$337                   npcs
     0000161B  C$npcs.c$60$3_0$143                npcs
     0000161C  A$lcc1558034$338                   npcs
     0000161F  A$lcc1558034$339                   npcs
     00001620  A$lcc1558034$340                   npcs
     00001621  A$lcc1558034$341                   npcs
     00001622  A$lcc1558034$342                   npcs
     00001624  A$lcc1558034$343                   npcs
     00001626  A$lcc1558034$344                   npcs
     00001627  A$lcc1558034$348                   npcs
     00001627  C$npcs.c$61$3_0$143                npcs
     00001628  A$lcc1558034$349                   npcs
     00001629  A$lcc1558034$350                   npcs
     0000162C  A$lcc1558034$351                   npcs
     0000162D  A$lcc1558034$352                   npcs
     0000162E  A$lcc1558034$353                   npcs
     00001631  A$lcc1558034$354                   npcs
     00001632  A$lcc1558034$355                   npcs
     00001634  A$lcc1558034$356                   npcs
     00001635  A$lcc1558034$357                   npcs
     00001638  A$lcc1558034$358                   npcs
     0000163A  A$lcc1558034$362                   npcs
     0000163A  C$npcs.c$58$2_0$142                npcs
     0000163B  A$lcc1558034$363                   npcs
     0000163D  A$lcc1558034$368                   npcs
     0000163D  C$npcs.c$65$1_1$144                npcs
     0000163F  A$lcc1558034$369                   npcs
     00001640  A$lcc1558034$370                   npcs
     00001641  A$lcc1558034$371                   npcs
     00001642  A$lcc1558034$372                   npcs
     00001643  A$lcc1558034$373                   npcs
     00001645  A$lcc1558034$374                   npcs
     00001647  A$lcc1558034$375                   npcs
     00001648  A$lcc1558034$379                   npcs
     00001648  C$npcs.c$66$1_1$144                npcs
     0000164B  A$lcc1558034$380                   npcs
     0000164C  A$lcc1558034$381                   npcs
     0000164D  A$lcc1558034$382                   npcs
     00001650  A$lcc1558034$383                   npcs
     00001651  A$lcc1558034$384                   npcs
     00001654  A$lcc1558034$385                   npcs
     00001655  A$lcc1558034$386                   npcs
     00001658  A$lcc1558034$387                   npcs
ASxxxx Linker V03.00/V05.40 + sdld,  page 44.
Hexadecimal  [32-Bits]

Area                                    Addr        Size        Decimal Bytes (Attributes)
--------------------------------        ----        ----        ------- ----- ------------
_CODE                               00000200    00002573 =        9587. bytes (REL,CON)

      Value  Global                              Global Defined In Module
      -----  --------------------------------   ------------------------
     0000165A  A$lcc1558034$391                   npcs
     0000165A  C$npcs.c$69$2_1$145                npcs
     0000165C  A$lcc1558034$392                   npcs
     0000165E  A$lcc1558034$396                   npcs
     0000165E  C$npcs.c$70$1_2$145                npcs
     00001661  A$lcc1558034$397                   npcs
     00001662  A$lcc1558034$398                   npcs
     00001663  A$lcc1558034$399                   npcs
     00001666  A$lcc1558034$400                   npcs
     00001667  A$lcc1558034$401                   npcs
     0000166A  A$lcc1558034$402                   npcs
     0000166B  A$lcc1558034$403                   npcs
     0000166E  A$lcc1558034$407                   npcs
     0000166E  C$npcs.c$71$1_2$137                npcs
     00001670  A$lcc1558034$408                   npcs
     00001671  A$lcc1558034$409                   npcs
     00001673  A$lcc1558034$410                   npcs
     00001674  A$lcc1558036$66                    player
     00001674  C$player.c$7$0_0$136               player
     00001674  G$init_player$0$0                  player
     00001674  _init_player                       player
     00001676  A$lcc1558036$70                    player
     00001676  C$player.c$9$1_0$136               player
     00001679  A$lcc1558036$71                    player
     0000167C  A$lcc1558036$72                    player
     0000167D  A$lcc1558036$76                    player
     0000167D  C$player.c$11$1_0$136              player
     0000167E  A$lcc1558036$77                    player
     00001680  A$lcc1558036$78                    player
     00001683  A$lcc1558036$79                    player
     00001684  A$lcc1558036$80                    player
     00001686  A$lcc1558036$84                    player
     00001686  C$player.c$12$1_0$136              player
     00001689  A$lcc1558036$85                    player
     0000168C  A$lcc1558036$86                    player
     0000168D  A$lcc1558036$87                    player
     0000168F  A$lcc1558036$88                    player
     00001690  A$lcc1558036$89                    player
     00001692  A$lcc1558036$93                    player
     00001692  C$player.c$11$1_1$136              player
     00001695  A$lcc1558036$94                    player
     00001696  A$lcc1558036$98                    player
     00001696  C$player.c$14$1_0$136              player
     00001697  A$lcc1558036$99                    player
     00001699  A$lcc1558036$100                   player
     0000169A  A$lcc1558036$101                   player
     0000169B  A$lcc1558036$102                   player
     0000169E  A$lcc1558036$106                   player
     0000169E  C$player.c$16$1_0$136              player
     000016A1  A$lcc1558036$107                   player
     000016A2  A$lcc1558036$108                   player
ASxxxx Linker V03.00/V05.40 + sdld,  page 45.
Hexadecimal  [32-Bits]

Area                                    Addr        Size        Decimal Bytes (Attributes)
--------------------------------        ----        ----        ------- ----- ------------
_CODE                               00000200    00002573 =        9587. bytes (REL,CON)

      Value  Global                              Global Defined In Module
      -----  --------------------------------   ------------------------
     000016A4  A$lcc1558036$109                   player
     000016A5  A$lcc1558036$110                   player
     000016A7  A$lcc1558036$111                   player
     000016A9  A$lcc1558036$112                   player
     000016AA  A$lcc1558036$113                   player
     000016AC  A$lcc1558036$114                   player
     000016AD  A$lcc1558036$115                   player
     000016AE  A$lcc1558036$116                   player
     000016B0  A$lcc1558036$117                   player
     000016B2  A$lcc1558036$118                   player
     000016B3  A$lcc1558036$119                   player
     000016B4  A$lcc1558036$120                   player
     000016B5  A$lcc1558036$121                   player
     000016B6  A$lcc1558036$122                   player
     000016B7  A$lcc1558036$123                   player
     000016B8  A$lcc1558036$127                   player
     000016B8  C$player.c$17$1_0$136              player
     000016BB  A$lcc1558036$128                   player
     000016BC  A$lcc1558036$129                   player
     000016BD  A$lcc1558036$130                   player
     000016BF  A$lcc1558036$131                   player
     000016C0  A$lcc1558036$132                   player
     000016C2  A$lcc1558036$133                   player
     000016C4  A$lcc1558036$134                   player
     000016C5  A$lcc1558036$135                   player
     000016C6  A$lcc1558036$136                   player
     000016C8  A$lcc1558036$137                   player
     000016C9  A$lcc1558036$138                   player
     000016CA  A$lcc1558036$139                   player
     000016CB  A$lcc1558036$140                   player
     000016CC  A$lcc1558036$141                   player
     000016CD  A$lcc1558036$142                   player
     000016CE  A$lcc1558036$143                   player
     000016CF  A$lcc1558036$147                   player
     000016CF  C$player.c$19$1_0$136              player
     000016D2  A$lcc1558036$148                   player
     000016D3  A$lcc1558036$149                   player
     000016D5  A$lcc1558036$150                   player
     000016D8  A$lcc1558036$151                   player
     000016D9  A$lcc1558036$152                   player
     000016DB  A$lcc1558036$156                   player
     000016DB  C$player.c$20$1_0$136              player
     000016DE  A$lcc1558036$157                   player
     000016E1  A$lcc1558036$158                   player
     000016E2  A$lcc1558036$159                   player
     000016E4  A$lcc1558036$160                   player
     000016E5  A$lcc1558036$161                   player
     000016E7  A$lcc1558036$165                   player
     000016E7  C$player.c$21$1_0$136              player
     000016EA  A$lcc1558036$166                   player
     000016ED  A$lcc1558036$167                   player
ASxxxx Linker V03.00/V05.40 + sdld,  page 46.
Hexadecimal  [32-Bits]

Area                                    Addr        Size        Decimal Bytes (Attributes)
--------------------------------        ----        ----        ------- ----- ------------
_CODE                               00000200    00002573 =        9587. bytes (REL,CON)

      Value  Global                              Global Defined In Module
      -----  --------------------------------   ------------------------
     000016EE  A$lcc1558036$168                   player
     000016F0  A$lcc1558036$169                   player
     000016F1  A$lcc1558036$170                   player
     000016F3  A$lcc1558036$174                   player
     000016F3  C$player.c$24$2_0$137              player
     000016F6  A$lcc1558036$175                   player
     000016F7  A$lcc1558036$176                   player
     000016F8  A$lcc1558036$177                   player
     000016F9  A$lcc1558036$178                   player
     000016FB  A$lcc1558036$179                   player
     000016FD  A$lcc1558036$180                   player
     000016FE  A$lcc1558036$181                   player
     00001700  A$lcc1558036$182                   player
     00001701  A$lcc1558036$183                   player
     00001703  A$lcc1558036$184                   player
     00001704  A$lcc1558036$185                   player
     00001706  A$lcc1558036$186                   player
     00001707  A$lcc1558036$187                   player
     00001709  A$lcc1558036$188                   player
     0000170A  A$lcc1558036$189                   player
     0000170C  A$lcc1558036$193                   player
     0000170C  C$player.c$30$2_0$137              player
     0000170D  A$lcc1558036$194                   player
     0000170F  A$lcc1558036$195                   player
     00001710  A$lcc1558036$196                   player
     00001712  A$lcc1558036$197                   player
     00001713  A$lcc1558036$198                   player
     00001715  A$lcc1558036$199                   player
     00001716  A$lcc1558036$200                   player
     00001718  A$lcc1558036$201                   player
     00001719  A$lcc1558036$202                   player
     0000171B  A$lcc1558036$203                   player
     0000171C  A$lcc1558036$204                   player
     0000171E  A$lcc1558036$205                   player
     0000171F  A$lcc1558036$206                   player
     00001721  A$lcc1558036$207                   player
     00001722  A$lcc1558036$208                   player
     00001724  A$lcc1558036$209                   player
     00001725  A$lcc1558036$210                   player
     00001726  A$lcc1558036$211                   player
     00001727  A$lcc1558036$212                   player
     00001728  A$lcc1558036$213                   player
     00001729  A$lcc1558036$214                   player
     0000172B  A$lcc1558036$215                   player
     0000172C  A$lcc1558036$216                   player
     0000172E  A$lcc1558036$217                   player
     0000172F  A$lcc1558036$218                   player
     00001731  A$lcc1558036$219                   player
     00001732  A$lcc1558036$220                   player
     00001734  A$lcc1558036$221                   player
     00001735  A$lcc1558036$222                   player
ASxxxx Linker V03.00/V05.40 + sdld,  page 47.
Hexadecimal  [32-Bits]

Area                                    Addr        Size        Decimal Bytes (Attributes)
--------------------------------        ----        ----        ------- ----- ------------
_CODE                               00000200    00002573 =        9587. bytes (REL,CON)

      Value  Global                              Global Defined In Module
      -----  --------------------------------   ------------------------
     00001737  A$lcc1558036$223                   player
     00001738  A$lcc1558036$224                   player
     0000173A  A$lcc1558036$225                   player
     0000173B  A$lcc1558036$226                   player
     0000173D  A$lcc1558036$227                   player
     0000173E  A$lcc1558036$228                   player
     00001740  A$lcc1558036$229                   player
     00001741  A$lcc1558036$230                   player
     00001743  A$lcc1558036$231                   player
     00001744  A$lcc1558036$232                   player
     00001746  A$lcc1558036$233                   player
     00001747  A$lcc1558036$234                   player
     00001749  A$lcc1558036$235                   player
     0000174A  A$lcc1558036$236                   player
     0000174C  A$lcc1558036$237                   player
     0000174D  A$lcc1558036$238                   player
     0000174F  A$lcc1558036$239                   player
     00001750  A$lcc1558036$240                   player
     00001752  A$lcc1558036$241                   player
     00001753  A$lcc1558036$242                   player
     00001754  A$lcc1558036$243                   player
     00001755  A$lcc1558036$244                   player
     00001756  A$lcc1558036$245                   player
     00001757  A$lcc1558036$246                   player
     00001759  A$lcc1558036$247                   player
     0000175A  A$lcc1558036$248                   player
     0000175C  A$lcc1558036$249                   player
     0000175D  A$lcc1558036$250                   player
     0000175F  A$lcc1558036$251                   player
     00001760  A$lcc1558036$252                   player
     00001762  A$lcc1558036$253                   player
     00001763  A$lcc1558036$254                   player
     00001765  A$lcc1558036$255                   player
     00001766  A$lcc1558036$256                   player
     00001768  A$lcc1558036$260                   player
     00001768  C$player.c$53$2_0$137              player
     00001769  A$lcc1558036$261                   player
     0000176C  A$lcc1558036$262                   player
     0000176D  A$lcc1558036$263                   player
     0000176E  A$lcc1558036$264                   player
     0000176F  A$lcc1558036$265                   player
     00001770  A$lcc1558036$266                   player
     00001772  A$lcc1558036$267                   player
     00001773  A$lcc1558036$268                   player
     00001775  A$lcc1558036$269                   player
     00001776  A$lcc1558036$270                   player
     00001778  A$lcc1558036$271                   player
     00001779  A$lcc1558036$272                   player
     0000177B  A$lcc1558036$273                   player
     0000177C  A$lcc1558036$274                   player
     0000177E  A$lcc1558036$275                   player
ASxxxx Linker V03.00/V05.40 + sdld,  page 48.
Hexadecimal  [32-Bits]

Area                                    Addr        Size        Decimal Bytes (Attributes)
--------------------------------        ----        ----        ------- ----- ------------
_CODE                               00000200    00002573 =        9587. bytes (REL,CON)

      Value  Global                              Global Defined In Module
      -----  --------------------------------   ------------------------
     0000177F  A$lcc1558036$276                   player
     00001781  A$lcc1558036$280                   player
     00001781  C$player.c$59$2_0$137              player
     00001782  A$lcc1558036$281                   player
     00001784  A$lcc1558036$282                   player
     00001785  A$lcc1558036$283                   player
     00001787  A$lcc1558036$284                   player
     00001788  A$lcc1558036$285                   player
     0000178A  A$lcc1558036$286                   player
     0000178B  A$lcc1558036$287                   player
     0000178D  A$lcc1558036$288                   player
     0000178E  A$lcc1558036$289                   player
     00001790  A$lcc1558036$290                   player
     00001791  A$lcc1558036$291                   player
     00001793  A$lcc1558036$292                   player
     00001794  A$lcc1558036$293                   player
     00001796  A$lcc1558036$294                   player
     00001797  A$lcc1558036$295                   player
     00001799  A$lcc1558036$296                   player
     0000179A  A$lcc1558036$297                   player
     0000179B  A$lcc1558036$298                   player
     0000179C  A$lcc1558036$299                   player
     0000179D  A$lcc1558036$300                   player
     0000179E  A$lcc1558036$301                   player
     000017A0  A$lcc1558036$302                   player
     000017A1  A$lcc1558036$303                   player
     000017A3  A$lcc1558036$304                   player
     000017A4  A$lcc1558036$305                   player
     000017A6  A$lcc1558036$306                   player
     000017A7  A$lcc1558036$307                   player
     000017A9  A$lcc1558036$308                   player
     000017AA  A$lcc1558036$309                   player
     000017AC  A$lcc1558036$310                   player
     000017AD  A$lcc1558036$311                   player
     000017AF  A$lcc1558036$312                   player
     000017B0  A$lcc1558036$313                   player
     000017B2  A$lcc1558036$314                   player
     000017B3  A$lcc1558036$315                   player
     000017B5  A$lcc1558036$316                   player
     000017B6  A$lcc1558036$317                   player
     000017B8  A$lcc1558036$318                   player
     000017B9  A$lcc1558036$319                   player
     000017BB  A$lcc1558036$320                   player
     000017BC  A$lcc1558036$321                   player
     000017BE  A$lcc1558036$322                   player
     000017BF  A$lcc1558036$323                   player
     000017C1  A$lcc1558036$324                   player
     000017C2  A$lcc1558036$325                   player
     000017C4  A$lcc1558036$326                   player
     000017C5  A$lcc1558036$327                   player
     000017C7  A$lcc1558036$328                   player
ASxxxx Linker V03.00/V05.40 + sdld,  page 49.
Hexadecimal  [32-Bits]

Area                                    Addr        Size        Decimal Bytes (Attributes)
--------------------------------        ----        ----        ------- ----- ------------
_CODE                               00000200    00002573 =        9587. bytes (REL,CON)

      Value  Global                              Global Defined In Module
      -----  --------------------------------   ------------------------
     000017C8  A$lcc1558036$329                   player
     000017C9  A$lcc1558036$330                   player
     000017CA  A$lcc1558036$331                   player
     000017CB  A$lcc1558036$332                   player
     000017CC  A$lcc1558036$333                   player
     000017CE  A$lcc1558036$334                   player
     000017CF  A$lcc1558036$335                   player
     000017D1  A$lcc1558036$336                   player
     000017D2  A$lcc1558036$337                   player
     000017D4  A$lcc1558036$338                   player
     000017D5  A$lcc1558036$339                   player
     000017D7  A$lcc1558036$340                   player
     000017D8  A$lcc1558036$341                   player
     000017DA  A$lcc1558036$342                   player
     000017DB  A$lcc1558036$343                   player
     000017DD  A$lcc1558036$347                   player
     000017DD  C$player.c$81$1_1$137              player
     000017E0  A$lcc1558036$348                   player
     000017E1  A$lcc1558036$349                   player
     000017E3  A$lcc1558036$350                   player
     000017E4  A$lcc1558036$351                   player
     000017E5  A$lcc1558036$352                   player
     000017E6  A$lcc1558036$353                   player
     000017E7  A$lcc1558036$354                   player
     000017E8  A$lcc1558036$355                   player
     000017E9  A$lcc1558036$356                   player
     000017EA  A$lcc1558036$357                   player
     000017EB  A$lcc1558036$358                   player
     000017EC  A$lcc1558036$359                   player
     000017EF  A$lcc1558036$360                   player
     000017F0  A$lcc1558036$361                   player
     000017F1  A$lcc1558036$362                   player
     000017F2  A$lcc1558036$363                   player
     000017F5  A$lcc1558036$364                   player
     000017F6  A$lcc1558036$365                   player
     000017F8  A$lcc1558036$366                   player
     000017F9  A$lcc1558036$367                   player
     000017FA  A$lcc1558036$368                   player
     000017FD  A$lcc1558036$369                   player
     000017FE  A$lcc1558036$370                   player
     000017FF  A$lcc1558036$371                   player
     00001800  A$lcc1558036$372                   player
     00001801  A$lcc1558036$373                   player
     00001802  A$lcc1558036$374                   player
     00001803  A$lcc1558036$375                   player
     00001806  A$lcc1558036$376                   player
     00001809  A$lcc1558036$380                   player
     00001809  C$player.c$82$1_1$137              player
     0000180C  A$lcc1558036$381                   player
     0000180D  A$lcc1558036$382                   player
     0000180F  A$lcc1558036$383                   player
ASxxxx Linker V03.00/V05.40 + sdld,  page 50.
Hexadecimal  [32-Bits]

Area                                    Addr        Size        Decimal Bytes (Attributes)
--------------------------------        ----        ----        ------- ----- ------------
_CODE                               00000200    00002573 =        9587. bytes (REL,CON)

      Value  Global                              Global Defined In Module
      -----  --------------------------------   ------------------------
     00001810  A$lcc1558036$384                   player
     00001811  A$lcc1558036$385                   player
     00001812  A$lcc1558036$386                   player
     00001813  A$lcc1558036$387                   player
     00001814  A$lcc1558036$388                   player
     00001815  A$lcc1558036$389                   player
     00001816  A$lcc1558036$390                   player
     00001817  A$lcc1558036$391                   player
     00001818  A$lcc1558036$392                   player
     0000181B  A$lcc1558036$393                   player
     0000181C  A$lcc1558036$394                   player
     0000181D  A$lcc1558036$395                   player
     0000181E  A$lcc1558036$396                   player
     00001821  A$lcc1558036$397                   player
     00001822  A$lcc1558036$398                   player
     00001824  A$lcc1558036$399                   player
     00001825  A$lcc1558036$400                   player
     00001826  A$lcc1558036$401                   player
     00001829  A$lcc1558036$402                   player
     0000182A  A$lcc1558036$403                   player
     0000182B  A$lcc1558036$404                   player
     0000182D  A$lcc1558036$405                   player
     0000182E  A$lcc1558036$406                   player
     0000182F  A$lcc1558036$407                   player
     00001830  A$lcc1558036$408                   player
     00001833  A$lcc1558036$409                   player
     00001836  A$lcc1558036$413                   player
     00001836  C$player.c$83$1_1$137              player
     00001839  A$lcc1558036$414                   player
     0000183A  A$lcc1558036$415                   player
     0000183C  A$lcc1558036$416                   player
     0000183D  A$lcc1558036$417                   player
     0000183E  A$lcc1558036$418                   player
     0000183F  A$lcc1558036$419                   player
     00001840  A$lcc1558036$420                   player
     00001841  A$lcc1558036$421                   player
     00001842  A$lcc1558036$422                   player
     00001843  A$lcc1558036$423                   player
     00001844  A$lcc1558036$424                   player
     00001845  A$lcc1558036$425                   player
     00001848  A$lcc1558036$426                   player
     00001849  A$lcc1558036$427                   player
     0000184A  A$lcc1558036$428                   player
     0000184B  A$lcc1558036$429                   player
     0000184E  A$lcc1558036$430                   player
     0000184F  A$lcc1558036$431                   player
     00001851  A$lcc1558036$432                   player
     00001852  A$lcc1558036$433                   player
     00001853  A$lcc1558036$434                   player
     00001856  A$lcc1558036$435                   player
     00001857  A$lcc1558036$436                   player
ASxxxx Linker V03.00/V05.40 + sdld,  page 51.
Hexadecimal  [32-Bits]

Area                                    Addr        Size        Decimal Bytes (Attributes)
--------------------------------        ----        ----        ------- ----- ------------
_CODE                               00000200    00002573 =        9587. bytes (REL,CON)

      Value  Global                              Global Defined In Module
      -----  --------------------------------   ------------------------
     00001858  A$lcc1558036$437                   player
     0000185A  A$lcc1558036$438                   player
     0000185B  A$lcc1558036$439                   player
     0000185C  A$lcc1558036$440                   player
     0000185D  A$lcc1558036$441                   player
     00001860  A$lcc1558036$442                   player
     00001863  A$lcc1558036$446                   player
     00001863  C$player.c$84$1_1$137              player
     00001866  A$lcc1558036$447                   player
     00001867  A$lcc1558036$448                   player
     00001869  A$lcc1558036$449                   player
     0000186A  A$lcc1558036$450                   player
     0000186B  A$lcc1558036$451                   player
     0000186C  A$lcc1558036$452                   player
     0000186D  A$lcc1558036$453                   player
     0000186E  A$lcc1558036$454                   player
     0000186F  A$lcc1558036$455                   player
     00001870  A$lcc1558036$456                   player
     00001871  A$lcc1558036$457                   player
     00001872  A$lcc1558036$458                   player
     00001875  A$lcc1558036$459                   player
     00001876  A$lcc1558036$460                   player
     00001877  A$lcc1558036$461                   player
     00001878  A$lcc1558036$462                   player
     0000187B  A$lcc1558036$463                   player
     0000187C  A$lcc1558036$464                   player
     0000187E  A$lcc1558036$465                   player
     0000187F  A$lcc1558036$466                   player
     00001880  A$lcc1558036$467                   player
     00001883  A$lcc1558036$468                   player
     00001884  A$lcc1558036$469                   player
     00001885  A$lcc1558036$470                   player
     00001887  A$lcc1558036$471                   player
     00001888  A$lcc1558036$472                   player
     00001889  A$lcc1558036$473                   player
     0000188A  A$lcc1558036$474                   player
     0000188D  A$lcc1558036$475                   player
     00001890  A$lcc1558036$479                   player
     00001890  C$player.c$86$1_1$137              player
     00001893  A$lcc1558036$483                   player
     00001893  C$player.c$87$1_1$137              player
     00001894  A$lcc1558036$484                   player
     00001895  A$lcc1558036$485                   player
     00001897  A$lcc1558036$489                   player
     00001897  C$player.c$88$1_1$137              player
     0000189A  A$lcc1558036$490                   player
     0000189C  A$lcc1558036$494                   player
     0000189C  C$player.c$89$1_1$137              player
     0000189F  A$lcc1558036$495                   player
     000018A1  A$lcc1558036$499                   player
     000018A1  C$player.c$91$1_1$137              player
ASxxxx Linker V03.00/V05.40 + sdld,  page 52.
Hexadecimal  [32-Bits]

Area                                    Addr        Size        Decimal Bytes (Attributes)
--------------------------------        ----        ----        ------- ----- ------------
_CODE                               00000200    00002573 =        9587. bytes (REL,CON)

      Value  Global                              Global Defined In Module
      -----  --------------------------------   ------------------------
     000018A4  A$lcc1558036$503                   player
     000018A6  A$lcc1558036$508                   player
     000018A6  C$player.c$92$1_1$136              player
     000018A6  XG$init_player$0$0                 player
     000018A7  A$lcc1558038$56                    render
     000018A7  C$render.c$5$0_0$130               render
     000018A7  G$render_reset$0$0                 render
     000018A7  _render_reset                      render
     000018A8  A$lcc1558038$60                    render
     000018A8  C$render.c$6$1_0$130               render
     000018AB  A$lcc1558038$61                    render
     000018AD  A$lcc1558038$62                    render
     000018AE  A$lcc1558038$63                    render
     000018B0  A$lcc1558038$67                    render
     000018B0  C$render.c$7$1_0$130               render
     000018B3  A$lcc1558038$68                    render
     000018B5  A$lcc1558038$69                    render
     000018B6  A$lcc1558038$70                    render
     000018B8  A$lcc1558038$78                    render
     000018B8  C$render.c$8$1_0$130               render
     000018B8  XG$render_reset$0$0                render
     000018B9  A$lcc1558039$56                    scene
     000018B9  C$scene.c$6$0_0$27                 scene
     000018B9  C$scene.c$8$2_0$28                 scene
     000018B9  G$Scene_Destroy$0$0                scene
     000018B9  _Scene_Destroy                     scene
     000018BC  A$lcc1558039$57                    scene
     000018BD  A$lcc1558039$58                    scene
     000018BE  A$lcc1558039$59                    scene
     000018BF  A$lcc1558039$60                    scene
     000018C0  A$lcc1558039$61                    scene
     000018C1  A$lcc1558039$62                    scene
     000018C2  A$lcc1558039$63                    scene
     000018C3  A$lcc1558039$67                    scene
     000018C3  C$scene.c$9$2_0$28                 scene
     000018C4  A$lcc1558039$71                    scene
     000018C4  C$scene.c$11$1_0$27                scene
     000018C5  A$lcc1558039$72                    scene
     000018C6  A$lcc1558039$73                    scene
     000018C7  A$lcc1558039$74                    scene
     000018CA  A$lcc1558039$75                    scene
     000018CB  A$lcc1558039$79                    scene
     000018CB  C$scene.c$12$1_0$27                scene
     000018CC  A$lcc1558039$80                    scene
     000018CD  A$lcc1558039$81                    scene
     000018CE  A$lcc1558039$82                    scene
     000018CF  A$lcc1558039$90                    scene
     000018CF  C$scene.c$13$1_0$27                scene
     000018CF  XG$Scene_Destroy$0$0               scene
     000018D0  A$lcc1558040$63                    scene_manager
     000018D0  C$scene_manager.c$14$0_0$164       scene_manager
ASxxxx Linker V03.00/V05.40 + sdld,  page 53.
Hexadecimal  [32-Bits]

Area                                    Addr        Size        Decimal Bytes (Attributes)
--------------------------------        ----        ----        ------- ----- ------------
_CODE                               00000200    00002573 =        9587. bytes (REL,CON)

      Value  Global                              Global Defined In Module
      -----  --------------------------------   ------------------------
     000018D0  C$scene_manager.c$17$1_0$164       scene_manager
     000018D0  G$SceneManager_CleanScreen$0$0     scene_manager
     000018D0  _SceneManager_CleanScreen          scene_manager
     000018D3  A$lcc1558040$64                    scene_manager
     000018D6  A$lcc1558040$65                    scene_manager
     000018D7  A$lcc1558040$66                    scene_manager
     000018D9  A$lcc1558040$67                    scene_manager
     000018DA  A$lcc1558040$68                    scene_manager
     000018DC  A$lcc1558040$72                    scene_manager
     000018DC  C$scene_manager.c$18$1_0$164       scene_manager
     000018DF  A$lcc1558040$73                    scene_manager
     000018E0  A$lcc1558040$74                    scene_manager
     000018E2  A$lcc1558040$75                    scene_manager
     000018E3  A$lcc1558040$76                    scene_manager
     000018E5  A$lcc1558040$80                    scene_manager
     000018E5  C$scene_manager.c$19$1_0$164       scene_manager
     000018E8  A$lcc1558040$81                    scene_manager
     000018E9  A$lcc1558040$82                    scene_manager
     000018EB  A$lcc1558040$83                    scene_manager
     000018EC  A$lcc1558040$84                    scene_manager
     000018EE  A$lcc1558040$88                    scene_manager
     000018EE  C$scene_manager.c$20$1_0$164       scene_manager
     000018F1  A$lcc1558040$89                    scene_manager
     000018F2  A$lcc1558040$90                    scene_manager
     000018F4  A$lcc1558040$91                    scene_manager
     000018F5  A$lcc1558040$92                    scene_manager
     000018F7  A$lcc1558040$100                   scene_manager
     000018F7  C$scene_manager.c$21$1_0$164       scene_manager
     000018F7  XG$SceneManager_CleanScreen$0$0    scene_manager
     000018F8  A$lcc1558040$113                   scene_manager
     000018F8  C$scene_manager.c$23$1_0$166       scene_manager
     000018F8  C$scene_manager.c$25$1_0$166       scene_manager
     000018F8  G$SceneManager_Create$0$0          scene_manager
     000018F8  _SceneManager_Create               scene_manager
     000018F9  A$lcc1558040$114                   scene_manager
     000018FC  A$lcc1558040$115                   scene_manager
     000018FF  A$lcc1558040$116                   scene_manager
     00001900  A$lcc1558040$117                   scene_manager
     00001903  A$lcc1558040$118                   scene_manager
     00001904  A$lcc1558040$119                   scene_manager
     00001905  A$lcc1558040$123                   scene_manager
     00001905  C$scene_manager.c$27$1_0$166       scene_manager
     00001906  A$lcc1558040$124                   scene_manager
     00001907  A$lcc1558040$125                   scene_manager
     00001908  A$lcc1558040$126                   scene_manager
     0000190B  A$lcc1558040$127                   scene_manager
     0000190C  A$lcc1558040$128                   scene_manager
     0000190D  A$lcc1558040$129                   scene_manager
     0000190E  A$lcc1558040$130                   scene_manager
     0000190F  A$lcc1558040$134                   scene_manager
     0000190F  C$scene_manager.c$28$1_0$166       scene_manager
ASxxxx Linker V03.00/V05.40 + sdld,  page 54.
Hexadecimal  [32-Bits]

Area                                    Addr        Size        Decimal Bytes (Attributes)
--------------------------------        ----        ----        ------- ----- ------------
_CODE                               00000200    00002573 =        9587. bytes (REL,CON)

      Value  Global                              Global Defined In Module
      -----  --------------------------------   ------------------------
     00001912  A$lcc1558040$135                   scene_manager
     00001915  A$lcc1558040$136                   scene_manager
     00001916  A$lcc1558040$137                   scene_manager
     00001917  A$lcc1558040$138                   scene_manager
     00001918  A$lcc1558040$139                   scene_manager
     00001919  A$lcc1558040$140                   scene_manager
     0000191B  A$lcc1558040$141                   scene_manager
     0000191C  A$lcc1558040$142                   scene_manager
     0000191E  A$lcc1558040$150                   scene_manager
     0000191E  C$scene_manager.c$29$1_0$166       scene_manager
     0000191E  XG$SceneManager_Create$0$0         scene_manager
     0000191F  A$lcc1558040$160                   scene_manager
     0000191F  C$scene_manager.c$31$1_0$168       scene_manager
     0000191F  G$SceneManager_ChangeScene$0$0     scene_manager
     0000191F  _SceneManager_ChangeScene          scene_manager
     00001921  A$lcc1558040$161                   scene_manager
     00001923  A$lcc1558040$162                   scene_manager
     00001924  A$lcc1558040$163                   scene_manager
     00001925  A$lcc1558040$164                   scene_manager
     00001926  A$lcc1558040$165                   scene_manager
     00001927  A$lcc1558040$166                   scene_manager
     00001928  A$lcc1558040$170                   scene_manager
     0000192B  A$lcc1558040$171                   scene_manager
     0000192C  A$lcc1558040$172                   scene_manager
     0000192D  A$lcc1558040$173                   scene_manager
     0000192E  A$lcc1558040$174                   scene_manager
     0000192F  A$lcc1558040$175                   scene_manager
     00001930  A$lcc1558040$176                   scene_manager
     00001931  A$lcc1558040$177                   scene_manager
     00001932  A$lcc1558040$178                   scene_manager
     00001933  A$lcc1558040$182                   scene_manager
     00001933  C$scene_manager.c$34$2_0$169       scene_manager
     00001935  A$lcc1558040$186                   scene_manager
     00001936  A$lcc1558040$187                   scene_manager
     00001937  A$lcc1558040$188                   scene_manager
     00001938  A$lcc1558040$189                   scene_manager
     00001939  A$lcc1558040$190                   scene_manager
     0000193A  A$lcc1558040$191                   scene_manager
     0000193B  A$lcc1558040$192                   scene_manager
     0000193C  A$lcc1558040$193                   scene_manager
     0000193E  A$lcc1558040$194                   scene_manager
     00001941  A$lcc1558040$195                   scene_manager
     00001942  A$lcc1558040$196                   scene_manager
     00001943  A$lcc1558040$197                   scene_manager
     00001944  A$lcc1558040$198                   scene_manager
     00001945  A$lcc1558040$199                   scene_manager
     00001946  A$lcc1558040$200                   scene_manager
     00001948  A$lcc1558040$204                   scene_manager
     00001948  C$scene_manager.c$37$2_0$170       scene_manager
     00001949  A$lcc1558040$205                   scene_manager
     0000194A  A$lcc1558040$206                   scene_manager
ASxxxx Linker V03.00/V05.40 + sdld,  page 55.
Hexadecimal  [32-Bits]

Area                                    Addr        Size        Decimal Bytes (Attributes)
--------------------------------        ----        ----        ------- ----- ------------
_CODE                               00000200    00002573 =        9587. bytes (REL,CON)

      Value  Global                              Global Defined In Module
      -----  --------------------------------   ------------------------
     0000194D  A$lcc1558040$207                   scene_manager
     0000194E  A$lcc1558040$208                   scene_manager
     0000194F  A$lcc1558040$209                   scene_manager
     00001950  A$lcc1558040$215                   scene_manager
     00001950  C$scene_manager.c$39$1_0$168       scene_manager
     00001953  A$lcc1558040$216                   scene_manager
     00001954  A$lcc1558040$217                   scene_manager
     00001955  A$lcc1558040$218                   scene_manager
     00001956  A$lcc1558040$219                   scene_manager
     00001957  A$lcc1558040$220                   scene_manager
     00001958  A$lcc1558040$221                   scene_manager
     00001959  A$lcc1558040$222                   scene_manager
     0000195A  A$lcc1558040$223                   scene_manager
     0000195C  A$lcc1558040$224                   scene_manager
     0000195D  A$lcc1558040$225                   scene_manager
     00001960  A$lcc1558040$226                   scene_manager
     00001961  A$lcc1558040$227                   scene_manager
     00001962  A$lcc1558040$228                   scene_manager
     00001963  A$lcc1558040$229                   scene_manager
     00001964  A$lcc1558040$230                   scene_manager
     00001965  A$lcc1558040$231                   scene_manager
     00001966  A$lcc1558040$232                   scene_manager
     00001967  A$lcc1558040$233                   scene_manager
     00001968  A$lcc1558040$237                   scene_manager
     00001968  C$scene_manager.c$41$1_0$168       scene_manager
     0000196B  A$lcc1558040$241                   scene_manager
     0000196B  C$scene_manager.c$33$1_0$168       scene_manager
     0000196E  A$lcc1558040$242                   scene_manager
     0000196F  A$lcc1558040$243                   scene_manager
     00001970  A$lcc1558040$244                   scene_manager
     00001971  A$lcc1558040$245                   scene_manager
     00001972  A$lcc1558040$246                   scene_manager
     00001973  A$lcc1558040$247                   scene_manager
     00001974  A$lcc1558040$251                   scene_manager
     00001974  C$scene_manager.c$36$1_0$168       scene_manager
     00001975  A$lcc1558040$252                   scene_manager
     00001976  A$lcc1558040$253                   scene_manager
     00001977  A$lcc1558040$254                   scene_manager
     00001978  A$lcc1558040$255                   scene_manager
     00001979  A$lcc1558040$259                   scene_manager
     00001979  C$scene_manager.c$42$1_0$168       scene_manager
     0000197A  A$lcc1558040$260                   scene_manager
     0000197B  A$lcc1558040$261                   scene_manager
     0000197C  A$lcc1558040$262                   scene_manager
     0000197E  A$lcc1558040$263                   scene_manager
     0000197F  A$lcc1558040$264                   scene_manager
     00001980  A$lcc1558040$265                   scene_manager
     00001981  A$lcc1558040$266                   scene_manager
     00001982  A$lcc1558040$267                   scene_manager
     00001983  A$lcc1558040$268                   scene_manager
     00001984  A$lcc1558040$269                   scene_manager
ASxxxx Linker V03.00/V05.40 + sdld,  page 56.
Hexadecimal  [32-Bits]

Area                                    Addr        Size        Decimal Bytes (Attributes)
--------------------------------        ----        ----        ------- ----- ------------
_CODE                               00000200    00002573 =        9587. bytes (REL,CON)

      Value  Global                              Global Defined In Module
      -----  --------------------------------   ------------------------
     00001985  A$lcc1558040$270                   scene_manager
     00001986  A$lcc1558040$271                   scene_manager
     00001987  A$lcc1558040$272                   scene_manager
     0000198A  A$lcc1558040$276                   scene_manager
     0000198A  C$scene_manager.c$44$1_0$168       scene_manager
     0000198C  A$lcc1558040$277                   scene_manager
     0000198E  A$lcc1558040$278                   scene_manager
     00001990  A$lcc1558040$283                   scene_manager
     00001992  A$lcc1558040$288                   scene_manager
     00001992  C$scene_manager.c$45$1_0$168       scene_manager
     00001992  XG$SceneManager_ChangeScene$0$0    scene_manager
     00001993  A$lcc1558041$61                    gender_select
     00001993  C$gender_select.c$6$0_0$30         gender_select
     00001993  C$gender_select.c$8$1_0$30         gender_select
     00001993  G$GenderSelect_Create$0$0          gender_select
     00001993  _GenderSelect_Create               gender_select
     00001996  A$lcc1558041$62                    gender_select
     00001998  A$lcc1558041$63                    gender_select
     00001999  A$lcc1558041$64                    gender_select
     0000199B  A$lcc1558041$68                    gender_select
     0000199B  C$gender_select.c$9$1_0$30         gender_select
     0000199C  A$lcc1558041$69                    gender_select
     0000199E  A$lcc1558041$70                    gender_select
     0000199F  A$lcc1558041$71                    gender_select
     000019A1  A$lcc1558041$75                    gender_select
     000019A1  C$gender_select.c$11$1_0$30        gender_select
     000019A4  A$lcc1558041$76                    gender_select
     000019A5  A$lcc1558041$77                    gender_select
     000019A6  A$lcc1558041$78                    gender_select
     000019A7  A$lcc1558041$86                    gender_select
     000019A7  C$gender_select.c$12$1_0$30        gender_select
     000019A7  XG$GenderSelect_Create$0$0         gender_select
     000019A8  A$lcc1558042$58                    gender_select_init
     000019A8  C$gender_select_init.c$11$1_0$15   gender_select_init
     000019A8  C$gender_select_init.c$9$0_0$155   gender_select_init
     000019A8  G$GenderSelect_Init$0$0            gender_select_init
     000019A8  _GenderSelect_Init                 gender_select_init
     000019A9  A$lcc1558042$59                    gender_select_init
     000019AC  A$lcc1558042$60                    gender_select_init
     000019AF  A$lcc1558042$61                    gender_select_init
     000019B0  A$lcc1558042$62                    gender_select_init
     000019B1  A$lcc1558042$63                    gender_select_init
     000019B2  A$lcc1558042$67                    gender_select_init
     000019B2  C$gender_select_init.c$12$2_0$15   gender_select_init
     000019B3  A$lcc1558042$68                    gender_select_init
     000019B4  A$lcc1558042$72                    gender_select_init
     000019B4  C$gender_select_init.c$13$2_0$15   gender_select_init
     000019B5  A$lcc1558042$76                    gender_select_init
     000019B5  C$gender_select_init.c$15$1_0$15   gender_select_init
     000019B6  A$lcc1558042$77                    gender_select_init
     000019B7  A$lcc1558042$81                    gender_select_init
ASxxxx Linker V03.00/V05.40 + sdld,  page 57.
Hexadecimal  [32-Bits]

Area                                    Addr        Size        Decimal Bytes (Attributes)
--------------------------------        ----        ----        ------- ----- ------------
_CODE                               00000200    00002573 =        9587. bytes (REL,CON)

      Value  Global                              Global Defined In Module
      -----  --------------------------------   ------------------------
     000019B7  C$gender_select_init.c$16$1_0$15   gender_select_init
     000019BA  A$lcc1558042$82                    gender_select_init
     000019BB  A$lcc1558042$83                    gender_select_init
     000019BC  A$lcc1558042$84                    gender_select_init
     000019BD  A$lcc1558042$85                    gender_select_init
     000019BE  A$lcc1558042$89                    gender_select_init
     000019BE  C$gender_select_init.c$18$1_0$15   gender_select_init
     000019C1  A$lcc1558042$90                    gender_select_init
     000019C2  A$lcc1558042$91                    gender_select_init
     000019C5  A$lcc1558042$92                    gender_select_init
     000019C6  A$lcc1558042$93                    gender_select_init
     000019C9  A$lcc1558042$94                    gender_select_init
     000019CB  A$lcc1558042$98                    gender_select_init
     000019CB  C$gender_select_init.c$19$1_0$15   gender_select_init
     000019CE  A$lcc1558042$99                    gender_select_init
     000019CF  A$lcc1558042$100                   gender_select_init
     000019D2  A$lcc1558042$101                   gender_select_init
     000019D3  A$lcc1558042$102                   gender_select_init
     000019D4  A$lcc1558042$103                   gender_select_init
     000019D5  A$lcc1558042$104                   gender_select_init
     000019D6  A$lcc1558042$105                   gender_select_init
     000019D9  A$lcc1558042$106                   gender_select_init
     000019DB  A$lcc1558042$114                   gender_select_init
     000019DB  C$gender_select_init.c$20$1_0$15   gender_select_init
     000019DB  XG$GenderSelect_Init$0$0           gender_select_init
     000019DC  A$lcc1558043$62                    gender_select_update
     000019DC  C$gender_select_update.c$6$0_0$1   gender_select_update
     000019DC  C$gender_select_update.c$8$1_0$1   gender_select_update
     000019DC  C$gender_select_update.c$9$1_0$1   gender_select_update
     000019DC  G$GenderSelect_Update$0$0          gender_select_update
     000019DC  XG$GenderSelect_Update$0$0         gender_select_update
     000019DC  _GenderSelect_Update               gender_select_update
     000019DD  A$lcc1558044$61                    inventory_scene
     000019DD  C$inventory_scene.c$6$0_0$30       inventory_scene
     000019DD  C$inventory_scene.c$8$1_0$30       inventory_scene
     000019DD  G$InventoryScene_Create$0$0        inventory_scene
     000019DD  _InventoryScene_Create             inventory_scene
     000019E0  A$lcc1558044$62                    inventory_scene
     000019E2  A$lcc1558044$63                    inventory_scene
     000019E3  A$lcc1558044$64                    inventory_scene
     000019E5  A$lcc1558044$68                    inventory_scene
     000019E5  C$inventory_scene.c$9$1_0$30       inventory_scene
     000019E6  A$lcc1558044$69                    inventory_scene
     000019E8  A$lcc1558044$70                    inventory_scene
     000019E9  A$lcc1558044$71                    inventory_scene
     000019EB  A$lcc1558044$75                    inventory_scene
     000019EB  C$inventory_scene.c$11$1_0$30      inventory_scene
     000019EE  A$lcc1558044$76                    inventory_scene
     000019EF  A$lcc1558044$77                    inventory_scene
     000019F0  A$lcc1558044$78                    inventory_scene
     000019F1  A$lcc1558044$86                    inventory_scene
ASxxxx Linker V03.00/V05.40 + sdld,  page 58.
Hexadecimal  [32-Bits]

Area                                    Addr        Size        Decimal Bytes (Attributes)
--------------------------------        ----        ----        ------- ----- ------------
_CODE                               00000200    00002573 =        9587. bytes (REL,CON)

      Value  Global                              Global Defined In Module
      -----  --------------------------------   ------------------------
     000019F1  C$inventory_scene.c$12$1_0$30      inventory_scene
     000019F1  XG$InventoryScene_Create$0$0       inventory_scene
     000019F2  A$lcc1558045$56                    inventory_scene_init
     000019F2  C$inventory_scene_init.c$13$0_0$   inventory_scene_init
     000019F2  G$InventoryScene_DrawCoins$0$0     inventory_scene_init
     000019F2  _InventoryScene_DrawCoins          inventory_scene_init
     000019F4  A$lcc1558045$60                    inventory_scene_init
     000019F4  C$inventory_scene_init.c$15$1_0$   inventory_scene_init
     000019F7  A$lcc1558045$61                    inventory_scene_init
     000019F9  A$lcc1558045$62                    inventory_scene_init
     000019FA  A$lcc1558045$63                    inventory_scene_init
     000019FD  A$lcc1558045$64                    inventory_scene_init
     000019FF  A$lcc1558045$65                    inventory_scene_init
     00001A00  A$lcc1558045$66                    inventory_scene_init
     00001A03  A$lcc1558045$67                    inventory_scene_init
     00001A04  A$lcc1558045$68                    inventory_scene_init
     00001A05  A$lcc1558045$69                    inventory_scene_init
     00001A06  A$lcc1558045$70                    inventory_scene_init
     00001A09  A$lcc1558045$71                    inventory_scene_init
     00001A0A  A$lcc1558045$72                    inventory_scene_init
     00001A0C  A$lcc1558045$73                    inventory_scene_init
     00001A0F  A$lcc1558045$74                    inventory_scene_init
     00001A10  A$lcc1558045$75                    inventory_scene_init
     00001A12  A$lcc1558045$76                    inventory_scene_init
     00001A14  A$lcc1558045$77                    inventory_scene_init
     00001A15  A$lcc1558045$81                    inventory_scene_init
     00001A15  C$inventory_scene_init.c$16$1_0$   inventory_scene_init
     00001A18  A$lcc1558045$82                    inventory_scene_init
     00001A1A  A$lcc1558045$83                    inventory_scene_init
     00001A1B  A$lcc1558045$84                    inventory_scene_init
     00001A1C  A$lcc1558045$85                    inventory_scene_init
     00001A1D  A$lcc1558045$86                    inventory_scene_init
     00001A20  A$lcc1558045$87                    inventory_scene_init
     00001A21  A$lcc1558045$88                    inventory_scene_init
     00001A22  A$lcc1558045$89                    inventory_scene_init
     00001A25  A$lcc1558045$90                    inventory_scene_init
     00001A28  A$lcc1558045$91                    inventory_scene_init
     00001A29  A$lcc1558045$92                    inventory_scene_init
     00001A2B  A$lcc1558045$93                    inventory_scene_init
     00001A2D  A$lcc1558045$94                    inventory_scene_init
     00001A2E  A$lcc1558045$98                    inventory_scene_init
     00001A2E  C$inventory_scene_init.c$17$1_0$   inventory_scene_init
     00001A31  A$lcc1558045$99                    inventory_scene_init
     00001A33  A$lcc1558045$100                   inventory_scene_init
     00001A34  A$lcc1558045$101                   inventory_scene_init
     00001A35  A$lcc1558045$102                   inventory_scene_init
     00001A36  A$lcc1558045$103                   inventory_scene_init
     00001A39  A$lcc1558045$104                   inventory_scene_init
     00001A3A  A$lcc1558045$105                   inventory_scene_init
     00001A3B  A$lcc1558045$106                   inventory_scene_init
     00001A3E  A$lcc1558045$107                   inventory_scene_init
ASxxxx Linker V03.00/V05.40 + sdld,  page 59.
Hexadecimal  [32-Bits]

Area                                    Addr        Size        Decimal Bytes (Attributes)
--------------------------------        ----        ----        ------- ----- ------------
_CODE                               00000200    00002573 =        9587. bytes (REL,CON)

      Value  Global                              Global Defined In Module
      -----  --------------------------------   ------------------------
     00001A41  A$lcc1558045$108                   inventory_scene_init
     00001A42  A$lcc1558045$109                   inventory_scene_init
     00001A44  A$lcc1558045$110                   inventory_scene_init
     00001A46  A$lcc1558045$114                   inventory_scene_init
     00001A46  C$inventory_scene_init.c$18$1_0$   inventory_scene_init
     00001A47  A$lcc1558045$115                   inventory_scene_init
     00001A48  A$lcc1558045$116                   inventory_scene_init
     00001A4B  A$lcc1558045$117                   inventory_scene_init
     00001A4C  A$lcc1558045$118                   inventory_scene_init
     00001A4D  A$lcc1558045$119                   inventory_scene_init
     00001A4E  A$lcc1558045$120                   inventory_scene_init
     00001A51  A$lcc1558045$121                   inventory_scene_init
     00001A52  A$lcc1558045$122                   inventory_scene_init
     00001A54  A$lcc1558045$123                   inventory_scene_init
     00001A56  A$lcc1558045$124                   inventory_scene_init
     00001A57  A$lcc1558045$128                   inventory_scene_init
     00001A57  C$inventory_scene_init.c$20$1_0$   inventory_scene_init
     00001A59  A$lcc1558045$129                   inventory_scene_init
     00001A5A  A$lcc1558045$130                   inventory_scene_init
     00001A5D  A$lcc1558045$131                   inventory_scene_init
     00001A5E  A$lcc1558045$132                   inventory_scene_init
     00001A61  A$lcc1558045$133                   inventory_scene_init
     00001A62  A$lcc1558045$134                   inventory_scene_init
     00001A65  A$lcc1558045$135                   inventory_scene_init
     00001A67  A$lcc1558045$139                   inventory_scene_init
     00001A67  C$inventory_scene_init.c$21$1_0$   inventory_scene_init
     00001A69  A$lcc1558045$140                   inventory_scene_init
     00001A6A  A$lcc1558045$141                   inventory_scene_init
     00001A6D  A$lcc1558045$142                   inventory_scene_init
     00001A6E  A$lcc1558045$143                   inventory_scene_init
     00001A71  A$lcc1558045$144                   inventory_scene_init
     00001A72  A$lcc1558045$145                   inventory_scene_init
     00001A75  A$lcc1558045$146                   inventory_scene_init
     00001A77  A$lcc1558045$150                   inventory_scene_init
     00001A77  C$inventory_scene_init.c$22$1_0$   inventory_scene_init
     00001A79  A$lcc1558045$151                   inventory_scene_init
     00001A7A  A$lcc1558045$152                   inventory_scene_init
     00001A7D  A$lcc1558045$153                   inventory_scene_init
     00001A7E  A$lcc1558045$154                   inventory_scene_init
     00001A81  A$lcc1558045$155                   inventory_scene_init
     00001A82  A$lcc1558045$156                   inventory_scene_init
     00001A85  A$lcc1558045$157                   inventory_scene_init
     00001A87  A$lcc1558045$161                   inventory_scene_init
     00001A87  C$inventory_scene_init.c$23$1_0$   inventory_scene_init
     00001A89  A$lcc1558045$162                   inventory_scene_init
     00001A8A  A$lcc1558045$163                   inventory_scene_init
     00001A8B  A$lcc1558045$164                   inventory_scene_init
     00001A8C  A$lcc1558045$165                   inventory_scene_init
     00001A8F  A$lcc1558045$166                   inventory_scene_init
     00001A90  A$lcc1558045$167                   inventory_scene_init
     00001A93  A$lcc1558045$168                   inventory_scene_init
ASxxxx Linker V03.00/V05.40 + sdld,  page 60.
Hexadecimal  [32-Bits]

Area                                    Addr        Size        Decimal Bytes (Attributes)
--------------------------------        ----        ----        ------- ----- ------------
_CODE                               00000200    00002573 =        9587. bytes (REL,CON)

      Value  Global                              Global Defined In Module
      -----  --------------------------------   ------------------------
     00001A94  A$lcc1558045$169                   inventory_scene_init
     00001A97  A$lcc1558045$173                   inventory_scene_init
     00001A99  A$lcc1558045$178                   inventory_scene_init
     00001A99  C$inventory_scene_init.c$24$1_0$   inventory_scene_init
     00001A99  XG$InventoryScene_DrawCoins$0$0    inventory_scene_init
     00001A9A  A$lcc1558045$188                   inventory_scene_init
     00001A9A  C$inventory_scene_init.c$26$1_0$   inventory_scene_init
     00001A9A  G$InventoryScene_Init$0$0          inventory_scene_init
     00001A9A  _InventoryScene_Init               inventory_scene_init
     00001A9B  A$lcc1558045$192                   inventory_scene_init
     00001A9B  C$inventory_scene_init.c$28$1_0$   inventory_scene_init
     00001A9E  A$lcc1558045$193                   inventory_scene_init
     00001A9F  A$lcc1558045$194                   inventory_scene_init
     00001AA0  A$lcc1558045$195                   inventory_scene_init
     00001AA1  A$lcc1558045$196                   inventory_scene_init
     00001AA2  A$lcc1558045$200                   inventory_scene_init
     00001AA2  C$inventory_scene_init.c$29$1_0$   inventory_scene_init
     00001AA5  A$lcc1558045$204                   inventory_scene_init
     00001AA5  C$inventory_scene_init.c$31$2_0$   inventory_scene_init
     00001AA7  A$lcc1558045$205                   inventory_scene_init
     00001AA9  A$lcc1558045$209                   inventory_scene_init
     00001AA9  C$inventory_scene_init.c$33$2_0$   inventory_scene_init
     00001AAB  A$lcc1558045$210                   inventory_scene_init
     00001AAC  A$lcc1558045$214                   inventory_scene_init
     00001AAC  C$inventory_scene_init.c$34$1_1$   inventory_scene_init
     00001AAE  A$lcc1558045$215                   inventory_scene_init
     00001AB0  A$lcc1558045$216                   inventory_scene_init
     00001AB3  A$lcc1558045$217                   inventory_scene_init
     00001AB5  A$lcc1558045$221                   inventory_scene_init
     00001AB5  C$inventory_scene_init.c$36$1_1$   inventory_scene_init
     00001AB8  A$lcc1558045$222                   inventory_scene_init
     00001AB9  A$lcc1558045$223                   inventory_scene_init
     00001ABC  A$lcc1558045$224                   inventory_scene_init
     00001ABD  A$lcc1558045$225                   inventory_scene_init
     00001AC0  A$lcc1558045$226                   inventory_scene_init
     00001AC2  A$lcc1558045$230                   inventory_scene_init
     00001AC2  C$inventory_scene_init.c$37$1_1$   inventory_scene_init
     00001AC5  A$lcc1558045$231                   inventory_scene_init
     00001AC6  A$lcc1558045$232                   inventory_scene_init
     00001AC9  A$lcc1558045$233                   inventory_scene_init
     00001ACA  A$lcc1558045$234                   inventory_scene_init
     00001ACB  A$lcc1558045$235                   inventory_scene_init
     00001ACC  A$lcc1558045$236                   inventory_scene_init
     00001ACD  A$lcc1558045$237                   inventory_scene_init
     00001AD0  A$lcc1558045$238                   inventory_scene_init
     00001AD2  A$lcc1558045$242                   inventory_scene_init
     00001AD2  C$inventory_scene_init.c$39$1_1$   inventory_scene_init
     00001AD5  A$lcc1558045$243                   inventory_scene_init
     00001AD6  A$lcc1558045$244                   inventory_scene_init
     00001AD9  A$lcc1558045$245                   inventory_scene_init
     00001ADA  A$lcc1558045$246                   inventory_scene_init
ASxxxx Linker V03.00/V05.40 + sdld,  page 61.
Hexadecimal  [32-Bits]

Area                                    Addr        Size        Decimal Bytes (Attributes)
--------------------------------        ----        ----        ------- ----- ------------
_CODE                               00000200    00002573 =        9587. bytes (REL,CON)

      Value  Global                              Global Defined In Module
      -----  --------------------------------   ------------------------
     00001ADD  A$lcc1558045$247                   inventory_scene_init
     00001ADF  A$lcc1558045$251                   inventory_scene_init
     00001ADF  C$inventory_scene_init.c$40$1_1$   inventory_scene_init
     00001AE2  A$lcc1558045$252                   inventory_scene_init
     00001AE3  A$lcc1558045$253                   inventory_scene_init
     00001AE4  A$lcc1558045$254                   inventory_scene_init
     00001AE7  A$lcc1558045$255                   inventory_scene_init
     00001AE8  A$lcc1558045$256                   inventory_scene_init
     00001AEB  A$lcc1558045$257                   inventory_scene_init
     00001AEC  A$lcc1558045$258                   inventory_scene_init
     00001AEF  A$lcc1558045$259                   inventory_scene_init
     00001AF1  A$lcc1558045$263                   inventory_scene_init
     00001AF1  C$inventory_scene_init.c$42$1_1$   inventory_scene_init
     00001AF2  A$lcc1558045$264                   inventory_scene_init
     00001AF5  A$lcc1558045$265                   inventory_scene_init
     00001AF6  A$lcc1558045$269                   inventory_scene_init
     00001AF6  C$inventory_scene_init.c$44$1_1$   inventory_scene_init
     00001AF7  A$lcc1558045$270                   inventory_scene_init
     00001AF9  A$lcc1558045$271                   inventory_scene_init
     00001AFC  A$lcc1558045$272                   inventory_scene_init
     00001AFD  A$lcc1558045$276                   inventory_scene_init
     00001AFE  A$lcc1558045$281                   inventory_scene_init
     00001AFE  C$inventory_scene_init.c$45$1_1$   inventory_scene_init
     00001AFE  XG$InventoryScene_Init$0$0         inventory_scene_init
     00001AFF  A$lcc1558046$57                    inventory_scene_update
     00001AFF  C$inventory_scene_update.c$8$0_0   inventory_scene_update
     00001AFF  C$inventory_scene_update.c$9$1_0   inventory_scene_update
     00001AFF  G$InventoryScene_Update$0$0        inventory_scene_update
     00001AFF  _InventoryScene_Update             inventory_scene_update
     00001B02  A$lcc1558046$58                    inventory_scene_update
     00001B05  A$lcc1558046$69                    inventory_scene_update
     00001B05  C$inventory_scene_update.c$10$1_   inventory_scene_update
     00001B05  C$inventory_scene_update.c$11$1_   inventory_scene_update
     00001B05  XG$InventoryScene_Update$0$0       inventory_scene_update
     00001B08  A$lcc1558047$77                    main_menu
     00001B08  C$main_menu.c$10$0_0$32            main_menu
     00001B08  C$main_menu.c$11$1_0$32            main_menu
     00001B08  G$MainMenu_Create$0$0              main_menu
     00001B08  _MainMenu_Create                   main_menu
     00001B0B  A$lcc1558047$78                    main_menu
     00001B0D  A$lcc1558047$79                    main_menu
     00001B0E  A$lcc1558047$80                    main_menu
     00001B10  A$lcc1558047$84                    main_menu
     00001B10  C$main_menu.c$12$1_0$32            main_menu
     00001B11  A$lcc1558047$85                    main_menu
     00001B13  A$lcc1558047$86                    main_menu
     00001B14  A$lcc1558047$87                    main_menu
     00001B16  A$lcc1558047$91                    main_menu
     00001B16  C$main_menu.c$14$1_0$32            main_menu
     00001B19  A$lcc1558047$92                    main_menu
     00001B1A  A$lcc1558047$93                    main_menu
ASxxxx Linker V03.00/V05.40 + sdld,  page 62.
Hexadecimal  [32-Bits]

Area                                    Addr        Size        Decimal Bytes (Attributes)
--------------------------------        ----        ----        ------- ----- ------------
_CODE                               00000200    00002573 =        9587. bytes (REL,CON)

      Value  Global                              Global Defined In Module
      -----  --------------------------------   ------------------------
     00001B1B  A$lcc1558047$94                    main_menu
     00001B1C  A$lcc1558047$102                   main_menu
     00001B1C  C$main_menu.c$15$1_0$32            main_menu
     00001B1C  XG$MainMenu_Create$0$0             main_menu
     00001B1D  A$lcc1558048$57                    main_menu_init
     00001B1D  C$main_menu_init.c$10$1_0$164      main_menu_init
     00001B1D  C$main_menu_init.c$8$0_0$164       main_menu_init
     00001B1D  G$MainMenu_Init$0$0                main_menu_init
     00001B1D  _MainMenu_Init                     main_menu_init
     00001B20  A$lcc1558048$58                    main_menu_init
     00001B21  A$lcc1558048$59                    main_menu_init
     00001B22  A$lcc1558048$60                    main_menu_init
     00001B23  A$lcc1558048$61                    main_menu_init
     00001B24  A$lcc1558048$65                    main_menu_init
     00001B24  C$main_menu_init.c$12$2_0$165      main_menu_init
     00001B26  A$lcc1558048$66                    main_menu_init
     00001B27  A$lcc1558048$70                    main_menu_init
     00001B27  C$main_menu_init.c$13$1_1$165      main_menu_init
     00001B29  A$lcc1558048$71                    main_menu_init
     00001B2B  A$lcc1558048$72                    main_menu_init
     00001B2E  A$lcc1558048$73                    main_menu_init
     00001B30  A$lcc1558048$77                    main_menu_init
     00001B30  C$main_menu_init.c$15$1_1$165      main_menu_init
     00001B33  A$lcc1558048$78                    main_menu_init
     00001B34  A$lcc1558048$79                    main_menu_init
     00001B37  A$lcc1558048$80                    main_menu_init
     00001B38  A$lcc1558048$81                    main_menu_init
     00001B3B  A$lcc1558048$82                    main_menu_init
     00001B3D  A$lcc1558048$86                    main_menu_init
     00001B3D  C$main_menu_init.c$16$1_1$165      main_menu_init
     00001B40  A$lcc1558048$87                    main_menu_init
     00001B41  A$lcc1558048$88                    main_menu_init
     00001B44  A$lcc1558048$89                    main_menu_init
     00001B45  A$lcc1558048$90                    main_menu_init
     00001B46  A$lcc1558048$91                    main_menu_init
     00001B47  A$lcc1558048$92                    main_menu_init
     00001B48  A$lcc1558048$93                    main_menu_init
     00001B4B  A$lcc1558048$94                    main_menu_init
     00001B4D  A$lcc1558048$98                    main_menu_init
     00001B4D  C$main_menu_init.c$18$1_1$165      main_menu_init
     00001B4E  A$lcc1558048$99                    main_menu_init
     00001B50  A$lcc1558048$100                   main_menu_init
     00001B53  A$lcc1558048$101                   main_menu_init
     00001B54  A$lcc1558048$109                   main_menu_init
     00001B54  C$main_menu_init.c$19$1_1$164      main_menu_init
     00001B54  XG$MainMenu_Init$0$0               main_menu_init
     00001B55  A$lcc1558049$59                    main_menu_init_stats
     00001B55  C$main_menu_init_stats.c$3$0_0$3   main_menu_init_stats
     00001B55  C$main_menu_init_stats.c$5$0_0$3   main_menu_init_stats
     00001B55  G$MainMenu_InitRandomStats$0$0     main_menu_init_stats
     00001B55  XG$MainMenu_InitRandomStats$0$0    main_menu_init_stats
ASxxxx Linker V03.00/V05.40 + sdld,  page 63.
Hexadecimal  [32-Bits]

Area                                    Addr        Size        Decimal Bytes (Attributes)
--------------------------------        ----        ----        ------- ----- ------------
_CODE                               00000200    00002573 =        9587. bytes (REL,CON)

      Value  Global                              Global Defined In Module
      -----  --------------------------------   ------------------------
     00001B55  _MainMenu_InitRandomStats          main_menu_init_stats
     00001B56  A$lcc1558050$53                    main_menu_input
     00001B56  C$main_menu_input.c$9$0_0$169      main_menu_input
     00001B56  G$MainMenu_CheckInput$0$0          main_menu_input
     00001B56  _MainMenu_CheckInput               main_menu_input
     00001B58  A$lcc1558050$57                    main_menu_input
     00001B58  C$main_menu_input.c$11$1_0$169     main_menu_input
     00001B5B  A$lcc1558050$58                    main_menu_input
     00001B5E  A$lcc1558050$59                    main_menu_input
     00001B5F  A$lcc1558050$63                    main_menu_input
     00001B5F  C$main_menu_input.c$13$2_0$170     main_menu_input
     00001B60  A$lcc1558050$64                    main_menu_input
     00001B61  A$lcc1558050$65                    main_menu_input
     00001B63  A$lcc1558050$66                    main_menu_input
     00001B66  A$lcc1558050$67                    main_menu_input
     00001B67  A$lcc1558050$68                    main_menu_input
     00001B69  A$lcc1558050$72                    main_menu_input
     00001B69  C$main_menu_input.c$15$3_0$171     main_menu_input
     00001B6B  A$lcc1558050$73                    main_menu_input
     00001B6E  A$lcc1558050$74                    main_menu_input
     00001B6F  A$lcc1558050$75                    main_menu_input
     00001B71  A$lcc1558050$79                    main_menu_input
     00001B71  C$main_menu_input.c$16$3_0$171     main_menu_input
     00001B73  A$lcc1558050$80                    main_menu_input
     00001B74  A$lcc1558050$81                    main_menu_input
     00001B75  A$lcc1558050$85                    main_menu_input
     00001B75  C$main_menu_input.c$18$5_0$173     main_menu_input
     00001B77  A$lcc1558050$86                    main_menu_input
     00001B79  A$lcc1558050$88                    main_menu_input
     00001B7B  A$lcc1558050$89                    main_menu_input
     00001B7C  A$lcc1558050$90                    main_menu_input
     00001B7E  A$lcc1558050$91                    main_menu_input
     00001B80  A$lcc1558050$95                    main_menu_input
     00001B80  C$main_menu_input.c$20$5_0$173     main_menu_input
     00001B83  A$lcc1558050$96                    main_menu_input
     00001B84  A$lcc1558050$97                    main_menu_input
     00001B86  A$lcc1558050$98                    main_menu_input
     00001B87  A$lcc1558050$99                    main_menu_input
     00001B88  A$lcc1558050$100                   main_menu_input
     00001B89  A$lcc1558050$101                   main_menu_input
     00001B8A  A$lcc1558050$103                   main_menu_input
     00001B8D  A$lcc1558050$104                   main_menu_input
     00001B8E  A$lcc1558050$105                   main_menu_input
     00001B8F  A$lcc1558050$106                   main_menu_input
     00001B90  A$lcc1558050$107                   main_menu_input
     00001B91  A$lcc1558050$108                   main_menu_input
     00001B92  A$lcc1558050$109                   main_menu_input
     00001B93  A$lcc1558050$110                   main_menu_input
     00001B94  A$lcc1558050$111                   main_menu_input
     00001B95  A$lcc1558050$112                   main_menu_input
     00001B96  A$lcc1558050$113                   main_menu_input
ASxxxx Linker V03.00/V05.40 + sdld,  page 64.
Hexadecimal  [32-Bits]

Area                                    Addr        Size        Decimal Bytes (Attributes)
--------------------------------        ----        ----        ------- ----- ------------
_CODE                               00000200    00002573 =        9587. bytes (REL,CON)

      Value  Global                              Global Defined In Module
      -----  --------------------------------   ------------------------
     00001B97  A$lcc1558050$114                   main_menu_input
     00001B98  A$lcc1558050$115                   main_menu_input
     00001B99  A$lcc1558050$116                   main_menu_input
     00001B9A  A$lcc1558050$117                   main_menu_input
     00001B9B  A$lcc1558050$118                   main_menu_input
     00001B9C  A$lcc1558050$119                   main_menu_input
     00001B9D  A$lcc1558050$120                   main_menu_input
     00001B9E  A$lcc1558050$121                   main_menu_input
     00001B9F  A$lcc1558050$122                   main_menu_input
     00001BA0  A$lcc1558050$123                   main_menu_input
     00001BA1  A$lcc1558050$124                   main_menu_input
     00001BA2  A$lcc1558050$125                   main_menu_input
     00001BA3  A$lcc1558050$126                   main_menu_input
     00001BA4  A$lcc1558050$127                   main_menu_input
     00001BA5  A$lcc1558050$128                   main_menu_input
     00001BA6  A$lcc1558050$129                   main_menu_input
     00001BA7  A$lcc1558050$130                   main_menu_input
     00001BA8  A$lcc1558050$131                   main_menu_input
     00001BA9  A$lcc1558050$132                   main_menu_input
     00001BAB  A$lcc1558050$133                   main_menu_input
     00001BAE  A$lcc1558050$134                   main_menu_input
     00001BAF  A$lcc1558050$135                   main_menu_input
     00001BB0  A$lcc1558050$136                   main_menu_input
     00001BB2  A$lcc1558050$138                   main_menu_input
     00001BB3  A$lcc1558050$139                   main_menu_input
     00001BB4  A$lcc1558050$140                   main_menu_input
     00001BB5  A$lcc1558050$144                   main_menu_input
     00001BB5  C$main_menu_input.c$20$1_0$169     main_menu_input
     00001BB8  A$lcc1558050$145                   main_menu_input
     00001BB9  A$lcc1558050$146                   main_menu_input
     00001BBC  A$lcc1558050$147                   main_menu_input
     00001BBD  A$lcc1558050$148                   main_menu_input
     00001BBE  A$lcc1558050$149                   main_menu_input
     00001BBF  A$lcc1558050$153                   main_menu_input
     00001BBF  C$main_menu_input.c$18$4_0$172     main_menu_input
     00001BC1  A$lcc1558050$154                   main_menu_input
     00001BC2  A$lcc1558050$155                   main_menu_input
     00001BC4  A$lcc1558050$160                   main_menu_input
     00001BC4  C$main_menu_input.c$23$3_0$171     main_menu_input
     00001BC7  A$lcc1558050$161                   main_menu_input
     00001BC8  A$lcc1558050$162                   main_menu_input
     00001BCB  A$lcc1558050$163                   main_menu_input
     00001BCC  A$lcc1558050$164                   main_menu_input
     00001BCD  A$lcc1558050$165                   main_menu_input
     00001BCE  A$lcc1558050$166                   main_menu_input
     00001BCF  A$lcc1558050$167                   main_menu_input
     00001BD0  A$lcc1558050$168                   main_menu_input
     00001BD1  A$lcc1558050$169                   main_menu_input
     00001BD4  A$lcc1558050$170                   main_menu_input
     00001BD6  A$lcc1558050$171                   main_menu_input
     00001BD7  A$lcc1558050$172                   main_menu_input
ASxxxx Linker V03.00/V05.40 + sdld,  page 65.
Hexadecimal  [32-Bits]

Area                                    Addr        Size        Decimal Bytes (Attributes)
--------------------------------        ----        ----        ------- ----- ------------
_CODE                               00000200    00002573 =        9587. bytes (REL,CON)

      Value  Global                              Global Defined In Module
      -----  --------------------------------   ------------------------
     00001BD9  A$lcc1558050$173                   main_menu_input
     00001BDA  A$lcc1558050$174                   main_menu_input
     00001BDB  A$lcc1558050$175                   main_menu_input
     00001BDE  A$lcc1558050$180                   main_menu_input
     00001BDE  C$main_menu_input.c$26$1_0$169     main_menu_input
     00001BE1  A$lcc1558050$181                   main_menu_input
     00001BE4  A$lcc1558050$185                   main_menu_input
     00001BE6  A$lcc1558050$190                   main_menu_input
     00001BE6  C$main_menu_input.c$27$1_0$169     main_menu_input
     00001BE6  XG$MainMenu_CheckInput$0$0         main_menu_input
     00001BE7  A$lcc1558051$55                    main_menu_update
     00001BE7  C$main_menu_update.c$7$0_0$158     main_menu_update
     00001BE7  G$MainMenu_Update$0$0              main_menu_update
     00001BE7  _MainMenu_Update                   main_menu_update
     00001BE9  A$lcc1558051$59                    main_menu_update
     00001BE9  C$main_menu_update.c$9$1_0$158     main_menu_update
     00001BEC  A$lcc1558051$60                    main_menu_update
     00001BED  A$lcc1558051$61                    main_menu_update
     00001BEF  A$lcc1558051$62                    main_menu_update
     00001BF0  A$lcc1558051$63                    main_menu_update
     00001BF1  A$lcc1558051$68                    main_menu_update
     00001BF1  C$main_menu_update.c$10$1_0$158    main_menu_update
     00001BF4  A$lcc1558051$72                    main_menu_update
     00001BF4  C$main_menu_update.c$12$2_0$159    main_menu_update
     00001BF7  A$lcc1558051$73                    main_menu_update
     00001BF8  A$lcc1558051$74                    main_menu_update
     00001BFA  A$lcc1558051$75                    main_menu_update
     00001BFD  A$lcc1558051$76                    main_menu_update
     00001BFE  A$lcc1558051$77                    main_menu_update
     00001BFF  A$lcc1558051$78                    main_menu_update
     00001C00  A$lcc1558051$79                    main_menu_update
     00001C01  A$lcc1558051$80                    main_menu_update
     00001C04  A$lcc1558051$84                    main_menu_update
     00001C04  C$main_menu_update.c$14$3_0$160    main_menu_update
     00001C05  A$lcc1558051$85                    main_menu_update
     00001C06  A$lcc1558051$86                    main_menu_update
     00001C07  A$lcc1558051$87                    main_menu_update
     00001C08  A$lcc1558051$91                    main_menu_update
     00001C08  C$main_menu_update.c$16$4_0$161    main_menu_update
     00001C0B  A$lcc1558051$95                    main_menu_update
     00001C0B  C$main_menu_update.c$18$5_0$162    main_menu_update
     00001C0C  A$lcc1558051$96                    main_menu_update
     00001C0E  A$lcc1558051$97                    main_menu_update
     00001C11  A$lcc1558051$101                   main_menu_update
     00001C11  C$main_menu_update.c$20$6_0$164    main_menu_update
     00001C13  A$lcc1558051$102                   main_menu_update
     00001C15  A$lcc1558051$106                   main_menu_update
     00001C15  C$main_menu_update.c$21$2_0$158    main_menu_update
     00001C17  A$lcc1558051$108                   main_menu_update
     00001C18  A$lcc1558051$109                   main_menu_update
     00001C1A  A$lcc1558051$110                   main_menu_update
ASxxxx Linker V03.00/V05.40 + sdld,  page 66.
Hexadecimal  [32-Bits]

Area                                    Addr        Size        Decimal Bytes (Attributes)
--------------------------------        ----        ----        ------- ----- ------------
_CODE                               00000200    00002573 =        9587. bytes (REL,CON)

      Value  Global                              Global Defined In Module
      -----  --------------------------------   ------------------------
     00001C1C  A$lcc1558051$114                   main_menu_update
     00001C1C  C$main_menu_update.c$23$7_1$165    main_menu_update
     00001C1D  A$lcc1558051$115                   main_menu_update
     00001C20  A$lcc1558051$116                   main_menu_update
     00001C21  A$lcc1558051$117                   main_menu_update
     00001C22  A$lcc1558051$118                   main_menu_update
     00001C25  A$lcc1558051$119                   main_menu_update
     00001C26  A$lcc1558051$120                   main_menu_update
     00001C28  A$lcc1558051$121                   main_menu_update
     00001C29  A$lcc1558051$122                   main_menu_update
     00001C2A  A$lcc1558051$123                   main_menu_update
     00001C2B  A$lcc1558051$124                   main_menu_update
     00001C2C  A$lcc1558051$125                   main_menu_update
     00001C2F  A$lcc1558051$126                   main_menu_update
     00001C31  A$lcc1558051$130                   main_menu_update
     00001C31  C$main_menu_update.c$21$6_1$164    main_menu_update
     00001C32  A$lcc1558051$131                   main_menu_update
     00001C34  A$lcc1558051$136                   main_menu_update
     00001C34  C$main_menu_update.c$28$5_0$166    main_menu_update
     00001C37  A$lcc1558051$137                   main_menu_update
     00001C39  A$lcc1558051$141                   main_menu_update
     00001C39  C$main_menu_update.c$30$6_0$168    main_menu_update
     00001C3B  A$lcc1558051$142                   main_menu_update
     00001C3D  A$lcc1558051$143                   main_menu_update
     00001C3E  A$lcc1558051$144                   main_menu_update
     00001C40  A$lcc1558051$145                   main_menu_update
     00001C41  A$lcc1558051$146                   main_menu_update
     00001C43  A$lcc1558051$147                   main_menu_update
     00001C44  A$lcc1558051$148                   main_menu_update
     00001C46  A$lcc1558051$149                   main_menu_update
     00001C47  A$lcc1558051$150                   main_menu_update
     00001C48  A$lcc1558051$151                   main_menu_update
     00001C4A  A$lcc1558051$152                   main_menu_update
     00001C4B  A$lcc1558051$153                   main_menu_update
     00001C4C  A$lcc1558051$154                   main_menu_update
     00001C4E  A$lcc1558051$155                   main_menu_update
     00001C4F  A$lcc1558051$156                   main_menu_update
     00001C51  A$lcc1558051$157                   main_menu_update
     00001C52  A$lcc1558051$158                   main_menu_update
     00001C54  A$lcc1558051$159                   main_menu_update
     00001C55  A$lcc1558051$160                   main_menu_update
     00001C57  A$lcc1558051$161                   main_menu_update
     00001C58  A$lcc1558051$162                   main_menu_update
     00001C5A  A$lcc1558051$163                   main_menu_update
     00001C5B  A$lcc1558051$167                   main_menu_update
     00001C5B  C$main_menu_update.c$33$2_0$158    main_menu_update
     00001C5E  A$lcc1558051$168                   main_menu_update
     00001C5F  A$lcc1558051$170                   main_menu_update
     00001C60  A$lcc1558051$171                   main_menu_update
     00001C62  A$lcc1558051$172                   main_menu_update
     00001C64  A$lcc1558051$176                   main_menu_update
ASxxxx Linker V03.00/V05.40 + sdld,  page 67.
Hexadecimal  [32-Bits]

Area                                    Addr        Size        Decimal Bytes (Attributes)
--------------------------------        ----        ----        ------- ----- ------------
_CODE                               00000200    00002573 =        9587. bytes (REL,CON)

      Value  Global                              Global Defined In Module
      -----  --------------------------------   ------------------------
     00001C64  C$main_menu_update.c$35$7_1$169    main_menu_update
     00001C65  A$lcc1558051$177                   main_menu_update
     00001C67  A$lcc1558051$178                   main_menu_update
     00001C6A  A$lcc1558051$179                   main_menu_update
     00001C6B  A$lcc1558051$180                   main_menu_update
     00001C6C  A$lcc1558051$181                   main_menu_update
     00001C6D  A$lcc1558051$182                   main_menu_update
     00001C6E  A$lcc1558051$183                   main_menu_update
     00001C71  A$lcc1558051$184                   main_menu_update
     00001C72  A$lcc1558051$185                   main_menu_update
     00001C73  A$lcc1558051$186                   main_menu_update
     00001C74  A$lcc1558051$187                   main_menu_update
     00001C76  A$lcc1558051$191                   main_menu_update
     00001C76  C$main_menu_update.c$36$7_1$169    main_menu_update
     00001C78  A$lcc1558051$192                   main_menu_update
     00001C79  A$lcc1558051$193                   main_menu_update
     00001C7A  A$lcc1558051$194                   main_menu_update
     00001C7D  A$lcc1558051$195                   main_menu_update
     00001C7E  A$lcc1558051$196                   main_menu_update
     00001C80  A$lcc1558051$197                   main_menu_update
     00001C81  A$lcc1558051$198                   main_menu_update
     00001C82  A$lcc1558051$199                   main_menu_update
     00001C83  A$lcc1558051$200                   main_menu_update
     00001C84  A$lcc1558051$201                   main_menu_update
     00001C87  A$lcc1558051$202                   main_menu_update
     00001C89  A$lcc1558051$206                   main_menu_update
     00001C89  C$main_menu_update.c$37$7_1$169    main_menu_update
     00001C8A  A$lcc1558051$210                   main_menu_update
     00001C8A  C$main_menu_update.c$33$6_1$168    main_menu_update
     00001C8B  A$lcc1558051$211                   main_menu_update
     00001C8D  A$lcc1558051$216                   main_menu_update
     00001C8F  A$lcc1558051$221                   main_menu_update
     00001C8F  C$main_menu_update.c$41$2_0$158    main_menu_update
     00001C8F  XG$MainMenu_Update$0$0             main_menu_update
     00001C90  A$lcc1558052$57                    clean_text
     00001C90  C$clean_text.c$7$0_0$133           clean_text
     00001C90  C$clean_text.c$9$1_0$133           clean_text
     00001C90  G$clean$0$0                        clean_text
     00001C90  _clean                             clean_text
     00001C93  A$lcc1558052$58                    clean_text
     00001C95  A$lcc1558052$62                    clean_text
     00001C95  C$clean_text.c$11$1_0$133          clean_text
     00001C97  A$lcc1558052$64                    clean_text
     00001C99  A$lcc1558052$65                    clean_text
     00001C9A  A$lcc1558052$66                    clean_text
     00001C9C  A$lcc1558052$70                    clean_text
     00001C9C  C$clean_text.c$13$3_0$135          clean_text
     00001C9F  A$lcc1558052$71                    clean_text
     00001CA0  A$lcc1558052$72                    clean_text
     00001CA1  A$lcc1558052$73                    clean_text
     00001CA2  A$lcc1558052$74                    clean_text
ASxxxx Linker V03.00/V05.40 + sdld,  page 68.
Hexadecimal  [32-Bits]

Area                                    Addr        Size        Decimal Bytes (Attributes)
--------------------------------        ----        ----        ------- ----- ------------
_CODE                               00000200    00002573 =        9587. bytes (REL,CON)

      Value  Global                              Global Defined In Module
      -----  --------------------------------   ------------------------
     00001CA5  A$lcc1558052$75                    clean_text
     00001CA6  A$lcc1558052$76                    clean_text
     00001CA8  A$lcc1558052$77                    clean_text
     00001CA9  A$lcc1558052$78                    clean_text
     00001CAA  A$lcc1558052$79                    clean_text
     00001CAB  A$lcc1558052$80                    clean_text
     00001CAC  A$lcc1558052$81                    clean_text
     00001CAF  A$lcc1558052$82                    clean_text
     00001CB1  A$lcc1558052$86                    clean_text
     00001CB1  C$clean_text.c$14$3_0$135          clean_text
     00001CB4  A$lcc1558052$87                    clean_text
     00001CB5  A$lcc1558052$88                    clean_text
     00001CB7  A$lcc1558052$89                    clean_text
     00001CB8  A$lcc1558052$90                    clean_text
     00001CB9  A$lcc1558052$91                    clean_text
     00001CBA  A$lcc1558052$92                    clean_text
     00001CBB  A$lcc1558052$93                    clean_text
     00001CBE  A$lcc1558052$94                    clean_text
     00001CC0  A$lcc1558052$98                    clean_text
     00001CC0  C$clean_text.c$11$2_0$134          clean_text
     00001CC1  A$lcc1558052$99                    clean_text
     00001CC3  A$lcc1558052$104                   clean_text
     00001CC3  C$clean_text.c$17$1_0$133          clean_text
     00001CC5  A$lcc1558052$109                   clean_text
     00001CC5  C$clean_text.c$19$3_0$137          clean_text
     00001CC6  A$lcc1558052$110                   clean_text
     00001CC8  A$lcc1558052$111                   clean_text
     00001CCA  A$lcc1558052$112                   clean_text
     00001CCD  A$lcc1558052$113                   clean_text
     00001CCE  A$lcc1558052$114                   clean_text
     00001CD0  A$lcc1558052$115                   clean_text
     00001CD1  A$lcc1558052$116                   clean_text
     00001CD2  A$lcc1558052$117                   clean_text
     00001CD4  A$lcc1558052$118                   clean_text
     00001CD5  A$lcc1558052$119                   clean_text
     00001CD6  A$lcc1558052$120                   clean_text
     00001CD8  A$lcc1558052$121                   clean_text
     00001CD9  A$lcc1558052$122                   clean_text
     00001CDA  A$lcc1558052$123                   clean_text
     00001CDB  A$lcc1558052$124                   clean_text
     00001CDC  A$lcc1558052$125                   clean_text
     00001CDF  A$lcc1558052$126                   clean_text
     00001CE1  A$lcc1558052$130                   clean_text
     00001CE1  C$clean_text.c$17$2_0$136          clean_text
     00001CE2  A$lcc1558052$131                   clean_text
     00001CE4  A$lcc1558052$136                   clean_text
     00001CE4  C$clean_text.c$22$1_0$133          clean_text
     00001CE7  A$lcc1558052$137                   clean_text
     00001CE8  A$lcc1558052$138                   clean_text
     00001CEB  A$lcc1558052$139                   clean_text
     00001CEC  A$lcc1558052$140                   clean_text
ASxxxx Linker V03.00/V05.40 + sdld,  page 69.
Hexadecimal  [32-Bits]

Area                                    Addr        Size        Decimal Bytes (Attributes)
--------------------------------        ----        ----        ------- ----- ------------
_CODE                               00000200    00002573 =        9587. bytes (REL,CON)

      Value  Global                              Global Defined In Module
      -----  --------------------------------   ------------------------
     00001CEF  A$lcc1558052$141                   clean_text
     00001CF0  A$lcc1558052$142                   clean_text
     00001CF3  A$lcc1558052$143                   clean_text
     00001CF5  A$lcc1558052$147                   clean_text
     00001CF5  C$clean_text.c$23$1_0$133          clean_text
     00001CF6  A$lcc1558052$148                   clean_text
     00001CF9  A$lcc1558052$149                   clean_text
     00001CFA  A$lcc1558052$150                   clean_text
     00001CFD  A$lcc1558052$151                   clean_text
     00001CFE  A$lcc1558052$152                   clean_text
     00001D01  A$lcc1558052$153                   clean_text
     00001D03  A$lcc1558052$161                   clean_text
     00001D03  C$clean_text.c$24$1_0$133          clean_text
     00001D03  XG$clean$0$0                       clean_text
     00001D04  G$empty_tile$0_0$0                 clean_text
     00001D04  _empty_tile                        clean_text
     00001D05  A$lcc1558053$53                    map_collision
     00001D05  C$map_collision.c$12$0_0$135       map_collision
     00001D05  Fmap_collision$get_tile$0$0        map_collision
     00001D07  A$lcc1558053$54                    map_collision
     00001D09  A$lcc1558053$55                    map_collision
     00001D0A  A$lcc1558053$56                    map_collision
     00001D0B  A$lcc1558053$57                    map_collision
     00001D0C  A$lcc1558053$61                    map_collision
     00001D0C  C$map_collision.c$14$1_0$135       map_collision
     00001D0F  A$lcc1558053$62                    map_collision
     00001D10  A$lcc1558053$63                    map_collision
     00001D11  A$lcc1558053$64                    map_collision
     00001D12  A$lcc1558053$65                    map_collision
     00001D13  A$lcc1558053$66                    map_collision
     00001D15  A$lcc1558053$67                    map_collision
     00001D16  A$lcc1558053$68                    map_collision
     00001D17  A$lcc1558053$69                    map_collision
     00001D18  A$lcc1558053$70                    map_collision
     00001D19  A$lcc1558053$71                    map_collision
     00001D1B  A$lcc1558053$72                    map_collision
     00001D1C  A$lcc1558053$73                    map_collision
     00001D1D  A$lcc1558053$74                    map_collision
     00001D1E  A$lcc1558053$75                    map_collision
     00001D1F  A$lcc1558053$76                    map_collision
     00001D20  A$lcc1558053$77                    map_collision
     00001D21  A$lcc1558053$78                    map_collision
     00001D22  A$lcc1558053$79                    map_collision
     00001D23  A$lcc1558053$80                    map_collision
     00001D24  A$lcc1558053$81                    map_collision
     00001D25  A$lcc1558053$82                    map_collision
     00001D26  A$lcc1558053$83                    map_collision
     00001D27  A$lcc1558053$84                    map_collision
     00001D29  A$lcc1558053$85                    map_collision
     00001D2A  A$lcc1558053$86                    map_collision
     00001D2B  A$lcc1558053$87                    map_collision
ASxxxx Linker V03.00/V05.40 + sdld,  page 70.
Hexadecimal  [32-Bits]

Area                                    Addr        Size        Decimal Bytes (Attributes)
--------------------------------        ----        ----        ------- ----- ------------
_CODE                               00000200    00002573 =        9587. bytes (REL,CON)

      Value  Global                              Global Defined In Module
      -----  --------------------------------   ------------------------
     00001D2C  A$lcc1558053$88                    map_collision
     00001D2D  A$lcc1558053$89                    map_collision
     00001D2E  A$lcc1558053$90                    map_collision
     00001D2F  A$lcc1558053$91                    map_collision
     00001D30  A$lcc1558053$92                    map_collision
     00001D31  A$lcc1558053$93                    map_collision
     00001D32  A$lcc1558053$94                    map_collision
     00001D33  A$lcc1558053$95                    map_collision
     00001D34  A$lcc1558053$96                    map_collision
     00001D35  A$lcc1558053$97                    map_collision
     00001D36  A$lcc1558053$98                    map_collision
     00001D37  A$lcc1558053$99                    map_collision
     00001D38  A$lcc1558053$100                   map_collision
     00001D39  A$lcc1558053$101                   map_collision
     00001D3A  A$lcc1558053$105                   map_collision
     00001D3A  C$map_collision.c$15$1_0$135       map_collision
     00001D3C  A$lcc1558053$106                   map_collision
     00001D3D  A$lcc1558053$107                   map_collision
     00001D3E  A$lcc1558053$108                   map_collision
     00001D3F  A$lcc1558053$118                   map_collision
     00001D3F  C$map_collision.c$18$1_0$137       map_collision
     00001D3F  G$Map_Collision$0$0                map_collision
     00001D3F  _Map_Collision                     map_collision
     00001D41  A$lcc1558053$122                   map_collision
     00001D41  C$map_collision.c$20$1_0$137       map_collision
     00001D44  A$lcc1558053$123                   map_collision
     00001D45  A$lcc1558053$124                   map_collision
     00001D46  A$lcc1558053$125                   map_collision
     00001D47  A$lcc1558053$126                   map_collision
     00001D49  A$lcc1558053$127                   map_collision
     00001D4A  A$lcc1558053$128                   map_collision
     00001D4B  A$lcc1558053$132                   map_collision
     00001D4B  C$map_collision.c$21$1_0$137       map_collision
     00001D4C  A$lcc1558053$133                   map_collision
     00001D4D  A$lcc1558053$134                   map_collision
     00001D4E  A$lcc1558053$135                   map_collision
     00001D4F  A$lcc1558053$136                   map_collision
     00001D50  A$lcc1558053$137                   map_collision
     00001D51  A$lcc1558053$141                   map_collision
     00001D51  C$map_collision.c$29$1_0$137       map_collision
     00001D54  A$lcc1558053$142                   map_collision
     00001D56  A$lcc1558053$143                   map_collision
     00001D57  A$lcc1558053$144                   map_collision
     00001D58  A$lcc1558053$145                   map_collision
     00001D5A  A$lcc1558053$146                   map_collision
     00001D5B  A$lcc1558053$147                   map_collision
     00001D5D  A$lcc1558053$148                   map_collision
     00001D5F  A$lcc1558053$149                   map_collision
     00001D60  A$lcc1558053$153                   map_collision
     00001D60  C$map_collision.c$30$1_0$137       map_collision
     00001D63  A$lcc1558053$154                   map_collision
ASxxxx Linker V03.00/V05.40 + sdld,  page 71.
Hexadecimal  [32-Bits]

Area                                    Addr        Size        Decimal Bytes (Attributes)
--------------------------------        ----        ----        ------- ----- ------------
_CODE                               00000200    00002573 =        9587. bytes (REL,CON)

      Value  Global                              Global Defined In Module
      -----  --------------------------------   ------------------------
     00001D65  A$lcc1558053$155                   map_collision
     00001D66  A$lcc1558053$156                   map_collision
     00001D67  A$lcc1558053$157                   map_collision
     00001D69  A$lcc1558053$158                   map_collision
     00001D6A  A$lcc1558053$159                   map_collision
     00001D6C  A$lcc1558053$160                   map_collision
     00001D6D  A$lcc1558053$164                   map_collision
     00001D6D  C$map_collision.c$35$1_0$137       map_collision
     00001D6E  A$lcc1558053$165                   map_collision
     00001D6F  A$lcc1558053$166                   map_collision
     00001D72  A$lcc1558053$167                   map_collision
     00001D73  A$lcc1558053$168                   map_collision
     00001D74  A$lcc1558053$169                   map_collision
     00001D75  A$lcc1558053$170                   map_collision
     00001D77  A$lcc1558053$171                   map_collision
     00001D78  A$lcc1558053$172                   map_collision
     00001D79  A$lcc1558053$173                   map_collision
     00001D7A  A$lcc1558053$174                   map_collision
     00001D7C  A$lcc1558053$175                   map_collision
     00001D7D  A$lcc1558053$176                   map_collision
     00001D7E  A$lcc1558053$177                   map_collision
     00001D7F  A$lcc1558053$178                   map_collision
     00001D80  A$lcc1558053$179                   map_collision
     00001D81  A$lcc1558053$180                   map_collision
     00001D83  A$lcc1558053$181                   map_collision
     00001D84  A$lcc1558053$182                   map_collision
     00001D85  A$lcc1558053$183                   map_collision
     00001D86  A$lcc1558053$184                   map_collision
     00001D87  A$lcc1558053$185                   map_collision
     00001D89  A$lcc1558053$186                   map_collision
     00001D8A  A$lcc1558053$187                   map_collision
     00001D8B  A$lcc1558053$188                   map_collision
     00001D8C  A$lcc1558053$189                   map_collision
     00001D8D  A$lcc1558053$190                   map_collision
     00001D8E  A$lcc1558053$191                   map_collision
     00001D8F  A$lcc1558053$192                   map_collision
     00001D90  A$lcc1558053$193                   map_collision
     00001D91  A$lcc1558053$194                   map_collision
     00001D92  A$lcc1558053$195                   map_collision
     00001D94  A$lcc1558053$196                   map_collision
     00001D95  A$lcc1558053$197                   map_collision
     00001D96  A$lcc1558053$198                   map_collision
     00001D97  A$lcc1558053$199                   map_collision
     00001D99  A$lcc1558053$200                   map_collision
     00001D9A  A$lcc1558053$201                   map_collision
     00001D9B  A$lcc1558053$202                   map_collision
     00001D9C  A$lcc1558053$203                   map_collision
     00001D9D  A$lcc1558053$204                   map_collision
     00001D9F  A$lcc1558053$205                   map_collision
     00001DA0  A$lcc1558053$206                   map_collision
     00001DA1  A$lcc1558053$207                   map_collision
ASxxxx Linker V03.00/V05.40 + sdld,  page 72.
Hexadecimal  [32-Bits]

Area                                    Addr        Size        Decimal Bytes (Attributes)
--------------------------------        ----        ----        ------- ----- ------------
_CODE                               00000200    00002573 =        9587. bytes (REL,CON)

      Value  Global                              Global Defined In Module
      -----  --------------------------------   ------------------------
     00001DA2  A$lcc1558053$208                   map_collision
     00001DA3  A$lcc1558053$209                   map_collision
     00001DA4  A$lcc1558053$210                   map_collision
     00001DA5  A$lcc1558053$211                   map_collision
     00001DA7  A$lcc1558053$212                   map_collision
     00001DA8  A$lcc1558053$213                   map_collision
     00001DA9  A$lcc1558053$214                   map_collision
     00001DAA  A$lcc1558053$215                   map_collision
     00001DAC  A$lcc1558053$216                   map_collision
     00001DAD  A$lcc1558053$217                   map_collision
     00001DAE  A$lcc1558053$218                   map_collision
     00001DAF  A$lcc1558053$219                   map_collision
     00001DB1  A$lcc1558053$220                   map_collision
     00001DB3  A$lcc1558053$221                   map_collision
     00001DB4  A$lcc1558053$223                   map_collision
     00001DB6  A$lcc1558053$224                   map_collision
     00001DB9  A$lcc1558053$228                   map_collision
     00001DB9  C$map_collision.c$36$1_0$137       map_collision
     00001DBB  A$lcc1558053$229                   map_collision
     00001DBC  A$lcc1558053$230                   map_collision
     00001DBD  A$lcc1558053$231                   map_collision
     00001DBE  A$lcc1558053$232                   map_collision
     00001DBF  A$lcc1558053$233                   map_collision
     00001DC1  A$lcc1558053$234                   map_collision
     00001DC2  A$lcc1558053$235                   map_collision
     00001DC3  A$lcc1558053$236                   map_collision
     00001DC4  A$lcc1558053$237                   map_collision
     00001DC5  A$lcc1558053$238                   map_collision
     00001DC6  A$lcc1558053$239                   map_collision
     00001DC7  A$lcc1558053$240                   map_collision
     00001DC8  A$lcc1558053$241                   map_collision
     00001DCA  A$lcc1558053$242                   map_collision
     00001DCB  A$lcc1558053$243                   map_collision
     00001DCC  A$lcc1558053$244                   map_collision
     00001DCD  A$lcc1558053$245                   map_collision
     00001DCE  A$lcc1558053$246                   map_collision
     00001DCF  A$lcc1558053$247                   map_collision
     00001DD0  A$lcc1558053$248                   map_collision
     00001DD1  A$lcc1558053$249                   map_collision
     00001DD2  A$lcc1558053$250                   map_collision
     00001DD4  A$lcc1558053$251                   map_collision
     00001DD5  A$lcc1558053$252                   map_collision
     00001DD6  A$lcc1558053$253                   map_collision
     00001DD7  A$lcc1558053$254                   map_collision
     00001DD9  A$lcc1558053$255                   map_collision
     00001DDB  A$lcc1558053$256                   map_collision
     00001DDC  A$lcc1558053$258                   map_collision
     00001DDE  A$lcc1558053$259                   map_collision
     00001DE1  A$lcc1558053$263                   map_collision
     00001DE1  C$map_collision.c$37$1_0$137       map_collision
     00001DE3  A$lcc1558053$264                   map_collision
ASxxxx Linker V03.00/V05.40 + sdld,  page 73.
Hexadecimal  [32-Bits]

Area                                    Addr        Size        Decimal Bytes (Attributes)
--------------------------------        ----        ----        ------- ----- ------------
_CODE                               00000200    00002573 =        9587. bytes (REL,CON)

      Value  Global                              Global Defined In Module
      -----  --------------------------------   ------------------------
     00001DE4  A$lcc1558053$265                   map_collision
     00001DE5  A$lcc1558053$266                   map_collision
     00001DE6  A$lcc1558053$267                   map_collision
     00001DE7  A$lcc1558053$268                   map_collision
     00001DE9  A$lcc1558053$269                   map_collision
     00001DEA  A$lcc1558053$270                   map_collision
     00001DEB  A$lcc1558053$271                   map_collision
     00001DEC  A$lcc1558053$272                   map_collision
     00001DED  A$lcc1558053$273                   map_collision
     00001DEE  A$lcc1558053$274                   map_collision
     00001DEF  A$lcc1558053$275                   map_collision
     00001DF0  A$lcc1558053$276                   map_collision
     00001DF1  A$lcc1558053$277                   map_collision
     00001DF2  A$lcc1558053$278                   map_collision
     00001DF3  A$lcc1558053$279                   map_collision
     00001DF4  A$lcc1558053$280                   map_collision
     00001DF5  A$lcc1558053$281                   map_collision
     00001DF6  A$lcc1558053$282                   map_collision
     00001DF7  A$lcc1558053$283                   map_collision
     00001DF8  A$lcc1558053$284                   map_collision
     00001DF9  A$lcc1558053$285                   map_collision
     00001DFA  A$lcc1558053$286                   map_collision
     00001DFB  A$lcc1558053$287                   map_collision
     00001DFC  A$lcc1558053$288                   map_collision
     00001DFD  A$lcc1558053$289                   map_collision
     00001DFE  A$lcc1558053$290                   map_collision
     00001E00  A$lcc1558053$291                   map_collision
     00001E01  A$lcc1558053$292                   map_collision
     00001E02  A$lcc1558053$293                   map_collision
     00001E03  A$lcc1558053$294                   map_collision
     00001E04  A$lcc1558053$295                   map_collision
     00001E05  A$lcc1558053$296                   map_collision
     00001E06  A$lcc1558053$297                   map_collision
     00001E08  A$lcc1558053$298                   map_collision
     00001E09  A$lcc1558053$299                   map_collision
     00001E0B  A$lcc1558053$300                   map_collision
     00001E0C  A$lcc1558053$301                   map_collision
     00001E0D  A$lcc1558053$302                   map_collision
     00001E0E  A$lcc1558053$303                   map_collision
     00001E0F  A$lcc1558053$304                   map_collision
     00001E10  A$lcc1558053$305                   map_collision
     00001E12  A$lcc1558053$306                   map_collision
     00001E14  A$lcc1558053$307                   map_collision
     00001E15  A$lcc1558053$309                   map_collision
     00001E17  A$lcc1558053$310                   map_collision
     00001E1A  A$lcc1558053$314                   map_collision
     00001E1A  C$map_collision.c$38$1_0$137       map_collision
     00001E1C  A$lcc1558053$315                   map_collision
     00001E1D  A$lcc1558053$316                   map_collision
     00001E1E  A$lcc1558053$317                   map_collision
     00001E1F  A$lcc1558053$318                   map_collision
ASxxxx Linker V03.00/V05.40 + sdld,  page 74.
Hexadecimal  [32-Bits]

Area                                    Addr        Size        Decimal Bytes (Attributes)
--------------------------------        ----        ----        ------- ----- ------------
_CODE                               00000200    00002573 =        9587. bytes (REL,CON)

      Value  Global                              Global Defined In Module
      -----  --------------------------------   ------------------------
     00001E20  A$lcc1558053$319                   map_collision
     00001E21  A$lcc1558053$320                   map_collision
     00001E22  A$lcc1558053$321                   map_collision
     00001E23  A$lcc1558053$322                   map_collision
     00001E24  A$lcc1558053$323                   map_collision
     00001E26  A$lcc1558053$324                   map_collision
     00001E27  A$lcc1558053$325                   map_collision
     00001E29  A$lcc1558053$326                   map_collision
     00001E2A  A$lcc1558053$327                   map_collision
     00001E2B  A$lcc1558053$328                   map_collision
     00001E2C  A$lcc1558053$329                   map_collision
     00001E2D  A$lcc1558053$330                   map_collision
     00001E2E  A$lcc1558053$331                   map_collision
     00001E2F  A$lcc1558053$332                   map_collision
     00001E30  A$lcc1558053$333                   map_collision
     00001E31  A$lcc1558053$334                   map_collision
     00001E32  A$lcc1558053$335                   map_collision
     00001E33  A$lcc1558053$336                   map_collision
     00001E34  A$lcc1558053$337                   map_collision
     00001E35  A$lcc1558053$338                   map_collision
     00001E37  A$lcc1558053$339                   map_collision
     00001E38  A$lcc1558053$340                   map_collision
     00001E3A  A$lcc1558053$341                   map_collision
     00001E3B  A$lcc1558053$342                   map_collision
     00001E3C  A$lcc1558053$343                   map_collision
     00001E3D  A$lcc1558053$344                   map_collision
     00001E3E  A$lcc1558053$345                   map_collision
     00001E3F  A$lcc1558053$346                   map_collision
     00001E41  A$lcc1558053$347                   map_collision
     00001E43  A$lcc1558053$348                   map_collision
     00001E44  A$lcc1558053$350                   map_collision
     00001E46  A$lcc1558053$351                   map_collision
     00001E49  A$lcc1558053$355                   map_collision
     00001E49  C$map_collision.c$44$2_0$138       map_collision
     00001E4B  A$lcc1558053$356                   map_collision
     00001E4C  A$lcc1558053$357                   map_collision
     00001E4D  A$lcc1558053$358                   map_collision
     00001E4E  A$lcc1558053$359                   map_collision
     00001E4F  A$lcc1558053$360                   map_collision
     00001E50  A$lcc1558053$361                   map_collision
     00001E51  A$lcc1558053$362                   map_collision
     00001E52  A$lcc1558053$363                   map_collision
     00001E53  A$lcc1558053$364                   map_collision
     00001E54  A$lcc1558053$365                   map_collision
     00001E55  A$lcc1558053$366                   map_collision
     00001E56  A$lcc1558053$367                   map_collision
     00001E57  A$lcc1558053$368                   map_collision
     00001E58  A$lcc1558053$369                   map_collision
     00001E59  A$lcc1558053$370                   map_collision
     00001E5A  A$lcc1558053$371                   map_collision
     00001E5C  A$lcc1558053$372                   map_collision
ASxxxx Linker V03.00/V05.40 + sdld,  page 75.
Hexadecimal  [32-Bits]

Area                                    Addr        Size        Decimal Bytes (Attributes)
--------------------------------        ----        ----        ------- ----- ------------
_CODE                               00000200    00002573 =        9587. bytes (REL,CON)

      Value  Global                              Global Defined In Module
      -----  --------------------------------   ------------------------
     00001E5D  A$lcc1558053$373                   map_collision
     00001E5F  A$lcc1558053$374                   map_collision
     00001E60  A$lcc1558053$375                   map_collision
     00001E61  A$lcc1558053$376                   map_collision
     00001E62  A$lcc1558053$377                   map_collision
     00001E63  A$lcc1558053$378                   map_collision
     00001E64  A$lcc1558053$379                   map_collision
     00001E66  A$lcc1558053$380                   map_collision
     00001E68  A$lcc1558053$381                   map_collision
     00001E69  A$lcc1558053$383                   map_collision
     00001E6A  A$lcc1558053$384                   map_collision
     00001E6D  A$lcc1558053$385                   map_collision
     00001E6E  A$lcc1558053$386                   map_collision
     00001E70  A$lcc1558053$387                   map_collision
     00001E72  A$lcc1558053$388                   map_collision
     00001E73  A$lcc1558053$390                   map_collision
     00001E74  A$lcc1558053$391                   map_collision
     00001E76  A$lcc1558053$395                   map_collision
     00001E76  C$map_collision.c$46$3_0$139       map_collision
     00001E79  A$lcc1558053$400                   map_collision
     00001E79  C$map_collision.c$49$2_0$140       map_collision
     00001E7B  A$lcc1558053$401                   map_collision
     00001E7C  A$lcc1558053$402                   map_collision
     00001E7D  A$lcc1558053$403                   map_collision
     00001E7E  A$lcc1558053$404                   map_collision
     00001E7F  A$lcc1558053$405                   map_collision
     00001E80  A$lcc1558053$406                   map_collision
     00001E81  A$lcc1558053$407                   map_collision
     00001E82  A$lcc1558053$408                   map_collision
     00001E83  A$lcc1558053$409                   map_collision
     00001E84  A$lcc1558053$410                   map_collision
     00001E85  A$lcc1558053$411                   map_collision
     00001E86  A$lcc1558053$412                   map_collision
     00001E87  A$lcc1558053$413                   map_collision
     00001E88  A$lcc1558053$414                   map_collision
     00001E89  A$lcc1558053$415                   map_collision
     00001E8A  A$lcc1558053$416                   map_collision
     00001E8C  A$lcc1558053$417                   map_collision
     00001E8D  A$lcc1558053$418                   map_collision
     00001E8F  A$lcc1558053$419                   map_collision
     00001E90  A$lcc1558053$420                   map_collision
     00001E91  A$lcc1558053$421                   map_collision
     00001E92  A$lcc1558053$422                   map_collision
     00001E93  A$lcc1558053$423                   map_collision
     00001E94  A$lcc1558053$424                   map_collision
     00001E96  A$lcc1558053$431                   map_collision
     00001E96  C$map_collision.c$51$3_0$141       map_collision
     00001E96  C$map_collision.c$52$3_0$141       map_collision
     00001E97  A$lcc1558053$432                   map_collision
     00001E98  A$lcc1558053$433                   map_collision
     00001E99  A$lcc1558053$437                   map_collision
ASxxxx Linker V03.00/V05.40 + sdld,  page 76.
Hexadecimal  [32-Bits]

Area                                    Addr        Size        Decimal Bytes (Attributes)
--------------------------------        ----        ----        ------- ----- ------------
_CODE                               00000200    00002573 =        9587. bytes (REL,CON)

      Value  Global                              Global Defined In Module
      -----  --------------------------------   ------------------------
     00001E99  C$map_collision.c$54$4_0$142       map_collision
     00001E9A  A$lcc1558053$438                   map_collision
     00001E9B  A$lcc1558053$439                   map_collision
     00001E9E  A$lcc1558053$440                   map_collision
     00001E9F  A$lcc1558053$441                   map_collision
     00001EA0  A$lcc1558053$442                   map_collision
     00001EA1  A$lcc1558053$443                   map_collision
     00001EA2  A$lcc1558053$444                   map_collision
     00001EA3  A$lcc1558053$445                   map_collision
     00001EA4  A$lcc1558053$446                   map_collision
     00001EA5  A$lcc1558053$447                   map_collision
     00001EA7  A$lcc1558053$448                   map_collision
     00001EA9  A$lcc1558053$452                   map_collision
     00001EA9  C$map_collision.c$55$4_0$142       map_collision
     00001EAB  A$lcc1558053$456                   map_collision
     00001EAB  C$map_collision.c$57$4_0$143       map_collision
     00001EAC  A$lcc1558053$457                   map_collision
     00001EAD  A$lcc1558053$458                   map_collision
     00001EB0  A$lcc1558053$459                   map_collision
     00001EB1  A$lcc1558053$460                   map_collision
     00001EB2  A$lcc1558053$461                   map_collision
     00001EB3  A$lcc1558053$462                   map_collision
     00001EB4  A$lcc1558053$463                   map_collision
     00001EB5  A$lcc1558053$464                   map_collision
     00001EB6  A$lcc1558053$465                   map_collision
     00001EB8  A$lcc1558053$466                   map_collision
     00001EB9  A$lcc1558053$467                   map_collision
     00001EBA  A$lcc1558053$468                   map_collision
     00001EBB  A$lcc1558053$469                   map_collision
     00001EBC  A$lcc1558053$470                   map_collision
     00001EBD  A$lcc1558053$471                   map_collision
     00001EBE  A$lcc1558053$475                   map_collision
     00001EBE  C$map_collision.c$58$4_0$143       map_collision
     00001EC0  A$lcc1558053$479                   map_collision
     00001EC0  C$map_collision.c$60$3_0$141       map_collision
     00001EC1  A$lcc1558053$480                   map_collision
     00001EC2  A$lcc1558053$481                   map_collision
     00001EC5  A$lcc1558053$486                   map_collision
     00001EC7  A$lcc1558053$491                   map_collision
     00001EC7  C$map_collision.c$62$2_0$137       map_collision
     00001EC7  XG$Map_Collision$0$0               map_collision
     00001EC8  A$lcc1558055$61                    map_00
     00001EC8  C$map_00.c$6$0_0$34                map_00
     00001EC8  C$map_00.c$7$1_0$34                map_00
     00001EC8  G$Map_00_Create$0$0                map_00
     00001EC8  _Map_00_Create                     map_00
     00001ECB  A$lcc1558055$62                    map_00
     00001ECD  A$lcc1558055$63                    map_00
     00001ECE  A$lcc1558055$64                    map_00
     00001ED0  A$lcc1558055$68                    map_00
     00001ED0  C$map_00.c$8$1_0$34                map_00
ASxxxx Linker V03.00/V05.40 + sdld,  page 77.
Hexadecimal  [32-Bits]

Area                                    Addr        Size        Decimal Bytes (Attributes)
--------------------------------        ----        ----        ------- ----- ------------
_CODE                               00000200    00002573 =        9587. bytes (REL,CON)

      Value  Global                              Global Defined In Module
      -----  --------------------------------   ------------------------
     00001ED1  A$lcc1558055$69                    map_00
     00001ED3  A$lcc1558055$70                    map_00
     00001ED4  A$lcc1558055$71                    map_00
     00001ED6  A$lcc1558055$75                    map_00
     00001ED6  C$map_00.c$10$1_0$34               map_00
     00001ED9  A$lcc1558055$76                    map_00
     00001EDA  A$lcc1558055$77                    map_00
     00001EDB  A$lcc1558055$78                    map_00
     00001EDC  A$lcc1558055$86                    map_00
     00001EDC  C$map_00.c$11$1_0$34               map_00
     00001EDC  XG$Map_00_Create$0$0               map_00
     00001EDD  G$map_00_example_collision$0_0$0   map_00_collision
     00001EDD  _map_00_example_collision          map_00_collision
     00002045  A$lcc1558057$61                    map_00_init
     00002045  C$map_00_init.c$20$0_0$166         map_00_init
     00002045  C$map_00_init.c$22$2_0$167         map_00_init
     00002045  G$hello_event$0$0                  map_00_init
     00002045  _hello_event                       map_00_init
     00002048  A$lcc1558057$62                    map_00_init
     00002049  A$lcc1558057$63                    map_00_init
     0000204A  A$lcc1558057$64                    map_00_init
     0000204B  A$lcc1558057$71                    map_00_init
     0000204B  C$map_00_init.c$23$2_0$167         map_00_init
     0000204B  C$map_00_init.c$25$1_0$166         map_00_init
     0000204D  A$lcc1558057$72                    map_00_init
     0000204E  A$lcc1558057$76                    map_00_init
     0000204E  C$map_00_init.c$26$1_0$166         map_00_init
     00002050  A$lcc1558057$77                    map_00_init
     00002051  A$lcc1558057$78                    map_00_init
     00002052  A$lcc1558057$79                    map_00_init
     00002053  A$lcc1558057$80                    map_00_init
     00002054  A$lcc1558057$81                    map_00_init
     00002055  A$lcc1558057$82                    map_00_init
     00002057  A$lcc1558057$83                    map_00_init
     0000205A  A$lcc1558057$84                    map_00_init
     0000205D  A$lcc1558057$92                    map_00_init
     0000205D  C$map_00_init.c$27$1_0$166         map_00_init
     0000205D  XG$hello_event$0$0                 map_00_init
     0000205E  A$lcc1558057$102                   map_00_init
     0000205E  C$map_00_init.c$29$1_0$169         map_00_init
     0000205E  G$Map_00_Init$0$0                  map_00_init
     0000205E  _Map_00_Init                       map_00_init
     0000205F  A$lcc1558057$103                   map_00_init
     00002060  A$lcc1558057$104                   map_00_init
     00002061  A$lcc1558057$108                   map_00_init
     00002061  C$map_00_init.c$31$1_0$169         map_00_init
     00002064  A$lcc1558057$109                   map_00_init
     00002066  A$lcc1558057$110                   map_00_init
     00002067  A$lcc1558057$111                   map_00_init
     00002069  A$lcc1558057$112                   map_00_init
     0000206B  A$lcc1558057$113                   map_00_init
ASxxxx Linker V03.00/V05.40 + sdld,  page 78.
Hexadecimal  [32-Bits]

Area                                    Addr        Size        Decimal Bytes (Attributes)
--------------------------------        ----        ----        ------- ----- ------------
_CODE                               00000200    00002573 =        9587. bytes (REL,CON)

      Value  Global                              Global Defined In Module
      -----  --------------------------------   ------------------------
     0000206C  A$lcc1558057$114                   map_00_init
     0000206F  A$lcc1558057$115                   map_00_init
     00002070  A$lcc1558057$119                   map_00_init
     00002070  C$map_00_init.c$32$1_0$169         map_00_init
     00002073  A$lcc1558057$120                   map_00_init
     00002074  A$lcc1558057$124                   map_00_init
     00002074  C$map_00_init.c$33$1_0$169         map_00_init
     00002077  A$lcc1558057$125                   map_00_init
     00002079  A$lcc1558057$126                   map_00_init
     0000207A  A$lcc1558057$127                   map_00_init
     0000207C  A$lcc1558057$131                   map_00_init
     0000207C  C$map_00_init.c$34$1_0$169         map_00_init
     0000207F  A$lcc1558057$132                   map_00_init
     00002081  A$lcc1558057$136                   map_00_init
     00002081  C$map_00_init.c$35$1_0$169         map_00_init
     00002082  A$lcc1558057$137                   map_00_init
     00002083  A$lcc1558057$138                   map_00_init
     00002085  A$lcc1558057$142                   map_00_init
     00002085  C$map_00_init.c$37$1_0$169         map_00_init
     00002088  A$lcc1558057$143                   map_00_init
     0000208A  A$lcc1558057$147                   map_00_init
     0000208A  C$map_00_init.c$38$1_0$169         map_00_init
     0000208D  A$lcc1558057$148                   map_00_init
     0000208F  A$lcc1558057$149                   map_00_init
     00002090  A$lcc1558057$150                   map_00_init
     00002092  A$lcc1558057$154                   map_00_init
     00002092  C$map_00_init.c$39$1_0$169         map_00_init
     00002095  A$lcc1558057$155                   map_00_init
     00002097  A$lcc1558057$159                   map_00_init
     00002097  C$map_00_init.c$41$1_0$169         map_00_init
     0000209A  A$lcc1558057$160                   map_00_init
     0000209B  A$lcc1558057$161                   map_00_init
     0000209D  A$lcc1558057$162                   map_00_init
     0000209E  A$lcc1558057$163                   map_00_init
     000020A0  A$lcc1558057$167                   map_00_init
     000020A0  C$map_00_init.c$42$1_0$169         map_00_init
     000020A1  A$lcc1558057$168                   map_00_init
     000020A2  A$lcc1558057$169                   map_00_init
     000020A5  A$lcc1558057$173                   map_00_init
     000020A5  C$map_00_init.c$43$1_0$169         map_00_init
     000020A8  A$lcc1558057$177                   map_00_init
     000020A8  C$map_00_init.c$45$2_0$170         map_00_init
     000020AA  A$lcc1558057$178                   map_00_init
     000020AB  A$lcc1558057$182                   map_00_init
     000020AB  C$map_00_init.c$46$1_1$170         map_00_init
     000020AD  A$lcc1558057$183                   map_00_init
     000020AF  A$lcc1558057$184                   map_00_init
     000020B2  A$lcc1558057$185                   map_00_init
     000020B4  A$lcc1558057$189                   map_00_init
     000020B4  C$map_00_init.c$48$1_1$170         map_00_init
     000020B7  A$lcc1558057$190                   map_00_init
ASxxxx Linker V03.00/V05.40 + sdld,  page 79.
Hexadecimal  [32-Bits]

Area                                    Addr        Size        Decimal Bytes (Attributes)
--------------------------------        ----        ----        ------- ----- ------------
_CODE                               00000200    00002573 =        9587. bytes (REL,CON)

      Value  Global                              Global Defined In Module
      -----  --------------------------------   ------------------------
     000020B8  A$lcc1558057$191                   map_00_init
     000020BB  A$lcc1558057$192                   map_00_init
     000020BC  A$lcc1558057$193                   map_00_init
     000020BF  A$lcc1558057$194                   map_00_init
     000020C1  A$lcc1558057$198                   map_00_init
     000020C1  C$map_00_init.c$49$1_1$170         map_00_init
     000020C4  A$lcc1558057$199                   map_00_init
     000020C5  A$lcc1558057$200                   map_00_init
     000020C8  A$lcc1558057$201                   map_00_init
     000020C9  A$lcc1558057$202                   map_00_init
     000020CA  A$lcc1558057$203                   map_00_init
     000020CB  A$lcc1558057$204                   map_00_init
     000020CC  A$lcc1558057$205                   map_00_init
     000020CF  A$lcc1558057$206                   map_00_init
     000020D1  A$lcc1558057$210                   map_00_init
     000020D1  C$map_00_init.c$51$1_1$170         map_00_init
     000020D2  A$lcc1558057$211                   map_00_init
     000020D4  A$lcc1558057$212                   map_00_init
     000020D7  A$lcc1558057$213                   map_00_init
     000020D8  A$lcc1558057$221                   map_00_init
     000020D8  C$map_00_init.c$52$1_1$169         map_00_init
     000020D8  XG$Map_00_Init$0$0                 map_00_init
     000020D9  A$lcc1558058$56                    map_00_init_dialogues
     000020D9  C$map_00_init_dialogues.c$11$1_0   map_00_init_dialogues
     000020D9  C$map_00_init_dialogues.c$9$0_0$   map_00_init_dialogues
     000020D9  G$Map_00_InitDialogues$0$0         map_00_init_dialogues
     000020D9  _Map_00_InitDialogues              map_00_init_dialogues
     000020DC  A$lcc1558058$57                    map_00_init_dialogues
     000020DE  A$lcc1558058$58                    map_00_init_dialogues
     000020DF  A$lcc1558058$59                    map_00_init_dialogues
     000020E1  A$lcc1558058$67                    map_00_init_dialogues
     000020E1  C$map_00_init_dialogues.c$12$1_0   map_00_init_dialogues
     000020E1  XG$Map_00_InitDialogues$0$0        map_00_init_dialogues
     000020E2  G$dialogue_00$0_0$0                map_00_init_dialogues
     000020E2  _dialogue_00                       map_00_init_dialogues
     00002226  A$lcc1558059$53                    map_00_init_npc
     00002226  C$map_00_init_npc.c$12$0_0$165     map_00_init_npc
     00002226  G$Map_00_NPC_Init$0$0              map_00_init_npc
     00002226  _Map_00_NPC_Init                   map_00_init_npc
     00002228  A$lcc1558059$57                    map_00_init_npc
     00002228  C$map_00_init_npc.c$14$1_0$165     map_00_init_npc
     0000222B  A$lcc1558059$58                    map_00_init_npc
     0000222C  A$lcc1558059$59                    map_00_init_npc
     0000222E  A$lcc1558059$60                    map_00_init_npc
     00002231  A$lcc1558059$61                    map_00_init_npc
     00002232  A$lcc1558059$62                    map_00_init_npc
     00002234  A$lcc1558059$66                    map_00_init_npc
     00002234  C$map_00_init_npc.c$15$1_0$165     map_00_init_npc
     00002237  A$lcc1558059$67                    map_00_init_npc
     00002238  A$lcc1558059$68                    map_00_init_npc
     0000223A  A$lcc1558059$69                    map_00_init_npc
ASxxxx Linker V03.00/V05.40 + sdld,  page 80.
Hexadecimal  [32-Bits]

Area                                    Addr        Size        Decimal Bytes (Attributes)
--------------------------------        ----        ----        ------- ----- ------------
_CODE                               00000200    00002573 =        9587. bytes (REL,CON)

      Value  Global                              Global Defined In Module
      -----  --------------------------------   ------------------------
     0000223D  A$lcc1558059$70                    map_00_init_npc
     0000223E  A$lcc1558059$71                    map_00_init_npc
     00002240  A$lcc1558059$75                    map_00_init_npc
     00002240  C$map_00_init_npc.c$17$2_0$166     map_00_init_npc
     00002242  A$lcc1558059$76                    map_00_init_npc
     00002244  A$lcc1558059$77                    map_00_init_npc
     00002245  A$lcc1558059$78                    map_00_init_npc
     00002247  A$lcc1558059$79                    map_00_init_npc
     00002248  A$lcc1558059$80                    map_00_init_npc
     0000224A  A$lcc1558059$81                    map_00_init_npc
     0000224B  A$lcc1558059$82                    map_00_init_npc
     0000224D  A$lcc1558059$83                    map_00_init_npc
     0000224E  A$lcc1558059$84                    map_00_init_npc
     00002250  A$lcc1558059$85                    map_00_init_npc
     00002251  A$lcc1558059$86                    map_00_init_npc
     00002252  A$lcc1558059$87                    map_00_init_npc
     00002253  A$lcc1558059$88                    map_00_init_npc
     00002254  A$lcc1558059$89                    map_00_init_npc
     00002255  A$lcc1558059$90                    map_00_init_npc
     00002256  A$lcc1558059$91                    map_00_init_npc
     00002257  A$lcc1558059$95                    map_00_init_npc
     0000225A  A$lcc1558059$96                    map_00_init_npc
     0000225B  A$lcc1558059$98                    map_00_init_npc
     0000225E  A$lcc1558059$99                    map_00_init_npc
     0000225F  A$lcc1558059$100                   map_00_init_npc
     00002260  A$lcc1558059$101                   map_00_init_npc
     00002261  A$lcc1558059$102                   map_00_init_npc
     00002263  A$lcc1558059$103                   map_00_init_npc
     00002264  A$lcc1558059$104                   map_00_init_npc
     00002266  A$lcc1558059$105                   map_00_init_npc
     00002268  A$lcc1558059$109                   map_00_init_npc
     00002268  C$map_00_init_npc.c$19$2_1$167     map_00_init_npc
     0000226B  A$lcc1558059$110                   map_00_init_npc
     0000226C  A$lcc1558059$111                   map_00_init_npc
     0000226E  A$lcc1558059$112                   map_00_init_npc
     0000226F  A$lcc1558059$113                   map_00_init_npc
     00002270  A$lcc1558059$114                   map_00_init_npc
     00002271  A$lcc1558059$115                   map_00_init_npc
     00002272  A$lcc1558059$116                   map_00_init_npc
     00002273  A$lcc1558059$117                   map_00_init_npc
     00002274  A$lcc1558059$118                   map_00_init_npc
     00002275  A$lcc1558059$119                   map_00_init_npc
     00002276  A$lcc1558059$120                   map_00_init_npc
     00002278  A$lcc1558059$121                   map_00_init_npc
     00002279  A$lcc1558059$122                   map_00_init_npc
     0000227A  A$lcc1558059$123                   map_00_init_npc
     0000227B  A$lcc1558059$124                   map_00_init_npc
     0000227D  A$lcc1558059$125                   map_00_init_npc
     0000227E  A$lcc1558059$126                   map_00_init_npc
     0000227F  A$lcc1558059$127                   map_00_init_npc
     00002280  A$lcc1558059$128                   map_00_init_npc
ASxxxx Linker V03.00/V05.40 + sdld,  page 81.
Hexadecimal  [32-Bits]

Area                                    Addr        Size        Decimal Bytes (Attributes)
--------------------------------        ----        ----        ------- ----- ------------
_CODE                               00000200    00002573 =        9587. bytes (REL,CON)

      Value  Global                              Global Defined In Module
      -----  --------------------------------   ------------------------
     00002281  A$lcc1558059$129                   map_00_init_npc
     00002284  A$lcc1558059$130                   map_00_init_npc
     00002285  A$lcc1558059$131                   map_00_init_npc
     00002286  A$lcc1558059$132                   map_00_init_npc
     00002287  A$lcc1558059$133                   map_00_init_npc
     00002289  A$lcc1558059$134                   map_00_init_npc
     0000228A  A$lcc1558059$135                   map_00_init_npc
     0000228B  A$lcc1558059$136                   map_00_init_npc
     0000228C  A$lcc1558059$140                   map_00_init_npc
     0000228C  C$map_00_init_npc.c$18$2_1$167     map_00_init_npc
     0000228D  A$lcc1558059$141                   map_00_init_npc
     0000228F  A$lcc1558059$146                   map_00_init_npc
     0000228F  C$map_00_init_npc.c$21$1_1$166     map_00_init_npc
     00002292  A$lcc1558059$147                   map_00_init_npc
     00002293  A$lcc1558059$148                   map_00_init_npc
     00002294  A$lcc1558059$149                   map_00_init_npc
     00002296  A$lcc1558059$150                   map_00_init_npc
     00002299  A$lcc1558059$151                   map_00_init_npc
     0000229A  A$lcc1558059$152                   map_00_init_npc
     0000229D  A$lcc1558059$153                   map_00_init_npc
     0000229F  A$lcc1558059$154                   map_00_init_npc
     000022A0  A$lcc1558059$155                   map_00_init_npc
     000022A2  A$lcc1558059$156                   map_00_init_npc
     000022A4  A$lcc1558059$157                   map_00_init_npc
     000022A5  A$lcc1558059$158                   map_00_init_npc
     000022A6  A$lcc1558059$159                   map_00_init_npc
     000022A7  A$lcc1558059$160                   map_00_init_npc
     000022A8  A$lcc1558059$161                   map_00_init_npc
     000022A9  A$lcc1558059$162                   map_00_init_npc
     000022AA  A$lcc1558059$166                   map_00_init_npc
     000022AA  C$map_00_init_npc.c$22$1_1$166     map_00_init_npc
     000022AD  A$lcc1558059$167                   map_00_init_npc
     000022AE  A$lcc1558059$168                   map_00_init_npc
     000022AF  A$lcc1558059$169                   map_00_init_npc
     000022B1  A$lcc1558059$170                   map_00_init_npc
     000022B4  A$lcc1558059$171                   map_00_init_npc
     000022B5  A$lcc1558059$172                   map_00_init_npc
     000022B8  A$lcc1558059$173                   map_00_init_npc
     000022BA  A$lcc1558059$174                   map_00_init_npc
     000022BB  A$lcc1558059$175                   map_00_init_npc
     000022BD  A$lcc1558059$176                   map_00_init_npc
     000022BF  A$lcc1558059$177                   map_00_init_npc
     000022C0  A$lcc1558059$178                   map_00_init_npc
     000022C1  A$lcc1558059$179                   map_00_init_npc
     000022C2  A$lcc1558059$180                   map_00_init_npc
     000022C3  A$lcc1558059$181                   map_00_init_npc
     000022C4  A$lcc1558059$182                   map_00_init_npc
     000022C5  A$lcc1558059$186                   map_00_init_npc
     000022C5  C$map_00_init_npc.c$24$1_1$166     map_00_init_npc
     000022C8  A$lcc1558059$187                   map_00_init_npc
     000022C9  A$lcc1558059$188                   map_00_init_npc
ASxxxx Linker V03.00/V05.40 + sdld,  page 82.
Hexadecimal  [32-Bits]

Area                                    Addr        Size        Decimal Bytes (Attributes)
--------------------------------        ----        ----        ------- ----- ------------
_CODE                               00000200    00002573 =        9587. bytes (REL,CON)

      Value  Global                              Global Defined In Module
      -----  --------------------------------   ------------------------
     000022CB  A$lcc1558059$189                   map_00_init_npc
     000022CE  A$lcc1558059$190                   map_00_init_npc
     000022CF  A$lcc1558059$191                   map_00_init_npc
     000022D1  A$lcc1558059$195                   map_00_init_npc
     000022D1  C$map_00_init_npc.c$25$1_1$166     map_00_init_npc
     000022D4  A$lcc1558059$196                   map_00_init_npc
     000022D5  A$lcc1558059$197                   map_00_init_npc
     000022D7  A$lcc1558059$198                   map_00_init_npc
     000022DA  A$lcc1558059$199                   map_00_init_npc
     000022DB  A$lcc1558059$200                   map_00_init_npc
     000022DD  A$lcc1558059$204                   map_00_init_npc
     000022DD  C$map_00_init_npc.c$26$1_1$166     map_00_init_npc
     000022E0  A$lcc1558059$205                   map_00_init_npc
     000022E1  A$lcc1558059$206                   map_00_init_npc
     000022E3  A$lcc1558059$207                   map_00_init_npc
     000022E6  A$lcc1558059$208                   map_00_init_npc
     000022E7  A$lcc1558059$209                   map_00_init_npc
     000022E9  A$lcc1558059$213                   map_00_init_npc
     000022E9  C$map_00_init_npc.c$29$2_1$168     map_00_init_npc
     000022EB  A$lcc1558059$214                   map_00_init_npc
     000022ED  A$lcc1558059$215                   map_00_init_npc
     000022EE  A$lcc1558059$216                   map_00_init_npc
     000022F0  A$lcc1558059$217                   map_00_init_npc
     000022F1  A$lcc1558059$218                   map_00_init_npc
     000022F3  A$lcc1558059$219                   map_00_init_npc
     000022F4  A$lcc1558059$220                   map_00_init_npc
     000022F6  A$lcc1558059$221                   map_00_init_npc
     000022F7  A$lcc1558059$222                   map_00_init_npc
     000022F9  A$lcc1558059$223                   map_00_init_npc
     000022FA  A$lcc1558059$224                   map_00_init_npc
     000022FC  A$lcc1558059$225                   map_00_init_npc
     000022FD  A$lcc1558059$226                   map_00_init_npc
     000022FF  A$lcc1558059$227                   map_00_init_npc
     00002300  A$lcc1558059$228                   map_00_init_npc
     00002302  A$lcc1558059$232                   map_00_init_npc
     00002302  C$map_00_init_npc.c$35$1_2$168     map_00_init_npc
     00002305  A$lcc1558059$233                   map_00_init_npc
     00002306  A$lcc1558059$234                   map_00_init_npc
     00002308  A$lcc1558059$235                   map_00_init_npc
     00002309  A$lcc1558059$236                   map_00_init_npc
     0000230A  A$lcc1558059$237                   map_00_init_npc
     0000230B  A$lcc1558059$238                   map_00_init_npc
     0000230C  A$lcc1558059$239                   map_00_init_npc
     0000230D  A$lcc1558059$240                   map_00_init_npc
     0000230E  A$lcc1558059$241                   map_00_init_npc
     0000230F  A$lcc1558059$242                   map_00_init_npc
     00002310  A$lcc1558059$243                   map_00_init_npc
     00002311  A$lcc1558059$244                   map_00_init_npc
     00002314  A$lcc1558059$245                   map_00_init_npc
     00002315  A$lcc1558059$246                   map_00_init_npc
     00002316  A$lcc1558059$247                   map_00_init_npc
ASxxxx Linker V03.00/V05.40 + sdld,  page 83.
Hexadecimal  [32-Bits]

Area                                    Addr        Size        Decimal Bytes (Attributes)
--------------------------------        ----        ----        ------- ----- ------------
_CODE                               00000200    00002573 =        9587. bytes (REL,CON)

      Value  Global                              Global Defined In Module
      -----  --------------------------------   ------------------------
     00002317  A$lcc1558059$248                   map_00_init_npc
     0000231A  A$lcc1558059$249                   map_00_init_npc
     0000231B  A$lcc1558059$250                   map_00_init_npc
     0000231D  A$lcc1558059$251                   map_00_init_npc
     0000231E  A$lcc1558059$252                   map_00_init_npc
     0000231F  A$lcc1558059$253                   map_00_init_npc
     00002322  A$lcc1558059$254                   map_00_init_npc
     00002323  A$lcc1558059$255                   map_00_init_npc
     00002324  A$lcc1558059$256                   map_00_init_npc
     00002325  A$lcc1558059$257                   map_00_init_npc
     00002326  A$lcc1558059$258                   map_00_init_npc
     00002327  A$lcc1558059$259                   map_00_init_npc
     0000232A  A$lcc1558059$260                   map_00_init_npc
     0000232D  A$lcc1558059$264                   map_00_init_npc
     0000232F  A$lcc1558059$269                   map_00_init_npc
     0000232F  C$map_00_init_npc.c$36$1_2$165     map_00_init_npc
     0000232F  XG$Map_00_NPC_Init$0$0             map_00_init_npc
     00002330  A$lcc1558060$56                    map_00_update
     00002330  C$map_00_update.c$11$0_0$173       map_00_update
     00002330  G$Map_00_Update$0$0                map_00_update
     00002330  _Map_00_Update                     map_00_update
     00002332  A$lcc1558060$57                    map_00_update
     00002334  A$lcc1558060$58                    map_00_update
     00002335  A$lcc1558060$59                    map_00_update
     00002336  A$lcc1558060$60                    map_00_update
     00002337  A$lcc1558060$64                    map_00_update
     00002337  C$map_00_update.c$13$1_0$173       map_00_update
     0000233A  A$lcc1558060$68                    map_00_update
     0000233A  C$map_00_update.c$15$1_1$174       map_00_update
     0000233C  A$lcc1558060$69                    map_00_update
     0000233D  A$lcc1558060$70                    map_00_update
     0000233E  A$lcc1558060$71                    map_00_update
     0000233F  A$lcc1558060$72                    map_00_update
     00002342  A$lcc1558060$73                    map_00_update
     00002343  A$lcc1558060$74                    map_00_update
     00002344  A$lcc1558060$75                    map_00_update
     00002345  A$lcc1558060$76                    map_00_update
     00002346  A$lcc1558060$77                    map_00_update
     00002348  A$lcc1558060$78                    map_00_update
     00002349  A$lcc1558060$79                    map_00_update
     0000234A  A$lcc1558060$80                    map_00_update
     0000234B  A$lcc1558060$84                    map_00_update
     0000234C  A$lcc1558060$85                    map_00_update
     0000234D  A$lcc1558060$86                    map_00_update
     00002350  A$lcc1558060$87                    map_00_update
     00002351  A$lcc1558060$88                    map_00_update
     00002352  A$lcc1558060$89                    map_00_update
     00002353  A$lcc1558060$90                    map_00_update
     00002355  A$lcc1558060$91                    map_00_update
     00002356  A$lcc1558060$92                    map_00_update
     00002357  A$lcc1558060$93                    map_00_update
ASxxxx Linker V03.00/V05.40 + sdld,  page 84.
Hexadecimal  [32-Bits]

Area                                    Addr        Size        Decimal Bytes (Attributes)
--------------------------------        ----        ----        ------- ----- ------------
_CODE                               00000200    00002573 =        9587. bytes (REL,CON)

      Value  Global                              Global Defined In Module
      -----  --------------------------------   ------------------------
     00002358  A$lcc1558060$94                    map_00_update
     0000235A  A$lcc1558060$95                    map_00_update
     0000235B  A$lcc1558060$96                    map_00_update
     0000235E  A$lcc1558060$98                    map_00_update
     00002360  A$lcc1558060$99                    map_00_update
     00002361  A$lcc1558060$100                   map_00_update
     00002362  A$lcc1558060$101                   map_00_update
     00002363  A$lcc1558060$102                   map_00_update
     00002364  A$lcc1558060$103                   map_00_update
     00002365  A$lcc1558060$104                   map_00_update
     00002367  A$lcc1558060$105                   map_00_update
     00002368  A$lcc1558060$106                   map_00_update
     00002369  A$lcc1558060$107                   map_00_update
     0000236A  A$lcc1558060$108                   map_00_update
     0000236B  A$lcc1558060$109                   map_00_update
     0000236D  A$lcc1558060$113                   map_00_update
     0000236D  C$map_00_update.c$18$3_1$176       map_00_update
     0000236E  A$lcc1558060$114                   map_00_update
     0000236F  A$lcc1558060$115                   map_00_update
     00002370  A$lcc1558060$116                   map_00_update
     00002371  A$lcc1558060$117                   map_00_update
     00002372  A$lcc1558060$118                   map_00_update
     00002373  A$lcc1558060$119                   map_00_update
     00002374  A$lcc1558060$120                   map_00_update
     00002377  A$lcc1558060$121                   map_00_update
     00002378  A$lcc1558060$125                   map_00_update
     00002378  C$map_00_update.c$17$2_1$175       map_00_update
     00002379  A$lcc1558060$126                   map_00_update
     0000237B  A$lcc1558060$131                   map_00_update
     0000237B  C$map_00_update.c$21$1_1$174       map_00_update
     0000237E  A$lcc1558060$132                   map_00_update
     00002381  A$lcc1558060$136                   map_00_update
     00002381  C$map_00_update.c$22$1_1$174       map_00_update
     00002382  A$lcc1558060$137                   map_00_update
     00002383  A$lcc1558060$138                   map_00_update
     00002384  A$lcc1558060$139                   map_00_update
     00002385  A$lcc1558060$140                   map_00_update
     00002386  A$lcc1558060$141                   map_00_update
     00002387  A$lcc1558060$142                   map_00_update
     0000238A  A$lcc1558060$146                   map_00_update
     0000238A  C$map_00_update.c$24$1_1$174       map_00_update
     0000238C  A$lcc1558060$147                   map_00_update
     0000238D  A$lcc1558060$148                   map_00_update
     0000238E  A$lcc1558060$149                   map_00_update
     0000238F  A$lcc1558060$150                   map_00_update
     00002392  A$lcc1558060$157                   map_00_update
     00002392  C$map_00_update.c$26$1_1$174       map_00_update
     00002394  A$lcc1558060$162                   map_00_update
     00002394  C$map_00_update.c$27$1_1$173       map_00_update
     00002394  XG$Map_00_Update$0$0               map_00_update
     00002395  A$lcc1558061$65                    main
ASxxxx Linker V03.00/V05.40 + sdld,  page 85.
Hexadecimal  [32-Bits]

Area                                    Addr        Size        Decimal Bytes (Attributes)
--------------------------------        ----        ----        ------- ----- ------------
_CODE                               00000200    00002573 =        9587. bytes (REL,CON)

      Value  Global                              Global Defined In Module
      -----  --------------------------------   ------------------------
     00002395  C$main.c$25$0_0$175                main
     00002395  C$main.c$27$1_0$175                main
     00002395  G$load_number_tiles$0$0            main
     00002395  _load_number_tiles                 main
     00002398  A$lcc1558061$66                    main
     00002399  A$lcc1558061$67                    main
     0000239C  A$lcc1558061$68                    main
     0000239D  A$lcc1558061$69                    main
     000023A0  A$lcc1558061$70                    main
     000023A2  A$lcc1558061$74                    main
     000023A2  C$main.c$28$1_0$175                main
     000023A5  A$lcc1558061$75                    main
     000023A6  A$lcc1558061$76                    main
     000023A9  A$lcc1558061$77                    main
     000023AA  A$lcc1558061$78                    main
     000023AD  A$lcc1558061$79                    main
     000023AF  A$lcc1558061$87                    main
     000023AF  C$main.c$29$1_0$175                main
     000023AF  XG$load_number_tiles$0$0           main
     000023B0  A$lcc1558061$100                   main
     000023B0  C$main.c$31$1_0$177                main
     000023B0  C$main.c$33$1_0$177                main
     000023B0  G$main$0$0                         main
     000023B0  _main                              main
     000023B2  A$lcc1558061$101                   main
     000023B4  A$lcc1558061$102                   main
     000023B6  A$lcc1558061$106                   main
     000023B6  C$main.c$34$1_0$177                main
     000023B8  A$lcc1558061$107                   main
     000023BA  A$lcc1558061$108                   main
     000023BC  A$lcc1558061$112                   main
     000023BC  C$main.c$43$1_1$178                main
     000023BF  A$lcc1558061$113                   main
     000023C1  A$lcc1558061$114                   main
     000023C2  A$lcc1558061$115                   main
     000023C4  A$lcc1558061$119                   main
     000023C4  C$main.c$45$1_1$178                main
     000023C7  A$lcc1558061$123                   main
     000023C7  C$main.c$47$1_1$178                main
     000023CA  A$lcc1558061$127                   main
     000023CA  C$main.c$48$1_1$178                main
     000023CD  A$lcc1558061$131                   main
     000023CD  C$main.c$51$1_2$179                main
     000023D0  A$lcc1558061$132                   main
     000023D3  A$lcc1558061$136                   main
     000023D3  C$main.c$53$1_2$179                main
     000023D6  A$lcc1558061$137                   main
     000023D9  A$lcc1558061$138                   main
     000023DA  A$lcc1558061$139                   main
     000023DB  A$lcc1558061$140                   main
     000023DC  A$lcc1558061$141                   main
ASxxxx Linker V03.00/V05.40 + sdld,  page 86.
Hexadecimal  [32-Bits]

Area                                    Addr        Size        Decimal Bytes (Attributes)
--------------------------------        ----        ----        ------- ----- ------------
_CODE                               00000200    00002573 =        9587. bytes (REL,CON)

      Value  Global                              Global Defined In Module
      -----  --------------------------------   ------------------------
     000023DD  A$lcc1558061$142                   main
     000023DE  A$lcc1558061$143                   main
     000023DF  A$lcc1558061$144                   main
     000023E0  A$lcc1558061$145                   main
     000023E3  A$lcc1558061$146                   main
     000023E5  A$lcc1558061$147                   main
     000023E6  A$lcc1558061$148                   main
     000023E7  A$lcc1558061$149                   main
     000023E8  A$lcc1558061$150                   main
     000023E9  A$lcc1558061$151                   main
     000023EC  A$lcc1558061$155                   main
     000023EC  C$main.c$55$1_2$179                main
     000023EF  A$lcc1558061$160                   main
     000023EF  C$main.c$57$1_2$179                main
     000023F2  A$lcc1558061$161                   main
     000023F3  A$lcc1558061$162                   main
     000023F4  A$lcc1558061$163                   main
     000023F5  A$lcc1558061$167                   main
     000023F5  C$main.c$59$2_2$180                main
     000023F8  A$lcc1558061$168                   main
     000023F9  A$lcc1558061$169                   main
     000023FA  A$lcc1558061$170                   main
     000023FB  A$lcc1558061$171                   main
     000023FC  A$lcc1558061$172                   main
     000023FD  A$lcc1558061$173                   main
     000023FE  A$lcc1558061$174                   main
     000023FF  A$lcc1558061$175                   main
     00002400  A$lcc1558061$176                   main
     00002401  A$lcc1558061$177                   main
     00002402  A$lcc1558061$178                   main
     00002403  A$lcc1558061$179                   main
     00002404  A$lcc1558061$180                   main
     00002407  A$lcc1558061$181                   main
     00002408  A$lcc1558061$182                   main
     00002409  A$lcc1558061$183                   main
     0000240A  A$lcc1558061$188                   main
     0000240A  C$main.c$61$2_2$180                main
     0000240D  A$lcc1558061$196                   main
     0000240D  C$main.c$63$1_2$177                main
     0000240D  XG$main$0$0                        main
     0000240F  __divsuchar                        divmod
     00002415  __modsuchar                        divmod
     0000241E  __divuschar                        divmod
     00002427  __moduschar                        divmod
     00002433  __divschar                         divmod
     00002438  __modschar                         divmod
     0000243F  __divsint                          divmod
     00002448  __modsint                          divmod
     00002454  __divuchar                         divmod
     00002459  __moduchar                         divmod
     00002460  __divuint                          divmod
ASxxxx Linker V03.00/V05.40 + sdld,  page 87.
Hexadecimal  [32-Bits]

Area                                    Addr        Size        Decimal Bytes (Attributes)
--------------------------------        ----        ----        ------- ----- ------------
_CODE                               00000200    00002573 =        9587. bytes (REL,CON)

      Value  Global                              Global Defined In Module
      -----  --------------------------------   ------------------------
     00002469  __moduint                          divmod
     00002475  .div8                              divmod
     00002475  .mod8                              divmod
     0000247D  .div16                             divmod
     0000247D  .mod16                             divmod
     000024B3  .divu8                             divmod
     000024B3  .modu8                             divmod
     000024B6  .divu16                            divmod
     000024B6  .modu16                            divmod
     000024F6  _free                              free
     00002606  ___sdcc_heap_init                  malloc
     00002628  _malloc                            malloc
     0000272E  __mulsuchar                        mul
     00002731  __muluschar                        mul
     0000273A  __mulschar                         mul
     00002742  __mulint                           mul
     00002761  __muluchar                         mul

ASxxxx Linker V03.00/V05.40 + sdld,  page 88.
Hexadecimal  [32-Bits]

Area                                    Addr        Size        Decimal Bytes (Attributes)
--------------------------------        ----        ----        ------- ----- ------------
_HEADER0                            00000000    00000001 =           1. bytes (ABS,CON)

      Value  Global                              Global Defined In Module
      -----  --------------------------------   ------------------------
     00000020  .call_hl                           Runtime

ASxxxx Linker V03.00/V05.40 + sdld,  page 89.
Hexadecimal  [32-Bits]

Area                                    Addr        Size        Decimal Bytes (Attributes)
--------------------------------        ----        ----        ------- ----- ------------
_HEADER1                            00000000    00000005 =           5. bytes (ABS,CON)

      Value  Global                              Global Defined In Module
      -----  --------------------------------   ------------------------
     00000028  .MemsetSmall                       Runtime

ASxxxx Linker V03.00/V05.40 + sdld,  page 90.
Hexadecimal  [32-Bits]

Area                                    Addr        Size        Decimal Bytes (Attributes)
--------------------------------        ----        ----        ------- ----- ------------
_HEADER2                            00000000    00000007 =           7. bytes (ABS,CON)

      Value  Global                              Global Defined In Module
      -----  --------------------------------   ------------------------
     00000030  .MemcpySmall                       Runtime

ASxxxx Linker V03.00/V05.40 + sdld,  page 91.
Hexadecimal  [32-Bits]

Area                                    Addr        Size        Decimal Bytes (Attributes)
--------------------------------        ----        ----        ------- ----- ------------
_HEADER3                            00000000    00000008 =           8. bytes (ABS,CON)

      Value  Global                              Global Defined In Module
      -----  --------------------------------   ------------------------
ASxxxx Linker V03.00/V05.40 + sdld,  page 92.
Hexadecimal  [32-Bits]

Area                                    Addr        Size        Decimal Bytes (Attributes)
--------------------------------        ----        ----        ------- ----- ------------
_HEADER4                            00000000    00000060 =          96. bytes (ABS,CON)

      Value  Global                              Global Defined In Module
      -----  --------------------------------   ------------------------
     00000080  .int                               Runtime
     0000008F  _wait_int_handler                  Runtime
     0000009C  __standard_VBL_handler             Runtime
     000000AB  _refresh_OAM                       Runtime
     000000CC  _set_interrupts                    Runtime

ASxxxx Linker V03.00/V05.40 + sdld,  page 93.
Hexadecimal  [32-Bits]

Area                                    Addr        Size        Decimal Bytes (Attributes)
--------------------------------        ----        ----        ------- ----- ------------
_HEADER5                            00000000    00000001 =           1. bytes (ABS,CON)

      Value  Global                              Global Defined In Module
      -----  --------------------------------   ------------------------
ASxxxx Linker V03.00/V05.40 + sdld,  page 94.
Hexadecimal  [32-Bits]

Area                                    Addr        Size        Decimal Bytes (Attributes)
--------------------------------        ----        ----        ------- ----- ------------
_HEADER6                            00000000    00000002 =           2. bytes (ABS,CON)

      Value  Global                              Global Defined In Module
      -----  --------------------------------   ------------------------
ASxxxx Linker V03.00/V05.40 + sdld,  page 95.
Hexadecimal  [32-Bits]

Area                                    Addr        Size        Decimal Bytes (Attributes)
--------------------------------        ----        ----        ------- ----- ------------
_HEADER7                            00000000    00000030 =          48. bytes (ABS,CON)

      Value  Global                              Global Defined In Module
      -----  --------------------------------   ------------------------
ASxxxx Linker V03.00/V05.40 + sdld,  page 96.
Hexadecimal  [32-Bits]

Area                                    Addr        Size        Decimal Bytes (Attributes)
--------------------------------        ----        ----        ------- ----- ------------
_HEADER8                            00000000    00000006 =           6. bytes (ABS,CON)

      Value  Global                              Global Defined In Module
      -----  --------------------------------   ------------------------
ASxxxx Linker V03.00/V05.40 + sdld,  page 97.
Hexadecimal  [32-Bits]

Area                                    Addr        Size        Decimal Bytes (Attributes)
--------------------------------        ----        ----        ------- ----- ------------
_HEADER9                            00000000    00000003 =           3. bytes (ABS,CON)

      Value  Global                              Global Defined In Module
      -----  --------------------------------   ------------------------
ASxxxx Linker V03.00/V05.40 + sdld,  page 98.
Hexadecimal  [32-Bits]

Area                                    Addr        Size        Decimal Bytes (Attributes)
--------------------------------        ----        ----        ------- ----- ------------
_HEADERa                            00000000    00000001 =           1. bytes (ABS,CON)

      Value  Global                              Global Defined In Module
      -----  --------------------------------   ------------------------
ASxxxx Linker V03.00/V05.40 + sdld,  page 99.
Hexadecimal  [32-Bits]

Area                                    Addr        Size        Decimal Bytes (Attributes)
--------------------------------        ----        ----        ------- ----- ------------
_HEADERb                            00000000    00000001 =           1. bytes (ABS,CON)

      Value  Global                              Global Defined In Module
      -----  --------------------------------   ------------------------
ASxxxx Linker V03.00/V05.40 + sdld,  page 100.
Hexadecimal  [32-Bits]

Area                                    Addr        Size        Decimal Bytes (Attributes)
--------------------------------        ----        ----        ------- ----- ------------
_HEADERc                            00000000    00000001 =           1. bytes (ABS,CON)

      Value  Global                              Global Defined In Module
      -----  --------------------------------   ------------------------
ASxxxx Linker V03.00/V05.40 + sdld,  page 101.
Hexadecimal  [32-Bits]

Area                                    Addr        Size        Decimal Bytes (Attributes)
--------------------------------        ----        ----        ------- ----- ------------
_HEADERd                            00000000    00000002 =           2. bytes (ABS,CON)

      Value  Global                              Global Defined In Module
      -----  --------------------------------   ------------------------
ASxxxx Linker V03.00/V05.40 + sdld,  page 102.
Hexadecimal  [32-Bits]

Area                                    Addr        Size        Decimal Bytes (Attributes)
--------------------------------        ----        ----        ------- ----- ------------
_HEADERe                            00000000    00000001 =           1. bytes (ABS,CON)

      Value  Global                              Global Defined In Module
      -----  --------------------------------   ------------------------
ASxxxx Linker V03.00/V05.40 + sdld,  page 103.
Hexadecimal  [32-Bits]

Area                                    Addr        Size        Decimal Bytes (Attributes)
--------------------------------        ----        ----        ------- ----- ------------
_HEADERf                            00000000    00000001 =           1. bytes (ABS,CON)

      Value  Global                              Global Defined In Module
      -----  --------------------------------   ------------------------
ASxxxx Linker V03.00/V05.40 + sdld,  page 104.
Hexadecimal  [32-Bits]

Area                                    Addr        Size        Decimal Bytes (Attributes)
--------------------------------        ----        ----        ------- ----- ------------
_HEADER10                           00000000    00000002 =           2. bytes (ABS,CON)

      Value  Global                              Global Defined In Module
      -----  --------------------------------   ------------------------
ASxxxx Linker V03.00/V05.40 + sdld,  page 105.
Hexadecimal  [32-Bits]

Area                                    Addr        Size        Decimal Bytes (Attributes)
--------------------------------        ----        ----        ------- ----- ------------
_HEADER11                           00000000    000000AB =         171. bytes (ABS,CON)

      Value  Global                              Global Defined In Module
      -----  --------------------------------   ------------------------
     00000150  .reset                             Runtime
     00000150  _reset                             Runtime
     00000157  .code_start                        Runtime
     000001B9  _exit                              Runtime
     000001BD  .wait_vbl_done                     Runtime
     000001BD  _vsync                             Runtime
     000001BD  _wait_vbl_done                     Runtime
     000001CD  .remove_VBL                        Runtime
     000001CD  _remove_VBL                        Runtime
     000001D0  .remove_int                        Runtime
     000001ED  .add_VBL                           Runtime
     000001ED  _add_VBL                           Runtime
     000001F0  .add_int                           Runtime

ASxxxx Linker V03.00/V05.40 + sdld,  page 106.
Hexadecimal  [32-Bits]

Area                                    Addr        Size        Decimal Bytes (Attributes)
--------------------------------        ----        ----        ------- ----- ------------
_HOME                               00002773    0000012C =         300. bytes (REL,CON)

      Value  Global                              Global Defined In Module
      -----  --------------------------------   ------------------------
     00002773  .memset_simple                     Runtime
     0000277C  .memcpy_simple                     Runtime
     00002799  .display_off                       Runtime
     00002799  _display_off                       Runtime
     000027B1  _set_tile_data                     
     000027B6  _set_bkg_data                      
     000027B6  _set_win_data                      
     000027BE  _set_sprite_data                   
     000027EE  .padup                             
     000027EE  _waitpadup                         
     000027FE  .jpad                              
     000027FE  _joypad                            
     00002826  _waitpad                           
     00002827  .wait_pad                          
     0000282E  ___sdcc_call_hl                    call_hl
     0000282F  _set_bkg_tiles                     
     00002843  .set_xy_wtt                        SetTileMap
     0000284C  .set_xy_btt                        SetTileMap
     0000285B  .set_xy_tt                         SetTileMap

ASxxxx Linker V03.00/V05.40 + sdld,  page 107.
Hexadecimal  [32-Bits]

Area                                    Addr        Size        Decimal Bytes (Attributes)
--------------------------------        ----        ----        ------- ----- ------------
_INITIALIZER                        0000289F    000001E5 =         485. bytes (REL,CON)

      Value  Global                              Global Defined In Module
      -----  --------------------------------   ------------------------
     0000289F  Fspr_InventoryArrow_idle$__xinit   spr_InventoryArrow_idle
     000028AF  Fexample_npc$__xinit_spr_example   example_npc
     000028BF  Fexample_npc$__xinit_spr_example   example_npc
     000028CF  Fexample_npc$__xinit_spr_example   example_npc
     000028DF  Fexample_npc$__xinit_spr_example   example_npc
     000028EF  Fspr_Player_down0$__xinit_spr_Pl   spr_Player_down0
     000028FF  Fspr_Player_down0$__xinit_spr_Pl   spr_Player_down0
     0000290F  Fspr_Player_down0$__xinit_spr_Pl   spr_Player_down0
     0000291F  Fspr_Player_down0$__xinit_spr_Pl   spr_Player_down0
     0000292F  Fspr_Player_down1$__xinit_spr_Pl   spr_Player_down1
     0000293F  Fspr_Player_down1$__xinit_spr_Pl   spr_Player_down1
     0000294F  Fspr_Player_down1$__xinit_spr_Pl   spr_Player_down1
     0000295F  Fspr_Player_down1$__xinit_spr_Pl   spr_Player_down1
     0000296F  Fspr_Player_down2$__xinit_spr_Pl   spr_Player_down2
     0000297F  Fspr_Player_down2$__xinit_spr_Pl   spr_Player_down2
     0000298F  Fspr_Player_down2$__xinit_spr_Pl   spr_Player_down2
     0000299F  Fspr_Player_down2$__xinit_spr_Pl   spr_Player_down2
     000029AF  Fspr_Player_up0$__xinit_spr_Play   spr_Player_up0
     000029BF  Fspr_Player_up0$__xinit_spr_Play   spr_Player_up0
     000029CF  Fspr_Player_up0$__xinit_spr_Play   spr_Player_up0
     000029DF  Fspr_Player_up0$__xinit_spr_Play   spr_Player_up0
     000029EF  Fspr_Player_up1$__xinit_spr_Play   spr_Player_up1
     000029FF  Fspr_Player_up1$__xinit_spr_Play   spr_Player_up1
     00002A0F  Fspr_Player_up1$__xinit_spr_Play   spr_Player_up1
     00002A1F  Fspr_Player_up1$__xinit_spr_Play   spr_Player_up1
     00002A2F  Fspr_Player_up2$__xinit_spr_Play   spr_Player_up2
     00002A3F  Fspr_Player_up2$__xinit_spr_Play   spr_Player_up2
     00002A4F  Fspr_Player_up2$__xinit_spr_Play   spr_Player_up2
     00002A5F  Fspr_Player_up2$__xinit_spr_Play   spr_Player_up2
     00002A6F  Faction$__xinit_MOVE_SPEED$0_0$0   action
     00002A70  Faction$__xinit_current_directio   action
     00002A71  Fcan_move$__xinit_can_move$0_0$0   can_move
     00002A75  Fentity$__xinit_next_entity_id$0   entity
     00002A76  Fgender_selection$__xinit_GENDER   gender_selection
     00002A77  Finput$__xinit_keys$0_0$0          input
     00002A78  Finput$__xinit_prev_keys$0_0$0     input
     00002A79  Finventory$__xinit_inventory_act   inventory
     00002A7A  Fload$__xinit_vram_next_index$0_   load
     00002A7B  Fmoney$__xinit_money$0_0$0         money
     00002A7D  Fmain_menu$__xinit_timer$0_0$0     main_menu
     00002A7F  Fmain_menu$__xinit_rate$0_0$0      main_menu
     00002A80  Fmain_menu$__xinit_show_text$0_0   main_menu
     00002A81  Fmain_menu$__xinit_seed$0_0$0      main_menu

ASxxxx Linker V03.00/V05.40 + sdld,  page 108.
Hexadecimal  [32-Bits]

Area                                    Addr        Size        Decimal Bytes (Attributes)
--------------------------------        ----        ----        ------- ----- ------------
_GSINIT                             00002A84    0000000F =          15. bytes (REL,CON)

      Value  Global                              Global Defined In Module
      -----  --------------------------------   ------------------------
     00002A84  gsinit                             Runtime

ASxxxx Linker V03.00/V05.40 + sdld,  page 109.
Hexadecimal  [32-Bits]

Area                                    Addr        Size        Decimal Bytes (Attributes)
--------------------------------        ----        ----        ------- ----- ------------
_GSFINAL                            00002A93    00000001 =           1. bytes (REL,CON)

      Value  Global                              Global Defined In Module
      -----  --------------------------------   ------------------------
ASxxxx Linker V03.00/V05.40 + sdld,  page 110.
Hexadecimal  [32-Bits]

Area                                    Addr        Size        Decimal Bytes (Attributes)
--------------------------------        ----        ----        ------- ----- ------------
_DATA                               0000C0A0    000001BB =         443. bytes (REL,CON)

      Value  Global                              Global Defined In Module
      -----  --------------------------------   ------------------------
     0000C0A0  __cpu                              Runtime
     0000C0A1  __is_GBA                           Runtime
     0000C0A2  .mode                              Runtime
     0000C0A3  .sys_time                          Runtime
     0000C0A3  _sys_time                          Runtime
     0000C0A5  .int_0x40                          Runtime
     0000C0B1  G$animation$0_0$0                  animation
     0000C0B1  _animation                         animation
     0000C1A6  G$names$0_0$0                      name
     0000C1A6  _names                             name
     0000C1D8  G$npc_1$0_0$0                      npcs
     0000C1D8  _npc_1                             npcs
     0000C1D9  G$npc_2$0_0$0                      npcs
     0000C1D9  _npc_2                             npcs
     0000C1DA  G$option_actor$0_0$0               npcs
     0000C1DA  _option_actor                      npcs
     0000C1DB  G$humor_stats$0_0$0                npcs
     0000C1DB  _humor_stats                       npcs
     0000C1EA  G$CurrentNPCDialogues$0_0$0        npc_lines
     0000C1EA  _CurrentNPCDialogues               npc_lines
     0000C1EE  G$player$0_0$0                     player
     0000C1EE  _player                            player
     0000C1EF  G$player_animations$0_0$0          player
     0000C1EF  _player_animations                 player
     0000C1F3  G$player_y_cache$0_0$0             player
     0000C1F3  _player_y_cache                    player
     0000C1F4  G$position$0_0$0                   position
     0000C1F4  _position                          position
     0000C212  G$render$0_0$0                     render
     0000C212  _render                            render
     0000C221  G$scene_manager$0_0$0              scene_manager
     0000C221  _scene_manager                     scene_manager
     0000C223  G$GenderSelect$0_0$0               gender_select
     0000C223  _GenderSelect                      gender_select
     0000C22B  G$InventoryScene$0_0$0             inventory_scene
     0000C22B  _InventoryScene                    inventory_scene
     0000C233  G$MainMenu$0_0$0                   main_menu
     0000C233  _MainMenu                          main_menu
     0000C23B  G$CurrentMapData$0_0$0             map_data
     0000C23B  _CurrentMapData                    map_data
     0000C24D  G$Map_00$0_0$0                     map_00
     0000C24D  _Map_00                            map_00
     0000C255  Lmain.main$game$1_1$178            main
     0000C259  ___sdcc_heap_free                  malloc

ASxxxx Linker V03.00/V05.40 + sdld,  page 111.
Hexadecimal  [32-Bits]

Area                                    Addr        Size        Decimal Bytes (Attributes)
--------------------------------        ----        ----        ------- ----- ------------
_INITIALIZED                        0000C25B    000001E5 =         485. bytes (REL,CON)

      Value  Global                              Global Defined In Module
      -----  --------------------------------   ------------------------
     0000C25B  G$spr_InventoryArrow_idle$0_0$0    spr_InventoryArrow_idle
     0000C25B  _spr_InventoryArrow_idle           spr_InventoryArrow_idle
     0000C26B  G$spr_example_NPC_00$0_0$0         example_npc
     0000C26B  _spr_example_NPC_00                example_npc
     0000C27B  G$spr_example_NPC_01$0_0$0         example_npc
     0000C27B  _spr_example_NPC_01                example_npc
     0000C28B  G$spr_example_NPC_10$0_0$0         example_npc
     0000C28B  _spr_example_NPC_10                example_npc
     0000C29B  G$spr_example_NPC_11$0_0$0         example_npc
     0000C29B  _spr_example_NPC_11                example_npc
     0000C2AB  G$spr_Player_down0_00$0_0$0        spr_Player_down0
     0000C2AB  _spr_Player_down0_00               spr_Player_down0
     0000C2BB  G$spr_Player_down0_10$0_0$0        spr_Player_down0
     0000C2BB  _spr_Player_down0_10               spr_Player_down0
     0000C2CB  G$spr_Player_down0_01$0_0$0        spr_Player_down0
     0000C2CB  _spr_Player_down0_01               spr_Player_down0
     0000C2DB  G$spr_Player_down0_11$0_0$0        spr_Player_down0
     0000C2DB  _spr_Player_down0_11               spr_Player_down0
     0000C2EB  G$spr_Player_down1_00$0_0$0        spr_Player_down1
     0000C2EB  _spr_Player_down1_00               spr_Player_down1
     0000C2FB  G$spr_Player_down1_10$0_0$0        spr_Player_down1
     0000C2FB  _spr_Player_down1_10               spr_Player_down1
     0000C30B  G$spr_Player_down1_01$0_0$0        spr_Player_down1
     0000C30B  _spr_Player_down1_01               spr_Player_down1
     0000C31B  G$spr_Player_down1_11$0_0$0        spr_Player_down1
     0000C31B  _spr_Player_down1_11               spr_Player_down1
     0000C32B  G$spr_Player_down2_00$0_0$0        spr_Player_down2
     0000C32B  _spr_Player_down2_00               spr_Player_down2
     0000C33B  G$spr_Player_down2_10$0_0$0        spr_Player_down2
     0000C33B  _spr_Player_down2_10               spr_Player_down2
     0000C34B  G$spr_Player_down2_01$0_0$0        spr_Player_down2
     0000C34B  _spr_Player_down2_01               spr_Player_down2
     0000C35B  G$spr_Player_down2_11$0_0$0        spr_Player_down2
     0000C35B  _spr_Player_down2_11               spr_Player_down2
     0000C36B  G$spr_Player_up0_00$0_0$0          spr_Player_up0
     0000C36B  _spr_Player_up0_00                 spr_Player_up0
     0000C37B  G$spr_Player_up0_10$0_0$0          spr_Player_up0
     0000C37B  _spr_Player_up0_10                 spr_Player_up0
     0000C38B  G$spr_Player_up0_01$0_0$0          spr_Player_up0
     0000C38B  _spr_Player_up0_01                 spr_Player_up0
     0000C39B  G$spr_Player_up0_11$0_0$0          spr_Player_up0
     0000C39B  _spr_Player_up0_11                 spr_Player_up0
     0000C3AB  G$spr_Player_up1_00$0_0$0          spr_Player_up1
     0000C3AB  _spr_Player_up1_00                 spr_Player_up1
     0000C3BB  G$spr_Player_up1_10$0_0$0          spr_Player_up1
     0000C3BB  _spr_Player_up1_10                 spr_Player_up1
     0000C3CB  G$spr_Player_up1_01$0_0$0          spr_Player_up1
     0000C3CB  _spr_Player_up1_01                 spr_Player_up1
     0000C3DB  G$spr_Player_up1_11$0_0$0          spr_Player_up1
     0000C3DB  _spr_Player_up1_11                 spr_Player_up1
ASxxxx Linker V03.00/V05.40 + sdld,  page 112.
Hexadecimal  [32-Bits]

Area                                    Addr        Size        Decimal Bytes (Attributes)
--------------------------------        ----        ----        ------- ----- ------------
_INITIALIZED                        0000C25B    000001E5 =         485. bytes (REL,CON)

      Value  Global                              Global Defined In Module
      -----  --------------------------------   ------------------------
     0000C3EB  G$spr_Player_up2_00$0_0$0          spr_Player_up2
     0000C3EB  _spr_Player_up2_00                 spr_Player_up2
     0000C3FB  G$spr_Player_up2_10$0_0$0          spr_Player_up2
     0000C3FB  _spr_Player_up2_10                 spr_Player_up2
     0000C40B  G$spr_Player_up2_01$0_0$0          spr_Player_up2
     0000C40B  _spr_Player_up2_01                 spr_Player_up2
     0000C41B  G$spr_Player_up2_11$0_0$0          spr_Player_up2
     0000C41B  _spr_Player_up2_11                 spr_Player_up2
     0000C42B  G$MOVE_SPEED$0_0$0                 action
     0000C42B  _MOVE_SPEED                        action
     0000C42C  G$current_direction$0_0$0          action
     0000C42C  _current_direction                 action
     0000C42D  G$can_move$0_0$0                   can_move
     0000C42D  _can_move                          can_move
     0000C431  G$next_entity_id$0_0$0             entity
     0000C431  _next_entity_id                    entity
     0000C432  G$GENDER$0_0$0                     gender_selection
     0000C432  _GENDER                            gender_selection
     0000C433  G$keys$0_0$0                       input
     0000C433  _keys                              input
     0000C434  G$prev_keys$0_0$0                  input
     0000C434  _prev_keys                         input
     0000C435  G$inventory_active$0_0$0           inventory
     0000C435  _inventory_active                  inventory
     0000C436  G$vram_next_index$0_0$0            load
     0000C436  _vram_next_index                   load
     0000C437  G$money$0_0$0                      money
     0000C437  _money                             money
     0000C439  G$timer$0_0$0                      main_menu
     0000C439  _timer                             main_menu
     0000C43B  G$rate$0_0$0                       main_menu
     0000C43B  _rate                              main_menu
     0000C43C  G$show_text$0_0$0                  main_menu
     0000C43C  _show_text                         main_menu
     0000C43D  G$seed$0_0$0                       main_menu
     0000C43D  _seed                              main_menu
     0000C43F  __map_tile_offset                  SetTileMap
ASxxxx Linker V03.00/V05.40 + sdld,  page 113.
Hexadecimal  [32-Bits]

Area                                    Addr        Size        Decimal Bytes (Attributes)
--------------------------------        ----        ----        ------- ----- ------------
_HEAP                               0000C440    000007FF =        2047. bytes (REL,CON)

      Value  Global                              Global Defined In Module
      -----  --------------------------------   ------------------------
     0000C440  ___sdcc_heap                       

ASxxxx Linker V03.00/V05.40 + sdld,  page 114.
Hexadecimal  [32-Bits]

Area                                    Addr        Size        Decimal Bytes (Attributes)
--------------------------------        ----        ----        ------- ----- ------------
_HEAP_END                           0000CC3F    00000001 =           1. bytes (REL,CON)

      Value  Global                              Global Defined In Module
      -----  --------------------------------   ------------------------
     0000CC3F  ___sdcc_heap_end                   

ASxxxx Linker V03.00/V05.40 + sdld,  page 115.
Hexadecimal  [32-Bits]

Area                                    Addr        Size        Decimal Bytes (Attributes)
--------------------------------        ----        ----        ------- ----- ------------
_HRAM                               0000FF80    00000013 =          19. bytes (REL,CON)

      Value  Global                              Global Defined In Module
      -----  --------------------------------   ------------------------
     0000FF80  .refresh_OAM                       Runtime
     0000FF90  __current_bank                     Runtime
     0000FF91  __vbl_done                         Runtime
     0000FF92  __shadow_OAM_base                  Runtime

ASxxxx Linker V03.00/V05.40 + sdld,  page 116.
Hexadecimal  [32-Bits]

Area                                    Addr        Size        Decimal Bytes (Attributes)
--------------------------------        ----        ----        ------- ----- ------------
_CODE_1                             00014000    00000EE8 =        3816. bytes (REL,CON)

      Value  Global                              Global Defined In Module
      -----  --------------------------------   ------------------------
     00014000  G$inventory_bkg_tileset$0_0$0      inventory_bkg
     00014000  _inventory_bkg_tileset             inventory_bkg
     00014340  G$inventory_bkg_tilemap$0_0$0      inventory_bkg
     00014340  _inventory_bkg_tilemap             inventory_bkg
     000144A8  G$bkg_main_menu_tileset$0_0$0      bkg_MainMenu
     000144A8  _bkg_main_menu_tileset             bkg_MainMenu
     00014768  G$bkg_main_menu_tilemap$0_0$0      bkg_MainMenu
     00014768  _bkg_main_menu_tilemap             bkg_MainMenu
     000148D0  G$example_tileset$0_0$0            map_example
     000148D0  _example_tileset                   map_example
     00014D80  G$example_tilemap$0_0$0            map_example
     00014D80  _example_tilemap                   map_example
ASxxxx Linker V03.00/V05.40 + sdld,  page 117.

Files Linked                              [ module(s) ]

C:\Program Files\GBDK\lib/gb/crt0.o       [ Runtime ]
C:\Users\Bau_M\AppData\Local\Temp/lcc155800.o
                                          [ chars ]
C:\Users\Bau_M\AppData\Local\Temp/lcc155801.o
                                          [ numbers ]
C:\Users\Bau_M\AppData\Local\Temp/lcc155802.o
                                          [ gender_select_tilemap ]
C:\Users\Bau_M\AppData\Local\Temp/lcc155803.o
                                          [ gender_select_tileset ]
C:\Users\Bau_M\AppData\Local\Temp/lcc155804.o
                                          [ inventory_bkg ]
C:\Users\Bau_M\AppData\Local\Temp/lcc155805.o
                                          [ bkg_MainMenu ]
C:\Users\Bau_M\AppData\Local\Temp/lcc155806.o
                                          [ map_example ]
C:\Users\Bau_M\AppData\Local\Temp/lcc155807.o
                                          [ npc_icons ]
C:\Users\Bau_M\AppData\Local\Temp/lcc155808.o
                                          [ template_tilemap ]
C:\Users\Bau_M\AppData\Local\Temp/lcc155809.o
                                          [ template_tileset ]
C:\Users\Bau_M\AppData\Local\Temp/lcc1558010.o
                                          [ spr_InventoryArrow_idle ]
C:\Users\Bau_M\AppData\Local\Temp/lcc1558011.o
                                          [ spr_Branch ]
C:\Users\Bau_M\AppData\Local\Temp/lcc1558012.o
                                          [ example_npc ]
C:\Users\Bau_M\AppData\Local\Temp/lcc1558013.o
                                          [ spr_Player_down0 ]
C:\Users\Bau_M\AppData\Local\Temp/lcc1558014.o
                                          [ spr_Player_down1 ]
C:\Users\Bau_M\AppData\Local\Temp/lcc1558015.o
                                          [ spr_Player_down2 ]
C:\Users\Bau_M\AppData\Local\Temp/lcc1558016.o
                                          [ spr_Player_up0 ]
C:\Users\Bau_M\AppData\Local\Temp/lcc1558017.o
                                          [ spr_Player_up1 ]
C:\Users\Bau_M\AppData\Local\Temp/lcc1558018.o
                                          [ spr_Player_up2 ]
C:\Users\Bau_M\AppData\Local\Temp/lcc1558019.o
                                          [ action ]
C:\Users\Bau_M\AppData\Local\Temp/lcc1558020.o
                                          [ animation ]
C:\Users\Bau_M\AppData\Local\Temp/lcc1558021.o
                                          [ can_move ]
C:\Users\Bau_M\AppData\Local\Temp/lcc1558022.o
                                          [ char_to_tile ]
C:\Users\Bau_M\AppData\Local\Temp/lcc1558023.o
                                          [ draw ]
C:\Users\Bau_M\AppData\Local\Temp/lcc1558024.o
                                          [ entity ]
C:\Users\Bau_M\AppData\Local\Temp/lcc1558025.o
                                          [ gender_selection ]
C:\Users\Bau_M\AppData\Local\Temp/lcc1558026.o
                                          [ global_action ]
C:\Users\Bau_M\AppData\Local\Temp/lcc1558027.o
                                          [ input ]
C:\Users\Bau_M\AppData\Local\Temp/lcc1558028.o
                                          [ inventory ]
C:\Users\Bau_M\AppData\Local\Temp/lcc1558029.o
                                          [ inventory_input ]
C:\Users\Bau_M\AppData\Local\Temp/lcc1558030.o
                                          [ load ]
C:\Users\Bau_M\AppData\Local\Temp/lcc1558031.o
                                          [ map_scenes ]
C:\Users\Bau_M\AppData\Local\Temp/lcc1558032.o
                                          [ money ]
C:\Users\Bau_M\AppData\Local\Temp/lcc1558033.o
                                          [ name ]
C:\Users\Bau_M\AppData\Local\Temp/lcc1558034.o
                                          [ npcs ]
C:\Users\Bau_M\AppData\Local\Temp/lcc1558035.o
                                          [ npc_lines ]
C:\Users\Bau_M\AppData\Local\Temp/lcc1558036.o
                                          [ player ]
C:\Users\Bau_M\AppData\Local\Temp/lcc1558037.o
                                          [ position ]
C:\Users\Bau_M\AppData\Local\Temp/lcc1558038.o
                                          [ render ]
C:\Users\Bau_M\AppData\Local\Temp/lcc1558039.o
                                          [ scene ]
C:\Users\Bau_M\AppData\Local\Temp/lcc1558040.o
                                          [ scene_manager ]
C:\Users\Bau_M\AppData\Local\Temp/lcc1558041.o
                                          [ gender_select ]
C:\Users\Bau_M\AppData\Local\Temp/lcc1558042.o
                                          [ gender_select_init ]
C:\Users\Bau_M\AppData\Local\Temp/lcc1558043.o
                                          [ gender_select_update ]
C:\Users\Bau_M\AppData\Local\Temp/lcc1558044.o
                                          [ inventory_scene ]
C:\Users\Bau_M\AppData\Local\Temp/lcc1558045.o
                                          [ inventory_scene_init ]
C:\Users\Bau_M\AppData\Local\Temp/lcc1558046.o
                                          [ inventory_scene_update ]
C:\Users\Bau_M\AppData\Local\Temp/lcc1558047.o
                                          [ main_menu ]
C:\Users\Bau_M\AppData\Local\Temp/lcc1558048.o
                                          [ main_menu_init ]
C:\Users\Bau_M\AppData\Local\Temp/lcc1558049.o
                                          [ main_menu_init_stats ]
C:\Users\Bau_M\AppData\Local\Temp/lcc1558050.o
                                          [ main_menu_input ]
C:\Users\Bau_M\AppData\Local\Temp/lcc1558051.o
                                          [ main_menu_update ]
C:\Users\Bau_M\AppData\Local\Temp/lcc1558052.o
                                          [ clean_text ]
C:\Users\Bau_M\AppData\Local\Temp/lcc1558053.o
                                          [ map_collision ]
C:\Users\Bau_M\AppData\Local\Temp/lcc1558054.o
                                          [ map_data ]
C:\Users\Bau_M\AppData\Local\Temp/lcc1558055.o
                                          [ map_00 ]
C:\Users\Bau_M\AppData\Local\Temp/lcc1558056.o
                                          [ map_00_collision ]
C:\Users\Bau_M\AppData\Local\Temp/lcc1558057.o
                                          [ map_00_init ]
C:\Users\Bau_M\AppData\Local\Temp/lcc1558058.o
                                          [ map_00_init_dialogues ]
C:\Users\Bau_M\AppData\Local\Temp/lcc1558059.o
                                          [ map_00_init_npc ]
C:\Users\Bau_M\AppData\Local\Temp/lcc1558060.o
                                          [ map_00_update ]
C:\Users\Bau_M\AppData\Local\Temp/lcc1558061.o
                                          [ main ]


Libraries Linked                          [ object file ]

C:\Program Files\GBDK\lib/gb/gb.lib       [ sfr.o ]
C:\Program Files\GBDK\lib/sm83/sm83.lib   [ div.o ]
C:\Program Files\GBDK\lib/sm83/sm83.lib   [ free.o ]
C:\Program Files\GBDK\lib/sm83/sm83.lib   [ malloc.o ]
C:\Program Files\GBDK\lib/gb/gb.lib       [ set_data.o ]
C:\Program Files\GBDK\lib/sm83/sm83.lib   [ mul.o ]
C:\Program Files\GBDK\lib/gb/gb.lib       [ pad.o ]
C:\Program Files\GBDK\lib/sm83/sm83.lib   [ __sdcc_call_hl.o ]
C:\Program Files\GBDK\lib/gb/gb.lib       [ heap.o ]
C:\Program Files\GBDK\lib/gb/gb.lib       [ set_bk_t.o ]
C:\Program Files\GBDK\lib/gb/gb.lib       [ set_xy_t.o ]

ASxxxx Linker V03.00/V05.40 + sdld,  page 118.

User Base Address Definitions

_DATA=0xC0A0
_CODE=0x0200
_HRAM=0xFF80
ASxxxx Linker V03.00/V05.40 + sdld,  page 119.

User Global Definitions

_shadow_OAM=0xC000
.STACK=0xE000

